# near model CODE resource
# jump table entries: 6552-6595 (44 of them)
export_819:
00000000  4E56 FEF8                link       A6, -0x0108
00000004  48E7 1718                movem.l    -[A7], D3,D5,D6,D7,A3,A4
00000008  266E 001C                movea.l    A3, [A6 + 0x1C]
0000000C  286E 0008                movea.l    A4, [A6 + 0x8]
00000010  200C                     move.l     D0, A4
00000012  6612                     bne        +0x14 /* 00000026 */
00000014  4878 0144                push.l     0x144
00000018  4EAD 010A                jsr        [A5 + 0x10A /* export_29, CODE:1 @ 00001C0A */]
0000001C  2840                     movea.l    A4, D0
0000001E  200C                     move.l     D0, A4
00000020  584F                     addq.w     A7, 4
00000022  6700 01F6                beq        +0x1F8 /* 0000021A */
label00000026:
00000026  4AAE 000C                tst.l      [A6 + 0xC]
0000002A  57C3                     seq        D3
0000002C  4403                     neg.b      D3
0000002E  674E                     beq        +0x50 /* 0000007E */
00000030  200C                     move.l     D0, A4
00000032  D0BC 0000 0138           add.l      D0, 0x138
00000038  2D40 000C                move.l     [A6 + 0xC], D0
0000003C  7601                     moveq.l    D3, 0x01
0000003E  200C                     move.l     D0, A4
00000040  D0BC 0000 0138           add.l      D0, 0x138
00000046  6614                     bne        +0x16 /* 0000005C */
00000048  2F03                     move.l     -[A7], D3
0000004A  700C                     moveq.l    D0, 0x0C
0000004C  2F00                     move.l     -[A7], D0
0000004E  4EAD 010A                jsr        [A5 + 0x10A /* export_29, CODE:1 @ 00001C0A */]
00000052  588F                     addq.l     A7, 4
00000054  261F                     move.l     D3, [A7]+
00000056  4A80                     tst.l      D0
00000058  6602                     bne        +0x4 /* 0000005C */
0000005A  7600                     moveq.l    D3, 0x00
label0000005C:
0000005C  4A03                     tst.b      D3
0000005E  6712                     beq        +0x14 /* 00000072 */
00000060  296D F136 0140           move.l     [A4 + 0x140], [A5 - 0xECA]
00000066  7000                     moveq.l    D0, 0x00
00000068  2940 0138                move.l     [A4 + 0x138], D0
0000006C  2940 013C                move.l     [A4 + 0x13C], D0
00000070  6002                     bra        +0x4 /* 00000074 */
label00000072:
00000072  7000                     moveq.l    D0, 0x00
label00000074:
00000074  200C                     move.l     D0, A4
00000076  D0BC 0000 0138           add.l      D0, 0x138
0000007C  6004                     bra        +0x6 /* 00000082 */
label0000007E:
0000007E  202E 000C                move.l     D0, [A6 + 0xC]
label00000082:
00000082  2F2E 0018                move.l     -[A7], [A6 + 0x18]
00000086  2F2E 0014                move.l     -[A7], [A6 + 0x14]
0000008A  2F2E 0010                move.l     -[A7], [A6 + 0x10]
0000008E  2F2E 000C                move.l     -[A7], [A6 + 0xC]
00000092  2F0C                     move.l     -[A7], A4
00000094  4EAD 1B6A                jsr        [A5 + 0x1B6A /* export_873, CODE:35 @ 000007C8 */]
00000098  296D F13A 0060           move.l     [A4 + 0x60], [A5 - 0xEC6]
0000009E  296D F13E 0088           move.l     [A4 + 0x88], [A5 - 0xEC2]
000000A4  296D F142 0070           move.l     [A4 + 0x70], [A5 - 0xEBE]
000000AA  206C 0064                movea.l    A0, [A4 + 0x64]
000000AE  216D F146 0008           move.l     [A0 + 0x8], [A5 - 0xEBA]
000000B4  0CAD 0000 0200 F29A      cmpi.l     [A5 - 0xD66], 0x200
000000BC  4FEF 0014                lea.l      A7, [A7 + 0x14]
000000C0  6C3A                     bge        +0x3C /* 000000FC */
000000C2  598F                     subq.l     A7, 4
000000C4  206E 0014                movea.l    A0, [A6 + 0x14]
000000C8  2F28 0084                move.l     -[A7], [A0 + 0x84]
000000CC  486C 0090                pea.l      [A4 + 0x90]
000000D0  2F0B                     move.l     -[A7], A3
000000D2  7001                     moveq.l    D0, 0x01
000000D4  1F00                     move.b     -[A7], D0
000000D6  7200                     moveq.l    D1, 0x00
000000D8  3F01                     move.w     -[A7], D1
000000DA  3F01                     move.w     -[A7], D1
000000DC  3F01                     move.w     -[A7], D1
000000DE  3F01                     move.w     -[A7], D1
000000E0  7000                     moveq.l    D0, 0x00
000000E2  2F00                     move.l     -[A7], D0
000000E4  A954                     syscall    NewControl
000000E6  205F                     movea.l    A0, [A7]+
000000E8  2948 012A                move.l     [A4 + 0x12A], A0
000000EC  2050                     movea.l    A0, [A0]
000000EE  214C 0024                move.l     [A0 + 0x24], A4
000000F2  7000                     moveq.l    D0, 0x00
000000F4  2940 0134                move.l     [A4 + 0x134], D0
000000F8  6000 011C                bra        +0x11E /* 00000216 */
label000000FC:
000000FC  7000                     moveq.l    D0, 0x00
000000FE  2940 012A                move.l     [A4 + 0x12A], D0
00000102  2F3C 0100 000F           move.l     -[A7], 0x100000F
00000108  486C 00CC                pea.l      [A4 + 0xCC]
0000010C  4EAD 15C2                jsr        [A5 + 0x15C2 /* export_692, CODE:32 @ 000026A8 */]
00000110  422E FEF8                clr.b      [A6 - 0x108]
00000114  7E01                     moveq.l    D7, 0x01
00000116  504F                     addq.w     A7, 8
00000118  6018                     bra        +0x1A /* 00000132 */
label0000011A:
0000011A  3007                     move.w     D0, D7
0000011C  5247                     addq.w     D7, 1
0000011E  522E FEF8                addq.b     [A6 - 0x108], 1
00000122  7200                     moveq.l    D1, 0x00
00000124  122E FEF8                move.b     D1, [A6 - 0x108]
00000128  41EE FEF8                lea.l      A0, [A6 - 0x108]
0000012C  11B3 0000 1000           move.b     [A0 + D1.w], [A3 + D0.w]
label00000132:
00000132  102E FEF8                move.b     D0, [A6 - 0x108]
00000136  B013                     cmp.b      D0, [A3]
00000138  640C                     bcc        +0xE /* 00000146 */
0000013A  7000                     moveq.l    D0, 0x00
0000013C  1033 7000                move.b     D0, [A3 + D7.w]
00000140  0C40 0023                cmpi.w     D0, 0x23 /* '#' */
00000144  66D4                     bne        -0x2A /* 0000011A */
label00000146:
00000146  7000                     moveq.l    D0, 0x00
00000148  1033 7000                move.b     D0, [A3 + D7.w]
0000014C  0C40 0023                cmpi.w     D0, 0x23 /* '#' */
00000150  667E                     bne        +0x80 /* 000001D0 */
00000152  5247                     addq.w     D7, 1
00000154  4245                     clr.w      D5
00000156  4246                     clr.w      D6
00000158  6018                     bra        +0x1A /* 00000172 */
label0000015A:
0000015A  48C5                     ext.l      D5
0000015C  DA85                     add.l      D5, D5
0000015E  2005                     move.l     D0, D5
00000160  E58D                     lsl        D5, 2
00000162  DA80                     add.l      D5, D0
00000164  7000                     moveq.l    D0, 0x00
00000166  1033 7000                move.b     D0, [A3 + D7.w]
0000016A  907C 0030                sub.w      D0, 0x30 /* '0' */
0000016E  DA40                     add.w      D5, D0
00000170  5247                     addq.w     D7, 1
label00000172:
00000172  7000                     moveq.l    D0, 0x00
00000174  1033 7000                move.b     D0, [A3 + D7.w]
00000178  0C00 0030                cmpi.b     D0, 0x30 /* '0' */
0000017C  650C                     bcs        +0xE /* 0000018A */
0000017E  7000                     moveq.l    D0, 0x00
00000180  1033 7000                move.b     D0, [A3 + D7.w]
00000184  0C00 0039                cmpi.b     D0, 0x39 /* '9' */
00000188  63D0                     bls        -0x2E /* 0000015A */
label0000018A:
0000018A  5247                     addq.w     D7, 1
0000018C  6018                     bra        +0x1A /* 000001A6 */
label0000018E:
0000018E  48C6                     ext.l      D6
00000190  DC86                     add.l      D6, D6
00000192  2006                     move.l     D0, D6
00000194  E58E                     lsl        D6, 2
00000196  DC80                     add.l      D6, D0
00000198  7000                     moveq.l    D0, 0x00
0000019A  1033 7000                move.b     D0, [A3 + D7.w]
0000019E  907C 0030                sub.w      D0, 0x30 /* '0' */
000001A2  DC40                     add.w      D6, D0
000001A4  5247                     addq.w     D7, 1
label000001A6:
000001A6  7000                     moveq.l    D0, 0x00
000001A8  1033 7000                move.b     D0, [A3 + D7.w]
000001AC  0C00 0030                cmpi.b     D0, 0x30 /* '0' */
000001B0  650C                     bcs        +0xE /* 000001BE */
000001B2  7000                     moveq.l    D0, 0x00
000001B4  1033 7000                move.b     D0, [A3 + D7.w]
000001B8  0C00 0039                cmpi.b     D0, 0x39 /* '9' */
000001BC  63D0                     bls        -0x2E /* 0000018E */
label000001BE:
000001BE  4A45                     tst.w      D5
000001C0  6606                     bne        +0x8 /* 000001C8 */
000001C2  4245                     clr.w      D5
000001C4  7C0C                     moveq.l    D6, 0x0C
000001C6  600C                     bra        +0xE /* 000001D4 */
label000001C8:
000001C8  4A46                     tst.w      D6
000001CA  6608                     bne        +0xA /* 000001D4 */
000001CC  7C0C                     moveq.l    D6, 0x0C
000001CE  6004                     bra        +0x6 /* 000001D4 */
label000001D0:
000001D0  4245                     clr.w      D5
000001D2  7C0C                     moveq.l    D6, 0x0C
label000001D4:
000001D4  41EE FFF8                lea.l      A0, [A6 - 0x8]
000001D8  43EC 0090                lea.l      A1, [A4 + 0x90]
000001DC  20D9                     move.l     [A0]+, [A1]+
000001DE  20D9                     move.l     [A0]+, [A1]+
000001E0  7001                     moveq.l    D0, 0x01
000001E2  2F00                     move.l     -[A7], D0
000001E4  7200                     moveq.l    D1, 0x00
000001E6  2F01                     move.l     -[A7], D1
000001E8  48C6                     ext.l      D6
000001EA  2F06                     move.l     -[A7], D6
000001EC  48C5                     ext.l      D5
000001EE  2F05                     move.l     -[A7], D5
000001F0  2F01                     move.l     -[A7], D1
000001F2  486E FEF8                pea.l      [A6 - 0x108]
000001F6  2F01                     move.l     -[A7], D1
000001F8  4EAD 1922                jsr        [A5 + 0x1922 /* export_800, CODE:33 @ 00000FF6 */]
000001FC  2940 0134                move.l     [A4 + 0x134], D0
00000200  7001                     moveq.l    D0, 0x01
00000202  2F00                     move.l     -[A7], D0
00000204  2F00                     move.l     -[A7], D0
00000206  486E FFF8                pea.l      [A6 - 0x8]
0000020A  2F2C 0134                move.l     -[A7], [A4 + 0x134]
0000020E  4EAD 193A                jsr        [A5 + 0x193A /* export_803, CODE:33 @ 00001176 */]
00000212  4FEF 002C                lea.l      A7, [A7 + 0x2C]
label00000216:
00000216  422C 0132                clr.b      [A4 + 0x132]
label0000021A:
0000021A  200C                     move.l     D0, A4
0000021C  4CEE 18E8 FEE0           movem.l    D3,D5,D6,D7,A3,A4, [A6 - 0x120]
00000222  4E5E                     unlink     A6
00000224  4E75                     rts
00000226  8031 5F5F 6374 5F5F 3... dc.b       "__ct__14cButtonControlFP6cAgentP7cWindowR4RectPUc"
export_820:
0000025C  4E56 FFF8                link       A6, -0x0008
00000260  2F0C                     move.l     -[A7], A4
00000262  286E 0008                movea.l    A4, [A6 + 0x8]
00000266  4A2C 0133                tst.b      [A4 + 0x133]
0000026A  6758                     beq        +0x5A /* 000002C4 */
0000026C  422C 0133                clr.b      [A4 + 0x133]
00000270  2F0C                     move.l     -[A7], A4
00000272  4EAD 1F42                jsr        [A5 + 0x1F42 /* export_996, CODE:37 @ 0000141C */]
00000276  4A00                     tst.b      D0
00000278  584F                     addq.w     A7, 4
0000027A  6718                     beq        +0x1A /* 00000294 */
0000027C  204C                     movea.l    A0, A4
0000027E  226C 0060                movea.l    A1, [A4 + 0x60]
00000282  D0E9 00E8                add.w      A0, [A1 + 0xE8]
00000286  2F08                     move.l     -[A7], A0
00000288  2049                     movea.l    A0, A1
0000028A  2268 00EC                movea.l    A1, [A0 + 0xEC]
0000028E  4E91                     jsr        [A1]
00000290  584F                     addq.w     A7, 4
00000292  602A                     bra        +0x2C /* 000002BE */
label00000294:
00000294  41EE FFF8                lea.l      A0, [A6 - 0x8]
00000298  43EC 0090                lea.l      A1, [A4 + 0x90]
0000029C  20D9                     move.l     [A0]+, [A1]+
0000029E  20D9                     move.l     [A0]+, [A1]+
000002A0  4A2C 0132                tst.b      [A4 + 0x132]
000002A4  670C                     beq        +0xE /* 000002B2 */
000002A6  486E FFF8                pea.l      [A6 - 0x8]
000002AA  70FA                     moveq.l    D0, 0xFFFFFFFA
000002AC  3F00                     move.w     -[A7], D0
000002AE  3F00                     move.w     -[A7], D0
000002B0  A8A9                     syscall    InsetRect
label000002B2:
000002B2  486E FFF8                pea.l      [A6 - 0x8]
000002B6  2F0C                     move.l     -[A7], A4
000002B8  4EAD 1ED2                jsr        [A5 + 0x1ED2 /* export_982, CODE:37 @ 00001110 */]
000002BC  504F                     addq.w     A7, 8
label000002BE:
000002BE  002C 0008 0098           ori.b      [A4 + 0x98], 0x8
label000002C4:
000002C4  286E FFF4                movea.l    A4, [A6 - 0xC]
000002C8  4E5E                     unlink     A6
000002CA  4E75                     rts
000002CC  9C41 6374 6976 6174 6... dc.b       "Activate__14cButtonControlFv"
export_821:
000002EC  4E56 FFF8                link       A6, -0x0008
000002F0  2F0C                     move.l     -[A7], A4
000002F2  286E 0008                movea.l    A4, [A6 + 0x8]
000002F6  7000                     moveq.l    D0, 0x00
000002F8  102C 0133                move.b     D0, [A4 + 0x133]
000002FC  0C40 00FF                cmpi.w     D0, 0xFF
00000300  675A                     beq        +0x5C /* 0000035C */
00000302  197C 00FF 0133           move.b     [A4 + 0x133], 0xFF
00000308  2F0C                     move.l     -[A7], A4
0000030A  4EAD 1F42                jsr        [A5 + 0x1F42 /* export_996, CODE:37 @ 0000141C */]
0000030E  4A00                     tst.b      D0
00000310  584F                     addq.w     A7, 4
00000312  6718                     beq        +0x1A /* 0000032C */
00000314  204C                     movea.l    A0, A4
00000316  226C 0060                movea.l    A1, [A4 + 0x60]
0000031A  D0E9 00E8                add.w      A0, [A1 + 0xE8]
0000031E  2F08                     move.l     -[A7], A0
00000320  2049                     movea.l    A0, A1
00000322  2268 00EC                movea.l    A1, [A0 + 0xEC]
00000326  4E91                     jsr        [A1]
00000328  584F                     addq.w     A7, 4
0000032A  602A                     bra        +0x2C /* 00000356 */
label0000032C:
0000032C  41EE FFF8                lea.l      A0, [A6 - 0x8]
00000330  43EC 0090                lea.l      A1, [A4 + 0x90]
00000334  20D9                     move.l     [A0]+, [A1]+
00000336  20D9                     move.l     [A0]+, [A1]+
00000338  4A2C 0132                tst.b      [A4 + 0x132]
0000033C  670C                     beq        +0xE /* 0000034A */
0000033E  486E FFF8                pea.l      [A6 - 0x8]
00000342  70FA                     moveq.l    D0, 0xFFFFFFFA
00000344  3F00                     move.w     -[A7], D0
00000346  3F00                     move.w     -[A7], D0
00000348  A8A9                     syscall    InsetRect
label0000034A:
0000034A  486E FFF8                pea.l      [A6 - 0x8]
0000034E  2F0C                     move.l     -[A7], A4
00000350  4EAD 1ED2                jsr        [A5 + 0x1ED2 /* export_982, CODE:37 @ 00001110 */]
00000354  504F                     addq.w     A7, 8
label00000356:
00000356  022C 00F7 0098           andi.b     [A4 + 0x98], 0xF7
label0000035C:
0000035C  286E FFF4                movea.l    A4, [A6 - 0xC]
00000360  4E5E                     unlink     A6
00000362  4E75                     rts
00000364  9E44 6561 6374 6976 6... dc.b       "Deactivate__14cButtonControlFv"
export_822:
00000386  4E56 0000                link       A6, 0
0000038A  302E 0012                move.w     D0, [A6 + 0x12]
0000038E  48C0                     ext.l      D0
00000390  2F00                     move.l     -[A7], D0
00000392  302E 000E                move.w     D0, [A6 + 0xE]
00000396  48C0                     ext.l      D0
00000398  2F00                     move.l     -[A7], D0
0000039A  206E 0008                movea.l    A0, [A6 + 0x8]
0000039E  4868 0080                pea.l      [A0 + 0x80]
000003A2  4EAD 1CD2                jsr        [A5 + 0x1CD2 /* export_918, CODE:36 @ 0000099A */]
000003A6  4E5E                     unlink     A6
000003A8  4E75                     rts
000003AA  9A4D 6F76 655F 5F31 3... dc.b       "Move__14cButtonControlFsT1"
export_823:
000003C8  4E56 FF6A                link       A6, -0x0096
000003CC  2F0C                     move.l     -[A7], A4
000003CE  286E 0008                movea.l    A4, [A6 + 0x8]
000003D2  7000                     moveq.l    D0, 0x00
000003D4  102C 0098                move.b     D0, [A4 + 0x98]
000003D8  7201                     moveq.l    D1, 0x01
000003DA  C200                     and.b      D1, D0
000003DC  7000                     moveq.l    D0, 0x00
000003DE  1001                     move.b     D0, D1
000003E0  4A80                     tst.l      D0
000003E2  6600 0132                bne        +0x134 /* 00000516 */
000003E6  2F2C 0112                move.l     -[A7], [A4 + 0x112]
000003EA  4EAD 11E2                jsr        [A5 + 0x11E2 /* export_568, CODE:26 @ 000031FA */]
000003EE  0CAD 0000 0200 F29A      cmpi.l     [A5 - 0xD66], 0x200
000003F6  584F                     addq.w     A7, 4
000003F8  6C0C                     bge        +0xE /* 00000406 */
000003FA  2F0C                     move.l     -[A7], A4
000003FC  4EAD 1B42                jsr        [A5 + 0x1B42 /* export_868, CODE:35 @ 00000668 */]
00000400  584F                     addq.w     A7, 4
00000402  6000 00FA                bra        +0xFC /* 000004FE */
label00000406:
00000406  486C 009A                pea.l      [A4 + 0x9A]
0000040A  AA14                     syscall    RGBForeColor
0000040C  486C 00CC                pea.l      [A4 + 0xCC]
00000410  AA15                     syscall    RGBBackColor
00000412  486C 00CC                pea.l      [A4 + 0xCC]
00000416  7000                     moveq.l    D0, 0x00
00000418  2F00                     move.l     -[A7], D0
0000041A  486E FFCE                pea.l      [A6 - 0x32]
0000041E  4EAD 15B2                jsr        [A5 + 0x15B2 /* export_690, CODE:32 @ 0000253E */]
00000422  4A2C 0133                tst.b      [A4 + 0x133]
00000426  4FEF 000C                lea.l      A7, [A7 + 0xC]
0000042A  6632                     bne        +0x34 /* 0000045E */
0000042C  2F3C 0100 0001           move.l     -[A7], 0x1000001
00000432  7000                     moveq.l    D0, 0x00
00000434  2F00                     move.l     -[A7], D0
00000436  486E FF6A                pea.l      [A6 - 0x96]
0000043A  4EAD 15AA                jsr        [A5 + 0x15AA /* export_689, CODE:32 @ 0000234A */]
0000043E  4FEF 000C                lea.l      A7, [A7 + 0xC]
00000442  2F00                     move.l     -[A7], D0
00000444  486E FFCE                pea.l      [A6 - 0x32]
00000448  4EAD 15CA                jsr        [A5 + 0x15CA /* export_693, CODE:32 @ 00002820 */]
0000044C  7002                     moveq.l    D0, 0x02
0000044E  2F00                     move.l     -[A7], D0
00000450  486E FF6A                pea.l      [A6 - 0x96]
00000454  4EAD 15D2                jsr        [A5 + 0x15D2 /* export_694, CODE:32 @ 000029D6 */]
00000458  4FEF 0010                lea.l      A7, [A7 + 0x10]
0000045C  6030                     bra        +0x32 /* 0000048E */
label0000045E:
0000045E  2F3C 0100 0002           move.l     -[A7], 0x1000002
00000464  7000                     moveq.l    D0, 0x00
00000466  2F00                     move.l     -[A7], D0
00000468  486E FF6A                pea.l      [A6 - 0x96]
0000046C  4EAD 15AA                jsr        [A5 + 0x15AA /* export_689, CODE:32 @ 0000234A */]
00000470  4FEF 000C                lea.l      A7, [A7 + 0xC]
00000474  2F00                     move.l     -[A7], D0
00000476  486E FFCE                pea.l      [A6 - 0x32]
0000047A  4EAD 15CA                jsr        [A5 + 0x15CA /* export_693, CODE:32 @ 00002820 */]
0000047E  7002                     moveq.l    D0, 0x02
00000480  2F00                     move.l     -[A7], D0
00000482  486E FF6A                pea.l      [A6 - 0x96]
00000486  4EAD 15D2                jsr        [A5 + 0x15D2 /* export_694, CODE:32 @ 000029D6 */]
0000048A  4FEF 0010                lea.l      A7, [A7 + 0x10]
label0000048E:
0000048E  486E FFCE                pea.l      [A6 - 0x32]
00000492  7000                     moveq.l    D0, 0x00
00000494  2F00                     move.l     -[A7], D0
00000496  486E FF9C                pea.l      [A6 - 0x64]
0000049A  4EAD 15B2                jsr        [A5 + 0x15B2 /* export_690, CODE:32 @ 0000253E */]
0000049E  2F3C 0100 0002           move.l     -[A7], 0x1000002
000004A4  7000                     moveq.l    D0, 0x00
000004A6  2F00                     move.l     -[A7], D0
000004A8  486E FF6A                pea.l      [A6 - 0x96]
000004AC  4EAD 15AA                jsr        [A5 + 0x15AA /* export_689, CODE:32 @ 0000234A */]
000004B0  4FEF 000C                lea.l      A7, [A7 + 0xC]
000004B4  2F00                     move.l     -[A7], D0
000004B6  486E FF9C                pea.l      [A6 - 0x64]
000004BA  4EAD 15CA                jsr        [A5 + 0x15CA /* export_693, CODE:32 @ 00002820 */]
000004BE  7000                     moveq.l    D0, 0x00
000004C0  2F00                     move.l     -[A7], D0
000004C2  2F00                     move.l     -[A7], D0
000004C4  486E FF9C                pea.l      [A6 - 0x64]
000004C8  486C 00CC                pea.l      [A4 + 0xCC]
000004CC  486E FFCE                pea.l      [A6 - 0x32]
000004D0  2F0C                     move.l     -[A7], A4
000004D2  4EBA 059C                jsr        [PC + 0x59C /* 00000A70 */]
000004D6  7002                     moveq.l    D0, 0x02
000004D8  2F00                     move.l     -[A7], D0
000004DA  486E FF6A                pea.l      [A6 - 0x96]
000004DE  4EAD 15D2                jsr        [A5 + 0x15D2 /* export_694, CODE:32 @ 000029D6 */]
000004E2  7002                     moveq.l    D0, 0x02
000004E4  2F00                     move.l     -[A7], D0
000004E6  486E FF9C                pea.l      [A6 - 0x64]
000004EA  4EAD 15D2                jsr        [A5 + 0x15D2 /* export_694, CODE:32 @ 000029D6 */]
000004EE  7002                     moveq.l    D0, 0x02
000004F0  2F00                     move.l     -[A7], D0
000004F2  486E FFCE                pea.l      [A6 - 0x32]
000004F6  4EAD 15D2                jsr        [A5 + 0x15D2 /* export_694, CODE:32 @ 000029D6 */]
000004FA  4FEF 0044                lea.l      A7, [A7 + 0x44]
label000004FE:
000004FE  4A2C 0132                tst.b      [A4 + 0x132]
00000502  6708                     beq        +0xA /* 0000050C */
00000504  2F0C                     move.l     -[A7], A4
00000506  4EBA 034C                jsr        [PC + 0x34C /* 00000854 */]
0000050A  584F                     addq.w     A7, 4
label0000050C:
0000050C  2F2C 0112                move.l     -[A7], [A4 + 0x112]
00000510  4EAD 11EA                jsr        [A5 + 0x11EA /* export_569, CODE:26 @ 00003268 */]
00000514  584F                     addq.w     A7, 4
label00000516:
00000516  286E FF66                movea.l    A4, [A6 - 0x9A]
0000051A  4E5E                     unlink     A6
0000051C  4E75                     rts
0000051E  9844 7261 775F 5F31 3... dc.b       "Draw__14cButtonControlFv"
export_824:
0000053A  4E56 FF56                link       A6, -0x00AA
0000053E  48E7 0108                movem.l    -[A7], D7,A4
00000542  286E 0008                movea.l    A4, [A6 + 0x8]
00000546  558F                     subq.l     A7, 2
00000548  2F2E 000C                move.l     -[A7], [A6 + 0xC]
0000054C  486C 0090                pea.l      [A4 + 0x90]
00000550  A8AD                     syscall    PtInRect
00000552  4A1F                     tst.b      [A7]+
00000554  6700 0236                beq        +0x238 /* 0000078C */
00000558  7000                     moveq.l    D0, 0x00
0000055A  102C 0133                move.b     D0, [A4 + 0x133]
0000055E  0C40 00FF                cmpi.w     D0, 0xFF
00000562  6700 0228                beq        +0x22A /* 0000078C */
00000566  2D6E 0014 FFF6           move.l     [A6 - 0xA], [A6 + 0x14]
0000056C  2D6E 000C FFFA           move.l     [A6 - 0x6], [A6 + 0xC]
00000572  7000                     moveq.l    D0, 0x00
00000574  2D40 FFF2                move.l     [A6 - 0xE], D0
00000578  3D6E 0012 FFFE           move.w     [A6 - 0x2], [A6 + 0x12]
0000057E  4AAC 012A                tst.l      [A4 + 0x12A]
00000582  6762                     beq        +0x64 /* 000005E6 */
00000584  558F                     subq.l     A7, 2
00000586  2F2E 000C                move.l     -[A7], [A6 + 0xC]
0000058A  206C 0112                movea.l    A0, [A4 + 0x112]
0000058E  2F28 0084                move.l     -[A7], [A0 + 0x84]
00000592  486E FFEC                pea.l      [A6 - 0x14]
00000596  A96C                     syscall    FindControl
00000598  4A5F                     tst.w      [A7]+
0000059A  6700 01F0                beq        +0x1F2 /* 0000078C */
0000059E  202E FFEC                move.l     D0, [A6 - 0x14]
000005A2  B0AC 012A                cmp.l      D0, [A4 + 0x12A]
000005A6  6600 01E4                bne        +0x1E6 /* 0000078C */
000005AA  558F                     subq.l     A7, 2
000005AC  2F2C 012A                move.l     -[A7], [A4 + 0x12A]
000005B0  2F2E 000C                move.l     -[A7], [A6 + 0xC]
000005B4  7000                     moveq.l    D0, 0x00
000005B6  2F00                     move.l     -[A7], D0
000005B8  A968                     syscall    TrackControl
000005BA  4A5F                     tst.w      [A7]+
000005BC  6700 01CE                beq        +0x1D0 /* 0000078C */
000005C0  486E FFF0                pea.l      [A6 - 0x10]
000005C4  2F3C 4742 5430           move.l     -[A7], 0x47425430 /* 'GBT0' */
000005CA  204C                     movea.l    A0, A4
000005CC  226C 0060                movea.l    A1, [A4 + 0x60]
000005D0  D0E9 0060                add.w      A0, [A1 + 0x60]
000005D4  2F08                     move.l     -[A7], A0
000005D6  2049                     movea.l    A0, A1
000005D8  2268 0064                movea.l    A1, [A0 + 0x64]
000005DC  4E91                     jsr        [A1]
000005DE  4FEF 000C                lea.l      A7, [A7 + 0xC]
000005E2  6000 01A8                bra        +0x1AA /* 0000078C */
label000005E6:
000005E6  7E01                     moveq.l    D7, 0x01
000005E8  486C 00CC                pea.l      [A4 + 0xCC]
000005EC  7000                     moveq.l    D0, 0x00
000005EE  2F00                     move.l     -[A7], D0
000005F0  486E FFBE                pea.l      [A6 - 0x42]
000005F4  4EAD 15B2                jsr        [A5 + 0x15B2 /* export_690, CODE:32 @ 0000253E */]
000005F8  4A2C 0133                tst.b      [A4 + 0x133]
000005FC  4FEF 000C                lea.l      A7, [A7 + 0xC]
00000600  6632                     bne        +0x34 /* 00000634 */
00000602  2F3C 0100 0001           move.l     -[A7], 0x1000001
00000608  7000                     moveq.l    D0, 0x00
0000060A  2F00                     move.l     -[A7], D0
0000060C  486E FF56                pea.l      [A6 - 0xAA]
00000610  4EAD 15AA                jsr        [A5 + 0x15AA /* export_689, CODE:32 @ 0000234A */]
00000614  4FEF 000C                lea.l      A7, [A7 + 0xC]
00000618  2F00                     move.l     -[A7], D0
0000061A  486E FFBE                pea.l      [A6 - 0x42]
0000061E  4EAD 15CA                jsr        [A5 + 0x15CA /* export_693, CODE:32 @ 00002820 */]
00000622  7002                     moveq.l    D0, 0x02
00000624  2F00                     move.l     -[A7], D0
00000626  486E FF56                pea.l      [A6 - 0xAA]
0000062A  4EAD 15D2                jsr        [A5 + 0x15D2 /* export_694, CODE:32 @ 000029D6 */]
0000062E  4FEF 0010                lea.l      A7, [A7 + 0x10]
00000632  6030                     bra        +0x32 /* 00000664 */
label00000634:
00000634  2F3C 0100 0002           move.l     -[A7], 0x1000002
0000063A  7000                     moveq.l    D0, 0x00
0000063C  2F00                     move.l     -[A7], D0
0000063E  486E FF56                pea.l      [A6 - 0xAA]
00000642  4EAD 15AA                jsr        [A5 + 0x15AA /* export_689, CODE:32 @ 0000234A */]
00000646  4FEF 000C                lea.l      A7, [A7 + 0xC]
0000064A  2F00                     move.l     -[A7], D0
0000064C  486E FFBE                pea.l      [A6 - 0x42]
00000650  4EAD 15CA                jsr        [A5 + 0x15CA /* export_693, CODE:32 @ 00002820 */]
00000654  7002                     moveq.l    D0, 0x02
00000656  2F00                     move.l     -[A7], D0
00000658  486E FF56                pea.l      [A6 - 0xAA]
0000065C  4EAD 15D2                jsr        [A5 + 0x15D2 /* export_694, CODE:32 @ 000029D6 */]
00000660  4FEF 0010                lea.l      A7, [A7 + 0x10]
label00000664:
00000664  486E FFBE                pea.l      [A6 - 0x42]
00000668  7000                     moveq.l    D0, 0x00
0000066A  2F00                     move.l     -[A7], D0
0000066C  486E FF88                pea.l      [A6 - 0x78]
00000670  4EAD 15B2                jsr        [A5 + 0x15B2 /* export_690, CODE:32 @ 0000253E */]
00000674  2F3C 0100 0002           move.l     -[A7], 0x1000002
0000067A  7000                     moveq.l    D0, 0x00
0000067C  2F00                     move.l     -[A7], D0
0000067E  486E FF56                pea.l      [A6 - 0xAA]
00000682  4EAD 15AA                jsr        [A5 + 0x15AA /* export_689, CODE:32 @ 0000234A */]
00000686  4FEF 000C                lea.l      A7, [A7 + 0xC]
0000068A  2F00                     move.l     -[A7], D0
0000068C  486E FF88                pea.l      [A6 - 0x78]
00000690  4EAD 15CA                jsr        [A5 + 0x15CA /* export_693, CODE:32 @ 00002820 */]
00000694  2F2C 0112                move.l     -[A7], [A4 + 0x112]
00000698  4EAD 11E2                jsr        [A5 + 0x11E2 /* export_568, CODE:26 @ 000031FA */]
0000069C  7000                     moveq.l    D0, 0x00
0000069E  2F00                     move.l     -[A7], D0
000006A0  2F00                     move.l     -[A7], D0
000006A2  486C 00CC                pea.l      [A4 + 0xCC]
000006A6  486E FFBE                pea.l      [A6 - 0x42]
000006AA  486C 00CC                pea.l      [A4 + 0xCC]
000006AE  2F0C                     move.l     -[A7], A4
000006B0  4EBA 03BE                jsr        [PC + 0x3BE /* 00000A70 */]
000006B4  7002                     moveq.l    D0, 0x02
000006B6  2F00                     move.l     -[A7], D0
000006B8  486E FF56                pea.l      [A6 - 0xAA]
000006BC  4EAD 15D2                jsr        [A5 + 0x15D2 /* export_694, CODE:32 @ 000029D6 */]
000006C0  4FEF 0038                lea.l      A7, [A7 + 0x38]
000006C4  6058                     bra        +0x5A /* 0000071E */
label000006C6:
000006C6  486E FFBA                pea.l      [A6 - 0x46]
000006CA  A972                     syscall    GetMouse
000006CC  558F                     subq.l     A7, 2
000006CE  2F2E FFBA                move.l     -[A7], [A6 - 0x46]
000006D2  486C 0090                pea.l      [A4 + 0x90]
000006D6  A8AD                     syscall    PtInRect
000006D8  BE1F                     cmp.b      D7, [A7]+
000006DA  6742                     beq        +0x44 /* 0000071E */
000006DC  4A07                     tst.b      D7
000006DE  6620                     bne        +0x22 /* 00000700 */
000006E0  7000                     moveq.l    D0, 0x00
000006E2  2F00                     move.l     -[A7], D0
000006E4  2F00                     move.l     -[A7], D0
000006E6  486C 00CC                pea.l      [A4 + 0xCC]
000006EA  486E FFBE                pea.l      [A6 - 0x42]
000006EE  486C 00CC                pea.l      [A4 + 0xCC]
000006F2  2F0C                     move.l     -[A7], A4
000006F4  4EBA 037A                jsr        [PC + 0x37A /* 00000A70 */]
000006F8  7E01                     moveq.l    D7, 0x01
000006FA  4FEF 0018                lea.l      A7, [A7 + 0x18]
000006FE  601E                     bra        +0x20 /* 0000071E */
label00000700:
00000700  7000                     moveq.l    D0, 0x00
00000702  2F00                     move.l     -[A7], D0
00000704  2F00                     move.l     -[A7], D0
00000706  486E FF88                pea.l      [A6 - 0x78]
0000070A  486C 00CC                pea.l      [A4 + 0xCC]
0000070E  486E FFBE                pea.l      [A6 - 0x42]
00000712  2F0C                     move.l     -[A7], A4
00000714  4EBA 035A                jsr        [PC + 0x35A /* 00000A70 */]
00000718  4207                     clr.b      D7
0000071A  4FEF 0018                lea.l      A7, [A7 + 0x18]
label0000071E:
0000071E  558F                     subq.l     A7, 2
00000720  A974                     syscall    Button
00000722  4A1F                     tst.b      [A7]+
00000724  66A0                     bne        -0x5E /* 000006C6 */
00000726  7000                     moveq.l    D0, 0x00
00000728  2F00                     move.l     -[A7], D0
0000072A  2F00                     move.l     -[A7], D0
0000072C  486E FF88                pea.l      [A6 - 0x78]
00000730  486C 00CC                pea.l      [A4 + 0xCC]
00000734  486E FFBE                pea.l      [A6 - 0x42]
00000738  2F0C                     move.l     -[A7], A4
0000073A  4EBA 0334                jsr        [PC + 0x334 /* 00000A70 */]
0000073E  2F2C 0112                move.l     -[A7], [A4 + 0x112]
00000742  4EAD 11EA                jsr        [A5 + 0x11EA /* export_569, CODE:26 @ 00003268 */]
00000746  4A07                     tst.b      D7
00000748  4FEF 001C                lea.l      A7, [A7 + 0x1C]
0000074C  6722                     beq        +0x24 /* 00000770 */
0000074E  486E FFF0                pea.l      [A6 - 0x10]
00000752  2F3C 4742 5430           move.l     -[A7], 0x47425430 /* 'GBT0' */
00000758  204C                     movea.l    A0, A4
0000075A  226C 0060                movea.l    A1, [A4 + 0x60]
0000075E  D0E9 0060                add.w      A0, [A1 + 0x60]
00000762  2F08                     move.l     -[A7], A0
00000764  2049                     movea.l    A0, A1
00000766  2268 0064                movea.l    A1, [A0 + 0x64]
0000076A  4E91                     jsr        [A1]
0000076C  4FEF 000C                lea.l      A7, [A7 + 0xC]
label00000770:
00000770  7002                     moveq.l    D0, 0x02
00000772  2F00                     move.l     -[A7], D0
00000774  486E FF88                pea.l      [A6 - 0x78]
00000778  4EAD 15D2                jsr        [A5 + 0x15D2 /* export_694, CODE:32 @ 000029D6 */]
0000077C  7002                     moveq.l    D0, 0x02
0000077E  2F00                     move.l     -[A7], D0
00000780  486E FFBE                pea.l      [A6 - 0x42]
00000784  4EAD 15D2                jsr        [A5 + 0x15D2 /* export_694, CODE:32 @ 000029D6 */]
00000788  4FEF 0010                lea.l      A7, [A7 + 0x10]
label0000078C:
0000078C  4CEE 1080 FF4E           movem.l    D7,A4, [A6 - 0xB2]
00000792  4E5E                     unlink     A6
00000794  4E75                     rts
00000796  8025 4D6F 7573 6544 6... dc.b       "MouseDown__14cButtonControlF5PointlT2"
export_825:
000007C0  4E56 0000                link       A6, 0
000007C4  48E7 0108                movem.l    -[A7], D7,A4
000007C8  286E 0008                movea.l    A4, [A6 + 0x8]
000007CC  4A2E 000F                tst.b      [A6 + 0xF]
000007D0  672C                     beq        +0x2E /* 000007FE */
000007D2  4AAC 012A                tst.l      [A4 + 0x12A]
000007D6  6726                     beq        +0x28 /* 000007FE */
000007D8  2F2C 012A                move.l     -[A7], [A4 + 0x12A]
000007DC  700A                     moveq.l    D0, 0x0A
000007DE  3F00                     move.w     -[A7], D0
000007E0  A95D                     syscall    HiliteControl
000007E2  598F                     subq.l     A7, 4
000007E4  A975                     syscall    TickCount
000007E6  2E1F                     move.l     D7, [A7]+
000007E8  7014                     moveq.l    D0, 0x14
000007EA  DE80                     add.l      D7, D0
label000007EC:
000007EC  598F                     subq.l     A7, 4
000007EE  A975                     syscall    TickCount
000007F0  BE9F                     cmp.l      D7, [A7]+
000007F2  62F8                     bhi        -0x6 /* 000007EC */
000007F4  2F2C 012A                move.l     -[A7], [A4 + 0x12A]
000007F8  7000                     moveq.l    D0, 0x00
000007FA  3F00                     move.w     -[A7], D0
000007FC  A95D                     syscall    HiliteControl
label000007FE:
000007FE  7000                     moveq.l    D0, 0x00
00000800  2F00                     move.l     -[A7], D0
00000802  2F3C 4742 5430           move.l     -[A7], 0x47425430 /* 'GBT0' */
00000808  204C                     movea.l    A0, A4
0000080A  226C 0060                movea.l    A1, [A4 + 0x60]
0000080E  D0E9 0060                add.w      A0, [A1 + 0x60]
00000812  2F08                     move.l     -[A7], A0
00000814  2049                     movea.l    A0, A1
00000816  2268 0064                movea.l    A1, [A0 + 0x64]
0000081A  4E91                     jsr        [A1]
0000081C  4FEF 000C                lea.l      A7, [A7 + 0xC]
00000820  4CEE 1080 FFF8           movem.l    D7,A4, [A6 - 0x8]
00000826  4E5E                     unlink     A6
00000828  4E75                     rts
0000082A  8025 466F 7263 6542 7... dc.b       "ForceButtonPress__14cButtonControlFUc"
fn00000854:
00000854  4E56 FF48                link       A6, -0x00B8
00000858  48E7 0118                movem.l    -[A7], D7,A3,A4
0000085C  286E 0008                movea.l    A4, [A6 + 0x8]
00000860  7000                     moveq.l    D0, 0x00
00000862  2F00                     move.l     -[A7], D0
00000864  486E FF50                pea.l      [A6 - 0xB0]
00000868  4EAD 15BA                jsr        [A5 + 0x15BA /* export_691, CODE:32 @ 000025FA */]
0000086C  2F3C 0100 000F           move.l     -[A7], 0x100000F
00000872  7000                     moveq.l    D0, 0x00
00000874  2F00                     move.l     -[A7], D0
00000876  486E FF82                pea.l      [A6 - 0x7E]
0000087A  4EAD 15AA                jsr        [A5 + 0x15AA /* export_689, CODE:32 @ 0000234A */]
0000087E  2F3C 1000 0001           move.l     -[A7], 0x10000001
00000884  7000                     moveq.l    D0, 0x00
00000886  2F00                     move.l     -[A7], D0
00000888  486E FFB4                pea.l      [A6 - 0x4C]
0000088C  4EAD 15AA                jsr        [A5 + 0x15AA /* export_689, CODE:32 @ 0000234A */]
00000890  486E FFE6                pea.l      [A6 - 0x1A]
00000894  A898                     syscall    GetPenState
00000896  A89E                     syscall    PenNormal
00000898  41EE FFF8                lea.l      A0, [A6 - 0x8]
0000089C  43EC 0090                lea.l      A1, [A4 + 0x90]
000008A0  20D9                     move.l     [A0]+, [A1]+
000008A2  20D9                     move.l     [A0]+, [A1]+
000008A4  486E FFF8                pea.l      [A6 - 0x8]
000008A8  70FC                     moveq.l    D0, 0xFFFFFFFC
000008AA  3F00                     move.w     -[A7], D0
000008AC  3F00                     move.w     -[A7], D0
000008AE  A8A9                     syscall    InsetRect
000008B0  4A2C 0133                tst.b      [A4 + 0x133]
000008B4  4FEF 0020                lea.l      A7, [A7 + 0x20]
000008B8  6764                     beq        +0x66 /* 0000091E */
000008BA  0CAD 0000 0200 F29A      cmpi.l     [A5 - 0xD66], 0x200
000008C2  6D52                     blt        +0x54 /* 00000916 */
000008C4  41EE FF48                lea.l      A0, [A6 - 0xB8]
000008C8  43EC 0090                lea.l      A1, [A4 + 0x90]
000008CC  20D9                     move.l     [A0]+, [A1]+
000008CE  20D9                     move.l     [A0]+, [A1]+
000008D0  486E FF48                pea.l      [A6 - 0xB8]
000008D4  A870                     syscall    LocalToGlobal
000008D6  486E FF4C                pea.l      [A6 - 0xB4]
000008DA  A870                     syscall    LocalToGlobal
000008DC  598F                     subq.l     A7, 4
000008DE  486E FF48                pea.l      [A6 - 0xB8]
000008E2  AA27                     syscall    GetMaxDevice
000008E4  265F                     movea.l    A3, [A7]+
000008E6  558F                     subq.l     A7, 2
000008E8  2F0B                     move.l     -[A7], A3
000008EA  486E FFB4                pea.l      [A6 - 0x4C]
000008EE  486E FF82                pea.l      [A6 - 0x7E]
000008F2  303C 0C19                move.w     D0, 0xC19
000008F6  AAA2                     syscall    PaletteDispatch
000008F8  4A1F                     tst.b      [A7]+
000008FA  6712                     beq        +0x14 /* 0000090E */
000008FC  0CAD 0000 0200 F29A      cmpi.l     [A5 - 0xD66], 0x200
00000904  6D1E                     blt        +0x20 /* 00000924 */
00000906  486E FF82                pea.l      [A6 - 0x7E]
0000090A  AA14                     syscall    RGBForeColor
0000090C  6016                     bra        +0x18 /* 00000924 */
label0000090E:
0000090E  486D EF32                pea.l      [A5 - 0x10CE]
00000912  A89D                     syscall    PenPat
00000914  600E                     bra        +0x10 /* 00000924 */
label00000916:
00000916  486D EF32                pea.l      [A5 - 0x10CE]
0000091A  A89D                     syscall    PenPat
0000091C  6006                     bra        +0x8 /* 00000924 */
label0000091E:
0000091E  486D EF3A                pea.l      [A5 - 0x10C6]
00000922  A89D                     syscall    PenPat
label00000924:
00000924  486E FFF8                pea.l      [A6 - 0x8]
00000928  7010                     moveq.l    D0, 0x10
0000092A  3F00                     move.w     -[A7], D0
0000092C  3F00                     move.w     -[A7], D0
0000092E  A8B0                     syscall    FrameRoundRect
00000930  302E FFFC                move.w     D0, [A6 - 0x4]
00000934  48C0                     ext.l      D0
00000936  322E FFF8                move.w     D1, [A6 - 0x8]
0000093A  48C1                     ext.l      D1
0000093C  9081                     sub.l      D0, D1
0000093E  E280                     asr        D0, 1
00000940  3E00                     move.w     D7, D0
00000942  5447                     addq.w     D7, 2
00000944  7003                     moveq.l    D0, 0x03
00000946  3F00                     move.w     -[A7], D0
00000948  3F00                     move.w     -[A7], D0
0000094A  A89B                     syscall    PenSize
0000094C  486E FFF8                pea.l      [A6 - 0x8]
00000950  3F07                     move.w     -[A7], D7
00000952  3F07                     move.w     -[A7], D7
00000954  A8B0                     syscall    FrameRoundRect
00000956  486E FFE6                pea.l      [A6 - 0x1A]
0000095A  A899                     syscall    SetPenState
0000095C  7002                     moveq.l    D0, 0x02
0000095E  2F00                     move.l     -[A7], D0
00000960  486E FFB4                pea.l      [A6 - 0x4C]
00000964  4EAD 15D2                jsr        [A5 + 0x15D2 /* export_694, CODE:32 @ 000029D6 */]
00000968  7002                     moveq.l    D0, 0x02
0000096A  2F00                     move.l     -[A7], D0
0000096C  486E FF82                pea.l      [A6 - 0x7E]
00000970  4EAD 15D2                jsr        [A5 + 0x15D2 /* export_694, CODE:32 @ 000029D6 */]
00000974  7002                     moveq.l    D0, 0x02
00000976  2F00                     move.l     -[A7], D0
00000978  486E FF50                pea.l      [A6 - 0xB0]
0000097C  4EAD 15D2                jsr        [A5 + 0x15D2 /* export_694, CODE:32 @ 000029D6 */]
00000980  4FEF 0018                lea.l      A7, [A7 + 0x18]
00000984  4CEE 1880 FF3C           movem.l    D7,A3,A4, [A6 - 0xC4]
0000098A  4E5E                     unlink     A6
0000098C  4E75                     rts
0000098E  8025 4472 6177 4465 6... dc.b       "DrawDefaultBorder__14cButtonControlFv"
export_826:
000009B8  4E56 0000                link       A6, 0
000009BC  2F0C                     move.l     -[A7], A4
000009BE  286E 0008                movea.l    A4, [A6 + 0x8]
000009C2  7000                     moveq.l    D0, 0x00
000009C4  102C 0098                move.b     D0, [A4 + 0x98]
000009C8  7201                     moveq.l    D1, 0x01
000009CA  C200                     and.b      D1, D0
000009CC  7000                     moveq.l    D0, 0x00
000009CE  1001                     move.b     D0, D1
000009D0  4A80                     tst.l      D0
000009D2  661C                     bne        +0x1E /* 000009F0 */
000009D4  002C 0001 0098           ori.b      [A4 + 0x98], 0x1
000009DA  204C                     movea.l    A0, A4
000009DC  226C 0060                movea.l    A1, [A4 + 0x60]
000009E0  D0E9 00E8                add.w      A0, [A1 + 0xE8]
000009E4  2F08                     move.l     -[A7], A0
000009E6  2049                     movea.l    A0, A1
000009E8  2268 00EC                movea.l    A1, [A0 + 0xEC]
000009EC  4E91                     jsr        [A1]
000009EE  584F                     addq.w     A7, 4
label000009F0:
000009F0  286E FFFC                movea.l    A4, [A6 - 0x4]
000009F4  4E5E                     unlink     A6
000009F6  4E75                     rts
000009F8  9848 6964 655F 5F31 3... dc.b       "Hide__14cButtonControlFv"
export_827:
00000A14  4E56 0000                link       A6, 0
00000A18  2F0C                     move.l     -[A7], A4
00000A1A  286E 0008                movea.l    A4, [A6 + 0x8]
00000A1E  7000                     moveq.l    D0, 0x00
00000A20  102C 0098                move.b     D0, [A4 + 0x98]
00000A24  7201                     moveq.l    D1, 0x01
00000A26  C200                     and.b      D1, D0
00000A28  7000                     moveq.l    D0, 0x00
00000A2A  1001                     move.b     D0, D1
00000A2C  4A80                     tst.l      D0
00000A2E  671C                     beq        +0x1E /* 00000A4C */
00000A30  022C 00FE 0098           andi.b     [A4 + 0x98], 0xFE
00000A36  204C                     movea.l    A0, A4
00000A38  226C 0060                movea.l    A1, [A4 + 0x60]
00000A3C  D0E9 00E8                add.w      A0, [A1 + 0xE8]
00000A40  2F08                     move.l     -[A7], A0
00000A42  2049                     movea.l    A0, A1
00000A44  2268 00EC                movea.l    A1, [A0 + 0xEC]
00000A48  4E91                     jsr        [A1]
00000A4A  584F                     addq.w     A7, 4
label00000A4C:
00000A4C  286E FFFC                movea.l    A4, [A6 - 0x4]
00000A50  4E5E                     unlink     A6
00000A52  4E75                     rts
00000A54  9853 686F 775F 5F31 3... dc.b       "Show__14cButtonControlFv"
fn00000A70:
00000A70  4E56 FFA4                link       A6, -0x005C
00000A74  48E7 0318                movem.l    -[A7], D6,D7,A3,A4
00000A78  286E 0008                movea.l    A4, [A6 + 0x8]
00000A7C  41EE FFDE                lea.l      A0, [A6 - 0x22]
00000A80  43EC 0090                lea.l      A1, [A4 + 0x90]
00000A84  20D9                     move.l     [A0]+, [A1]+
00000A86  20D9                     move.l     [A0]+, [A1]+
00000A88  302E FFE2                move.w     D0, [A6 - 0x1E]
00000A8C  48C0                     ext.l      D0
00000A8E  322E FFDE                move.w     D1, [A6 - 0x22]
00000A92  48C1                     ext.l      D1
00000A94  9081                     sub.l      D0, D1
00000A96  E280                     asr        D0, 1
00000A98  3E00                     move.w     D7, D0
00000A9A  5447                     addq.w     D7, 2
00000A9C  486E FFE6                pea.l      [A6 - 0x1A]
00000AA0  A898                     syscall    GetPenState
00000AA2  A89E                     syscall    PenNormal
00000AA4  0CAD 0000 0200 F29A      cmpi.l     [A5 - 0xD66], 0x200
00000AAC  6D06                     blt        +0x8 /* 00000AB4 */
00000AAE  486C 00CC                pea.l      [A4 + 0xCC]
00000AB2  AA15                     syscall    RGBBackColor
label00000AB4:
00000AB4  486E FFDE                pea.l      [A6 - 0x22]
00000AB8  3F07                     move.w     -[A7], D7
00000ABA  3F07                     move.w     -[A7], D7
00000ABC  A8B2                     syscall    EraseRoundRect
00000ABE  526E FFDE                addq.w     [A6 - 0x22], 1
00000AC2  526E FFE0                addq.w     [A6 - 0x20], 1
00000AC6  0CAD 0000 0200 F29A      cmpi.l     [A5 - 0xD66], 0x200
00000ACE  6D08                     blt        +0xA /* 00000AD8 */
00000AD0  206E 0010                movea.l    A0, [A6 + 0x10]
00000AD4  2F08                     move.l     -[A7], A0
00000AD6  AA14                     syscall    RGBForeColor
label00000AD8:
00000AD8  486E FFDE                pea.l      [A6 - 0x22]
00000ADC  3F07                     move.w     -[A7], D7
00000ADE  3F07                     move.w     -[A7], D7
00000AE0  A8B0                     syscall    FrameRoundRect
00000AE2  486E FFDE                pea.l      [A6 - 0x22]
00000AE6  70FF                     moveq.l    D0, 0xFFFFFFFF
00000AE8  3F00                     move.w     -[A7], D0
00000AEA  3F00                     move.w     -[A7], D0
00000AEC  A8A8                     syscall    OffsetRect
00000AEE  0CAD 0000 0200 F29A      cmpi.l     [A5 - 0xD66], 0x200
00000AF6  6D08                     blt        +0xA /* 00000B00 */
00000AF8  206E 0014                movea.l    A0, [A6 + 0x14]
00000AFC  2F08                     move.l     -[A7], A0
00000AFE  AA14                     syscall    RGBForeColor
label00000B00:
00000B00  486E FFDE                pea.l      [A6 - 0x22]
00000B04  3F07                     move.w     -[A7], D7
00000B06  3F07                     move.w     -[A7], D7
00000B08  A8B0                     syscall    FrameRoundRect
00000B0A  526E FFE2                addq.w     [A6 - 0x1E], 1
00000B0E  526E FFE4                addq.w     [A6 - 0x1C], 1
00000B12  0CAD 0000 0200 F29A      cmpi.l     [A5 - 0xD66], 0x200
00000B1A  6D06                     blt        +0x8 /* 00000B22 */
00000B1C  486C 009A                pea.l      [A4 + 0x9A]
00000B20  AA14                     syscall    RGBForeColor
label00000B22:
00000B22  486E FFDE                pea.l      [A6 - 0x22]
00000B26  3F07                     move.w     -[A7], D7
00000B28  3F07                     move.w     -[A7], D7
00000B2A  A8B0                     syscall    FrameRoundRect
00000B2C  7000                     moveq.l    D0, 0x00
00000B2E  102C 0133                move.b     D0, [A4 + 0x133]
00000B32  0C40 00FF                cmpi.w     D0, 0xFF
00000B36  6676                     bne        +0x78 /* 00000BAE */
00000B38  41EE FFD6                lea.l      A0, [A6 - 0x2A]
00000B3C  43EC 0090                lea.l      A1, [A4 + 0x90]
00000B40  20D9                     move.l     [A0]+, [A1]+
00000B42  20D9                     move.l     [A0]+, [A1]+
00000B44  486E FFD6                pea.l      [A6 - 0x2A]
00000B48  A870                     syscall    LocalToGlobal
00000B4A  486E FFDA                pea.l      [A6 - 0x26]
00000B4E  A870                     syscall    LocalToGlobal
00000B50  598F                     subq.l     A7, 4
00000B52  486E FFD6                pea.l      [A6 - 0x2A]
00000B56  AA27                     syscall    GetMaxDevice
00000B58  265F                     movea.l    A3, [A7]+
00000B5A  2F3C 0100 0008           move.l     -[A7], 0x1000008
00000B60  7000                     moveq.l    D0, 0x00
00000B62  2F00                     move.l     -[A7], D0
00000B64  486E FFA4                pea.l      [A6 - 0x5C]
00000B68  4EAD 15AA                jsr        [A5 + 0x15AA /* export_689, CODE:32 @ 0000234A */]
00000B6C  558F                     subq.l     A7, 2
00000B6E  2F0B                     move.l     -[A7], A3
00000B70  206E 000C                movea.l    A0, [A6 + 0xC]
00000B74  2F08                     move.l     -[A7], A0
00000B76  486E FFA4                pea.l      [A6 - 0x5C]
00000B7A  303C 0C19                move.w     D0, 0xC19
00000B7E  AAA2                     syscall    PaletteDispatch
00000B80  4A1F                     tst.b      [A7]+
00000B82  4FEF 000C                lea.l      A7, [A7 + 0xC]
00000B86  6712                     beq        +0x14 /* 00000B9A */
00000B88  0CAD 0000 0200 F29A      cmpi.l     [A5 - 0xD66], 0x200
00000B90  6D0E                     blt        +0x10 /* 00000BA0 */
00000B92  486E FFA4                pea.l      [A6 - 0x5C]
00000B96  AA14                     syscall    RGBForeColor
00000B98  6006                     bra        +0x8 /* 00000BA0 */
label00000B9A:
00000B9A  486D EF32                pea.l      [A5 - 0x10CE]
00000B9E  A89D                     syscall    PenPat
label00000BA0:
00000BA0  7002                     moveq.l    D0, 0x02
00000BA2  2F00                     move.l     -[A7], D0
00000BA4  486E FFA4                pea.l      [A6 - 0x5C]
00000BA8  4EAD 15D2                jsr        [A5 + 0x15D2 /* export_694, CODE:32 @ 000029D6 */]
00000BAC  504F                     addq.w     A7, 8
label00000BAE:
00000BAE  41EE FFF8                lea.l      A0, [A6 - 0x8]
00000BB2  43EC 0090                lea.l      A1, [A4 + 0x90]
00000BB6  20D9                     move.l     [A0]+, [A1]+
00000BB8  20D9                     move.l     [A0]+, [A1]+
00000BBA  486E FFF8                pea.l      [A6 - 0x8]
00000BBE  3F2E 001A                move.w     -[A7], [A6 + 0x1A]
00000BC2  3F2E 001E                move.w     -[A7], [A6 + 0x1E]
00000BC6  A8A8                     syscall    OffsetRect
00000BC8  7001                     moveq.l    D0, 0x01
00000BCA  2F00                     move.l     -[A7], D0
00000BCC  2F00                     move.l     -[A7], D0
00000BCE  486E FFF8                pea.l      [A6 - 0x8]
00000BD2  2F2C 0134                move.l     -[A7], [A4 + 0x134]
00000BD6  4EAD 193A                jsr        [A5 + 0x193A /* export_803, CODE:33 @ 00001176 */]
00000BDA  3C2C 0094                move.w     D6, [A4 + 0x94]
00000BDE  9C6C 0090                sub.w      D6, [A4 + 0x90]
00000BE2  486E FFF8                pea.l      [A6 - 0x8]
00000BE6  7000                     moveq.l    D0, 0x00
00000BE8  3F00                     move.w     -[A7], D0
00000BEA  48C6                     ext.l      D6
00000BEC  322E FFFC                move.w     D1, [A6 - 0x4]
00000BF0  48C1                     ext.l      D1
00000BF2  2406                     move.l     D2, D6
00000BF4  9481                     sub.l      D2, D1
00000BF6  322E FFF8                move.w     D1, [A6 - 0x8]
00000BFA  48C1                     ext.l      D1
00000BFC  D282                     add.l      D1, D2
00000BFE  E281                     asr        D1, 1
00000C00  3F01                     move.w     -[A7], D1
00000C02  A8A8                     syscall    OffsetRect
00000C04  3D6C 0092 FFFA           move.w     [A6 - 0x6], [A4 + 0x92]
00000C0A  3D6C 0096 FFFE           move.w     [A6 - 0x2], [A4 + 0x96]
00000C10  7000                     moveq.l    D0, 0x00
00000C12  2F00                     move.l     -[A7], D0
00000C14  2F00                     move.l     -[A7], D0
00000C16  486E FFF8                pea.l      [A6 - 0x8]
00000C1A  2F2C 0134                move.l     -[A7], [A4 + 0x134]
00000C1E  4EAD 193A                jsr        [A5 + 0x193A /* export_803, CODE:33 @ 00001176 */]
00000C22  7000                     moveq.l    D0, 0x00
00000C24  102C 0133                move.b     D0, [A4 + 0x133]
00000C28  0C40 00FF                cmpi.w     D0, 0xFF
00000C2C  4FEF 0020                lea.l      A7, [A7 + 0x20]
00000C30  6652                     bne        +0x54 /* 00000C84 */
00000C32  486E FFDE                pea.l      [A6 - 0x22]
00000C36  7001                     moveq.l    D0, 0x01
00000C38  3F00                     move.w     -[A7], D0
00000C3A  3F00                     move.w     -[A7], D0
00000C3C  A8A9                     syscall    InsetRect
00000C3E  1D7C 0055 FFD6           move.b     [A6 - 0x2A], 0x55 /* 'U' */
00000C44  1D7C 00AA FFD7           move.b     [A6 - 0x29], 0xAA
00000C4A  1D7C 0055 FFD8           move.b     [A6 - 0x28], 0x55 /* 'U' */
00000C50  1D7C 00AA FFD9           move.b     [A6 - 0x27], 0xAA
00000C56  1D7C 0055 FFDA           move.b     [A6 - 0x26], 0x55 /* 'U' */
00000C5C  1D7C 00AA FFDB           move.b     [A6 - 0x25], 0xAA
00000C62  1D7C 0055 FFDC           move.b     [A6 - 0x24], 0x55 /* 'U' */
00000C68  1D7C 00AA FFDD           move.b     [A6 - 0x23], 0xAA
00000C6E  486E FFD6                pea.l      [A6 - 0x2A]
00000C72  A89D                     syscall    PenPat
00000C74  700B                     moveq.l    D0, 0x0B
00000C76  3F00                     move.w     -[A7], D0
00000C78  A89C                     syscall    PenMode
00000C7A  486E FFDE                pea.l      [A6 - 0x22]
00000C7E  3F07                     move.w     -[A7], D7
00000C80  3F07                     move.w     -[A7], D7
00000C82  A8B1                     syscall    PaintRoundRect
label00000C84:
00000C84  486E FFE6                pea.l      [A6 - 0x1A]
00000C88  A899                     syscall    SetPenState
00000C8A  4CEE 18C0 FF94           movem.l    D6,D7,A3,A4, [A6 - 0x6C]
00000C90  4E5E                     unlink     A6
00000C92  4E75                     rts
00000C94  8033 4472 6177 4275 7... dc.b       "DrawButtonImage__14cButtonControlFR9cRGBColorN21sT4"
export_828:
00000CCC  4E56 FFF8                link       A6, -0x0008
00000CD0  2F0C                     move.l     -[A7], A4
00000CD2  286E 0008                movea.l    A4, [A6 + 0x8]
00000CD6  196E 000F 0132           move.b     [A4 + 0x132], [A6 + 0xF]
00000CDC  41EE FFF8                lea.l      A0, [A6 - 0x8]
00000CE0  43EC 0090                lea.l      A1, [A4 + 0x90]
00000CE4  20D9                     move.l     [A0]+, [A1]+
00000CE6  20D9                     move.l     [A0]+, [A1]+
00000CE8  486E FFF8                pea.l      [A6 - 0x8]
00000CEC  70FA                     moveq.l    D0, 0xFFFFFFFA
00000CEE  3F00                     move.w     -[A7], D0
00000CF0  3F00                     move.w     -[A7], D0
00000CF2  A8A9                     syscall    InsetRect
00000CF4  486E FFF8                pea.l      [A6 - 0x8]
00000CF8  2F0C                     move.l     -[A7], A4
00000CFA  4EAD 1ED2                jsr        [A5 + 0x1ED2 /* export_982, CODE:37 @ 00001110 */]
00000CFE  286E FFF4                movea.l    A4, [A6 - 0xC]
00000D02  4E5E                     unlink     A6
00000D04  4E75                     rts
00000D06  9F53 6574 4465 6661 7... dc.b       "SetDefault__14cButtonControlFUc"
export_829:
00000D28  4E56 FFF8                link       A6, -0x0008
00000D2C  48E7 0118                movem.l    -[A7], D7,A3,A4
00000D30  286E 0008                movea.l    A4, [A6 + 0x8]
00000D34  41EE FFF8                lea.l      A0, [A6 - 0x8]
00000D38  43EC 0090                lea.l      A1, [A4 + 0x90]
00000D3C  20D9                     move.l     [A0]+, [A1]+
00000D3E  20D9                     move.l     [A0]+, [A1]+
00000D40  4AAC 0134                tst.l      [A4 + 0x134]
00000D44  6742                     beq        +0x44 /* 00000D88 */
00000D46  266C 0134                movea.l    A3, [A4 + 0x134]
00000D4A  2F0B                     move.l     -[A7], A3
00000D4C  4EAD 1782                jsr        [A5 + 0x1782 /* export_748, CODE:32 @ 00004E1E */]
00000D50  4207                     clr.b      D7
00000D52  7000                     moveq.l    D0, 0x00
00000D54  1007                     move.b     D0, D7
00000D56  2F00                     move.l     -[A7], D0
00000D58  2F2B 0014                move.l     -[A7], [A3 + 0x14]
00000D5C  2F2E 000C                move.l     -[A7], [A6 + 0xC]
00000D60  2F0B                     move.l     -[A7], A3
00000D62  4EAD 178A                jsr        [A5 + 0x178A /* export_749, CODE:32 @ 00004E80 */]
00000D66  4A2E 0013                tst.b      [A6 + 0x13]
00000D6A  4FEF 0014                lea.l      A7, [A7 + 0x14]
00000D6E  6728                     beq        +0x2A /* 00000D98 */
00000D70  204C                     movea.l    A0, A4
00000D72  226C 0060                movea.l    A1, [A4 + 0x60]
00000D76  D0E9 00E8                add.w      A0, [A1 + 0xE8]
00000D7A  2F08                     move.l     -[A7], A0
00000D7C  2049                     movea.l    A0, A1
00000D7E  2268 00EC                movea.l    A1, [A0 + 0xEC]
00000D82  4E91                     jsr        [A1]
00000D84  584F                     addq.w     A7, 4
00000D86  6010                     bra        +0x12 /* 00000D98 */
label00000D88:
00000D88  4AAC 012A                tst.l      [A4 + 0x12A]
00000D8C  670A                     beq        +0xC /* 00000D98 */
00000D8E  2F2C 012A                move.l     -[A7], [A4 + 0x12A]
00000D92  2F2E 000C                move.l     -[A7], [A6 + 0xC]
00000D96  A95F                     syscall    SetControlTitle/SetCTitle
label00000D98:
00000D98  4CEE 1880 FFEC           movem.l    D7,A3,A4, [A6 - 0x14]
00000D9E  4E5E                     unlink     A6
00000DA0  4E75                     rts
00000DA2  8020 5365 7454 6974 6... dc.b       "SetTitle__14cButtonControlFPUcUc"
export_830:
00000DC6  4E56 0000                link       A6, 0
00000DCA  302E 0012                move.w     D0, [A6 + 0x12]
00000DCE  48C0                     ext.l      D0
00000DD0  2F00                     move.l     -[A7], D0
00000DD2  302E 000E                move.w     D0, [A6 + 0xE]
00000DD6  48C0                     ext.l      D0
00000DD8  2F00                     move.l     -[A7], D0
00000DDA  206E 0008                movea.l    A0, [A6 + 0x8]
00000DDE  4868 0080                pea.l      [A0 + 0x80]
00000DE2  4EAD 1CDA                jsr        [A5 + 0x1CDA /* export_919, CODE:36 @ 000009EE */]
00000DE6  4E5E                     unlink     A6
00000DE8  4E75                     rts
00000DEA  9C52 6573 697A 655F 5... dc.b       "Resize__14cButtonControlFsT1"
export_831:
00000E0A  4E56 0000                link       A6, 0
00000E0E  48E7 0108                movem.l    -[A7], D7,A4
00000E12  2E2E 000C                move.l     D7, [A6 + 0xC]
00000E16  286E 0008                movea.l    A4, [A6 + 0x8]
00000E1A  200C                     move.l     D0, A4
00000E1C  6700 008C                beq        +0x8E /* 00000EAA */
00000E20  206C 0064                movea.l    A0, [A4 + 0x64]
00000E24  216D F146 0008           move.l     [A0 + 0x8], [A5 - 0xEBA]
00000E2A  296D F142 0070           move.l     [A4 + 0x70], [A5 - 0xEBE]
00000E30  296D F13E 0088           move.l     [A4 + 0x88], [A5 - 0xEC2]
00000E36  296D F13A 0060           move.l     [A4 + 0x60], [A5 - 0xEC6]
00000E3C  4AAC 0134                tst.l      [A4 + 0x134]
00000E40  6728                     beq        +0x2A /* 00000E6A */
00000E42  7003                     moveq.l    D0, 0x03
00000E44  2F00                     move.l     -[A7], D0
00000E46  206C 0134                movea.l    A0, [A4 + 0x134]
00000E4A  2248                     movea.l    A1, A0
00000E4C  2269 0008                movea.l    A1, [A1 + 0x8]
00000E50  D0E9 0030                add.w      A0, [A1 + 0x30]
00000E54  2F08                     move.l     -[A7], A0
00000E56  206C 0134                movea.l    A0, [A4 + 0x134]
00000E5A  2068 0008                movea.l    A0, [A0 + 0x8]
00000E5E  2268 0034                movea.l    A1, [A0 + 0x34]
00000E62  4E91                     jsr        [A1]
00000E64  7000                     moveq.l    D0, 0x00
00000E66  504F                     addq.w     A7, 8
00000E68  6002                     bra        +0x4 /* 00000E6C */
label00000E6A:
00000E6A  7000                     moveq.l    D0, 0x00
label00000E6C:
00000E6C  200C                     move.l     D0, A4
00000E6E  673A                     beq        +0x3C /* 00000EAA */
00000E70  7000                     moveq.l    D0, 0x00
00000E72  2F00                     move.l     -[A7], D0
00000E74  2F0C                     move.l     -[A7], A4
00000E76  4EAD 1B3A                jsr        [A5 + 0x1B3A /* export_867, CODE:35 @ 000005B2 */]
00000E7A  7002                     moveq.l    D0, 0x02
00000E7C  C087                     and.l      D0, D7
00000E7E  6718                     beq        +0x1A /* 00000E98 */
00000E80  7000                     moveq.l    D0, 0x00
00000E82  2F00                     move.l     -[A7], D0
00000E84  220C                     move.l     D1, A4
00000E86  D2BC 0000 0138           add.l      D1, 0x138
00000E8C  2F01                     move.l     -[A7], D1
00000E8E  4EAD 1632                jsr        [A5 + 0x1632 /* export_706, CODE:32 @ 000036CC */]
00000E92  7000                     moveq.l    D0, 0x00
00000E94  504F                     addq.w     A7, 8
00000E96  6002                     bra        +0x4 /* 00000E9A */
label00000E98:
00000E98  7000                     moveq.l    D0, 0x00
label00000E9A:
00000E9A  0807 0000                btst.b     D7, 0x0
00000E9E  504F                     addq.w     A7, 8
00000EA0  6708                     beq        +0xA /* 00000EAA */
00000EA2  2F0C                     move.l     -[A7], A4
00000EA4  4EAD 0102                jsr        [A5 + 0x102 /* export_28, CODE:1 @ 00001BE0 */]
00000EA8  584F                     addq.w     A7, 4
label00000EAA:
00000EAA  4CEE 1080 FFF8           movem.l    D7,A4, [A6 - 0x8]
00000EB0  4E5E                     unlink     A6
00000EB2  4E75                     rts
00000EB4  985F 5F64 745F 5F31 3... dc.b       "__dt__14cButtonControlFv"
export_832:
00000ED0  4E56 0000                link       A6, 0
00000ED4  48E7 1018                movem.l    -[A7], D3,A3,A4
00000ED8  266E 000C                movea.l    A3, [A6 + 0xC]
00000EDC  286E 0008                movea.l    A4, [A6 + 0x8]
00000EE0  200C                     move.l     D0, A4
00000EE2  6612                     bne        +0x14 /* 00000EF6 */
00000EE4  4878 0180                push.l     0x180
00000EE8  4EAD 010A                jsr        [A5 + 0x10A /* export_29, CODE:1 @ 00001C0A */]
00000EEC  2840                     movea.l    A4, D0
00000EEE  200C                     move.l     D0, A4
00000EF0  584F                     addq.w     A7, 4
00000EF2  6700 00D4                beq        +0xD6 /* 00000FC8 */
label00000EF6:
00000EF6  200B                     move.l     D0, A3
00000EF8  57C3                     seq        D3
00000EFA  4403                     neg.b      D3
00000EFC  6748                     beq        +0x4A /* 00000F46 */
00000EFE  264C                     movea.l    A3, A4
00000F00  47EB 0174                lea.l      A3, [A3 + 0x174]
00000F04  7601                     moveq.l    D3, 0x01
00000F06  200C                     move.l     D0, A4
00000F08  D0BC 0000 0174           add.l      D0, 0x174
00000F0E  6614                     bne        +0x16 /* 00000F24 */
00000F10  2F03                     move.l     -[A7], D3
00000F12  700C                     moveq.l    D0, 0x0C
00000F14  2F00                     move.l     -[A7], D0
00000F16  4EAD 010A                jsr        [A5 + 0x10A /* export_29, CODE:1 @ 00001C0A */]
00000F1A  588F                     addq.l     A7, 4
00000F1C  261F                     move.l     D3, [A7]+
00000F1E  4A80                     tst.l      D0
00000F20  6602                     bne        +0x4 /* 00000F24 */
00000F22  7600                     moveq.l    D3, 0x00
label00000F24:
00000F24  4A03                     tst.b      D3
00000F26  6712                     beq        +0x14 /* 00000F3A */
00000F28  296D F8A2 017C           move.l     [A4 + 0x17C], [A5 - 0x75E]
00000F2E  7000                     moveq.l    D0, 0x00
00000F30  2940 0174                move.l     [A4 + 0x174], D0
00000F34  2940 0178                move.l     [A4 + 0x178], D0
00000F38  6002                     bra        +0x4 /* 00000F3C */
label00000F3A:
00000F3A  7000                     moveq.l    D0, 0x00
label00000F3C:
00000F3C  200C                     move.l     D0, A4
00000F3E  D0BC 0000 0174           add.l      D0, 0x174
00000F44  6002                     bra        +0x4 /* 00000F48 */
label00000F46:
00000F46  200B                     move.l     D0, A3
label00000F48:
00000F48  2F2E 0018                move.l     -[A7], [A6 + 0x18]
00000F4C  2F2E 0014                move.l     -[A7], [A6 + 0x14]
00000F50  2F2E 0010                move.l     -[A7], [A6 + 0x10]
00000F54  2F0B                     move.l     -[A7], A3
00000F56  2F0C                     move.l     -[A7], A4
00000F58  4EAD 1EAA                jsr        [A5 + 0x1EAA /* export_977, CODE:37 @ 00000DCE */]
00000F5C  302E 002E                move.w     D0, [A6 + 0x2E]
00000F60  48C0                     ext.l      D0
00000F62  2F00                     move.l     -[A7], D0
00000F64  302E 002A                move.w     D0, [A6 + 0x2A]
00000F68  48C0                     ext.l      D0
00000F6A  2F00                     move.l     -[A7], D0
00000F6C  302E 0026                move.w     D0, [A6 + 0x26]
00000F70  48C0                     ext.l      D0
00000F72  2F00                     move.l     -[A7], D0
00000F74  302E 0022                move.w     D0, [A6 + 0x22]
00000F78  48C0                     ext.l      D0
00000F7A  2F00                     move.l     -[A7], D0
00000F7C  7000                     moveq.l    D0, 0x00
00000F7E  2F00                     move.l     -[A7], D0
00000F80  2F2E 001C                move.l     -[A7], [A6 + 0x1C]
00000F84  220C                     move.l     D1, A4
00000F86  D2BC 0000 012A           add.l      D1, 0x12A
00000F8C  2F01                     move.l     -[A7], D1
00000F8E  4EAD 1922                jsr        [A5 + 0x1922 /* export_800, CODE:33 @ 00000FF6 */]
00000F92  296D F8A6 0060           move.l     [A4 + 0x60], [A5 - 0x75A]
00000F98  296D F8AA 0132           move.l     [A4 + 0x132], [A5 - 0x756]
00000F9E  206C 0064                movea.l    A0, [A4 + 0x64]
00000FA2  216D F8AE 0008           move.l     [A0 + 0x8], [A5 - 0x752]
00000FA8  296D F8B2 0070           move.l     [A4 + 0x70], [A5 - 0x74E]
00000FAE  296D F8B6 0088           move.l     [A4 + 0x88], [A5 - 0x74A]
00000FB4  0CAD 0000 0200 F29A      cmpi.l     [A5 - 0xD66], 0x200
00000FBC  4FEF 0030                lea.l      A7, [A7 + 0x30]
00000FC0  6D06                     blt        +0x8 /* 00000FC8 */
00000FC2  486C 00CC                pea.l      [A4 + 0xCC]
00000FC6  AA1A                     syscall    GetBackColor
label00000FC8:
00000FC8  200C                     move.l     D0, A4
00000FCA  4CEE 1808 FFF4           movem.l    D3,A3,A4, [A6 - 0xC]
00000FD0  4E5E                     unlink     A6
00000FD2  4E75                     rts
00000FD4  8036 5F5F 6374 5F5F 3... dc.b       "__ct__15cStaticTextItemFP6cAgentP7cWindowR4RectPUcsN35"
export_833:
0000100E  4E56 0000                link       A6, 0
00001012  48E7 0108                movem.l    -[A7], D7,A4
00001016  2E2E 000C                move.l     D7, [A6 + 0xC]
0000101A  286E 0008                movea.l    A4, [A6 + 0x8]
0000101E  200C                     move.l     D0, A4
00001020  6774                     beq        +0x76 /* 00001096 */
00001022  296D F8B6 0088           move.l     [A4 + 0x88], [A5 - 0x74A]
00001028  296D F8B2 0070           move.l     [A4 + 0x70], [A5 - 0x74E]
0000102E  206C 0064                movea.l    A0, [A4 + 0x64]
00001032  216D F8AE 0008           move.l     [A0 + 0x8], [A5 - 0x752]
00001038  296D F8AA 0132           move.l     [A4 + 0x132], [A5 - 0x756]
0000103E  296D F8A6 0060           move.l     [A4 + 0x60], [A5 - 0x75A]
00001044  200C                     move.l     D0, A4
00001046  674E                     beq        +0x50 /* 00001096 */
00001048  7000                     moveq.l    D0, 0x00
0000104A  2F00                     move.l     -[A7], D0
0000104C  220C                     move.l     D1, A4
0000104E  D2BC 0000 012A           add.l      D1, 0x12A
00001054  2F01                     move.l     -[A7], D1
00001056  4EAD 192A                jsr        [A5 + 0x192A /* export_801, CODE:33 @ 00001084 */]
0000105A  7000                     moveq.l    D0, 0x00
0000105C  2F00                     move.l     -[A7], D0
0000105E  2F0C                     move.l     -[A7], A4
00001060  4EAD 1EB2                jsr        [A5 + 0x1EB2 /* export_978, CODE:37 @ 00000F26 */]
00001064  7002                     moveq.l    D0, 0x02
00001066  C087                     and.l      D0, D7
00001068  6718                     beq        +0x1A /* 00001082 */
0000106A  7000                     moveq.l    D0, 0x00
0000106C  2F00                     move.l     -[A7], D0
0000106E  220C                     move.l     D1, A4
00001070  D2BC 0000 0174           add.l      D1, 0x174
00001076  2F01                     move.l     -[A7], D1
00001078  4EAD 1632                jsr        [A5 + 0x1632 /* export_706, CODE:32 @ 000036CC */]
0000107C  7000                     moveq.l    D0, 0x00
0000107E  504F                     addq.w     A7, 8
00001080  6002                     bra        +0x4 /* 00001084 */
label00001082:
00001082  7000                     moveq.l    D0, 0x00
label00001084:
00001084  0807 0000                btst.b     D7, 0x0
00001088  4FEF 0010                lea.l      A7, [A7 + 0x10]
0000108C  6708                     beq        +0xA /* 00001096 */
0000108E  2F0C                     move.l     -[A7], A4
00001090  4EAD 0102                jsr        [A5 + 0x102 /* export_28, CODE:1 @ 00001BE0 */]
00001094  584F                     addq.w     A7, 4
label00001096:
00001096  4CEE 1080 FFF8           movem.l    D7,A4, [A6 - 0x8]
0000109C  4E5E                     unlink     A6
0000109E  4E75                     rts
000010A0  995F 5F64 745F 5F31 3... dc.b       "__dt__15cStaticTextItemFv"
export_834:
000010BC  4E56 0000                link       A6, 0
000010C0  2F0C                     move.l     -[A7], A4
000010C2  286E 0008                movea.l    A4, [A6 + 0x8]
000010C6  7000                     moveq.l    D0, 0x00
000010C8  102C 0098                move.b     D0, [A4 + 0x98]
000010CC  7201                     moveq.l    D1, 0x01
000010CE  C200                     and.b      D1, D0
000010D0  7000                     moveq.l    D0, 0x00
000010D2  1001                     move.b     D0, D1
000010D4  4A80                     tst.l      D0
000010D6  6644                     bne        +0x46 /* 0000111C */
000010D8  2F2C 0112                move.l     -[A7], [A4 + 0x112]
000010DC  4EAD 11E2                jsr        [A5 + 0x11E2 /* export_568, CODE:26 @ 000031FA */]
000010E0  0CAD 0000 0200 F29A      cmpi.l     [A5 - 0xD66], 0x200
000010E8  584F                     addq.w     A7, 4
000010EA  6D0C                     blt        +0xE /* 000010F8 */
000010EC  486C 009A                pea.l      [A4 + 0x9A]
000010F0  AA14                     syscall    RGBForeColor
000010F2  486C 00CC                pea.l      [A4 + 0xCC]
000010F6  AA15                     syscall    RGBBackColor
label000010F8:
000010F8  486C 0090                pea.l      [A4 + 0x90]
000010FC  A8A3                     syscall    EraseRect
000010FE  7000                     moveq.l    D0, 0x00
00001100  2F00                     move.l     -[A7], D0
00001102  2F00                     move.l     -[A7], D0
00001104  486C 0090                pea.l      [A4 + 0x90]
00001108  486C 012A                pea.l      [A4 + 0x12A]
0000110C  4EAD 193A                jsr        [A5 + 0x193A /* export_803, CODE:33 @ 00001176 */]
00001110  2F2C 0112                move.l     -[A7], [A4 + 0x112]
00001114  4EAD 11EA                jsr        [A5 + 0x11EA /* export_569, CODE:26 @ 00003268 */]
00001118  4FEF 0014                lea.l      A7, [A7 + 0x14]
label0000111C:
0000111C  286E FFFC                movea.l    A4, [A6 - 0x4]
00001120  4E5E                     unlink     A6
00001122  4E75                     rts
00001124  9944 7261 775F 5F31 3... dc.b       "Draw__15cStaticTextItemFv"
fn00001140:
00001140  4E56 0000                link       A6, 0
00001144  48E7 1018                movem.l    -[A7], D3,A3,A4
00001148  266E 000C                movea.l    A3, [A6 + 0xC]
0000114C  286E 0008                movea.l    A4, [A6 + 0x8]
00001150  200C                     move.l     D0, A4
00001152  6612                     bne        +0x14 /* 00001166 */
00001154  4878 0208                push.l     0x208
00001158  4EAD 010A                jsr        [A5 + 0x10A /* export_29, CODE:1 @ 00001C0A */]
0000115C  2840                     movea.l    A4, D0
0000115E  200C                     move.l     D0, A4
00001160  584F                     addq.w     A7, 4
00001162  6700 00C0                beq        +0xC2 /* 00001224 */
label00001166:
00001166  200B                     move.l     D0, A3
00001168  57C3                     seq        D3
0000116A  4403                     neg.b      D3
0000116C  6748                     beq        +0x4A /* 000011B6 */
0000116E  264C                     movea.l    A3, A4
00001170  47EB 01FC                lea.l      A3, [A3 + 0x1FC]
00001174  7601                     moveq.l    D3, 0x01
00001176  200C                     move.l     D0, A4
00001178  D0BC 0000 01FC           add.l      D0, 0x1FC
0000117E  6614                     bne        +0x16 /* 00001194 */
00001180  2F03                     move.l     -[A7], D3
00001182  700C                     moveq.l    D0, 0x0C
00001184  2F00                     move.l     -[A7], D0
00001186  4EAD 010A                jsr        [A5 + 0x10A /* export_29, CODE:1 @ 00001C0A */]
0000118A  588F                     addq.l     A7, 4
0000118C  261F                     move.l     D3, [A7]+
0000118E  4A80                     tst.l      D0
00001190  6602                     bne        +0x4 /* 00001194 */
00001192  7600                     moveq.l    D3, 0x00
label00001194:
00001194  4A03                     tst.b      D3
00001196  6712                     beq        +0x14 /* 000011AA */
00001198  296D F8C6 0204           move.l     [A4 + 0x204], [A5 - 0x73A]
0000119E  7000                     moveq.l    D0, 0x00
000011A0  2940 01FC                move.l     [A4 + 0x1FC], D0
000011A4  2940 0200                move.l     [A4 + 0x200], D0
000011A8  6002                     bra        +0x4 /* 000011AC */
label000011AA:
000011AA  7000                     moveq.l    D0, 0x00
label000011AC:
000011AC  200C                     move.l     D0, A4
000011AE  D0BC 0000 01FC           add.l      D0, 0x1FC
000011B4  6002                     bra        +0x4 /* 000011B8 */
label000011B6:
000011B6  200B                     move.l     D0, A3
label000011B8:
000011B8  302E 0032                move.w     D0, [A6 + 0x32]
000011BC  48C0                     ext.l      D0
000011BE  2F00                     move.l     -[A7], D0
000011C0  302E 002E                move.w     D0, [A6 + 0x2E]
000011C4  48C0                     ext.l      D0
000011C6  2F00                     move.l     -[A7], D0
000011C8  302E 002A                move.w     D0, [A6 + 0x2A]
000011CC  48C0                     ext.l      D0
000011CE  2F00                     move.l     -[A7], D0
000011D0  302E 0026                move.w     D0, [A6 + 0x26]
000011D4  48C0                     ext.l      D0
000011D6  2F00                     move.l     -[A7], D0
000011D8  7000                     moveq.l    D0, 0x00
000011DA  102E 0023                move.b     D0, [A6 + 0x23]
000011DE  2F00                     move.l     -[A7], D0
000011E0  7000                     moveq.l    D0, 0x00
000011E2  102E 001F                move.b     D0, [A6 + 0x1F]
000011E6  2F00                     move.l     -[A7], D0
000011E8  7001                     moveq.l    D0, 0x01
000011EA  2F00                     move.l     -[A7], D0
000011EC  7200                     moveq.l    D1, 0x00
000011EE  2F01                     move.l     -[A7], D1
000011F0  2F2E 0018                move.l     -[A7], [A6 + 0x18]
000011F4  2F2E 0014                move.l     -[A7], [A6 + 0x14]
000011F8  2F2E 0010                move.l     -[A7], [A6 + 0x10]
000011FC  2F0B                     move.l     -[A7], A3
000011FE  2F0C                     move.l     -[A7], A4
00001200  4EAD 2142                jsr        [A5 + 0x2142 /* export_1060, CODE:40 @ 00000000 */]
00001204  296D F8CA 0060           move.l     [A4 + 0x60], [A5 - 0x736]
0000120A  206C 0064                movea.l    A0, [A4 + 0x64]
0000120E  216D F8CE 0008           move.l     [A0 + 0x8], [A5 - 0x732]
00001214  296D F8D2 0070           move.l     [A4 + 0x70], [A5 - 0x72E]
0000121A  296D F8D6 0088           move.l     [A4 + 0x88], [A5 - 0x72A]
00001220  4FEF 0034                lea.l      A7, [A7 + 0x34]
label00001224:
00001224  200C                     move.l     D0, A4
00001226  4CEE 1808 FFF4           movem.l    D3,A3,A4, [A6 - 0xC]
0000122C  4E5E                     unlink     A6
0000122E  4E75                     rts
00001230  8039 5F5F 6374 5F5F 3... dc.b       "__ct__17cVScrollerDocItemFP6cAgentP7cWindowR4RectUcT4sN36"
export_835:
fn0000126E:
0000126E  4E56 0000                link       A6, 0
00001272  48E7 0108                movem.l    -[A7], D7,A4
00001276  2E2E 000C                move.l     D7, [A6 + 0xC]
0000127A  286E 0008                movea.l    A4, [A6 + 0x8]
0000127E  200C                     move.l     D0, A4
00001280  675A                     beq        +0x5C /* 000012DC */
00001282  296D F8D6 0088           move.l     [A4 + 0x88], [A5 - 0x72A]
00001288  296D F8D2 0070           move.l     [A4 + 0x70], [A5 - 0x72E]
0000128E  206C 0064                movea.l    A0, [A4 + 0x64]
00001292  216D F8CE 0008           move.l     [A0 + 0x8], [A5 - 0x732]
00001298  296D F8CA 0060           move.l     [A4 + 0x60], [A5 - 0x736]
0000129E  200C                     move.l     D0, A4
000012A0  673A                     beq        +0x3C /* 000012DC */
000012A2  7000                     moveq.l    D0, 0x00
000012A4  2F00                     move.l     -[A7], D0
000012A6  2F0C                     move.l     -[A7], A4
000012A8  4EAD 225A                jsr        [A5 + 0x225A /* export_1095, CODE:40 @ 000031B0 */]
000012AC  7002                     moveq.l    D0, 0x02
000012AE  C087                     and.l      D0, D7
000012B0  6718                     beq        +0x1A /* 000012CA */
000012B2  7000                     moveq.l    D0, 0x00
000012B4  2F00                     move.l     -[A7], D0
000012B6  220C                     move.l     D1, A4
000012B8  D2BC 0000 01FC           add.l      D1, 0x1FC
000012BE  2F01                     move.l     -[A7], D1
000012C0  4EAD 1632                jsr        [A5 + 0x1632 /* export_706, CODE:32 @ 000036CC */]
000012C4  7000                     moveq.l    D0, 0x00
000012C6  504F                     addq.w     A7, 8
000012C8  6002                     bra        +0x4 /* 000012CC */
label000012CA:
000012CA  7000                     moveq.l    D0, 0x00
label000012CC:
000012CC  0807 0000                btst.b     D7, 0x0
000012D0  504F                     addq.w     A7, 8
000012D2  6708                     beq        +0xA /* 000012DC */
000012D4  2F0C                     move.l     -[A7], A4
000012D6  4EAD 0102                jsr        [A5 + 0x102 /* export_28, CODE:1 @ 00001BE0 */]
000012DA  584F                     addq.w     A7, 4
label000012DC:
000012DC  4CEE 1080 FFF8           movem.l    D7,A4, [A6 - 0x8]
000012E2  4E5E                     unlink     A6
000012E4  4E75                     rts
000012E6  9B5F 5F64 745F 5F31 3... dc.b       "__dt__17cVScrollerDocItemFv"
fn00001304:
00001304  4E56 0000                link       A6, 0
00001308  48E7 1018                movem.l    -[A7], D3,A3,A4
0000130C  266E 000C                movea.l    A3, [A6 + 0xC]
00001310  286E 0008                movea.l    A4, [A6 + 0x8]
00001314  200C                     move.l     D0, A4
00001316  6612                     bne        +0x14 /* 0000132A */
00001318  4878 0208                push.l     0x208
0000131C  4EAD 010A                jsr        [A5 + 0x10A /* export_29, CODE:1 @ 00001C0A */]
00001320  2840                     movea.l    A4, D0
00001322  200C                     move.l     D0, A4
00001324  584F                     addq.w     A7, 4
00001326  6700 00A2                beq        +0xA4 /* 000013CA */
label0000132A:
0000132A  200B                     move.l     D0, A3
0000132C  57C3                     seq        D3
0000132E  4403                     neg.b      D3
00001330  6748                     beq        +0x4A /* 0000137A */
00001332  264C                     movea.l    A3, A4
00001334  47EB 01FC                lea.l      A3, [A3 + 0x1FC]
00001338  7601                     moveq.l    D3, 0x01
0000133A  200C                     move.l     D0, A4
0000133C  D0BC 0000 01FC           add.l      D0, 0x1FC
00001342  6614                     bne        +0x16 /* 00001358 */
00001344  2F03                     move.l     -[A7], D3
00001346  700C                     moveq.l    D0, 0x0C
00001348  2F00                     move.l     -[A7], D0
0000134A  4EAD 010A                jsr        [A5 + 0x10A /* export_29, CODE:1 @ 00001C0A */]
0000134E  588F                     addq.l     A7, 4
00001350  261F                     move.l     D3, [A7]+
00001352  4A80                     tst.l      D0
00001354  6602                     bne        +0x4 /* 00001358 */
00001356  7600                     moveq.l    D3, 0x00
label00001358:
00001358  4A03                     tst.b      D3
0000135A  6712                     beq        +0x14 /* 0000136E */
0000135C  296D F9D6 0204           move.l     [A4 + 0x204], [A5 - 0x62A]
00001362  7000                     moveq.l    D0, 0x00
00001364  2940 01FC                move.l     [A4 + 0x1FC], D0
00001368  2940 0200                move.l     [A4 + 0x200], D0
0000136C  6002                     bra        +0x4 /* 00001370 */
label0000136E:
0000136E  7000                     moveq.l    D0, 0x00
label00001370:
00001370  200C                     move.l     D0, A4
00001372  D0BC 0000 01FC           add.l      D0, 0x1FC
00001378  6002                     bra        +0x4 /* 0000137C */
label0000137A:
0000137A  200B                     move.l     D0, A3
label0000137C:
0000137C  7000                     moveq.l    D0, 0x00
0000137E  2F00                     move.l     -[A7], D0
00001380  2F00                     move.l     -[A7], D0
00001382  2F00                     move.l     -[A7], D0
00001384  2F00                     move.l     -[A7], D0
00001386  7200                     moveq.l    D1, 0x00
00001388  122E 0023                move.b     D1, [A6 + 0x23]
0000138C  2F01                     move.l     -[A7], D1
0000138E  7200                     moveq.l    D1, 0x00
00001390  122E 001F                move.b     D1, [A6 + 0x1F]
00001394  2F01                     move.l     -[A7], D1
00001396  2F2E 0018                move.l     -[A7], [A6 + 0x18]
0000139A  2F2E 0014                move.l     -[A7], [A6 + 0x14]
0000139E  2F2E 0010                move.l     -[A7], [A6 + 0x10]
000013A2  2F0B                     move.l     -[A7], A3
000013A4  2F0C                     move.l     -[A7], A4
000013A6  4EBA FD98                jsr        [PC - 0x268 /* 00001140 */]
000013AA  296D F9DA 0060           move.l     [A4 + 0x60], [A5 - 0x626]
000013B0  296D F9DE 0088           move.l     [A4 + 0x88], [A5 - 0x622]
000013B6  296D F9E2 0070           move.l     [A4 + 0x70], [A5 - 0x61E]
000013BC  206C 0064                movea.l    A0, [A4 + 0x64]
000013C0  216D F9E6 0008           move.l     [A0 + 0x8], [A5 - 0x61A]
000013C6  4FEF 002C                lea.l      A7, [A7 + 0x2C]
label000013CA:
000013CA  200C                     move.l     D0, A4
000013CC  4CEE 1808 FFF4           movem.l    D3,A3,A4, [A6 - 0xC]
000013D2  4E5E                     unlink     A6
000013D4  4E75                     rts
000013D6  8036 5F5F 6374 5F5F 3... dc.b       "__ct__18cScrollingListItemFP6cAgentP7cWindowR4RectUcT4"
export_836:
fn00001410:
00001410  4E56 0000                link       A6, 0
00001414  48E7 0108                movem.l    -[A7], D7,A4
00001418  2E2E 000C                move.l     D7, [A6 + 0xC]
0000141C  286E 0008                movea.l    A4, [A6 + 0x8]
00001420  200C                     move.l     D0, A4
00001422  675A                     beq        +0x5C /* 0000147E */
00001424  206C 0064                movea.l    A0, [A4 + 0x64]
00001428  216D F9E6 0008           move.l     [A0 + 0x8], [A5 - 0x61A]
0000142E  296D F9E2 0070           move.l     [A4 + 0x70], [A5 - 0x61E]
00001434  296D F9DE 0088           move.l     [A4 + 0x88], [A5 - 0x622]
0000143A  296D F9DA 0060           move.l     [A4 + 0x60], [A5 - 0x626]
00001440  200C                     move.l     D0, A4
00001442  673A                     beq        +0x3C /* 0000147E */
00001444  7000                     moveq.l    D0, 0x00
00001446  2F00                     move.l     -[A7], D0
00001448  2F0C                     move.l     -[A7], A4
0000144A  4EBA FE22                jsr        [PC - 0x1DE /* 0000126E */]
0000144E  7002                     moveq.l    D0, 0x02
00001450  C087                     and.l      D0, D7
00001452  6718                     beq        +0x1A /* 0000146C */
00001454  7000                     moveq.l    D0, 0x00
00001456  2F00                     move.l     -[A7], D0
00001458  220C                     move.l     D1, A4
0000145A  D2BC 0000 01FC           add.l      D1, 0x1FC
00001460  2F01                     move.l     -[A7], D1
00001462  4EAD 1632                jsr        [A5 + 0x1632 /* export_706, CODE:32 @ 000036CC */]
00001466  7000                     moveq.l    D0, 0x00
00001468  504F                     addq.w     A7, 8
0000146A  6002                     bra        +0x4 /* 0000146E */
label0000146C:
0000146C  7000                     moveq.l    D0, 0x00
label0000146E:
0000146E  0807 0000                btst.b     D7, 0x0
00001472  504F                     addq.w     A7, 8
00001474  6708                     beq        +0xA /* 0000147E */
00001476  2F0C                     move.l     -[A7], A4
00001478  4EAD 0102                jsr        [A5 + 0x102 /* export_28, CODE:1 @ 00001BE0 */]
0000147C  584F                     addq.w     A7, 4
label0000147E:
0000147E  4CEE 1080 FFF8           movem.l    D7,A4, [A6 - 0x8]
00001484  4E5E                     unlink     A6
00001486  4E75                     rts
00001488  9C5F 5F64 745F 5F31 3... dc.b       "__dt__18cScrollingListItemFv"
export_837:
000014A8  4E56 0000                link       A6, 0
000014AC  48E7 0118                movem.l    -[A7], D7,A3,A4
000014B0  1E2E 000F                move.b     D7, [A6 + 0xF]
000014B4  286E 0008                movea.l    A4, [A6 + 0x8]
000014B8  7000                     moveq.l    D0, 0x00
000014BA  1007                     move.b     D0, D7
000014BC  2F00                     move.l     -[A7], D0
000014BE  2F0C                     move.l     -[A7], A4
000014C0  4EAD 21CA                jsr        [A5 + 0x21CA /* export_1077, CODE:40 @ 00001E90 */]
000014C4  4A07                     tst.b      D7
000014C6  504F                     addq.w     A7, 8
000014C8  6734                     beq        +0x36 /* 000014FE */
000014CA  266C 01CC                movea.l    A3, [A4 + 0x1CC]
000014CE  200B                     move.l     D0, A3
000014D0  670A                     beq        +0xC /* 000014DC */
000014D2  2F0B                     move.l     -[A7], A3
000014D4  4EAD 1D32                jsr        [A5 + 0x1D32 /* export_930, CODE:36 @ 00000FD4 */]
000014D8  2640                     movea.l    A3, D0
000014DA  584F                     addq.w     A7, 4
label000014DC:
000014DC  200B                     move.l     D0, A3
000014DE  6716                     beq        +0x18 /* 000014F6 */
000014E0  204B                     movea.l    A0, A3
000014E2  226B 0008                movea.l    A1, [A3 + 0x8]
000014E6  D0E9 00A8                add.w      A0, [A1 + 0xA8]
000014EA  2F08                     move.l     -[A7], A0
000014EC  2049                     movea.l    A0, A1
000014EE  2268 00AC                movea.l    A1, [A0 + 0xAC]
000014F2  4E91                     jsr        [A1]
000014F4  584F                     addq.w     A7, 4
label000014F6:
000014F6  2F0C                     move.l     -[A7], A4
000014F8  4EAD 1F52                jsr        [A5 + 0x1F52 /* export_998, CODE:37 @ 000014C8 */]
000014FC  584F                     addq.w     A7, 4
label000014FE:
000014FE  4CEE 1880 FFF4           movem.l    D7,A3,A4, [A6 - 0xC]
00001504  4E5E                     unlink     A6
00001506  4E75                     rts
00001508  802A 446F 4163 7469 7... dc.b       "DoActivationTasks__18cScrollingListItemFUc"
export_838:
00001536  4E56 0000                link       A6, 0
0000153A  48E7 0118                movem.l    -[A7], D7,A3,A4
0000153E  1E2E 000F                move.b     D7, [A6 + 0xF]
00001542  286E 0008                movea.l    A4, [A6 + 0x8]
00001546  7000                     moveq.l    D0, 0x00
00001548  1007                     move.b     D0, D7
0000154A  2F00                     move.l     -[A7], D0
0000154C  2F0C                     move.l     -[A7], A4
0000154E  4EAD 21D2                jsr        [A5 + 0x21D2 /* export_1078, CODE:40 @ 00002116 */]
00001552  4A07                     tst.b      D7
00001554  504F                     addq.w     A7, 8
00001556  673E                     beq        +0x40 /* 00001596 */
00001558  266C 01CC                movea.l    A3, [A4 + 0x1CC]
0000155C  200B                     move.l     D0, A3
0000155E  672A                     beq        +0x2C /* 0000158A */
00001560  2F0B                     move.l     -[A7], A3
00001562  4EAD 1C82                jsr        [A5 + 0x1C82 /* export_908, CODE:36 @ 0000071E */]
00001566  2640                     movea.l    A3, D0
00001568  584F                     addq.w     A7, 4
0000156A  601E                     bra        +0x20 /* 0000158A */
label0000156C:
0000156C  204B                     movea.l    A0, A3
0000156E  226B 0008                movea.l    A1, [A3 + 0x8]
00001572  D0E9 00B0                add.w      A0, [A1 + 0xB0]
00001576  2F08                     move.l     -[A7], A0
00001578  2049                     movea.l    A0, A1
0000157A  2268 00B4                movea.l    A1, [A0 + 0xB4]
0000157E  4E91                     jsr        [A1]
00001580  2F0B                     move.l     -[A7], A3
00001582  4EAD 1C82                jsr        [A5 + 0x1C82 /* export_908, CODE:36 @ 0000071E */]
00001586  2640                     movea.l    A3, D0
00001588  504F                     addq.w     A7, 8
label0000158A:
0000158A  200B                     move.l     D0, A3
0000158C  66DE                     bne        -0x20 /* 0000156C */
0000158E  2F0C                     move.l     -[A7], A4
00001590  4EAD 1F52                jsr        [A5 + 0x1F52 /* export_998, CODE:37 @ 000014C8 */]
00001594  584F                     addq.w     A7, 4
label00001596:
00001596  4CEE 1880 FFF4           movem.l    D7,A3,A4, [A6 - 0xC]
0000159C  4E5E                     unlink     A6
0000159E  4E75                     rts
000015A0  802C 446F 4465 6163 7... dc.b       "DoDeactivationTasks__18cScrollingListItemFUc"
export_839:
000015D0  4E56 0000                link       A6, 0
000015D4  2F0C                     move.l     -[A7], A4
000015D6  286E 0008                movea.l    A4, [A6 + 0x8]
000015DA  7000                     moveq.l    D0, 0x00
000015DC  102C 0098                move.b     D0, [A4 + 0x98]
000015E0  7208                     moveq.l    D1, 0x08
000015E2  C200                     and.b      D1, D0
000015E4  7000                     moveq.l    D0, 0x00
000015E6  1001                     move.b     D0, D1
000015E8  4A80                     tst.l      D0
000015EA  6626                     bne        +0x28 /* 00001612 */
000015EC  2F0C                     move.l     -[A7], A4
000015EE  4EAD 1FC2                jsr        [A5 + 0x1FC2 /* export_1012, CODE:37 @ 00001E32 */]
000015F2  2F0C                     move.l     -[A7], A4
000015F4  2F3C 4742 5447           move.l     -[A7], 0x47425447 /* 'GBTG' */
000015FA  204C                     movea.l    A0, A4
000015FC  226C 0060                movea.l    A1, [A4 + 0x60]
00001600  D0E9 0060                add.w      A0, [A1 + 0x60]
00001604  2F08                     move.l     -[A7], A0
00001606  2049                     movea.l    A0, A1
00001608  2268 0064                movea.l    A1, [A0 + 0x64]
0000160C  4E91                     jsr        [A1]
0000160E  4FEF 0010                lea.l      A7, [A7 + 0x10]
label00001612:
00001612  286E FFFC                movea.l    A4, [A6 - 0x4]
00001616  4E5E                     unlink     A6
00001618  4E75                     rts
0000161A  8020 4163 7469 7661 7... dc.b       "Activate__18cScrollingListItemFv"
export_840:
0000163E  4E56 0000                link       A6, 0
00001642  2F0C                     move.l     -[A7], A4
00001644  286E 0008                movea.l    A4, [A6 + 0x8]
00001648  7000                     moveq.l    D0, 0x00
0000164A  102C 0098                move.b     D0, [A4 + 0x98]
0000164E  7208                     moveq.l    D1, 0x08
00001650  C200                     and.b      D1, D0
00001652  7000                     moveq.l    D0, 0x00
00001654  1001                     move.b     D0, D1
00001656  4A80                     tst.l      D0
00001658  6708                     beq        +0xA /* 00001662 */
0000165A  2F0C                     move.l     -[A7], A4
0000165C  4EAD 1FCA                jsr        [A5 + 0x1FCA /* export_1013, CODE:37 @ 00001E78 */]
00001660  584F                     addq.w     A7, 4
label00001662:
00001662  286E FFFC                movea.l    A4, [A6 - 0x4]
00001666  4E5E                     unlink     A6
00001668  4E75                     rts
0000166A  8022 4465 6163 7469 7... dc.b       "Deactivate__18cScrollingListItemFv"
export_841:
00001690  4E56 FFF8                link       A6, -0x0008
00001694  48E7 1018                movem.l    -[A7], D3,A3,A4
00001698  266E 000C                movea.l    A3, [A6 + 0xC]
0000169C  286E 0008                movea.l    A4, [A6 + 0x8]
000016A0  200C                     move.l     D0, A4
000016A2  6612                     bne        +0x14 /* 000016B6 */
000016A4  4878 018E                push.l     0x18E
000016A8  4EAD 010A                jsr        [A5 + 0x10A /* export_29, CODE:1 @ 00001C0A */]
000016AC  2840                     movea.l    A4, D0
000016AE  200C                     move.l     D0, A4
000016B0  584F                     addq.w     A7, 4
000016B2  6700 0110                beq        +0x112 /* 000017C4 */
label000016B6:
000016B6  200B                     move.l     D0, A3
000016B8  57C3                     seq        D3
000016BA  4403                     neg.b      D3
000016BC  6748                     beq        +0x4A /* 00001706 */
000016BE  264C                     movea.l    A3, A4
000016C0  47EB 0182                lea.l      A3, [A3 + 0x182]
000016C4  7601                     moveq.l    D3, 0x01
000016C6  200C                     move.l     D0, A4
000016C8  D0BC 0000 0182           add.l      D0, 0x182
000016CE  6614                     bne        +0x16 /* 000016E4 */
000016D0  2F03                     move.l     -[A7], D3
000016D2  700C                     moveq.l    D0, 0x0C
000016D4  2F00                     move.l     -[A7], D0
000016D6  4EAD 010A                jsr        [A5 + 0x10A /* export_29, CODE:1 @ 00001C0A */]
000016DA  588F                     addq.l     A7, 4
000016DC  261F                     move.l     D3, [A7]+
000016DE  4A80                     tst.l      D0
000016E0  6602                     bne        +0x4 /* 000016E4 */
000016E2  7600                     moveq.l    D3, 0x00
label000016E4:
000016E4  4A03                     tst.b      D3
000016E6  6712                     beq        +0x14 /* 000016FA */
000016E8  296D FC4A 018A           move.l     [A4 + 0x18A], [A5 - 0x3B6]
000016EE  7000                     moveq.l    D0, 0x00
000016F0  2940 0182                move.l     [A4 + 0x182], D0
000016F4  2940 0186                move.l     [A4 + 0x186], D0
000016F8  6002                     bra        +0x4 /* 000016FC */
label000016FA:
000016FA  7000                     moveq.l    D0, 0x00
label000016FC:
000016FC  200C                     move.l     D0, A4
000016FE  D0BC 0000 0182           add.l      D0, 0x182
00001704  6002                     bra        +0x4 /* 00001708 */
label00001706:
00001706  200B                     move.l     D0, A3
label00001708:
00001708  2F2E 0018                move.l     -[A7], [A6 + 0x18]
0000170C  2F2E 0014                move.l     -[A7], [A6 + 0x14]
00001710  2F2E 0010                move.l     -[A7], [A6 + 0x10]
00001714  2F0B                     move.l     -[A7], A3
00001716  2F0C                     move.l     -[A7], A4
00001718  4EAD 1EAA                jsr        [A5 + 0x1EAA /* export_977, CODE:37 @ 00000DCE */]
0000171C  296D FC4E 0060           move.l     [A4 + 0x60], [A5 - 0x3B2]
00001722  206C 0064                movea.l    A0, [A4 + 0x64]
00001726  216D FC52 0008           move.l     [A0 + 0x8], [A5 - 0x3AE]
0000172C  296D FC56 0070           move.l     [A4 + 0x70], [A5 - 0x3AA]
00001732  296D FC5A 0088           move.l     [A4 + 0x88], [A5 - 0x3A6]
00001738  7001                     moveq.l    D0, 0x01
0000173A  2F00                     move.l     -[A7], D0
0000173C  7200                     moveq.l    D1, 0x00
0000173E  2F01                     move.l     -[A7], D1
00001740  342E 0026                move.w     D2, [A6 + 0x26]
00001744  48C2                     ext.l      D2
00001746  2F02                     move.l     -[A7], D2
00001748  342E 0022                move.w     D2, [A6 + 0x22]
0000174C  48C2                     ext.l      D2
0000174E  2F02                     move.l     -[A7], D2
00001750  2F01                     move.l     -[A7], D1
00001752  2F2E 001C                move.l     -[A7], [A6 + 0x1C]
00001756  486C 012A                pea.l      [A4 + 0x12A]
0000175A  4EAD 1922                jsr        [A5 + 0x1922 /* export_800, CODE:33 @ 00000FF6 */]
0000175E  41EE FFF8                lea.l      A0, [A6 - 0x8]
00001762  43EC 0090                lea.l      A1, [A4 + 0x90]
00001766  20D9                     move.l     [A0]+, [A1]+
00001768  20D9                     move.l     [A0]+, [A1]+
0000176A  7001                     moveq.l    D0, 0x01
0000176C  2F00                     move.l     -[A7], D0
0000176E  2F00                     move.l     -[A7], D0
00001770  486E FFF8                pea.l      [A6 - 0x8]
00001774  486C 012A                pea.l      [A4 + 0x12A]
00001778  4EAD 193A                jsr        [A5 + 0x193A /* export_803, CODE:33 @ 00001176 */]
0000177C  302E FFFE                move.w     D0, [A6 - 0x2]
00001780  906E FFFA                sub.w      D0, [A6 - 0x6]
00001784  3940 0176                move.w     [A4 + 0x176], D0
00001788  302E FFFC                move.w     D0, [A6 - 0x4]
0000178C  906E FFF8                sub.w      D0, [A6 - 0x8]
00001790  3940 0174                move.w     [A4 + 0x174], D0
00001794  41EC 0178                lea.l      A0, [A4 + 0x178]
00001798  43EC 0090                lea.l      A1, [A4 + 0x90]
0000179C  20D9                     move.l     [A0]+, [A1]+
0000179E  20D9                     move.l     [A0]+, [A1]+
000017A0  486C 0178                pea.l      [A4 + 0x178]
000017A4  7002                     moveq.l    D0, 0x02
000017A6  3F00                     move.w     -[A7], D0
000017A8  3F00                     move.w     -[A7], D0
000017AA  A8A9                     syscall    InsetRect
000017AC  302C 0174                move.w     D0, [A4 + 0x174]
000017B0  D16C 0178                add.w      [A4 + 0x178], D0
000017B4  4AAE 001C                tst.l      [A6 + 0x1C]
000017B8  56C3                     sne        D3
000017BA  4403                     neg.b      D3
000017BC  1943 0180                move.b     [A4 + 0x180], D3
000017C0  4FEF 0040                lea.l      A7, [A7 + 0x40]
label000017C4:
000017C4  200C                     move.l     D0, A4
000017C6  4CEE 1808 FFEC           movem.l    D3,A3,A4, [A6 - 0x14]
000017CC  4E5E                     unlink     A6
000017CE  4E75                     rts
000017D0  8034 5F5F 6374 5F5F 3... dc.b       "__ct__14cTextFrameItemFP6cAgentP7cWindowR4RectPUcsT5"
export_842:
00001808  4E56 FFF8                link       A6, -0x0008
0000180C  48E7 0108                movem.l    -[A7], D7,A4
00001810  286E 0008                movea.l    A4, [A6 + 0x8]
00001814  4A2C 0180                tst.b      [A4 + 0x180]
00001818  6700 00E6                beq        +0xE8 /* 00001900 */
0000181C  2F2C 0112                move.l     -[A7], [A4 + 0x112]
00001820  4EAD 11E2                jsr        [A5 + 0x11E2 /* export_568, CODE:26 @ 000031FA */]
00001824  0CAD 0000 0200 F29A      cmpi.l     [A5 - 0xD66], 0x200
0000182C  584F                     addq.w     A7, 4
0000182E  6D0C                     blt        +0xE /* 0000183C */
00001830  486C 00CC                pea.l      [A4 + 0xCC]
00001834  AA15                     syscall    RGBBackColor
00001836  486C 009A                pea.l      [A4 + 0x9A]
0000183A  AA14                     syscall    RGBForeColor
label0000183C:
0000183C  41EE FFF8                lea.l      A0, [A6 - 0x8]
00001840  43EC 0090                lea.l      A1, [A4 + 0x90]
00001844  20D9                     move.l     [A0]+, [A1]+
00001846  20D9                     move.l     [A0]+, [A1]+
00001848  302C 0174                move.w     D0, [A4 + 0x174]
0000184C  D06E FFF8                add.w      D0, [A6 - 0x8]
00001850  3D40 FFFC                move.w     [A6 - 0x4], D0
00001854  7000                     moveq.l    D0, 0x00
00001856  2F00                     move.l     -[A7], D0
00001858  2F00                     move.l     -[A7], D0
0000185A  486E FFF8                pea.l      [A6 - 0x8]
0000185E  486C 012A                pea.l      [A4 + 0x12A]
00001862  4EAD 193A                jsr        [A5 + 0x193A /* export_803, CODE:33 @ 00001176 */]
00001866  302C 0096                move.w     D0, [A4 + 0x96]
0000186A  48C0                     ext.l      D0
0000186C  322C 0092                move.w     D1, [A4 + 0x92]
00001870  48C1                     ext.l      D1
00001872  9081                     sub.l      D0, D1
00001874  2E00                     move.l     D7, D0
00001876  E287                     asr        D7, 1
00001878  302C 0092                move.w     D0, [A4 + 0x92]
0000187C  48C0                     ext.l      D0
0000187E  48C7                     ext.l      D7
00001880  D087                     add.l      D0, D7
00001882  322C 0176                move.w     D1, [A4 + 0x176]
00001886  E241                     asr        D1.w, 1
00001888  9041                     sub.w      D0, D1
0000188A  5940                     subq.w     D0, 4
0000188C  3F00                     move.w     -[A7], D0
0000188E  302C 0174                move.w     D0, [A4 + 0x174]
00001892  E240                     asr        D0.w, 1
00001894  D06C 0090                add.w      D0, [A4 + 0x90]
00001898  3F00                     move.w     -[A7], D0
0000189A  A893                     syscall    MoveTo
0000189C  3F2C 0092                move.w     -[A7], [A4 + 0x92]
000018A0  302C 0174                move.w     D0, [A4 + 0x174]
000018A4  E240                     asr        D0.w, 1
000018A6  D06C 0090                add.w      D0, [A4 + 0x90]
000018AA  3F00                     move.w     -[A7], D0
000018AC  A891                     syscall    LineTo
000018AE  3F2C 0092                move.w     -[A7], [A4 + 0x92]
000018B2  3F2C 0094                move.w     -[A7], [A4 + 0x94]
000018B6  A891                     syscall    LineTo
000018B8  2F2C 0094                move.l     -[A7], [A4 + 0x94]
000018BC  A891                     syscall    LineTo
000018BE  3F2C 0096                move.w     -[A7], [A4 + 0x96]
000018C2  302C 0174                move.w     D0, [A4 + 0x174]
000018C6  E240                     asr        D0.w, 1
000018C8  D06C 0090                add.w      D0, [A4 + 0x90]
000018CC  3F00                     move.w     -[A7], D0
000018CE  A891                     syscall    LineTo
000018D0  302C 0096                move.w     D0, [A4 + 0x96]
000018D4  48C0                     ext.l      D0
000018D6  48C7                     ext.l      D7
000018D8  9087                     sub.l      D0, D7
000018DA  322C 0176                move.w     D1, [A4 + 0x176]
000018DE  E241                     asr        D1.w, 1
000018E0  D240                     add.w      D1, D0
000018E2  5841                     addq.w     D1, 4
000018E4  3F01                     move.w     -[A7], D1
000018E6  302C 0174                move.w     D0, [A4 + 0x174]
000018EA  E240                     asr        D0.w, 1
000018EC  D06C 0090                add.w      D0, [A4 + 0x90]
000018F0  3F00                     move.w     -[A7], D0
000018F2  A891                     syscall    LineTo
000018F4  2F2C 0112                move.l     -[A7], [A4 + 0x112]
000018F8  4EAD 11EA                jsr        [A5 + 0x11EA /* export_569, CODE:26 @ 00003268 */]
000018FC  4FEF 0014                lea.l      A7, [A7 + 0x14]
label00001900:
00001900  4CEE 1080 FFF0           movem.l    D7,A4, [A6 - 0x10]
00001906  4E5E                     unlink     A6
00001908  4E75                     rts
0000190A  9844 7261 775F 5F31 3... dc.b       "Draw__14cTextFrameItemFv"
export_843:
00001926  4E56 0000                link       A6, 0
0000192A  48E7 0108                movem.l    -[A7], D7,A4
0000192E  2E2E 000C                move.l     D7, [A6 + 0xC]
00001932  286E 0008                movea.l    A4, [A6 + 0x8]
00001936  200C                     move.l     D0, A4
00001938  6768                     beq        +0x6A /* 000019A2 */
0000193A  296D FC5A 0088           move.l     [A4 + 0x88], [A5 - 0x3A6]
00001940  296D FC56 0070           move.l     [A4 + 0x70], [A5 - 0x3AA]
00001946  206C 0064                movea.l    A0, [A4 + 0x64]
0000194A  216D FC52 0008           move.l     [A0 + 0x8], [A5 - 0x3AE]
00001950  296D FC4E 0060           move.l     [A4 + 0x60], [A5 - 0x3B2]
00001956  200C                     move.l     D0, A4
00001958  6748                     beq        +0x4A /* 000019A2 */
0000195A  7002                     moveq.l    D0, 0x02
0000195C  2F00                     move.l     -[A7], D0
0000195E  486C 012A                pea.l      [A4 + 0x12A]
00001962  4EAD 192A                jsr        [A5 + 0x192A /* export_801, CODE:33 @ 00001084 */]
00001966  7000                     moveq.l    D0, 0x00
00001968  2F00                     move.l     -[A7], D0
0000196A  2F0C                     move.l     -[A7], A4
0000196C  4EAD 1EB2                jsr        [A5 + 0x1EB2 /* export_978, CODE:37 @ 00000F26 */]
00001970  7002                     moveq.l    D0, 0x02
00001972  C087                     and.l      D0, D7
00001974  6718                     beq        +0x1A /* 0000198E */
00001976  7000                     moveq.l    D0, 0x00
00001978  2F00                     move.l     -[A7], D0
0000197A  220C                     move.l     D1, A4
0000197C  D2BC 0000 0182           add.l      D1, 0x182
00001982  2F01                     move.l     -[A7], D1
00001984  4EAD 1632                jsr        [A5 + 0x1632 /* export_706, CODE:32 @ 000036CC */]
00001988  7000                     moveq.l    D0, 0x00
0000198A  504F                     addq.w     A7, 8
0000198C  6002                     bra        +0x4 /* 00001990 */
label0000198E:
0000198E  7000                     moveq.l    D0, 0x00
label00001990:
00001990  0807 0000                btst.b     D7, 0x0
00001994  4FEF 0010                lea.l      A7, [A7 + 0x10]
00001998  6708                     beq        +0xA /* 000019A2 */
0000199A  2F0C                     move.l     -[A7], A4
0000199C  4EAD 0102                jsr        [A5 + 0x102 /* export_28, CODE:1 @ 00001BE0 */]
000019A0  584F                     addq.w     A7, 4
label000019A2:
000019A2  4CEE 1080 FFF8           movem.l    D7,A4, [A6 - 0x8]
000019A8  4E5E                     unlink     A6
000019AA  4E75                     rts
000019AC  985F 5F64 745F 5F31 3... dc.b       "__dt__14cTextFrameItemFv"
export_844:
000019C8  4E56 0000                link       A6, 0
000019CC  48E7 1018                movem.l    -[A7], D3,A3,A4
000019D0  266E 000C                movea.l    A3, [A6 + 0xC]
000019D4  286E 0008                movea.l    A4, [A6 + 0x8]
000019D8  200C                     move.l     D0, A4
000019DA  6612                     bne        +0x14 /* 000019EE */
000019DC  4878 022A                push.l     0x22A
000019E0  4EAD 010A                jsr        [A5 + 0x10A /* export_29, CODE:1 @ 00001C0A */]
000019E4  2840                     movea.l    A4, D0
000019E6  200C                     move.l     D0, A4
000019E8  584F                     addq.w     A7, 4
000019EA  6700 00AA                beq        +0xAC /* 00001A96 */
label000019EE:
000019EE  200B                     move.l     D0, A3
000019F0  57C3                     seq        D3
000019F2  4403                     neg.b      D3
000019F4  6748                     beq        +0x4A /* 00001A3E */
000019F6  264C                     movea.l    A3, A4
000019F8  47EB 021E                lea.l      A3, [A3 + 0x21E]
000019FC  7601                     moveq.l    D3, 0x01
000019FE  200C                     move.l     D0, A4
00001A00  D0BC 0000 021E           add.l      D0, 0x21E
00001A06  6614                     bne        +0x16 /* 00001A1C */
00001A08  2F03                     move.l     -[A7], D3
00001A0A  700C                     moveq.l    D0, 0x0C
00001A0C  2F00                     move.l     -[A7], D0
00001A0E  4EAD 010A                jsr        [A5 + 0x10A /* export_29, CODE:1 @ 00001C0A */]
00001A12  588F                     addq.l     A7, 4
00001A14  261F                     move.l     D3, [A7]+
00001A16  4A80                     tst.l      D0
00001A18  6602                     bne        +0x4 /* 00001A1C */
00001A1A  7600                     moveq.l    D3, 0x00
label00001A1C:
00001A1C  4A03                     tst.b      D3
00001A1E  6712                     beq        +0x14 /* 00001A32 */
00001A20  296D FC5E 0226           move.l     [A4 + 0x226], [A5 - 0x3A2]
00001A26  7000                     moveq.l    D0, 0x00
00001A28  2940 021E                move.l     [A4 + 0x21E], D0
00001A2C  2940 0222                move.l     [A4 + 0x222], D0
00001A30  6002                     bra        +0x4 /* 00001A34 */
label00001A32:
00001A32  7000                     moveq.l    D0, 0x00
label00001A34:
00001A34  200C                     move.l     D0, A4
00001A36  D0BC 0000 021E           add.l      D0, 0x21E
00001A3C  6002                     bra        +0x4 /* 00001A40 */
label00001A3E:
00001A3E  200B                     move.l     D0, A3
label00001A40:
00001A40  7000                     moveq.l    D0, 0x00
00001A42  102E 0023                move.b     D0, [A6 + 0x23]
00001A46  2F00                     move.l     -[A7], D0
00001A48  7000                     moveq.l    D0, 0x00
00001A4A  102E 001F                move.b     D0, [A6 + 0x1F]
00001A4E  2F00                     move.l     -[A7], D0
00001A50  2F2E 0018                move.l     -[A7], [A6 + 0x18]
00001A54  2F2E 0014                move.l     -[A7], [A6 + 0x14]
00001A58  2F2E 0010                move.l     -[A7], [A6 + 0x10]
00001A5C  2F0B                     move.l     -[A7], A3
00001A5E  2F0C                     move.l     -[A7], A4
00001A60  4EBA F8A2                jsr        [PC - 0x75E /* 00001304 */]
00001A64  296D FC62 0060           move.l     [A4 + 0x60], [A5 - 0x39E]
00001A6A  206C 0064                movea.l    A0, [A4 + 0x64]
00001A6E  216D FC66 0008           move.l     [A0 + 0x8], [A5 - 0x39A]
00001A74  296D FC6A 0070           move.l     [A4 + 0x70], [A5 - 0x396]
00001A7A  296D FC6E 0088           move.l     [A4 + 0x88], [A5 - 0x392]
00001A80  7000                     moveq.l    D0, 0x00
00001A82  2F00                     move.l     -[A7], D0
00001A84  2F00                     move.l     -[A7], D0
00001A86  486C 01FC                pea.l      [A4 + 0x1FC]
00001A8A  4EAD 1772                jsr        [A5 + 0x1772 /* export_746, CODE:32 @ 00004CE0 */]
00001A8E  422C 0219                clr.b      [A4 + 0x219]
00001A92  4FEF 0028                lea.l      A7, [A7 + 0x28]
label00001A96:
00001A96  200C                     move.l     D0, A4
00001A98  4CEE 1808 FFF4           movem.l    D3,A3,A4, [A6 - 0xC]
00001A9E  4E5E                     unlink     A6
00001AA0  4E75                     rts
00001AA2  8031 5F5F 6374 5F5F 3... dc.b       "__ct__13cTextListItemFP6cAgentP7cWindowR4RectUcT4"
export_845:
00001AD8  4E56 0000                link       A6, 0
00001ADC  48E7 0108                movem.l    -[A7], D7,A4
00001AE0  2E2E 000C                move.l     D7, [A6 + 0xC]
00001AE4  286E 0008                movea.l    A4, [A6 + 0x8]
00001AE8  200C                     move.l     D0, A4
00001AEA  6768                     beq        +0x6A /* 00001B54 */
00001AEC  296D FC6E 0088           move.l     [A4 + 0x88], [A5 - 0x392]
00001AF2  296D FC6A 0070           move.l     [A4 + 0x70], [A5 - 0x396]
00001AF8  206C 0064                movea.l    A0, [A4 + 0x64]
00001AFC  216D FC66 0008           move.l     [A0 + 0x8], [A5 - 0x39A]
00001B02  296D FC62 0060           move.l     [A4 + 0x60], [A5 - 0x39E]
00001B08  200C                     move.l     D0, A4
00001B0A  6748                     beq        +0x4A /* 00001B54 */
00001B0C  7002                     moveq.l    D0, 0x02
00001B0E  2F00                     move.l     -[A7], D0
00001B10  486C 01FC                pea.l      [A4 + 0x1FC]
00001B14  4EAD 177A                jsr        [A5 + 0x177A /* export_747, CODE:32 @ 00004DBC */]
00001B18  7000                     moveq.l    D0, 0x00
00001B1A  2F00                     move.l     -[A7], D0
00001B1C  2F0C                     move.l     -[A7], A4
00001B1E  4EBA F8F0                jsr        [PC - 0x710 /* 00001410 */]
00001B22  7002                     moveq.l    D0, 0x02
00001B24  C087                     and.l      D0, D7
00001B26  6718                     beq        +0x1A /* 00001B40 */
00001B28  7000                     moveq.l    D0, 0x00
00001B2A  2F00                     move.l     -[A7], D0
00001B2C  220C                     move.l     D1, A4
00001B2E  D2BC 0000 021E           add.l      D1, 0x21E
00001B34  2F01                     move.l     -[A7], D1
00001B36  4EAD 1632                jsr        [A5 + 0x1632 /* export_706, CODE:32 @ 000036CC */]
00001B3A  7000                     moveq.l    D0, 0x00
00001B3C  504F                     addq.w     A7, 8
00001B3E  6002                     bra        +0x4 /* 00001B42 */
label00001B40:
00001B40  7000                     moveq.l    D0, 0x00
label00001B42:
00001B42  0807 0000                btst.b     D7, 0x0
00001B46  4FEF 0010                lea.l      A7, [A7 + 0x10]
00001B4A  6708                     beq        +0xA /* 00001B54 */
00001B4C  2F0C                     move.l     -[A7], A4
00001B4E  4EAD 0102                jsr        [A5 + 0x102 /* export_28, CODE:1 @ 00001BE0 */]
00001B52  584F                     addq.w     A7, 4
label00001B54:
00001B54  4CEE 1080 FFF8           movem.l    D7,A4, [A6 - 0x8]
00001B5A  4E5E                     unlink     A6
00001B5C  4E75                     rts
00001B5E  975F 5F64 745F 5F31 3... dc.b       "__dt__13cTextListItemFv"
export_846:
00001B78  4E56 FFF8                link       A6, -0x0008
00001B7C  48E7 0018                movem.l    -[A7], A3,A4
00001B80  286E 0008                movea.l    A4, [A6 + 0x8]
00001B84  426E FFFE                clr.w      [A6 - 0x2]
00001B88  3D7C 03E8 FFFC           move.w     [A6 - 0x4], 0x3E8
00001B8E  42AE FFF8                clr.l      [A6 - 0x8]
00001B92  206C 01DC                movea.l    A0, [A4 + 0x1DC]
00001B96  2050                     movea.l    A0, [A0]
00001B98  226C 01DC                movea.l    A1, [A4 + 0x1DC]
00001B9C  2251                     movea.l    A1, [A1]
00001B9E  3028 0008                move.w     D0, [A0 + 0x8]
00001BA2  9069 0004                sub.w      D0, [A1 + 0x4]
00001BA6  3D40 FFFE                move.w     [A6 - 0x2], D0
00001BAA  302C 01D2                move.w     D0, [A4 + 0x1D2]
00001BAE  B06E FFFE                cmp.w      D0, [A6 - 0x2]
00001BB2  6F06                     ble        +0x8 /* 00001BBA */
00001BB4  3D6C 01D2 FFFE           move.w     [A6 - 0x2], [A4 + 0x1D2]
label00001BBA:
00001BBA  302E 0022                move.w     D0, [A6 + 0x22]
00001BBE  48C0                     ext.l      D0
00001BC0  2F00                     move.l     -[A7], D0
00001BC2  302E 001E                move.w     D0, [A6 + 0x1E]
00001BC6  48C0                     ext.l      D0
00001BC8  2F00                     move.l     -[A7], D0
00001BCA  302E 001A                move.w     D0, [A6 + 0x1A]
00001BCE  48C0                     ext.l      D0
00001BD0  2F00                     move.l     -[A7], D0
00001BD2  302E 0016                move.w     D0, [A6 + 0x16]
00001BD6  48C0                     ext.l      D0
00001BD8  2F00                     move.l     -[A7], D0
00001BDA  7000                     moveq.l    D0, 0x00
00001BDC  102E 0013                move.b     D0, [A6 + 0x13]
00001BE0  2F00                     move.l     -[A7], D0
00001BE2  486E FFF8                pea.l      [A6 - 0x8]
00001BE6  2F2E 000C                move.l     -[A7], [A6 + 0xC]
00001BEA  2F0C                     move.l     -[A7], A4
00001BEC  7000                     moveq.l    D0, 0x00
00001BEE  2F00                     move.l     -[A7], D0
00001BF0  2F00                     move.l     -[A7], D0
00001BF2  4EAD 195A                jsr        [A5 + 0x195A /* export_807, CODE:33 @ 00001B8E */]
00001BF6  2640                     movea.l    A3, D0
00001BF8  7001                     moveq.l    D0, 0x01
00001BFA  2F00                     move.l     -[A7], D0
00001BFC  2F0B                     move.l     -[A7], A3
00001BFE  4EAD 196A                jsr        [A5 + 0x196A /* export_809, CODE:33 @ 00001E66 */]
00001C02  7000                     moveq.l    D0, 0x00
00001C04  2F00                     move.l     -[A7], D0
00001C06  322E 0026                move.w     D1, [A6 + 0x26]
00001C0A  48C1                     ext.l      D1
00001C0C  2F01                     move.l     -[A7], D1
00001C0E  43EB 00D0                lea.l      A1, [A3 + 0xD0]
00001C12  2049                     movea.l    A0, A1
00001C14  226B 00D8                movea.l    A1, [A3 + 0xD8]
00001C18  D0E9 0040                add.w      A0, [A1 + 0x40]
00001C1C  2F08                     move.l     -[A7], A0
00001C1E  2049                     movea.l    A0, A1
00001C20  2268 0044                movea.l    A1, [A0 + 0x44]
00001C24  4E91                     jsr        [A1]
00001C26  7000                     moveq.l    D0, 0x00
00001C28  2F00                     move.l     -[A7], D0
00001C2A  220B                     move.l     D1, A3
00001C2C  670A                     beq        +0xC /* 00001C38 */
00001C2E  220B                     move.l     D1, A3
00001C30  D2BC 0000 00D0           add.l      D1, 0xD0
00001C36  6002                     bra        +0x4 /* 00001C3A */
label00001C38:
00001C38  7200                     moveq.l    D1, 0x00
label00001C3A:
00001C3A  2F01                     move.l     -[A7], D1
00001C3C  204C                     movea.l    A0, A4
00001C3E  226C 0060                movea.l    A1, [A4 + 0x60]
00001C42  D0E9 0138                add.w      A0, [A1 + 0x138]
00001C46  2F08                     move.l     -[A7], A0
00001C48  2049                     movea.l    A0, A1
00001C4A  2268 013C                movea.l    A1, [A0 + 0x13C]
00001C4E  4E91                     jsr        [A1]
00001C50  200B                     move.l     D0, A3
00001C52  670A                     beq        +0xC /* 00001C5E */
00001C54  200B                     move.l     D0, A3
00001C56  D0BC 0000 00D0           add.l      D0, 0xD0
00001C5C  6002                     bra        +0x4 /* 00001C60 */
label00001C5E:
00001C5E  7000                     moveq.l    D0, 0x00
label00001C60:
00001C60  4FEF 0048                lea.l      A7, [A7 + 0x48]
00001C64  4CEE 1800 FFF0           movem.l    A3,A4, [A6 - 0x10]
00001C6A  4E5E                     unlink     A6
00001C6C  4E75                     rts
00001C6E  8025 4170 7065 6E64 5... dc.b       "AppendText__13cTextListItemFPUcUcsN43"
export_847:
00001C98  4E56 0000                link       A6, 0
00001C9C  206E 0008                movea.l    A0, [A6 + 0x8]
00001CA0  4A28 01F5                tst.b      [A0 + 0x1F5]
00001CA4  6604                     bne        +0x6 /* 00001CAA */
00001CA6  7000                     moveq.l    D0, 0x00
00001CA8  6002                     bra        +0x4 /* 00001CAC */
label00001CAA:
00001CAA  7001                     moveq.l    D0, 0x01
label00001CAC:
00001CAC  4E5E                     unlink     A6
00001CAE  4E75                     rts
00001CB0  9E48 616E 646C 6573 4... dc.b       "HandlesKeys__13cTextListItemFv"
export_848:
00001CD2  4E56 0000                link       A6, 0
00001CD6  2F07                     move.l     -[A7], D7
00001CD8  2E2E 000C                move.l     D7, [A6 + 0xC]
00001CDC  2007                     move.l     D0, D7
00001CDE  2F2E 0014                move.l     -[A7], [A6 + 0x14]
00001CE2  2F2E 0010                move.l     -[A7], [A6 + 0x10]
00001CE6  2F07                     move.l     -[A7], D7
00001CE8  2F2E 0008                move.l     -[A7], [A6 + 0x8]
00001CEC  4EAD 21C2                jsr        [A5 + 0x21C2 /* export_1076, CODE:40 @ 00001B40 */]
00001CF0  4FEF 0010                lea.l      A7, [A7 + 0x10]
00001CF4  2E2E FFFC                move.l     D7, [A6 - 0x4]
00001CF8  4E5E                     unlink     A6
00001CFA  4E75                     rts
00001CFC  802B 4861 7342 6565 6... dc.b       "HasBeenAChange__13cTextListItemFlP6cAgentPc"
export_849:
00001D2C  4E56 FF78                link       A6, -0x0088
00001D30  48E7 0318                movem.l    -[A7], D6,D7,A3,A4
00001D34  286E 0008                movea.l    A4, [A6 + 0x8]
00001D38  7000                     moveq.l    D0, 0x00
00001D3A  102C 0098                move.b     D0, [A4 + 0x98]
00001D3E  7208                     moveq.l    D1, 0x08
00001D40  C200                     and.b      D1, D0
00001D42  7000                     moveq.l    D0, 0x00
00001D44  1001                     move.b     D0, D1
00001D46  4A80                     tst.l      D0
00001D48  6606                     bne        +0x8 /* 00001D50 */
00001D4A  7000                     moveq.l    D0, 0x00
00001D4C  6000 09C6                bra        +0x9C8 /* 00002714 */
label00001D50:
00001D50  206E 000C                movea.l    A0, [A6 + 0xC]
00001D54  2C3C 0000 00FF           move.l     D6, 0xFF
00001D5A  CCA8 0002                and.l      D6, [A0 + 0x2]
00001D5E  203C 0000 FF00           move.l     D0, 0xFF00
00001D64  C0A8 0002                and.l      D0, [A0 + 0x2]
00001D68  2E00                     move.l     D7, D0
00001D6A  E08F                     lsr        D7, 8
00001D6C  266C 01CC                movea.l    A3, [A4 + 0x1CC]
00001D70  2F08                     move.l     -[A7], A0
00001D72  2F0C                     move.l     -[A7], A4
00001D74  4EAD 2162                jsr        [A5 + 0x2162 /* export_1064, CODE:40 @ 00000B9C */]
00001D78  4A00                     tst.b      D0
00001D7A  504F                     addq.w     A7, 8
00001D7C  6706                     beq        +0x8 /* 00001D84 */
00001D7E  7001                     moveq.l    D0, 0x01
00001D80  6000 0992                bra        +0x994 /* 00002714 */
label00001D84:
00001D84  0C47 007E                cmpi.w     D7, 0x7E /* '~' */
00001D88  6714                     beq        +0x16 /* 00001D9E */
00001D8A  0C47 003E                cmpi.w     D7, 0x3E /* '>' */
00001D8E  670E                     beq        +0x10 /* 00001D9E */
00001D90  0C47 007B                cmpi.w     D7, 0x7B /* '{' */
00001D94  6708                     beq        +0xA /* 00001D9E */
00001D96  0C47 003B                cmpi.w     D7, 0x3B /* ';' */
00001D9A  6600 028E                bne        +0x290 /* 0000202A */
label00001D9E:
00001D9E  200B                     move.l     D0, A3
00001DA0  6606                     bne        +0x8 /* 00001DA8 */
00001DA2  7000                     moveq.l    D0, 0x00
00001DA4  6000 096E                bra        +0x970 /* 00002714 */
label00001DA8:
00001DA8  2F0B                     move.l     -[A7], A3
00001DAA  4EAD 1C82                jsr        [A5 + 0x1C82 /* export_908, CODE:36 @ 0000071E */]
00001DAE  2640                     movea.l    A3, D0
00001DB0  2D4B FFFC                move.l     [A6 - 0x4], A3
00001DB4  200B                     move.l     D0, A3
00001DB6  584F                     addq.w     A7, 4
00001DB8  670A                     beq        +0xC /* 00001DC4 */
00001DBA  2F0B                     move.l     -[A7], A3
00001DBC  4EAD 1C8A                jsr        [A5 + 0x1C8A /* export_909, CODE:36 @ 00000778 */]
00001DC0  2640                     movea.l    A3, D0
00001DC2  584F                     addq.w     A7, 4
label00001DC4:
00001DC4  206C 01DC                movea.l    A0, [A4 + 0x1DC]
00001DC8  2050                     movea.l    A0, [A0]
00001DCA  43EE FFEC                lea.l      A1, [A6 - 0x14]
00001DCE  5488                     addq.l     A0, 2
00001DD0  22D8                     move.l     [A1]+, [A0]+
00001DD2  22D8                     move.l     [A1]+, [A0]+
00001DD4  6000 0096                bra        +0x98 /* 00001E6C */
label00001DD8:
00001DD8  206E 000C                movea.l    A0, [A6 + 0xC]
00001DDC  303C 0300                move.w     D0, 0x300
00001DE0  C068 000E                and.w      D0, [A0 + 0xE]
00001DE4  667C                     bne        +0x7E /* 00001E62 */
00001DE6  204B                     movea.l    A0, A3
00001DE8  226B 0008                movea.l    A1, [A3 + 0x8]
00001DEC  D0E9 00B0                add.w      A0, [A1 + 0xB0]
00001DF0  2F08                     move.l     -[A7], A0
00001DF2  2049                     movea.l    A0, A1
00001DF4  2268 00B4                movea.l    A1, [A0 + 0xB4]
00001DF8  4E91                     jsr        [A1]
00001DFA  206C 01DC                movea.l    A0, [A4 + 0x1DC]
00001DFE  2050                     movea.l    A0, [A0]
00001E00  5488                     addq.l     A0, 2
00001E02  43EE FF94                lea.l      A1, [A6 - 0x6C]
00001E06  22D8                     move.l     [A1]+, [A0]+
00001E08  22D8                     move.l     [A1]+, [A0]+
00001E0A  41EB 0010                lea.l      A0, [A3 + 0x10]
00001E0E  43EE FF8C                lea.l      A1, [A6 - 0x74]
00001E12  22D8                     move.l     [A1]+, [A0]+
00001E14  22D8                     move.l     [A1]+, [A0]+
00001E16  486E FF8C                pea.l      [A6 - 0x74]
00001E1A  302E FF96                move.w     D0, [A6 - 0x6A]
00001E1E  906C 01D6                sub.w      D0, [A4 + 0x1D6]
00001E22  3F00                     move.w     -[A7], D0
00001E24  302E FF94                move.w     D0, [A6 - 0x6C]
00001E28  906C 01D4                sub.w      D0, [A4 + 0x1D4]
00001E2C  3F00                     move.w     -[A7], D0
00001E2E  A8A8                     syscall    OffsetRect
00001E30  558F                     subq.l     A7, 2
00001E32  486E FF8C                pea.l      [A6 - 0x74]
00001E36  486E FF94                pea.l      [A6 - 0x6C]
00001E3A  486E FF8C                pea.l      [A6 - 0x74]
00001E3E  A8AA                     syscall    SectRect
00001E40  4A1F                     tst.b      [A7]+
00001E42  671A                     beq        +0x1C /* 00001E5E */
00001E44  2F2C 0120                move.l     -[A7], [A4 + 0x120]
00001E48  486E FF8C                pea.l      [A6 - 0x74]
00001E4C  A8DF                     syscall    RectRgn
00001E4E  2F2C 0120                move.l     -[A7], [A4 + 0x120]
00001E52  2F0C                     move.l     -[A7], A4
00001E54  4EAD 1F02                jsr        [A5 + 0x1F02 /* export_988, CODE:37 @ 00001218 */]
00001E58  7000                     moveq.l    D0, 0x00
00001E5A  504F                     addq.w     A7, 8
00001E5C  6002                     bra        +0x4 /* 00001E60 */
label00001E5E:
00001E5E  7000                     moveq.l    D0, 0x00
label00001E60:
00001E60  584F                     addq.w     A7, 4
label00001E62:
00001E62  2F0B                     move.l     -[A7], A3
00001E64  4EAD 1C8A                jsr        [A5 + 0x1C8A /* export_909, CODE:36 @ 00000778 */]
00001E68  2640                     movea.l    A3, D0
00001E6A  584F                     addq.w     A7, 4
label00001E6C:
00001E6C  200B                     move.l     D0, A3
00001E6E  6600 FF68                bne        -0x96 /* 00001DD8 */
00001E72  4AAE FFFC                tst.l      [A6 - 0x4]
00001E76  6700 089A                beq        +0x89C /* 00002712 */
00001E7A  206E FFFC                movea.l    A0, [A6 - 0x4]
00001E7E  4A90                     tst.l      [A0]
00001E80  6700 0890                beq        +0x892 /* 00002712 */
00001E84  206E 000C                movea.l    A0, [A6 + 0xC]
00001E88  303C 0300                move.w     D0, 0x300
00001E8C  C068 000E                and.w      D0, [A0 + 0xE]
00001E90  6600 008C                bne        +0x8E /* 00001F1E */
00001E94  206E FFFC                movea.l    A0, [A6 - 0x4]
00001E98  2248                     movea.l    A1, A0
00001E9A  2269 0008                movea.l    A1, [A1 + 0x8]
00001E9E  D0E9 00B0                add.w      A0, [A1 + 0xB0]
00001EA2  2F08                     move.l     -[A7], A0
00001EA4  206E FFFC                movea.l    A0, [A6 - 0x4]
00001EA8  2068 0008                movea.l    A0, [A0 + 0x8]
00001EAC  2268 00B4                movea.l    A1, [A0 + 0xB4]
00001EB0  4E91                     jsr        [A1]
00001EB2  206C 01DC                movea.l    A0, [A4 + 0x1DC]
00001EB6  2050                     movea.l    A0, [A0]
00001EB8  5488                     addq.l     A0, 2
00001EBA  43EE FF94                lea.l      A1, [A6 - 0x6C]
00001EBE  22D8                     move.l     [A1]+, [A0]+
00001EC0  22D8                     move.l     [A1]+, [A0]+
00001EC2  206E FFFC                movea.l    A0, [A6 - 0x4]
00001EC6  41E8 0010                lea.l      A0, [A0 + 0x10]
00001ECA  43EE FF8C                lea.l      A1, [A6 - 0x74]
00001ECE  22D8                     move.l     [A1]+, [A0]+
00001ED0  22D8                     move.l     [A1]+, [A0]+
00001ED2  486E FF8C                pea.l      [A6 - 0x74]
00001ED6  302E FF96                move.w     D0, [A6 - 0x6A]
00001EDA  906C 01D6                sub.w      D0, [A4 + 0x1D6]
00001EDE  3F00                     move.w     -[A7], D0
00001EE0  302E FF94                move.w     D0, [A6 - 0x6C]
00001EE4  906C 01D4                sub.w      D0, [A4 + 0x1D4]
00001EE8  3F00                     move.w     -[A7], D0
00001EEA  A8A8                     syscall    OffsetRect
00001EEC  558F                     subq.l     A7, 2
00001EEE  486E FF8C                pea.l      [A6 - 0x74]
00001EF2  486E FF94                pea.l      [A6 - 0x6C]
00001EF6  486E FF8C                pea.l      [A6 - 0x74]
00001EFA  A8AA                     syscall    SectRect
00001EFC  4A1F                     tst.b      [A7]+
00001EFE  671A                     beq        +0x1C /* 00001F1A */
00001F00  2F2C 0120                move.l     -[A7], [A4 + 0x120]
00001F04  486E FF8C                pea.l      [A6 - 0x74]
00001F08  A8DF                     syscall    RectRgn
00001F0A  2F2C 0120                move.l     -[A7], [A4 + 0x120]
00001F0E  2F0C                     move.l     -[A7], A4
00001F10  4EAD 1F02                jsr        [A5 + 0x1F02 /* export_988, CODE:37 @ 00001218 */]
00001F14  7000                     moveq.l    D0, 0x00
00001F16  504F                     addq.w     A7, 8
00001F18  6002                     bra        +0x4 /* 00001F1C */
label00001F1A:
00001F1A  7000                     moveq.l    D0, 0x00
label00001F1C:
00001F1C  584F                     addq.w     A7, 4
label00001F1E:
00001F1E  206E FFFC                movea.l    A0, [A6 - 0x4]
00001F22  2050                     movea.l    A0, [A0]
00001F24  2D48 FFFC                move.l     [A6 - 0x4], A0
00001F28  2248                     movea.l    A1, A0
00001F2A  2269 0008                movea.l    A1, [A1 + 0x8]
00001F2E  D0E9 00A8                add.w      A0, [A1 + 0xA8]
00001F32  2F08                     move.l     -[A7], A0
00001F34  206E FFFC                movea.l    A0, [A6 - 0x4]
00001F38  2068 0008                movea.l    A0, [A0 + 0x8]
00001F3C  2268 00AC                movea.l    A1, [A0 + 0xAC]
00001F40  4E91                     jsr        [A1]
00001F42  206C 01DC                movea.l    A0, [A4 + 0x1DC]
00001F46  2050                     movea.l    A0, [A0]
00001F48  5488                     addq.l     A0, 2
00001F4A  43EE FFE4                lea.l      A1, [A6 - 0x1C]
00001F4E  22D8                     move.l     [A1]+, [A0]+
00001F50  22D8                     move.l     [A1]+, [A0]+
00001F52  206E FFFC                movea.l    A0, [A6 - 0x4]
00001F56  41E8 0010                lea.l      A0, [A0 + 0x10]
00001F5A  43EE FFDC                lea.l      A1, [A6 - 0x24]
00001F5E  22D8                     move.l     [A1]+, [A0]+
00001F60  22D8                     move.l     [A1]+, [A0]+
00001F62  486E FFDC                pea.l      [A6 - 0x24]
00001F66  302E FFE6                move.w     D0, [A6 - 0x1A]
00001F6A  906C 01D6                sub.w      D0, [A4 + 0x1D6]
00001F6E  3F00                     move.w     -[A7], D0
00001F70  302E FFE4                move.w     D0, [A6 - 0x1C]
00001F74  906C 01D4                sub.w      D0, [A4 + 0x1D4]
00001F78  3F00                     move.w     -[A7], D0
00001F7A  A8A8                     syscall    OffsetRect
00001F7C  558F                     subq.l     A7, 2
00001F7E  486E FFDC                pea.l      [A6 - 0x24]
00001F82  486E FFE4                pea.l      [A6 - 0x1C]
00001F86  486E FFDC                pea.l      [A6 - 0x24]
00001F8A  A8AA                     syscall    SectRect
00001F8C  4A1F                     tst.b      [A7]+
00001F8E  671A                     beq        +0x1C /* 00001FAA */
00001F90  2F2C 0120                move.l     -[A7], [A4 + 0x120]
00001F94  486E FFDC                pea.l      [A6 - 0x24]
00001F98  A8DF                     syscall    RectRgn
00001F9A  2F2C 0120                move.l     -[A7], [A4 + 0x120]
00001F9E  2F0C                     move.l     -[A7], A4
00001FA0  4EAD 1F02                jsr        [A5 + 0x1F02 /* export_988, CODE:37 @ 00001218 */]
00001FA4  7000                     moveq.l    D0, 0x00
00001FA6  504F                     addq.w     A7, 8
00001FA8  6002                     bra        +0x4 /* 00001FAC */
label00001FAA:
00001FAA  7000                     moveq.l    D0, 0x00
label00001FAC:
00001FAC  2F2E FFFC                move.l     -[A7], [A6 - 0x4]
00001FB0  2F3C 4742 5443           move.l     -[A7], 0x47425443 /* 'GBTC' */
00001FB6  204C                     movea.l    A0, A4
00001FB8  226C 0060                movea.l    A1, [A4 + 0x60]
00001FBC  D0E9 0060                add.w      A0, [A1 + 0x60]
00001FC0  2F08                     move.l     -[A7], A0
00001FC2  2049                     movea.l    A0, A1
00001FC4  2268 0064                movea.l    A1, [A0 + 0x64]
00001FC8  4E91                     jsr        [A1]
00001FCA  206E FFFC                movea.l    A0, [A6 - 0x4]
00001FCE  43EE FFF4                lea.l      A1, [A6 - 0xC]
00001FD2  41E8 0010                lea.l      A0, [A0 + 0x10]
00001FD6  22D8                     move.l     [A1]+, [A0]+
00001FD8  22D8                     move.l     [A1]+, [A0]+
00001FDA  302E FFF4                move.w     D0, [A6 - 0xC]
00001FDE  B06C 01D4                cmp.w      D0, [A4 + 0x1D4]
00001FE2  4FEF 0010                lea.l      A7, [A7 + 0x10]
00001FE6  6D1A                     blt        +0x1C /* 00002002 */
00001FE8  302C 01D4                move.w     D0, [A4 + 0x1D4]
00001FEC  48C0                     ext.l      D0
00001FEE  322C 01D8                move.w     D1, [A4 + 0x1D8]
00001FF2  48C1                     ext.l      D1
00001FF4  D280                     add.l      D1, D0
00001FF6  302E FFF8                move.w     D0, [A6 - 0x8]
00001FFA  48C0                     ext.l      D0
00001FFC  B280                     cmp.l      D1, D0
00001FFE  6C00 0712                bge        +0x714 /* 00002712 */
label00002002:
00002002  426E FF9A                clr.w      [A6 - 0x66]
00002006  3D6E FFF4 FF98           move.w     [A6 - 0x68], [A6 - 0xC]
0000200C  2F2E FF98                move.l     -[A7], [A6 - 0x68]
00002010  204C                     movea.l    A0, A4
00002012  226C 0060                movea.l    A1, [A4 + 0x60]
00002016  D0E9 0150                add.w      A0, [A1 + 0x150]
0000201A  2F08                     move.l     -[A7], A0
0000201C  2049                     movea.l    A0, A1
0000201E  2268 0154                movea.l    A1, [A0 + 0x154]
00002022  4E91                     jsr        [A1]
00002024  504F                     addq.w     A7, 8
00002026  6000 06EA                bra        +0x6EC /* 00002712 */
label0000202A:
0000202A  0C47 007D                cmpi.w     D7, 0x7D /* '}' */
0000202E  6714                     beq        +0x16 /* 00002044 */
00002030  0C47 003D                cmpi.w     D7, 0x3D /* '=' */
00002034  670E                     beq        +0x10 /* 00002044 */
00002036  0C47 007C                cmpi.w     D7, 0x7C /* '|' */
0000203A  6708                     beq        +0xA /* 00002044 */
0000203C  0C47 003C                cmpi.w     D7, 0x3C /* '<' */
00002040  6600 02CC                bne        +0x2CE /* 0000230E */
label00002044:
00002044  200B                     move.l     D0, A3
00002046  6606                     bne        +0x8 /* 0000204E */
00002048  7000                     moveq.l    D0, 0x00
0000204A  6000 06C8                bra        +0x6CA /* 00002714 */
label0000204E:
0000204E  2F0B                     move.l     -[A7], A3
00002050  4EAD 1C82                jsr        [A5 + 0x1C82 /* export_908, CODE:36 @ 0000071E */]
00002054  2640                     movea.l    A3, D0
00002056  2D4B FFFC                move.l     [A6 - 0x4], A3
0000205A  200B                     move.l     D0, A3
0000205C  584F                     addq.w     A7, 4
0000205E  670A                     beq        +0xC /* 0000206A */
00002060  2F0B                     move.l     -[A7], A3
00002062  4EAD 1C8A                jsr        [A5 + 0x1C8A /* export_909, CODE:36 @ 00000778 */]
00002066  2640                     movea.l    A3, D0
00002068  584F                     addq.w     A7, 4
label0000206A:
0000206A  206C 01DC                movea.l    A0, [A4 + 0x1DC]
0000206E  2050                     movea.l    A0, [A0]
00002070  43EE FFEC                lea.l      A1, [A6 - 0x14]
00002074  5488                     addq.l     A0, 2
00002076  22D8                     move.l     [A1]+, [A0]+
00002078  22D8                     move.l     [A1]+, [A0]+
0000207A  6000 0096                bra        +0x98 /* 00002112 */
label0000207E:
0000207E  206E 000C                movea.l    A0, [A6 + 0xC]
00002082  303C 0300                move.w     D0, 0x300
00002086  C068 000E                and.w      D0, [A0 + 0xE]
0000208A  667C                     bne        +0x7E /* 00002108 */
0000208C  204B                     movea.l    A0, A3
0000208E  226B 0008                movea.l    A1, [A3 + 0x8]
00002092  D0E9 00B0                add.w      A0, [A1 + 0xB0]
00002096  2F08                     move.l     -[A7], A0
00002098  2049                     movea.l    A0, A1
0000209A  2268 00B4                movea.l    A1, [A0 + 0xB4]
0000209E  4E91                     jsr        [A1]
000020A0  206C 01DC                movea.l    A0, [A4 + 0x1DC]
000020A4  2050                     movea.l    A0, [A0]
000020A6  5488                     addq.l     A0, 2
000020A8  43EE FF94                lea.l      A1, [A6 - 0x6C]
000020AC  22D8                     move.l     [A1]+, [A0]+
000020AE  22D8                     move.l     [A1]+, [A0]+
000020B0  41EB 0010                lea.l      A0, [A3 + 0x10]
000020B4  43EE FF8C                lea.l      A1, [A6 - 0x74]
000020B8  22D8                     move.l     [A1]+, [A0]+
000020BA  22D8                     move.l     [A1]+, [A0]+
000020BC  486E FF8C                pea.l      [A6 - 0x74]
000020C0  302E FF96                move.w     D0, [A6 - 0x6A]
000020C4  906C 01D6                sub.w      D0, [A4 + 0x1D6]
000020C8  3F00                     move.w     -[A7], D0
000020CA  302E FF94                move.w     D0, [A6 - 0x6C]
000020CE  906C 01D4                sub.w      D0, [A4 + 0x1D4]
000020D2  3F00                     move.w     -[A7], D0
000020D4  A8A8                     syscall    OffsetRect
000020D6  558F                     subq.l     A7, 2
000020D8  486E FF8C                pea.l      [A6 - 0x74]
000020DC  486E FF94                pea.l      [A6 - 0x6C]
000020E0  486E FF8C                pea.l      [A6 - 0x74]
000020E4  A8AA                     syscall    SectRect
000020E6  4A1F                     tst.b      [A7]+
000020E8  671A                     beq        +0x1C /* 00002104 */
000020EA  2F2C 0120                move.l     -[A7], [A4 + 0x120]
000020EE  486E FF8C                pea.l      [A6 - 0x74]
000020F2  A8DF                     syscall    RectRgn
000020F4  2F2C 0120                move.l     -[A7], [A4 + 0x120]
000020F8  2F0C                     move.l     -[A7], A4
000020FA  4EAD 1F02                jsr        [A5 + 0x1F02 /* export_988, CODE:37 @ 00001218 */]
000020FE  7000                     moveq.l    D0, 0x00
00002100  504F                     addq.w     A7, 8
00002102  6002                     bra        +0x4 /* 00002106 */
label00002104:
00002104  7000                     moveq.l    D0, 0x00
label00002106:
00002106  584F                     addq.w     A7, 4
label00002108:
00002108  2F0B                     move.l     -[A7], A3
0000210A  4EAD 1C8A                jsr        [A5 + 0x1C8A /* export_909, CODE:36 @ 00000778 */]
0000210E  2640                     movea.l    A3, D0
00002110  584F                     addq.w     A7, 4
label00002112:
00002112  200B                     move.l     D0, A3
00002114  6600 FF68                bne        -0x96 /* 0000207E */
00002118  4AAE FFFC                tst.l      [A6 - 0x4]
0000211C  6700 05F4                beq        +0x5F6 /* 00002712 */
00002120  206E FFFC                movea.l    A0, [A6 - 0x4]
00002124  4AA8 0004                tst.l      [A0 + 0x4]
00002128  6700 05E8                beq        +0x5EA /* 00002712 */
0000212C  206E 000C                movea.l    A0, [A6 + 0xC]
00002130  303C 0300                move.w     D0, 0x300
00002134  C068 000E                and.w      D0, [A0 + 0xE]
00002138  6600 008C                bne        +0x8E /* 000021C6 */
0000213C  206E FFFC                movea.l    A0, [A6 - 0x4]
00002140  2248                     movea.l    A1, A0
00002142  2269 0008                movea.l    A1, [A1 + 0x8]
00002146  D0E9 00B0                add.w      A0, [A1 + 0xB0]
0000214A  2F08                     move.l     -[A7], A0
0000214C  206E FFFC                movea.l    A0, [A6 - 0x4]
00002150  2068 0008                movea.l    A0, [A0 + 0x8]
00002154  2268 00B4                movea.l    A1, [A0 + 0xB4]
00002158  4E91                     jsr        [A1]
0000215A  206C 01DC                movea.l    A0, [A4 + 0x1DC]
0000215E  2050                     movea.l    A0, [A0]
00002160  5488                     addq.l     A0, 2
00002162  43EE FF94                lea.l      A1, [A6 - 0x6C]
00002166  22D8                     move.l     [A1]+, [A0]+
00002168  22D8                     move.l     [A1]+, [A0]+
0000216A  206E FFFC                movea.l    A0, [A6 - 0x4]
0000216E  41E8 0010                lea.l      A0, [A0 + 0x10]
00002172  43EE FF8C                lea.l      A1, [A6 - 0x74]
00002176  22D8                     move.l     [A1]+, [A0]+
00002178  22D8                     move.l     [A1]+, [A0]+
0000217A  486E FF8C                pea.l      [A6 - 0x74]
0000217E  302E FF96                move.w     D0, [A6 - 0x6A]
00002182  906C 01D6                sub.w      D0, [A4 + 0x1D6]
00002186  3F00                     move.w     -[A7], D0
00002188  302E FF94                move.w     D0, [A6 - 0x6C]
0000218C  906C 01D4                sub.w      D0, [A4 + 0x1D4]
00002190  3F00                     move.w     -[A7], D0
00002192  A8A8                     syscall    OffsetRect
00002194  558F                     subq.l     A7, 2
00002196  486E FF8C                pea.l      [A6 - 0x74]
0000219A  486E FF94                pea.l      [A6 - 0x6C]
0000219E  486E FF8C                pea.l      [A6 - 0x74]
000021A2  A8AA                     syscall    SectRect
000021A4  4A1F                     tst.b      [A7]+
000021A6  671A                     beq        +0x1C /* 000021C2 */
000021A8  2F2C 0120                move.l     -[A7], [A4 + 0x120]
000021AC  486E FF8C                pea.l      [A6 - 0x74]
000021B0  A8DF                     syscall    RectRgn
000021B2  2F2C 0120                move.l     -[A7], [A4 + 0x120]
000021B6  2F0C                     move.l     -[A7], A4
000021B8  4EAD 1F02                jsr        [A5 + 0x1F02 /* export_988, CODE:37 @ 00001218 */]
000021BC  7000                     moveq.l    D0, 0x00
000021BE  504F                     addq.w     A7, 8
000021C0  6002                     bra        +0x4 /* 000021C4 */
label000021C2:
000021C2  7000                     moveq.l    D0, 0x00
label000021C4:
000021C4  584F                     addq.w     A7, 4
label000021C6:
000021C6  206E FFFC                movea.l    A0, [A6 - 0x4]
000021CA  2068 0004                movea.l    A0, [A0 + 0x4]
000021CE  2D48 FFFC                move.l     [A6 - 0x4], A0
000021D2  2248                     movea.l    A1, A0
000021D4  2269 0008                movea.l    A1, [A1 + 0x8]
000021D8  D0E9 00A8                add.w      A0, [A1 + 0xA8]
000021DC  2F08                     move.l     -[A7], A0
000021DE  206E FFFC                movea.l    A0, [A6 - 0x4]
000021E2  2068 0008                movea.l    A0, [A0 + 0x8]
000021E6  2268 00AC                movea.l    A1, [A0 + 0xAC]
000021EA  4E91                     jsr        [A1]
000021EC  206C 01DC                movea.l    A0, [A4 + 0x1DC]
000021F0  2050                     movea.l    A0, [A0]
000021F2  5488                     addq.l     A0, 2
000021F4  43EE FFE4                lea.l      A1, [A6 - 0x1C]
000021F8  22D8                     move.l     [A1]+, [A0]+
000021FA  22D8                     move.l     [A1]+, [A0]+
000021FC  206E FFFC                movea.l    A0, [A6 - 0x4]
00002200  41E8 0010                lea.l      A0, [A0 + 0x10]
00002204  43EE FFDC                lea.l      A1, [A6 - 0x24]
00002208  22D8                     move.l     [A1]+, [A0]+
0000220A  22D8                     move.l     [A1]+, [A0]+
0000220C  486E FFDC                pea.l      [A6 - 0x24]
00002210  302E FFE6                move.w     D0, [A6 - 0x1A]
00002214  906C 01D6                sub.w      D0, [A4 + 0x1D6]
00002218  3F00                     move.w     -[A7], D0
0000221A  302E FFE4                move.w     D0, [A6 - 0x1C]
0000221E  906C 01D4                sub.w      D0, [A4 + 0x1D4]
00002222  3F00                     move.w     -[A7], D0
00002224  A8A8                     syscall    OffsetRect
00002226  558F                     subq.l     A7, 2
00002228  486E FFDC                pea.l      [A6 - 0x24]
0000222C  486E FFE4                pea.l      [A6 - 0x1C]
00002230  486E FFDC                pea.l      [A6 - 0x24]
00002234  A8AA                     syscall    SectRect
00002236  4A1F                     tst.b      [A7]+
00002238  671A                     beq        +0x1C /* 00002254 */
0000223A  2F2C 0120                move.l     -[A7], [A4 + 0x120]
0000223E  486E FFDC                pea.l      [A6 - 0x24]
00002242  A8DF                     syscall    RectRgn
00002244  2F2C 0120                move.l     -[A7], [A4 + 0x120]
00002248  2F0C                     move.l     -[A7], A4
0000224A  4EAD 1F02                jsr        [A5 + 0x1F02 /* export_988, CODE:37 @ 00001218 */]
0000224E  7000                     moveq.l    D0, 0x00
00002250  504F                     addq.w     A7, 8
00002252  6002                     bra        +0x4 /* 00002256 */
label00002254:
00002254  7000                     moveq.l    D0, 0x00
label00002256:
00002256  2F2E FFFC                move.l     -[A7], [A6 - 0x4]
0000225A  2F3C 4742 5443           move.l     -[A7], 0x47425443 /* 'GBTC' */
00002260  204C                     movea.l    A0, A4
00002262  226C 0060                movea.l    A1, [A4 + 0x60]
00002266  D0E9 0060                add.w      A0, [A1 + 0x60]
0000226A  2F08                     move.l     -[A7], A0
0000226C  2049                     movea.l    A0, A1
0000226E  2268 0064                movea.l    A1, [A0 + 0x64]
00002272  4E91                     jsr        [A1]
00002274  206E FFFC                movea.l    A0, [A6 - 0x4]
00002278  43EE FFF4                lea.l      A1, [A6 - 0xC]
0000227C  41E8 0010                lea.l      A0, [A0 + 0x10]
00002280  22D8                     move.l     [A1]+, [A0]+
00002282  22D8                     move.l     [A1]+, [A0]+
00002284  302E FFF4                move.w     D0, [A6 - 0xC]
00002288  B06C 01D4                cmp.w      D0, [A4 + 0x1D4]
0000228C  4FEF 0010                lea.l      A7, [A7 + 0x10]
00002290  6D1A                     blt        +0x1C /* 000022AC */
00002292  302C 01D4                move.w     D0, [A4 + 0x1D4]
00002296  48C0                     ext.l      D0
00002298  322C 01D8                move.w     D1, [A4 + 0x1D8]
0000229C  48C1                     ext.l      D1
0000229E  D280                     add.l      D1, D0
000022A0  302E FFF8                move.w     D0, [A6 - 0x8]
000022A4  48C0                     ext.l      D0
000022A6  B280                     cmp.l      D1, D0
000022A8  6C00 0468                bge        +0x46A /* 00002712 */
label000022AC:
000022AC  426E FF9A                clr.w      [A6 - 0x66]
000022B0  302E FFF4                move.w     D0, [A6 - 0xC]
000022B4  48C0                     ext.l      D0
000022B6  720C                     moveq.l    D1, 0x0C
000022B8  D081                     add.l      D0, D1
000022BA  906C 01D8                sub.w      D0, [A4 + 0x1D8]
000022BE  3D40 FF98                move.w     [A6 - 0x68], D0
000022C2  48C0                     ext.l      D0
000022C4  342E FFF8                move.w     D2, [A6 - 0x8]
000022C8  48C2                     ext.l      D2
000022CA  D480                     add.l      D2, D0
000022CC  302E FFF4                move.w     D0, [A6 - 0xC]
000022D0  48C0                     ext.l      D0
000022D2  9480                     sub.l      D2, D0
000022D4  302C 01D0                move.w     D0, [A4 + 0x1D0]
000022D8  48C0                     ext.l      D0
000022DA  B082                     cmp.l      D0, D2
000022DC  6C12                     bge        +0x14 /* 000022F0 */
000022DE  302C 01D0                move.w     D0, [A4 + 0x1D0]
000022E2  906C 01D8                sub.w      D0, [A4 + 0x1D8]
000022E6  3D40 FF98                move.w     [A6 - 0x68], D0
000022EA  6C04                     bge        +0x6 /* 000022F0 */
000022EC  426E FF98                clr.w      [A6 - 0x68]
label000022F0:
000022F0  2F2E FF98                move.l     -[A7], [A6 - 0x68]
000022F4  204C                     movea.l    A0, A4
000022F6  226C 0060                movea.l    A1, [A4 + 0x60]
000022FA  D0E9 0150                add.w      A0, [A1 + 0x150]
000022FE  2F08                     move.l     -[A7], A0
00002300  2049                     movea.l    A0, A1
00002302  2268 0154                movea.l    A1, [A0 + 0x154]
00002306  4E91                     jsr        [A1]
00002308  504F                     addq.w     A7, 8
0000230A  6000 0406                bra        +0x408 /* 00002712 */
label0000230E:
0000230E  206E 000C                movea.l    A0, [A6 + 0xC]
00002312  202C 021A                move.l     D0, [A4 + 0x21A]
00002316  721E                     moveq.l    D1, 0x1E
00002318  D081                     add.l      D0, D1
0000231A  B0A8 0006                cmp.l      D0, [A0 + 0x6]
0000231E  6D12                     blt        +0x14 /* 00002332 */
00002320  7000                     moveq.l    D0, 0x00
00002322  1006                     move.b     D0, D6
00002324  2F00                     move.l     -[A7], D0
00002326  486C 01FC                pea.l      [A4 + 0x1FC]
0000232A  4EAD 17B2                jsr        [A5 + 0x17B2 /* export_754, CODE:32 @ 000052D6 */]
0000232E  504F                     addq.w     A7, 8
00002330  601A                     bra        +0x1C /* 0000234C */
label00002332:
00002332  486C 01FC                pea.l      [A4 + 0x1FC]
00002336  4EAD 1782                jsr        [A5 + 0x1782 /* export_748, CODE:32 @ 00004E1E */]
0000233A  7000                     moveq.l    D0, 0x00
0000233C  1006                     move.b     D0, D6
0000233E  2F00                     move.l     -[A7], D0
00002340  486C 01FC                pea.l      [A4 + 0x1FC]
00002344  4EAD 17B2                jsr        [A5 + 0x17B2 /* export_754, CODE:32 @ 000052D6 */]
00002348  4FEF 000C                lea.l      A7, [A7 + 0xC]
label0000234C:
0000234C  206E 000C                movea.l    A0, [A6 + 0xC]
00002350  2968 0006 021A           move.l     [A4 + 0x21A], [A0 + 0x6]
00002356  7000                     moveq.l    D0, 0x00
00002358  2F00                     move.l     -[A7], D0
0000235A  2F00                     move.l     -[A7], D0
0000235C  486E FF9C                pea.l      [A6 - 0x64]
00002360  4EAD 1772                jsr        [A5 + 0x1772 /* export_746, CODE:32 @ 00004CE0 */]
00002364  7000                     moveq.l    D0, 0x00
00002366  2F00                     move.l     -[A7], D0
00002368  2F00                     move.l     -[A7], D0
0000236A  486E FFBA                pea.l      [A6 - 0x46]
0000236E  4EAD 1772                jsr        [A5 + 0x1772 /* export_746, CODE:32 @ 00004CE0 */]
00002372  4247                     clr.w      D7
00002374  422E FFB9                clr.b      [A6 - 0x47]
00002378  422E FFD7                clr.b      [A6 - 0x29]
0000237C  2D4B FFD8                move.l     [A6 - 0x28], A3
00002380  200B                     move.l     D0, A3
00002382  4FEF 0018                lea.l      A7, [A7 + 0x18]
00002386  6700 0084                beq        +0x86 /* 0000240C */
0000238A  2F0B                     move.l     -[A7], A3
0000238C  4EAD 1D32                jsr        [A5 + 0x1D32 /* export_930, CODE:36 @ 00000FD4 */]
00002390  2D40 FFD8                move.l     [A6 - 0x28], D0
00002394  2640                     movea.l    A3, D0
00002396  584F                     addq.w     A7, 4
00002398  6072                     bra        +0x74 /* 0000240C */
label0000239A:
0000239A  486E FF9C                pea.l      [A6 - 0x64]
0000239E  204B                     movea.l    A0, A3
000023A0  226B 0008                movea.l    A1, [A3 + 0x8]
000023A4  D0E9 0080                add.w      A0, [A1 + 0x80]
000023A8  2F08                     move.l     -[A7], A0
000023AA  2049                     movea.l    A0, A1
000023AC  2268 0084                movea.l    A1, [A0 + 0x84]
000023B0  4E91                     jsr        [A1]
000023B2  486C 01FC                pea.l      [A4 + 0x1FC]
000023B6  486E FFBA                pea.l      [A6 - 0x46]
000023BA  4EAD 17F2                jsr        [A5 + 0x17F2 /* export_762, CODE:32 @ 00005750 */]
000023BE  4FEF 0010                lea.l      A7, [A7 + 0x10]
000023C2  601C                     bra        +0x1E /* 000023E0 */
label000023C4:
000023C4  202E FFCE                move.l     D0, [A6 - 0x32]
000023C8  5380                     subq.l     D0, 1
000023CA  2F00                     move.l     -[A7], D0
000023CC  202E FFCE                move.l     D0, [A6 - 0x32]
000023D0  5380                     subq.l     D0, 1
000023D2  2F00                     move.l     -[A7], D0
000023D4  486E FFBA                pea.l      [A6 - 0x46]
000023D8  4EAD 17A2                jsr        [A5 + 0x17A2 /* export_752, CODE:32 @ 000051AC */]
000023DC  4FEF 000C                lea.l      A7, [A7 + 0xC]
label000023E0:
000023E0  4AAE FFCE                tst.l      [A6 - 0x32]
000023E4  6F12                     ble        +0x14 /* 000023F8 */
000023E6  486E FF9C                pea.l      [A6 - 0x64]
000023EA  486E FFBA                pea.l      [A6 - 0x46]
000023EE  4EAD 17D2                jsr        [A5 + 0x17D2 /* export_758, CODE:32 @ 0000556C */]
000023F2  4A00                     tst.b      D0
000023F4  504F                     addq.w     A7, 8
000023F6  67CC                     beq        -0x32 /* 000023C4 */
label000023F8:
000023F8  48C7                     ext.l      D7
000023FA  BEAE FFCE                cmp.l      D7, [A6 - 0x32]
000023FE  6C08                     bge        +0xA /* 00002408 */
00002400  2D4B FFD8                move.l     [A6 - 0x28], A3
00002404  3E2E FFD0                move.w     D7, [A6 - 0x30]
label00002408:
00002408  266B 0004                movea.l    A3, [A3 + 0x4]
label0000240C:
0000240C  200B                     move.l     D0, A3
0000240E  668A                     bne        -0x74 /* 0000239A */
00002410  206C 01DC                movea.l    A0, [A4 + 0x1DC]
00002414  2050                     movea.l    A0, [A0]
00002416  43EE FFDC                lea.l      A1, [A6 - 0x24]
0000241A  5488                     addq.l     A0, 2
0000241C  22D8                     move.l     [A1]+, [A0]+
0000241E  22D8                     move.l     [A1]+, [A0]+
00002420  4AAE FFD8                tst.l      [A6 - 0x28]
00002424  6700 02D0                beq        +0x2D2 /* 000026F6 */
00002428  206E FFD8                movea.l    A0, [A6 - 0x28]
0000242C  7000                     moveq.l    D0, 0x00
0000242E  1028 0018                move.b     D0, [A0 + 0x18]
00002432  7204                     moveq.l    D1, 0x04
00002434  C200                     and.b      D1, D0
00002436  7000                     moveq.l    D0, 0x00
00002438  1001                     move.b     D0, D1
0000243A  4A80                     tst.l      D0
0000243C  6600 02B8                bne        +0x2BA /* 000026F6 */
00002440  266C 01CC                movea.l    A3, [A4 + 0x1CC]
00002444  200B                     move.l     D0, A3
00002446  670A                     beq        +0xC /* 00002452 */
00002448  2F0B                     move.l     -[A7], A3
0000244A  4EAD 1D32                jsr        [A5 + 0x1D32 /* export_930, CODE:36 @ 00000FD4 */]
0000244E  2640                     movea.l    A3, D0
00002450  584F                     addq.w     A7, 4
label00002452:
00002452  200B                     move.l     D0, A3
00002454  6700 0094                beq        +0x96 /* 000024EA */
00002458  2F0B                     move.l     -[A7], A3
0000245A  4EAD 1C82                jsr        [A5 + 0x1C82 /* export_908, CODE:36 @ 0000071E */]
0000245E  2640                     movea.l    A3, D0
00002460  584F                     addq.w     A7, 4
00002462  6000 0086                bra        +0x88 /* 000024EA */
label00002466:
00002466  204B                     movea.l    A0, A3
00002468  226B 0008                movea.l    A1, [A3 + 0x8]
0000246C  D0E9 00B0                add.w      A0, [A1 + 0xB0]
00002470  2F08                     move.l     -[A7], A0
00002472  2049                     movea.l    A0, A1
00002474  2268 00B4                movea.l    A1, [A0 + 0xB4]
00002478  4E91                     jsr        [A1]
0000247A  206C 01DC                movea.l    A0, [A4 + 0x1DC]
0000247E  2050                     movea.l    A0, [A0]
00002480  5488                     addq.l     A0, 2
00002482  43EE FF84                lea.l      A1, [A6 - 0x7C]
00002486  22D8                     move.l     [A1]+, [A0]+
00002488  22D8                     move.l     [A1]+, [A0]+
0000248A  41EB 0010                lea.l      A0, [A3 + 0x10]
0000248E  43EE FF7C                lea.l      A1, [A6 - 0x84]
00002492  22D8                     move.l     [A1]+, [A0]+
00002494  22D8                     move.l     [A1]+, [A0]+
00002496  486E FF7C                pea.l      [A6 - 0x84]
0000249A  302E FF86                move.w     D0, [A6 - 0x7A]
0000249E  906C 01D6                sub.w      D0, [A4 + 0x1D6]
000024A2  3F00                     move.w     -[A7], D0
000024A4  302E FF84                move.w     D0, [A6 - 0x7C]
000024A8  906C 01D4                sub.w      D0, [A4 + 0x1D4]
000024AC  3F00                     move.w     -[A7], D0
000024AE  A8A8                     syscall    OffsetRect
000024B0  558F                     subq.l     A7, 2
000024B2  486E FF7C                pea.l      [A6 - 0x84]
000024B6  486E FF84                pea.l      [A6 - 0x7C]
000024BA  486E FF7C                pea.l      [A6 - 0x84]
000024BE  A8AA                     syscall    SectRect
000024C0  4A1F                     tst.b      [A7]+
000024C2  671A                     beq        +0x1C /* 000024DE */
000024C4  2F2C 0120                move.l     -[A7], [A4 + 0x120]
000024C8  486E FF7C                pea.l      [A6 - 0x84]
000024CC  A8DF                     syscall    RectRgn
000024CE  2F2C 0120                move.l     -[A7], [A4 + 0x120]
000024D2  2F0C                     move.l     -[A7], A4
000024D4  4EAD 1F02                jsr        [A5 + 0x1F02 /* export_988, CODE:37 @ 00001218 */]
000024D8  7000                     moveq.l    D0, 0x00
000024DA  504F                     addq.w     A7, 8
000024DC  6002                     bra        +0x4 /* 000024E0 */
label000024DE:
000024DE  7000                     moveq.l    D0, 0x00
label000024E0:
000024E0  2F0B                     move.l     -[A7], A3
000024E2  4EAD 1C8A                jsr        [A5 + 0x1C8A /* export_909, CODE:36 @ 00000778 */]
000024E6  2640                     movea.l    A3, D0
000024E8  504F                     addq.w     A7, 8
label000024EA:
000024EA  200B                     move.l     D0, A3
000024EC  6600 FF78                bne        -0x86 /* 00002466 */
000024F0  206E FFD8                movea.l    A0, [A6 - 0x28]
000024F4  2248                     movea.l    A1, A0
000024F6  2269 0008                movea.l    A1, [A1 + 0x8]
000024FA  D0E9 00A8                add.w      A0, [A1 + 0xA8]
000024FE  2F08                     move.l     -[A7], A0
00002500  206E FFD8                movea.l    A0, [A6 - 0x28]
00002504  2068 0008                movea.l    A0, [A0 + 0x8]
00002508  2268 00AC                movea.l    A1, [A0 + 0xAC]
0000250C  4E91                     jsr        [A1]
0000250E  206C 01DC                movea.l    A0, [A4 + 0x1DC]
00002512  2050                     movea.l    A0, [A0]
00002514  5488                     addq.l     A0, 2
00002516  43EE FF94                lea.l      A1, [A6 - 0x6C]
0000251A  22D8                     move.l     [A1]+, [A0]+
0000251C  22D8                     move.l     [A1]+, [A0]+
0000251E  206E FFD8                movea.l    A0, [A6 - 0x28]
00002522  41E8 0010                lea.l      A0, [A0 + 0x10]
00002526  43EE FF8C                lea.l      A1, [A6 - 0x74]
0000252A  22D8                     move.l     [A1]+, [A0]+
0000252C  22D8                     move.l     [A1]+, [A0]+
0000252E  486E FF8C                pea.l      [A6 - 0x74]
00002532  302E FF96                move.w     D0, [A6 - 0x6A]
00002536  906C 01D6                sub.w      D0, [A4 + 0x1D6]
0000253A  3F00                     move.w     -[A7], D0
0000253C  302E FF94                move.w     D0, [A6 - 0x6C]
00002540  906C 01D4                sub.w      D0, [A4 + 0x1D4]
00002544  3F00                     move.w     -[A7], D0
00002546  A8A8                     syscall    OffsetRect
00002548  558F                     subq.l     A7, 2
0000254A  486E FF8C                pea.l      [A6 - 0x74]
0000254E  486E FF94                pea.l      [A6 - 0x6C]
00002552  486E FF8C                pea.l      [A6 - 0x74]
00002556  A8AA                     syscall    SectRect
00002558  4A1F                     tst.b      [A7]+
0000255A  671A                     beq        +0x1C /* 00002576 */
0000255C  2F2C 0120                move.l     -[A7], [A4 + 0x120]
00002560  486E FF8C                pea.l      [A6 - 0x74]
00002564  A8DF                     syscall    RectRgn
00002566  2F2C 0120                move.l     -[A7], [A4 + 0x120]
0000256A  2F0C                     move.l     -[A7], A4
0000256C  4EAD 1F02                jsr        [A5 + 0x1F02 /* export_988, CODE:37 @ 00001218 */]
00002570  7000                     moveq.l    D0, 0x00
00002572  504F                     addq.w     A7, 8
00002574  6002                     bra        +0x4 /* 00002578 */
label00002576:
00002576  7000                     moveq.l    D0, 0x00
label00002578:
00002578  2F2E FFD8                move.l     -[A7], [A6 - 0x28]
0000257C  2F3C 4742 5443           move.l     -[A7], 0x47425443 /* 'GBTC' */
00002582  204C                     movea.l    A0, A4
00002584  226C 0060                movea.l    A1, [A4 + 0x60]
00002588  D0E9 0060                add.w      A0, [A1 + 0x60]
0000258C  2F08                     move.l     -[A7], A0
0000258E  2049                     movea.l    A0, A1
00002590  2268 0064                movea.l    A1, [A0 + 0x64]
00002594  4E91                     jsr        [A1]
00002596  206E FFD8                movea.l    A0, [A6 - 0x28]
0000259A  43EE FFE4                lea.l      A1, [A6 - 0x1C]
0000259E  41E8 0010                lea.l      A0, [A0 + 0x10]
000025A2  22D8                     move.l     [A1]+, [A0]+
000025A4  22D8                     move.l     [A1]+, [A0]+
000025A6  486E FFE4                pea.l      [A6 - 0x1C]
000025AA  302E FFDE                move.w     D0, [A6 - 0x22]
000025AE  906C 01D6                sub.w      D0, [A4 + 0x1D6]
000025B2  3F00                     move.w     -[A7], D0
000025B4  302E FFDC                move.w     D0, [A6 - 0x24]
000025B8  906C 01D4                sub.w      D0, [A4 + 0x1D4]
000025BC  3F00                     move.w     -[A7], D0
000025BE  A8A8                     syscall    OffsetRect
000025C0  558F                     subq.l     A7, 2
000025C2  486E FFE4                pea.l      [A6 - 0x1C]
000025C6  486E FFDC                pea.l      [A6 - 0x24]
000025CA  486E FFE4                pea.l      [A6 - 0x1C]
000025CE  A8AA                     syscall    SectRect
000025D0  4A1F                     tst.b      [A7]+
000025D2  4FEF 0010                lea.l      A7, [A7 + 0x10]
000025D6  6770                     beq        +0x72 /* 00002648 */
000025D8  206C 01DC                movea.l    A0, [A4 + 0x1DC]
000025DC  2050                     movea.l    A0, [A0]
000025DE  5488                     addq.l     A0, 2
000025E0  43EE FF84                lea.l      A1, [A6 - 0x7C]
000025E4  22D8                     move.l     [A1]+, [A0]+
000025E6  22D8                     move.l     [A1]+, [A0]+
000025E8  206E FFD8                movea.l    A0, [A6 - 0x28]
000025EC  41E8 0010                lea.l      A0, [A0 + 0x10]
000025F0  43EE FF7C                lea.l      A1, [A6 - 0x84]
000025F4  22D8                     move.l     [A1]+, [A0]+
000025F6  22D8                     move.l     [A1]+, [A0]+
000025F8  486E FF7C                pea.l      [A6 - 0x84]
000025FC  302E FF86                move.w     D0, [A6 - 0x7A]
00002600  906C 01D6                sub.w      D0, [A4 + 0x1D6]
00002604  3F00                     move.w     -[A7], D0
00002606  302E FF84                move.w     D0, [A6 - 0x7C]
0000260A  906C 01D4                sub.w      D0, [A4 + 0x1D4]
0000260E  3F00                     move.w     -[A7], D0
00002610  A8A8                     syscall    OffsetRect
00002612  558F                     subq.l     A7, 2
00002614  486E FF7C                pea.l      [A6 - 0x84]
00002618  486E FF84                pea.l      [A6 - 0x7C]
0000261C  486E FF7C                pea.l      [A6 - 0x84]
00002620  A8AA                     syscall    SectRect
00002622  4A1F                     tst.b      [A7]+
00002624  671C                     beq        +0x1E /* 00002642 */
00002626  2F2C 0120                move.l     -[A7], [A4 + 0x120]
0000262A  486E FF7C                pea.l      [A6 - 0x84]
0000262E  A8DF                     syscall    RectRgn
00002630  2F2C 0120                move.l     -[A7], [A4 + 0x120]
00002634  2F0C                     move.l     -[A7], A4
00002636  4EAD 1F02                jsr        [A5 + 0x1F02 /* export_988, CODE:37 @ 00001218 */]
0000263A  7000                     moveq.l    D0, 0x00
0000263C  504F                     addq.w     A7, 8
0000263E  6000 00B6                bra        +0xB8 /* 000026F6 */
label00002642:
00002642  7000                     moveq.l    D0, 0x00
00002644  6000 00B0                bra        +0xB2 /* 000026F6 */
label00002648:
00002648  206E FFD8                movea.l    A0, [A6 - 0x28]
0000264C  43EE FFE4                lea.l      A1, [A6 - 0x1C]
00002650  41E8 0010                lea.l      A0, [A0 + 0x10]
00002654  22D8                     move.l     [A1]+, [A0]+
00002656  22D8                     move.l     [A1]+, [A0]+
00002658  206C 01DC                movea.l    A0, [A4 + 0x1DC]
0000265C  2050                     movea.l    A0, [A0]
0000265E  5488                     addq.l     A0, 2
00002660  43EE FF84                lea.l      A1, [A6 - 0x7C]
00002664  22D8                     move.l     [A1]+, [A0]+
00002666  22D8                     move.l     [A1]+, [A0]+
00002668  206E FFD8                movea.l    A0, [A6 - 0x28]
0000266C  41E8 0010                lea.l      A0, [A0 + 0x10]
00002670  43EE FF7C                lea.l      A1, [A6 - 0x84]
00002674  22D8                     move.l     [A1]+, [A0]+
00002676  22D8                     move.l     [A1]+, [A0]+
00002678  486E FF7C                pea.l      [A6 - 0x84]
0000267C  302E FF86                move.w     D0, [A6 - 0x7A]
00002680  906C 01D6                sub.w      D0, [A4 + 0x1D6]
00002684  3F00                     move.w     -[A7], D0
00002686  302E FF84                move.w     D0, [A6 - 0x7C]
0000268A  906C 01D4                sub.w      D0, [A4 + 0x1D4]
0000268E  3F00                     move.w     -[A7], D0
00002690  A8A8                     syscall    OffsetRect
00002692  558F                     subq.l     A7, 2
00002694  486E FF7C                pea.l      [A6 - 0x84]
00002698  486E FF84                pea.l      [A6 - 0x7C]
0000269C  486E FF7C                pea.l      [A6 - 0x84]
000026A0  A8AA                     syscall    SectRect
000026A2  4A1F                     tst.b      [A7]+
000026A4  671A                     beq        +0x1C /* 000026C0 */
000026A6  2F2C 0120                move.l     -[A7], [A4 + 0x120]
000026AA  486E FF7C                pea.l      [A6 - 0x84]
000026AE  A8DF                     syscall    RectRgn
000026B0  2F2C 0120                move.l     -[A7], [A4 + 0x120]
000026B4  2F0C                     move.l     -[A7], A4
000026B6  4EAD 1F02                jsr        [A5 + 0x1F02 /* export_988, CODE:37 @ 00001218 */]
000026BA  7000                     moveq.l    D0, 0x00
000026BC  504F                     addq.w     A7, 8
000026BE  6002                     bra        +0x4 /* 000026C2 */
label000026C0:
000026C0  7000                     moveq.l    D0, 0x00
label000026C2:
000026C2  426E FF7A                clr.w      [A6 - 0x86]
000026C6  302C 01D8                move.w     D0, [A4 + 0x1D8]
000026CA  48C0                     ext.l      D0
000026CC  720C                     moveq.l    D1, 0x0C
000026CE  9081                     sub.l      D0, D1
000026D0  E280                     asr        D0, 1
000026D2  342E FFE4                move.w     D2, [A6 - 0x1C]
000026D6  9440                     sub.w      D2, D0
000026D8  3D42 FF78                move.w     [A6 - 0x88], D2
000026DC  2F2E FF78                move.l     -[A7], [A6 - 0x88]
000026E0  204C                     movea.l    A0, A4
000026E2  226C 0060                movea.l    A1, [A4 + 0x60]
000026E6  D0E9 0150                add.w      A0, [A1 + 0x150]
000026EA  2F08                     move.l     -[A7], A0
000026EC  2049                     movea.l    A0, A1
000026EE  2268 0154                movea.l    A1, [A0 + 0x154]
000026F2  4E91                     jsr        [A1]
000026F4  504F                     addq.w     A7, 8
label000026F6:
000026F6  7002                     moveq.l    D0, 0x02
000026F8  2F00                     move.l     -[A7], D0
000026FA  486E FFBA                pea.l      [A6 - 0x46]
000026FE  4EAD 177A                jsr        [A5 + 0x177A /* export_747, CODE:32 @ 00004DBC */]
00002702  7002                     moveq.l    D0, 0x02
00002704  2F00                     move.l     -[A7], D0
00002706  486E FF9C                pea.l      [A6 - 0x64]
0000270A  4EAD 177A                jsr        [A5 + 0x177A /* export_747, CODE:32 @ 00004DBC */]
0000270E  4FEF 0010                lea.l      A7, [A7 + 0x10]
label00002712:
00002712  7001                     moveq.l    D0, 0x01
label00002714:
00002714  4CEE 18C0 FF68           movem.l    D6,D7,A3,A4, [A6 - 0x98]
0000271A  4E5E                     unlink     A6
0000271C  4E75                     rts
0000271E  8027 4B65 7944 6F77 6... dc.b       "KeyDown__13cTextListItemFR11EventRecord"
export_850:
0000274A  4E56 FFEC                link       A6, -0x0014
0000274E  48E7 1318                movem.l    -[A7], D3,D6,D7,A3,A4
00002752  3C2E 002E                move.w     D6, [A6 + 0x2E]
00002756  3E2E 002A                move.w     D7, [A6 + 0x2A]
0000275A  266E 000C                movea.l    A3, [A6 + 0xC]
0000275E  286E 0008                movea.l    A4, [A6 + 0x8]
00002762  200C                     move.l     D0, A4
00002764  6612                     bne        +0x14 /* 00002778 */
00002766  4878 0230                push.l     0x230
0000276A  4EAD 010A                jsr        [A5 + 0x10A /* export_29, CODE:1 @ 00001C0A */]
0000276E  2840                     movea.l    A4, D0
00002770  200C                     move.l     D0, A4
00002772  584F                     addq.w     A7, 4
00002774  6700 02DE                beq        +0x2E0 /* 00002A54 */
label00002778:
00002778  200B                     move.l     D0, A3
0000277A  57C3                     seq        D3
0000277C  4403                     neg.b      D3
0000277E  6748                     beq        +0x4A /* 000027C8 */
00002780  264C                     movea.l    A3, A4
00002782  47EB 0224                lea.l      A3, [A3 + 0x224]
00002786  7601                     moveq.l    D3, 0x01
00002788  200C                     move.l     D0, A4
0000278A  D0BC 0000 0224           add.l      D0, 0x224
00002790  6614                     bne        +0x16 /* 000027A6 */
00002792  2F03                     move.l     -[A7], D3
00002794  700C                     moveq.l    D0, 0x0C
00002796  2F00                     move.l     -[A7], D0
00002798  4EAD 010A                jsr        [A5 + 0x10A /* export_29, CODE:1 @ 00001C0A */]
0000279C  588F                     addq.l     A7, 4
0000279E  261F                     move.l     D3, [A7]+
000027A0  4A80                     tst.l      D0
000027A2  6602                     bne        +0x4 /* 000027A6 */
000027A4  7600                     moveq.l    D3, 0x00
label000027A6:
000027A6  4A03                     tst.b      D3
000027A8  6712                     beq        +0x14 /* 000027BC */
000027AA  296D FDAC 022C           move.l     [A4 + 0x22C], [A5 - 0x254]
000027B0  7000                     moveq.l    D0, 0x00
000027B2  2940 0224                move.l     [A4 + 0x224], D0
000027B6  2940 0228                move.l     [A4 + 0x228], D0
000027BA  6002                     bra        +0x4 /* 000027BE */
label000027BC:
000027BC  7000                     moveq.l    D0, 0x00
label000027BE:
000027BE  200C                     move.l     D0, A4
000027C0  D0BC 0000 0224           add.l      D0, 0x224
000027C6  6002                     bra        +0x4 /* 000027CA */
label000027C8:
000027C8  200B                     move.l     D0, A3
label000027CA:
000027CA  7000                     moveq.l    D0, 0x00
000027CC  2F00                     move.l     -[A7], D0
000027CE  2F00                     move.l     -[A7], D0
000027D0  2F00                     move.l     -[A7], D0
000027D2  2F00                     move.l     -[A7], D0
000027D4  7200                     moveq.l    D1, 0x00
000027D6  122E 0033                move.b     D1, [A6 + 0x33]
000027DA  2F01                     move.l     -[A7], D1
000027DC  7201                     moveq.l    D1, 0x01
000027DE  2F01                     move.l     -[A7], D1
000027E0  2F00                     move.l     -[A7], D0
000027E2  2F00                     move.l     -[A7], D0
000027E4  2F2E 0018                move.l     -[A7], [A6 + 0x18]
000027E8  2F2E 0014                move.l     -[A7], [A6 + 0x14]
000027EC  2F2E 0010                move.l     -[A7], [A6 + 0x10]
000027F0  2F0B                     move.l     -[A7], A3
000027F2  2F0C                     move.l     -[A7], A4
000027F4  4EAD 2142                jsr        [A5 + 0x2142 /* export_1060, CODE:40 @ 00000000 */]
000027F8  296D FDB0 0060           move.l     [A4 + 0x60], [A5 - 0x250]
000027FE  206C 0064                movea.l    A0, [A4 + 0x64]
00002802  216D FDB4 0008           move.l     [A0 + 0x8], [A5 - 0x24C]
00002808  296D FDB8 0070           move.l     [A4 + 0x70], [A5 - 0x248]
0000280E  296D FDBC 0088           move.l     [A4 + 0x88], [A5 - 0x244]
00002814  397C FFFF 0216           move.w     [A4 + 0x216], 0xFFFF
0000281A  7000                     moveq.l    D0, 0x00
0000281C  2940 0220                move.l     [A4 + 0x220], D0
00002820  2940 021C                move.l     [A4 + 0x21C], D0
00002824  396E 001E 01FC           move.w     [A4 + 0x1FC], [A6 + 0x1E]
0000282A  396E 0022 01FE           move.w     [A4 + 0x1FE], [A6 + 0x22]
00002830  3946 0206                move.w     [A4 + 0x206], D6
00002834  3947 0204                move.w     [A4 + 0x204], D7
00002838  322C 01FE                move.w     D1, [A4 + 0x1FE]
0000283C  C3C6                     muls.w     D1, D6
0000283E  3941 01D0                move.w     [A4 + 0x1D0], D1
00002842  322C 01FC                move.w     D1, [A4 + 0x1FC]
00002846  C3C7                     muls.w     D1, D7
00002848  3941 01D2                move.w     [A4 + 0x1D2], D1
0000284C  197C 0001 01F6           move.b     [A4 + 0x1F6], 0x1
00002852  426C 0210                clr.w      [A4 + 0x210]
00002856  397C FFFF 0212           move.w     [A4 + 0x212], 0xFFFF
0000285C  598F                     subq.l     A7, 4
0000285E  3F2E 0026                move.w     -[A7], [A6 + 0x26]
00002862  A9BC                     syscall    GetPicture
00002864  2D5F FFF4                move.l     [A6 - 0xC], [A7]+
00002868  4FEF 0034                lea.l      A7, [A7 + 0x34]
0000286C  6618                     bne        +0x1A /* 00002886 */
0000286E  7000                     moveq.l    D0, 0x00
00002870  2940 0208                move.l     [A4 + 0x208], D0
00002874  486D FD18                pea.l      [A5 - 0x2E8]
00002878  2F2C 0064                move.l     -[A7], [A4 + 0x64]
0000287C  4EAD 162A                jsr        [A5 + 0x162A /* export_705, CODE:32 @ 00003696 */]
00002880  504F                     addq.w     A7, 8
00002882  6000 0134                bra        +0x136 /* 000029B8 */
label00002886:
00002886  206E FFF4                movea.l    A0, [A6 - 0xC]
0000288A  2050                     movea.l    A0, [A0]
0000288C  226E FFF4                movea.l    A1, [A6 - 0xC]
00002890  2251                     movea.l    A1, [A1]
00002892  3028 0008                move.w     D0, [A0 + 0x8]
00002896  9069 0004                sub.w      D0, [A1 + 0x4]
0000289A  3940 0200                move.w     [A4 + 0x200], D0
0000289E  48C0                     ext.l      D0
000028A0  81EC 01FC                divs.w     D0, [A4 + 0x1FC]
000028A4  3940 0200                move.w     [A4 + 0x200], D0
000028A8  206E FFF4                movea.l    A0, [A6 - 0xC]
000028AC  2050                     movea.l    A0, [A0]
000028AE  226E FFF4                movea.l    A1, [A6 - 0xC]
000028B2  2251                     movea.l    A1, [A1]
000028B4  3028 0006                move.w     D0, [A0 + 0x6]
000028B8  9069 0002                sub.w      D0, [A1 + 0x2]
000028BC  3940 0202                move.w     [A4 + 0x202], D0
000028C0  48C0                     ext.l      D0
000028C2  81EC 01FE                divs.w     D0, [A4 + 0x1FE]
000028C6  3940 0202                move.w     [A4 + 0x202], D0
000028CA  4A6C 0200                tst.w      [A4 + 0x200]
000028CE  6706                     beq        +0x8 /* 000028D6 */
000028D0  4A6C 0202                tst.w      [A4 + 0x202]
000028D4  6618                     bne        +0x1A /* 000028EE */
label000028D6:
000028D6  486D FD30                pea.l      [A5 - 0x2D0]
000028DA  2F2C 0064                move.l     -[A7], [A4 + 0x64]
000028DE  4EAD 162A                jsr        [A5 + 0x162A /* export_705, CODE:32 @ 00003696 */]
000028E2  7000                     moveq.l    D0, 0x00
000028E4  2940 0208                move.l     [A4 + 0x208], D0
000028E8  504F                     addq.w     A7, 8
000028EA  6000 00C6                bra        +0xC8 /* 000029B2 */
label000028EE:
000028EE  426E FFEE                clr.w      [A6 - 0x12]
000028F2  302C 01FC                move.w     D0, [A4 + 0x1FC]
000028F6  C1EC 0200                muls.w     D0, [A4 + 0x200]
000028FA  3D40 FFF2                move.w     [A6 - 0xE], D0
000028FE  426E FFEC                clr.w      [A6 - 0x14]
00002902  302C 01FE                move.w     D0, [A4 + 0x1FE]
00002906  C1EC 0202                muls.w     D0, [A4 + 0x202]
0000290A  3D40 FFF0                move.w     [A6 - 0x10], D0
0000290E  7000                     moveq.l    D0, 0x00
00002910  2F00                     move.l     -[A7], D0
00002912  2F2E 0034                move.l     -[A7], [A6 + 0x34]
00002916  2F00                     move.l     -[A7], D0
00002918  7208                     moveq.l    D1, 0x08
0000291A  2F01                     move.l     -[A7], D1
0000291C  486E FFEC                pea.l      [A6 - 0x14]
00002920  2F00                     move.l     -[A7], D0
00002922  4EAD 1722                jsr        [A5 + 0x1722 /* export_736, CODE:32 @ 00004320 */]
00002926  2940 0208                move.l     [A4 + 0x208], D0
0000292A  4FEF 0018                lea.l      A7, [A7 + 0x18]
0000292E  6610                     bne        +0x12 /* 00002940 */
00002930  486D FD4A                pea.l      [A5 - 0x2B6]
00002934  2F2C 0064                move.l     -[A7], [A4 + 0x64]
00002938  4EAD 162A                jsr        [A5 + 0x162A /* export_705, CODE:32 @ 00003696 */]
0000293C  504F                     addq.w     A7, 8
0000293E  6072                     bra        +0x74 /* 000029B2 */
label00002940:
00002940  266C 0208                movea.l    A3, [A4 + 0x208]
00002944  486B 001C                pea.l      [A3 + 0x1C]
00002948  486B 0020                pea.l      [A3 + 0x20]
0000294C  203C 0008 0005           move.l     D0, 0x80005
00002952  AB1D                     syscall    QDExtensions
00002954  2F2B 0018                move.l     -[A7], [A3 + 0x18]
00002958  7000                     moveq.l    D0, 0x00
0000295A  2F00                     move.l     -[A7], D0
0000295C  203C 0008 0006           move.l     D0, 0x80006
00002962  AB1D                     syscall    QDExtensions
00002964  206E FFF4                movea.l    A0, [A6 - 0xC]
00002968  2050                     movea.l    A0, [A0]
0000296A  226E FFF4                movea.l    A1, [A6 - 0xC]
0000296E  2251                     movea.l    A1, [A1]
00002970  3028 0008                move.w     D0, [A0 + 0x8]
00002974  9069 0004                sub.w      D0, [A1 + 0x4]
00002978  3D40 FFF2                move.w     [A6 - 0xE], D0
0000297C  206E FFF4                movea.l    A0, [A6 - 0xC]
00002980  2050                     movea.l    A0, [A0]
00002982  226E FFF4                movea.l    A1, [A6 - 0xC]
00002986  2251                     movea.l    A1, [A1]
00002988  3028 0006                move.w     D0, [A0 + 0x6]
0000298C  9069 0002                sub.w      D0, [A1 + 0x2]
00002990  3D40 FFF0                move.w     [A6 - 0x10], D0
00002994  2F2E FFF4                move.l     -[A7], [A6 - 0xC]
00002998  486E FFEC                pea.l      [A6 - 0x14]
0000299C  A8F6                     syscall    DrawPicture
0000299E  266C 0208                movea.l    A3, [A4 + 0x208]
000029A2  2F2B 001C                move.l     -[A7], [A3 + 0x1C]
000029A6  2F2B 0020                move.l     -[A7], [A3 + 0x20]
000029AA  203C 0008 0006           move.l     D0, 0x80006
000029B0  AB1D                     syscall    QDExtensions
label000029B2:
000029B2  2F2E FFF4                move.l     -[A7], [A6 - 0xC]
000029B6  A9A3                     syscall    ReleaseResource
label000029B8:
000029B8  206C 0112                movea.l    A0, [A4 + 0x112]
000029BC  2068 0084                movea.l    A0, [A0 + 0x84]
000029C0  43EE FFF8                lea.l      A1, [A6 - 0x8]
000029C4  41E8 0010                lea.l      A0, [A0 + 0x10]
000029C8  22D8                     move.l     [A1]+, [A0]+
000029CA  22D8                     move.l     [A1]+, [A0]+
000029CC  2F2C 0112                move.l     -[A7], [A4 + 0x112]
000029D0  4EAD 11E2                jsr        [A5 + 0x11E2 /* export_568, CODE:26 @ 000031FA */]
000029D4  486E FFF8                pea.l      [A6 - 0x8]
000029D8  A870                     syscall    LocalToGlobal
000029DA  302E FFFA                move.w     D0, [A6 - 0x6]
000029DE  48C0                     ext.l      D0
000029E0  206C 01DC                movea.l    A0, [A4 + 0x1DC]
000029E4  2050                     movea.l    A0, [A0]
000029E6  3228 0008                move.w     D1, [A0 + 0x8]
000029EA  48C1                     ext.l      D1
000029EC  D280                     add.l      D1, D0
000029EE  206C 01DC                movea.l    A0, [A4 + 0x1DC]
000029F2  2050                     movea.l    A0, [A0]
000029F4  3028 0004                move.w     D0, [A0 + 0x4]
000029F8  48C0                     ext.l      D0
000029FA  9280                     sub.l      D1, D0
000029FC  D27C 0020                add.w      D1, 0x20 /* ' ' */
00002A00  3D41 FFFE                move.w     [A6 - 0x2], D1
00002A04  302E FFF8                move.w     D0, [A6 - 0x8]
00002A08  48C0                     ext.l      D0
00002A0A  206C 01DC                movea.l    A0, [A4 + 0x1DC]
00002A0E  2050                     movea.l    A0, [A0]
00002A10  3228 0006                move.w     D1, [A0 + 0x6]
00002A14  48C1                     ext.l      D1
00002A16  D280                     add.l      D1, D0
00002A18  206C 01DC                movea.l    A0, [A4 + 0x1DC]
00002A1C  2050                     movea.l    A0, [A0]
00002A1E  3028 0002                move.w     D0, [A0 + 0x2]
00002A22  48C0                     ext.l      D0
00002A24  9280                     sub.l      D1, D0
00002A26  D27C 0020                add.w      D1, 0x20 /* ' ' */
00002A2A  3D41 FFFC                move.w     [A6 - 0x4], D1
00002A2E  2F2C 0112                move.l     -[A7], [A4 + 0x112]
00002A32  4EAD 11EA                jsr        [A5 + 0x11EA /* export_569, CODE:26 @ 00003268 */]
00002A36  7000                     moveq.l    D0, 0x00
00002A38  2F00                     move.l     -[A7], D0
00002A3A  2F00                     move.l     -[A7], D0
00002A3C  2F00                     move.l     -[A7], D0
00002A3E  7208                     moveq.l    D1, 0x08
00002A40  2F01                     move.l     -[A7], D1
00002A42  486E FFF8                pea.l      [A6 - 0x8]
00002A46  2F00                     move.l     -[A7], D0
00002A48  4EAD 1722                jsr        [A5 + 0x1722 /* export_736, CODE:32 @ 00004320 */]
00002A4C  2940 020C                move.l     [A4 + 0x20C], D0
00002A50  4FEF 0020                lea.l      A7, [A7 + 0x20]
label00002A54:
00002A54  200C                     move.l     D0, A4
00002A56  4CEE 18C8 FFD8           movem.l    D3,D6,D7,A3,A4, [A6 - 0x28]
00002A5C  4E5E                     unlink     A6
00002A5E  4E75                     rts
00002A60  8040 5F5F 6374 5F5F 3... dc.b       "__ct__12cTileDocItemFP6cAgentP7cWindowR4RectsN44UcPP10ColorTable"
export_851:
00002AA4  4E56 0000                link       A6, 0
00002AA8  48E7 0108                movem.l    -[A7], D7,A4
00002AAC  2E2E 000C                move.l     D7, [A6 + 0xC]
00002AB0  286E 0008                movea.l    A4, [A6 + 0x8]
00002AB4  200C                     move.l     D0, A4
00002AB6  6700 00C8                beq        +0xCA /* 00002B80 */
00002ABA  296D FDBC 0088           move.l     [A4 + 0x88], [A5 - 0x244]
00002AC0  296D FDB8 0070           move.l     [A4 + 0x70], [A5 - 0x248]
00002AC6  206C 0064                movea.l    A0, [A4 + 0x64]
00002ACA  216D FDB4 0008           move.l     [A0 + 0x8], [A5 - 0x24C]
00002AD0  296D FDB0 0060           move.l     [A4 + 0x60], [A5 - 0x250]
00002AD6  4AAC 0208                tst.l      [A4 + 0x208]
00002ADA  6730                     beq        +0x32 /* 00002B0C */
00002ADC  4AAC 0208                tst.l      [A4 + 0x208]
00002AE0  6728                     beq        +0x2A /* 00002B0A */
00002AE2  7003                     moveq.l    D0, 0x03
00002AE4  2F00                     move.l     -[A7], D0
00002AE6  206C 0208                movea.l    A0, [A4 + 0x208]
00002AEA  2248                     movea.l    A1, A0
00002AEC  2269 0008                movea.l    A1, [A1 + 0x8]
00002AF0  D0E9 0030                add.w      A0, [A1 + 0x30]
00002AF4  2F08                     move.l     -[A7], A0
00002AF6  206C 0208                movea.l    A0, [A4 + 0x208]
00002AFA  2068 0008                movea.l    A0, [A0 + 0x8]
00002AFE  2268 0034                movea.l    A1, [A0 + 0x34]
00002B02  4E91                     jsr        [A1]
00002B04  7000                     moveq.l    D0, 0x00
00002B06  504F                     addq.w     A7, 8
00002B08  6002                     bra        +0x4 /* 00002B0C */
label00002B0A:
00002B0A  7000                     moveq.l    D0, 0x00
label00002B0C:
00002B0C  4AAC 020C                tst.l      [A4 + 0x20C]
00002B10  6730                     beq        +0x32 /* 00002B42 */
00002B12  4AAC 020C                tst.l      [A4 + 0x20C]
00002B16  6728                     beq        +0x2A /* 00002B40 */
00002B18  7003                     moveq.l    D0, 0x03
00002B1A  2F00                     move.l     -[A7], D0
00002B1C  206C 020C                movea.l    A0, [A4 + 0x20C]
00002B20  2248                     movea.l    A1, A0
00002B22  2269 0008                movea.l    A1, [A1 + 0x8]
00002B26  D0E9 0030                add.w      A0, [A1 + 0x30]
00002B2A  2F08                     move.l     -[A7], A0
00002B2C  206C 020C                movea.l    A0, [A4 + 0x20C]
00002B30  2068 0008                movea.l    A0, [A0 + 0x8]
00002B34  2268 0034                movea.l    A1, [A0 + 0x34]
00002B38  4E91                     jsr        [A1]
00002B3A  7000                     moveq.l    D0, 0x00
00002B3C  504F                     addq.w     A7, 8
00002B3E  6002                     bra        +0x4 /* 00002B42 */
label00002B40:
00002B40  7000                     moveq.l    D0, 0x00
label00002B42:
00002B42  200C                     move.l     D0, A4
00002B44  673A                     beq        +0x3C /* 00002B80 */
00002B46  7000                     moveq.l    D0, 0x00
00002B48  2F00                     move.l     -[A7], D0
00002B4A  2F0C                     move.l     -[A7], A4
00002B4C  4EAD 225A                jsr        [A5 + 0x225A /* export_1095, CODE:40 @ 000031B0 */]
00002B50  7002                     moveq.l    D0, 0x02
00002B52  C087                     and.l      D0, D7
00002B54  6718                     beq        +0x1A /* 00002B6E */
00002B56  7000                     moveq.l    D0, 0x00
00002B58  2F00                     move.l     -[A7], D0
00002B5A  220C                     move.l     D1, A4
00002B5C  D2BC 0000 0224           add.l      D1, 0x224
00002B62  2F01                     move.l     -[A7], D1
00002B64  4EAD 1632                jsr        [A5 + 0x1632 /* export_706, CODE:32 @ 000036CC */]
00002B68  7000                     moveq.l    D0, 0x00
00002B6A  504F                     addq.w     A7, 8
00002B6C  6002                     bra        +0x4 /* 00002B70 */
label00002B6E:
00002B6E  7000                     moveq.l    D0, 0x00
label00002B70:
00002B70  0807 0000                btst.b     D7, 0x0
00002B74  504F                     addq.w     A7, 8
00002B76  6708                     beq        +0xA /* 00002B80 */
00002B78  2F0C                     move.l     -[A7], A4
00002B7A  4EAD 0102                jsr        [A5 + 0x102 /* export_28, CODE:1 @ 00001BE0 */]
00002B7E  584F                     addq.w     A7, 4
label00002B80:
00002B80  4CEE 1080 FFF8           movem.l    D7,A4, [A6 - 0x8]
00002B86  4E5E                     unlink     A6
00002B88  4E75                     rts
00002B8A  965F 5F64 745F 5F31 3... dc.b       "__dt__12cTileDocItemFv"
export_852:
00002BA4  4E56 FFF8                link       A6, -0x0008
00002BA8  48E7 0308                movem.l    -[A7], D6,D7,A4
00002BAC  3C2E 0012                move.w     D6, [A6 + 0x12]
00002BB0  3E2E 000E                move.w     D7, [A6 + 0xE]
00002BB4  286E 0008                movea.l    A4, [A6 + 0x8]
00002BB8  48C6                     ext.l      D6
00002BBA  2F06                     move.l     -[A7], D6
00002BBC  48C7                     ext.l      D7
00002BBE  2F07                     move.l     -[A7], D7
00002BC0  2F0C                     move.l     -[A7], A4
00002BC2  4EAD 216A                jsr        [A5 + 0x216A /* export_1065, CODE:40 @ 00000FF8 */]
00002BC6  206C 0112                movea.l    A0, [A4 + 0x112]
00002BCA  2068 0084                movea.l    A0, [A0 + 0x84]
00002BCE  43EE FFF8                lea.l      A1, [A6 - 0x8]
00002BD2  41E8 0010                lea.l      A0, [A0 + 0x10]
00002BD6  22D8                     move.l     [A1]+, [A0]+
00002BD8  22D8                     move.l     [A1]+, [A0]+
00002BDA  2F2C 0112                move.l     -[A7], [A4 + 0x112]
00002BDE  4EAD 11E2                jsr        [A5 + 0x11E2 /* export_568, CODE:26 @ 000031FA */]
00002BE2  486E FFF8                pea.l      [A6 - 0x8]
00002BE6  A870                     syscall    LocalToGlobal
00002BE8  302E FFFA                move.w     D0, [A6 - 0x6]
00002BEC  48C0                     ext.l      D0
00002BEE  206C 01DC                movea.l    A0, [A4 + 0x1DC]
00002BF2  2050                     movea.l    A0, [A0]
00002BF4  3228 0008                move.w     D1, [A0 + 0x8]
00002BF8  48C1                     ext.l      D1
00002BFA  D280                     add.l      D1, D0
00002BFC  206C 01DC                movea.l    A0, [A4 + 0x1DC]
00002C00  2050                     movea.l    A0, [A0]
00002C02  3028 0004                move.w     D0, [A0 + 0x4]
00002C06  48C0                     ext.l      D0
00002C08  9280                     sub.l      D1, D0
00002C0A  D27C 0020                add.w      D1, 0x20 /* ' ' */
00002C0E  3D41 FFFE                move.w     [A6 - 0x2], D1
00002C12  302E FFF8                move.w     D0, [A6 - 0x8]
00002C16  48C0                     ext.l      D0
00002C18  206C 01DC                movea.l    A0, [A4 + 0x1DC]
00002C1C  2050                     movea.l    A0, [A0]
00002C1E  3228 0006                move.w     D1, [A0 + 0x6]
00002C22  48C1                     ext.l      D1
00002C24  D280                     add.l      D1, D0
00002C26  206C 01DC                movea.l    A0, [A4 + 0x1DC]
00002C2A  2050                     movea.l    A0, [A0]
00002C2C  3028 0002                move.w     D0, [A0 + 0x2]
00002C30  48C0                     ext.l      D0
00002C32  9280                     sub.l      D1, D0
00002C34  D27C 0020                add.w      D1, 0x20 /* ' ' */
00002C38  3D41 FFFC                move.w     [A6 - 0x4], D1
00002C3C  2F2C 0112                move.l     -[A7], [A4 + 0x112]
00002C40  4EAD 11EA                jsr        [A5 + 0x11EA /* export_569, CODE:26 @ 00003268 */]
00002C44  2F2D FDC0                move.l     -[A7], [A5 - 0x240]
00002C48  7000                     moveq.l    D0, 0x00
00002C4A  2F00                     move.l     -[A7], D0
00002C4C  486E FFF8                pea.l      [A6 - 0x8]
00002C50  2F2C 020C                move.l     -[A7], [A4 + 0x20C]
00002C54  4EAD 173A                jsr        [A5 + 0x173A /* export_739, CODE:32 @ 0000458C */]
00002C58  4A00                     tst.b      D0
00002C5A  4FEF 0024                lea.l      A7, [A7 + 0x24]
00002C5E  6620                     bne        +0x22 /* 00002C80 */
00002C60  486D FD76                pea.l      [A5 - 0x28A]
00002C64  ABFF                     syscall    DebugStr
00002C66  48C6                     ext.l      D6
00002C68  2006                     move.l     D0, D6
00002C6A  4480                     neg.l      D0
00002C6C  2F00                     move.l     -[A7], D0
00002C6E  48C7                     ext.l      D7
00002C70  2007                     move.l     D0, D7
00002C72  4480                     neg.l      D0
00002C74  2F00                     move.l     -[A7], D0
00002C76  2F0C                     move.l     -[A7], A4
00002C78  4EAD 216A                jsr        [A5 + 0x216A /* export_1065, CODE:40 @ 00000FF8 */]
00002C7C  4FEF 000C                lea.l      A7, [A7 + 0xC]
label00002C80:
00002C80  4CEE 10C0 FFEC           movem.l    D6,D7,A4, [A6 - 0x14]
00002C86  4E5E                     unlink     A6
00002C88  4E75                     rts
00002C8A  9A52 6573 697A 655F 5... dc.b       "Resize__12cTileDocItemFsT1"
export_853:
00002CA8  4E56 FF8C                link       A6, -0x0074
00002CAC  48E7 0718                movem.l    -[A7], D5,D6,D7,A3,A4
00002CB0  3A2E 0012                move.w     D5, [A6 + 0x12]
00002CB4  3C2E 000E                move.w     D6, [A6 + 0xE]
00002CB8  286E 0008                movea.l    A4, [A6 + 0x8]
00002CBC  A9FF                     syscall    Debugger
00002CBE  3E2C 0212                move.w     D7, [A4 + 0x212]
00002CC2  CE6E 0016                and.w      D7, [A6 + 0x16]
00002CC6  7000                     moveq.l    D0, 0x00
00002CC8  3007                     move.w     D0, D7
00002CCA  322C 0200                move.w     D1, [A4 + 0x200]
00002CCE  48C1                     ext.l      D1
00002CD0  4C41 0802                divs.l     D2:D0, D1
00002CD4  302C 01FC                move.w     D0, [A4 + 0x1FC]
00002CD8  48C0                     ext.l      D0
00002CDA  4C02 0800                muls.l     D0, D2
00002CDE  3D40 FFF2                move.w     [A6 - 0xE], D0
00002CE2  7000                     moveq.l    D0, 0x00
00002CE4  3007                     move.w     D0, D7
00002CE6  322C 0200                move.w     D1, [A4 + 0x200]
00002CEA  48C1                     ext.l      D1
00002CEC  4C41 0800                divs.l     D0:D0, D1
00002CF0  322C 01FE                move.w     D1, [A4 + 0x1FE]
00002CF4  48C1                     ext.l      D1
00002CF6  4C00 1800                muls.l     D1, D0
00002CFA  3D41 FFF0                move.w     [A6 - 0x10], D1
00002CFE  302C 01FC                move.w     D0, [A4 + 0x1FC]
00002D02  D06E FFF2                add.w      D0, [A6 - 0xE]
00002D06  3D40 FFF6                move.w     [A6 - 0xA], D0
00002D0A  302C 01FE                move.w     D0, [A4 + 0x1FE]
00002D0E  D06E FFF0                add.w      D0, [A6 - 0x10]
00002D12  3D40 FFF4                move.w     [A6 - 0xC], D0
00002D16  3006                     move.w     D0, D6
00002D18  906C 01D6                sub.w      D0, [A4 + 0x1D6]
00002D1C  3D40 FFFA                move.w     [A6 - 0x6], D0
00002D20  3005                     move.w     D0, D5
00002D22  906C 01D4                sub.w      D0, [A4 + 0x1D4]
00002D26  3D40 FFF8                move.w     [A6 - 0x8], D0
00002D2A  48C5                     ext.l      D5
00002D2C  302C 01FE                move.w     D0, [A4 + 0x1FE]
00002D30  48C0                     ext.l      D0
00002D32  D085                     add.l      D0, D5
00002D34  906C 01D4                sub.w      D0, [A4 + 0x1D4]
00002D38  3D40 FFFC                move.w     [A6 - 0x4], D0
00002D3C  48C6                     ext.l      D6
00002D3E  302C 01FC                move.w     D0, [A4 + 0x1FC]
00002D42  48C0                     ext.l      D0
00002D44  D086                     add.l      D0, D6
00002D46  906C 01D6                sub.w      D0, [A4 + 0x1D6]
00002D4A  3D40 FFFE                move.w     [A6 - 0x2], D0
00002D4E  4A2E 001B                tst.b      [A6 + 0x1B]
00002D52  662C                     bne        +0x2E /* 00002D80 */
00002D54  266C 0208                movea.l    A3, [A4 + 0x208]
00002D58  206B 0018                movea.l    A0, [A3 + 0x18]
00002D5C  5488                     addq.l     A0, 2
00002D5E  2F08                     move.l     -[A7], A0
00002D60  2F2C 020C                move.l     -[A7], [A4 + 0x20C]
00002D64  4EAD 072A                jsr        [A5 + 0x72A /* export_225, CODE:12 @ 0000439E */]
00002D68  588F                     addq.l     A7, 4
00002D6A  2F00                     move.l     -[A7], D0
00002D6C  486E FFF0                pea.l      [A6 - 0x10]
00002D70  486E FFF8                pea.l      [A6 - 0x8]
00002D74  3F2C 0210                move.w     -[A7], [A4 + 0x210]
00002D78  7000                     moveq.l    D0, 0x00
00002D7A  2F00                     move.l     -[A7], D0
00002D7C  A8EC                     syscall    CopyBits
00002D7E  606C                     bra        +0x6E /* 00002DEC */
label00002D80:
00002D80  7000                     moveq.l    D0, 0x00
00002D82  2F00                     move.l     -[A7], D0
00002D84  2F00                     move.l     -[A7], D0
00002D86  486E FF8C                pea.l      [A6 - 0x74]
00002D8A  4EAD 15AA                jsr        [A5 + 0x15AA /* export_689, CODE:32 @ 0000234A */]
00002D8E  2F3C 8100 0008           move.l     -[A7], 0x81000008
00002D94  7000                     moveq.l    D0, 0x00
00002D96  2F00                     move.l     -[A7], D0
00002D98  486E FFBE                pea.l      [A6 - 0x42]
00002D9C  4EAD 15AA                jsr        [A5 + 0x15AA /* export_689, CODE:32 @ 0000234A */]
00002DA0  266C 0208                movea.l    A3, [A4 + 0x208]
00002DA4  206B 0018                movea.l    A0, [A3 + 0x18]
00002DA8  5488                     addq.l     A0, 2
00002DAA  2F08                     move.l     -[A7], A0
00002DAC  2F2C 020C                move.l     -[A7], [A4 + 0x20C]
00002DB0  4EAD 072A                jsr        [A5 + 0x72A /* export_225, CODE:12 @ 0000439E */]
00002DB4  588F                     addq.l     A7, 4
00002DB6  2F00                     move.l     -[A7], D0
00002DB8  486E FFF0                pea.l      [A6 - 0x10]
00002DBC  486E FFF8                pea.l      [A6 - 0x8]
00002DC0  3F2C 0210                move.w     -[A7], [A4 + 0x210]
00002DC4  7000                     moveq.l    D0, 0x00
00002DC6  2F00                     move.l     -[A7], D0
00002DC8  A8EC                     syscall    CopyBits
00002DCA  486E FF8C                pea.l      [A6 - 0x74]
00002DCE  AA14                     syscall    RGBForeColor
00002DD0  7002                     moveq.l    D0, 0x02
00002DD2  2F00                     move.l     -[A7], D0
00002DD4  486E FFBE                pea.l      [A6 - 0x42]
00002DD8  4EAD 15D2                jsr        [A5 + 0x15D2 /* export_694, CODE:32 @ 000029D6 */]
00002DDC  7002                     moveq.l    D0, 0x02
00002DDE  2F00                     move.l     -[A7], D0
00002DE0  486E FF8C                pea.l      [A6 - 0x74]
00002DE4  4EAD 15D2                jsr        [A5 + 0x15D2 /* export_694, CODE:32 @ 000029D6 */]
00002DE8  4FEF 0028                lea.l      A7, [A7 + 0x28]
label00002DEC:
00002DEC  4CEE 18E0 FF78           movem.l    D5,D6,D7,A3,A4, [A6 - 0x88]
00002DF2  4E5E                     unlink     A6
00002DF4  4E75                     rts
00002DF6  8020 4472 6177 5469 6... dc.b       "DrawTile__12cTileDocItemFsT1UsUc"
export_854:
00002E1A  4E56 0000                link       A6, 0
00002E1E  48E7 0308                movem.l    -[A7], D6,D7,A4
00002E22  3C2E 0012                move.w     D6, [A6 + 0x12]
00002E26  3E2E 000E                move.w     D7, [A6 + 0xE]
00002E2A  286E 0008                movea.l    A4, [A6 + 0x8]
00002E2E  48C7                     ext.l      D7
00002E30  2007                     move.l     D0, D7
00002E32  E988                     lsl        D0, 4
00002E34  3940 0216                move.w     [A4 + 0x216], D0
00002E38  D07C 0010                add.w      D0, 0x10
00002E3C  3940 021A                move.w     [A4 + 0x21A], D0
00002E40  48C6                     ext.l      D6
00002E42  2006                     move.l     D0, D6
00002E44  E988                     lsl        D0, 4
00002E46  3940 0214                move.w     [A4 + 0x214], D0
00002E4A  302C 0218                move.w     D0, [A4 + 0x218]
00002E4E  D07C 0010                add.w      D0, 0x10
00002E52  3940 0218                move.w     [A4 + 0x218], D0
00002E56  7001                     moveq.l    D0, 0x01
00002E58  2F00                     move.l     -[A7], D0
00002E5A  48C6                     ext.l      D6
00002E5C  2F06                     move.l     -[A7], D6
00002E5E  48C7                     ext.l      D7
00002E60  2F07                     move.l     -[A7], D7
00002E62  204C                     movea.l    A0, A4
00002E64  226C 0060                movea.l    A1, [A4 + 0x60]
00002E68  D0E9 0190                add.w      A0, [A1 + 0x190]
00002E6C  2F08                     move.l     -[A7], A0
00002E6E  2049                     movea.l    A0, A1
00002E70  2268 0194                movea.l    A1, [A0 + 0x194]
00002E74  4E91                     jsr        [A1]
00002E76  4CEE 10C0 FFF4           movem.l    D6,D7,A4, [A6 - 0xC]
00002E7C  4E5E                     unlink     A6
00002E7E  4E75                     rts
00002E80  9E48 694C 6974 6554 6... dc.b       "HiLiteTile__12cTileDocItemFsT1"
export_855:
00002EA2  4E56 0000                link       A6, 0
00002EA6  2F0C                     move.l     -[A7], A4
00002EA8  286E 0008                movea.l    A4, [A6 + 0x8]
00002EAC  7000                     moveq.l    D0, 0x00
00002EAE  2F00                     move.l     -[A7], D0
00002EB0  322E 0012                move.w     D1, [A6 + 0x12]
00002EB4  48C1                     ext.l      D1
00002EB6  2F01                     move.l     -[A7], D1
00002EB8  322E 000E                move.w     D1, [A6 + 0xE]
00002EBC  48C1                     ext.l      D1
00002EBE  2F01                     move.l     -[A7], D1
00002EC0  204C                     movea.l    A0, A4
00002EC2  226C 0060                movea.l    A1, [A4 + 0x60]
00002EC6  D0E9 0190                add.w      A0, [A1 + 0x190]
00002ECA  2F08                     move.l     -[A7], A0
00002ECC  2049                     movea.l    A0, A1
00002ECE  2268 0194                movea.l    A1, [A0 + 0x194]
00002ED2  4E91                     jsr        [A1]
00002ED4  397C FFFF 0216           move.w     [A4 + 0x216], 0xFFFF
00002EDA  286E FFFC                movea.l    A4, [A6 - 0x4]
00002EDE  4E5E                     unlink     A6
00002EE0  4E75                     rts
00002EE2  8020 556E 4869 4C69 7... dc.b       "UnHiLiteTile__12cTileDocItemFsT1"
export_856:
00002F06  4E56 0000                link       A6, 0
00002F0A  2F0C                     move.l     -[A7], A4
00002F0C  286E 0008                movea.l    A4, [A6 + 0x8]
00002F10  302E 000E                move.w     D0, [A6 + 0xE]
00002F14  48C0                     ext.l      D0
00002F16  322C 01D6                move.w     D1, [A4 + 0x1D6]
00002F1A  48C1                     ext.l      D1
00002F1C  D280                     add.l      D1, D0
00002F1E  206C 01DC                movea.l    A0, [A4 + 0x1DC]
00002F22  2050                     movea.l    A0, [A0]
00002F24  3028 0004                move.w     D0, [A0 + 0x4]
00002F28  48C0                     ext.l      D0
00002F2A  9280                     sub.l      D1, D0
00002F2C  302C 01FC                move.w     D0, [A4 + 0x1FC]
00002F30  48C0                     ext.l      D0
00002F32  4C40 1801                divs.l     D1:D1, D0
00002F36  206E 0010                movea.l    A0, [A6 + 0x10]
00002F3A  3081                     move.w     [A0], D1
00002F3C  302E 000C                move.w     D0, [A6 + 0xC]
00002F40  48C0                     ext.l      D0
00002F42  322C 01D4                move.w     D1, [A4 + 0x1D4]
00002F46  48C1                     ext.l      D1
00002F48  D280                     add.l      D1, D0
00002F4A  206C 01DC                movea.l    A0, [A4 + 0x1DC]
00002F4E  2050                     movea.l    A0, [A0]
00002F50  3028 0002                move.w     D0, [A0 + 0x2]
00002F54  48C0                     ext.l      D0
00002F56  9280                     sub.l      D1, D0
00002F58  302C 01FE                move.w     D0, [A4 + 0x1FE]
00002F5C  48C0                     ext.l      D0
00002F5E  4C40 1801                divs.l     D1:D1, D0
00002F62  206E 0014                movea.l    A0, [A6 + 0x14]
00002F66  3081                     move.w     [A0], D1
00002F68  286E FFFC                movea.l    A4, [A6 - 0x4]
00002F6C  4E5E                     unlink     A6
00002F6E  4E75                     rts
00002F70  8024 5768 6963 6854 6... dc.b       "WhichTile__12cTileDocItemF5PointRsT2"
export_857:
00002F98  4E56 FFE0                link       A6, -0x0020
00002F9C  48E7 0F18                movem.l    -[A7], D4,D5,D6,D7,A3,A4
00002FA0  3C2E 0012                move.w     D6, [A6 + 0x12]
00002FA4  3E2E 000E                move.w     D7, [A6 + 0xE]
00002FA8  286E 0008                movea.l    A4, [A6 + 0x8]
00002FAC  302C 01D6                move.w     D0, [A4 + 0x1D6]
00002FB0  48C0                     ext.l      D0
00002FB2  206C 01DC                movea.l    A0, [A4 + 0x1DC]
00002FB6  2050                     movea.l    A0, [A0]
00002FB8  3228 0008                move.w     D1, [A0 + 0x8]
00002FBC  48C1                     ext.l      D1
00002FBE  D280                     add.l      D1, D0
00002FC0  206C 01DC                movea.l    A0, [A4 + 0x1DC]
00002FC4  2050                     movea.l    A0, [A0]
00002FC6  3028 0004                move.w     D0, [A0 + 0x4]
00002FCA  48C0                     ext.l      D0
00002FCC  9280                     sub.l      D1, D0
00002FCE  302C 01FC                move.w     D0, [A4 + 0x1FC]
00002FD2  48C0                     ext.l      D0
00002FD4  4C40 1801                divs.l     D1:D1, D0
00002FD8  3D41 FFFA                move.w     [A6 - 0x6], D1
00002FDC  302C 01D4                move.w     D0, [A4 + 0x1D4]
00002FE0  48C0                     ext.l      D0
00002FE2  206C 01DC                movea.l    A0, [A4 + 0x1DC]
00002FE6  2050                     movea.l    A0, [A0]
00002FE8  3228 0006                move.w     D1, [A0 + 0x6]
00002FEC  48C1                     ext.l      D1
00002FEE  D280                     add.l      D1, D0
00002FF0  206C 01DC                movea.l    A0, [A4 + 0x1DC]
00002FF4  2050                     movea.l    A0, [A0]
00002FF6  3028 0002                move.w     D0, [A0 + 0x2]
00002FFA  48C0                     ext.l      D0
00002FFC  9280                     sub.l      D1, D0
00002FFE  302C 01FE                move.w     D0, [A4 + 0x1FE]
00003002  48C0                     ext.l      D0
00003004  4C40 1801                divs.l     D1:D1, D0
00003008  3D41 FFFC                move.w     [A6 - 0x4], D1
0000300C  302C 01D6                move.w     D0, [A4 + 0x1D6]
00003010  48C0                     ext.l      D0
00003012  81EC 01FC                divs.w     D0, [A4 + 0x1FC]
00003016  3800                     move.w     D4, D0
00003018  302C 01D4                move.w     D0, [A4 + 0x1D4]
0000301C  48C0                     ext.l      D0
0000301E  81EC 01FE                divs.w     D0, [A4 + 0x1FE]
00003022  3A00                     move.w     D5, D0
00003024  B847                     cmp.w      D4, D7
00003026  6E00 01CE                bgt        +0x1D0 /* 000031F6 */
0000302A  BE6E FFFA                cmp.w      D7, [A6 - 0x6]
0000302E  6E00 01C6                bgt        +0x1C8 /* 000031F6 */
00003032  BA46                     cmp.w      D5, D6
00003034  6E00 01C0                bgt        +0x1C2 /* 000031F6 */
00003038  BC6E FFFC                cmp.w      D6, [A6 - 0x4]
0000303C  6E00 01B8                bgt        +0x1BA /* 000031F6 */
00003040  2F2C 0112                move.l     -[A7], [A4 + 0x112]
00003044  4EAD 11E2                jsr        [A5 + 0x11E2 /* export_568, CODE:26 @ 000031FA */]
00003048  486E FFFE                pea.l      [A6 - 0x2]
0000304C  48C6                     ext.l      D6
0000304E  2F06                     move.l     -[A7], D6
00003050  204C                     movea.l    A0, A4
00003052  226C 0060                movea.l    A1, [A4 + 0x60]
00003056  D0E9 0188                add.w      A0, [A1 + 0x188]
0000305A  2F08                     move.l     -[A7], A0
0000305C  2049                     movea.l    A0, A1
0000305E  2268 018C                movea.l    A1, [A0 + 0x18C]
00003062  4E91                     jsr        [A1]
00003064  2D40 FFE0                move.l     [A6 - 0x20], D0
00003068  266C 020C                movea.l    A3, [A4 + 0x20C]
0000306C  598F                     subq.l     A7, 4
0000306E  206B 0018                movea.l    A0, [A3 + 0x18]
00003072  2F28 0002                move.l     -[A7], [A0 + 0x2]
00003076  203C 0004 000F           move.l     D0, 0x4000F
0000307C  AB1D                     syscall    QDExtensions
0000307E  2D5F FFE4                move.l     [A6 - 0x1C], [A7]+
00003082  266C 020C                movea.l    A3, [A4 + 0x20C]
00003086  206B 0018                movea.l    A0, [A3 + 0x18]
0000308A  2068 0002                movea.l    A0, [A0 + 0x2]
0000308E  2050                     movea.l    A0, [A0]
00003090  3028 0004                move.w     D0, [A0 + 0x4]
00003094  48C0                     ext.l      D0
00003096  323C 7FFF                move.w     D1, 0x7FFF
0000309A  C240                     and.w      D1, D0
0000309C  3D41 FFE8                move.w     [A6 - 0x18], D1
000030A0  3007                     move.w     D0, D7
000030A2  C1EE FFFE                muls.w     D0, [A6 - 0x2]
000030A6  D080                     add.l      D0, D0
000030A8  D1AE FFE0                add.l      [A6 - 0x20], D0
000030AC  48C7                     ext.l      D7
000030AE  48C4                     ext.l      D4
000030B0  2007                     move.l     D0, D7
000030B2  9084                     sub.l      D0, D4
000030B4  E988                     lsl        D0, 4
000030B6  D1AE FFE4                add.l      [A6 - 0x1C], D0
000030BA  48C6                     ext.l      D6
000030BC  48C5                     ext.l      D5
000030BE  2006                     move.l     D0, D6
000030C0  9085                     sub.l      D0, D5
000030C2  E988                     lsl        D0, 4
000030C4  322E FFE8                move.w     D1, [A6 - 0x18]
000030C8  48C1                     ext.l      D1
000030CA  4C00 1800                muls.l     D1, D0
000030CE  D3AE FFE4                add.l      [A6 - 0x1C], D1
000030D2  7000                     moveq.l    D0, 0x00
000030D4  302E FFE8                move.w     D0, [A6 - 0x18]
000030D8  2F00                     move.l     -[A7], D0
000030DA  2F2E FFE4                move.l     -[A7], [A6 - 0x1C]
000030DE  7001                     moveq.l    D0, 0x01
000030E0  2F00                     move.l     -[A7], D0
000030E2  2F2E FFE0                move.l     -[A7], [A6 - 0x20]
000030E6  2F0C                     move.l     -[A7], A4
000030E8  4EBA 043E                jsr        [PC + 0x43E /* 00003528 */]
000030EC  7000                     moveq.l    D0, 0x00
000030EE  2F00                     move.l     -[A7], D0
000030F0  2F00                     move.l     -[A7], D0
000030F2  2F2C 0112                move.l     -[A7], [A4 + 0x112]
000030F6  4EAD 1202                jsr        [A5 + 0x1202 /* export_572, CODE:26 @ 000033B8 */]
000030FA  2F2C 01DC                move.l     -[A7], [A4 + 0x1DC]
000030FE  2F2C 0112                move.l     -[A7], [A4 + 0x112]
00003102  4EAD 1272                jsr        [A5 + 0x1272 /* export_586, CODE:26 @ 00003912 */]
00003106  206C 01DC                movea.l    A0, [A4 + 0x1DC]
0000310A  2050                     movea.l    A0, [A0]
0000310C  43EE FFEA                lea.l      A1, [A6 - 0x16]
00003110  5488                     addq.l     A0, 2
00003112  22D8                     move.l     [A1]+, [A0]+
00003114  22D8                     move.l     [A1]+, [A0]+
00003116  266C 020C                movea.l    A3, [A4 + 0x20C]
0000311A  206B 0018                movea.l    A0, [A3 + 0x18]
0000311E  41E8 0010                lea.l      A0, [A0 + 0x10]
00003122  43EE FFF2                lea.l      A1, [A6 - 0xE]
00003126  22D8                     move.l     [A1]+, [A0]+
00003128  22D8                     move.l     [A1]+, [A0]+
0000312A  486E FFF2                pea.l      [A6 - 0xE]
0000312E  48C7                     ext.l      D7
00003130  48C4                     ext.l      D4
00003132  2007                     move.l     D0, D7
00003134  9084                     sub.l      D0, D4
00003136  E988                     lsl        D0, 4
00003138  3F00                     move.w     -[A7], D0
0000313A  48C6                     ext.l      D6
0000313C  48C5                     ext.l      D5
0000313E  2006                     move.l     D0, D6
00003140  9085                     sub.l      D0, D5
00003142  E988                     lsl        D0, 4
00003144  3F00                     move.w     -[A7], D0
00003146  A8A8                     syscall    OffsetRect
00003148  302E FFF4                move.w     D0, [A6 - 0xC]
0000314C  D07C 0010                add.w      D0, 0x10
00003150  3D40 FFF8                move.w     [A6 - 0x8], D0
00003154  302E FFF2                move.w     D0, [A6 - 0xE]
00003158  D07C 0010                add.w      D0, 0x10
0000315C  3D40 FFF6                move.w     [A6 - 0xA], D0
00003160  486E FFEA                pea.l      [A6 - 0x16]
00003164  48C7                     ext.l      D7
00003166  2007                     move.l     D0, D7
00003168  E988                     lsl        D0, 4
0000316A  906C 01D6                sub.w      D0, [A4 + 0x1D6]
0000316E  3F00                     move.w     -[A7], D0
00003170  48C6                     ext.l      D6
00003172  2006                     move.l     D0, D6
00003174  E988                     lsl        D0, 4
00003176  906C 01D4                sub.w      D0, [A4 + 0x1D4]
0000317A  3F00                     move.w     -[A7], D0
0000317C  A8A8                     syscall    OffsetRect
0000317E  302E FFEC                move.w     D0, [A6 - 0x14]
00003182  D07C 0010                add.w      D0, 0x10
00003186  3D40 FFF0                move.w     [A6 - 0x10], D0
0000318A  302E FFEA                move.w     D0, [A6 - 0x16]
0000318E  D07C 0010                add.w      D0, 0x10
00003192  3D40 FFEE                move.w     [A6 - 0x12], D0
00003196  266C 020C                movea.l    A3, [A4 + 0x20C]
0000319A  206B 0018                movea.l    A0, [A3 + 0x18]
0000319E  5488                     addq.l     A0, 2
000031A0  2F08                     move.l     -[A7], A0
000031A2  206C 0112                movea.l    A0, [A4 + 0x112]
000031A6  2068 0084                movea.l    A0, [A0 + 0x84]
000031AA  4868 0002                pea.l      [A0 + 0x2]
000031AE  486E FFF2                pea.l      [A6 - 0xE]
000031B2  486E FFEA                pea.l      [A6 - 0x16]
000031B6  7000                     moveq.l    D0, 0x00
000031B8  3F00                     move.w     -[A7], D0
000031BA  7200                     moveq.l    D1, 0x00
000031BC  2F01                     move.l     -[A7], D1
000031BE  A8EC                     syscall    CopyBits
000031C0  4A2E 0017                tst.b      [A6 + 0x17]
000031C4  4FEF 0038                lea.l      A7, [A7 + 0x38]
000031C8  670C                     beq        +0xE /* 000031D6 */
000031CA  486E FFEA                pea.l      [A6 - 0x16]
000031CE  2F0C                     move.l     -[A7], A4
000031D0  4EBA 04F2                jsr        [PC + 0x4F2 /* 000036C4 */]
000031D4  504F                     addq.w     A7, 8
label000031D6:
000031D6  7000                     moveq.l    D0, 0x00
000031D8  2F00                     move.l     -[A7], D0
000031DA  2F2C 0112                move.l     -[A7], [A4 + 0x112]
000031DE  4EAD 1282                jsr        [A5 + 0x1282 /* export_588, CODE:26 @ 00003A24 */]
000031E2  2F2C 0112                move.l     -[A7], [A4 + 0x112]
000031E6  4EAD 120A                jsr        [A5 + 0x120A /* export_573, CODE:26 @ 00003404 */]
000031EA  2F2C 0112                move.l     -[A7], [A4 + 0x112]
000031EE  4EAD 11EA                jsr        [A5 + 0x11EA /* export_569, CODE:26 @ 00003268 */]
000031F2  4FEF 0010                lea.l      A7, [A7 + 0x10]
label000031F6:
000031F6  4CEE 18F0 FFC8           movem.l    D4,D5,D6,D7,A3,A4, [A6 - 0x38]
000031FC  4E5E                     unlink     A6
000031FE  4E75                     rts
00003200  8023 466F 7263 6544 7... dc.b       "ForceDrawTile__12cTileDocItemFsT1Uc"
export_858:
00003228  4E56 FF84                link       A6, -0x007C
0000322C  48E7 0018                movem.l    -[A7], A3,A4
00003230  286E 0008                movea.l    A4, [A6 + 0x8]
00003234  52AC 0220                addq.l     [A4 + 0x220], 1
00003238  7000                     moveq.l    D0, 0x00
0000323A  2F00                     move.l     -[A7], D0
0000323C  2F00                     move.l     -[A7], D0
0000323E  2F2C 0112                move.l     -[A7], [A4 + 0x112]
00003242  4EAD 1202                jsr        [A5 + 0x1202 /* export_572, CODE:26 @ 000033B8 */]
00003246  206C 01DC                movea.l    A0, [A4 + 0x1DC]
0000324A  2050                     movea.l    A0, [A0]
0000324C  43EE FFF0                lea.l      A1, [A6 - 0x10]
00003250  5488                     addq.l     A0, 2
00003252  22D8                     move.l     [A1]+, [A0]+
00003254  22D8                     move.l     [A1]+, [A0]+
00003256  266C 020C                movea.l    A3, [A4 + 0x20C]
0000325A  206B 0018                movea.l    A0, [A3 + 0x18]
0000325E  41E8 0010                lea.l      A0, [A0 + 0x10]
00003262  43EE FFF8                lea.l      A1, [A6 - 0x8]
00003266  22D8                     move.l     [A1]+, [A0]+
00003268  22D8                     move.l     [A1]+, [A0]+
0000326A  486E FFF8                pea.l      [A6 - 0x8]
0000326E  302C 01D6                move.w     D0, [A4 + 0x1D6]
00003272  48C0                     ext.l      D0
00003274  81FC 0010                divs.w     D0, 0x10
00003278  4840                     swap.w     D0
0000327A  4880                     ext.w      D0
0000327C  3F00                     move.w     -[A7], D0
0000327E  302C 01D4                move.w     D0, [A4 + 0x1D4]
00003282  48C0                     ext.l      D0
00003284  81FC 0010                divs.w     D0, 0x10
00003288  4840                     swap.w     D0
0000328A  4880                     ext.w      D0
0000328C  3F00                     move.w     -[A7], D0
0000328E  A8A8                     syscall    OffsetRect
00003290  302E FFFA                move.w     D0, [A6 - 0x6]
00003294  48C0                     ext.l      D0
00003296  322E FFF6                move.w     D1, [A6 - 0xA]
0000329A  48C1                     ext.l      D1
0000329C  D280                     add.l      D1, D0
0000329E  926E FFF2                sub.w      D1, [A6 - 0xE]
000032A2  3D41 FFFE                move.w     [A6 - 0x2], D1
000032A6  302E FFF8                move.w     D0, [A6 - 0x8]
000032AA  48C0                     ext.l      D0
000032AC  322E FFF4                move.w     D1, [A6 - 0xC]
000032B0  48C1                     ext.l      D1
000032B2  D280                     add.l      D1, D0
000032B4  926E FFF0                sub.w      D1, [A6 - 0x10]
000032B8  3D41 FFFC                move.w     [A6 - 0x4], D1
000032BC  2F3C 00FF FFFF           move.l     -[A7], 0xFFFFFF
000032C2  7000                     moveq.l    D0, 0x00
000032C4  2F00                     move.l     -[A7], D0
000032C6  486E FF84                pea.l      [A6 - 0x7C]
000032CA  4EAD 15AA                jsr        [A5 + 0x15AA /* export_689, CODE:32 @ 0000234A */]
000032CE  7000                     moveq.l    D0, 0x00
000032D0  2F00                     move.l     -[A7], D0
000032D2  2F00                     move.l     -[A7], D0
000032D4  486E FFB6                pea.l      [A6 - 0x4A]
000032D8  4EAD 15AA                jsr        [A5 + 0x15AA /* export_689, CODE:32 @ 0000234A */]
000032DC  486E FF84                pea.l      [A6 - 0x7C]
000032E0  AA15                     syscall    RGBBackColor
000032E2  486E FFB6                pea.l      [A6 - 0x4A]
000032E6  AA14                     syscall    RGBForeColor
000032E8  266C 020C                movea.l    A3, [A4 + 0x20C]
000032EC  206B 0018                movea.l    A0, [A3 + 0x18]
000032F0  5488                     addq.l     A0, 2
000032F2  2F08                     move.l     -[A7], A0
000032F4  206C 0112                movea.l    A0, [A4 + 0x112]
000032F8  2068 0084                movea.l    A0, [A0 + 0x84]
000032FC  4868 0002                pea.l      [A0 + 0x2]
00003300  486E FFF8                pea.l      [A6 - 0x8]
00003304  486E FFF0                pea.l      [A6 - 0x10]
00003308  7000                     moveq.l    D0, 0x00
0000330A  3F00                     move.w     -[A7], D0
0000330C  7200                     moveq.l    D1, 0x00
0000330E  2F01                     move.l     -[A7], D1
00003310  A8EC                     syscall    CopyBits
00003312  41EE FFE8                lea.l      A0, [A6 - 0x18]
00003316  43EC 0214                lea.l      A1, [A4 + 0x214]
0000331A  20D9                     move.l     [A0]+, [A1]+
0000331C  20D9                     move.l     [A0]+, [A1]+
0000331E  70FF                     moveq.l    D0, 0xFFFFFFFF
00003320  B06E FFEA                cmp.w      D0, [A6 - 0x16]
00003324  4FEF 0024                lea.l      A7, [A7 + 0x24]
00003328  6732                     beq        +0x34 /* 0000335C */
0000332A  486E FFE8                pea.l      [A6 - 0x18]
0000332E  206C 01DC                movea.l    A0, [A4 + 0x1DC]
00003332  2050                     movea.l    A0, [A0]
00003334  3028 0004                move.w     D0, [A0 + 0x4]
00003338  906C 01D6                sub.w      D0, [A4 + 0x1D6]
0000333C  3F00                     move.w     -[A7], D0
0000333E  206C 01DC                movea.l    A0, [A4 + 0x1DC]
00003342  2050                     movea.l    A0, [A0]
00003344  3028 0002                move.w     D0, [A0 + 0x2]
00003348  906C 01D4                sub.w      D0, [A4 + 0x1D4]
0000334C  3F00                     move.w     -[A7], D0
0000334E  A8A8                     syscall    OffsetRect
00003350  486E FFE8                pea.l      [A6 - 0x18]
00003354  2F0C                     move.l     -[A7], A4
00003356  4EBA 036C                jsr        [PC + 0x36C /* 000036C4 */]
0000335A  504F                     addq.w     A7, 8
label0000335C:
0000335C  2F2C 0112                move.l     -[A7], [A4 + 0x112]
00003360  4EAD 120A                jsr        [A5 + 0x120A /* export_573, CODE:26 @ 00003404 */]
00003364  7002                     moveq.l    D0, 0x02
00003366  2F00                     move.l     -[A7], D0
00003368  486E FFB6                pea.l      [A6 - 0x4A]
0000336C  4EAD 15D2                jsr        [A5 + 0x15D2 /* export_694, CODE:32 @ 000029D6 */]
00003370  7002                     moveq.l    D0, 0x02
00003372  2F00                     move.l     -[A7], D0
00003374  486E FF84                pea.l      [A6 - 0x7C]
00003378  4EAD 15D2                jsr        [A5 + 0x15D2 /* export_694, CODE:32 @ 000029D6 */]
0000337C  4FEF 0014                lea.l      A7, [A7 + 0x14]
00003380  4CEE 1800 FF7C           movem.l    A3,A4, [A6 - 0x84]
00003386  4E5E                     unlink     A6
00003388  4E75                     rts
0000338A  9A44 7261 7748 6F6F 6... dc.b       "DrawHook__12cTileDocItemFv"
export_859:
000033A8  4E56 FFF4                link       A6, -0x000C
000033AC  48E7 0F18                movem.l    -[A7], D4,D5,D6,D7,A3,A4
000033B0  286E 0008                movea.l    A4, [A6 + 0x8]
000033B4  302C 01D6                move.w     D0, [A4 + 0x1D6]
000033B8  48C0                     ext.l      D0
000033BA  206C 01DC                movea.l    A0, [A4 + 0x1DC]
000033BE  2050                     movea.l    A0, [A0]
000033C0  3228 0008                move.w     D1, [A0 + 0x8]
000033C4  48C1                     ext.l      D1
000033C6  D280                     add.l      D1, D0
000033C8  206C 01DC                movea.l    A0, [A4 + 0x1DC]
000033CC  2050                     movea.l    A0, [A0]
000033CE  3028 0004                move.w     D0, [A0 + 0x4]
000033D2  48C0                     ext.l      D0
000033D4  9280                     sub.l      D1, D0
000033D6  302C 01FC                move.w     D0, [A4 + 0x1FC]
000033DA  48C0                     ext.l      D0
000033DC  4C40 1801                divs.l     D1:D1, D0
000033E0  3C01                     move.w     D6, D1
000033E2  302C 01D4                move.w     D0, [A4 + 0x1D4]
000033E6  48C0                     ext.l      D0
000033E8  206C 01DC                movea.l    A0, [A4 + 0x1DC]
000033EC  2050                     movea.l    A0, [A0]
000033EE  3228 0006                move.w     D1, [A0 + 0x6]
000033F2  48C1                     ext.l      D1
000033F4  D280                     add.l      D1, D0
000033F6  206C 01DC                movea.l    A0, [A4 + 0x1DC]
000033FA  2050                     movea.l    A0, [A0]
000033FC  3028 0002                move.w     D0, [A0 + 0x2]
00003400  48C0                     ext.l      D0
00003402  9280                     sub.l      D1, D0
00003404  302C 01FE                move.w     D0, [A4 + 0x1FE]
00003408  48C0                     ext.l      D0
0000340A  4C40 1801                divs.l     D1:D1, D0
0000340E  3A01                     move.w     D5, D1
00003410  302C 01D6                move.w     D0, [A4 + 0x1D6]
00003414  48C0                     ext.l      D0
00003416  81EC 01FC                divs.w     D0, [A4 + 0x1FC]
0000341A  3D40 FFF4                move.w     [A6 - 0xC], D0
0000341E  302C 01D4                move.w     D0, [A4 + 0x1D4]
00003422  48C0                     ext.l      D0
00003424  81EC 01FE                divs.w     D0, [A4 + 0x1FE]
00003428  3E00                     move.w     D7, D0
0000342A  48C5                     ext.l      D5
0000342C  48C7                     ext.l      D7
0000342E  2005                     move.l     D0, D5
00003430  9087                     sub.l      D0, D7
00003432  3800                     move.w     D4, D0
00003434  5244                     addq.w     D4, 1
00003436  0C46 005F                cmpi.w     D6, 0x5F /* '_' */
0000343A  6F02                     ble        +0x4 /* 0000343E */
0000343C  7C5F                     moveq.l    D6, 0x5F
label0000343E:
0000343E  0C45 005F                cmpi.w     D5, 0x5F /* '_' */
00003442  6F02                     ble        +0x4 /* 00003446 */
00003444  7A5F                     moveq.l    D5, 0x5F
label00003446:
00003446  486E FFF6                pea.l      [A6 - 0xA]
0000344A  48C7                     ext.l      D7
0000344C  2F07                     move.l     -[A7], D7
0000344E  204C                     movea.l    A0, A4
00003450  226C 0060                movea.l    A1, [A4 + 0x60]
00003454  D0E9 0188                add.w      A0, [A1 + 0x188]
00003458  2F08                     move.l     -[A7], A0
0000345A  2049                     movea.l    A0, A1
0000345C  2268 018C                movea.l    A1, [A0 + 0x18C]
00003460  4E91                     jsr        [A1]
00003462  2D40 FFF8                move.l     [A6 - 0x8], D0
00003466  266C 020C                movea.l    A3, [A4 + 0x20C]
0000346A  598F                     subq.l     A7, 4
0000346C  206B 0018                movea.l    A0, [A3 + 0x18]
00003470  2F28 0002                move.l     -[A7], [A0 + 0x2]
00003474  203C 0004 000F           move.l     D0, 0x4000F
0000347A  AB1D                     syscall    QDExtensions
0000347C  2D5F FFFC                move.l     [A6 - 0x4], [A7]+
00003480  266C 020C                movea.l    A3, [A4 + 0x20C]
00003484  206B 0018                movea.l    A0, [A3 + 0x18]
00003488  2068 0002                movea.l    A0, [A0 + 0x2]
0000348C  2050                     movea.l    A0, [A0]
0000348E  3028 0004                move.w     D0, [A0 + 0x4]
00003492  48C0                     ext.l      D0
00003494  323C 7FFF                move.w     D1, 0x7FFF
00003498  C240                     and.w      D1, D0
0000349A  3A01                     move.w     D5, D1
0000349C  302E FFF4                move.w     D0, [A6 - 0xC]
000034A0  C1EE FFF6                muls.w     D0, [A6 - 0xA]
000034A4  D080                     add.l      D0, D0
000034A6  D1AE FFF8                add.l      [A6 - 0x8], D0
000034AA  3E2E FFF4                move.w     D7, [A6 - 0xC]
000034AE  4FEF 000C                lea.l      A7, [A7 + 0xC]
000034B2  6034                     bra        +0x36 /* 000034E8 */
label000034B4:
000034B4  7000                     moveq.l    D0, 0x00
000034B6  3005                     move.w     D0, D5
000034B8  2F00                     move.l     -[A7], D0
000034BA  2F2E FFFC                move.l     -[A7], [A6 - 0x4]
000034BE  48C4                     ext.l      D4
000034C0  2F04                     move.l     -[A7], D4
000034C2  2F2E FFF8                move.l     -[A7], [A6 - 0x8]
000034C6  2F0C                     move.l     -[A7], A4
000034C8  4EBA 005E                jsr        [PC + 0x5E /* 00003528 */]
000034CC  06AE 0000 0010 FFFC      addi.l     [A6 - 0x4], 0x10
000034D4  302E FFF6                move.w     D0, [A6 - 0xA]
000034D8  48C0                     ext.l      D0
000034DA  D080                     add.l      D0, D0
000034DC  D1AE FFF8                add.l      [A6 - 0x8], D0
000034E0  4FEF 0014                lea.l      A7, [A7 + 0x14]
000034E4  3007                     move.w     D0, D7
000034E6  5247                     addq.w     D7, 1
label000034E8:
000034E8  BC47                     cmp.w      D6, D7
000034EA  6CC8                     bge        -0x36 /* 000034B4 */
000034EC  4CEE 18F0 FFDC           movem.l    D4,D5,D6,D7,A3,A4, [A6 - 0x24]
000034F2  4E5E                     unlink     A6
000034F4  4E75                     rts
000034F6  802E 426C 6173 7456 6... dc.b       "BlastVisibleTilesToImagePort__12cTileDocItemFv"
export_860:
fn00003528:
00003528  4E56 FFEC                link       A6, -0x0014
0000352C  48E7 1F18                movem.l    -[A7], D3,D4,D5,D6,D7,A3,A4
00003530  382E 0012                move.w     D4, [A6 + 0x12]
00003534  3C2E 001A                move.w     D6, [A6 + 0x1A]
00003538  266E 0008                movea.l    A3, [A6 + 0x8]
0000353C  286E 0014                movea.l    A4, [A6 + 0x14]
00003540  6000 0148                bra        +0x14A /* 0000368A */
label00003544:
00003544  206E 000C                movea.l    A0, [A6 + 0xC]
00003548  7000                     moveq.l    D0, 0x00
0000354A  3010                     move.w     D0, [A0]
0000354C  323C 4000                move.w     D1, 0x4000 /* '@\0' */
00003550  C240                     and.w      D1, D0
00003552  7000                     moveq.l    D0, 0x00
00003554  3001                     move.w     D0, D1
00003556  4A80                     tst.l      D0
00003558  6600 0120                bne        +0x122 /* 0000367A */
0000355C  7000                     moveq.l    D0, 0x00
0000355E  3010                     move.w     D0, [A0]
00003560  323C 0800                move.w     D1, 0x800
00003564  C240                     and.w      D1, D0
00003566  6608                     bne        +0xA /* 00003570 */
00003568  0050 4000                ori.w      [A0], 0x4000 /* '@\0' */
0000356C  52AB 021C                addq.l     [A3 + 0x21C], 1
label00003570:
00003570  206E 000C                movea.l    A0, [A6 + 0xC]
00003574  302B 0212                move.w     D0, [A3 + 0x212]
00003578  C050                     and.w      D0, [A0]
0000357A  7200                     moveq.l    D1, 0x00
0000357C  3200                     move.w     D1, D0
0000357E  302B 0200                move.w     D0, [A3 + 0x200]
00003582  48C0                     ext.l      D0
00003584  4C40 1802                divs.l     D2:D1, D0
00003588  E982                     asl        D2, 4
0000358A  2A02                     move.l     D5, D2
0000358C  206E 000C                movea.l    A0, [A6 + 0xC]
00003590  302B 0212                move.w     D0, [A3 + 0x212]
00003594  C050                     and.w      D0, [A0]
00003596  7200                     moveq.l    D1, 0x00
00003598  3200                     move.w     D1, D0
0000359A  302B 0200                move.w     D0, [A3 + 0x200]
0000359E  48C0                     ext.l      D0
000035A0  4C40 1801                divs.l     D1:D1, D0
000035A4  E981                     asl        D1, 4
000035A6  206B 0208                movea.l    A0, [A3 + 0x208]
000035AA  2D48 FFF8                move.l     [A6 - 0x8], A0
000035AE  2068 0018                movea.l    A0, [A0 + 0x18]
000035B2  2068 0002                movea.l    A0, [A0 + 0x2]
000035B6  2050                     movea.l    A0, [A0]
000035B8  3028 0004                move.w     D0, [A0 + 0x4]
000035BC  48C0                     ext.l      D0
000035BE  343C 7FFF                move.w     D2, 0x7FFF
000035C2  C440                     and.w      D2, D0
000035C4  7000                     moveq.l    D0, 0x00
000035C6  3002                     move.w     D0, D2
000035C8  4A80                     tst.l      D0
000035CA  4C01 0800                muls.l     D0, D1
000035CE  DA80                     add.l      D5, D0
000035D0  2D6B 0208 FFFC           move.l     [A6 - 0x4], [A3 + 0x208]
000035D6  598F                     subq.l     A7, 4
000035D8  206E FFFC                movea.l    A0, [A6 - 0x4]
000035DC  2068 0018                movea.l    A0, [A0 + 0x18]
000035E0  2F28 0002                move.l     -[A7], [A0 + 0x2]
000035E4  203C 0004 000F           move.l     D0, 0x4000F
000035EA  AB1D                     syscall    QDExtensions
000035EC  2005                     move.l     D0, D5
000035EE  D09F                     add.l      D0, [A7]+
000035F0  2D40 FFF4                move.l     [A6 - 0xC], D0
000035F4  4247                     clr.w      D7
000035F6  7610                     moveq.l    D3, 0x10
000035F8  607A                     bra        +0x7C /* 00003674 */
label000035FA:
000035FA  2D6E FFF4 FFEC           move.l     [A6 - 0x14], [A6 - 0xC]
00003600  2D6E 0014 FFF0           move.l     [A6 - 0x10], [A6 + 0x14]
00003606  206E FFEC                movea.l    A0, [A6 - 0x14]
0000360A  58AE FFEC                addq.l     [A6 - 0x14], 4
0000360E  226E FFF0                movea.l    A1, [A6 - 0x10]
00003612  58AE FFF0                addq.l     [A6 - 0x10], 4
00003616  2290                     move.l     [A1], [A0]
00003618  206E FFEC                movea.l    A0, [A6 - 0x14]
0000361C  58AE FFEC                addq.l     [A6 - 0x14], 4
00003620  226E FFF0                movea.l    A1, [A6 - 0x10]
00003624  58AE FFF0                addq.l     [A6 - 0x10], 4
00003628  2290                     move.l     [A1], [A0]
0000362A  206E FFEC                movea.l    A0, [A6 - 0x14]
0000362E  58AE FFEC                addq.l     [A6 - 0x14], 4
00003632  226E FFF0                movea.l    A1, [A6 - 0x10]
00003636  58AE FFF0                addq.l     [A6 - 0x10], 4
0000363A  2290                     move.l     [A1], [A0]
0000363C  206E FFEC                movea.l    A0, [A6 - 0x14]
00003640  226E FFF0                movea.l    A1, [A6 - 0x10]
00003644  2290                     move.l     [A1], [A0]
00003646  286B 0208                movea.l    A4, [A3 + 0x208]
0000364A  206C 0018                movea.l    A0, [A4 + 0x18]
0000364E  2068 0002                movea.l    A0, [A0 + 0x2]
00003652  2050                     movea.l    A0, [A0]
00003654  3028 0004                move.w     D0, [A0 + 0x4]
00003658  48C0                     ext.l      D0
0000365A  323C 7FFF                move.w     D1, 0x7FFF
0000365E  C240                     and.w      D1, D0
00003660  7000                     moveq.l    D0, 0x00
00003662  3001                     move.w     D0, D1
00003664  D1AE FFF4                add.l      [A6 - 0xC], D0
00003668  7000                     moveq.l    D0, 0x00
0000366A  3006                     move.w     D0, D6
0000366C  D1AE 0014                add.l      [A6 + 0x14], D0
00003670  3007                     move.w     D0, D7
00003672  5247                     addq.w     D7, 1
label00003674:
00003674  B647                     cmp.w      D3, D7
00003676  6E82                     bgt        -0x7C /* 000035FA */
00003678  600A                     bra        +0xC /* 00003684 */
label0000367A:
0000367A  7000                     moveq.l    D0, 0x00
0000367C  3006                     move.w     D0, D6
0000367E  E988                     lsl        D0, 4
00003680  D1AE 0014                add.l      [A6 + 0x14], D0
label00003684:
00003684  54AE 000C                addq.l     [A6 + 0xC], 2
00003688  5344                     subq.w     D4, 1
label0000368A:
0000368A  4A44                     tst.w      D4
0000368C  6E00 FEB6                bgt        -0x148 /* 00003544 */
00003690  4CEE 18F8 FFD0           movem.l    D3,D4,D5,D6,D7,A3,A4, [A6 - 0x30]
00003696  4E5E                     unlink     A6
00003698  4E75                     rts
0000369A  8026 4472 6177 5469 6... dc.b       "DrawTileStrip__12cTileDocItemFPUssPcUs"
export_861:
fn000036C4:
000036C4  4E56 FFE6                link       A6, -0x001A
000036C8  486E FFE6                pea.l      [A6 - 0x1A]
000036CC  A898                     syscall    GetPenState
000036CE  1D7C 0055 FFF8           move.b     [A6 - 0x8], 0x55 /* 'U' */
000036D4  1D7C 00AA FFF9           move.b     [A6 - 0x7], 0xAA
000036DA  1D7C 0055 FFFA           move.b     [A6 - 0x6], 0x55 /* 'U' */
000036E0  1D7C 00AA FFFB           move.b     [A6 - 0x5], 0xAA
000036E6  1D7C 0055 FFFC           move.b     [A6 - 0x4], 0x55 /* 'U' */
000036EC  1D7C 00AA FFFD           move.b     [A6 - 0x3], 0xAA
000036F2  1D7C 0055 FFFE           move.b     [A6 - 0x2], 0x55 /* 'U' */
000036F8  1D7C 00AA FFFF           move.b     [A6 - 0x1], 0xAA
000036FE  486E FFF8                pea.l      [A6 - 0x8]
00003702  A89D                     syscall    PenPat
00003704  700A                     moveq.l    D0, 0x0A
00003706  3F00                     move.w     -[A7], D0
00003708  A89C                     syscall    PenMode
0000370A  7002                     moveq.l    D0, 0x02
0000370C  3F00                     move.w     -[A7], D0
0000370E  3F00                     move.w     -[A7], D0
00003710  A89B                     syscall    PenSize
00003712  2F2E 000C                move.l     -[A7], [A6 + 0xC]
00003716  A8A1                     syscall    FrameRect
00003718  486E FFE6                pea.l      [A6 - 0x1A]
0000371C  A899                     syscall    SetPenState
0000371E  4E5E                     unlink     A6
00003720  4E75                     rts
00003722  8023 446F 5469 6C65 4... dc.b       "DoTileHiLite__12cTileDocItemFR4Rect"
export_862:
0000374A  4E56 FFB2                link       A6, -0x004E
0000374E  48E7 0F18                movem.l    -[A7], D4,D5,D6,D7,A3,A4
00003752  266E 0010                movea.l    A3, [A6 + 0x10]
00003756  382E 000E                move.w     D4, [A6 + 0xE]
0000375A  286E 0008                movea.l    A4, [A6 + 0x8]
0000375E  2053                     movea.l    A0, [A3]
00003760  43EE FFE2                lea.l      A1, [A6 - 0x1E]
00003764  5488                     addq.l     A0, 2
00003766  22D8                     move.l     [A1]+, [A0]+
00003768  22D8                     move.l     [A1]+, [A0]+
0000376A  486E FFE2                pea.l      [A6 - 0x1E]
0000376E  302E FFE4                move.w     D0, [A6 - 0x1C]
00003772  48C0                     ext.l      D0
00003774  4480                     neg.l      D0
00003776  3F00                     move.w     -[A7], D0
00003778  302E FFE2                move.w     D0, [A6 - 0x1E]
0000377C  48C0                     ext.l      D0
0000377E  4480                     neg.l      D0
00003780  3F00                     move.w     -[A7], D0
00003782  A8A8                     syscall    OffsetRect
00003784  7000                     moveq.l    D0, 0x00
00003786  2F00                     move.l     -[A7], D0
00003788  2F00                     move.l     -[A7], D0
0000378A  2F00                     move.l     -[A7], D0
0000378C  7208                     moveq.l    D1, 0x08
0000378E  2F01                     move.l     -[A7], D1
00003790  486E FFE2                pea.l      [A6 - 0x1E]
00003794  2F00                     move.l     -[A7], D0
00003796  4EAD 1722                jsr        [A5 + 0x1722 /* export_736, CODE:32 @ 00004320 */]
0000379A  2D40 FFEA                move.l     [A6 - 0x16], D0
0000379E  2F00                     move.l     -[A7], D0
000037A0  4EAD 1732                jsr        [A5 + 0x1732 /* export_738, CODE:32 @ 000044E0 */]
000037A4  206E FFEA                movea.l    A0, [A6 - 0x16]
000037A8  4868 001C                pea.l      [A0 + 0x1C]
000037AC  4868 0020                pea.l      [A0 + 0x20]
000037B0  203C 0008 0005           move.l     D0, 0x80005
000037B6  AB1D                     syscall    QDExtensions
000037B8  206E FFEA                movea.l    A0, [A6 - 0x16]
000037BC  2F28 0018                move.l     -[A7], [A0 + 0x18]
000037C0  7000                     moveq.l    D0, 0x00
000037C2  2F00                     move.l     -[A7], D0
000037C4  203C 0008 0006           move.l     D0, 0x80006
000037CA  AB1D                     syscall    QDExtensions
000037CC  206E FFEA                movea.l    A0, [A6 - 0x16]
000037D0  2068 0018                movea.l    A0, [A0 + 0x18]
000037D4  4868 0010                pea.l      [A0 + 0x10]
000037D8  A8A3                     syscall    EraseRect
000037DA  2F0B                     move.l     -[A7], A3
000037DC  206E FFEA                movea.l    A0, [A6 - 0x16]
000037E0  2068 0018                movea.l    A0, [A0 + 0x18]
000037E4  4868 0010                pea.l      [A0 + 0x10]
000037E8  A8F6                     syscall    DrawPicture
000037EA  206E FFEA                movea.l    A0, [A6 - 0x16]
000037EE  2F28 001C                move.l     -[A7], [A0 + 0x1C]
000037F2  2F28 0020                move.l     -[A7], [A0 + 0x20]
000037F6  203C 0008 0006           move.l     D0, 0x80006
000037FC  AB1D                     syscall    QDExtensions
000037FE  2053                     movea.l    A0, [A3]
00003800  3028 0008                move.w     D0, [A0 + 0x8]
00003804  48C0                     ext.l      D0
00003806  3228 0004                move.w     D1, [A0 + 0x4]
0000380A  48C1                     ext.l      D1
0000380C  9081                     sub.l      D0, D1
0000380E  322C 01FC                move.w     D1, [A4 + 0x1FC]
00003812  48C1                     ext.l      D1
00003814  4C41 0800                divs.l     D0:D0, D1
00003818  3D40 FFFE                move.w     [A6 - 0x2], D0
0000381C  4245                     clr.w      D5
0000381E  4FEF 001C                lea.l      A7, [A7 + 0x1C]
00003822  6000 027A                bra        +0x27C /* 00003A9E */
label00003826:
00003826  7000                     moveq.l    D0, 0x00
00003828  3004                     move.w     D0, D4
0000382A  322C 0200                move.w     D1, [A4 + 0x200]
0000382E  48C1                     ext.l      D1
00003830  4C41 0802                divs.l     D2:D0, D1
00003834  302C 01FC                move.w     D0, [A4 + 0x1FC]
00003838  48C0                     ext.l      D0
0000383A  4C02 0800                muls.l     D0, D2
0000383E  3D40 FFF0                move.w     [A6 - 0x10], D0
00003842  7000                     moveq.l    D0, 0x00
00003844  3004                     move.w     D0, D4
00003846  322C 0200                move.w     D1, [A4 + 0x200]
0000384A  48C1                     ext.l      D1
0000384C  4C41 0800                divs.l     D0:D0, D1
00003850  322C 01FE                move.w     D1, [A4 + 0x1FE]
00003854  48C1                     ext.l      D1
00003856  4C00 1800                muls.l     D1, D0
0000385A  3D41 FFEE                move.w     [A6 - 0x12], D1
0000385E  302C 01FC                move.w     D0, [A4 + 0x1FC]
00003862  D06E FFF0                add.w      D0, [A6 - 0x10]
00003866  3D40 FFF4                move.w     [A6 - 0xC], D0
0000386A  302C 01FE                move.w     D0, [A4 + 0x1FE]
0000386E  D06E FFEE                add.w      D0, [A6 - 0x12]
00003872  3D40 FFF2                move.w     [A6 - 0xE], D0
00003876  302C 01FC                move.w     D0, [A4 + 0x1FC]
0000387A  C1C5                     muls.w     D0, D5
0000387C  3D40 FFF8                move.w     [A6 - 0x8], D0
00003880  302C 01FC                move.w     D0, [A4 + 0x1FC]
00003884  D06E FFF8                add.w      D0, [A6 - 0x8]
00003888  3D40 FFFC                move.w     [A6 - 0x4], D0
0000388C  206E 0014                movea.l    A0, [A6 + 0x14]
00003890  3D50 FFF6                move.w     [A6 - 0xA], [A0]
00003894  3D68 0004 FFFA           move.w     [A6 - 0x6], [A0 + 0x4]
0000389A  206C 0208                movea.l    A0, [A4 + 0x208]
0000389E  2D48 FFD6                move.l     [A6 - 0x2A], A0
000038A2  4868 001C                pea.l      [A0 + 0x1C]
000038A6  4868 0020                pea.l      [A0 + 0x20]
000038AA  203C 0008 0005           move.l     D0, 0x80005
000038B0  AB1D                     syscall    QDExtensions
000038B2  206E FFD6                movea.l    A0, [A6 - 0x2A]
000038B6  2F28 0018                move.l     -[A7], [A0 + 0x18]
000038BA  7000                     moveq.l    D0, 0x00
000038BC  2F00                     move.l     -[A7], D0
000038BE  203C 0008 0006           move.l     D0, 0x80006
000038C4  AB1D                     syscall    QDExtensions
000038C6  486E FFEE                pea.l      [A6 - 0x12]
000038CA  A8A3                     syscall    EraseRect
000038CC  206C 0208                movea.l    A0, [A4 + 0x208]
000038D0  2D48 FFDA                move.l     [A6 - 0x26], A0
000038D4  2F28 001C                move.l     -[A7], [A0 + 0x1C]
000038D8  2F28 0020                move.l     -[A7], [A0 + 0x20]
000038DC  203C 0008 0006           move.l     D0, 0x80006
000038E2  AB1D                     syscall    QDExtensions
000038E4  206C 0208                movea.l    A0, [A4 + 0x208]
000038E8  2D48 FFDE                move.l     [A6 - 0x22], A0
000038EC  2068 0018                movea.l    A0, [A0 + 0x18]
000038F0  41E8 0010                lea.l      A0, [A0 + 0x10]
000038F4  43EE FFCE                lea.l      A1, [A6 - 0x32]
000038F8  22D8                     move.l     [A1]+, [A0]+
000038FA  22D8                     move.l     [A1]+, [A0]+
000038FC  302E FFF4                move.w     D0, [A6 - 0xC]
00003900  B06E FFD4                cmp.w      D0, [A6 - 0x2C]
00003904  6E00 018A                bgt        +0x18C /* 00003A90 */
00003908  302E FFF0                move.w     D0, [A6 - 0x10]
0000390C  B06E FFD0                cmp.w      D0, [A6 - 0x30]
00003910  6D00 017E                blt        +0x180 /* 00003A90 */
00003914  302E FFF2                move.w     D0, [A6 - 0xE]
00003918  B06E FFD2                cmp.w      D0, [A6 - 0x2E]
0000391C  6E00 0172                bgt        +0x174 /* 00003A90 */
00003920  302E FFEE                move.w     D0, [A6 - 0x12]
00003924  B06E FFCE                cmp.w      D0, [A6 - 0x32]
00003928  6D00 0166                blt        +0x168 /* 00003A90 */
0000392C  2D6C 0208 FFCA           move.l     [A6 - 0x36], [A4 + 0x208]
00003932  598F                     subq.l     A7, 4
00003934  206E FFCA                movea.l    A0, [A6 - 0x36]
00003938  2068 0018                movea.l    A0, [A0 + 0x18]
0000393C  2F28 0002                move.l     -[A7], [A0 + 0x2]
00003940  203C 0004 000F           move.l     D0, 0x4000F
00003946  AB1D                     syscall    QDExtensions
00003948  2D5F FFBE                move.l     [A6 - 0x42], [A7]+
0000394C  302E FFF0                move.w     D0, [A6 - 0x10]
00003950  48C0                     ext.l      D0
00003952  D1AE FFBE                add.l      [A6 - 0x42], D0
00003956  302E FFEE                move.w     D0, [A6 - 0x12]
0000395A  48C0                     ext.l      D0
0000395C  206C 0208                movea.l    A0, [A4 + 0x208]
00003960  2D48 FFC6                move.l     [A6 - 0x3A], A0
00003964  2068 0018                movea.l    A0, [A0 + 0x18]
00003968  2068 0002                movea.l    A0, [A0 + 0x2]
0000396C  2050                     movea.l    A0, [A0]
0000396E  3228 0004                move.w     D1, [A0 + 0x4]
00003972  48C1                     ext.l      D1
00003974  343C 7FFF                move.w     D2, 0x7FFF
00003978  C441                     and.w      D2, D1
0000397A  7200                     moveq.l    D1, 0x00
0000397C  3202                     move.w     D1, D2
0000397E  4A81                     tst.l      D1
00003980  4C00 1800                muls.l     D1, D0
00003984  D3AE FFBE                add.l      [A6 - 0x42], D1
00003988  598F                     subq.l     A7, 4
0000398A  206E FFEA                movea.l    A0, [A6 - 0x16]
0000398E  2068 0018                movea.l    A0, [A0 + 0x18]
00003992  2F28 0002                move.l     -[A7], [A0 + 0x2]
00003996  203C 0004 000F           move.l     D0, 0x4000F
0000399C  AB1D                     syscall    QDExtensions
0000399E  2D5F FFC2                move.l     [A6 - 0x3E], [A7]+
000039A2  302E FFF8                move.w     D0, [A6 - 0x8]
000039A6  48C0                     ext.l      D0
000039A8  D1AE FFC2                add.l      [A6 - 0x3E], D0
000039AC  302E FFF6                move.w     D0, [A6 - 0xA]
000039B0  48C0                     ext.l      D0
000039B2  206E FFEA                movea.l    A0, [A6 - 0x16]
000039B6  2068 0018                movea.l    A0, [A0 + 0x18]
000039BA  2068 0002                movea.l    A0, [A0 + 0x2]
000039BE  2050                     movea.l    A0, [A0]
000039C0  3228 0004                move.w     D1, [A0 + 0x4]
000039C4  48C1                     ext.l      D1
000039C6  343C 7FFF                move.w     D2, 0x7FFF
000039CA  C441                     and.w      D2, D1
000039CC  7200                     moveq.l    D1, 0x00
000039CE  3202                     move.w     D1, D2
000039D0  4A81                     tst.l      D1
000039D2  4C00 1800                muls.l     D1, D0
000039D6  D3AE FFC2                add.l      [A6 - 0x3E], D1
000039DA  3C2E FFEE                move.w     D6, [A6 - 0x12]
000039DE  6000 00A6                bra        +0xA8 /* 00003A86 */
label000039E2:
000039E2  2D6E FFC2 FFB6           move.l     [A6 - 0x4A], [A6 - 0x3E]
000039E8  2D6E FFBE FFBA           move.l     [A6 - 0x46], [A6 - 0x42]
000039EE  3E2E FFF0                move.w     D7, [A6 - 0x10]
000039F2  6044                     bra        +0x46 /* 00003A38 */
label000039F4:
000039F4  7000                     moveq.l    D0, 0x00
000039F6  2F00                     move.l     -[A7], D0
000039F8  2D6C 0208 FFB2           move.l     [A6 - 0x4E], [A4 + 0x208]
000039FE  598F                     subq.l     A7, 4
00003A00  206E FFB2                movea.l    A0, [A6 - 0x4E]
00003A04  2068 0018                movea.l    A0, [A0 + 0x18]
00003A08  2F28 0002                move.l     -[A7], [A0 + 0x2]
00003A0C  203C 0004 000F           move.l     D0, 0x4000F
00003A12  AB1D                     syscall    QDExtensions
00003A14  2F2E FFBA                move.l     -[A7], [A6 - 0x46]
00003A18  4EAD 0122                jsr        [A5 + 0x122 /* export_32, CODE:1 @ 00001C98 */]
00003A1C  206E FFB6                movea.l    A0, [A6 - 0x4A]
00003A20  52AE FFB6                addq.l     [A6 - 0x4A], 1
00003A24  202E FFBA                move.l     D0, [A6 - 0x46]
00003A28  52AE FFBA                addq.l     [A6 - 0x46], 1
00003A2C  2240                     movea.l    A1, D0
00003A2E  1290                     move.b     [A1], [A0]
00003A30  4FEF 000C                lea.l      A7, [A7 + 0xC]
00003A34  3007                     move.w     D0, D7
00003A36  5247                     addq.w     D7, 1
label00003A38:
00003A38  BE6E FFF4                cmp.w      D7, [A6 - 0xC]
00003A3C  6DB6                     blt        -0x48 /* 000039F4 */
00003A3E  266C 0208                movea.l    A3, [A4 + 0x208]
00003A42  206B 0018                movea.l    A0, [A3 + 0x18]
00003A46  2068 0002                movea.l    A0, [A0 + 0x2]
00003A4A  2050                     movea.l    A0, [A0]
00003A4C  3028 0004                move.w     D0, [A0 + 0x4]
00003A50  48C0                     ext.l      D0
00003A52  323C 7FFF                move.w     D1, 0x7FFF
00003A56  C240                     and.w      D1, D0
00003A58  7000                     moveq.l    D0, 0x00
00003A5A  3001                     move.w     D0, D1
00003A5C  D1AE FFBE                add.l      [A6 - 0x42], D0
00003A60  206E FFEA                movea.l    A0, [A6 - 0x16]
00003A64  2068 0018                movea.l    A0, [A0 + 0x18]
00003A68  2068 0002                movea.l    A0, [A0 + 0x2]
00003A6C  2050                     movea.l    A0, [A0]
00003A6E  3028 0004                move.w     D0, [A0 + 0x4]
00003A72  48C0                     ext.l      D0
00003A74  323C 7FFF                move.w     D1, 0x7FFF
00003A78  C240                     and.w      D1, D0
00003A7A  7000                     moveq.l    D0, 0x00
00003A7C  3001                     move.w     D0, D1
00003A7E  D1AE FFC2                add.l      [A6 - 0x3E], D0
00003A82  3006                     move.w     D0, D6
00003A84  5246                     addq.w     D6, 1
label00003A86:
00003A86  BC6E FFF2                cmp.w      D6, [A6 - 0xE]
00003A8A  6D00 FF56                blt        -0xA8 /* 000039E2 */
00003A8E  6006                     bra        +0x8 /* 00003A96 */
label00003A90:
00003A90  486D FD9A                pea.l      [A5 - 0x266]
00003A94  ABFF                     syscall    DebugStr
label00003A96:
00003A96  3004                     move.w     D0, D4
00003A98  5244                     addq.w     D4, 1
00003A9A  3005                     move.w     D0, D5
00003A9C  5245                     addq.w     D5, 1
label00003A9E:
00003A9E  BA6E FFFE                cmp.w      D5, [A6 - 0x2]
00003AA2  6D00 FD82                blt        -0x27C /* 00003826 */
00003AA6  206E FFEA                movea.l    A0, [A6 - 0x16]
00003AAA  2068 0018                movea.l    A0, [A0 + 0x18]
00003AAE  2F28 0002                move.l     -[A7], [A0 + 0x2]
00003AB2  203C 0004 0002           move.l     D0, 0x40002
00003AB8  AB1D                     syscall    QDExtensions
00003ABA  4AAE FFEA                tst.l      [A6 - 0x16]
00003ABE  6728                     beq        +0x2A /* 00003AE8 */
00003AC0  7003                     moveq.l    D0, 0x03
00003AC2  2F00                     move.l     -[A7], D0
00003AC4  206E FFEA                movea.l    A0, [A6 - 0x16]
00003AC8  2248                     movea.l    A1, A0
00003ACA  2269 0008                movea.l    A1, [A1 + 0x8]
00003ACE  D0E9 0030                add.w      A0, [A1 + 0x30]
00003AD2  2F08                     move.l     -[A7], A0
00003AD4  206E FFEA                movea.l    A0, [A6 - 0x16]
00003AD8  2068 0008                movea.l    A0, [A0 + 0x8]
00003ADC  2268 0034                movea.l    A1, [A0 + 0x34]
00003AE0  4E91                     jsr        [A1]
00003AE2  7000                     moveq.l    D0, 0x00
00003AE4  504F                     addq.w     A7, 8
00003AE6  6002                     bra        +0x4 /* 00003AEA */
label00003AE8:
00003AE8  7000                     moveq.l    D0, 0x00
label00003AEA:
00003AEA  4CEE 18F0 FF9A           movem.l    D4,D5,D6,D7,A3,A4, [A6 - 0x66]
00003AF0  4E5E                     unlink     A6
00003AF2  4E75                     rts
00003AF4  802E 5365 7454 696C 6... dc.b       "SetTileData__12cTileDocItemFUsPP7PictureR4Rect"
