# near model CODE resource
# jump table entries: 4184-4274 (91 of them)
export_523:
00000000  4E56 0000                link       A6, 0
00000004  2F2E 0018                move.l     -[A7], [A6 + 0x18]
00000008  302E 0016                move.w     D0, [A6 + 0x16]
0000000C  48C0                     ext.l      D0
0000000E  2F00                     move.l     -[A7], D0
00000010  2F2E 0010                move.l     -[A7], [A6 + 0x10]
00000014  302E 000E                move.w     D0, [A6 + 0xE]
00000018  48C0                     ext.l      D0
0000001A  2F00                     move.l     -[A7], D0
0000001C  2F2E 0008                move.l     -[A7], [A6 + 0x8]
00000020  4EBA 3E28                jsr        [PC + 0x3E28 /* 00003E4A */]
00000024  4E5E                     unlink     A6
00000026  4E75                     rts
00000028  802B 4E65 7742 7574 7... dc.b       "NewButton__17cQuickPopupWindowFsR4RectT1PUc"
export_524:
00000058  4E56 0000                link       A6, 0
0000005C  2F0C                     move.l     -[A7], A4
0000005E  286E 0008                movea.l    A4, [A6 + 0x8]
00000062  2F2C 0084                move.l     -[A7], [A4 + 0x84]
00000066  A915                     syscall    ShowWindow
00000068  4A2E 000F                tst.b      [A6 + 0xF]
0000006C  6722                     beq        +0x24 /* 00000090 */
0000006E  7000                     moveq.l    D0, 0x00
00000070  2F00                     move.l     -[A7], D0
00000072  2F3C 574E 4430           move.l     -[A7], 0x574E4430 /* 'WND0' */
00000078  204C                     movea.l    A0, A4
0000007A  226C 0060                movea.l    A1, [A4 + 0x60]
0000007E  D0E9 0060                add.w      A0, [A1 + 0x60]
00000082  2F08                     move.l     -[A7], A0
00000084  2049                     movea.l    A0, A1
00000086  2268 0064                movea.l    A1, [A0 + 0x64]
0000008A  4E91                     jsr        [A1]
0000008C  4FEF 000C                lea.l      A7, [A7 + 0xC]
label00000090:
00000090  286E FFFC                movea.l    A4, [A6 - 0x4]
00000094  4E5E                     unlink     A6
00000096  4E75                     rts
00000098  9A53 686F 775F 5F31 3... dc.b       "Show__15cFloatingWindowFUc"
export_525:
000000B6  4E56 0000                link       A6, 0
000000BA  48E7 0108                movem.l    -[A7], D7,A4
000000BE  2E2E 000C                move.l     D7, [A6 + 0xC]
000000C2  286E 0008                movea.l    A4, [A6 + 0x8]
000000C6  200C                     move.l     D0, A4
000000C8  6754                     beq        +0x56 /* 0000011E */
000000CA  296D F45A 0070           move.l     [A4 + 0x70], [A5 - 0xBA6]
000000D0  206C 0064                movea.l    A0, [A4 + 0x64]
000000D4  216D F45E 0008           move.l     [A0 + 0x8], [A5 - 0xBA2]
000000DA  296D F462 0060           move.l     [A4 + 0x60], [A5 - 0xB9E]
000000E0  200C                     move.l     D0, A4
000000E2  673A                     beq        +0x3C /* 0000011E */
000000E4  7000                     moveq.l    D0, 0x00
000000E6  2F00                     move.l     -[A7], D0
000000E8  2F0C                     move.l     -[A7], A4
000000EA  4EBA 0300                jsr        [PC + 0x300 /* 000003EC */]
000000EE  7002                     moveq.l    D0, 0x02
000000F0  C087                     and.l      D0, D7
000000F2  6718                     beq        +0x1A /* 0000010C */
000000F4  7000                     moveq.l    D0, 0x00
000000F6  2F00                     move.l     -[A7], D0
000000F8  220C                     move.l     D1, A4
000000FA  D2BC 0000 016C           add.l      D1, 0x16C
00000100  2F01                     move.l     -[A7], D1
00000102  4EAD 1632                jsr        [A5 + 0x1632 /* export_706, CODE:32 @ 000036CC */]
00000106  7000                     moveq.l    D0, 0x00
00000108  504F                     addq.w     A7, 8
0000010A  6002                     bra        +0x4 /* 0000010E */
label0000010C:
0000010C  7000                     moveq.l    D0, 0x00
label0000010E:
0000010E  0807 0000                btst.b     D7, 0x0
00000112  504F                     addq.w     A7, 8
00000114  6708                     beq        +0xA /* 0000011E */
00000116  2F0C                     move.l     -[A7], A4
00000118  4EAD 0102                jsr        [A5 + 0x102 /* export_28, CODE:1 @ 00001BE0 */]
0000011C  584F                     addq.w     A7, 4
label0000011E:
0000011E  4CEE 1080 FFF8           movem.l    D7,A4, [A6 - 0x8]
00000124  4E5E                     unlink     A6
00000126  4E75                     rts
00000128  995F 5F64 745F 5F31 3... dc.b       "__dt__15cFloatingWindowFv"
export_526:
00000144  4E56 0000                link       A6, 0
00000148  7001                     moveq.l    D0, 0x01
0000014A  4E5E                     unlink     A6
0000014C  4E75                     rts
0000014E  9F49 7346 6C6F 6174 6... dc.b       "IsFloating__15cFloatingWindowFv"
export_527:
00000170  4E56 0000                link       A6, 0
00000174  2F0C                     move.l     -[A7], A4
00000176  286E 0008                movea.l    A4, [A6 + 0x8]
0000017A  204C                     movea.l    A0, A4
0000017C  226C 0060                movea.l    A1, [A4 + 0x60]
00000180  D0E9 0110                add.w      A0, [A1 + 0x110]
00000184  2F08                     move.l     -[A7], A0
00000186  2049                     movea.l    A0, A1
00000188  2268 0114                movea.l    A1, [A0 + 0x114]
0000018C  4E91                     jsr        [A1]
0000018E  7001                     moveq.l    D0, 0x01
00000190  286E FFFC                movea.l    A4, [A6 - 0x4]
00000194  4E5E                     unlink     A6
00000196  4E75                     rts
00000198  9A43 6C6F 7365 5F5F 3... dc.b       "Close__15cFloatingWindowFv"
export_528:
000001B6  4E56 0000                link       A6, 0
000001BA  2F00                     move.l     -[A7], D0
000001BC  2F2E 000C                move.l     -[A7], [A6 + 0xC]
000001C0  2F2E 0008                move.l     -[A7], [A6 + 0x8]
000001C4  4EBA 1286                jsr        [PC + 0x1286 /* 0000144C */]
000001C8  508F                     addq.l     A7, 8
000001CA  2200                     move.l     D1, D0
000001CC  201F                     move.l     D0, [A7]+
000001CE  5301                     subq.b     D1, 1
000001D0  9301                     subx.b     D1, D1
000001D2  5201                     addq.b     D1, 1
000001D4  1001                     move.b     D0, D1
000001D6  4E5E                     unlink     A6
000001D8  4E75                     rts
000001DA  802F 4D6F 7573 6544 6... dc.b       "MouseDownDrag__15cFloatingWindowFR11EventRecord"
export_529:
0000020E  4E56 0000                link       A6, 0
00000212  48E7 1018                movem.l    -[A7], D3,A3,A4
00000216  266E 000C                movea.l    A3, [A6 + 0xC]
0000021A  286E 0008                movea.l    A4, [A6 + 0x8]
0000021E  200C                     move.l     D0, A4
00000220  6612                     bne        +0x14 /* 00000234 */
00000222  4878 0178                push.l     0x178
00000226  4EAD 010A                jsr        [A5 + 0x10A /* export_29, CODE:1 @ 00001C0A */]
0000022A  2840                     movea.l    A4, D0
0000022C  200C                     move.l     D0, A4
0000022E  584F                     addq.w     A7, 4
00000230  6700 018E                beq        +0x190 /* 000003C0 */
label00000234:
00000234  200B                     move.l     D0, A3
00000236  57C3                     seq        D3
00000238  4403                     neg.b      D3
0000023A  6748                     beq        +0x4A /* 00000284 */
0000023C  264C                     movea.l    A3, A4
0000023E  47EB 016C                lea.l      A3, [A3 + 0x16C]
00000242  7601                     moveq.l    D3, 0x01
00000244  200C                     move.l     D0, A4
00000246  D0BC 0000 016C           add.l      D0, 0x16C
0000024C  6614                     bne        +0x16 /* 00000262 */
0000024E  2F03                     move.l     -[A7], D3
00000250  700C                     moveq.l    D0, 0x0C
00000252  2F00                     move.l     -[A7], D0
00000254  4EAD 010A                jsr        [A5 + 0x10A /* export_29, CODE:1 @ 00001C0A */]
00000258  588F                     addq.l     A7, 4
0000025A  261F                     move.l     D3, [A7]+
0000025C  4A80                     tst.l      D0
0000025E  6602                     bne        +0x4 /* 00000262 */
00000260  7600                     moveq.l    D3, 0x00
label00000262:
00000262  4A03                     tst.b      D3
00000264  6712                     beq        +0x14 /* 00000278 */
00000266  296D FCD0 0174           move.l     [A4 + 0x174], [A5 - 0x330]
0000026C  7000                     moveq.l    D0, 0x00
0000026E  2940 016C                move.l     [A4 + 0x16C], D0
00000272  2940 0170                move.l     [A4 + 0x170], D0
00000276  6002                     bra        +0x4 /* 0000027A */
label00000278:
00000278  7000                     moveq.l    D0, 0x00
label0000027A:
0000027A  200C                     move.l     D0, A4
0000027C  D0BC 0000 016C           add.l      D0, 0x16C
00000282  6002                     bra        +0x4 /* 00000286 */
label00000284:
00000284  200B                     move.l     D0, A3
label00000286:
00000286  2F2E 0018                move.l     -[A7], [A6 + 0x18]
0000028A  2F2E 0010                move.l     -[A7], [A6 + 0x10]
0000028E  2F0B                     move.l     -[A7], A3
00000290  2F0C                     move.l     -[A7], A4
00000292  4EAD 1482                jsr        [A5 + 0x1482 /* export_652, CODE:32 @ 00000000 */]
00000296  200C                     move.l     D0, A4
00000298  7268                     moveq.l    D1, 0x68
0000029A  D081                     add.l      D0, D1
0000029C  2F00                     move.l     -[A7], D0
0000029E  4EAD 15E2                jsr        [A5 + 0x15E2 /* export_696, CODE:32 @ 00002B52 */]
000002A2  296D FCD4 0060           move.l     [A4 + 0x60], [A5 - 0x32C]
000002A8  296D FCD8 0070           move.l     [A4 + 0x70], [A5 - 0x328]
000002AE  206C 0064                movea.l    A0, [A4 + 0x64]
000002B2  216D FCDC 0008           move.l     [A0 + 0x8], [A5 - 0x324]
000002B8  7000                     moveq.l    D0, 0x00
000002BA  2F00                     move.l     -[A7], D0
000002BC  486C 009C                pea.l      [A4 + 0x9C]
000002C0  4EAD 15BA                jsr        [A5 + 0x15BA /* export_691, CODE:32 @ 000025FA */]
000002C4  7010                     moveq.l    D0, 0x10
000002C6  2F00                     move.l     -[A7], D0
000002C8  7200                     moveq.l    D1, 0x00
000002CA  2F01                     move.l     -[A7], D1
000002CC  7001                     moveq.l    D0, 0x01
000002CE  2F00                     move.l     -[A7], D0
000002D0  486C 00E0                pea.l      [A4 + 0xE0]
000002D4  4EAD 1752                jsr        [A5 + 0x1752 /* export_742, CODE:32 @ 00004A24 */]
000002D8  7008                     moveq.l    D0, 0x08
000002DA  2F00                     move.l     -[A7], D0
000002DC  7200                     moveq.l    D1, 0x00
000002DE  2F01                     move.l     -[A7], D1
000002E0  2F01                     move.l     -[A7], D1
000002E2  486C 0116                pea.l      [A4 + 0x116]
000002E6  4EAD 1752                jsr        [A5 + 0x1752 /* export_742, CODE:32 @ 00004A24 */]
000002EA  7008                     moveq.l    D0, 0x08
000002EC  2F00                     move.l     -[A7], D0
000002EE  7200                     moveq.l    D1, 0x00
000002F0  2F01                     move.l     -[A7], D1
000002F2  2F01                     move.l     -[A7], D1
000002F4  486C 012E                pea.l      [A4 + 0x12E]
000002F8  4EAD 1752                jsr        [A5 + 0x1752 /* export_742, CODE:32 @ 00004A24 */]
000002FC  7020                     moveq.l    D0, 0x20
000002FE  2F00                     move.l     -[A7], D0
00000300  7200                     moveq.l    D1, 0x00
00000302  2F01                     move.l     -[A7], D1
00000304  2F01                     move.l     -[A7], D1
00000306  486C 0146                pea.l      [A4 + 0x146]
0000030A  4EAD 1752                jsr        [A5 + 0x1752 /* export_742, CODE:32 @ 00004A24 */]
0000030E  7000                     moveq.l    D0, 0x00
00000310  2940 0080                move.l     [A4 + 0x80], D0
00000314  2940 00DC                move.l     [A4 + 0xDC], D0
00000318  296E 0014 0168           move.l     [A4 + 0x168], [A6 + 0x14]
0000031E  2940 0084                move.l     [A4 + 0x84], D0
00000322  2940 008C                move.l     [A4 + 0x8C], D0
00000326  42AC 0090                clr.l      [A4 + 0x90]
0000032A  598F                     subq.l     A7, 4
0000032C  AA32                     syscall    GetGDevice
0000032E  265F                     movea.l    A3, [A7]+
00000330  2053                     movea.l    A0, [A3]
00000332  43EC 0094                lea.l      A1, [A4 + 0x94]
00000336  41E8 0022                lea.l      A0, [A0 + 0x22]
0000033A  22D8                     move.l     [A1]+, [A0]+
0000033C  22D8                     move.l     [A1]+, [A0]+
0000033E  2F0B                     move.l     -[A7], A3
00000340  A9A3                     syscall    ReleaseResource
00000342  486C 0094                pea.l      [A4 + 0x94]
00000346  7014                     moveq.l    D0, 0x14
00000348  3F00                     move.w     -[A7], D0
0000034A  725A                     moveq.l    D1, 0x5A
0000034C  3F01                     move.w     -[A7], D1
0000034E  A8A9                     syscall    InsetRect
00000350  397C 0046 0096           move.w     [A4 + 0x96], 0x46 /* 'F' */
00000356  397C 0032 0094           move.w     [A4 + 0x94], 0x32 /* '2' */
0000035C  397C 0046 010C           move.w     [A4 + 0x10C], 0x46 /* 'F' */
00000362  397C 0032 010A           move.w     [A4 + 0x10A], 0x32 /* '2' */
00000368  422C 0109                clr.b      [A4 + 0x109]
0000036C  598F                     subq.l     A7, 4
0000036E  A8D8                     syscall    NewRgn
00000370  295F 00CE                move.l     [A4 + 0xCE], [A7]+
00000374  4FEF 005C                lea.l      A7, [A7 + 0x5C]
00000378  660C                     bne        +0xE /* 00000386 */
0000037A  70FF                     moveq.l    D0, 0xFFFFFFFF
0000037C  2F00                     move.l     -[A7], D0
0000037E  2F0C                     move.l     -[A7], A4
00000380  4EAD 14E2                jsr        [A5 + 0x14E2 /* export_664, CODE:32 @ 000007B8 */]
00000384  504F                     addq.w     A7, 8
label00000386:
00000386  7000                     moveq.l    D0, 0x00
00000388  2940 0088                move.l     [A4 + 0x88], D0
0000038C  197C 00FF 00D2           move.b     [A4 + 0xD2], 0xFF
00000392  2940 0162                move.l     [A4 + 0x162], D0
00000396  2940 0112                move.l     [A4 + 0x112], D0
0000039A  42AC 0104                clr.l      [A4 + 0x104]
0000039E  42AC 0100                clr.l      [A4 + 0x100]
000003A2  422C 0108                clr.b      [A4 + 0x108]
000003A6  598F                     subq.l     A7, 4
000003A8  A8D8                     syscall    NewRgn
000003AA  295F 015E                move.l     [A4 + 0x15E], [A7]+
000003AE  660C                     bne        +0xE /* 000003BC */
000003B0  70FF                     moveq.l    D0, 0xFFFFFFFF
000003B2  2F00                     move.l     -[A7], D0
000003B4  2F0C                     move.l     -[A7], A4
000003B6  4EAD 14E2                jsr        [A5 + 0x14E2 /* export_664, CODE:32 @ 000007B8 */]
000003BA  504F                     addq.w     A7, 8
label000003BC:
000003BC  422C 0166                clr.b      [A4 + 0x166]
label000003C0:
000003C0  200C                     move.l     D0, A4
000003C2  4CEE 1808 FFF4           movem.l    D3,A3,A4, [A6 - 0xC]
000003C8  4E5E                     unlink     A6
000003CA  4E75                     rts
000003CC  9C5F 5F63 745F 5F37 6... dc.b       "__ct__7cWindowFP6cAgentUlPUc"
export_530:
fn000003EC:
000003EC  4E56 FFFE                link       A6, -0x0002
000003F0  48E7 0118                movem.l    -[A7], D7,A3,A4
000003F4  2E2E 000C                move.l     D7, [A6 + 0xC]
000003F8  286E 0008                movea.l    A4, [A6 + 0x8]
000003FC  200C                     move.l     D0, A4
000003FE  6700 010C                beq        +0x10E /* 0000050C */
00000402  206C 0064                movea.l    A0, [A4 + 0x64]
00000406  216D FCDC 0008           move.l     [A0 + 0x8], [A5 - 0x324]
0000040C  296D FCD8 0070           move.l     [A4 + 0x70], [A5 - 0x328]
00000412  296D FCD4 0060           move.l     [A4 + 0x60], [A5 - 0x32C]
00000418  2F2C 00CE                move.l     -[A7], [A4 + 0xCE]
0000041C  A8D9                     syscall    DisposRgn/DisposeRgn
0000041E  2F0C                     move.l     -[A7], A4
00000420  4EBA 0108                jsr        [PC + 0x108 /* 0000052A */]
00000424  4AAC 00FC                tst.l      [A4 + 0xFC]
00000428  584F                     addq.w     A7, 4
0000042A  4AAC 0084                tst.l      [A4 + 0x84]
0000042E  6706                     beq        +0x8 /* 00000436 */
00000430  2F2C 0084                move.l     -[A7], [A4 + 0x84]
00000434  A914                     syscall    DisposeWindow
label00000436:
00000436  4A6C 00F4                tst.w      [A4 + 0xF4]
0000043A  6730                     beq        +0x32 /* 0000046C */
0000043C  486E FFFE                pea.l      [A6 - 0x2]
00000440  486C 00E0                pea.l      [A4 + 0xE0]
00000444  4EAD 176A                jsr        [A5 + 0x176A /* export_745, CODE:32 @ 00004B64 */]
00000448  2640                     movea.l    A3, D0
0000044A  204B                     movea.l    A0, A3
0000044C  A023                     syscall    DisposHandle/DisposeHandle
0000044E  504F                     addq.w     A7, 8
00000450  6014                     bra        +0x16 /* 00000466 */
label00000452:
00000452  486E FFFE                pea.l      [A6 - 0x2]
00000456  486C 00E0                pea.l      [A4 + 0xE0]
0000045A  4EAD 176A                jsr        [A5 + 0x176A /* export_745, CODE:32 @ 00004B64 */]
0000045E  2640                     movea.l    A3, D0
00000460  204B                     movea.l    A0, A3
00000462  A023                     syscall    DisposHandle/DisposeHandle
00000464  504F                     addq.w     A7, 8
label00000466:
00000466  4A6E FFFE                tst.w      [A6 - 0x2]
0000046A  66E6                     bne        -0x18 /* 00000452 */
label0000046C:
0000046C  2F2C 015E                move.l     -[A7], [A4 + 0x15E]
00000470  A8D9                     syscall    DisposRgn/DisposeRgn
00000472  4AAC 0080                tst.l      [A4 + 0x80]
00000476  6706                     beq        +0x8 /* 0000047E */
00000478  2F2C 0080                move.l     -[A7], [A4 + 0x80]
0000047C  A8D9                     syscall    DisposRgn/DisposeRgn
label0000047E:
0000047E  200C                     move.l     D0, A4
00000480  6700 008A                beq        +0x8C /* 0000050C */
00000484  7002                     moveq.l    D0, 0x02
00000486  2F00                     move.l     -[A7], D0
00000488  486C 0146                pea.l      [A4 + 0x146]
0000048C  4EAD 175A                jsr        [A5 + 0x175A /* export_743, CODE:32 @ 00004AC8 */]
00000490  7002                     moveq.l    D0, 0x02
00000492  2F00                     move.l     -[A7], D0
00000494  486C 012E                pea.l      [A4 + 0x12E]
00000498  4EAD 175A                jsr        [A5 + 0x175A /* export_743, CODE:32 @ 00004AC8 */]
0000049C  7002                     moveq.l    D0, 0x02
0000049E  2F00                     move.l     -[A7], D0
000004A0  486C 0116                pea.l      [A4 + 0x116]
000004A4  4EAD 175A                jsr        [A5 + 0x175A /* export_743, CODE:32 @ 00004AC8 */]
000004A8  7002                     moveq.l    D0, 0x02
000004AA  2F00                     move.l     -[A7], D0
000004AC  486C 00E0                pea.l      [A4 + 0xE0]
000004B0  4EAD 175A                jsr        [A5 + 0x175A /* export_743, CODE:32 @ 00004AC8 */]
000004B4  7002                     moveq.l    D0, 0x02
000004B6  2F00                     move.l     -[A7], D0
000004B8  486C 009C                pea.l      [A4 + 0x9C]
000004BC  4EAD 15D2                jsr        [A5 + 0x15D2 /* export_694, CODE:32 @ 000029D6 */]
000004C0  7000                     moveq.l    D0, 0x00
000004C2  2F00                     move.l     -[A7], D0
000004C4  220C                     move.l     D1, A4
000004C6  7468                     moveq.l    D2, 0x68
000004C8  D282                     add.l      D1, D2
000004CA  2F01                     move.l     -[A7], D1
000004CC  4EAD 15DA                jsr        [A5 + 0x15DA /* export_695, CODE:32 @ 00002A4A */]
000004D0  7000                     moveq.l    D0, 0x00
000004D2  2F00                     move.l     -[A7], D0
000004D4  2F0C                     move.l     -[A7], A4
000004D6  4EAD 148A                jsr        [A5 + 0x148A /* export_653, CODE:32 @ 00000140 */]
000004DA  7002                     moveq.l    D0, 0x02
000004DC  C087                     and.l      D0, D7
000004DE  6718                     beq        +0x1A /* 000004F8 */
000004E0  7000                     moveq.l    D0, 0x00
000004E2  2F00                     move.l     -[A7], D0
000004E4  220C                     move.l     D1, A4
000004E6  D2BC 0000 016C           add.l      D1, 0x16C
000004EC  2F01                     move.l     -[A7], D1
000004EE  4EAD 1632                jsr        [A5 + 0x1632 /* export_706, CODE:32 @ 000036CC */]
000004F2  7000                     moveq.l    D0, 0x00
000004F4  504F                     addq.w     A7, 8
000004F6  6002                     bra        +0x4 /* 000004FA */
label000004F8:
000004F8  7000                     moveq.l    D0, 0x00
label000004FA:
000004FA  0807 0000                btst.b     D7, 0x0
000004FE  4FEF 0038                lea.l      A7, [A7 + 0x38]
00000502  6708                     beq        +0xA /* 0000050C */
00000504  2F0C                     move.l     -[A7], A4
00000506  4EAD 0102                jsr        [A5 + 0x102 /* export_28, CODE:1 @ 00001BE0 */]
0000050A  584F                     addq.w     A7, 4
label0000050C:
0000050C  4CEE 1880 FFF2           movem.l    D7,A3,A4, [A6 - 0xE]
00000512  4E5E                     unlink     A6
00000514  4E75                     rts
00000516  905F 5F64 745F 5F37 6... dc.b       "__dt__7cWindowFv"
fn0000052A:
0000052A  4E56 FFFC                link       A6, -0x0004
0000052E  48E7 0018                movem.l    -[A7], A3,A4
00000532  286E 0008                movea.l    A4, [A6 + 0x8]
00000536  2D6C 00DC FFFC           move.l     [A6 - 0x4], [A4 + 0xDC]
0000053C  6030                     bra        +0x32 /* 0000056E */
label0000053E:
0000053E  266E FFFC                movea.l    A3, [A6 - 0x4]
00000542  204B                     movea.l    A0, A3
00000544  2D68 0004 FFFC           move.l     [A6 - 0x4], [A0 + 0x4]
0000054A  200B                     move.l     D0, A3
0000054C  671E                     beq        +0x20 /* 0000056C */
0000054E  7003                     moveq.l    D0, 0x03
00000550  2F00                     move.l     -[A7], D0
00000552  204B                     movea.l    A0, A3
00000554  226B 0008                movea.l    A1, [A3 + 0x8]
00000558  D0E9 0008                add.w      A0, [A1 + 0x8]
0000055C  2F08                     move.l     -[A7], A0
0000055E  2049                     movea.l    A0, A1
00000560  2268 000C                movea.l    A1, [A0 + 0xC]
00000564  4E91                     jsr        [A1]
00000566  7000                     moveq.l    D0, 0x00
00000568  504F                     addq.w     A7, 8
0000056A  6002                     bra        +0x4 /* 0000056E */
label0000056C:
0000056C  7000                     moveq.l    D0, 0x00
label0000056E:
0000056E  4AAE FFFC                tst.l      [A6 - 0x4]
00000572  66CA                     bne        -0x34 /* 0000053E */
00000574  7000                     moveq.l    D0, 0x00
00000576  2940 00DC                move.l     [A4 + 0xDC], D0
0000057A  4CEE 1800 FFF4           movem.l    A3,A4, [A6 - 0xC]
00000580  4E5E                     unlink     A6
00000582  4E75                     rts
00000584  9A44 656C 6574 6541 6... dc.b       "DeleteAllItems__7cWindowFv"
export_531:
000005A2  4E56 FCEA                link       A6, -0x0316
000005A6  48E7 0F18                movem.l    -[A7], D4,D5,D6,D7,A3,A4
000005AA  47EE FF3C                lea.l      A3, [A6 - 0xC4]
000005AE  286E 0008                movea.l    A4, [A6 + 0x8]
000005B2  598F                     subq.l     A7, 4
000005B4  2F3C 444C 4F47           move.l     -[A7], 0x444C4F47 /* 'DLOG' */
000005BA  3F2E 000E                move.w     -[A7], [A6 + 0xE]
000005BE  A9A0                     syscall    GetResource
000005C0  2D5F FFFC                move.l     [A6 - 0x4], [A7]+
000005C4  6700 0C84                beq        +0xC86 /* 0000124A */
000005C8  206E FFFC                movea.l    A0, [A6 - 0x4]
000005CC  A064                     syscall    MoveHHi
000005CE  206E FFFC                movea.l    A0, [A6 - 0x4]
000005D2  A029                     syscall    HLock
000005D4  206E FFFC                movea.l    A0, [A6 - 0x4]
000005D8  2050                     movea.l    A0, [A0]
000005DA  43EC 0100                lea.l      A1, [A4 + 0x100]
000005DE  22D8                     move.l     [A1]+, [A0]+
000005E0  22D8                     move.l     [A1]+, [A0]+
000005E2  206E FFFC                movea.l    A0, [A6 - 0x4]
000005E6  2050                     movea.l    A0, [A0]
000005E8  4A68 0008                tst.w      [A0 + 0x8]
000005EC  670E                     beq        +0x10 /* 000005FC */
000005EE  206E FFFC                movea.l    A0, [A6 - 0x4]
000005F2  2050                     movea.l    A0, [A0]
000005F4  7008                     moveq.l    D0, 0x08
000005F6  B068 0008                cmp.w      D0, [A0 + 0x8]
000005FA  6608                     bne        +0xA /* 00000604 */
label000005FC:
000005FC  197C 0001 0108           move.b     [A4 + 0x108], 0x1
00000602  6004                     bra        +0x6 /* 00000608 */
label00000604:
00000604  422C 0108                clr.b      [A4 + 0x108]
label00000608:
00000608  206E FFFC                movea.l    A0, [A6 - 0x4]
0000060C  2050                     movea.l    A0, [A0]
0000060E  43EE FFD0                lea.l      A1, [A6 - 0x30]
00000612  22D8                     move.l     [A1]+, [A0]+
00000614  22D8                     move.l     [A1]+, [A0]+
00000616  7000                     moveq.l    D0, 0x00
00000618  2D40 FFD8                move.l     [A6 - 0x28], D0
0000061C  2D40 FFDC                move.l     [A6 - 0x24], D0
00000620  2D40 FFE0                move.l     [A6 - 0x20], D0
00000624  4AAC 0084                tst.l      [A4 + 0x84]
00000628  6708                     beq        +0xA /* 00000632 */
0000062A  206C 0084                movea.l    A0, [A4 + 0x84]
0000062E  214C 0098                move.l     [A0 + 0x98], A4
label00000632:
00000632  486E FFD8                pea.l      [A6 - 0x28]
00000636  2F3C 574E 4433           move.l     -[A7], 0x574E4433 /* 'WND3' */
0000063C  204C                     movea.l    A0, A4
0000063E  226C 0060                movea.l    A1, [A4 + 0x60]
00000642  D0E9 0060                add.w      A0, [A1 + 0x60]
00000646  2F08                     move.l     -[A7], A0
00000648  2049                     movea.l    A0, A1
0000064A  2268 0064                movea.l    A1, [A0 + 0x64]
0000064E  4E91                     jsr        [A1]
00000650  486E FFE0                pea.l      [A6 - 0x20]
00000654  2F3C 574E 4436           move.l     -[A7], 0x574E4436 /* 'WND6' */
0000065A  204C                     movea.l    A0, A4
0000065C  226C 0060                movea.l    A1, [A4 + 0x60]
00000660  D0E9 0060                add.w      A0, [A1 + 0x60]
00000664  2F08                     move.l     -[A7], A0
00000666  2049                     movea.l    A0, A1
00000668  2268 0064                movea.l    A1, [A0 + 0x64]
0000066C  4E91                     jsr        [A1]
0000066E  0CAD 0000 0200 F29A      cmpi.l     [A5 - 0xD66], 0x200
00000676  4FEF 0018                lea.l      A7, [A7 + 0x18]
0000067A  6D36                     blt        +0x38 /* 000006B2 */
0000067C  486E FFF4                pea.l      [A6 - 0xC]
00000680  598F                     subq.l     A7, 4
00000682  AA2A                     syscall    GetMainDevice
00000684  4EAD 186A                jsr        [A5 + 0x186A /* export_777, CODE:32 @ 00005F94 */]
00000688  4AAE FFE0                tst.l      [A6 - 0x20]
0000068C  504F                     addq.w     A7, 8
0000068E  6714                     beq        +0x16 /* 000006A4 */
00000690  486E FFE4                pea.l      [A6 - 0x1C]
00000694  206E FFE0                movea.l    A0, [A6 - 0x20]
00000698  2F28 0084                move.l     -[A7], [A0 + 0x84]
0000069C  4EAD 1862                jsr        [A5 + 0x1862 /* export_776, CODE:32 @ 00005F56 */]
000006A0  504F                     addq.w     A7, 8
000006A2  602A                     bra        +0x2C /* 000006CE */
label000006A4:
000006A4  41EE FFE4                lea.l      A0, [A6 - 0x1C]
000006A8  43EE FFF4                lea.l      A1, [A6 - 0xC]
000006AC  20D9                     move.l     [A0]+, [A1]+
000006AE  20D9                     move.l     [A0]+, [A1]+
000006B0  601C                     bra        +0x1E /* 000006CE */
label000006B2:
000006B2  2078 09EE                movea.l    A0, [0x000009EE /* GrayRgn */]
000006B6  2050                     movea.l    A0, [A0]
000006B8  43EE FFF4                lea.l      A1, [A6 - 0xC]
000006BC  5488                     addq.l     A0, 2
000006BE  22D8                     move.l     [A1]+, [A0]+
000006C0  22D8                     move.l     [A1]+, [A0]+
000006C2  41EE FFE4                lea.l      A0, [A6 - 0x1C]
000006C6  43EE FFF4                lea.l      A1, [A6 - 0xC]
000006CA  20D9                     move.l     [A0]+, [A1]+
000006CC  20D9                     move.l     [A0]+, [A1]+
label000006CE:
000006CE  0CAD 0000 0200 F29A      cmpi.l     [A5 - 0xD66], 0x200
000006D6  6D1E                     blt        +0x20 /* 000006F6 */
000006D8  486E FFE4                pea.l      [A6 - 0x1C]
000006DC  4EAD 1872                jsr        [A5 + 0x1872 /* export_778, CODE:32 @ 00005FF6 */]
000006E0  2D40 FFCC                move.l     [A6 - 0x34], D0
000006E4  486E FFEC                pea.l      [A6 - 0x14]
000006E8  2F2E FFCC                move.l     -[A7], [A6 - 0x34]
000006EC  4EAD 186A                jsr        [A5 + 0x186A /* export_777, CODE:32 @ 00005F94 */]
000006F0  4FEF 000C                lea.l      A7, [A7 + 0xC]
000006F4  600C                     bra        +0xE /* 00000702 */
label000006F6:
000006F6  41EE FFEC                lea.l      A0, [A6 - 0x14]
000006FA  43EE FFF4                lea.l      A1, [A6 - 0xC]
000006FE  20D9                     move.l     [A0]+, [A1]+
00000700  20D9                     move.l     [A0]+, [A1]+
label00000702:
00000702  3D7C FFFF FFCE           move.w     [A6 - 0x32], 0xFFFF
00000708  3D7C FFFF FFCC           move.w     [A6 - 0x34], 0xFFFF
0000070E  0CAD 0000 0200 F29A      cmpi.l     [A5 - 0xD66], 0x200
00000716  6D46                     blt        +0x48 /* 0000075E */
00000718  598F                     subq.l     A7, 4
0000071A  2F3C 7763 7462           move.l     -[A7], 0x77637462 /* 'wctb' */
00000720  3F2E 000E                move.w     -[A7], [A6 + 0xE]
00000724  A9A0                     syscall    GetResource
00000726  295F 0088                move.l     [A4 + 0x88], [A7]+
0000072A  6612                     bne        +0x14 /* 0000073E */
0000072C  598F                     subq.l     A7, 4
0000072E  2F3C 6463 7462           move.l     -[A7], 0x64637462 /* 'dctb' */
00000734  3F2E 000E                move.w     -[A7], [A6 + 0xE]
00000738  A9A0                     syscall    GetResource
0000073A  295F 0088                move.l     [A4 + 0x88], [A7]+
label0000073E:
0000073E  4AAC 0088                tst.l      [A4 + 0x88]
00000742  6720                     beq        +0x22 /* 00000764 */
00000744  2D6C 0088 FF38           move.l     [A6 - 0xC8], [A4 + 0x88]
0000074A  558F                     subq.l     A7, 2
0000074C  486C 0088                pea.l      [A4 + 0x88]
00000750  4EAD 00E2                jsr        [A5 + 0xE2 /* export_24, CODE:1 @ 000017D4 */]
00000754  2F2E FF38                move.l     -[A7], [A6 - 0xC8]
00000758  A9A3                     syscall    ReleaseResource
0000075A  544F                     addq.w     A7, 2
0000075C  6006                     bra        +0x8 /* 00000764 */
label0000075E:
0000075E  7000                     moveq.l    D0, 0x00
00000760  2940 0088                move.l     [A4 + 0x88], D0
label00000764:
00000764  4246                     clr.w      D6
00000766  486E FFDC                pea.l      [A6 - 0x24]
0000076A  2F3C 574E 4437           move.l     -[A7], 0x574E4437 /* 'WND7' */
00000770  204C                     movea.l    A0, A4
00000772  226C 0060                movea.l    A1, [A4 + 0x60]
00000776  D0E9 0060                add.w      A0, [A1 + 0x60]
0000077A  2F08                     move.l     -[A7], A0
0000077C  2049                     movea.l    A0, A1
0000077E  2268 0064                movea.l    A1, [A0 + 0x64]
00000782  4E91                     jsr        [A1]
00000784  4FEF 000C                lea.l      A7, [A7 + 0xC]
00000788  6040                     bra        +0x42 /* 000007CA */
label0000078A:
0000078A  4873 6600                pea.l      [A3 + D6.w * 8]
0000078E  206E FFDC                movea.l    A0, [A6 - 0x24]
00000792  2F28 0084                move.l     -[A7], [A0 + 0x84]
00000796  4EAD 1862                jsr        [A5 + 0x1862 /* export_776, CODE:32 @ 00005F56 */]
0000079A  4873 6600                pea.l      [A3 + D6.w * 8]
0000079E  70FC                     moveq.l    D0, 0xFFFFFFFC
000007A0  3F00                     move.w     -[A7], D0
000007A2  3F00                     move.w     -[A7], D0
000007A4  A8A9                     syscall    InsetRect
000007A6  5246                     addq.w     D6, 1
000007A8  486E FFDC                pea.l      [A6 - 0x24]
000007AC  2F3C 574E 4438           move.l     -[A7], 0x574E4438 /* 'WND8' */
000007B2  204C                     movea.l    A0, A4
000007B4  226C 0060                movea.l    A1, [A4 + 0x60]
000007B8  D0E9 0060                add.w      A0, [A1 + 0x60]
000007BC  2F08                     move.l     -[A7], A0
000007BE  2049                     movea.l    A0, A1
000007C0  2268 0064                movea.l    A1, [A0 + 0x64]
000007C4  4E91                     jsr        [A1]
000007C6  4FEF 0014                lea.l      A7, [A7 + 0x14]
label000007CA:
000007CA  0C46 0010                cmpi.w     D6, 0x10
000007CE  6C06                     bge        +0x8 /* 000007D6 */
000007D0  4AAE FFDC                tst.l      [A6 - 0x24]
000007D4  66B4                     bne        -0x4A /* 0000078A */
label000007D6:
000007D6  206E FFFC                movea.l    A0, [A6 - 0x4]
000007DA  2050                     movea.l    A0, [A0]
000007DC  41E8 0014                lea.l      A0, [A0 + 0x14]
000007E0  5448                     addq.w     A0, 2
000007E2  226E FFFC                movea.l    A1, [A6 - 0x4]
000007E6  2251                     movea.l    A1, [A1]
000007E8  7000                     moveq.l    D0, 0x00
000007EA  1029 0014                move.b     D0, [A1 + 0x14]
000007EE  D088                     add.l      D0, A0
000007F0  72FE                     moveq.l    D1, 0xFFFFFFFE
000007F2  C280                     and.l      D1, D0
000007F4  2041                     movea.l    A0, D1
000007F6  3810                     move.w     D4, [A0]
000007F8  206E FFFC                movea.l    A0, [A6 - 0x4]
000007FC  2050                     movea.l    A0, [A0]
000007FE  3A28 0010                move.w     D5, [A0 + 0x10]
00000802  3004                     move.w     D0, D4
00000804  0440 280A                subi.w     D0, 0x280A /* '(\n' */
00000808  6700 011C                beq        +0x11E /* 00000926 */
0000080C  0440 0800                subi.w     D0, 0x800
00000810  6774                     beq        +0x76 /* 00000886 */
00000812  0440 0800                subi.w     D0, 0x800
00000816  6700 0182                beq        +0x184 /* 0000099A */
0000081A  0440 3000                subi.w     D0, 0x3000 /* '0\0' */
0000081E  6700 03A0                beq        +0x3A2 /* 00000BC0 */
00000822  0440 0800                subi.w     D0, 0x800
00000826  6700 00AE                beq        +0xB0 /* 000008D6 */
0000082A  0440 0800                subi.w     D0, 0x800
0000082E  6700 015E                beq        +0x160 /* 0000098E */
00000832  0440 3000                subi.w     D0, 0x3000 /* '0\0' */
00000836  6700 0324                beq        +0x326 /* 00000B5C */
0000083A  0440 0800                subi.w     D0, 0x800
0000083E  670C                     beq        +0xE /* 0000084C */
00000840  0440 0800                subi.w     D0, 0x800
00000844  6700 036C                beq        +0x36E /* 00000BB2 */
00000848  6000 03DA                bra        +0x3DC /* 00000C24 */
label0000084C:
0000084C  302E FFEA                move.w     D0, [A6 - 0x16]
00000850  48C0                     ext.l      D0
00000852  322E FFE6                move.w     D1, [A6 - 0x1A]
00000856  48C1                     ext.l      D1
00000858  9081                     sub.l      D0, D1
0000085A  322E FFD6                move.w     D1, [A6 - 0x2A]
0000085E  48C1                     ext.l      D1
00000860  9081                     sub.l      D0, D1
00000862  322E FFD2                move.w     D1, [A6 - 0x2E]
00000866  48C1                     ext.l      D1
00000868  D280                     add.l      D1, D0
0000086A  E281                     asr        D1, 1
0000086C  3D41 FFCE                move.w     [A6 - 0x32], D1
00000870  3D7C 0019 FFCC           move.w     [A6 - 0x34], 0x19
00000876  41EE FFBC                lea.l      A0, [A6 - 0x44]
0000087A  43EE FFE4                lea.l      A1, [A6 - 0x1C]
0000087E  20D9                     move.l     [A0]+, [A1]+
00000880  20D9                     move.l     [A0]+, [A1]+
00000882  6000 03A0                bra        +0x3A2 /* 00000C24 */
label00000886:
00000886  302E FFFA                move.w     D0, [A6 - 0x6]
0000088A  48C0                     ext.l      D0
0000088C  322E FFF6                move.w     D1, [A6 - 0xA]
00000890  48C1                     ext.l      D1
00000892  9081                     sub.l      D0, D1
00000894  322E FFD6                move.w     D1, [A6 - 0x2A]
00000898  48C1                     ext.l      D1
0000089A  9081                     sub.l      D0, D1
0000089C  322E FFD2                move.w     D1, [A6 - 0x2E]
000008A0  48C1                     ext.l      D1
000008A2  D280                     add.l      D1, D0
000008A4  E281                     asr        D1, 1
000008A6  3D41 FFCE                move.w     [A6 - 0x32], D1
000008AA  302E FFF4                move.w     D0, [A6 - 0xC]
000008AE  D07C 003C                add.w      D0, 0x3C /* '<' */
000008B2  3D40 FFCC                move.w     [A6 - 0x34], D0
000008B6  302E FFE6                move.w     D0, [A6 - 0x1A]
000008BA  916E FFCE                sub.w      [A6 - 0x32], D0
000008BE  302E FFE4                move.w     D0, [A6 - 0x1C]
000008C2  916E FFCC                sub.w      [A6 - 0x34], D0
000008C6  41EE FFBC                lea.l      A0, [A6 - 0x44]
000008CA  43EE FFF4                lea.l      A1, [A6 - 0xC]
000008CE  20D9                     move.l     [A0]+, [A1]+
000008D0  20D9                     move.l     [A0]+, [A1]+
000008D2  6000 0350                bra        +0x352 /* 00000C24 */
label000008D6:
000008D6  302E FFF2                move.w     D0, [A6 - 0xE]
000008DA  48C0                     ext.l      D0
000008DC  322E FFEE                move.w     D1, [A6 - 0x12]
000008E0  48C1                     ext.l      D1
000008E2  9081                     sub.l      D0, D1
000008E4  322E FFD6                move.w     D1, [A6 - 0x2A]
000008E8  48C1                     ext.l      D1
000008EA  9081                     sub.l      D0, D1
000008EC  322E FFD2                move.w     D1, [A6 - 0x2E]
000008F0  48C1                     ext.l      D1
000008F2  D280                     add.l      D1, D0
000008F4  E281                     asr        D1, 1
000008F6  3D41 FFCE                move.w     [A6 - 0x32], D1
000008FA  302E FFEC                move.w     D0, [A6 - 0x14]
000008FE  D07C 003C                add.w      D0, 0x3C /* '<' */
00000902  3D40 FFCC                move.w     [A6 - 0x34], D0
00000906  302E FFE6                move.w     D0, [A6 - 0x1A]
0000090A  916E FFCE                sub.w      [A6 - 0x32], D0
0000090E  302E FFE4                move.w     D0, [A6 - 0x1C]
00000912  916E FFCC                sub.w      [A6 - 0x34], D0
00000916  41EE FFBC                lea.l      A0, [A6 - 0x44]
0000091A  43EE FFEC                lea.l      A1, [A6 - 0x14]
0000091E  20D9                     move.l     [A0]+, [A1]+
00000920  20D9                     move.l     [A0]+, [A1]+
00000922  6000 0300                bra        +0x302 /* 00000C24 */
label00000926:
00000926  302E FFFA                move.w     D0, [A6 - 0x6]
0000092A  48C0                     ext.l      D0
0000092C  322E FFF6                move.w     D1, [A6 - 0xA]
00000930  48C1                     ext.l      D1
00000932  9081                     sub.l      D0, D1
00000934  322E FFD6                move.w     D1, [A6 - 0x2A]
00000938  48C1                     ext.l      D1
0000093A  9081                     sub.l      D0, D1
0000093C  322E FFD2                move.w     D1, [A6 - 0x2E]
00000940  48C1                     ext.l      D1
00000942  D280                     add.l      D1, D0
00000944  E281                     asr        D1, 1
00000946  3D41 FFCE                move.w     [A6 - 0x32], D1
0000094A  302E FFF8                move.w     D0, [A6 - 0x8]
0000094E  48C0                     ext.l      D0
00000950  322E FFF4                move.w     D1, [A6 - 0xC]
00000954  48C1                     ext.l      D1
00000956  9081                     sub.l      D0, D1
00000958  322E FFD4                move.w     D1, [A6 - 0x2C]
0000095C  48C1                     ext.l      D1
0000095E  9081                     sub.l      D0, D1
00000960  322E FFD0                move.w     D1, [A6 - 0x30]
00000964  48C1                     ext.l      D1
00000966  D280                     add.l      D1, D0
00000968  E281                     asr        D1, 1
0000096A  3D41 FFCC                move.w     [A6 - 0x34], D1
0000096E  302E FFE6                move.w     D0, [A6 - 0x1A]
00000972  916E FFCE                sub.w      [A6 - 0x32], D0
00000976  302E FFE4                move.w     D0, [A6 - 0x1C]
0000097A  916E FFCC                sub.w      [A6 - 0x34], D0
0000097E  41EE FFBC                lea.l      A0, [A6 - 0x44]
00000982  43EE FFF4                lea.l      A1, [A6 - 0xC]
00000986  20D9                     move.l     [A0]+, [A1]+
00000988  20D9                     move.l     [A0]+, [A1]+
0000098A  6000 0298                bra        +0x29A /* 00000C24 */
label0000098E:
0000098E  41EE FFF4                lea.l      A0, [A6 - 0xC]
00000992  43EE FFEC                lea.l      A1, [A6 - 0x14]
00000996  20D9                     move.l     [A0]+, [A1]+
00000998  20D9                     move.l     [A0]+, [A1]+
label0000099A:
0000099A  41EE FFBC                lea.l      A0, [A6 - 0x44]
0000099E  43EE FFF4                lea.l      A1, [A6 - 0xC]
000009A2  20D9                     move.l     [A0]+, [A1]+
000009A4  20D9                     move.l     [A0]+, [A1]+
000009A6  4A46                     tst.w      D6
000009A8  6654                     bne        +0x56 /* 000009FE */
000009AA  7004                     moveq.l    D0, 0x04
000009AC  2F00                     move.l     -[A7], D0
000009AE  2F2D FCE8                move.l     -[A7], [A5 - 0x318]
000009B2  4EAD 1892                jsr        [A5 + 0x1892 /* export_782, CODE:32 @ 0000622E */]
000009B6  4A80                     tst.l      D0
000009B8  504F                     addq.w     A7, 8
000009BA  6708                     beq        +0xA /* 000009C4 */
000009BC  2D6D FCE8 FF38           move.l     [A6 - 0xC8], [A5 - 0x318]
000009C2  6012                     bra        +0x14 /* 000009D6 */
label000009C4:
000009C4  302E FFF4                move.w     D0, [A6 - 0xC]
000009C8  D07C 0028                add.w      D0, 0x28 /* '(' */
000009CC  3D40 FF38                move.w     [A6 - 0xC8], D0
000009D0  3D6E FFF6 FF3A           move.w     [A6 - 0xC6], [A6 - 0xA]
label000009D6:
000009D6  066E 000A FF3A           addi.w     [A6 - 0xC6], 0xA /* '\n' */
000009DC  066E 000A FF38           addi.w     [A6 - 0xC8], 0xA /* '\n' */
000009E2  7004                     moveq.l    D0, 0x04
000009E4  2F00                     move.l     -[A7], D0
000009E6  2F2E FF38                move.l     -[A7], [A6 - 0xC8]
000009EA  4EAD 1892                jsr        [A5 + 0x1892 /* export_782, CODE:32 @ 0000622E */]
000009EE  2D40 FD0A                move.l     [A6 - 0x2F6], D0
000009F2  504F                     addq.w     A7, 8
000009F4  4AAE FD0A                tst.l      [A6 - 0x2F6]
000009F8  66DC                     bne        -0x22 /* 000009D6 */
000009FA  6000 013E                bra        +0x140 /* 00000B3A */
label000009FE:
000009FE  7004                     moveq.l    D0, 0x04
00000A00  2F00                     move.l     -[A7], D0
00000A02  2F2D FCE8                move.l     -[A7], [A5 - 0x318]
00000A06  4EAD 1892                jsr        [A5 + 0x1892 /* export_782, CODE:32 @ 0000622E */]
00000A0A  4A80                     tst.l      D0
00000A0C  504F                     addq.w     A7, 8
00000A0E  6714                     beq        +0x16 /* 00000A24 */
00000A10  2D6D FCE8 FF38           move.l     [A6 - 0xC8], [A5 - 0x318]
00000A16  066E 000A FF3A           addi.w     [A6 - 0xC6], 0xA /* '\n' */
00000A1C  066E 000A FF38           addi.w     [A6 - 0xC8], 0xA /* '\n' */
00000A22  6012                     bra        +0x14 /* 00000A36 */
label00000A24:
00000A24  302E FFF4                move.w     D0, [A6 - 0xC]
00000A28  D07C 0028                add.w      D0, 0x28 /* '(' */
00000A2C  3D40 FF38                move.w     [A6 - 0xC8], D0
00000A30  3D6E FFF6 FF3A           move.w     [A6 - 0xC6], [A6 - 0xA]
label00000A36:
00000A36  42AE FCF2                clr.l      [A6 - 0x30E]
00000A3A  2D6E FF38 FCF6           move.l     [A6 - 0x30A], [A6 - 0xC8]
00000A40  302B 0006                move.w     D0, [A3 + 0x6]
00000A44  48C0                     ext.l      D0
00000A46  322B 0002                move.w     D1, [A3 + 0x2]
00000A4A  48C1                     ext.l      D1
00000A4C  9081                     sub.l      D0, D1
00000A4E  322B 0004                move.w     D1, [A3 + 0x4]
00000A52  48C1                     ext.l      D1
00000A54  3413                     move.w     D2, [A3]
00000A56  48C2                     ext.l      D2
00000A58  9282                     sub.l      D1, D2
00000A5A  B280                     cmp.l      D1, D0
00000A5C  6D12                     blt        +0x14 /* 00000A70 */
00000A5E  302B 0006                move.w     D0, [A3 + 0x6]
00000A62  5440                     addq.w     D0, 2
00000A64  3D40 FF3A                move.w     [A6 - 0xC6], D0
00000A68  3D7C 000A FCF4           move.w     [A6 - 0x30C], 0xA /* '\n' */
00000A6E  6010                     bra        +0x12 /* 00000A80 */
label00000A70:
00000A70  302B 0004                move.w     D0, [A3 + 0x4]
00000A74  5440                     addq.w     D0, 2
00000A76  3D40 FF38                move.w     [A6 - 0xC8], D0
00000A7A  3D7C 000A FCF2           move.w     [A6 - 0x30E], 0xA /* '\n' */
label00000A80:
00000A80  4204                     clr.b      D4
label00000A82:
00000A82  41EE FD02                lea.l      A0, [A6 - 0x2FE]
00000A86  43EE FFD0                lea.l      A1, [A6 - 0x30]
00000A8A  20D9                     move.l     [A0]+, [A1]+
00000A8C  20D9                     move.l     [A0]+, [A1]+
00000A8E  486E FD02                pea.l      [A6 - 0x2FE]
00000A92  302E FF3A                move.w     D0, [A6 - 0xC6]
00000A96  D06E FCF4                add.w      D0, [A6 - 0x30C]
00000A9A  906E FD04                sub.w      D0, [A6 - 0x2FC]
00000A9E  3F00                     move.w     -[A7], D0
00000AA0  302E FF38                move.w     D0, [A6 - 0xC8]
00000AA4  D06E FCF2                add.w      D0, [A6 - 0x30E]
00000AA8  906E FD02                sub.w      D0, [A6 - 0x2FE]
00000AAC  3F00                     move.w     -[A7], D0
00000AAE  A8A8                     syscall    OffsetRect
00000AB0  4205                     clr.b      D5
00000AB2  302E FD08                move.w     D0, [A6 - 0x2F8]
00000AB6  B06E FFC2                cmp.w      D0, [A6 - 0x3E]
00000ABA  6C2E                     bge        +0x30 /* 00000AEA */
00000ABC  302E FD06                move.w     D0, [A6 - 0x2FA]
00000AC0  B06E FFC0                cmp.w      D0, [A6 - 0x40]
00000AC4  6C24                     bge        +0x26 /* 00000AEA */
00000AC6  4247                     clr.w      D7
00000AC8  601A                     bra        +0x1C /* 00000AE4 */
label00000ACA:
00000ACA  558F                     subq.l     A7, 2
00000ACC  486E FD02                pea.l      [A6 - 0x2FE]
00000AD0  4873 7600                pea.l      [A3 + D7.w * 8]
00000AD4  486E FCFA                pea.l      [A6 - 0x306]
00000AD8  A8AA                     syscall    SectRect
00000ADA  4A1F                     tst.b      [A7]+
00000ADC  6702                     beq        +0x4 /* 00000AE0 */
00000ADE  7A01                     moveq.l    D5, 0x01
label00000AE0:
00000AE0  3007                     move.w     D0, D7
00000AE2  5247                     addq.w     D7, 1
label00000AE4:
00000AE4  BC47                     cmp.w      D6, D7
00000AE6  6EE2                     bgt        -0x1C /* 00000ACA */
00000AE8  6036                     bra        +0x38 /* 00000B20 */
label00000AEA:
00000AEA  7A01                     moveq.l    D5, 0x01
00000AEC  4A04                     tst.b      D4
00000AEE  664A                     bne        +0x4C /* 00000B3A */
00000AF0  7801                     moveq.l    D4, 0x01
00000AF2  2D6E FCF6 FF38           move.l     [A6 - 0xC8], [A6 - 0x30A]
00000AF8  4A6E FCF4                tst.w      [A6 - 0x30C]
00000AFC  6712                     beq        +0x14 /* 00000B10 */
00000AFE  426E FCF4                clr.w      [A6 - 0x30C]
00000B02  3D7C 000A FCF2           move.w     [A6 - 0x30E], 0xA /* '\n' */
00000B08  3D6B 0004 FF38           move.w     [A6 - 0xC8], [A3 + 0x4]
00000B0E  6010                     bra        +0x12 /* 00000B20 */
label00000B10:
00000B10  3D7C 000A FCF4           move.w     [A6 - 0x30C], 0xA /* '\n' */
00000B16  426E FCF2                clr.w      [A6 - 0x30E]
00000B1A  3D6B 0006 FF3A           move.w     [A6 - 0xC6], [A3 + 0x6]
label00000B20:
00000B20  4A05                     tst.b      D5
00000B22  6710                     beq        +0x12 /* 00000B34 */
00000B24  302E FCF4                move.w     D0, [A6 - 0x30C]
00000B28  D16E FF3A                add.w      [A6 - 0xC6], D0
00000B2C  302E FCF2                move.w     D0, [A6 - 0x30E]
00000B30  D16E FF38                add.w      [A6 - 0xC8], D0
label00000B34:
00000B34  4A05                     tst.b      D5
00000B36  6600 FF4A                bne        -0xB4 /* 00000A82 */
label00000B3A:
00000B3A  302E FF3A                move.w     D0, [A6 - 0xC6]
00000B3E  906E FFE6                sub.w      D0, [A6 - 0x1A]
00000B42  3D40 FFCE                move.w     [A6 - 0x32], D0
00000B46  302E FF38                move.w     D0, [A6 - 0xC8]
00000B4A  906E FFE4                sub.w      D0, [A6 - 0x1C]
00000B4E  3D40 FFCC                move.w     [A6 - 0x34], D0
00000B52  2B6E FF38 FCE8           move.l     [A5 - 0x318], [A6 - 0xC8]
00000B58  6000 00CA                bra        +0xCC /* 00000C24 */
label00000B5C:
00000B5C  302E FFEA                move.w     D0, [A6 - 0x16]
00000B60  48C0                     ext.l      D0
00000B62  322E FFE6                move.w     D1, [A6 - 0x1A]
00000B66  48C1                     ext.l      D1
00000B68  9081                     sub.l      D0, D1
00000B6A  322E FFD6                move.w     D1, [A6 - 0x2A]
00000B6E  48C1                     ext.l      D1
00000B70  9081                     sub.l      D0, D1
00000B72  322E FFD2                move.w     D1, [A6 - 0x2E]
00000B76  48C1                     ext.l      D1
00000B78  D280                     add.l      D1, D0
00000B7A  E281                     asr        D1, 1
00000B7C  3D41 FFCE                move.w     [A6 - 0x32], D1
00000B80  302E FFE8                move.w     D0, [A6 - 0x18]
00000B84  48C0                     ext.l      D0
00000B86  322E FFE4                move.w     D1, [A6 - 0x1C]
00000B8A  48C1                     ext.l      D1
00000B8C  9081                     sub.l      D0, D1
00000B8E  322E FFD4                move.w     D1, [A6 - 0x2C]
00000B92  48C1                     ext.l      D1
00000B94  9081                     sub.l      D0, D1
00000B96  322E FFD0                move.w     D1, [A6 - 0x30]
00000B9A  48C1                     ext.l      D1
00000B9C  D280                     add.l      D1, D0
00000B9E  E281                     asr        D1, 1
00000BA0  3D41 FFCC                move.w     [A6 - 0x34], D1
00000BA4  41EE FFBC                lea.l      A0, [A6 - 0x44]
00000BA8  43EE FFE4                lea.l      A1, [A6 - 0x1C]
00000BAC  20D9                     move.l     [A0]+, [A1]+
00000BAE  20D9                     move.l     [A0]+, [A1]+
00000BB0  6072                     bra        +0x74 /* 00000C24 */
label00000BB2:
00000BB2  3D7C 000A FFCE           move.w     [A6 - 0x32], 0xA /* '\n' */
00000BB8  3D7C 000A FFCC           move.w     [A6 - 0x34], 0xA /* '\n' */
00000BBE  6064                     bra        +0x66 /* 00000C24 */
label00000BC0:
00000BC0  302E FFF2                move.w     D0, [A6 - 0xE]
00000BC4  48C0                     ext.l      D0
00000BC6  322E FFEE                move.w     D1, [A6 - 0x12]
00000BCA  48C1                     ext.l      D1
00000BCC  9081                     sub.l      D0, D1
00000BCE  322E FFD6                move.w     D1, [A6 - 0x2A]
00000BD2  48C1                     ext.l      D1
00000BD4  9081                     sub.l      D0, D1
00000BD6  322E FFD2                move.w     D1, [A6 - 0x2E]
00000BDA  48C1                     ext.l      D1
00000BDC  D280                     add.l      D1, D0
00000BDE  E281                     asr        D1, 1
00000BE0  3D41 FFCE                move.w     [A6 - 0x32], D1
00000BE4  302E FFF0                move.w     D0, [A6 - 0x10]
00000BE8  48C0                     ext.l      D0
00000BEA  322E FFEC                move.w     D1, [A6 - 0x14]
00000BEE  48C1                     ext.l      D1
00000BF0  9081                     sub.l      D0, D1
00000BF2  322E FFD4                move.w     D1, [A6 - 0x2C]
00000BF6  48C1                     ext.l      D1
00000BF8  9081                     sub.l      D0, D1
00000BFA  322E FFD0                move.w     D1, [A6 - 0x30]
00000BFE  48C1                     ext.l      D1
00000C00  D280                     add.l      D1, D0
00000C02  E281                     asr        D1, 1
00000C04  3D41 FFCC                move.w     [A6 - 0x34], D1
00000C08  302E FFE6                move.w     D0, [A6 - 0x1A]
00000C0C  916E FFCE                sub.w      [A6 - 0x32], D0
00000C10  302E FFE4                move.w     D0, [A6 - 0x1C]
00000C14  916E FFCC                sub.w      [A6 - 0x34], D0
00000C18  41EE FFBC                lea.l      A0, [A6 - 0x44]
00000C1C  43EE FFEC                lea.l      A1, [A6 - 0x14]
00000C20  20D9                     move.l     [A0]+, [A1]+
00000C22  20D9                     move.l     [A0]+, [A1]+
label00000C24:
00000C24  70FF                     moveq.l    D0, 0xFFFFFFFF
00000C26  B06E FFCE                cmp.w      D0, [A6 - 0x32]
00000C2A  6722                     beq        +0x24 /* 00000C4E */
00000C2C  486E FFD0                pea.l      [A6 - 0x30]
00000C30  302E FFCE                move.w     D0, [A6 - 0x32]
00000C34  D06E FFE6                add.w      D0, [A6 - 0x1A]
00000C38  906E FFD2                sub.w      D0, [A6 - 0x2E]
00000C3C  3F00                     move.w     -[A7], D0
00000C3E  302E FFCC                move.w     D0, [A6 - 0x34]
00000C42  D06E FFE4                add.w      D0, [A6 - 0x1C]
00000C46  906E FFD0                sub.w      D0, [A6 - 0x30]
00000C4A  3F00                     move.w     -[A7], D0
00000C4C  A8A8                     syscall    OffsetRect
label00000C4E:
00000C4E  4AAC 0084                tst.l      [A4 + 0x84]
00000C52  6600 0144                bne        +0x146 /* 00000D98 */
00000C56  4AAE FFD8                tst.l      [A6 - 0x28]
00000C5A  6700 00A6                beq        +0xA8 /* 00000D02 */
00000C5E  0CAD 0000 0200 F29A      cmpi.l     [A5 - 0xD66], 0x200
00000C66  6D46                     blt        +0x48 /* 00000CAE */
00000C68  598F                     subq.l     A7, 4
00000C6A  7000                     moveq.l    D0, 0x00
00000C6C  2F00                     move.l     -[A7], D0
00000C6E  486E FFD0                pea.l      [A6 - 0x30]
00000C72  206E FFFC                movea.l    A0, [A6 - 0x4]
00000C76  2050                     movea.l    A0, [A0]
00000C78  4868 0014                pea.l      [A0 + 0x14]
00000C7C  206E FFFC                movea.l    A0, [A6 - 0x4]
00000C80  2050                     movea.l    A0, [A0]
00000C82  1F28 000A                move.b     -[A7], [A0 + 0xA]
00000C86  206E FFFC                movea.l    A0, [A6 - 0x4]
00000C8A  2050                     movea.l    A0, [A0]
00000C8C  3F28 0008                move.w     -[A7], [A0 + 0x8]
00000C90  206E FFD8                movea.l    A0, [A6 - 0x28]
00000C94  2F28 0084                move.l     -[A7], [A0 + 0x84]
00000C98  206E FFFC                movea.l    A0, [A6 - 0x4]
00000C9C  2050                     movea.l    A0, [A0]
00000C9E  1F28 000C                move.b     -[A7], [A0 + 0xC]
00000CA2  2F0C                     move.l     -[A7], A4
00000CA4  AA45                     syscall    NewCWindow
00000CA6  295F 0084                move.l     [A4 + 0x84], [A7]+
00000CAA  6000 00EC                bra        +0xEE /* 00000D98 */
label00000CAE:
00000CAE  7014                     moveq.l    D0, 0x14
00000CB0  B06E FFD0                cmp.w      D0, [A6 - 0x30]
00000CB4  6F06                     ble        +0x8 /* 00000CBC */
00000CB6  3D7C 0014 FFD0           move.w     [A6 - 0x30], 0x14
label00000CBC:
00000CBC  598F                     subq.l     A7, 4
00000CBE  7000                     moveq.l    D0, 0x00
00000CC0  2F00                     move.l     -[A7], D0
00000CC2  486E FFD0                pea.l      [A6 - 0x30]
00000CC6  206E FFFC                movea.l    A0, [A6 - 0x4]
00000CCA  2050                     movea.l    A0, [A0]
00000CCC  4868 0014                pea.l      [A0 + 0x14]
00000CD0  206E FFFC                movea.l    A0, [A6 - 0x4]
00000CD4  2050                     movea.l    A0, [A0]
00000CD6  1F28 000A                move.b     -[A7], [A0 + 0xA]
00000CDA  206E FFFC                movea.l    A0, [A6 - 0x4]
00000CDE  2050                     movea.l    A0, [A0]
00000CE0  3F28 0008                move.w     -[A7], [A0 + 0x8]
00000CE4  206E FFD8                movea.l    A0, [A6 - 0x28]
00000CE8  2F28 0084                move.l     -[A7], [A0 + 0x84]
00000CEC  206E FFFC                movea.l    A0, [A6 - 0x4]
00000CF0  2050                     movea.l    A0, [A0]
00000CF2  1F28 000C                move.b     -[A7], [A0 + 0xC]
00000CF6  2F0C                     move.l     -[A7], A4
00000CF8  A913                     syscall    NewWindow
00000CFA  295F 0084                move.l     [A4 + 0x84], [A7]+
00000CFE  6000 0098                bra        +0x9A /* 00000D98 */
label00000D02:
00000D02  0CAD 0000 0200 F29A      cmpi.l     [A5 - 0xD66], 0x200
00000D0A  6D40                     blt        +0x42 /* 00000D4C */
00000D0C  598F                     subq.l     A7, 4
00000D0E  7000                     moveq.l    D0, 0x00
00000D10  2F00                     move.l     -[A7], D0
00000D12  486E FFD0                pea.l      [A6 - 0x30]
00000D16  206E FFFC                movea.l    A0, [A6 - 0x4]
00000D1A  2050                     movea.l    A0, [A0]
00000D1C  4868 0014                pea.l      [A0 + 0x14]
00000D20  206E FFFC                movea.l    A0, [A6 - 0x4]
00000D24  2050                     movea.l    A0, [A0]
00000D26  1F28 000A                move.b     -[A7], [A0 + 0xA]
00000D2A  206E FFFC                movea.l    A0, [A6 - 0x4]
00000D2E  2050                     movea.l    A0, [A0]
00000D30  3F28 0008                move.w     -[A7], [A0 + 0x8]
00000D34  72FF                     moveq.l    D1, 0xFFFFFFFF
00000D36  2F01                     move.l     -[A7], D1
00000D38  206E FFFC                movea.l    A0, [A6 - 0x4]
00000D3C  2050                     movea.l    A0, [A0]
00000D3E  1F28 000C                move.b     -[A7], [A0 + 0xC]
00000D42  2F0C                     move.l     -[A7], A4
00000D44  AA45                     syscall    NewCWindow
00000D46  295F 0084                move.l     [A4 + 0x84], [A7]+
00000D4A  604C                     bra        +0x4E /* 00000D98 */
label00000D4C:
00000D4C  7014                     moveq.l    D0, 0x14
00000D4E  B06E FFD0                cmp.w      D0, [A6 - 0x30]
00000D52  6F06                     ble        +0x8 /* 00000D5A */
00000D54  3D7C 0014 FFD0           move.w     [A6 - 0x30], 0x14
label00000D5A:
00000D5A  598F                     subq.l     A7, 4
00000D5C  7000                     moveq.l    D0, 0x00
00000D5E  2F00                     move.l     -[A7], D0
00000D60  486E FFD0                pea.l      [A6 - 0x30]
00000D64  206E FFFC                movea.l    A0, [A6 - 0x4]
00000D68  2050                     movea.l    A0, [A0]
00000D6A  4868 0014                pea.l      [A0 + 0x14]
00000D6E  206E FFFC                movea.l    A0, [A6 - 0x4]
00000D72  2050                     movea.l    A0, [A0]
00000D74  1F28 000A                move.b     -[A7], [A0 + 0xA]
00000D78  206E FFFC                movea.l    A0, [A6 - 0x4]
00000D7C  2050                     movea.l    A0, [A0]
00000D7E  3F28 0008                move.w     -[A7], [A0 + 0x8]
00000D82  72FF                     moveq.l    D1, 0xFFFFFFFF
00000D84  2F01                     move.l     -[A7], D1
00000D86  206E FFFC                movea.l    A0, [A6 - 0x4]
00000D8A  2050                     movea.l    A0, [A0]
00000D8C  1F28 000C                move.b     -[A7], [A0 + 0xC]
00000D90  2F0C                     move.l     -[A7], A4
00000D92  A913                     syscall    NewWindow
00000D94  295F 0084                move.l     [A4 + 0x84], [A7]+
label00000D98:
00000D98  486E FFC4                pea.l      [A6 - 0x3C]
00000D9C  A874                     syscall    GetPort
00000D9E  2F2C 0084                move.l     -[A7], [A4 + 0x84]
00000DA2  A873                     syscall    SetPort
00000DA4  4AAC 0088                tst.l      [A4 + 0x88]
00000DA8  670A                     beq        +0xC /* 00000DB4 */
00000DAA  2F2C 0084                move.l     -[A7], [A4 + 0x84]
00000DAE  2F2C 0088                move.l     -[A7], [A4 + 0x88]
00000DB2  AA41                     syscall    SetWinColor
label00000DB4:
00000DB4  4AAC 0162                tst.l      [A4 + 0x162]
00000DB8  6606                     bne        +0x8 /* 00000DC0 */
00000DBA  7000                     moveq.l    D0, 0x00
00000DBC  2940 0162                move.l     [A4 + 0x162], D0
label00000DC0:
00000DC0  2F2C 00CE                move.l     -[A7], [A4 + 0xCE]
00000DC4  206C 0084                movea.l    A0, [A4 + 0x84]
00000DC8  4868 0010                pea.l      [A0 + 0x10]
00000DCC  A8DF                     syscall    RectRgn
00000DCE  598F                     subq.l     A7, 4
00000DD0  A8D8                     syscall    NewRgn
00000DD2  2D5F FFC8                move.l     [A6 - 0x38], [A7]+
00000DD6  660C                     bne        +0xE /* 00000DE4 */
00000DD8  70FF                     moveq.l    D0, 0xFFFFFFFF
00000DDA  2F00                     move.l     -[A7], D0
00000DDC  2F0C                     move.l     -[A7], A4
00000DDE  4EAD 14E2                jsr        [A5 + 0x14E2 /* export_664, CODE:32 @ 000007B8 */]
00000DE2  504F                     addq.w     A7, 8
label00000DE4:
00000DE4  4204                     clr.b      D4
00000DE6  4AAC 0088                tst.l      [A4 + 0x88]
00000DEA  6748                     beq        +0x4A /* 00000E34 */
00000DEC  4245                     clr.w      D5
00000DEE  6036                     bra        +0x38 /* 00000E26 */
label00000DF0:
00000DF0  48C5                     ext.l      D5
00000DF2  206C 0088                movea.l    A0, [A4 + 0x88]
00000DF6  2050                     movea.l    A0, [A0]
00000DF8  4A70 5E08                tst.w      [A0 + D5 * 8 + 0x8]
00000DFC  6624                     bne        +0x26 /* 00000E22 */
00000DFE  48C5                     ext.l      D5
00000E00  206C 0088                movea.l    A0, [A4 + 0x88]
00000E04  2050                     movea.l    A0, [A0]
00000E06  41F0 5E0A                lea.l      A0, [A0 + D5 * 8 + 0xA]
00000E0A  43EC 009C                lea.l      A1, [A4 + 0x9C]
00000E0E  22D8                     move.l     [A1]+, [A0]+
00000E10  32D8                     move.w     [A1]+, [A0]+
00000E12  0CAD 0000 0200 F29A      cmpi.l     [A5 - 0xD66], 0x200
00000E1A  6D06                     blt        +0x8 /* 00000E22 */
00000E1C  486C 009C                pea.l      [A4 + 0x9C]
00000E20  AA15                     syscall    RGBBackColor
label00000E22:
00000E22  3005                     move.w     D0, D5
00000E24  5245                     addq.w     D5, 1
label00000E26:
00000E26  206C 0088                movea.l    A0, [A4 + 0x88]
00000E2A  2050                     movea.l    A0, [A0]
00000E2C  BA68 0006                cmp.w      D5, [A0 + 0x6]
00000E30  6FBE                     ble        -0x40 /* 00000DF0 */
00000E32  601A                     bra        +0x1C /* 00000E4E */
label00000E34:
00000E34  0CAD 0000 0200 F29A      cmpi.l     [A5 - 0xD66], 0x200
00000E3C  6D10                     blt        +0x12 /* 00000E4E */
00000E3E  2F3C 1000 0001           move.l     -[A7], 0x10000001
00000E44  486C 009C                pea.l      [A4 + 0x9C]
00000E48  4EAD 15C2                jsr        [A5 + 0x15C2 /* export_692, CODE:32 @ 000026A8 */]
00000E4C  504F                     addq.w     A7, 8
label00000E4E:
00000E4E  598F                     subq.l     A7, 4
00000E50  3F2E 000E                move.w     -[A7], [A6 + 0xE]
00000E54  AA92                     syscall    GetNewPalette
00000E56  295F 00FC                move.l     [A4 + 0xFC], [A7]+
00000E5A  6714                     beq        +0x16 /* 00000E70 */
00000E5C  2F2C 0084                move.l     -[A7], [A4 + 0x84]
00000E60  2F2C 00FC                move.l     -[A7], [A4 + 0xFC]
00000E64  7001                     moveq.l    D0, 0x01
00000E66  1F00                     move.b     -[A7], D0
00000E68  AA95                     syscall    SetPalette/NSetPalette
00000E6A  2F2C 0084                move.l     -[A7], [A4 + 0x84]
00000E6E  AA94                     syscall    ActivatePalette
label00000E70:
00000E70  206E FFFC                movea.l    A0, [A6 - 0x4]
00000E74  2050                     movea.l    A0, [A0]
00000E76  3028 0012                move.w     D0, [A0 + 0x12]
00000E7A  48C0                     ext.l      D0
00000E7C  2F00                     move.l     -[A7], D0
00000E7E  486E FD0E                pea.l      [A6 - 0x2F2]
00000E82  4EAD 15F2                jsr        [A5 + 0x15F2 /* export_698, CODE:32 @ 00003302 */]
00000E86  3A2E 0012                move.w     D5, [A6 + 0x12]
00000E8A  4246                     clr.w      D6
00000E8C  504F                     addq.w     A7, 8
00000E8E  6000 02EA                bra        +0x2EC /* 0000117A */
label00000E92:
00000E92  48C6                     ext.l      D6
00000E94  2F06                     move.l     -[A7], D6
00000E96  486E FD0E                pea.l      [A6 - 0x2F2]
00000E9A  4EAD 1602                jsr        [A5 + 0x1602 /* export_700, CODE:32 @ 000033F4 */]
00000E9E  2040                     movea.l    A0, D0
00000EA0  43EE FE2C                lea.l      A1, [A6 - 0x1D4]
00000EA4  7042                     moveq.l    D0, 0x42
label00000EA6:
00000EA6  22D8                     move.l     [A1]+, [A0]+
00000EA8  51C8 FFFC                dbf        D0, -0x6 /* 00000EA6 */
00000EAC  2F2E FFC8                move.l     -[A7], [A6 - 0x38]
00000EB0  486E FE30                pea.l      [A6 - 0x1D0]
00000EB4  A8DF                     syscall    RectRgn
00000EB6  2F2C 00CE                move.l     -[A7], [A4 + 0xCE]
00000EBA  2F2E FFC8                move.l     -[A7], [A6 - 0x38]
00000EBE  2F2C 00CE                move.l     -[A7], [A4 + 0xCE]
00000EC2  A8E6                     syscall    DiffRgn
00000EC4  0CAD 0000 0200 F29A      cmpi.l     [A5 - 0xD66], 0x200
00000ECC  504F                     addq.w     A7, 8
00000ECE  6D06                     blt        +0x8 /* 00000ED6 */
00000ED0  486C 009C                pea.l      [A4 + 0x9C]
00000ED4  AA15                     syscall    RGBBackColor
label00000ED6:
00000ED6  707F                     moveq.l    D0, 0x7F
00000ED8  C06E FE2C                and.w      D0, [A6 - 0x1D4]
00000EDC  6736                     beq        +0x38 /* 00000F14 */
00000EDE  5940                     subq.w     D0, 4
00000EE0  675A                     beq        +0x5C /* 00000F3C */
00000EE2  5340                     subq.w     D0, 1
00000EE4  6700 0086                beq        +0x88 /* 00000F6C */
00000EE8  5340                     subq.w     D0, 1
00000EEA  6700 00B0                beq        +0xB2 /* 00000F9C */
00000EEE  5340                     subq.w     D0, 1
00000EF0  6700 00DA                beq        +0xDC /* 00000FCC */
00000EF4  5340                     subq.w     D0, 1
00000EF6  6700 0104                beq        +0x106 /* 00000FFC */
00000EFA  5140                     subq.w     D0, 8
00000EFC  6700 012A                beq        +0x12C /* 00001028 */
00000F00  0440 0010                subi.w     D0, 0x10
00000F04  6700 014C                beq        +0x14E /* 00001052 */
00000F08  0440 0020                subi.w     D0, 0x20 /* ' ' */
00000F0C  6700 0172                beq        +0x174 /* 00001080 */
00000F10  6000 019A                bra        +0x19C /* 000010AC */
label00000F14:
00000F14  486E FE30                pea.l      [A6 - 0x1D0]
00000F18  3006                     move.w     D0, D6
00000F1A  5240                     addq.w     D0, 1
00000F1C  48C0                     ext.l      D0
00000F1E  2F00                     move.l     -[A7], D0
00000F20  204C                     movea.l    A0, A4
00000F22  226C 0060                movea.l    A1, [A4 + 0x60]
00000F26  D0E9 01D8                add.w      A0, [A1 + 0x1D8]
00000F2A  2F08                     move.l     -[A7], A0
00000F2C  2049                     movea.l    A0, A1
00000F2E  2268 01DC                movea.l    A1, [A0 + 0x1DC]
00000F32  4E91                     jsr        [A1]
00000F34  4FEF 000C                lea.l      A7, [A7 + 0xC]
00000F38  6000 0172                bra        +0x174 /* 000010AC */
label00000F3C:
00000F3C  486E FE38                pea.l      [A6 - 0x1C8]
00000F40  7000                     moveq.l    D0, 0x00
00000F42  2F00                     move.l     -[A7], D0
00000F44  486E FE30                pea.l      [A6 - 0x1D0]
00000F48  3206                     move.w     D1, D6
00000F4A  5241                     addq.w     D1, 1
00000F4C  48C1                     ext.l      D1
00000F4E  2F01                     move.l     -[A7], D1
00000F50  204C                     movea.l    A0, A4
00000F52  226C 0060                movea.l    A1, [A4 + 0x60]
00000F56  D0E9 01B8                add.w      A0, [A1 + 0x1B8]
00000F5A  2F08                     move.l     -[A7], A0
00000F5C  2049                     movea.l    A0, A1
00000F5E  2268 01BC                movea.l    A1, [A0 + 0x1BC]
00000F62  4E91                     jsr        [A1]
00000F64  4FEF 0014                lea.l      A7, [A7 + 0x14]
00000F68  6000 0142                bra        +0x144 /* 000010AC */
label00000F6C:
00000F6C  486E FE38                pea.l      [A6 - 0x1C8]
00000F70  7001                     moveq.l    D0, 0x01
00000F72  2F00                     move.l     -[A7], D0
00000F74  486E FE30                pea.l      [A6 - 0x1D0]
00000F78  3206                     move.w     D1, D6
00000F7A  5241                     addq.w     D1, 1
00000F7C  48C1                     ext.l      D1
00000F7E  2F01                     move.l     -[A7], D1
00000F80  204C                     movea.l    A0, A4
00000F82  226C 0060                movea.l    A1, [A4 + 0x60]
00000F86  D0E9 01B8                add.w      A0, [A1 + 0x1B8]
00000F8A  2F08                     move.l     -[A7], A0
00000F8C  2049                     movea.l    A0, A1
00000F8E  2268 01BC                movea.l    A1, [A0 + 0x1BC]
00000F92  4E91                     jsr        [A1]
00000F94  4FEF 0014                lea.l      A7, [A7 + 0x14]
00000F98  6000 0112                bra        +0x114 /* 000010AC */
label00000F9C:
00000F9C  486E FE38                pea.l      [A6 - 0x1C8]
00000FA0  7002                     moveq.l    D0, 0x02
00000FA2  2F00                     move.l     -[A7], D0
00000FA4  486E FE30                pea.l      [A6 - 0x1D0]
00000FA8  3206                     move.w     D1, D6
00000FAA  5241                     addq.w     D1, 1
00000FAC  48C1                     ext.l      D1
00000FAE  2F01                     move.l     -[A7], D1
00000FB0  204C                     movea.l    A0, A4
00000FB2  226C 0060                movea.l    A1, [A4 + 0x60]
00000FB6  D0E9 01B8                add.w      A0, [A1 + 0x1B8]
00000FBA  2F08                     move.l     -[A7], A0
00000FBC  2049                     movea.l    A0, A1
00000FBE  2268 01BC                movea.l    A1, [A0 + 0x1BC]
00000FC2  4E91                     jsr        [A1]
00000FC4  4FEF 0014                lea.l      A7, [A7 + 0x14]
00000FC8  6000 00E2                bra        +0xE4 /* 000010AC */
label00000FCC:
00000FCC  302E FE2E                move.w     D0, [A6 - 0x1D2]
00000FD0  48C0                     ext.l      D0
00000FD2  2F00                     move.l     -[A7], D0
00000FD4  486E FE30                pea.l      [A6 - 0x1D0]
00000FD8  3006                     move.w     D0, D6
00000FDA  5240                     addq.w     D0, 1
00000FDC  48C0                     ext.l      D0
00000FDE  2F00                     move.l     -[A7], D0
00000FE0  204C                     movea.l    A0, A4
00000FE2  226C 0060                movea.l    A1, [A4 + 0x60]
00000FE6  D0E9 01D0                add.w      A0, [A1 + 0x1D0]
00000FEA  2F08                     move.l     -[A7], A0
00000FEC  2049                     movea.l    A0, A1
00000FEE  2268 01D4                movea.l    A1, [A0 + 0x1D4]
00000FF2  4E91                     jsr        [A1]
00000FF4  4FEF 0010                lea.l      A7, [A7 + 0x10]
00000FF8  6000 00B2                bra        +0xB4 /* 000010AC */
label00000FFC:
00000FFC  486E FE38                pea.l      [A6 - 0x1C8]
00001000  486E FE30                pea.l      [A6 - 0x1D0]
00001004  3006                     move.w     D0, D6
00001006  5240                     addq.w     D0, 1
00001008  48C0                     ext.l      D0
0000100A  2F00                     move.l     -[A7], D0
0000100C  204C                     movea.l    A0, A4
0000100E  226C 0060                movea.l    A1, [A4 + 0x60]
00001012  D0E9 01C0                add.w      A0, [A1 + 0x1C0]
00001016  2F08                     move.l     -[A7], A0
00001018  2049                     movea.l    A0, A1
0000101A  2268 01C4                movea.l    A1, [A0 + 0x1C4]
0000101E  4E91                     jsr        [A1]
00001020  4FEF 0010                lea.l      A7, [A7 + 0x10]
00001024  6000 0086                bra        +0x88 /* 000010AC */
label00001028:
00001028  486E FE38                pea.l      [A6 - 0x1C8]
0000102C  486E FE30                pea.l      [A6 - 0x1D0]
00001030  3006                     move.w     D0, D6
00001032  5240                     addq.w     D0, 1
00001034  48C0                     ext.l      D0
00001036  2F00                     move.l     -[A7], D0
00001038  204C                     movea.l    A0, A4
0000103A  226C 0060                movea.l    A1, [A4 + 0x60]
0000103E  D0E9 01C8                add.w      A0, [A1 + 0x1C8]
00001042  2F08                     move.l     -[A7], A0
00001044  2049                     movea.l    A0, A1
00001046  2268 01CC                movea.l    A1, [A0 + 0x1CC]
0000104A  4E91                     jsr        [A1]
0000104C  4FEF 0010                lea.l      A7, [A7 + 0x10]
00001050  605A                     bra        +0x5C /* 000010AC */
label00001052:
00001052  302E FE2E                move.w     D0, [A6 - 0x1D2]
00001056  48C0                     ext.l      D0
00001058  2F00                     move.l     -[A7], D0
0000105A  486E FE30                pea.l      [A6 - 0x1D0]
0000105E  3006                     move.w     D0, D6
00001060  5240                     addq.w     D0, 1
00001062  48C0                     ext.l      D0
00001064  2F00                     move.l     -[A7], D0
00001066  204C                     movea.l    A0, A4
00001068  226C 0060                movea.l    A1, [A4 + 0x60]
0000106C  D0E9 01E8                add.w      A0, [A1 + 0x1E8]
00001070  2F08                     move.l     -[A7], A0
00001072  2049                     movea.l    A0, A1
00001074  2268 01EC                movea.l    A1, [A0 + 0x1EC]
00001078  4E91                     jsr        [A1]
0000107A  4FEF 0010                lea.l      A7, [A7 + 0x10]
0000107E  602C                     bra        +0x2E /* 000010AC */
label00001080:
00001080  302E FE2E                move.w     D0, [A6 - 0x1D2]
00001084  48C0                     ext.l      D0
00001086  2F00                     move.l     -[A7], D0
00001088  486E FE30                pea.l      [A6 - 0x1D0]
0000108C  3006                     move.w     D0, D6
0000108E  5240                     addq.w     D0, 1
00001090  48C0                     ext.l      D0
00001092  2F00                     move.l     -[A7], D0
00001094  204C                     movea.l    A0, A4
00001096  226C 0060                movea.l    A1, [A4 + 0x60]
0000109A  D0E9 01E0                add.w      A0, [A1 + 0x1E0]
0000109E  2F08                     move.l     -[A7], A0
000010A0  2049                     movea.l    A0, A1
000010A2  2268 01E4                movea.l    A1, [A0 + 0x1E4]
000010A6  4E91                     jsr        [A1]
000010A8  4FEF 0010                lea.l      A7, [A7 + 0x10]
label000010AC:
000010AC  4A6E 0012                tst.w      [A6 + 0x12]
000010B0  6D00 00C4                blt        +0xC6 /* 00001176 */
000010B4  0CAD 0000 0200 F29A      cmpi.l     [A5 - 0xD66], 0x200
000010BC  6D00 00B8                blt        +0xBA /* 00001176 */
000010C0  598F                     subq.l     A7, 4
000010C2  2F3C 6363 7462           move.l     -[A7], 0x63637462 /* 'cctb' */
000010C8  3005                     move.w     D0, D5
000010CA  5245                     addq.w     D5, 1
000010CC  3F00                     move.w     -[A7], D0
000010CE  A9A0                     syscall    GetResource
000010D0  2D5F FCEE                move.l     [A6 - 0x312], [A7]+
000010D4  6700 009A                beq        +0x9C /* 00001170 */
000010D8  2D6E FCEE FCEA           move.l     [A6 - 0x316], [A6 - 0x312]
000010DE  558F                     subq.l     A7, 2
000010E0  486E FCEA                pea.l      [A6 - 0x316]
000010E4  4EAD 00E2                jsr        [A5 + 0xE2 /* export_24, CODE:1 @ 000017D4 */]
000010E8  2F2E FCEA                move.l     -[A7], [A6 - 0x316]
000010EC  2F08                     move.l     -[A7], A0
000010EE  2F2C 00DC                move.l     -[A7], [A4 + 0xDC]
000010F2  4EAD 1D3A                jsr        [A5 + 0x1D3A /* export_931, CODE:36 @ 0000100A */]
000010F6  588F                     addq.l     A7, 4
000010F8  205F                     movea.l    A0, [A7]+
000010FA  2640                     movea.l    A3, D0
000010FC  200B                     move.l     D0, A3
000010FE  6708                     beq        +0xA /* 00001108 */
00001100  200B                     move.l     D0, A3
00001102  7280                     moveq.l    D1, 0xFFFFFF80
00001104  D081                     add.l      D0, D1
00001106  6002                     bra        +0x4 /* 0000110A */
label00001108:
00001108  7000                     moveq.l    D0, 0x00
label0000110A:
0000110A  2240                     movea.l    A1, D0
0000110C  43E9 0080                lea.l      A1, [A1 + 0x80]
00001110  2F09                     move.l     -[A7], A1
00001112  2F2C 00DC                move.l     -[A7], [A4 + 0xDC]
00001116  4EAD 1D3A                jsr        [A5 + 0x1D3A /* export_931, CODE:36 @ 0000100A */]
0000111A  588F                     addq.l     A7, 4
0000111C  205F                     movea.l    A0, [A7]+
0000111E  2640                     movea.l    A3, D0
00001120  200B                     move.l     D0, A3
00001122  6708                     beq        +0xA /* 0000112C */
00001124  200B                     move.l     D0, A3
00001126  7280                     moveq.l    D1, 0xFFFFFF80
00001128  D081                     add.l      D0, D1
0000112A  6002                     bra        +0x4 /* 0000112E */
label0000112C:
0000112C  7000                     moveq.l    D0, 0x00
label0000112E:
0000112E  2240                     movea.l    A1, D0
00001130  2269 0088                movea.l    A1, [A1 + 0x88]
00001134  D0E9 0058                add.w      A0, [A1 + 0x58]
00001138  2F08                     move.l     -[A7], A0
0000113A  2F2C 00DC                move.l     -[A7], [A4 + 0xDC]
0000113E  4EAD 1D3A                jsr        [A5 + 0x1D3A /* export_931, CODE:36 @ 0000100A */]
00001142  2640                     movea.l    A3, D0
00001144  200B                     move.l     D0, A3
00001146  584F                     addq.w     A7, 4
00001148  6708                     beq        +0xA /* 00001152 */
0000114A  200B                     move.l     D0, A3
0000114C  7280                     moveq.l    D1, 0xFFFFFF80
0000114E  D081                     add.l      D0, D1
00001150  6002                     bra        +0x4 /* 00001154 */
label00001152:
00001152  7000                     moveq.l    D0, 0x00
label00001154:
00001154  2040                     movea.l    A0, D0
00001156  2068 0088                movea.l    A0, [A0 + 0x88]
0000115A  2268 005C                movea.l    A1, [A0 + 0x5C]
0000115E  4E91                     jsr        [A1]
00001160  2F2E FCEA                move.l     -[A7], [A6 - 0x316]
00001164  486C 00E0                pea.l      [A4 + 0xE0]
00001168  4EAD 1762                jsr        [A5 + 0x1762 /* export_744, CODE:32 @ 00004B1E */]
0000116C  4FEF 0012                lea.l      A7, [A7 + 0x12]
label00001170:
00001170  2F2E FCEE                move.l     -[A7], [A6 - 0x312]
00001174  A9A3                     syscall    ReleaseResource
label00001176:
00001176  3006                     move.w     D0, D6
00001178  5246                     addq.w     D6, 1
label0000117A:
0000117A  BC6E FD1E                cmp.w      D6, [A6 - 0x2E2]
0000117E  6D00 FD12                blt        -0x2EC /* 00000E92 */
00001182  2F2E FFC8                move.l     -[A7], [A6 - 0x38]
00001186  A8D9                     syscall    DisposRgn/DisposeRgn
00001188  302E FFD6                move.w     D0, [A6 - 0x2A]
0000118C  48C0                     ext.l      D0
0000118E  322E FFD2                move.w     D1, [A6 - 0x2E]
00001192  48C1                     ext.l      D1
00001194  9081                     sub.l      D0, D1
00001196  206E FFFC                movea.l    A0, [A6 - 0x4]
0000119A  2050                     movea.l    A0, [A0]
0000119C  3228 0006                move.w     D1, [A0 + 0x6]
000011A0  48C1                     ext.l      D1
000011A2  9081                     sub.l      D0, D1
000011A4  206E FFFC                movea.l    A0, [A6 - 0x4]
000011A8  2050                     movea.l    A0, [A0]
000011AA  3228 0002                move.w     D1, [A0 + 0x2]
000011AE  D240                     add.w      D1, D0
000011B0  3D41 FF3A                move.w     [A6 - 0xC6], D1
000011B4  302E FFD4                move.w     D0, [A6 - 0x2C]
000011B8  48C0                     ext.l      D0
000011BA  322E FFD0                move.w     D1, [A6 - 0x30]
000011BE  48C1                     ext.l      D1
000011C0  9081                     sub.l      D0, D1
000011C2  206E FFFC                movea.l    A0, [A6 - 0x4]
000011C6  2050                     movea.l    A0, [A0]
000011C8  3228 0004                move.w     D1, [A0 + 0x4]
000011CC  48C1                     ext.l      D1
000011CE  9081                     sub.l      D0, D1
000011D0  206E FFFC                movea.l    A0, [A6 - 0x4]
000011D4  2050                     movea.l    A0, [A0]
000011D6  3210                     move.w     D1, [A0]
000011D8  D240                     add.w      D1, D0
000011DA  3D41 FF38                move.w     [A6 - 0xC8], D1
000011DE  4A6E FF3A                tst.w      [A6 - 0xC6]
000011E2  6606                     bne        +0x8 /* 000011EA */
000011E4  4A6E FF38                tst.w      [A6 - 0xC8]
000011E8  6736                     beq        +0x38 /* 00001220 */
label000011EA:
000011EA  266C 00DC                movea.l    A3, [A4 + 0xDC]
000011EE  602C                     bra        +0x2E /* 0000121C */
label000011F0:
000011F0  302E FF38                move.w     D0, [A6 - 0xC8]
000011F4  48C0                     ext.l      D0
000011F6  2F00                     move.l     -[A7], D0
000011F8  302E FF3A                move.w     D0, [A6 - 0xC6]
000011FC  48C0                     ext.l      D0
000011FE  2F00                     move.l     -[A7], D0
00001200  204B                     movea.l    A0, A3
00001202  226B 0008                movea.l    A1, [A3 + 0x8]
00001206  D0E9 0048                add.w      A0, [A1 + 0x48]
0000120A  2F08                     move.l     -[A7], A0
0000120C  2049                     movea.l    A0, A1
0000120E  2268 004C                movea.l    A1, [A0 + 0x4C]
00001212  4E91                     jsr        [A1]
00001214  266B 0004                movea.l    A3, [A3 + 0x4]
00001218  4FEF 000C                lea.l      A7, [A7 + 0xC]
label0000121C:
0000121C  200B                     move.l     D0, A3
0000121E  66D0                     bne        -0x2E /* 000011F0 */
label00001220:
00001220  2F2E FFC4                move.l     -[A7], [A6 - 0x3C]
00001224  A873                     syscall    SetPort
00001226  206E FFFC                movea.l    A0, [A6 - 0x4]
0000122A  A02A                     syscall    HUnlock
0000122C  2F2E FFFC                move.l     -[A7], [A6 - 0x4]
00001230  A9A3                     syscall    ReleaseResource
00001232  2F0C                     move.l     -[A7], A4
00001234  4EBA 24EA                jsr        [PC + 0x24EA /* 00003720 */]
00001238  7002                     moveq.l    D0, 0x02
0000123A  2F00                     move.l     -[A7], D0
0000123C  486E FD0E                pea.l      [A6 - 0x2F2]
00001240  4EAD 15FA                jsr        [A5 + 0x15FA /* export_699, CODE:32 @ 000033A4 */]
00001244  4FEF 000C                lea.l      A7, [A7 + 0xC]
00001248  600C                     bra        +0xE /* 00001256 */
label0000124A:
0000124A  7000                     moveq.l    D0, 0x00
0000124C  2940 0084                move.l     [A4 + 0x84], D0
00001250  486D FCA6                pea.l      [A5 - 0x35A]
00001254  ABFF                     syscall    DebugStr
label00001256:
00001256  4CEE 18F0 FCD2           movem.l    D4,D5,D6,D7,A3,A4, [A6 - 0x32E]
0000125C  4E5E                     unlink     A6
0000125E  4E75                     rts
00001260  9D42 7569 6C64 4672 6... dc.b       "BuildFromDialog__7cWindowFsT1"
export_532:
00001280  4E56 FFFC                link       A6, -0x0004
00001284  48E7 0018                movem.l    -[A7], A3,A4
00001288  286E 0008                movea.l    A4, [A6 + 0x8]
0000128C  204C                     movea.l    A0, A4
0000128E  226C 0060                movea.l    A1, [A4 + 0x60]
00001292  D0E9 0110                add.w      A0, [A1 + 0x110]
00001296  2F08                     move.l     -[A7], A0
00001298  2049                     movea.l    A0, A1
0000129A  2268 0114                movea.l    A1, [A0 + 0x114]
0000129E  4E91                     jsr        [A1]
000012A0  2D54 FFFC                move.l     [A6 - 0x4], [A4]
000012A4  2F0C                     move.l     -[A7], A4
000012A6  2F3C 574E 4435           move.l     -[A7], 0x574E4435 /* 'WND5' */
000012AC  204C                     movea.l    A0, A4
000012AE  226C 0060                movea.l    A1, [A4 + 0x60]
000012B2  D0E9 0060                add.w      A0, [A1 + 0x60]
000012B6  2F08                     move.l     -[A7], A0
000012B8  2049                     movea.l    A0, A1
000012BA  2268 0064                movea.l    A1, [A0 + 0x64]
000012BE  4E91                     jsr        [A1]
000012C0  2F0C                     move.l     -[A7], A4
000012C2  2F3C 5359 5333           move.l     -[A7], 0x53595333 /* 'SYS3' */
000012C8  204C                     movea.l    A0, A4
000012CA  226C 0060                movea.l    A1, [A4 + 0x60]
000012CE  D0E9 0060                add.w      A0, [A1 + 0x60]
000012D2  2F08                     move.l     -[A7], A0
000012D4  2049                     movea.l    A0, A1
000012D6  2268 0064                movea.l    A1, [A0 + 0x64]
000012DA  4E91                     jsr        [A1]
000012DC  266E FFFC                movea.l    A3, [A6 - 0x4]
000012E0  284B                     movea.l    A4, A3
000012E2  7000                     moveq.l    D0, 0x00
000012E4  2F00                     move.l     -[A7], D0
000012E6  2F0C                     move.l     -[A7], A4
000012E8  2F3C 574E 4430           move.l     -[A7], 0x574E4430 /* 'WND0' */
000012EE  204C                     movea.l    A0, A4
000012F0  226B 0060                movea.l    A1, [A3 + 0x60]
000012F4  D0E9 0058                add.w      A0, [A1 + 0x58]
000012F8  2F08                     move.l     -[A7], A0
000012FA  2049                     movea.l    A0, A1
000012FC  2268 005C                movea.l    A1, [A0 + 0x5C]
00001300  4E91                     jsr        [A1]
00001302  7001                     moveq.l    D0, 0x01
00001304  4CEE 1800 FFF4           movem.l    A3,A4, [A6 - 0xC]
0000130A  4E5E                     unlink     A6
0000130C  4E75                     rts
0000130E  9143 6C6F 7365 5F5F 3... dc.b       "Close__7cWindowFv"
export_533:
00001322  4E56 FFF4                link       A6, -0x000C
00001326  48E7 0118                movem.l    -[A7], D7,A3,A4
0000132A  286E 0008                movea.l    A4, [A6 + 0x8]
0000132E  4207                     clr.b      D7
00001330  206C 0084                movea.l    A0, [A4 + 0x84]
00001334  4A28 006F                tst.b      [A0 + 0x6F]
00001338  6700 00A0                beq        +0xA2 /* 000013DA */
0000133C  486E FFF8                pea.l      [A6 - 0x8]
00001340  A874                     syscall    GetPort
00001342  2F2C 0084                move.l     -[A7], [A4 + 0x84]
00001346  A873                     syscall    SetPort
00001348  206E 000C                movea.l    A0, [A6 + 0xC]
0000134C  2D68 000A FFFC           move.l     [A6 - 0x4], [A0 + 0xA]
00001352  486E FFFC                pea.l      [A6 - 0x4]
00001356  A871                     syscall    GlobalToLocal
00001358  266C 00DC                movea.l    A3, [A4 + 0xDC]
0000135C  6070                     bra        +0x72 /* 000013CE */
label0000135E:
0000135E  558F                     subq.l     A7, 2
00001360  2F2E FFFC                move.l     -[A7], [A6 - 0x4]
00001364  486B 0010                pea.l      [A3 + 0x10]
00001368  A8AD                     syscall    PtInRect
0000136A  4A1F                     tst.b      [A7]+
0000136C  675C                     beq        +0x5E /* 000013CA */
0000136E  7000                     moveq.l    D0, 0x00
00001370  102B 0018                move.b     D0, [A3 + 0x18]
00001374  7220                     moveq.l    D1, 0x20
00001376  C200                     and.b      D1, D0
00001378  7000                     moveq.l    D0, 0x00
0000137A  1001                     move.b     D0, D1
0000137C  4A80                     tst.l      D0
0000137E  674A                     beq        +0x4C /* 000013CA */
00001380  7E01                     moveq.l    D7, 0x01
00001382  200B                     move.l     D0, A3
00001384  6708                     beq        +0xA /* 0000138E */
00001386  200B                     move.l     D0, A3
00001388  7280                     moveq.l    D1, 0xFFFFFF80
0000138A  D081                     add.l      D0, D1
0000138C  6002                     bra        +0x4 /* 00001390 */
label0000138E:
0000138E  7000                     moveq.l    D0, 0x00
label00001390:
00001390  2D40 FFF4                move.l     [A6 - 0xC], D0
00001394  206E 000C                movea.l    A0, [A6 + 0xC]
00001398  2F28 0006                move.l     -[A7], [A0 + 0x6]
0000139C  3028 000E                move.w     D0, [A0 + 0xE]
000013A0  48C0                     ext.l      D0
000013A2  2F00                     move.l     -[A7], D0
000013A4  2F2E FFFC                move.l     -[A7], [A6 - 0x4]
000013A8  206E FFF4                movea.l    A0, [A6 - 0xC]
000013AC  2248                     movea.l    A1, A0
000013AE  2269 0060                movea.l    A1, [A1 + 0x60]
000013B2  D0E9 0068                add.w      A0, [A1 + 0x68]
000013B6  2F08                     move.l     -[A7], A0
000013B8  206E FFF4                movea.l    A0, [A6 - 0xC]
000013BC  2068 0060                movea.l    A0, [A0 + 0x60]
000013C0  2268 006C                movea.l    A1, [A0 + 0x6C]
000013C4  4E91                     jsr        [A1]
000013C6  4FEF 0010                lea.l      A7, [A7 + 0x10]
label000013CA:
000013CA  266B 0004                movea.l    A3, [A3 + 0x4]
label000013CE:
000013CE  200B                     move.l     D0, A3
000013D0  668C                     bne        -0x72 /* 0000135E */
000013D2  2F2E FFF8                move.l     -[A7], [A6 - 0x8]
000013D6  A873                     syscall    SetPort
000013D8  6024                     bra        +0x26 /* 000013FE */
label000013DA:
000013DA  2F2C 0084                move.l     -[A7], [A4 + 0x84]
000013DE  2F3C 574E 4431           move.l     -[A7], 0x574E4431 /* 'WND1' */
000013E4  204C                     movea.l    A0, A4
000013E6  226C 0060                movea.l    A1, [A4 + 0x60]
000013EA  D0E9 0060                add.w      A0, [A1 + 0x60]
000013EE  2F08                     move.l     -[A7], A0
000013F0  2049                     movea.l    A0, A1
000013F2  2268 0064                movea.l    A1, [A0 + 0x64]
000013F6  4E91                     jsr        [A1]
000013F8  7E01                     moveq.l    D7, 0x01
000013FA  4FEF 000C                lea.l      A7, [A7 + 0xC]
label000013FE:
000013FE  206E 000C                movea.l    A0, [A6 + 0xC]
00001402  2968 0006 008C           move.l     [A4 + 0x8C], [A0 + 0x6]
00001408  206E 000C                movea.l    A0, [A6 + 0xC]
0000140C  2968 000A 0090           move.l     [A4 + 0x90], [A0 + 0xA]
00001412  1007                     move.b     D0, D7
00001414  4CEE 1880 FFE8           movem.l    D7,A3,A4, [A6 - 0x18]
0000141A  4E5E                     unlink     A6
0000141C  4E75                     rts
0000141E  8029 4D6F 7573 6544 6... dc.b       "MouseDownContent__7cWindowFR11EventRecord"
export_534:
fn0000144C:
0000144C  4E56 FFE4                link       A6, -0x001C
00001450  48E7 0318                movem.l    -[A7], D6,D7,A3,A4
00001454  286E 0008                movea.l    A4, [A6 + 0x8]
00001458  4206                     clr.b      D6
0000145A  486E FFE4                pea.l      [A6 - 0x1C]
0000145E  A874                     syscall    GetPort
00001460  2F2D F2A6                move.l     -[A7], [A5 - 0xD5A]
00001464  A873                     syscall    SetPort
00001466  206E 000C                movea.l    A0, [A6 + 0xC]
0000146A  2D68 000A FFE8           move.l     [A6 - 0x18], [A0 + 0xA]
00001470  486E FFE8                pea.l      [A6 - 0x18]
00001474  A871                     syscall    GlobalToLocal
00001476  206C 0084                movea.l    A0, [A4 + 0x84]
0000147A  2068 0072                movea.l    A0, [A0 + 0x72]
0000147E  2050                     movea.l    A0, [A0]
00001480  43EE FFEC                lea.l      A1, [A6 - 0x14]
00001484  5488                     addq.l     A0, 2
00001486  22D8                     move.l     [A1]+, [A0]+
00001488  22D8                     move.l     [A1]+, [A0]+
0000148A  598F                     subq.l     A7, 4
0000148C  A8D8                     syscall    NewRgn
0000148E  265F                     movea.l    A3, [A7]+
00001490  200B                     move.l     D0, A3
00001492  660C                     bne        +0xE /* 000014A0 */
00001494  70FF                     moveq.l    D0, 0xFFFFFFFF
00001496  2F00                     move.l     -[A7], D0
00001498  2F0C                     move.l     -[A7], A4
0000149A  4EAD 14E2                jsr        [A5 + 0x14E2 /* export_664, CODE:32 @ 000007B8 */]
0000149E  504F                     addq.w     A7, 8
label000014A0:
000014A0  206C 0084                movea.l    A0, [A4 + 0x84]
000014A4  2F28 0072                move.l     -[A7], [A0 + 0x72]
000014A8  2F0B                     move.l     -[A7], A3
000014AA  A8DC                     syscall    CopyRgn
000014AC  2D78 09EE FFF4           move.l     [A6 - 0xC], [0x000009EE /* GrayRgn */]
000014B2  206E FFF4                movea.l    A0, [A6 - 0xC]
000014B6  2050                     movea.l    A0, [A0]
000014B8  43EE FFF8                lea.l      A1, [A6 - 0x8]
000014BC  5488                     addq.l     A0, 2
000014BE  22D8                     move.l     [A1]+, [A0]+
000014C0  22D8                     move.l     [A1]+, [A0]+
000014C2  486E FFF8                pea.l      [A6 - 0x8]
000014C6  700A                     moveq.l    D0, 0x0A
000014C8  3F00                     move.w     -[A7], D0
000014CA  3F00                     move.w     -[A7], D0
000014CC  A8A9                     syscall    InsetRect
000014CE  598F                     subq.l     A7, 4
000014D0  2F0B                     move.l     -[A7], A3
000014D2  2F2E FFE8                move.l     -[A7], [A6 - 0x18]
000014D6  486E FFF8                pea.l      [A6 - 0x8]
000014DA  486E FFF8                pea.l      [A6 - 0x8]
000014DE  7000                     moveq.l    D0, 0x00
000014E0  3F00                     move.w     -[A7], D0
000014E2  7200                     moveq.l    D1, 0x00
000014E4  2F01                     move.l     -[A7], D1
000014E6  A905                     syscall    DragGrayRgn
000014E8  2E1F                     move.l     D7, [A7]+
000014EA  2F0B                     move.l     -[A7], A3
000014EC  A8D9                     syscall    DisposRgn/DisposeRgn
000014EE  0C87 8000 8000           cmpi.l     D7, 0x80008000
000014F4  6762                     beq        +0x64 /* 00001558 */
000014F6  2F2C 0084                move.l     -[A7], [A4 + 0x84]
000014FA  A873                     syscall    SetPort
000014FC  206C 0084                movea.l    A0, [A4 + 0x84]
00001500  3D68 0012 FFEA           move.w     [A6 - 0x16], [A0 + 0x12]
00001506  206C 0084                movea.l    A0, [A4 + 0x84]
0000150A  3D68 0010 FFE8           move.w     [A6 - 0x18], [A0 + 0x10]
00001510  486E FFE8                pea.l      [A6 - 0x18]
00001514  A870                     syscall    LocalToGlobal
00001516  7000                     moveq.l    D0, 0x00
00001518  2F00                     move.l     -[A7], D0
0000151A  7210                     moveq.l    D1, 0x10
0000151C  2407                     move.l     D2, D7
0000151E  E2A2                     asr        D2, D1
00001520  D46E FFE8                add.w      D2, [A6 - 0x18]
00001524  48C2                     ext.l      D2
00001526  2F02                     move.l     -[A7], D2
00001528  223C 0000 FFFF           move.l     D1, 0xFFFF
0000152E  C287                     and.l      D1, D7
00001530  D26E FFEA                add.w      D1, [A6 - 0x16]
00001534  48C1                     ext.l      D1
00001536  2F01                     move.l     -[A7], D1
00001538  204C                     movea.l    A0, A4
0000153A  226C 0060                movea.l    A1, [A4 + 0x60]
0000153E  D0E9 00F0                add.w      A0, [A1 + 0xF0]
00001542  2F08                     move.l     -[A7], A0
00001544  2049                     movea.l    A0, A1
00001546  2268 00F4                movea.l    A1, [A0 + 0xF4]
0000154A  4E91                     jsr        [A1]
0000154C  7C01                     moveq.l    D6, 0x01
0000154E  2F2E FFE4                move.l     -[A7], [A6 - 0x1C]
00001552  A873                     syscall    SetPort
00001554  4FEF 0010                lea.l      A7, [A7 + 0x10]
label00001558:
00001558  2F2C 0084                move.l     -[A7], [A4 + 0x84]
0000155C  2F3C 574E 4431           move.l     -[A7], 0x574E4431 /* 'WND1' */
00001562  204C                     movea.l    A0, A4
00001564  226C 0060                movea.l    A1, [A4 + 0x60]
00001568  D0E9 0060                add.w      A0, [A1 + 0x60]
0000156C  2F08                     move.l     -[A7], A0
0000156E  2049                     movea.l    A0, A1
00001570  2268 0064                movea.l    A1, [A0 + 0x64]
00001574  4E91                     jsr        [A1]
00001576  2F2E FFE4                move.l     -[A7], [A6 - 0x1C]
0000157A  A873                     syscall    SetPort
0000157C  2F0C                     move.l     -[A7], A4
0000157E  4EBA 21A0                jsr        [PC + 0x21A0 /* 00003720 */]
00001582  4A00                     tst.b      D0
00001584  4FEF 0010                lea.l      A7, [A7 + 0x10]
00001588  6716                     beq        +0x18 /* 000015A0 */
0000158A  204C                     movea.l    A0, A4
0000158C  226C 0060                movea.l    A1, [A4 + 0x60]
00001590  D0E9 00C8                add.w      A0, [A1 + 0xC8]
00001594  2F08                     move.l     -[A7], A0
00001596  2049                     movea.l    A0, A1
00001598  2268 00CC                movea.l    A1, [A0 + 0xCC]
0000159C  4E91                     jsr        [A1]
0000159E  584F                     addq.w     A7, 4
label000015A0:
000015A0  1006                     move.b     D0, D6
000015A2  4CEE 18C0 FFD4           movem.l    D6,D7,A3,A4, [A6 - 0x2C]
000015A8  4E5E                     unlink     A6
000015AA  4E75                     rts
000015AC  8026 4D6F 7573 6544 6... dc.b       "MouseDownDrag__7cWindowFR11EventRecord"
export_535:
000015D6  4E56 0000                link       A6, 0
000015DA  48E7 0118                movem.l    -[A7], D7,A3,A4
000015DE  266E 000C                movea.l    A3, [A6 + 0xC]
000015E2  286E 0008                movea.l    A4, [A6 + 0x8]
000015E6  206C 0084                movea.l    A0, [A4 + 0x84]
000015EA  4A28 006F                tst.b      [A0 + 0x6F]
000015EE  6746                     beq        +0x48 /* 00001636 */
000015F0  598F                     subq.l     A7, 4
000015F2  2F2C 0084                move.l     -[A7], [A4 + 0x84]
000015F6  2F2B 000A                move.l     -[A7], [A3 + 0xA]
000015FA  486C 0094                pea.l      [A4 + 0x94]
000015FE  A92B                     syscall    GrowWindow
00001600  2E1F                     move.l     D7, [A7]+
00001602  7001                     moveq.l    D0, 0x01
00001604  2F00                     move.l     -[A7], D0
00001606  7210                     moveq.l    D1, 0x10
00001608  2407                     move.l     D2, D7
0000160A  E2A2                     asr        D2, D1
0000160C  48C2                     ext.l      D2
0000160E  2F02                     move.l     -[A7], D2
00001610  223C 0000 FFFF           move.l     D1, 0xFFFF
00001616  C287                     and.l      D1, D7
00001618  48C1                     ext.l      D1
0000161A  2F01                     move.l     -[A7], D1
0000161C  204C                     movea.l    A0, A4
0000161E  226C 0060                movea.l    A1, [A4 + 0x60]
00001622  D0E9 00E8                add.w      A0, [A1 + 0xE8]
00001626  2F08                     move.l     -[A7], A0
00001628  2049                     movea.l    A0, A1
0000162A  2268 00EC                movea.l    A1, [A0 + 0xEC]
0000162E  4E91                     jsr        [A1]
00001630  4FEF 0010                lea.l      A7, [A7 + 0x10]
00001634  603A                     bra        +0x3C /* 00001670 */
label00001636:
00001636  2F0B                     move.l     -[A7], A3
00001638  204C                     movea.l    A0, A4
0000163A  226C 0060                movea.l    A1, [A4 + 0x60]
0000163E  D0E9 0080                add.w      A0, [A1 + 0x80]
00001642  2F08                     move.l     -[A7], A0
00001644  2049                     movea.l    A0, A1
00001646  2268 0084                movea.l    A1, [A0 + 0x84]
0000164A  4E91                     jsr        [A1]
0000164C  2F0C                     move.l     -[A7], A4
0000164E  4EBA 20D0                jsr        [PC + 0x20D0 /* 00003720 */]
00001652  4A00                     tst.b      D0
00001654  4FEF 000C                lea.l      A7, [A7 + 0xC]
00001658  6716                     beq        +0x18 /* 00001670 */
0000165A  204C                     movea.l    A0, A4
0000165C  226C 0060                movea.l    A1, [A4 + 0x60]
00001660  D0E9 00C8                add.w      A0, [A1 + 0xC8]
00001664  2F08                     move.l     -[A7], A0
00001666  2049                     movea.l    A0, A1
00001668  2268 00CC                movea.l    A1, [A0 + 0xCC]
0000166C  4E91                     jsr        [A1]
0000166E  584F                     addq.w     A7, 4
label00001670:
00001670  4CEE 1880 FFF4           movem.l    D7,A3,A4, [A6 - 0xC]
00001676  4E5E                     unlink     A6
00001678  4E75                     rts
0000167A  8026 4D6F 7573 6544 6... dc.b       "MouseDownGrow__7cWindowFR11EventRecord"
export_536:
000016A4  4E56 0000                link       A6, 0
000016A8  48E7 0018                movem.l    -[A7], A3,A4
000016AC  266E 000C                movea.l    A3, [A6 + 0xC]
000016B0  286E 0008                movea.l    A4, [A6 + 0x8]
000016B4  296B 0006 008C           move.l     [A4 + 0x8C], [A3 + 0x6]
000016BA  296B 000A 0090           move.l     [A4 + 0x90], [A3 + 0xA]
000016C0  7000                     moveq.l    D0, 0x00
000016C2  4CEE 1800 FFF8           movem.l    A3,A4, [A6 - 0x8]
000016C8  4E5E                     unlink     A6
000016CA  4E75                     rts
000016CC  8020 4D6F 7573 6555 7... dc.b       "MouseUp__7cWindowFR11EventRecord"
export_537:
fn000016F0:
000016F0  4E56 FFE0                link       A6, -0x0020
000016F4  48E7 1118                movem.l    -[A7], D3,D7,A3,A4
000016F8  286E 0008                movea.l    A4, [A6 + 0x8]
000016FC  7000                     moveq.l    D0, 0x00
000016FE  2640                     movea.l    A3, D0
00001700  4AAC 0112                tst.l      [A4 + 0x112]
00001704  6738                     beq        +0x3A /* 0000173E */
00001706  206E 000C                movea.l    A0, [A6 + 0xC]
0000170A  303C 0200                move.w     D0, 0x200
0000170E  C068 000E                and.w      D0, [A0 + 0xE]
00001712  671A                     beq        +0x1C /* 0000172E */
00001714  206C 0112                movea.l    A0, [A4 + 0x112]
00001718  2668 0080                movea.l    A3, [A0 + 0x80]
0000171C  200B                     move.l     D0, A3
0000171E  661E                     bne        +0x20 /* 0000173E */
00001720  2F2C 00DC                move.l     -[A7], [A4 + 0xDC]
00001724  4EAD 1D3A                jsr        [A5 + 0x1D3A /* export_931, CODE:36 @ 0000100A */]
00001728  2640                     movea.l    A3, D0
0000172A  584F                     addq.w     A7, 4
0000172C  6010                     bra        +0x12 /* 0000173E */
label0000172E:
0000172E  206C 0112                movea.l    A0, [A4 + 0x112]
00001732  2668 0084                movea.l    A3, [A0 + 0x84]
00001736  200B                     move.l     D0, A3
00001738  6604                     bne        +0x6 /* 0000173E */
0000173A  266C 00DC                movea.l    A3, [A4 + 0xDC]
label0000173E:
0000173E  206E 000C                movea.l    A0, [A6 + 0xC]
00001742  203C 0000 00FF           move.l     D0, 0xFF
00001748  C0A8 0002                and.l      D0, [A0 + 0x2]
0000174C  7209                     moveq.l    D1, 0x09
0000174E  B280                     cmp.l      D1, D0
00001750  6600 018C                bne        +0x18E /* 000018DE */
00001754  206C 0084                movea.l    A0, [A4 + 0x84]
00001758  4A28 006F                tst.b      [A0 + 0x6F]
0000175C  6700 0180                beq        +0x182 /* 000018DE */
00001760  4AAC 0112                tst.l      [A4 + 0x112]
00001764  6754                     beq        +0x56 /* 000017BA */
00001766  226C 0112                movea.l    A1, [A4 + 0x112]
0000176A  43E9 0080                lea.l      A1, [A1 + 0x80]
0000176E  2049                     movea.l    A0, A1
00001770  226C 0112                movea.l    A1, [A4 + 0x112]
00001774  2269 0088                movea.l    A1, [A1 + 0x88]
00001778  D0E9 00E8                add.w      A0, [A1 + 0xE8]
0000177C  2F08                     move.l     -[A7], A0
0000177E  206C 0112                movea.l    A0, [A4 + 0x112]
00001782  2068 0088                movea.l    A0, [A0 + 0x88]
00001786  2268 00EC                movea.l    A1, [A0 + 0xEC]
0000178A  4E91                     jsr        [A1]
0000178C  4A00                     tst.b      D0
0000178E  584F                     addq.w     A7, 4
00001790  6728                     beq        +0x2A /* 000017BA */
00001792  2F2E 000C                move.l     -[A7], [A6 + 0xC]
00001796  206C 0112                movea.l    A0, [A4 + 0x112]
0000179A  2248                     movea.l    A1, A0
0000179C  2269 0060                movea.l    A1, [A1 + 0x60]
000017A0  D0E9 0070                add.w      A0, [A1 + 0x70]
000017A4  2F08                     move.l     -[A7], A0
000017A6  206C 0112                movea.l    A0, [A4 + 0x112]
000017AA  2068 0060                movea.l    A0, [A0 + 0x60]
000017AE  2268 0074                movea.l    A1, [A0 + 0x74]
000017B2  4E91                     jsr        [A1]
000017B4  504F                     addq.w     A7, 8
000017B6  6000 0154                bra        +0x156 /* 0000190C */
label000017BA:
000017BA  200B                     move.l     D0, A3
000017BC  6700 011C                beq        +0x11E /* 000018DA */
000017C0  7E00                     moveq.l    D7, 0x00
000017C2  6000 0108                bra        +0x10A /* 000018CC */
label000017C6:
000017C6  7000                     moveq.l    D0, 0x00
000017C8  102B 0018                move.b     D0, [A3 + 0x18]
000017CC  7220                     moveq.l    D1, 0x20
000017CE  C200                     and.b      D1, D0
000017D0  7000                     moveq.l    D0, 0x00
000017D2  1001                     move.b     D0, D1
000017D4  4A80                     tst.l      D0
000017D6  6700 00C2                beq        +0xC4 /* 0000189A */
000017DA  2D4B FFFC                move.l     [A6 - 0x4], A3
000017DE  204B                     movea.l    A0, A3
000017E0  2248                     movea.l    A1, A0
000017E2  2269 0008                movea.l    A1, [A1 + 0x8]
000017E6  D0E9 00E0                add.w      A0, [A1 + 0xE0]
000017EA  2F08                     move.l     -[A7], A0
000017EC  204B                     movea.l    A0, A3
000017EE  2068 0008                movea.l    A0, [A0 + 0x8]
000017F2  2268 00E4                movea.l    A1, [A0 + 0xE4]
000017F6  4E91                     jsr        [A1]
000017F8  4A00                     tst.b      D0
000017FA  584F                     addq.w     A7, 4
000017FC  6700 009C                beq        +0x9E /* 0000189A */
00001800  486E FFE0                pea.l      [A6 - 0x20]
00001804  A874                     syscall    GetPort
00001806  2F2C 0084                move.l     -[A7], [A4 + 0x84]
0000180A  A873                     syscall    SetPort
0000180C  2D6C 0112 FFE4           move.l     [A6 - 0x1C], [A4 + 0x112]
00001812  2D4C FFE8                move.l     [A6 - 0x18], A4
00001816  7000                     moveq.l    D0, 0x00
00001818  2D40 FFEC                move.l     [A6 - 0x14], D0
0000181C  2F00                     move.l     -[A7], D0
0000181E  2F0C                     move.l     -[A7], A4
00001820  2F3C 4742 544D           move.l     -[A7], 0x4742544D /* 'GBTM' */
00001826  206E FFE4                movea.l    A0, [A6 - 0x1C]
0000182A  2248                     movea.l    A1, A0
0000182C  2269 0060                movea.l    A1, [A1 + 0x60]
00001830  D0E9 0058                add.w      A0, [A1 + 0x58]
00001834  2F08                     move.l     -[A7], A0
00001836  206E FFE4                movea.l    A0, [A6 - 0x1C]
0000183A  2068 0060                movea.l    A0, [A0 + 0x60]
0000183E  2268 005C                movea.l    A1, [A0 + 0x5C]
00001842  4E91                     jsr        [A1]
00001844  200B                     move.l     D0, A3
00001846  6708                     beq        +0xA /* 00001850 */
00001848  200B                     move.l     D0, A3
0000184A  7280                     moveq.l    D1, 0xFFFFFF80
0000184C  D081                     add.l      D0, D1
0000184E  6002                     bra        +0x4 /* 00001852 */
label00001850:
00001850  7000                     moveq.l    D0, 0x00
label00001852:
00001852  2940 0112                move.l     [A4 + 0x112], D0
00001856  2D40 FFF0                move.l     [A6 - 0x10], D0
0000185A  2D4C FFF4                move.l     [A6 - 0xC], A4
0000185E  7001                     moveq.l    D0, 0x01
00001860  2D40 FFF8                move.l     [A6 - 0x8], D0
00001864  2F00                     move.l     -[A7], D0
00001866  2F0C                     move.l     -[A7], A4
00001868  2F3C 4742 544D           move.l     -[A7], 0x4742544D /* 'GBTM' */
0000186E  206E FFF0                movea.l    A0, [A6 - 0x10]
00001872  2248                     movea.l    A1, A0
00001874  2269 0060                movea.l    A1, [A1 + 0x60]
00001878  D0E9 0058                add.w      A0, [A1 + 0x58]
0000187C  2F08                     move.l     -[A7], A0
0000187E  206E FFF0                movea.l    A0, [A6 - 0x10]
00001882  2068 0060                movea.l    A0, [A0 + 0x60]
00001886  2268 005C                movea.l    A1, [A0 + 0x5C]
0000188A  4E91                     jsr        [A1]
0000188C  2F2E FFE0                move.l     -[A7], [A6 - 0x20]
00001890  A873                     syscall    SetPort
00001892  7001                     moveq.l    D0, 0x01
00001894  4FEF 0020                lea.l      A7, [A7 + 0x20]
00001898  6072                     bra        +0x74 /* 0000190C */
label0000189A:
0000189A  206E 000C                movea.l    A0, [A6 + 0xC]
0000189E  303C 0200                move.w     D0, 0x200
000018A2  C068 000E                and.w      D0, [A0 + 0xE]
000018A6  6714                     beq        +0x16 /* 000018BC */
000018A8  2653                     movea.l    A3, [A3]
000018AA  200B                     move.l     D0, A3
000018AC  661A                     bne        +0x1C /* 000018C8 */
000018AE  2F2C 00DC                move.l     -[A7], [A4 + 0xDC]
000018B2  4EAD 1D3A                jsr        [A5 + 0x1D3A /* export_931, CODE:36 @ 0000100A */]
000018B6  2640                     movea.l    A3, D0
000018B8  584F                     addq.w     A7, 4
000018BA  600C                     bra        +0xE /* 000018C8 */
label000018BC:
000018BC  266B 0004                movea.l    A3, [A3 + 0x4]
000018C0  200B                     move.l     D0, A3
000018C2  6604                     bne        +0x6 /* 000018C8 */
000018C4  266C 00DC                movea.l    A3, [A4 + 0xDC]
label000018C8:
000018C8  2007                     move.l     D0, D7
000018CA  5287                     addq.l     D7, 1
label000018CC:
000018CC  0C87 0000 0100           cmpi.l     D7, 0x100
000018D2  6D00 FEF2                blt        -0x10C /* 000017C6 */
000018D6  7000                     moveq.l    D0, 0x00
000018D8  6032                     bra        +0x34 /* 0000190C */
label000018DA:
000018DA  7000                     moveq.l    D0, 0x00
000018DC  602E                     bra        +0x30 /* 0000190C */
label000018DE:
000018DE  4AAC 0112                tst.l      [A4 + 0x112]
000018E2  6726                     beq        +0x28 /* 0000190A */
000018E4  2F2E 000C                move.l     -[A7], [A6 + 0xC]
000018E8  206C 0112                movea.l    A0, [A4 + 0x112]
000018EC  2248                     movea.l    A1, A0
000018EE  2269 0060                movea.l    A1, [A1 + 0x60]
000018F2  D0E9 0070                add.w      A0, [A1 + 0x70]
000018F6  2F08                     move.l     -[A7], A0
000018F8  206C 0112                movea.l    A0, [A4 + 0x112]
000018FC  2068 0060                movea.l    A0, [A0 + 0x60]
00001900  2268 0074                movea.l    A1, [A0 + 0x74]
00001904  4E91                     jsr        [A1]
00001906  504F                     addq.w     A7, 8
00001908  6002                     bra        +0x4 /* 0000190C */
label0000190A:
0000190A  7000                     moveq.l    D0, 0x00
label0000190C:
0000190C  4CEE 1888 FFD0           movem.l    D3,D7,A3,A4, [A6 - 0x30]
00001912  4E5E                     unlink     A6
00001914  4E75                     rts
00001916  8020 4B65 7944 6F77 6... dc.b       "KeyDown__7cWindowFR11EventRecord"
export_538:
0000193A  4E56 0000                link       A6, 0
0000193E  7000                     moveq.l    D0, 0x00
00001940  4E5E                     unlink     A6
00001942  4E75                     rts
00001944  9E4B 6579 5570 5F5F 3... dc.b       "KeyUp__7cWindowFR11EventRecord"
export_539:
00001966  4E56 FFFC                link       A6, -0x0004
0000196A  48E7 0318                movem.l    -[A7], D6,D7,A3,A4
0000196E  1E2E 000F                move.b     D7, [A6 + 0xF]
00001972  286E 0008                movea.l    A4, [A6 + 0x8]
00001976  486E FFFC                pea.l      [A6 - 0x4]
0000197A  A874                     syscall    GetPort
0000197C  2F2C 0084                move.l     -[A7], [A4 + 0x84]
00001980  A873                     syscall    SetPort
00001982  4A07                     tst.b      D7
00001984  6706                     beq        +0x8 /* 0000198C */
00001986  2F2C 0084                move.l     -[A7], [A4 + 0x84]
0000198A  A922                     syscall    BeginUpdate
label0000198C:
0000198C  4A2C 0108                tst.b      [A4 + 0x108]
00001990  6716                     beq        +0x18 /* 000019A8 */
00001992  204C                     movea.l    A0, A4
00001994  226C 0060                movea.l    A1, [A4 + 0x60]
00001998  D0E9 0070                add.w      A0, [A1 + 0x70]
0000199C  2F08                     move.l     -[A7], A0
0000199E  2049                     movea.l    A0, A1
000019A0  2268 0074                movea.l    A1, [A0 + 0x74]
000019A4  4E91                     jsr        [A1]
000019A6  584F                     addq.w     A7, 4
label000019A8:
000019A8  4206                     clr.b      D6
000019AA  2F0C                     move.l     -[A7], A4
000019AC  4EBA 1D72                jsr        [PC + 0x1D72 /* 00003720 */]
000019B0  4A00                     tst.b      D0
000019B2  584F                     addq.w     A7, 4
000019B4  6716                     beq        +0x18 /* 000019CC */
000019B6  204C                     movea.l    A0, A4
000019B8  226C 0060                movea.l    A1, [A4 + 0x60]
000019BC  D0E9 00C8                add.w      A0, [A1 + 0xC8]
000019C0  2F08                     move.l     -[A7], A0
000019C2  2049                     movea.l    A0, A1
000019C4  2268 00CC                movea.l    A1, [A0 + 0xCC]
000019C8  4E91                     jsr        [A1]
000019CA  584F                     addq.w     A7, 4
label000019CC:
000019CC  2F0C                     move.l     -[A7], A4
000019CE  4EBA 182A                jsr        [PC + 0x182A /* 000031FA */]
000019D2  0CAD 0000 0200 F29A      cmpi.l     [A5 - 0xD66], 0x200
000019DA  584F                     addq.w     A7, 4
000019DC  6D06                     blt        +0x8 /* 000019E4 */
000019DE  486C 009C                pea.l      [A4 + 0x9C]
000019E2  AA15                     syscall    RGBBackColor
label000019E4:
000019E4  2F2C 00CE                move.l     -[A7], [A4 + 0xCE]
000019E8  A8D4                     syscall    EraseRgn
000019EA  266C 00DC                movea.l    A3, [A4 + 0xDC]
000019EE  602A                     bra        +0x2C /* 00001A1A */
label000019F0:
000019F0  0CAD 0000 0200 F29A      cmpi.l     [A5 - 0xD66], 0x200
000019F8  6D06                     blt        +0x8 /* 00001A00 */
000019FA  486C 009C                pea.l      [A4 + 0x9C]
000019FE  AA15                     syscall    RGBBackColor
label00001A00:
00001A00  204B                     movea.l    A0, A3
00001A02  226B 0008                movea.l    A1, [A3 + 0x8]
00001A06  D0E9 0038                add.w      A0, [A1 + 0x38]
00001A0A  2F08                     move.l     -[A7], A0
00001A0C  2049                     movea.l    A0, A1
00001A0E  2268 003C                movea.l    A1, [A0 + 0x3C]
00001A12  4E91                     jsr        [A1]
00001A14  266B 0004                movea.l    A3, [A3 + 0x4]
00001A18  584F                     addq.w     A7, 4
label00001A1A:
00001A1A  200B                     move.l     D0, A3
00001A1C  66D2                     bne        -0x2C /* 000019F0 */
00001A1E  2F0C                     move.l     -[A7], A4
00001A20  4EBA 1846                jsr        [PC + 0x1846 /* 00003268 */]
00001A24  4A07                     tst.b      D7
00001A26  584F                     addq.w     A7, 4
00001A28  6706                     beq        +0x8 /* 00001A30 */
00001A2A  2F2C 0084                move.l     -[A7], [A4 + 0x84]
00001A2E  A923                     syscall    EndUpdate
label00001A30:
00001A30  2F2E FFFC                move.l     -[A7], [A6 - 0x4]
00001A34  A873                     syscall    SetPort
00001A36  4CEE 18C0 FFEC           movem.l    D6,D7,A3,A4, [A6 - 0x14]
00001A3C  4E5E                     unlink     A6
00001A3E  4E75                     rts
00001A40  9355 7064 6174 655F 5... dc.b       "Update__7cWindowFUc"
export_540:
fn00001A56:
00001A56  4E56 FFF8                link       A6, -0x0008
00001A5A  48E7 0018                movem.l    -[A7], A3,A4
00001A5E  286E 0008                movea.l    A4, [A6 + 0x8]
00001A62  4AAC 0112                tst.l      [A4 + 0x112]
00001A66  6742                     beq        +0x44 /* 00001AAA */
00001A68  486E FFF8                pea.l      [A6 - 0x8]
00001A6C  A874                     syscall    GetPort
00001A6E  2F2C 0084                move.l     -[A7], [A4 + 0x84]
00001A72  A873                     syscall    SetPort
00001A74  266C 0112                movea.l    A3, [A4 + 0x112]
00001A78  2D4C FFFC                move.l     [A6 - 0x4], A4
00001A7C  7000                     moveq.l    D0, 0x00
00001A7E  102E 000F                move.b     D0, [A6 + 0xF]
00001A82  2F00                     move.l     -[A7], D0
00001A84  2F0C                     move.l     -[A7], A4
00001A86  2F3C 4742 5446           move.l     -[A7], 0x47425446 /* 'GBTF' */
00001A8C  204B                     movea.l    A0, A3
00001A8E  226B 0060                movea.l    A1, [A3 + 0x60]
00001A92  D0E9 0058                add.w      A0, [A1 + 0x58]
00001A96  2F08                     move.l     -[A7], A0
00001A98  2049                     movea.l    A0, A1
00001A9A  2268 005C                movea.l    A1, [A0 + 0x5C]
00001A9E  4E91                     jsr        [A1]
00001AA0  2F2E FFF8                move.l     -[A7], [A6 - 0x8]
00001AA4  A873                     syscall    SetPort
00001AA6  4FEF 0010                lea.l      A7, [A7 + 0x10]
label00001AAA:
00001AAA  4CEE 1800 FFF0           movem.l    A3,A4, [A6 - 0x10]
00001AB0  4E5E                     unlink     A6
00001AB2  4E75                     rts
00001AB4  9541 6374 6976 6174 6... dc.b       "Activate__7cWindowFUc"
export_541:
00001ACC  4E56 0000                link       A6, 0
00001AD0  2F0C                     move.l     -[A7], A4
00001AD2  286E 0008                movea.l    A4, [A6 + 0x8]
00001AD6  2F2C 0084                move.l     -[A7], [A4 + 0x84]
00001ADA  2F3C 574E 4431           move.l     -[A7], 0x574E4431 /* 'WND1' */
00001AE0  204C                     movea.l    A0, A4
00001AE2  226C 0060                movea.l    A1, [A4 + 0x60]
00001AE6  D0E9 0060                add.w      A0, [A1 + 0x60]
00001AEA  2F08                     move.l     -[A7], A0
00001AEC  2049                     movea.l    A0, A1
00001AEE  2268 0064                movea.l    A1, [A0 + 0x64]
00001AF2  4E91                     jsr        [A1]
00001AF4  286E FFFC                movea.l    A4, [A6 - 0x4]
00001AF8  4E5E                     unlink     A6
00001AFA  4E75                     rts
00001AFC  9842 7269 6E67 546F 4... dc.b       "BringToFront__7cWindowFv"
export_542:
00001B18  4E56 0000                link       A6, 0
00001B1C  2F0C                     move.l     -[A7], A4
00001B1E  286E 0008                movea.l    A4, [A6 + 0x8]
00001B22  2F2C 0084                move.l     -[A7], [A4 + 0x84]
00001B26  7000                     moveq.l    D0, 0x00
00001B28  2F00                     move.l     -[A7], D0
00001B2A  A921                     syscall    SendBehind
00001B2C  7000                     moveq.l    D0, 0x00
00001B2E  2F00                     move.l     -[A7], D0
00001B30  2F0C                     move.l     -[A7], A4
00001B32  2F3C 574E 4430           move.l     -[A7], 0x574E4430 /* 'WND0' */
00001B38  204C                     movea.l    A0, A4
00001B3A  226C 0060                movea.l    A1, [A4 + 0x60]
00001B3E  D0E9 0058                add.w      A0, [A1 + 0x58]
00001B42  2F08                     move.l     -[A7], A0
00001B44  2049                     movea.l    A0, A1
00001B46  2268 005C                movea.l    A1, [A0 + 0x5C]
00001B4A  4E91                     jsr        [A1]
00001B4C  286E FFFC                movea.l    A4, [A6 - 0x4]
00001B50  4E5E                     unlink     A6
00001B52  4E75                     rts
00001B54  9653 656E 6454 6F42 6... dc.b       "SendToBack__7cWindowFv"
export_543:
00001B6E  4E56 0000                link       A6, 0
00001B72  48E7 0018                movem.l    -[A7], A3,A4
00001B76  286E 0008                movea.l    A4, [A6 + 0x8]
00001B7A  206C 0084                movea.l    A0, [A4 + 0x84]
00001B7E  2668 0090                movea.l    A3, [A0 + 0x90]
00001B82  200B                     move.l     D0, A3
00001B84  6726                     beq        +0x28 /* 00001BAC */
00001B86  2F08                     move.l     -[A7], A0
00001B88  2F0B                     move.l     -[A7], A3
00001B8A  A921                     syscall    SendBehind
00001B8C  2F0B                     move.l     -[A7], A3
00001B8E  2F3C 574E 4431           move.l     -[A7], 0x574E4431 /* 'WND1' */
00001B94  204C                     movea.l    A0, A4
00001B96  226C 0060                movea.l    A1, [A4 + 0x60]
00001B9A  D0E9 0060                add.w      A0, [A1 + 0x60]
00001B9E  2F08                     move.l     -[A7], A0
00001BA0  2049                     movea.l    A0, A1
00001BA2  2268 0064                movea.l    A1, [A0 + 0x64]
00001BA6  4E91                     jsr        [A1]
00001BA8  4FEF 000C                lea.l      A7, [A7 + 0xC]
label00001BAC:
00001BAC  4CEE 1800 FFF8           movem.l    A3,A4, [A6 - 0x8]
00001BB2  4E5E                     unlink     A6
00001BB4  4E75                     rts
00001BB6  9642 6163 6B31 4C65 7... dc.b       "Back1Level__7cWindowFv"
export_544:
00001BD0  4E56 0000                link       A6, 0
00001BD4  48E7 0118                movem.l    -[A7], D7,A3,A4
00001BD8  2E2E 000C                move.l     D7, [A6 + 0xC]
00001BDC  286E 0008                movea.l    A4, [A6 + 0x8]
00001BE0  264C                     movea.l    A3, A4
00001BE2  70FC                     moveq.l    D0, 0xFFFFFFFC
00001BE4  B087                     cmp.l      D0, D7
00001BE6  660C                     bne        +0xE /* 00001BF4 */
00001BE8  70FC                     moveq.l    D0, 0xFFFFFFFC
00001BEA  2F00                     move.l     -[A7], D0
00001BEC  4EAD 18B2                jsr        [A5 + 0x18B2 /* export_786, CODE:32 @ 00006458 */]
00001BF0  584F                     addq.w     A7, 4
00001BF2  6076                     bra        +0x78 /* 00001C6A */
label00001BF4:
00001BF4  70FE                     moveq.l    D0, 0xFFFFFFFE
00001BF6  B087                     cmp.l      D0, D7
00001BF8  6604                     bne        +0x6 /* 00001BFE */
00001BFA  2E2C 0168                move.l     D7, [A4 + 0x168]
label00001BFE:
00001BFE  206B 0084                movea.l    A0, [A3 + 0x84]
00001C02  2868 0090                movea.l    A4, [A0 + 0x90]
00001C06  200C                     move.l     D0, A4
00001C08  6706                     beq        +0x8 /* 00001C10 */
00001C0A  266C 0098                movea.l    A3, [A4 + 0x98]
00001C0E  6004                     bra        +0x6 /* 00001C14 */
label00001C10:
00001C10  7000                     moveq.l    D0, 0x00
00001C12  2640                     movea.l    A3, D0
label00001C14:
00001C14  200B                     move.l     D0, A3
00001C16  6750                     beq        +0x52 /* 00001C68 */
00001C18  4A2C 006E                tst.b      [A4 + 0x6E]
00001C1C  67E0                     beq        -0x1E /* 00001BFE */
00001C1E  4A87                     tst.l      D7
00001C20  6746                     beq        +0x48 /* 00001C68 */
00001C22  70FF                     moveq.l    D0, 0xFFFFFFFF
00001C24  B087                     cmp.l      D0, D7
00001C26  661A                     bne        +0x1C /* 00001C42 */
00001C28  204B                     movea.l    A0, A3
00001C2A  226B 0060                movea.l    A1, [A3 + 0x60]
00001C2E  D0E9 01B0                add.w      A0, [A1 + 0x1B0]
00001C32  2F08                     move.l     -[A7], A0
00001C34  2049                     movea.l    A0, A1
00001C36  2268 01B4                movea.l    A1, [A0 + 0x1B4]
00001C3A  4E91                     jsr        [A1]
00001C3C  4A00                     tst.b      D0
00001C3E  584F                     addq.w     A7, 4
00001C40  6726                     beq        +0x28 /* 00001C68 */
label00001C42:
00001C42  70FD                     moveq.l    D0, 0xFFFFFFFD
00001C44  B087                     cmp.l      D0, D7
00001C46  661A                     bne        +0x1C /* 00001C62 */
00001C48  204B                     movea.l    A0, A3
00001C4A  226B 0060                movea.l    A1, [A3 + 0x60]
00001C4E  D0E9 01B0                add.w      A0, [A1 + 0x1B0]
00001C52  2F08                     move.l     -[A7], A0
00001C54  2049                     movea.l    A0, A1
00001C56  2268 01B4                movea.l    A1, [A0 + 0x1B4]
00001C5A  4E91                     jsr        [A1]
00001C5C  4A00                     tst.b      D0
00001C5E  584F                     addq.w     A7, 4
00001C60  6606                     bne        +0x8 /* 00001C68 */
label00001C62:
00001C62  BEAB 0168                cmp.l      D7, [A3 + 0x168]
00001C66  6696                     bne        -0x68 /* 00001BFE */
label00001C68:
00001C68  200B                     move.l     D0, A3
label00001C6A:
00001C6A  4CEE 1880 FFF4           movem.l    D7,A3,A4, [A6 - 0xC]
00001C70  4E5E                     unlink     A6
00001C72  4E75                     rts
00001C74  974E 6578 7457 696E 6... dc.b       "NextWindow__7cWindowFUl"
export_545:
00001C8E  4E56 0000                link       A6, 0
00001C92  2F0C                     move.l     -[A7], A4
00001C94  286E 0008                movea.l    A4, [A6 + 0x8]
00001C98  2F2C 0084                move.l     -[A7], [A4 + 0x84]
00001C9C  A915                     syscall    ShowWindow
00001C9E  4A2E 000F                tst.b      [A6 + 0xF]
00001CA2  6716                     beq        +0x18 /* 00001CBA */
00001CA4  204C                     movea.l    A0, A4
00001CA6  226C 0060                movea.l    A1, [A4 + 0x60]
00001CAA  D0E9 00D0                add.w      A0, [A1 + 0xD0]
00001CAE  2F08                     move.l     -[A7], A0
00001CB0  2049                     movea.l    A0, A1
00001CB2  2268 00D4                movea.l    A1, [A0 + 0xD4]
00001CB6  4E91                     jsr        [A1]
00001CB8  584F                     addq.w     A7, 4
label00001CBA:
00001CBA  286E FFFC                movea.l    A4, [A6 - 0x4]
00001CBE  4E5E                     unlink     A6
00001CC0  4E75                     rts
00001CC2  9153 686F 775F 5F37 6... dc.b       "Show__7cWindowFUc"
export_546:
00001CD6  4E56 0000                link       A6, 0
00001CDA  2F0C                     move.l     -[A7], A4
00001CDC  286E 0008                movea.l    A4, [A6 + 0x8]
00001CE0  2F2C 0084                move.l     -[A7], [A4 + 0x84]
00001CE4  A916                     syscall    HideWindow
00001CE6  7000                     moveq.l    D0, 0x00
00001CE8  2F00                     move.l     -[A7], D0
00001CEA  2F3C 574E 4430           move.l     -[A7], 0x574E4430 /* 'WND0' */
00001CF0  204C                     movea.l    A0, A4
00001CF2  226C 0060                movea.l    A1, [A4 + 0x60]
00001CF6  D0E9 0060                add.w      A0, [A1 + 0x60]
00001CFA  2F08                     move.l     -[A7], A0
00001CFC  2049                     movea.l    A0, A1
00001CFE  2268 0064                movea.l    A1, [A0 + 0x64]
00001D02  4E91                     jsr        [A1]
00001D04  286E FFFC                movea.l    A4, [A6 - 0x4]
00001D08  4E5E                     unlink     A6
00001D0A  4E75                     rts
00001D0C  9048 6964 655F 5F37 6... dc.b       "Hide__7cWindowFv"
export_547:
00001D20  4E56 0000                link       A6, 0
00001D24  48E7 0018                movem.l    -[A7], A3,A4
00001D28  286E 0008                movea.l    A4, [A6 + 0x8]
00001D2C  266C 00DC                movea.l    A3, [A4 + 0xDC]
00001D30  206C 0084                movea.l    A0, [A4 + 0x84]
00001D34  7000                     moveq.l    D0, 0x00
00001D36  1028 006E                move.b     D0, [A0 + 0x6E]
00001D3A  0C40 0001                cmpi.w     D0, 0x1
00001D3E  6620                     bne        +0x22 /* 00001D60 */
00001D40  601A                     bra        +0x1C /* 00001D5C */
label00001D42:
00001D42  204B                     movea.l    A0, A3
00001D44  226B 0008                movea.l    A1, [A3 + 0x8]
00001D48  D0E9 0070                add.w      A0, [A1 + 0x70]
00001D4C  2F08                     move.l     -[A7], A0
00001D4E  2049                     movea.l    A0, A1
00001D50  2268 0074                movea.l    A1, [A0 + 0x74]
00001D54  4E91                     jsr        [A1]
00001D56  266B 0004                movea.l    A3, [A3 + 0x4]
00001D5A  584F                     addq.w     A7, 4
label00001D5C:
00001D5C  200B                     move.l     D0, A3
00001D5E  66E2                     bne        -0x1C /* 00001D42 */
label00001D60:
00001D60  4CEE 1800 FFF8           movem.l    A3,A4, [A6 - 0x8]
00001D66  4E5E                     unlink     A6
00001D68  4E75                     rts
00001D6A  954E 756C 6C45 7665 6... dc.b       "NullEvent__7cWindowFv"
export_548:
00001D82  4E56 FEFA                link       A6, -0x0106
00001D86  48E7 0318                movem.l    -[A7], D6,D7,A3,A4
00001D8A  266E 000C                movea.l    A3, [A6 + 0xC]
00001D8E  286E 0008                movea.l    A4, [A6 + 0x8]
00001D92  4A2D F114                tst.b      [A5 - 0xEEC]
00001D96  6606                     bne        +0x8 /* 00001D9E */
00001D98  7000                     moveq.l    D0, 0x00
00001D9A  6000 012E                bra        +0x130 /* 00001ECA */
label00001D9E:
00001D9E  4A2D F112                tst.b      [A5 - 0xEEE]
00001DA2  6604                     bne        +0x6 /* 00001DA8 */
00001DA4  4EBA 1158                jsr        [PC + 0x1158 /* 00002EFE */]
label00001DA8:
00001DA8  200B                     move.l     D0, A3
00001DAA  6620                     bne        +0x22 /* 00001DCC */
00001DAC  486E FFFA                pea.l      [A6 - 0x6]
00001DB0  486E FEFA                pea.l      [A6 - 0x106]
00001DB4  204C                     movea.l    A0, A4
00001DB6  226C 0060                movea.l    A1, [A4 + 0x60]
00001DBA  D0E9 01A0                add.w      A0, [A1 + 0x1A0]
00001DBE  2F08                     move.l     -[A7], A0
00001DC0  2049                     movea.l    A0, A1
00001DC2  2268 01A4                movea.l    A1, [A0 + 0x1A4]
00001DC6  4E91                     jsr        [A1]
00001DC8  4FEF 000C                lea.l      A7, [A7 + 0xC]
label00001DCC:
00001DCC  4207                     clr.b      D7
00001DCE  486E FFFC                pea.l      [A6 - 0x4]
00001DD2  A874                     syscall    GetPort
00001DD4  2F3C 0003 0D40           move.l     -[A7], 0x30D40
00001DDA  4EAD 2112                jsr        [A5 + 0x2112 /* export_1054, CODE:39 @ 000009D0 */]
00001DDE  4A00                     tst.b      D0
00001DE0  584F                     addq.w     A7, 4
00001DE2  6700 00DE                beq        +0xE0 /* 00001EC2 */
00001DE6  4EAD 20E2                jsr        [A5 + 0x20E2 /* export_1048, CODE:39 @ 000002AA */]
00001DEA  2F2D F858                move.l     -[A7], [A5 - 0x7A8]
00001DEE  4EAD 2122                jsr        [A5 + 0x2122 /* export_1056, CODE:39 @ 00000AAA */]
00001DF2  4AAD F858                tst.l      [A5 - 0x7A8]
00001DF6  584F                     addq.w     A7, 4
00001DF8  6700 00C4                beq        +0xC6 /* 00001EBE */
00001DFC  558F                     subq.l     A7, 2
00001DFE  2F2D F858                move.l     -[A7], [A5 - 0x7A8]
00001E02  2F3C 3204 0488           move.l     -[A7], 0x32040488
00001E08  A8FD                     syscall    PrGlue
00001E0A  4A1F                     tst.b      [A7]+
00001E0C  6700 00B0                beq        +0xB2 /* 00001EBE */
00001E10  7E01                     moveq.l    D7, 0x01
00001E12  2F2D F858                move.l     -[A7], [A5 - 0x7A8]
00001E16  4EAD 211A                jsr        [A5 + 0x211A /* export_1055, CODE:39 @ 00000A28 */]
00001E1A  204C                     movea.l    A0, A4
00001E1C  226C 0060                movea.l    A1, [A4 + 0x60]
00001E20  D0E9 0128                add.w      A0, [A1 + 0x128]
00001E24  2F08                     move.l     -[A7], A0
00001E26  2049                     movea.l    A0, A1
00001E28  2268 012C                movea.l    A1, [A0 + 0x12C]
00001E2C  4E91                     jsr        [A1]
00001E2E  4AAC 00F8                tst.l      [A4 + 0xF8]
00001E32  504F                     addq.w     A7, 8
00001E34  6718                     beq        +0x1A /* 00001E4E */
00001E36  200B                     move.l     D0, A3
00001E38  670A                     beq        +0xC /* 00001E44 */
00001E3A  2F2C 00F8                move.l     -[A7], [A4 + 0xF8]
00001E3E  2F0B                     move.l     -[A7], A3
00001E40  A91A                     syscall    SetWTitle
00001E42  600A                     bra        +0xC /* 00001E4E */
label00001E44:
00001E44  2F2C 00F8                move.l     -[A7], [A4 + 0xF8]
00001E48  486E FEFA                pea.l      [A6 - 0x106]
00001E4C  A91A                     syscall    SetWTitle
label00001E4E:
00001E4E  206D F858                movea.l    A0, [A5 - 0x7A8]
00001E52  2050                     movea.l    A0, [A0]
00001E54  3028 0040                move.w     D0, [A0 + 0x40]
00001E58  48C0                     ext.l      D0
00001E5A  2F00                     move.l     -[A7], D0
00001E5C  206D F858                movea.l    A0, [A5 - 0x7A8]
00001E60  2050                     movea.l    A0, [A0]
00001E62  3028 003E                move.w     D0, [A0 + 0x3E]
00001E66  48C0                     ext.l      D0
00001E68  2F00                     move.l     -[A7], D0
00001E6A  204C                     movea.l    A0, A4
00001E6C  226C 0060                movea.l    A1, [A4 + 0x60]
00001E70  D0E9 0138                add.w      A0, [A1 + 0x138]
00001E74  2F08                     move.l     -[A7], A0
00001E76  2049                     movea.l    A0, A1
00001E78  2268 013C                movea.l    A1, [A0 + 0x13C]
00001E7C  4E91                     jsr        [A1]
00001E7E  3C00                     move.w     D6, D0
00001E80  4AAC 00F8                tst.l      [A4 + 0xF8]
00001E84  4FEF 000C                lea.l      A7, [A7 + 0xC]
00001E88  6716                     beq        +0x18 /* 00001EA0 */
00001E8A  204C                     movea.l    A0, A4
00001E8C  226C 0060                movea.l    A1, [A4 + 0x60]
00001E90  D0E9 0130                add.w      A0, [A1 + 0x130]
00001E94  2F08                     move.l     -[A7], A0
00001E96  2049                     movea.l    A0, A1
00001E98  2268 0134                movea.l    A1, [A0 + 0x134]
00001E9C  4E91                     jsr        [A1]
00001E9E  584F                     addq.w     A7, 4
label00001EA0:
00001EA0  703E                     moveq.l    D0, 0x3E
00001EA2  3F00                     move.w     -[A7], D0
00001EA4  7200                     moveq.l    D1, 0x00
00001EA6  3F01                     move.w     -[A7], D1
00001EA8  201F                     move.l     D0, [A7]+
00001EAA  A032                     syscall    FlushEvents
00001EAC  4A46                     tst.w      D6
00001EAE  670E                     beq        +0x10 /* 00001EBE */
00001EB0  0C46 0080                cmpi.w     D6, 0x80
00001EB4  6708                     beq        +0xA /* 00001EBE */
00001EB6  0C46 FFD5                cmpi.w     D6, 0xFFD5
00001EBA  6702                     beq        +0x4 /* 00001EBE */
00001EBC  4207                     clr.b      D7
label00001EBE:
00001EBE  4EAD 20EA                jsr        [A5 + 0x20EA /* export_1049, CODE:39 @ 000002FE */]
label00001EC2:
00001EC2  2F2E FFFC                move.l     -[A7], [A6 - 0x4]
00001EC6  A873                     syscall    SetPort
00001EC8  1007                     move.b     D0, D7
label00001ECA:
00001ECA  4CEE 18C0 FEEA           movem.l    D6,D7,A3,A4, [A6 - 0x116]
00001ED0  4E5E                     unlink     A6
00001ED2  4E75                     rts
00001ED4  9350 7269 6E74 5F5F 3... dc.b       "Print__7cWindowFPUc"
export_549:
00001EEA  4E56 0000                link       A6, 0
00001EEE  2F0C                     move.l     -[A7], A4
00001EF0  286E 0008                movea.l    A4, [A6 + 0x8]
00001EF4  4AAC 0112                tst.l      [A4 + 0x112]
00001EF8  6720                     beq        +0x22 /* 00001F1A */
00001EFA  206C 0112                movea.l    A0, [A4 + 0x112]
00001EFE  2248                     movea.l    A1, A0
00001F00  2269 0060                movea.l    A1, [A1 + 0x60]
00001F04  D0E9 00D8                add.w      A0, [A1 + 0xD8]
00001F08  2F08                     move.l     -[A7], A0
00001F0A  206C 0112                movea.l    A0, [A4 + 0x112]
00001F0E  2068 0060                movea.l    A0, [A0 + 0x60]
00001F12  2268 00DC                movea.l    A1, [A0 + 0xDC]
00001F16  4E91                     jsr        [A1]
00001F18  584F                     addq.w     A7, 4
label00001F1A:
00001F1A  286E FFFC                movea.l    A4, [A6 - 0x4]
00001F1E  4E5E                     unlink     A6
00001F20  4E75                     rts
00001F22  9055 6E64 6F5F 5F37 6... dc.b       "Undo__7cWindowFv"
export_550:
00001F36  4E56 0000                link       A6, 0
00001F3A  2F0C                     move.l     -[A7], A4
00001F3C  286E 0008                movea.l    A4, [A6 + 0x8]
00001F40  4AAC 0112                tst.l      [A4 + 0x112]
00001F44  6720                     beq        +0x22 /* 00001F66 */
00001F46  206C 0112                movea.l    A0, [A4 + 0x112]
00001F4A  2248                     movea.l    A1, A0
00001F4C  2269 0060                movea.l    A1, [A1 + 0x60]
00001F50  D0E9 00B0                add.w      A0, [A1 + 0xB0]
00001F54  2F08                     move.l     -[A7], A0
00001F56  206C 0112                movea.l    A0, [A4 + 0x112]
00001F5A  2068 0060                movea.l    A0, [A0 + 0x60]
00001F5E  2268 00B4                movea.l    A1, [A0 + 0xB4]
00001F62  4E91                     jsr        [A1]
00001F64  584F                     addq.w     A7, 4
label00001F66:
00001F66  286E FFFC                movea.l    A4, [A6 - 0x4]
00001F6A  4E5E                     unlink     A6
00001F6C  4E75                     rts
00001F6E  8F43 7574 5F5F 3763 5... dc.b       "Cut__7cWindowFv"
export_551:
00001F80  4E56 0000                link       A6, 0
00001F84  2F0C                     move.l     -[A7], A4
00001F86  286E 0008                movea.l    A4, [A6 + 0x8]
00001F8A  4AAC 0112                tst.l      [A4 + 0x112]
00001F8E  6720                     beq        +0x22 /* 00001FB0 */
00001F90  206C 0112                movea.l    A0, [A4 + 0x112]
00001F94  2248                     movea.l    A1, A0
00001F96  2269 0060                movea.l    A1, [A1 + 0x60]
00001F9A  D0E9 00B8                add.w      A0, [A1 + 0xB8]
00001F9E  2F08                     move.l     -[A7], A0
00001FA0  206C 0112                movea.l    A0, [A4 + 0x112]
00001FA4  2068 0060                movea.l    A0, [A0 + 0x60]
00001FA8  2268 00BC                movea.l    A1, [A0 + 0xBC]
00001FAC  4E91                     jsr        [A1]
00001FAE  584F                     addq.w     A7, 4
label00001FB0:
00001FB0  286E FFFC                movea.l    A4, [A6 - 0x4]
00001FB4  4E5E                     unlink     A6
00001FB6  4E75                     rts
00001FB8  9043 6F70 795F 5F37 6... dc.b       "Copy__7cWindowFv"
export_552:
00001FCC  4E56 0000                link       A6, 0
00001FD0  2F0C                     move.l     -[A7], A4
00001FD2  286E 0008                movea.l    A4, [A6 + 0x8]
00001FD6  4AAC 0112                tst.l      [A4 + 0x112]
00001FDA  6720                     beq        +0x22 /* 00001FFC */
00001FDC  206C 0112                movea.l    A0, [A4 + 0x112]
00001FE0  2248                     movea.l    A1, A0
00001FE2  2269 0060                movea.l    A1, [A1 + 0x60]
00001FE6  D0E9 00C0                add.w      A0, [A1 + 0xC0]
00001FEA  2F08                     move.l     -[A7], A0
00001FEC  206C 0112                movea.l    A0, [A4 + 0x112]
00001FF0  2068 0060                movea.l    A0, [A0 + 0x60]
00001FF4  2268 00C4                movea.l    A1, [A0 + 0xC4]
00001FF8  4E91                     jsr        [A1]
00001FFA  584F                     addq.w     A7, 4
label00001FFC:
00001FFC  286E FFFC                movea.l    A4, [A6 - 0x4]
00002000  4E5E                     unlink     A6
00002002  4E75                     rts
00002004  9150 6173 7465 5F5F 3... dc.b       "Paste__7cWindowFv"
export_553:
00002018  4E56 0000                link       A6, 0
0000201C  2F0C                     move.l     -[A7], A4
0000201E  286E 0008                movea.l    A4, [A6 + 0x8]
00002022  4AAC 0112                tst.l      [A4 + 0x112]
00002026  6720                     beq        +0x22 /* 00002048 */
00002028  206C 0112                movea.l    A0, [A4 + 0x112]
0000202C  2248                     movea.l    A1, A0
0000202E  2269 0060                movea.l    A1, [A1 + 0x60]
00002032  D0E9 00C8                add.w      A0, [A1 + 0xC8]
00002036  2F08                     move.l     -[A7], A0
00002038  206C 0112                movea.l    A0, [A4 + 0x112]
0000203C  2068 0060                movea.l    A0, [A0 + 0x60]
00002040  2268 00CC                movea.l    A1, [A0 + 0xCC]
00002044  4E91                     jsr        [A1]
00002046  584F                     addq.w     A7, 4
label00002048:
00002048  286E FFFC                movea.l    A4, [A6 - 0x4]
0000204C  4E5E                     unlink     A6
0000204E  4E75                     rts
00002050  9143 6C65 6172 5F5F 3... dc.b       "Clear__7cWindowFv"
export_554:
00002064  4E56 0000                link       A6, 0
00002068  2F0C                     move.l     -[A7], A4
0000206A  286E 0008                movea.l    A4, [A6 + 0x8]
0000206E  4AAC 0112                tst.l      [A4 + 0x112]
00002072  6720                     beq        +0x22 /* 00002094 */
00002074  206C 0112                movea.l    A0, [A4 + 0x112]
00002078  2248                     movea.l    A1, A0
0000207A  2269 0060                movea.l    A1, [A1 + 0x60]
0000207E  D0E9 00D0                add.w      A0, [A1 + 0xD0]
00002082  2F08                     move.l     -[A7], A0
00002084  206C 0112                movea.l    A0, [A4 + 0x112]
00002088  2068 0060                movea.l    A0, [A0 + 0x60]
0000208C  2268 00D4                movea.l    A1, [A0 + 0xD4]
00002090  4E91                     jsr        [A1]
00002092  584F                     addq.w     A7, 4
label00002094:
00002094  286E FFFC                movea.l    A4, [A6 - 0x4]
00002098  4E5E                     unlink     A6
0000209A  4E75                     rts
0000209C  9553 656C 6563 7441 6... dc.b       "SelectAll__7cWindowFv"
export_555:
000020B4  4E56 0000                link       A6, 0
000020B8  206E 0008                movea.l    A0, [A6 + 0x8]
000020BC  2F28 0084                move.l     -[A7], [A0 + 0x84]
000020C0  2F2E 000C                move.l     -[A7], [A6 + 0xC]
000020C4  A919                     syscall    GetWTitle
000020C6  206E 0010                movea.l    A0, [A6 + 0x10]
000020CA  4250                     clr.w      [A0]
000020CC  4E5E                     unlink     A6
000020CE  4E75                     rts
000020D0  9A47 6574 4849 464E 6... dc.b       "GetHIFName__7cWindowFPUcRs"
export_556:
000020EE  4E56 0000                link       A6, 0
000020F2  48E7 0018                movem.l    -[A7], A3,A4
000020F6  286E 0008                movea.l    A4, [A6 + 0x8]
000020FA  266C 00DC                movea.l    A3, [A4 + 0xDC]
000020FE  605C                     bra        +0x5E /* 0000215C */
label00002100:
00002100  558F                     subq.l     A7, 2
00002102  2F2E 000C                move.l     -[A7], [A6 + 0xC]
00002106  486B 0010                pea.l      [A3 + 0x10]
0000210A  A8AD                     syscall    PtInRect
0000210C  4A1F                     tst.b      [A7]+
0000210E  6748                     beq        +0x4A /* 00002158 */
00002110  2F2E 000C                move.l     -[A7], [A6 + 0xC]
00002114  204B                     movea.l    A0, A3
00002116  226B 0008                movea.l    A1, [A3 + 0x8]
0000211A  D0E9 0078                add.w      A0, [A1 + 0x78]
0000211E  2F08                     move.l     -[A7], A0
00002120  2049                     movea.l    A0, A1
00002122  2268 007C                movea.l    A1, [A0 + 0x7C]
00002126  4E91                     jsr        [A1]
00002128  4A00                     tst.b      D0
0000212A  504F                     addq.w     A7, 8
0000212C  6626                     bne        +0x28 /* 00002154 */
0000212E  7000                     moveq.l    D0, 0x00
00002130  2F00                     move.l     -[A7], D0
00002132  2F3C 5359 5330           move.l     -[A7], 0x53595330 /* 'SYS0' */
00002138  204C                     movea.l    A0, A4
0000213A  226C 0060                movea.l    A1, [A4 + 0x60]
0000213E  D0E9 0060                add.w      A0, [A1 + 0x60]
00002142  2F08                     move.l     -[A7], A0
00002144  2049                     movea.l    A0, A1
00002146  2268 0064                movea.l    A1, [A0 + 0x64]
0000214A  4E91                     jsr        [A1]
0000214C  7000                     moveq.l    D0, 0x00
0000214E  4FEF 000C                lea.l      A7, [A7 + 0xC]
00002152  6030                     bra        +0x32 /* 00002184 */
label00002154:
00002154  7001                     moveq.l    D0, 0x01
00002156  602C                     bra        +0x2E /* 00002184 */
label00002158:
00002158  266B 0004                movea.l    A3, [A3 + 0x4]
label0000215C:
0000215C  200B                     move.l     D0, A3
0000215E  66A0                     bne        -0x5E /* 00002100 */
00002160  7000                     moveq.l    D0, 0x00
00002162  2F00                     move.l     -[A7], D0
00002164  2F3C 5359 5330           move.l     -[A7], 0x53595330 /* 'SYS0' */
0000216A  204C                     movea.l    A0, A4
0000216C  226C 0060                movea.l    A1, [A4 + 0x60]
00002170  D0E9 0060                add.w      A0, [A1 + 0x60]
00002174  2F08                     move.l     -[A7], A0
00002176  2049                     movea.l    A0, A1
00002178  2268 0064                movea.l    A1, [A0 + 0x64]
0000217C  4E91                     jsr        [A1]
0000217E  7000                     moveq.l    D0, 0x00
00002180  4FEF 000C                lea.l      A7, [A7 + 0xC]
label00002184:
00002184  4CEE 1800 FFF8           movem.l    A3,A4, [A6 - 0x8]
0000218A  4E5E                     unlink     A6
0000218C  4E75                     rts
0000218E  9A4D 6F75 7365 4F76 6... dc.b       "MouseOver__7cWindowF5Point"
export_557:
fn000021AC:
000021AC  4E56 FFBC                link       A6, -0x0044
000021B0  48E7 0118                movem.l    -[A7], D7,A3,A4
000021B4  2E2E 000C                move.l     D7, [A6 + 0xC]
000021B8  286E 0008                movea.l    A4, [A6 + 0x8]
000021BC  2007                     move.l     D0, D7
000021BE  0480 4742 5445           subi.l     D0, 0x47425445 /* 'GBTE' */
000021C4  6700 0082                beq        +0x84 /* 00002248 */
000021C8  5580                     subq.l     D0, 2
000021CA  6600 028E                bne        +0x290 /* 0000245A */
000021CE  202E 0014                move.l     D0, [A6 + 0x14]
000021D2  B0AC 0112                cmp.l      D0, [A4 + 0x112]
000021D6  6700 0296                beq        +0x298 /* 0000246E */
000021DA  4AAC 0112                tst.l      [A4 + 0x112]
000021DE  6730                     beq        +0x32 /* 00002210 */
000021E0  266C 0112                movea.l    A3, [A4 + 0x112]
000021E4  2D4C FFC4                move.l     [A6 - 0x3C], A4
000021E8  7000                     moveq.l    D0, 0x00
000021EA  2D40 FFC8                move.l     [A6 - 0x38], D0
000021EE  2F00                     move.l     -[A7], D0
000021F0  2F0C                     move.l     -[A7], A4
000021F2  2F3C 4742 5446           move.l     -[A7], 0x47425446 /* 'GBTF' */
000021F8  204B                     movea.l    A0, A3
000021FA  226B 0060                movea.l    A1, [A3 + 0x60]
000021FE  D0E9 0058                add.w      A0, [A1 + 0x58]
00002202  2F08                     move.l     -[A7], A0
00002204  2049                     movea.l    A0, A1
00002206  2268 005C                movea.l    A1, [A0 + 0x5C]
0000220A  4E91                     jsr        [A1]
0000220C  4FEF 0010                lea.l      A7, [A7 + 0x10]
label00002210:
00002210  266E 0014                movea.l    A3, [A6 + 0x14]
00002214  294B 0112                move.l     [A4 + 0x112], A3
00002218  2D4C FFCC                move.l     [A6 - 0x34], A4
0000221C  7001                     moveq.l    D0, 0x01
0000221E  2D40 FFD0                move.l     [A6 - 0x30], D0
00002222  2F00                     move.l     -[A7], D0
00002224  2F0C                     move.l     -[A7], A4
00002226  2F3C 4742 5446           move.l     -[A7], 0x47425446 /* 'GBTF' */
0000222C  204B                     movea.l    A0, A3
0000222E  226B 0060                movea.l    A1, [A3 + 0x60]
00002232  D0E9 0058                add.w      A0, [A1 + 0x58]
00002236  2F08                     move.l     -[A7], A0
00002238  2049                     movea.l    A0, A1
0000223A  2268 005C                movea.l    A1, [A0 + 0x5C]
0000223E  4E91                     jsr        [A1]
00002240  4FEF 0010                lea.l      A7, [A7 + 0x10]
00002244  6000 0228                bra        +0x22A /* 0000246E */
label00002248:
00002248  206E 0014                movea.l    A0, [A6 + 0x14]
0000224C  2D48 FFD4                move.l     [A6 - 0x2C], A0
00002250  43EE FFD8                lea.l      A1, [A6 - 0x28]
00002254  22D8                     move.l     [A1]+, [A0]+
00002256  22D8                     move.l     [A1]+, [A0]+
00002258  206E FFD4                movea.l    A0, [A6 - 0x2C]
0000225C  2D68 0008 FFE0           move.l     [A6 - 0x20], [A0 + 0x8]
00002262  426E FFE2                clr.w      [A6 - 0x1E]
00002266  206C 0084                movea.l    A0, [A4 + 0x84]
0000226A  3D68 0014 FFDC           move.w     [A6 - 0x24], [A0 + 0x14]
00002270  206E FFD4                movea.l    A0, [A6 - 0x2C]
00002274  43EE FFE4                lea.l      A1, [A6 - 0x1C]
00002278  22D8                     move.l     [A1]+, [A0]+
0000227A  22D8                     move.l     [A1]+, [A0]+
0000227C  206E FFD4                movea.l    A0, [A6 - 0x2C]
00002280  2D68 0008 FFEC           move.l     [A6 - 0x14], [A0 + 0x8]
00002286  426E FFEC                clr.w      [A6 - 0x14]
0000228A  206C 0084                movea.l    A0, [A4 + 0x84]
0000228E  3D68 0016 FFEA           move.w     [A6 - 0x16], [A0 + 0x16]
00002294  266C 00DC                movea.l    A3, [A4 + 0xDC]
00002298  6000 00CC                bra        +0xCE /* 00002366 */
label0000229C:
0000229C  B7EE 0010                cmpa.l     A3, [A6 + 0x10]
000022A0  6700 00C0                beq        +0xC2 /* 00002362 */
000022A4  558F                     subq.l     A7, 2
000022A6  206E FFD4                movea.l    A0, [A6 - 0x2C]
000022AA  2F08                     move.l     -[A7], A0
000022AC  486B 0010                pea.l      [A3 + 0x10]
000022B0  486E FFBC                pea.l      [A6 - 0x44]
000022B4  A8AA                     syscall    SectRect
000022B6  4A1F                     tst.b      [A7]+
000022B8  672E                     beq        +0x30 /* 000022E8 */
000022BA  206E FFD4                movea.l    A0, [A6 - 0x2C]
000022BE  3028 0008                move.w     D0, [A0 + 0x8]
000022C2  48C0                     ext.l      D0
000022C4  2F00                     move.l     -[A7], D0
000022C6  3028 000A                move.w     D0, [A0 + 0xA]
000022CA  48C0                     ext.l      D0
000022CC  2F00                     move.l     -[A7], D0
000022CE  204B                     movea.l    A0, A3
000022D0  226B 0008                movea.l    A1, [A3 + 0x8]
000022D4  D0E9 0048                add.w      A0, [A1 + 0x48]
000022D8  2F08                     move.l     -[A7], A0
000022DA  2049                     movea.l    A0, A1
000022DC  2268 004C                movea.l    A1, [A0 + 0x4C]
000022E0  4E91                     jsr        [A1]
000022E2  4FEF 000C                lea.l      A7, [A7 + 0xC]
000022E6  607A                     bra        +0x7C /* 00002362 */
label000022E8:
000022E8  558F                     subq.l     A7, 2
000022EA  486E FFD8                pea.l      [A6 - 0x28]
000022EE  486B 0010                pea.l      [A3 + 0x10]
000022F2  486E FFBC                pea.l      [A6 - 0x44]
000022F6  A8AA                     syscall    SectRect
000022F8  4A1F                     tst.b      [A7]+
000022FA  672A                     beq        +0x2C /* 00002326 */
000022FC  302E FFE0                move.w     D0, [A6 - 0x20]
00002300  48C0                     ext.l      D0
00002302  2F00                     move.l     -[A7], D0
00002304  302E FFE2                move.w     D0, [A6 - 0x1E]
00002308  48C0                     ext.l      D0
0000230A  2F00                     move.l     -[A7], D0
0000230C  204B                     movea.l    A0, A3
0000230E  226B 0008                movea.l    A1, [A3 + 0x8]
00002312  D0E9 0040                add.w      A0, [A1 + 0x40]
00002316  2F08                     move.l     -[A7], A0
00002318  2049                     movea.l    A0, A1
0000231A  2268 0044                movea.l    A1, [A0 + 0x44]
0000231E  4E91                     jsr        [A1]
00002320  4FEF 000C                lea.l      A7, [A7 + 0xC]
00002324  603C                     bra        +0x3E /* 00002362 */
label00002326:
00002326  558F                     subq.l     A7, 2
00002328  486E FFE4                pea.l      [A6 - 0x1C]
0000232C  486B 0010                pea.l      [A3 + 0x10]
00002330  486E FFBC                pea.l      [A6 - 0x44]
00002334  A8AA                     syscall    SectRect
00002336  4A1F                     tst.b      [A7]+
00002338  6728                     beq        +0x2A /* 00002362 */
0000233A  302E FFEC                move.w     D0, [A6 - 0x14]
0000233E  48C0                     ext.l      D0
00002340  2F00                     move.l     -[A7], D0
00002342  302E FFEE                move.w     D0, [A6 - 0x12]
00002346  48C0                     ext.l      D0
00002348  2F00                     move.l     -[A7], D0
0000234A  204B                     movea.l    A0, A3
0000234C  226B 0008                movea.l    A1, [A3 + 0x8]
00002350  D0E9 0040                add.w      A0, [A1 + 0x40]
00002354  2F08                     move.l     -[A7], A0
00002356  2049                     movea.l    A0, A1
00002358  2268 0044                movea.l    A1, [A0 + 0x44]
0000235C  4E91                     jsr        [A1]
0000235E  4FEF 000C                lea.l      A7, [A7 + 0xC]
label00002362:
00002362  266B 0004                movea.l    A3, [A3 + 0x4]
label00002366:
00002366  200B                     move.l     D0, A3
00002368  6600 FF32                bne        -0xCC /* 0000229C */
0000236C  7000                     moveq.l    D0, 0x00
0000236E  2F00                     move.l     -[A7], D0
00002370  206C 0084                movea.l    A0, [A4 + 0x84]
00002374  2248                     movea.l    A1, A0
00002376  3228 0014                move.w     D1, [A0 + 0x14]
0000237A  9269 0010                sub.w      D1, [A1 + 0x10]
0000237E  206E FFD4                movea.l    A0, [A6 - 0x2C]
00002382  3428 0008                move.w     D2, [A0 + 0x8]
00002386  D441                     add.w      D2, D1
00002388  48C2                     ext.l      D2
0000238A  2F02                     move.l     -[A7], D2
0000238C  206C 0084                movea.l    A0, [A4 + 0x84]
00002390  2248                     movea.l    A1, A0
00002392  3228 0016                move.w     D1, [A0 + 0x16]
00002396  9269 0012                sub.w      D1, [A1 + 0x12]
0000239A  206E FFD4                movea.l    A0, [A6 - 0x2C]
0000239E  3428 000A                move.w     D2, [A0 + 0xA]
000023A2  D441                     add.w      D2, D1
000023A4  48C2                     ext.l      D2
000023A6  2F02                     move.l     -[A7], D2
000023A8  204C                     movea.l    A0, A4
000023AA  226C 0060                movea.l    A1, [A4 + 0x60]
000023AE  D0E9 00E8                add.w      A0, [A1 + 0xE8]
000023B2  2F08                     move.l     -[A7], A0
000023B4  2049                     movea.l    A0, A1
000023B6  2268 00EC                movea.l    A1, [A0 + 0xEC]
000023BA  4E91                     jsr        [A1]
000023BC  2F2C 00CE                move.l     -[A7], [A4 + 0xCE]
000023C0  206C 0084                movea.l    A0, [A4 + 0x84]
000023C4  4868 0010                pea.l      [A0 + 0x10]
000023C8  A8DF                     syscall    RectRgn
000023CA  598F                     subq.l     A7, 4
000023CC  A8D8                     syscall    NewRgn
000023CE  2D5F FFF8                move.l     [A6 - 0x8], [A7]+
000023D2  4FEF 0010                lea.l      A7, [A7 + 0x10]
000023D6  660C                     bne        +0xE /* 000023E4 */
000023D8  70FF                     moveq.l    D0, 0xFFFFFFFF
000023DA  2F00                     move.l     -[A7], D0
000023DC  2F0C                     move.l     -[A7], A4
000023DE  4EAD 14E2                jsr        [A5 + 0x14E2 /* export_664, CODE:32 @ 000007B8 */]
000023E2  504F                     addq.w     A7, 8
label000023E4:
000023E4  266C 00DC                movea.l    A3, [A4 + 0xDC]
000023E8  6028                     bra        +0x2A /* 00002412 */
label000023EA:
000023EA  41EE FFF0                lea.l      A0, [A6 - 0x10]
000023EE  43EB 0010                lea.l      A1, [A3 + 0x10]
000023F2  20D9                     move.l     [A0]+, [A1]+
000023F4  20D9                     move.l     [A0]+, [A1]+
000023F6  2F2E FFF8                move.l     -[A7], [A6 - 0x8]
000023FA  486E FFF0                pea.l      [A6 - 0x10]
000023FE  A8DF                     syscall    RectRgn
00002400  2F2C 00CE                move.l     -[A7], [A4 + 0xCE]
00002404  2F2E FFF8                move.l     -[A7], [A6 - 0x8]
00002408  2F2C 00CE                move.l     -[A7], [A4 + 0xCE]
0000240C  A8E6                     syscall    DiffRgn
0000240E  266B 0004                movea.l    A3, [A3 + 0x4]
label00002412:
00002412  200B                     move.l     D0, A3
00002414  66D4                     bne        -0x2A /* 000023EA */
00002416  2F2E FFF8                move.l     -[A7], [A6 - 0x8]
0000241A  A8D9                     syscall    DisposRgn/DisposeRgn
0000241C  206E FFD4                movea.l    A0, [A6 - 0x2C]
00002420  43EE FFF0                lea.l      A1, [A6 - 0x10]
00002424  22D8                     move.l     [A1]+, [A0]+
00002426  22D8                     move.l     [A1]+, [A0]+
00002428  206C 0084                movea.l    A0, [A4 + 0x84]
0000242C  3D68 0016 FFF6           move.w     [A6 - 0xA], [A0 + 0x16]
00002432  206C 0084                movea.l    A0, [A4 + 0x84]
00002436  3D68 0014 FFF4           move.w     [A6 - 0xC], [A0 + 0x14]
0000243C  486E FFFC                pea.l      [A6 - 0x4]
00002440  A874                     syscall    GetPort
00002442  2F2C 0084                move.l     -[A7], [A4 + 0x84]
00002446  A873                     syscall    SetPort
00002448  206C 0084                movea.l    A0, [A4 + 0x84]
0000244C  4868 0010                pea.l      [A0 + 0x10]
00002450  A928                     syscall    InvalRect
00002452  2F2E FFFC                move.l     -[A7], [A6 - 0x4]
00002456  A873                     syscall    SetPort
00002458  6014                     bra        +0x16 /* 0000246E */
label0000245A:
0000245A  2F2E 0014                move.l     -[A7], [A6 + 0x14]
0000245E  2F2E 0010                move.l     -[A7], [A6 + 0x10]
00002462  2F07                     move.l     -[A7], D7
00002464  2F0C                     move.l     -[A7], A4
00002466  4EAD 14C2                jsr        [A5 + 0x14C2 /* export_660, CODE:32 @ 00000440 */]
0000246A  4FEF 0010                lea.l      A7, [A7 + 0x10]
label0000246E:
0000246E  4CEE 1880 FFB0           movem.l    D7,A3,A4, [A6 - 0x50]
00002474  4E5E                     unlink     A6
00002476  4E75                     rts
00002478  8024 4861 7342 6565 6... dc.b       "HasBeenAChange__7cWindowFlP6cAgentPc"
export_558:
fn000024A0:
000024A0  4E56 FFF8                link       A6, -0x0008
000024A4  48E7 0118                movem.l    -[A7], D7,A3,A4
000024A8  3E2E 000E                move.w     D7, [A6 + 0xE]
000024AC  266E 0010                movea.l    A3, [A6 + 0x10]
000024B0  286E 0008                movea.l    A4, [A6 + 0x8]
000024B4  302E 0016                move.w     D0, [A6 + 0x16]
000024B8  6746                     beq        +0x48 /* 00002500 */
000024BA  5340                     subq.w     D0, 1
000024BC  6708                     beq        +0xA /* 000024C6 */
000024BE  5340                     subq.w     D0, 1
000024C0  6776                     beq        +0x78 /* 00002538 */
000024C2  6000 00DA                bra        +0xDC /* 0000259E */
label000024C6:
000024C6  2F2E 0018                move.l     -[A7], [A6 + 0x18]
000024CA  2F0B                     move.l     -[A7], A3
000024CC  2F0C                     move.l     -[A7], A4
000024CE  2F0C                     move.l     -[A7], A4
000024D0  7000                     moveq.l    D0, 0x00
000024D2  2F00                     move.l     -[A7], D0
000024D4  2F00                     move.l     -[A7], D0
000024D6  4EAD 1B1A                jsr        [A5 + 0x1B1A /* export_863, CODE:35 @ 00000000 */]
000024DA  2D40 FFFC                move.l     [A6 - 0x4], D0
000024DE  4FEF 0018                lea.l      A7, [A7 + 0x18]
000024E2  670C                     beq        +0xE /* 000024F0 */
000024E4  202E FFFC                move.l     D0, [A6 - 0x4]
000024E8  D0BC 0000 0080           add.l      D0, 0x80
000024EE  6002                     bra        +0x4 /* 000024F2 */
label000024F0:
000024F0  7000                     moveq.l    D0, 0x00
label000024F2:
000024F2  2F00                     move.l     -[A7], D0
000024F4  2F0C                     move.l     -[A7], A4
000024F6  4EBA 0DE2                jsr        [PC + 0xDE2 /* 000032DA */]
000024FA  504F                     addq.w     A7, 8
000024FC  6000 00A0                bra        +0xA2 /* 0000259E */
label00002500:
00002500  2F2E 0018                move.l     -[A7], [A6 + 0x18]
00002504  2F0B                     move.l     -[A7], A3
00002506  2F0C                     move.l     -[A7], A4
00002508  2F0C                     move.l     -[A7], A4
0000250A  7000                     moveq.l    D0, 0x00
0000250C  2F00                     move.l     -[A7], D0
0000250E  2F00                     move.l     -[A7], D0
00002510  4EAD 19BA                jsr        [A5 + 0x19BA /* export_819, CODE:34 @ 00000000 */]
00002514  2D40 FFF8                move.l     [A6 - 0x8], D0
00002518  4FEF 0018                lea.l      A7, [A7 + 0x18]
0000251C  670C                     beq        +0xE /* 0000252A */
0000251E  202E FFF8                move.l     D0, [A6 - 0x8]
00002522  D0BC 0000 0080           add.l      D0, 0x80
00002528  6002                     bra        +0x4 /* 0000252C */
label0000252A:
0000252A  7000                     moveq.l    D0, 0x00
label0000252C:
0000252C  2F00                     move.l     -[A7], D0
0000252E  2F0C                     move.l     -[A7], A4
00002530  4EBA 0DA8                jsr        [PC + 0xDA8 /* 000032DA */]
00002534  504F                     addq.w     A7, 8
00002536  6066                     bra        +0x68 /* 0000259E */
label00002538:
00002538  48C7                     ext.l      D7
0000253A  7000                     moveq.l    D0, 0x00
0000253C  102C 00D2                move.b     D0, [A4 + 0xD2]
00002540  2207                     move.l     D1, D7
00002542  9280                     sub.l      D1, D0
00002544  7001                     moveq.l    D0, 0x01
00002546  B081                     cmp.l      D0, D1
00002548  6618                     bne        +0x1A /* 00002562 */
0000254A  2F0B                     move.l     -[A7], A3
0000254C  2F2E 0018                move.l     -[A7], [A6 + 0x18]
00002550  2F2C 00D8                move.l     -[A7], [A4 + 0xD8]
00002554  4EAD 1BFA                jsr        [A5 + 0x1BFA /* export_891, CODE:35 @ 00001586 */]
00002558  1947 00D2                move.b     [A4 + 0xD2], D7
0000255C  4FEF 000C                lea.l      A7, [A7 + 0xC]
00002560  603C                     bra        +0x3E /* 0000259E */
label00002562:
00002562  2F2E 0018                move.l     -[A7], [A6 + 0x18]
00002566  2F0B                     move.l     -[A7], A3
00002568  2F0C                     move.l     -[A7], A4
0000256A  2F0C                     move.l     -[A7], A4
0000256C  7000                     moveq.l    D0, 0x00
0000256E  2F00                     move.l     -[A7], D0
00002570  2F00                     move.l     -[A7], D0
00002572  4EAD 1BD2                jsr        [A5 + 0x1BD2 /* export_886, CODE:35 @ 000011CA */]
00002576  2940 00D8                move.l     [A4 + 0xD8], D0
0000257A  1947 00D2                move.b     [A4 + 0xD2], D7
0000257E  4AAC 00D8                tst.l      [A4 + 0xD8]
00002582  670C                     beq        +0xE /* 00002590 */
00002584  202C 00D8                move.l     D0, [A4 + 0xD8]
00002588  D0BC 0000 0080           add.l      D0, 0x80
0000258E  6002                     bra        +0x4 /* 00002592 */
label00002590:
00002590  7000                     moveq.l    D0, 0x00
label00002592:
00002592  2F00                     move.l     -[A7], D0
00002594  2F0C                     move.l     -[A7], A4
00002596  4EBA 0D42                jsr        [PC + 0xD42 /* 000032DA */]
0000259A  4FEF 0020                lea.l      A7, [A7 + 0x20]
label0000259E:
0000259E  4CEE 1880 FFEC           movem.l    D7,A3,A4, [A6 - 0x14]
000025A4  4E5E                     unlink     A6
000025A6  4E75                     rts
000025A8  8020 4E65 7742 7574 7... dc.b       "NewButton__7cWindowFsR4RectT1PUc"
export_559:
fn000025CC:
000025CC  4E56 FED4                link       A6, -0x012C
000025D0  48E7 0F38                movem.l    -[A7], D4,D5,D6,D7,A2,A3,A4
000025D4  286E 0008                movea.l    A4, [A6 + 0x8]
000025D8  7803                     moveq.l    D4, 0x03
000025DA  7A09                     moveq.l    D5, 0x09
000025DC  42AE FFF4                clr.l      [A6 - 0xC]
000025E0  422E FEF4                clr.b      [A6 - 0x10C]
000025E4  41EE FEF5                lea.l      A0, [A6 - 0x10B]
000025E8  2D48 FFFC                move.l     [A6 - 0x4], A0
000025EC  206E 0014                movea.l    A0, [A6 + 0x14]
000025F0  47D0                     lea.l      A3, [A0]
000025F2  1C1B                     move.b     D6, [A3]+
000025F4  6012                     bra        +0x14 /* 00002608 */
label000025F6:
000025F6  202E FFFC                move.l     D0, [A6 - 0x4]
000025FA  52AE FFFC                addq.l     [A6 - 0x4], 1
000025FE  2040                     movea.l    A0, D0
00002600  109B                     move.b     [A0], [A3]+
00002602  522E FEF4                addq.b     [A6 - 0x10C], 1
00002606  5306                     subq.b     D6, 1
label00002608:
00002608  4A06                     tst.b      D6
0000260A  6722                     beq        +0x24 /* 0000262E */
0000260C  7000                     moveq.l    D0, 0x00
0000260E  1013                     move.b     D0, [A3]
00002610  0C40 0023                cmpi.w     D0, 0x23 /* '#' */
00002614  66E0                     bne        -0x1E /* 000025F6 */
00002616  7000                     moveq.l    D0, 0x00
00002618  102B 0001                move.b     D0, [A3 + 0x1]
0000261C  0C40 0023                cmpi.w     D0, 0x23 /* '#' */
00002620  66D4                     bne        -0x2A /* 000025F6 */
00002622  7000                     moveq.l    D0, 0x00
00002624  102B 0002                move.b     D0, [A3 + 0x2]
00002628  0C40 0023                cmpi.w     D0, 0x23 /* '#' */
0000262C  66C8                     bne        -0x36 /* 000025F6 */
label0000262E:
0000262E  7000                     moveq.l    D0, 0x00
00002630  1006                     move.b     D0, D6
00002632  0C00 0003                cmpi.b     D0, 0x3
00002636  6300 05A8                bls        +0x5AA /* 00002BE0 */
0000263A  5706                     subq.b     D6, 3
0000263C  568B                     addq.l     A3, 3
0000263E  4244                     clr.w      D4
00002640  602A                     bra        +0x2C /* 0000266C */
label00002642:
00002642  1E1B                     move.b     D7, [A3]+
00002644  7000                     moveq.l    D0, 0x00
00002646  1007                     move.b     D0, D7
00002648  4A80                     tst.l      D0
0000264A  651E                     bcs        +0x20 /* 0000266A */
0000264C  7000                     moveq.l    D0, 0x00
0000264E  1007                     move.b     D0, D7
00002650  0C00 0009                cmpi.b     D0, 0x9 /* '\t' */
00002654  6214                     bhi        +0x16 /* 0000266A */
00002656  48C4                     ext.l      D4
00002658  D884                     add.l      D4, D4
0000265A  2004                     move.l     D0, D4
0000265C  E58C                     lsl        D4, 2
0000265E  D880                     add.l      D4, D0
00002660  7000                     moveq.l    D0, 0x00
00002662  1007                     move.b     D0, D7
00002664  907C 0030                sub.w      D0, 0x30 /* '0' */
00002668  D840                     add.w      D4, D0
label0000266A:
0000266A  5306                     subq.b     D6, 1
label0000266C:
0000266C  4A06                     tst.b      D6
0000266E  670A                     beq        +0xC /* 0000267A */
00002670  7000                     moveq.l    D0, 0x00
00002672  1013                     move.b     D0, [A3]
00002674  0C40 002E                cmpi.w     D0, 0x2E /* '.' */
00002678  66C8                     bne        -0x36 /* 00002642 */
label0000267A:
0000267A  4A06                     tst.b      D6
0000267C  674E                     beq        +0x50 /* 000026CC */
0000267E  524B                     addq.w     A3, 1
00002680  5306                     subq.b     D6, 1
00002682  4245                     clr.w      D5
00002684  602A                     bra        +0x2C /* 000026B0 */
label00002686:
00002686  1E1B                     move.b     D7, [A3]+
00002688  7000                     moveq.l    D0, 0x00
0000268A  1007                     move.b     D0, D7
0000268C  4A80                     tst.l      D0
0000268E  651E                     bcs        +0x20 /* 000026AE */
00002690  7000                     moveq.l    D0, 0x00
00002692  1007                     move.b     D0, D7
00002694  0C00 0009                cmpi.b     D0, 0x9 /* '\t' */
00002698  6214                     bhi        +0x16 /* 000026AE */
0000269A  48C5                     ext.l      D5
0000269C  DA85                     add.l      D5, D5
0000269E  2005                     move.l     D0, D5
000026A0  E58D                     lsl        D5, 2
000026A2  DA80                     add.l      D5, D0
000026A4  7000                     moveq.l    D0, 0x00
000026A6  1007                     move.b     D0, D7
000026A8  907C 0030                sub.w      D0, 0x30 /* '0' */
000026AC  DA40                     add.w      D5, D0
label000026AE:
000026AE  5306                     subq.b     D6, 1
label000026B0:
000026B0  4A06                     tst.b      D6
000026B2  670A                     beq        +0xC /* 000026BE */
000026B4  7000                     moveq.l    D0, 0x00
000026B6  1013                     move.b     D0, [A3]
000026B8  0C40 002E                cmpi.w     D0, 0x2E /* '.' */
000026BC  66C8                     bne        -0x36 /* 00002686 */
label000026BE:
000026BE  4A45                     tst.w      D5
000026C0  660A                     bne        +0xC /* 000026CC */
000026C2  4A44                     tst.w      D4
000026C4  6604                     bne        +0x6 /* 000026CA */
000026C6  7A0C                     moveq.l    D5, 0x0C
000026C8  6002                     bra        +0x4 /* 000026CC */
label000026CA:
000026CA  7A09                     moveq.l    D5, 0x09
label000026CC:
000026CC  4A06                     tst.b      D6
000026CE  674C                     beq        +0x4E /* 0000271C */
000026D0  524B                     addq.w     A3, 1
000026D2  5306                     subq.b     D6, 1
000026D4  426E FFF4                clr.w      [A6 - 0xC]
000026D8  6034                     bra        +0x36 /* 0000270E */
label000026DA:
000026DA  1E1B                     move.b     D7, [A3]+
000026DC  7000                     moveq.l    D0, 0x00
000026DE  1007                     move.b     D0, D7
000026E0  4A80                     tst.l      D0
000026E2  6528                     bcs        +0x2A /* 0000270C */
000026E4  7000                     moveq.l    D0, 0x00
000026E6  1007                     move.b     D0, D7
000026E8  0C00 0009                cmpi.b     D0, 0x9 /* '\t' */
000026EC  621E                     bhi        +0x20 /* 0000270C */
000026EE  322E FFF4                move.w     D1, [A6 - 0xC]
000026F2  48C1                     ext.l      D1
000026F4  D281                     add.l      D1, D1
000026F6  2001                     move.l     D0, D1
000026F8  E589                     lsl        D1, 2
000026FA  D280                     add.l      D1, D0
000026FC  3D41 FFF4                move.w     [A6 - 0xC], D1
00002700  7000                     moveq.l    D0, 0x00
00002702  1007                     move.b     D0, D7
00002704  907C 0030                sub.w      D0, 0x30 /* '0' */
00002708  D16E FFF4                add.w      [A6 - 0xC], D0
label0000270C:
0000270C  5306                     subq.b     D6, 1
label0000270E:
0000270E  4A06                     tst.b      D6
00002710  670A                     beq        +0xC /* 0000271C */
00002712  7000                     moveq.l    D0, 0x00
00002714  1013                     move.b     D0, [A3]
00002716  0C40 002E                cmpi.w     D0, 0x2E /* '.' */
0000271A  66BE                     bne        -0x40 /* 000026DA */
label0000271C:
0000271C  4A06                     tst.b      D6
0000271E  674C                     beq        +0x4E /* 0000276C */
00002720  524B                     addq.w     A3, 1
00002722  5306                     subq.b     D6, 1
00002724  426E FFF6                clr.w      [A6 - 0xA]
00002728  6034                     bra        +0x36 /* 0000275E */
label0000272A:
0000272A  1E1B                     move.b     D7, [A3]+
0000272C  7000                     moveq.l    D0, 0x00
0000272E  1007                     move.b     D0, D7
00002730  4A80                     tst.l      D0
00002732  6528                     bcs        +0x2A /* 0000275C */
00002734  7000                     moveq.l    D0, 0x00
00002736  1007                     move.b     D0, D7
00002738  0C00 0009                cmpi.b     D0, 0x9 /* '\t' */
0000273C  621E                     bhi        +0x20 /* 0000275C */
0000273E  322E FFF6                move.w     D1, [A6 - 0xA]
00002742  48C1                     ext.l      D1
00002744  D281                     add.l      D1, D1
00002746  2001                     move.l     D0, D1
00002748  E589                     lsl        D1, 2
0000274A  D280                     add.l      D1, D0
0000274C  3D41 FFF6                move.w     [A6 - 0xA], D1
00002750  7000                     moveq.l    D0, 0x00
00002752  1007                     move.b     D0, D7
00002754  907C 0030                sub.w      D0, 0x30 /* '0' */
00002758  D16E FFF6                add.w      [A6 - 0xA], D0
label0000275C:
0000275C  5306                     subq.b     D6, 1
label0000275E:
0000275E  4A06                     tst.b      D6
00002760  670A                     beq        +0xC /* 0000276C */
00002762  7000                     moveq.l    D0, 0x00
00002764  1013                     move.b     D0, [A3]
00002766  0C40 002E                cmpi.w     D0, 0x2E /* '.' */
0000276A  66BE                     bne        -0x40 /* 0000272A */
label0000276C:
0000276C  4A06                     tst.b      D6
0000276E  6700 0470                beq        +0x472 /* 00002BE0 */
00002772  524B                     addq.w     A3, 1
00002774  7000                     moveq.l    D0, 0x00
00002776  1013                     move.b     D0, [A3]
00002778  0C40 0031                cmpi.w     D0, 0x31 /* '1' */
0000277C  6600 0160                bne        +0x162 /* 000028DE */
00002780  7000                     moveq.l    D0, 0x00
00002782  2F00                     move.l     -[A7], D0
00002784  206E 0010                movea.l    A0, [A6 + 0x10]
00002788  2248                     movea.l    A1, A0
0000278A  3228 0006                move.w     D1, [A0 + 0x6]
0000278E  9269 0002                sub.w      D1, [A1 + 0x2]
00002792  48C1                     ext.l      D1
00002794  2F01                     move.l     -[A7], D1
00002796  2F0C                     move.l     -[A7], A4
00002798  2F00                     move.l     -[A7], D0
0000279A  2F00                     move.l     -[A7], D0
0000279C  4EAD 18CA                jsr        [A5 + 0x18CA /* export_789, CODE:33 @ 00000000 */]
000027A0  2D40 FFF8                move.l     [A6 - 0x8], D0
000027A4  206E 0010                movea.l    A0, [A6 + 0x10]
000027A8  3010                     move.w     D0, [A0]
000027AA  5540                     subq.w     D0, 2
000027AC  206E FFF8                movea.l    A0, [A6 - 0x8]
000027B0  9068 0096                sub.w      D0, [A0 + 0x96]
000027B4  48C0                     ext.l      D0
000027B6  2F00                     move.l     -[A7], D0
000027B8  206E 0010                movea.l    A0, [A6 + 0x10]
000027BC  226E FFF8                movea.l    A1, [A6 - 0x8]
000027C0  3028 0002                move.w     D0, [A0 + 0x2]
000027C4  9069 0098                sub.w      D0, [A1 + 0x98]
000027C8  48C0                     ext.l      D0
000027CA  2F00                     move.l     -[A7], D0
000027CC  226E FFF8                movea.l    A1, [A6 - 0x8]
000027D0  43E9 0086                lea.l      A1, [A1 + 0x86]
000027D4  2049                     movea.l    A0, A1
000027D6  226E FFF8                movea.l    A1, [A6 - 0x8]
000027DA  2269 008E                movea.l    A1, [A1 + 0x8E]
000027DE  D0E9 0040                add.w      A0, [A1 + 0x40]
000027E2  2F08                     move.l     -[A7], A0
000027E4  206E FFF8                movea.l    A0, [A6 - 0x8]
000027E8  2068 008E                movea.l    A0, [A0 + 0x8E]
000027EC  2268 0044                movea.l    A1, [A0 + 0x44]
000027F0  4E91                     jsr        [A1]
000027F2  41ED EF32                lea.l      A0, [A5 - 0x10CE]
000027F6  43EE FEE4                lea.l      A1, [A6 - 0x11C]
000027FA  22D8                     move.l     [A1]+, [A0]+
000027FC  22D8                     move.l     [A1]+, [A0]+
000027FE  206E FFF8                movea.l    A0, [A6 - 0x8]
00002802  43EE FEE4                lea.l      A1, [A6 - 0x11C]
00002806  45E8 0112                lea.l      A2, [A0 + 0x112]
0000280A  24D9                     move.l     [A2]+, [A1]+
0000280C  24D9                     move.l     [A2]+, [A1]+
0000280E  4AAE FFF8                tst.l      [A6 - 0x8]
00002812  670C                     beq        +0xE /* 00002820 */
00002814  202E FFF8                move.l     D0, [A6 - 0x8]
00002818  D0BC 0000 0086           add.l      D0, 0x86
0000281E  6002                     bra        +0x4 /* 00002822 */
label00002820:
00002820  7000                     moveq.l    D0, 0x00
label00002822:
00002822  2F00                     move.l     -[A7], D0
00002824  2F0C                     move.l     -[A7], A4
00002826  4EBA 0AB2                jsr        [PC + 0xAB2 /* 000032DA */]
0000282A  7000                     moveq.l    D0, 0x00
0000282C  2F00                     move.l     -[A7], D0
0000282E  206E 0010                movea.l    A0, [A6 + 0x10]
00002832  2248                     movea.l    A1, A0
00002834  3228 0006                move.w     D1, [A0 + 0x6]
00002838  9269 0002                sub.w      D1, [A1 + 0x2]
0000283C  48C1                     ext.l      D1
0000283E  2F01                     move.l     -[A7], D1
00002840  2F0C                     move.l     -[A7], A4
00002842  2F00                     move.l     -[A7], D0
00002844  2F00                     move.l     -[A7], D0
00002846  4EAD 18CA                jsr        [A5 + 0x18CA /* export_789, CODE:33 @ 00000000 */]
0000284A  2D40 FFF8                move.l     [A6 - 0x8], D0
0000284E  206E 0010                movea.l    A0, [A6 + 0x10]
00002852  3028 0004                move.w     D0, [A0 + 0x4]
00002856  5440                     addq.w     D0, 2
00002858  206E FFF8                movea.l    A0, [A6 - 0x8]
0000285C  9068 0096                sub.w      D0, [A0 + 0x96]
00002860  48C0                     ext.l      D0
00002862  2F00                     move.l     -[A7], D0
00002864  206E 0010                movea.l    A0, [A6 + 0x10]
00002868  226E FFF8                movea.l    A1, [A6 - 0x8]
0000286C  3028 0002                move.w     D0, [A0 + 0x2]
00002870  9069 0098                sub.w      D0, [A1 + 0x98]
00002874  48C0                     ext.l      D0
00002876  2F00                     move.l     -[A7], D0
00002878  226E FFF8                movea.l    A1, [A6 - 0x8]
0000287C  43E9 0086                lea.l      A1, [A1 + 0x86]
00002880  2049                     movea.l    A0, A1
00002882  226E FFF8                movea.l    A1, [A6 - 0x8]
00002886  2269 008E                movea.l    A1, [A1 + 0x8E]
0000288A  D0E9 0040                add.w      A0, [A1 + 0x40]
0000288E  2F08                     move.l     -[A7], A0
00002890  206E FFF8                movea.l    A0, [A6 - 0x8]
00002894  2068 008E                movea.l    A0, [A0 + 0x8E]
00002898  2268 0044                movea.l    A1, [A0 + 0x44]
0000289C  4E91                     jsr        [A1]
0000289E  41ED EF32                lea.l      A0, [A5 - 0x10CE]
000028A2  43EE FEEC                lea.l      A1, [A6 - 0x114]
000028A6  22D8                     move.l     [A1]+, [A0]+
000028A8  22D8                     move.l     [A1]+, [A0]+
000028AA  206E FFF8                movea.l    A0, [A6 - 0x8]
000028AE  43EE FEEC                lea.l      A1, [A6 - 0x114]
000028B2  45E8 0112                lea.l      A2, [A0 + 0x112]
000028B6  24D9                     move.l     [A2]+, [A1]+
000028B8  24D9                     move.l     [A2]+, [A1]+
000028BA  4AAE FFF8                tst.l      [A6 - 0x8]
000028BE  670C                     beq        +0xE /* 000028CC */
000028C0  202E FFF8                move.l     D0, [A6 - 0x8]
000028C4  D0BC 0000 0086           add.l      D0, 0x86
000028CA  6002                     bra        +0x4 /* 000028CE */
label000028CC:
000028CC  7000                     moveq.l    D0, 0x00
label000028CE:
000028CE  2F00                     move.l     -[A7], D0
000028D0  2F0C                     move.l     -[A7], A4
000028D2  4EBA 0A06                jsr        [PC + 0xA06 /* 000032DA */]
000028D6  4FEF 0050                lea.l      A7, [A7 + 0x50]
000028DA  6000 0304                bra        +0x306 /* 00002BE0 */
label000028DE:
000028DE  7000                     moveq.l    D0, 0x00
000028E0  1013                     move.b     D0, [A3]
000028E2  0C40 0032                cmpi.w     D0, 0x32 /* '2' */
000028E6  6600 02AE                bne        +0x2B0 /* 00002B96 */
000028EA  7000                     moveq.l    D0, 0x00
000028EC  2F00                     move.l     -[A7], D0
000028EE  206E 0010                movea.l    A0, [A6 + 0x10]
000028F2  2248                     movea.l    A1, A0
000028F4  3228 0006                move.w     D1, [A0 + 0x6]
000028F8  9269 0002                sub.w      D1, [A1 + 0x2]
000028FC  48C1                     ext.l      D1
000028FE  2F01                     move.l     -[A7], D1
00002900  2F0C                     move.l     -[A7], A4
00002902  2F00                     move.l     -[A7], D0
00002904  2F00                     move.l     -[A7], D0
00002906  4EAD 18CA                jsr        [A5 + 0x18CA /* export_789, CODE:33 @ 00000000 */]
0000290A  2D40 FFF8                move.l     [A6 - 0x8], D0
0000290E  206E 0010                movea.l    A0, [A6 + 0x10]
00002912  3010                     move.w     D0, [A0]
00002914  5540                     subq.w     D0, 2
00002916  206E FFF8                movea.l    A0, [A6 - 0x8]
0000291A  9068 0096                sub.w      D0, [A0 + 0x96]
0000291E  48C0                     ext.l      D0
00002920  2F00                     move.l     -[A7], D0
00002922  206E 0010                movea.l    A0, [A6 + 0x10]
00002926  226E FFF8                movea.l    A1, [A6 - 0x8]
0000292A  3028 0002                move.w     D0, [A0 + 0x2]
0000292E  9069 0098                sub.w      D0, [A1 + 0x98]
00002932  48C0                     ext.l      D0
00002934  2F00                     move.l     -[A7], D0
00002936  226E FFF8                movea.l    A1, [A6 - 0x8]
0000293A  43E9 0086                lea.l      A1, [A1 + 0x86]
0000293E  2049                     movea.l    A0, A1
00002940  226E FFF8                movea.l    A1, [A6 - 0x8]
00002944  2269 008E                movea.l    A1, [A1 + 0x8E]
00002948  D0E9 0040                add.w      A0, [A1 + 0x40]
0000294C  2F08                     move.l     -[A7], A0
0000294E  206E FFF8                movea.l    A0, [A6 - 0x8]
00002952  2068 008E                movea.l    A0, [A0 + 0x8E]
00002956  2268 0044                movea.l    A1, [A0 + 0x44]
0000295A  4E91                     jsr        [A1]
0000295C  41ED EF32                lea.l      A0, [A5 - 0x10CE]
00002960  43EE FED4                lea.l      A1, [A6 - 0x12C]
00002964  22D8                     move.l     [A1]+, [A0]+
00002966  22D8                     move.l     [A1]+, [A0]+
00002968  206E FFF8                movea.l    A0, [A6 - 0x8]
0000296C  43EE FED4                lea.l      A1, [A6 - 0x12C]
00002970  45E8 0112                lea.l      A2, [A0 + 0x112]
00002974  24D9                     move.l     [A2]+, [A1]+
00002976  24D9                     move.l     [A2]+, [A1]+
00002978  4AAE FFF8                tst.l      [A6 - 0x8]
0000297C  670C                     beq        +0xE /* 0000298A */
0000297E  202E FFF8                move.l     D0, [A6 - 0x8]
00002982  D0BC 0000 0086           add.l      D0, 0x86
00002988  6002                     bra        +0x4 /* 0000298C */
label0000298A:
0000298A  7000                     moveq.l    D0, 0x00
label0000298C:
0000298C  2F00                     move.l     -[A7], D0
0000298E  2F0C                     move.l     -[A7], A4
00002990  4EBA 0948                jsr        [PC + 0x948 /* 000032DA */]
00002994  7000                     moveq.l    D0, 0x00
00002996  2F00                     move.l     -[A7], D0
00002998  206E 0010                movea.l    A0, [A6 + 0x10]
0000299C  2248                     movea.l    A1, A0
0000299E  3228 0006                move.w     D1, [A0 + 0x6]
000029A2  9269 0002                sub.w      D1, [A1 + 0x2]
000029A6  48C1                     ext.l      D1
000029A8  2F01                     move.l     -[A7], D1
000029AA  2F0C                     move.l     -[A7], A4
000029AC  2F00                     move.l     -[A7], D0
000029AE  2F00                     move.l     -[A7], D0
000029B0  4EAD 18CA                jsr        [A5 + 0x18CA /* export_789, CODE:33 @ 00000000 */]
000029B4  2D40 FFF8                move.l     [A6 - 0x8], D0
000029B8  206E 0010                movea.l    A0, [A6 + 0x10]
000029BC  3028 0004                move.w     D0, [A0 + 0x4]
000029C0  5440                     addq.w     D0, 2
000029C2  206E FFF8                movea.l    A0, [A6 - 0x8]
000029C6  9068 0096                sub.w      D0, [A0 + 0x96]
000029CA  48C0                     ext.l      D0
000029CC  2F00                     move.l     -[A7], D0
000029CE  206E 0010                movea.l    A0, [A6 + 0x10]
000029D2  226E FFF8                movea.l    A1, [A6 - 0x8]
000029D6  3028 0002                move.w     D0, [A0 + 0x2]
000029DA  9069 0098                sub.w      D0, [A1 + 0x98]
000029DE  48C0                     ext.l      D0
000029E0  2F00                     move.l     -[A7], D0
000029E2  226E FFF8                movea.l    A1, [A6 - 0x8]
000029E6  43E9 0086                lea.l      A1, [A1 + 0x86]
000029EA  2049                     movea.l    A0, A1
000029EC  226E FFF8                movea.l    A1, [A6 - 0x8]
000029F0  2269 008E                movea.l    A1, [A1 + 0x8E]
000029F4  D0E9 0040                add.w      A0, [A1 + 0x40]
000029F8  2F08                     move.l     -[A7], A0
000029FA  206E FFF8                movea.l    A0, [A6 - 0x8]
000029FE  2068 008E                movea.l    A0, [A0 + 0x8E]
00002A02  2268 0044                movea.l    A1, [A0 + 0x44]
00002A06  4E91                     jsr        [A1]
00002A08  41ED EF32                lea.l      A0, [A5 - 0x10CE]
00002A0C  43EE FEDC                lea.l      A1, [A6 - 0x124]
00002A10  22D8                     move.l     [A1]+, [A0]+
00002A12  22D8                     move.l     [A1]+, [A0]+
00002A14  206E FFF8                movea.l    A0, [A6 - 0x8]
00002A18  43EE FEDC                lea.l      A1, [A6 - 0x124]
00002A1C  45E8 0112                lea.l      A2, [A0 + 0x112]
00002A20  24D9                     move.l     [A2]+, [A1]+
00002A22  24D9                     move.l     [A2]+, [A1]+
00002A24  4AAE FFF8                tst.l      [A6 - 0x8]
00002A28  670C                     beq        +0xE /* 00002A36 */
00002A2A  202E FFF8                move.l     D0, [A6 - 0x8]
00002A2E  D0BC 0000 0086           add.l      D0, 0x86
00002A34  6002                     bra        +0x4 /* 00002A38 */
label00002A36:
00002A36  7000                     moveq.l    D0, 0x00
label00002A38:
00002A38  2F00                     move.l     -[A7], D0
00002A3A  2F0C                     move.l     -[A7], A4
00002A3C  4EBA 089C                jsr        [PC + 0x89C /* 000032DA */]
00002A40  206E 0010                movea.l    A0, [A6 + 0x10]
00002A44  2248                     movea.l    A1, A0
00002A46  3028 0004                move.w     D0, [A0 + 0x4]
00002A4A  9051                     sub.w      D0, [A1]
00002A4C  48C0                     ext.l      D0
00002A4E  2F00                     move.l     -[A7], D0
00002A50  7000                     moveq.l    D0, 0x00
00002A52  2F00                     move.l     -[A7], D0
00002A54  2F0C                     move.l     -[A7], A4
00002A56  2F00                     move.l     -[A7], D0
00002A58  2F00                     move.l     -[A7], D0
00002A5A  4EAD 18CA                jsr        [A5 + 0x18CA /* export_789, CODE:33 @ 00000000 */]
00002A5E  2D40 FFF8                move.l     [A6 - 0x8], D0
00002A62  206E 0010                movea.l    A0, [A6 + 0x10]
00002A66  226E FFF8                movea.l    A1, [A6 - 0x8]
00002A6A  3010                     move.w     D0, [A0]
00002A6C  9069 0096                sub.w      D0, [A1 + 0x96]
00002A70  48C0                     ext.l      D0
00002A72  2F00                     move.l     -[A7], D0
00002A74  206E 0010                movea.l    A0, [A6 + 0x10]
00002A78  3028 0002                move.w     D0, [A0 + 0x2]
00002A7C  5540                     subq.w     D0, 2
00002A7E  206E FFF8                movea.l    A0, [A6 - 0x8]
00002A82  9068 0098                sub.w      D0, [A0 + 0x98]
00002A86  48C0                     ext.l      D0
00002A88  2F00                     move.l     -[A7], D0
00002A8A  226E FFF8                movea.l    A1, [A6 - 0x8]
00002A8E  43E9 0086                lea.l      A1, [A1 + 0x86]
00002A92  2049                     movea.l    A0, A1
00002A94  226E FFF8                movea.l    A1, [A6 - 0x8]
00002A98  2269 008E                movea.l    A1, [A1 + 0x8E]
00002A9C  D0E9 0040                add.w      A0, [A1 + 0x40]
00002AA0  2F08                     move.l     -[A7], A0
00002AA2  206E FFF8                movea.l    A0, [A6 - 0x8]
00002AA6  2068 008E                movea.l    A0, [A0 + 0x8E]
00002AAA  2268 0044                movea.l    A1, [A0 + 0x44]
00002AAE  4E91                     jsr        [A1]
00002AB0  41ED EF32                lea.l      A0, [A5 - 0x10CE]
00002AB4  43EE FEE4                lea.l      A1, [A6 - 0x11C]
00002AB8  22D8                     move.l     [A1]+, [A0]+
00002ABA  22D8                     move.l     [A1]+, [A0]+
00002ABC  206E FFF8                movea.l    A0, [A6 - 0x8]
00002AC0  43EE FEE4                lea.l      A1, [A6 - 0x11C]
00002AC4  45E8 0112                lea.l      A2, [A0 + 0x112]
00002AC8  24D9                     move.l     [A2]+, [A1]+
00002ACA  24D9                     move.l     [A2]+, [A1]+
00002ACC  4AAE FFF8                tst.l      [A6 - 0x8]
00002AD0  670C                     beq        +0xE /* 00002ADE */
00002AD2  202E FFF8                move.l     D0, [A6 - 0x8]
00002AD6  D0BC 0000 0086           add.l      D0, 0x86
00002ADC  6002                     bra        +0x4 /* 00002AE0 */
label00002ADE:
00002ADE  7000                     moveq.l    D0, 0x00
label00002AE0:
00002AE0  2F00                     move.l     -[A7], D0
00002AE2  2F0C                     move.l     -[A7], A4
00002AE4  4EBA 07F4                jsr        [PC + 0x7F4 /* 000032DA */]
00002AE8  206E 0010                movea.l    A0, [A6 + 0x10]
00002AEC  2248                     movea.l    A1, A0
00002AEE  3028 0004                move.w     D0, [A0 + 0x4]
00002AF2  9051                     sub.w      D0, [A1]
00002AF4  48C0                     ext.l      D0
00002AF6  2F00                     move.l     -[A7], D0
00002AF8  7000                     moveq.l    D0, 0x00
00002AFA  2F00                     move.l     -[A7], D0
00002AFC  2F0C                     move.l     -[A7], A4
00002AFE  2F00                     move.l     -[A7], D0
00002B00  2F00                     move.l     -[A7], D0
00002B02  4EAD 18CA                jsr        [A5 + 0x18CA /* export_789, CODE:33 @ 00000000 */]
00002B06  2D40 FFF8                move.l     [A6 - 0x8], D0
00002B0A  206E 0010                movea.l    A0, [A6 + 0x10]
00002B0E  226E FFF8                movea.l    A1, [A6 - 0x8]
00002B12  3010                     move.w     D0, [A0]
00002B14  9069 0096                sub.w      D0, [A1 + 0x96]
00002B18  48C0                     ext.l      D0
00002B1A  2F00                     move.l     -[A7], D0
00002B1C  206E 0010                movea.l    A0, [A6 + 0x10]
00002B20  3028 0006                move.w     D0, [A0 + 0x6]
00002B24  5440                     addq.w     D0, 2
00002B26  206E FFF8                movea.l    A0, [A6 - 0x8]
00002B2A  9068 0098                sub.w      D0, [A0 + 0x98]
00002B2E  48C0                     ext.l      D0
00002B30  2F00                     move.l     -[A7], D0
00002B32  226E FFF8                movea.l    A1, [A6 - 0x8]
00002B36  43E9 0086                lea.l      A1, [A1 + 0x86]
00002B3A  2049                     movea.l    A0, A1
00002B3C  226E FFF8                movea.l    A1, [A6 - 0x8]
00002B40  2269 008E                movea.l    A1, [A1 + 0x8E]
00002B44  D0E9 0040                add.w      A0, [A1 + 0x40]
00002B48  2F08                     move.l     -[A7], A0
00002B4A  206E FFF8                movea.l    A0, [A6 - 0x8]
00002B4E  2068 008E                movea.l    A0, [A0 + 0x8E]
00002B52  2268 0044                movea.l    A1, [A0 + 0x44]
00002B56  4E91                     jsr        [A1]
00002B58  41ED EF32                lea.l      A0, [A5 - 0x10CE]
00002B5C  43EE FEEC                lea.l      A1, [A6 - 0x114]
00002B60  22D8                     move.l     [A1]+, [A0]+
00002B62  22D8                     move.l     [A1]+, [A0]+
00002B64  206E FFF8                movea.l    A0, [A6 - 0x8]
00002B68  43EE FEEC                lea.l      A1, [A6 - 0x114]
00002B6C  45E8 0112                lea.l      A2, [A0 + 0x112]
00002B70  24D9                     move.l     [A2]+, [A1]+
00002B72  24D9                     move.l     [A2]+, [A1]+
00002B74  4AAE FFF8                tst.l      [A6 - 0x8]
00002B78  670C                     beq        +0xE /* 00002B86 */
00002B7A  202E FFF8                move.l     D0, [A6 - 0x8]
00002B7E  D0BC 0000 0086           add.l      D0, 0x86
00002B84  6002                     bra        +0x4 /* 00002B88 */
label00002B86:
00002B86  7000                     moveq.l    D0, 0x00
label00002B88:
00002B88  2F00                     move.l     -[A7], D0
00002B8A  2F0C                     move.l     -[A7], A4
00002B8C  4EBA 074C                jsr        [PC + 0x74C /* 000032DA */]
00002B90  4FEF 00A0                lea.l      A7, [A7 + 0xA0]
00002B94  604A                     bra        +0x4C /* 00002BE0 */
label00002B96:
00002B96  7000                     moveq.l    D0, 0x00
00002B98  1013                     move.b     D0, [A3]
00002B9A  0C40 0033                cmpi.w     D0, 0x33 /* '3' */
00002B9E  6640                     bne        +0x42 /* 00002BE0 */
00002BA0  48C5                     ext.l      D5
00002BA2  2F05                     move.l     -[A7], D5
00002BA4  48C4                     ext.l      D4
00002BA6  2F04                     move.l     -[A7], D4
00002BA8  486E FEF4                pea.l      [A6 - 0x10C]
00002BAC  2F2E 0010                move.l     -[A7], [A6 + 0x10]
00002BB0  2F0C                     move.l     -[A7], A4
00002BB2  2F0C                     move.l     -[A7], A4
00002BB4  7000                     moveq.l    D0, 0x00
00002BB6  2F00                     move.l     -[A7], D0
00002BB8  2F00                     move.l     -[A7], D0
00002BBA  4EAD 1A6A                jsr        [A5 + 0x1A6A /* export_841, CODE:34 @ 00001690 */]
00002BBE  2640                     movea.l    A3, D0
00002BC0  200B                     move.l     D0, A3
00002BC2  4FEF 0020                lea.l      A7, [A7 + 0x20]
00002BC6  670A                     beq        +0xC /* 00002BD2 */
00002BC8  200B                     move.l     D0, A3
00002BCA  D0BC 0000 0080           add.l      D0, 0x80
00002BD0  6002                     bra        +0x4 /* 00002BD4 */
label00002BD2:
00002BD2  7000                     moveq.l    D0, 0x00
label00002BD4:
00002BD4  2F00                     move.l     -[A7], D0
00002BD6  2F0C                     move.l     -[A7], A4
00002BD8  4EBA 0700                jsr        [PC + 0x700 /* 000032DA */]
00002BDC  504F                     addq.w     A7, 8
00002BDE  604E                     bra        +0x50 /* 00002C2E */
label00002BE0:
00002BE0  302E FFF6                move.w     D0, [A6 - 0xA]
00002BE4  48C0                     ext.l      D0
00002BE6  2F00                     move.l     -[A7], D0
00002BE8  302E FFF4                move.w     D0, [A6 - 0xC]
00002BEC  48C0                     ext.l      D0
00002BEE  2F00                     move.l     -[A7], D0
00002BF0  48C5                     ext.l      D5
00002BF2  2F05                     move.l     -[A7], D5
00002BF4  48C4                     ext.l      D4
00002BF6  2F04                     move.l     -[A7], D4
00002BF8  486E FEF4                pea.l      [A6 - 0x10C]
00002BFC  2F2E 0010                move.l     -[A7], [A6 + 0x10]
00002C00  2F0C                     move.l     -[A7], A4
00002C02  2F0C                     move.l     -[A7], A4
00002C04  7000                     moveq.l    D0, 0x00
00002C06  2F00                     move.l     -[A7], D0
00002C08  2F00                     move.l     -[A7], D0
00002C0A  4EAD 1A22                jsr        [A5 + 0x1A22 /* export_832, CODE:34 @ 00000ED0 */]
00002C0E  2640                     movea.l    A3, D0
00002C10  200B                     move.l     D0, A3
00002C12  4FEF 0028                lea.l      A7, [A7 + 0x28]
00002C16  670A                     beq        +0xC /* 00002C22 */
00002C18  200B                     move.l     D0, A3
00002C1A  D0BC 0000 0080           add.l      D0, 0x80
00002C20  6002                     bra        +0x4 /* 00002C24 */
label00002C22:
00002C22  7000                     moveq.l    D0, 0x00
label00002C24:
00002C24  2F00                     move.l     -[A7], D0
00002C26  2F0C                     move.l     -[A7], A4
00002C28  4EBA 06B0                jsr        [PC + 0x6B0 /* 000032DA */]
00002C2C  504F                     addq.w     A7, 8
label00002C2E:
00002C2E  4CEE 1CF0 FEB8           movem.l    D4,D5,D6,D7,A2,A3,A4, [A6 - 0x148]
00002C34  4E5E                     unlink     A6
00002C36  4E75                     rts
00002C38  8022 4E65 7753 7461 7... dc.b       "NewStaticText__7cWindowFsR4RectPUc"
export_560:
00002C5E  4E56 FFF8                link       A6, -0x0008
00002C62  48E7 0018                movem.l    -[A7], A3,A4
00002C66  286E 0008                movea.l    A4, [A6 + 0x8]
00002C6A  206E 0010                movea.l    A0, [A6 + 0x10]
00002C6E  43EE FFF8                lea.l      A1, [A6 - 0x8]
00002C72  22D8                     move.l     [A1]+, [A0]+
00002C74  22D8                     move.l     [A1]+, [A0]+
00002C76  486E FFF8                pea.l      [A6 - 0x8]
00002C7A  70FD                     moveq.l    D0, 0xFFFFFFFD
00002C7C  3F00                     move.w     -[A7], D0
00002C7E  3F00                     move.w     -[A7], D0
00002C80  A8A9                     syscall    InsetRect
00002C82  7000                     moveq.l    D0, 0x00
00002C84  2F00                     move.l     -[A7], D0
00002C86  7209                     moveq.l    D1, 0x09
00002C88  2F01                     move.l     -[A7], D1
00002C8A  7003                     moveq.l    D0, 0x03
00002C8C  2F00                     move.l     -[A7], D0
00002C8E  2F2E 0014                move.l     -[A7], [A6 + 0x14]
00002C92  7001                     moveq.l    D0, 0x01
00002C94  2F00                     move.l     -[A7], D0
00002C96  486E FFF8                pea.l      [A6 - 0x8]
00002C9A  2F0C                     move.l     -[A7], A4
00002C9C  2F0C                     move.l     -[A7], A4
00002C9E  7000                     moveq.l    D0, 0x00
00002CA0  2F00                     move.l     -[A7], D0
00002CA2  2F00                     move.l     -[A7], D0
00002CA4  4EAD 1DEA                jsr        [A5 + 0x1DEA /* export_953, CODE:37 @ 00000000 */]
00002CA8  2640                     movea.l    A3, D0
00002CAA  200B                     move.l     D0, A3
00002CAC  670A                     beq        +0xC /* 00002CB8 */
00002CAE  200B                     move.l     D0, A3
00002CB0  D0BC 0000 0080           add.l      D0, 0x80
00002CB6  6002                     bra        +0x4 /* 00002CBA */
label00002CB8:
00002CB8  7000                     moveq.l    D0, 0x00
label00002CBA:
00002CBA  2F00                     move.l     -[A7], D0
00002CBC  2F0C                     move.l     -[A7], A4
00002CBE  4EBA 061A                jsr        [PC + 0x61A /* 000032DA */]
00002CC2  4AAC 0112                tst.l      [A4 + 0x112]
00002CC6  4FEF 0030                lea.l      A7, [A7 + 0x30]
00002CCA  6604                     bne        +0x6 /* 00002CD0 */
00002CCC  294B 0112                move.l     [A4 + 0x112], A3
label00002CD0:
00002CD0  4CEE 1800 FFF0           movem.l    A3,A4, [A6 - 0x10]
00002CD6  4E5E                     unlink     A6
00002CD8  4E75                     rts
00002CDA  8020 4E65 7745 6469 7... dc.b       "NewEditText__7cWindowFsR4RectPUc"
export_561:
00002CFE  4E56 0000                link       A6, 0
00002D02  48E7 0018                movem.l    -[A7], A3,A4
00002D06  286E 0008                movea.l    A4, [A6 + 0x8]
00002D0A  7000                     moveq.l    D0, 0x00
00002D0C  2F00                     move.l     -[A7], D0
00002D0E  2F00                     move.l     -[A7], D0
00002D10  720C                     moveq.l    D1, 0x0C
00002D12  2F01                     move.l     -[A7], D1
00002D14  2F00                     move.l     -[A7], D0
00002D16  342E 0016                move.w     D2, [A6 + 0x16]
00002D1A  48C2                     ext.l      D2
00002D1C  2F02                     move.l     -[A7], D2
00002D1E  2F00                     move.l     -[A7], D0
00002D20  2F2E 0010                move.l     -[A7], [A6 + 0x10]
00002D24  2F0C                     move.l     -[A7], A4
00002D26  2F0C                     move.l     -[A7], A4
00002D28  2F00                     move.l     -[A7], D0
00002D2A  2F00                     move.l     -[A7], D0
00002D2C  4EAD 1FEA                jsr        [A5 + 0x1FEA /* export_1017, CODE:37 @ 00002308 */]
00002D30  2640                     movea.l    A3, D0
00002D32  200B                     move.l     D0, A3
00002D34  4FEF 002C                lea.l      A7, [A7 + 0x2C]
00002D38  670A                     beq        +0xC /* 00002D44 */
00002D3A  200B                     move.l     D0, A3
00002D3C  D0BC 0000 0080           add.l      D0, 0x80
00002D42  6002                     bra        +0x4 /* 00002D46 */
label00002D44:
00002D44  7000                     moveq.l    D0, 0x00
label00002D46:
00002D46  2F00                     move.l     -[A7], D0
00002D48  2F0C                     move.l     -[A7], A4
00002D4A  4EBA 058E                jsr        [PC + 0x58E /* 000032DA */]
00002D4E  504F                     addq.w     A7, 8
00002D50  4CEE 1800 FFF8           movem.l    A3,A4, [A6 - 0x8]
00002D56  4E5E                     unlink     A6
00002D58  4E75                     rts
00002D5A  9E4E 6577 436F 6E74 7... dc.b       "NewControl__7cWindowFsR4RectT1"
export_562:
00002D7C  4E56 0000                link       A6, 0
00002D80  48E7 0018                movem.l    -[A7], A3,A4
00002D84  286E 0008                movea.l    A4, [A6 + 0x8]
00002D88  2F2E 0010                move.l     -[A7], [A6 + 0x10]
00002D8C  2F0C                     move.l     -[A7], A4
00002D8E  2F0C                     move.l     -[A7], A4
00002D90  7000                     moveq.l    D0, 0x00
00002D92  2F00                     move.l     -[A7], D0
00002D94  2F00                     move.l     -[A7], D0
00002D96  4EAD 1FBA                jsr        [A5 + 0x1FBA /* export_1011, CODE:37 @ 00001C8E */]
00002D9A  2640                     movea.l    A3, D0
00002D9C  200B                     move.l     D0, A3
00002D9E  4FEF 0014                lea.l      A7, [A7 + 0x14]
00002DA2  670A                     beq        +0xC /* 00002DAE */
00002DA4  200B                     move.l     D0, A3
00002DA6  D0BC 0000 0080           add.l      D0, 0x80
00002DAC  6002                     bra        +0x4 /* 00002DB0 */
label00002DAE:
00002DAE  7000                     moveq.l    D0, 0x00
label00002DB0:
00002DB0  2F00                     move.l     -[A7], D0
00002DB2  2F0C                     move.l     -[A7], A4
00002DB4  4EBA 0524                jsr        [PC + 0x524 /* 000032DA */]
00002DB8  504F                     addq.w     A7, 8
00002DBA  4CEE 1800 FFF8           movem.l    A3,A4, [A6 - 0x8]
00002DC0  4E5E                     unlink     A6
00002DC2  4E75                     rts
00002DC4  9D4E 6577 5573 6572 4... dc.b       "NewUserItem__7cWindowFsR4Rect"
export_563:
00002DE4  4E56 0000                link       A6, 0
00002DE8  48E7 0018                movem.l    -[A7], A3,A4
00002DEC  286E 0008                movea.l    A4, [A6 + 0x8]
00002DF0  302E 0016                move.w     D0, [A6 + 0x16]
00002DF4  48C0                     ext.l      D0
00002DF6  2F00                     move.l     -[A7], D0
00002DF8  2F0C                     move.l     -[A7], A4
00002DFA  7000                     moveq.l    D0, 0x00
00002DFC  2F00                     move.l     -[A7], D0
00002DFE  2F00                     move.l     -[A7], D0
00002E00  4EAD 1982                jsr        [A5 + 0x1982 /* export_812, CODE:33 @ 0000205A */]
00002E04  2640                     movea.l    A3, D0
00002E06  200B                     move.l     D0, A3
00002E08  4FEF 0010                lea.l      A7, [A7 + 0x10]
00002E0C  6752                     beq        +0x54 /* 00002E60 */
00002E0E  200B                     move.l     D0, A3
00002E10  670A                     beq        +0xC /* 00002E1C */
00002E12  200B                     move.l     D0, A3
00002E14  D0BC 0000 0086           add.l      D0, 0x86
00002E1A  6002                     bra        +0x4 /* 00002E1E */
label00002E1C:
00002E1C  7000                     moveq.l    D0, 0x00
label00002E1E:
00002E1E  2F00                     move.l     -[A7], D0
00002E20  2F0C                     move.l     -[A7], A4
00002E22  4EBA 04B6                jsr        [PC + 0x4B6 /* 000032DA */]
00002E26  206E 0010                movea.l    A0, [A6 + 0x10]
00002E2A  3010                     move.w     D0, [A0]
00002E2C  906B 0096                sub.w      D0, [A3 + 0x96]
00002E30  48C0                     ext.l      D0
00002E32  2F00                     move.l     -[A7], D0
00002E34  206E 0010                movea.l    A0, [A6 + 0x10]
00002E38  3028 0002                move.w     D0, [A0 + 0x2]
00002E3C  906B 0098                sub.w      D0, [A3 + 0x98]
00002E40  48C0                     ext.l      D0
00002E42  2F00                     move.l     -[A7], D0
00002E44  43EB 0086                lea.l      A1, [A3 + 0x86]
00002E48  2049                     movea.l    A0, A1
00002E4A  226B 008E                movea.l    A1, [A3 + 0x8E]
00002E4E  D0E9 0040                add.w      A0, [A1 + 0x40]
00002E52  2F08                     move.l     -[A7], A0
00002E54  2049                     movea.l    A0, A1
00002E56  2268 0044                movea.l    A1, [A0 + 0x44]
00002E5A  4E91                     jsr        [A1]
00002E5C  4FEF 0014                lea.l      A7, [A7 + 0x14]
label00002E60:
00002E60  4CEE 1800 FFF8           movem.l    A3,A4, [A6 - 0x8]
00002E66  4E5E                     unlink     A6
00002E68  4E75                     rts
00002E6A  9E4E 6577 5069 6374 7... dc.b       "NewPicture__7cWindowFsR4RectT1"
export_564:
00002E8C  4E56 0000                link       A6, 0
00002E90  48E7 0018                movem.l    -[A7], A3,A4
00002E94  286E 0008                movea.l    A4, [A6 + 0x8]
00002E98  7001                     moveq.l    D0, 0x01
00002E9A  2F00                     move.l     -[A7], D0
00002E9C  322E 0016                move.w     D1, [A6 + 0x16]
00002EA0  48C1                     ext.l      D1
00002EA2  2F01                     move.l     -[A7], D1
00002EA4  2F2E 0010                move.l     -[A7], [A6 + 0x10]
00002EA8  2F0C                     move.l     -[A7], A4
00002EAA  2F0C                     move.l     -[A7], A4
00002EAC  7200                     moveq.l    D1, 0x00
00002EAE  2F01                     move.l     -[A7], D1
00002EB0  2F01                     move.l     -[A7], D1
00002EB2  4EAD 1F82                jsr        [A5 + 0x1F82 /* export_1004, CODE:37 @ 00001652 */]
00002EB6  2640                     movea.l    A3, D0
00002EB8  200B                     move.l     D0, A3
00002EBA  4FEF 001C                lea.l      A7, [A7 + 0x1C]
00002EBE  670A                     beq        +0xC /* 00002ECA */
00002EC0  200B                     move.l     D0, A3
00002EC2  D0BC 0000 0080           add.l      D0, 0x80
00002EC8  6002                     bra        +0x4 /* 00002ECC */
label00002ECA:
00002ECA  7000                     moveq.l    D0, 0x00
label00002ECC:
00002ECC  2F00                     move.l     -[A7], D0
00002ECE  2F0C                     move.l     -[A7], A4
00002ED0  4EBA 0408                jsr        [PC + 0x408 /* 000032DA */]
00002ED4  504F                     addq.w     A7, 8
00002ED6  4CEE 1800 FFF8           movem.l    A3,A4, [A6 - 0x8]
00002EDC  4E5E                     unlink     A6
00002EDE  4E75                     rts
00002EE0  9B4E 6577 4963 6F6E 5... dc.b       "NewIcon__7cWindowFsR4RectT1"
fn00002EFE:
00002EFE  4E56 FFFC                link       A6, -0x0004
00002F02  2F07                     move.l     -[A7], D7
00002F04  4207                     clr.b      D7
00002F06  4EAD 20E2                jsr        [A5 + 0x20E2 /* export_1048, CODE:39 @ 000002AA */]
00002F0A  4AAD F858                tst.l      [A5 - 0x7A8]
00002F0E  674E                     beq        +0x50 /* 00002F5E */
00002F10  558F                     subq.l     A7, 2
00002F12  2F2D F858                move.l     -[A7], [A5 - 0x7A8]
00002F16  2F3C 2A04 0484           move.l     -[A7], 0x2A040484
00002F1C  A8FD                     syscall    PrGlue
00002F1E  4A1F                     tst.b      [A7]+
00002F20  6738                     beq        +0x3A /* 00002F5A */
00002F22  42AE FFFC                clr.l      [A6 - 0x4]
00002F26  4A2D F822                tst.b      [A5 - 0x7DE]
00002F2A  670A                     beq        +0xC /* 00002F36 */
00002F2C  486E FFFC                pea.l      [A6 - 0x4]
00002F30  4EAD 20F2                jsr        [A5 + 0x20F2 /* export_1050, CODE:39 @ 000005CE */]
00002F34  584F                     addq.w     A7, 4
label00002F36:
00002F36  486E FFFC                pea.l      [A6 - 0x4]
00002F3A  4EAD 20FA                jsr        [A5 + 0x20FA /* export_1051, CODE:39 @ 000006AA */]
00002F3E  486D F82E                pea.l      [A5 - 0x7D2]
00002F42  4EAD 2102                jsr        [A5 + 0x2102 /* export_1052, CODE:39 @ 00000712 */]
00002F46  486D F826                pea.l      [A5 - 0x7DA]
00002F4A  4EAD 210A                jsr        [A5 + 0x210A /* export_1053, CODE:39 @ 00000768 */]
00002F4E  7E01                     moveq.l    D7, 0x01
00002F50  1B7C 0001 F112           move.b     [A5 - 0xEEE], 0x1
00002F56  4FEF 000C                lea.l      A7, [A7 + 0xC]
label00002F5A:
00002F5A  4EAD 20EA                jsr        [A5 + 0x20EA /* export_1049, CODE:39 @ 000002FE */]
label00002F5E:
00002F5E  1007                     move.b     D0, D7
00002F60  2E2E FFF8                move.l     D7, [A6 - 0x8]
00002F64  4E5E                     unlink     A6
00002F66  4E75                     rts
00002F68  9650 6167 6553 6574 7... dc.b       "PageSetup__7cWindowSFv"
export_565:
00002F82  4E56 0000                link       A6, 0
00002F86  2F0C                     move.l     -[A7], A4
00002F88  286E 0008                movea.l    A4, [A6 + 0x8]
00002F8C  598F                     subq.l     A7, 4
00002F8E  3F3C 7918                move.w     -[A7], 0x7918
00002F92  7000                     moveq.l    D0, 0x00
00002F94  2F00                     move.l     -[A7], D0
00002F96  72FF                     moveq.l    D1, 0xFFFFFFFF
00002F98  2F01                     move.l     -[A7], D1
00002F9A  A97C                     syscall    GetNewDialog
00002F9C  295F 00F8                move.l     [A4 + 0xF8], [A7]+
00002FA0  6712                     beq        +0x14 /* 00002FB4 */
00002FA2  2F2C 00F8                move.l     -[A7], [A4 + 0xF8]
00002FA6  A873                     syscall    SetPort
00002FA8  2F2C 00F8                move.l     -[A7], [A4 + 0xF8]
00002FAC  A91F                     syscall    SelectWindow
00002FAE  2F2C 00F8                move.l     -[A7], [A4 + 0xF8]
00002FB2  A981                     syscall    DrawDialog
label00002FB4:
00002FB4  7000                     moveq.l    D0, 0x00
00002FB6  286E FFFC                movea.l    A4, [A6 - 0x4]
00002FBA  4E5E                     unlink     A6
00002FBC  4E75                     rts
00002FBE  8021 4F70 656E 5072 6... dc.b       "OpenPrintStatusDialog__7cWindowFv"
export_566:
00002FE4  4E56 FEF2                link       A6, -0x010E
00002FE8  48E7 0F18                movem.l    -[A7], D4,D5,D6,D7,A3,A4
00002FEC  282E 0010                move.l     D4, [A6 + 0x10]
00002FF0  286E 0008                movea.l    A4, [A6 + 0x8]
00002FF4  4246                     clr.w      D6
00002FF6  7801                     moveq.l    D4, 0x01
00002FF8  486E FEF4                pea.l      [A6 - 0x10C]
00002FFC  4EAD 2102                jsr        [A5 + 0x2102 /* export_1052, CODE:39 @ 00000712 */]
00003000  2F2D F858                move.l     -[A7], [A5 - 0x7A8]
00003004  4EAD 2122                jsr        [A5 + 0x2122 /* export_1056, CODE:39 @ 00000AAA */]
00003008  598F                     subq.l     A7, 4
0000300A  2F2D F858                move.l     -[A7], [A5 - 0x7A8]
0000300E  7000                     moveq.l    D0, 0x00
00003010  2F00                     move.l     -[A7], D0
00003012  2F00                     move.l     -[A7], D0
00003014  2F3C 0400 0C00           move.l     -[A7], 0x4000C00
0000301A  A8FD                     syscall    PrGlue
0000301C  265F                     movea.l    A3, [A7]+
0000301E  3E2E 000E                move.w     D7, [A6 + 0xE]
00003022  504F                     addq.w     A7, 8
00003024  6000 00F8                bra        +0xFA /* 0000311E */
label00003028:
00003028  2F0B                     move.l     -[A7], A3
0000302A  7000                     moveq.l    D0, 0x00
0000302C  2F00                     move.l     -[A7], D0
0000302E  2F3C 1000 0808           move.l     -[A7], 0x10000808
00003034  A8FD                     syscall    PrGlue
00003036  558F                     subq.l     A7, 2
00003038  2F3C BA00 0000           move.l     -[A7], 0xBA000000
0000303E  A8FD                     syscall    PrGlue
00003040  3C1F                     move.w     D6, [A7]+
00003042  6600 00CC                bne        +0xCE /* 00003110 */
00003046  2F0B                     move.l     -[A7], A3
00003048  A873                     syscall    SetPort
0000304A  2F2B 0018                move.l     -[A7], [A3 + 0x18]
0000304E  486E FEF4                pea.l      [A6 - 0x10C]
00003052  A8DF                     syscall    RectRgn
00003054  486E FEF4                pea.l      [A6 - 0x10C]
00003058  A87B                     syscall    ClipRect
0000305A  302E FEFA                move.w     D0, [A6 - 0x106]
0000305E  48C0                     ext.l      D0
00003060  322E FEF6                move.w     D1, [A6 - 0x10A]
00003064  48C1                     ext.l      D1
00003066  9081                     sub.l      D0, D1
00003068  4C7C 0800 0000 0002      divu.l     D2:D0, 0x8000000
00003070  3D40 FEFE                move.w     [A6 - 0x102], D0
00003074  302E FEF8                move.w     D0, [A6 - 0x108]
00003078  48C0                     ext.l      D0
0000307A  322E FEF4                move.w     D1, [A6 - 0x10C]
0000307E  48C1                     ext.l      D1
00003080  9081                     sub.l      D0, D1
00003082  4C7C 0800 0000 0002      divu.l     D2:D0, 0x8000000
0000308A  3D40 FEFC                move.w     [A6 - 0x104], D0
0000308E  7002                     moveq.l    D0, 0x02
00003090  3F00                     move.w     -[A7], D0
00003092  A887                     syscall    TextFont
00003094  7030                     moveq.l    D0, 0x30
00003096  3F00                     move.w     -[A7], D0
00003098  A88A                     syscall    TextSize
0000309A  558F                     subq.l     A7, 2
0000309C  2F2D FCE0                move.l     -[A7], [A5 - 0x320]
000030A0  A88C                     syscall    StringWidth
000030A2  3A1F                     move.w     D5, [A7]+
000030A4  3005                     move.w     D0, D5
000030A6  48C0                     ext.l      D0
000030A8  81FC 0002                divs.w     D0, 0x2
000030AC  322E FEFE                move.w     D1, [A6 - 0x102]
000030B0  9240                     sub.w      D1, D0
000030B2  3F01                     move.w     -[A7], D1
000030B4  3F2E FEFC                move.w     -[A7], [A6 - 0x104]
000030B8  A893                     syscall    MoveTo
000030BA  2F2D FCE0                move.l     -[A7], [A5 - 0x320]
000030BE  A884                     syscall    DrawString
000030C0  703C                     moveq.l    D0, 0x3C
000030C2  3F00                     move.w     -[A7], D0
000030C4  A88A                     syscall    TextSize
000030C6  486E FEF2                pea.l      [A6 - 0x10E]
000030CA  486E FF00                pea.l      [A6 - 0x100]
000030CE  204C                     movea.l    A0, A4
000030D0  226C 0060                movea.l    A1, [A4 + 0x60]
000030D4  D0E9 01A0                add.w      A0, [A1 + 0x1A0]
000030D8  2F08                     move.l     -[A7], A0
000030DA  2049                     movea.l    A0, A1
000030DC  2268 01A4                movea.l    A1, [A0 + 0x1A4]
000030E0  4E91                     jsr        [A1]
000030E2  558F                     subq.l     A7, 2
000030E4  486E FF00                pea.l      [A6 - 0x100]
000030E8  A88C                     syscall    StringWidth
000030EA  301F                     move.w     D0, [A7]+
000030EC  48C0                     ext.l      D0
000030EE  81FC 0002                divs.w     D0, 0x2
000030F2  322E FEFE                move.w     D1, [A6 - 0x102]
000030F6  9240                     sub.w      D1, D0
000030F8  3F01                     move.w     -[A7], D1
000030FA  302E FEFC                move.w     D0, [A6 - 0x104]
000030FE  907C 0078                sub.w      D0, 0x78 /* 'x' */
00003102  3F00                     move.w     -[A7], D0
00003104  A893                     syscall    MoveTo
00003106  486E FF00                pea.l      [A6 - 0x100]
0000310A  A884                     syscall    DrawString
0000310C  4FEF 000C                lea.l      A7, [A7 + 0xC]
label00003110:
00003110  2F0B                     move.l     -[A7], A3
00003112  2F3C 1800 040C           move.l     -[A7], 0x1800040C
00003118  A8FD                     syscall    PrGlue
0000311A  3007                     move.w     D0, D7
0000311C  5247                     addq.w     D7, 1
label0000311E:
0000311E  48C7                     ext.l      D7
00003120  B887                     cmp.l      D4, D7
00003122  6D10                     blt        +0x12 /* 00003134 */
00003124  558F                     subq.l     A7, 2
00003126  2F3C BA00 0000           move.l     -[A7], 0xBA000000
0000312C  A8FD                     syscall    PrGlue
0000312E  3C1F                     move.w     D6, [A7]+
00003130  6700 FEF6                beq        -0x108 /* 00003028 */
label00003134:
00003134  2F0B                     move.l     -[A7], A3
00003136  2F3C 0800 0484           move.l     -[A7], 0x8000484
0000313C  A8FD                     syscall    PrGlue
0000313E  558F                     subq.l     A7, 2
00003140  2F3C BA00 0000           move.l     -[A7], 0xBA000000
00003146  A8FD                     syscall    PrGlue
00003148  3C1F                     move.w     D6, [A7]+
0000314A  663C                     bne        +0x3E /* 00003188 */
0000314C  206D F858                movea.l    A0, [A5 - 0x7A8]
00003150  2050                     movea.l    A0, [A0]
00003152  7001                     moveq.l    D0, 0x01
00003154  B028 0044                cmp.b      D0, [A0 + 0x44]
00003158  662E                     bne        +0x30 /* 00003188 */
0000315A  486D F83E                pea.l      [A5 - 0x7C2]
0000315E  4EAD 213A                jsr        [A5 + 0x213A /* export_1059, CODE:39 @ 00000B56 */]
00003162  2F2D F858                move.l     -[A7], [A5 - 0x7A8]
00003166  7000                     moveq.l    D0, 0x00
00003168  2F00                     move.l     -[A7], D0
0000316A  2F00                     move.l     -[A7], D0
0000316C  2F00                     move.l     -[A7], D0
0000316E  486D F83E                pea.l      [A5 - 0x7C2]
00003172  2F3C 6005 1480           move.l     -[A7], 0x60051480
00003178  A8FD                     syscall    PrGlue
0000317A  558F                     subq.l     A7, 2
0000317C  2F3C BA00 0000           move.l     -[A7], 0xBA000000
00003182  A8FD                     syscall    PrGlue
00003184  3C1F                     move.w     D6, [A7]+
00003186  584F                     addq.w     A7, 4
label00003188:
00003188  3006                     move.w     D0, D6
0000318A  4CEE 18F0 FEDA           movem.l    D4,D5,D6,D7,A3,A4, [A6 - 0x126]
00003190  4E5E                     unlink     A6
00003192  4E75                     rts
00003194  9844 6F50 7269 6E74 4... dc.b       "DoPrintJob__7cWindowFlT1"
export_567:
000031B0  4E56 0000                link       A6, 0
000031B4  2F0C                     move.l     -[A7], A4
000031B6  286E 0008                movea.l    A4, [A6 + 0x8]
000031BA  4AAC 00F8                tst.l      [A4 + 0xF8]
000031BE  670C                     beq        +0xE /* 000031CC */
000031C0  2F2C 00F8                move.l     -[A7], [A4 + 0xF8]
000031C4  A983                     syscall    DisposeDialog
000031C6  7000                     moveq.l    D0, 0x00
000031C8  2940 00F8                move.l     [A4 + 0xF8], D0
label000031CC:
000031CC  286E FFFC                movea.l    A4, [A6 - 0x4]
000031D0  4E5E                     unlink     A6
000031D2  4E75                     rts
000031D4  8022 436C 6F73 6550 7... dc.b       "ClosePrintStatusDialog__7cWindowFv"
export_568:
fn000031FA:
000031FA  4E56 FFFC                link       A6, -0x0004
000031FE  2F0C                     move.l     -[A7], A4
00003200  286E 0008                movea.l    A4, [A6 + 0x8]
00003204  486E FFFC                pea.l      [A6 - 0x4]
00003208  A874                     syscall    GetPort
0000320A  2F2E FFFC                move.l     -[A7], [A6 - 0x4]
0000320E  486C 0116                pea.l      [A4 + 0x116]
00003212  4EAD 1762                jsr        [A5 + 0x1762 /* export_744, CODE:32 @ 00004B1E */]
00003216  4AAC 0162                tst.l      [A4 + 0x162]
0000321A  504F                     addq.w     A7, 8
0000321C  671A                     beq        +0x1C /* 00003238 */
0000321E  4A2C 0166                tst.b      [A4 + 0x166]
00003222  6714                     beq        +0x16 /* 00003238 */
00003224  206C 0162                movea.l    A0, [A4 + 0x162]
00003228  2F28 0018                move.l     -[A7], [A0 + 0x18]
0000322C  A873                     syscall    SetPort
0000322E  206C 0162                movea.l    A0, [A4 + 0x162]
00003232  2028 0018                move.l     D0, [A0 + 0x18]
00003236  600A                     bra        +0xC /* 00003242 */
label00003238:
00003238  2F2C 0084                move.l     -[A7], [A4 + 0x84]
0000323C  A873                     syscall    SetPort
0000323E  202C 0084                move.l     D0, [A4 + 0x84]
label00003242:
00003242  286E FFF8                movea.l    A4, [A6 - 0x8]
00003246  4E5E                     unlink     A6
00003248  4E75                     rts
0000324A  9A53 6574 4472 6177 6... dc.b       "SetDrawingPort__7cWindowFv"
export_569:
fn00003268:
00003268  4E56 0000                link       A6, 0
0000326C  48E7 0018                movem.l    -[A7], A3,A4
00003270  286E 0008                movea.l    A4, [A6 + 0x8]
00003274  0CAD 0000 0200 F29A      cmpi.l     [A5 - 0xD66], 0x200
0000327C  6D24                     blt        +0x26 /* 000032A2 */
0000327E  4AAC 0162                tst.l      [A4 + 0x162]
00003282  671E                     beq        +0x20 /* 000032A2 */
00003284  206C 0084                movea.l    A0, [A4 + 0x84]
00003288  4A28 006F                tst.b      [A0 + 0x6F]
0000328C  6614                     bne        +0x16 /* 000032A2 */
0000328E  266C 0162                movea.l    A3, [A4 + 0x162]
00003292  206B 0018                movea.l    A0, [A3 + 0x18]
00003296  2F28 0002                move.l     -[A7], [A0 + 0x2]
0000329A  203C 0004 0002           move.l     D0, 0x40002
000032A0  AB1D                     syscall    QDExtensions
label000032A2:
000032A2  7000                     moveq.l    D0, 0x00
000032A4  2F00                     move.l     -[A7], D0
000032A6  486C 0116                pea.l      [A4 + 0x116]
000032AA  4EAD 176A                jsr        [A5 + 0x176A /* export_745, CODE:32 @ 00004B64 */]
000032AE  2640                     movea.l    A3, D0
000032B0  2F0B                     move.l     -[A7], A3
000032B2  A873                     syscall    SetPort
000032B4  504F                     addq.w     A7, 8
000032B6  4CEE 1800 FFF8           movem.l    A3,A4, [A6 - 0x8]
000032BC  4E5E                     unlink     A6
000032BE  4E75                     rts
000032C0  9752 6573 746F 7265 5... dc.b       "RestorePort__7cWindowFv"
export_570:
fn000032DA:
000032DA  4E56 0000                link       A6, 0
000032DE  48E7 0018                movem.l    -[A7], A3,A4
000032E2  266E 000C                movea.l    A3, [A6 + 0xC]
000032E6  286E 0008                movea.l    A4, [A6 + 0x8]
000032EA  4AAC 00DC                tst.l      [A4 + 0xDC]
000032EE  6606                     bne        +0x8 /* 000032F6 */
000032F0  294B 00DC                move.l     [A4 + 0xDC], A3
000032F4  6028                     bra        +0x2A /* 0000331E */
label000032F6:
000032F6  7001                     moveq.l    D0, 0x01
000032F8  2F00                     move.l     -[A7], D0
000032FA  2F2C 00DC                move.l     -[A7], [A4 + 0xDC]
000032FE  4EAD 1D3A                jsr        [A5 + 0x1D3A /* export_931, CODE:36 @ 0000100A */]
00003302  588F                     addq.l     A7, 4
00003304  2F00                     move.l     -[A7], D0
00003306  204B                     movea.l    A0, A3
00003308  226B 0008                movea.l    A1, [A3 + 0x8]
0000330C  D0E9 0010                add.w      A0, [A1 + 0x10]
00003310  2F08                     move.l     -[A7], A0
00003312  2049                     movea.l    A0, A1
00003314  2268 0014                movea.l    A1, [A0 + 0x14]
00003318  4E91                     jsr        [A1]
0000331A  4FEF 000C                lea.l      A7, [A7 + 0xC]
label0000331E:
0000331E  4CEE 1800 FFF8           movem.l    A3,A4, [A6 - 0x8]
00003324  4E5E                     unlink     A6
00003326  4E75                     rts
00003328  8028 4164 6443 6F6E 7... dc.b       "AddContentItem__7cWindowFP12cContentLink"
export_571:
00003354  4E56 0000                link       A6, 0
00003358  2F0C                     move.l     -[A7], A4
0000335A  302E 000E                move.w     D0, [A6 + 0xE]
0000335E  48C0                     ext.l      D0
00003360  5380                     subq.l     D0, 1
00003362  2F00                     move.l     -[A7], D0
00003364  206E 0008                movea.l    A0, [A6 + 0x8]
00003368  2F28 00DC                move.l     -[A7], [A0 + 0xDC]
0000336C  4EAD 1D42                jsr        [A5 + 0x1D42 /* export_932, CODE:36 @ 00001042 */]
00003370  2840                     movea.l    A4, D0
00003372  200C                     move.l     D0, A4
00003374  6708                     beq        +0xA /* 0000337E */
00003376  200C                     move.l     D0, A4
00003378  7280                     moveq.l    D1, 0xFFFFFF80
0000337A  D081                     add.l      D0, D1
0000337C  6002                     bra        +0x4 /* 00003380 */
label0000337E:
0000337E  7000                     moveq.l    D0, 0x00
label00003380:
00003380  504F                     addq.w     A7, 8
00003382  286E FFFC                movea.l    A4, [A6 - 0x4]
00003386  4E5E                     unlink     A6
00003388  4E75                     rts
0000338A  802A 4765 7443 6F6E 7... dc.b       "GetContentInterfaceItemByIndex__7cWindowFs"
export_572:
fn000033B8:
000033B8  4E56 0000                link       A6, 0
000033BC  2F0C                     move.l     -[A7], A4
000033BE  286E 0008                movea.l    A4, [A6 + 0x8]
000033C2  206C 0084                movea.l    A0, [A4 + 0x84]
000033C6  2F28 0010                move.l     -[A7], [A0 + 0x10]
000033CA  486C 012E                pea.l      [A4 + 0x12E]
000033CE  4EAD 1762                jsr        [A5 + 0x1762 /* export_744, CODE:32 @ 00004B1E */]
000033D2  3F2E 000E                move.w     -[A7], [A6 + 0xE]
000033D6  3F2E 0012                move.w     -[A7], [A6 + 0x12]
000033DA  A878                     syscall    SetOrigin
000033DC  286E FFFC                movea.l    A4, [A6 - 0x4]
000033E0  4E5E                     unlink     A6
000033E2  4E75                     rts
000033E4  9D53 6574 5769 6E64 6... dc.b       "SetWindowOrigin__7cWindowFsT1"
export_573:
fn00003404:
00003404  4E56 FFF8                link       A6, -0x0008
00003408  7000                     moveq.l    D0, 0x00
0000340A  2F00                     move.l     -[A7], D0
0000340C  206E 0008                movea.l    A0, [A6 + 0x8]
00003410  4868 012E                pea.l      [A0 + 0x12E]
00003414  4EAD 176A                jsr        [A5 + 0x176A /* export_745, CODE:32 @ 00004B64 */]
00003418  2D40 FFF8                move.l     [A6 - 0x8], D0
0000341C  2D40 FFFC                move.l     [A6 - 0x4], D0
00003420  2F2E FFFC                move.l     -[A7], [A6 - 0x4]
00003424  A878                     syscall    SetOrigin
00003426  4E5E                     unlink     A6
00003428  4E75                     rts
0000342A  9952 6573 746F 7265 4... dc.b       "RestoreOrigin__7cWindowFv"
export_574:
00003446  4E56 FFFC                link       A6, -0x0004
0000344A  2F0C                     move.l     -[A7], A4
0000344C  286E 0008                movea.l    A4, [A6 + 0x8]
00003450  4AAC 0084                tst.l      [A4 + 0x84]
00003454  6734                     beq        +0x36 /* 0000348A */
00003456  486E FFFC                pea.l      [A6 - 0x4]
0000345A  A874                     syscall    GetPort
0000345C  2F2C 0084                move.l     -[A7], [A4 + 0x84]
00003460  A873                     syscall    SetPort
00003462  206C 0084                movea.l    A0, [A4 + 0x84]
00003466  4868 0010                pea.l      [A0 + 0x10]
0000346A  2F0C                     move.l     -[A7], A4
0000346C  4EBA 055A                jsr        [PC + 0x55A /* 000039C8 */]
00003470  2F2E 000C                move.l     -[A7], [A6 + 0xC]
00003474  A928                     syscall    InvalRect
00003476  7000                     moveq.l    D0, 0x00
00003478  2F00                     move.l     -[A7], D0
0000347A  2F0C                     move.l     -[A7], A4
0000347C  4EBA 05A6                jsr        [PC + 0x5A6 /* 00003A24 */]
00003480  2F2E FFFC                move.l     -[A7], [A6 - 0x4]
00003484  A873                     syscall    SetPort
00003486  4FEF 0010                lea.l      A7, [A7 + 0x10]
label0000348A:
0000348A  286E FFF8                movea.l    A4, [A6 - 0x8]
0000348E  4E5E                     unlink     A6
00003490  4E75                     rts
00003492  8024 496E 7661 6C69 6... dc.b       "InvalidateRectangle__7cWindowFR4Rect"
export_575:
000034BA  4E56 0000                link       A6, 0
000034BE  48E7 0018                movem.l    -[A7], A3,A4
000034C2  266E 000C                movea.l    A3, [A6 + 0xC]
000034C6  286E 0008                movea.l    A4, [A6 + 0x8]
000034CA  206C 0084                movea.l    A0, [A4 + 0x84]
000034CE  3028 0012                move.w     D0, [A0 + 0x12]
000034D2  916B 0002                sub.w      [A3 + 0x2], D0
000034D6  206C 0084                movea.l    A0, [A4 + 0x84]
000034DA  3028 0012                move.w     D0, [A0 + 0x12]
000034DE  916B 0006                sub.w      [A3 + 0x6], D0
000034E2  206C 0084                movea.l    A0, [A4 + 0x84]
000034E6  3028 0010                move.w     D0, [A0 + 0x10]
000034EA  9153                     sub.w      [A3], D0
000034EC  206C 0084                movea.l    A0, [A4 + 0x84]
000034F0  3028 0010                move.w     D0, [A0 + 0x10]
000034F4  916B 0004                sub.w      [A3 + 0x4], D0
000034F8  4CEE 1800 FFF8           movem.l    A3,A4, [A6 - 0x8]
000034FE  4E5E                     unlink     A6
00003500  4E75                     rts
00003502  8024 4C6F 6361 6C54 6... dc.b       "LocalToWindowGlobal__7cWindowFR4Rect"
export_576:
0000352A  4E56 0000                link       A6, 0
0000352E  2F0C                     move.l     -[A7], A4
00003530  286E 0008                movea.l    A4, [A6 + 0x8]
00003534  4AAC 0112                tst.l      [A4 + 0x112]
00003538  6722                     beq        +0x24 /* 0000355C */
0000353A  206C 0112                movea.l    A0, [A4 + 0x112]
0000353E  2248                     movea.l    A1, A0
00003540  2269 0060                movea.l    A1, [A1 + 0x60]
00003544  D0E9 00A8                add.w      A0, [A1 + 0xA8]
00003548  2F08                     move.l     -[A7], A0
0000354A  206C 0112                movea.l    A0, [A4 + 0x112]
0000354E  2068 0060                movea.l    A0, [A0 + 0x60]
00003552  2268 00AC                movea.l    A1, [A0 + 0xAC]
00003556  4E91                     jsr        [A1]
00003558  584F                     addq.w     A7, 4
0000355A  6002                     bra        +0x4 /* 0000355E */
label0000355C:
0000355C  7000                     moveq.l    D0, 0x00
label0000355E:
0000355E  286E FFFC                movea.l    A4, [A6 - 0x4]
00003562  4E5E                     unlink     A6
00003564  4E75                     rts
00003566  9343 616E 556E 646F 5... dc.b       "CanUndo__7cWindowFv"
export_577:
0000357C  4E56 0000                link       A6, 0
00003580  2F0C                     move.l     -[A7], A4
00003582  286E 0008                movea.l    A4, [A6 + 0x8]
00003586  4AAC 0112                tst.l      [A4 + 0x112]
0000358A  6722                     beq        +0x24 /* 000035AE */
0000358C  206C 0112                movea.l    A0, [A4 + 0x112]
00003590  2248                     movea.l    A1, A0
00003592  2269 0060                movea.l    A1, [A1 + 0x60]
00003596  D0E9 0080                add.w      A0, [A1 + 0x80]
0000359A  2F08                     move.l     -[A7], A0
0000359C  206C 0112                movea.l    A0, [A4 + 0x112]
000035A0  2068 0060                movea.l    A0, [A0 + 0x60]
000035A4  2268 0084                movea.l    A1, [A0 + 0x84]
000035A8  4E91                     jsr        [A1]
000035AA  584F                     addq.w     A7, 4
000035AC  6002                     bra        +0x4 /* 000035B0 */
label000035AE:
000035AE  7000                     moveq.l    D0, 0x00
label000035B0:
000035B0  286E FFFC                movea.l    A4, [A6 - 0x4]
000035B4  4E5E                     unlink     A6
000035B6  4E75                     rts
000035B8  9243 616E 4375 745F 5... dc.b       "CanCut__7cWindowFv"
export_578:
000035CE  4E56 0000                link       A6, 0
000035D2  2F0C                     move.l     -[A7], A4
000035D4  286E 0008                movea.l    A4, [A6 + 0x8]
000035D8  4AAC 0112                tst.l      [A4 + 0x112]
000035DC  6722                     beq        +0x24 /* 00003600 */
000035DE  206C 0112                movea.l    A0, [A4 + 0x112]
000035E2  2248                     movea.l    A1, A0
000035E4  2269 0060                movea.l    A1, [A1 + 0x60]
000035E8  D0E9 0088                add.w      A0, [A1 + 0x88]
000035EC  2F08                     move.l     -[A7], A0
000035EE  206C 0112                movea.l    A0, [A4 + 0x112]
000035F2  2068 0060                movea.l    A0, [A0 + 0x60]
000035F6  2268 008C                movea.l    A1, [A0 + 0x8C]
000035FA  4E91                     jsr        [A1]
000035FC  584F                     addq.w     A7, 4
000035FE  6002                     bra        +0x4 /* 00003602 */
label00003600:
00003600  7000                     moveq.l    D0, 0x00
label00003602:
00003602  286E FFFC                movea.l    A4, [A6 - 0x4]
00003606  4E5E                     unlink     A6
00003608  4E75                     rts
0000360A  9343 616E 436F 7079 5... dc.b       "CanCopy__7cWindowFv"
export_579:
00003620  4E56 0000                link       A6, 0
00003624  2F0C                     move.l     -[A7], A4
00003626  286E 0008                movea.l    A4, [A6 + 0x8]
0000362A  4AAC 0112                tst.l      [A4 + 0x112]
0000362E  6722                     beq        +0x24 /* 00003652 */
00003630  206C 0112                movea.l    A0, [A4 + 0x112]
00003634  2248                     movea.l    A1, A0
00003636  2269 0060                movea.l    A1, [A1 + 0x60]
0000363A  D0E9 0090                add.w      A0, [A1 + 0x90]
0000363E  2F08                     move.l     -[A7], A0
00003640  206C 0112                movea.l    A0, [A4 + 0x112]
00003644  2068 0060                movea.l    A0, [A0 + 0x60]
00003648  2268 0094                movea.l    A1, [A0 + 0x94]
0000364C  4E91                     jsr        [A1]
0000364E  584F                     addq.w     A7, 4
00003650  6002                     bra        +0x4 /* 00003654 */
label00003652:
00003652  7000                     moveq.l    D0, 0x00
label00003654:
00003654  286E FFFC                movea.l    A4, [A6 - 0x4]
00003658  4E5E                     unlink     A6
0000365A  4E75                     rts
0000365C  9443 616E 5061 7374 6... dc.b       "CanPaste__7cWindowFv"
export_580:
00003674  4E56 0000                link       A6, 0
00003678  2F0C                     move.l     -[A7], A4
0000367A  286E 0008                movea.l    A4, [A6 + 0x8]
0000367E  4AAC 0112                tst.l      [A4 + 0x112]
00003682  6722                     beq        +0x24 /* 000036A6 */
00003684  206C 0112                movea.l    A0, [A4 + 0x112]
00003688  2248                     movea.l    A1, A0
0000368A  2269 0060                movea.l    A1, [A1 + 0x60]
0000368E  D0E9 0098                add.w      A0, [A1 + 0x98]
00003692  2F08                     move.l     -[A7], A0
00003694  206C 0112                movea.l    A0, [A4 + 0x112]
00003698  2068 0060                movea.l    A0, [A0 + 0x60]
0000369C  2268 009C                movea.l    A1, [A0 + 0x9C]
000036A0  4E91                     jsr        [A1]
000036A2  584F                     addq.w     A7, 4
000036A4  6002                     bra        +0x4 /* 000036A8 */
label000036A6:
000036A6  7000                     moveq.l    D0, 0x00
label000036A8:
000036A8  286E FFFC                movea.l    A4, [A6 - 0x4]
000036AC  4E5E                     unlink     A6
000036AE  4E75                     rts
000036B0  9443 616E 436C 6561 7... dc.b       "CanClear__7cWindowFv"
export_581:
000036C8  4E56 0000                link       A6, 0
000036CC  2F0C                     move.l     -[A7], A4
000036CE  286E 0008                movea.l    A4, [A6 + 0x8]
000036D2  4AAC 0112                tst.l      [A4 + 0x112]
000036D6  6722                     beq        +0x24 /* 000036FA */
000036D8  206C 0112                movea.l    A0, [A4 + 0x112]
000036DC  2248                     movea.l    A1, A0
000036DE  2269 0060                movea.l    A1, [A1 + 0x60]
000036E2  D0E9 00A0                add.w      A0, [A1 + 0xA0]
000036E6  2F08                     move.l     -[A7], A0
000036E8  206C 0112                movea.l    A0, [A4 + 0x112]
000036EC  2068 0060                movea.l    A0, [A0 + 0x60]
000036F0  2268 00A4                movea.l    A1, [A0 + 0xA4]
000036F4  4E91                     jsr        [A1]
000036F6  584F                     addq.w     A7, 4
000036F8  6002                     bra        +0x4 /* 000036FC */
label000036FA:
000036FA  7000                     moveq.l    D0, 0x00
label000036FC:
000036FC  286E FFFC                movea.l    A4, [A6 - 0x4]
00003700  4E5E                     unlink     A6
00003702  4E75                     rts
00003704  9843 616E 5365 6C65 6... dc.b       "CanSelectAll__7cWindowFv"
fn00003720:
00003720  4E56 FFFE                link       A6, -0x0002
00003724  48E7 0308                movem.l    -[A7], D6,D7,A4
00003728  286E 0008                movea.l    A4, [A6 + 0x8]
0000372C  0CAD 0000 0200 F29A      cmpi.l     [A5 - 0xD66], 0x200
00003734  6D4C                     blt        +0x4E /* 00003782 */
00003736  486E FFFE                pea.l      [A6 - 0x2]
0000373A  2F2C 0084                move.l     -[A7], [A4 + 0x84]
0000373E  4EAD 187A                jsr        [A5 + 0x187A /* export_779, CODE:32 @ 000060DC */]
00003742  3C00                     move.w     D6, D0
00003744  7001                     moveq.l    D0, 0x01
00003746  2F00                     move.l     -[A7], D0
00003748  2F2C 0084                move.l     -[A7], [A4 + 0x84]
0000374C  4EAD 188A                jsr        [A5 + 0x188A /* export_781, CODE:32 @ 0000619E */]
00003750  1E00                     move.b     D7, D0
00003752  BC6C 00D6                cmp.w      D6, [A4 + 0xD6]
00003756  4FEF 0010                lea.l      A7, [A7 + 0x10]
0000375A  6610                     bne        +0x12 /* 0000376C */
0000375C  302E FFFE                move.w     D0, [A6 - 0x2]
00003760  B06C 00D4                cmp.w      D0, [A4 + 0xD4]
00003764  6606                     bne        +0x8 /* 0000376C */
00003766  BE2C 00D3                cmp.b      D7, [A4 + 0xD3]
0000376A  6712                     beq        +0x14 /* 0000377E */
label0000376C:
0000376C  3946 00D6                move.w     [A4 + 0xD6], D6
00003770  396E FFFE 00D4           move.w     [A4 + 0xD4], [A6 - 0x2]
00003776  1947 00D3                move.b     [A4 + 0xD3], D7
0000377A  7001                     moveq.l    D0, 0x01
0000377C  6010                     bra        +0x12 /* 0000378E */
label0000377E:
0000377E  7000                     moveq.l    D0, 0x00
00003780  600C                     bra        +0xE /* 0000378E */
label00003782:
00003782  422C 00D3                clr.b      [A4 + 0xD3]
00003786  397C 0001 00D4           move.w     [A4 + 0xD4], 0x1
0000378C  7000                     moveq.l    D0, 0x00
label0000378E:
0000378E  4CEE 10C0 FFF2           movem.l    D6,D7,A4, [A6 - 0xE]
00003794  4E5E                     unlink     A6
00003796  4E75                     rts
00003798  9D56 616C 6964 6174 6... dc.b       "ValidateColorInfo__7cWindowFv"
export_582:
000037B8  4E56 0000                link       A6, 0
000037BC  4E5E                     unlink     A6
000037BE  4E75                     rts
000037C0  9743 6F6C 6F72 4368 6... dc.b       "ColorChange__7cWindowFv"
export_583:
000037DA  4E56 0000                link       A6, 0
000037DE  7000                     moveq.l    D0, 0x00
000037E0  4E5E                     unlink     A6
000037E2  4E75                     rts
000037E4  9649 7346 6C6F 6174 6... dc.b       "IsFloating__7cWindowFv"
export_584:
fn000037FE:
000037FE  4E56 0000                link       A6, 0
00003802  48E7 0018                movem.l    -[A7], A3,A4
00003806  286E 0008                movea.l    A4, [A6 + 0x8]
0000380A  2F0C                     move.l     -[A7], A4
0000380C  4EBA F9EC                jsr        [PC - 0x614 /* 000031FA */]
00003810  7000                     moveq.l    D0, 0x00
00003812  2F00                     move.l     -[A7], D0
00003814  2F00                     move.l     -[A7], D0
00003816  2F0C                     move.l     -[A7], A4
00003818  4EBA FB9E                jsr        [PC - 0x462 /* 000033B8 */]
0000381C  598F                     subq.l     A7, 4
0000381E  A8D8                     syscall    NewRgn
00003820  265F                     movea.l    A3, [A7]+
00003822  200B                     move.l     D0, A3
00003824  4FEF 0010                lea.l      A7, [A7 + 0x10]
00003828  660C                     bne        +0xE /* 00003836 */
0000382A  70FF                     moveq.l    D0, 0xFFFFFFFF
0000382C  2F00                     move.l     -[A7], D0
0000382E  2F0C                     move.l     -[A7], A4
00003830  4EAD 14E2                jsr        [A5 + 0x14E2 /* export_664, CODE:32 @ 000007B8 */]
00003834  504F                     addq.w     A7, 8
label00003836:
00003836  206C 0084                movea.l    A0, [A4 + 0x84]
0000383A  2F28 0018                move.l     -[A7], [A0 + 0x18]
0000383E  2F0B                     move.l     -[A7], A3
00003840  A8DC                     syscall    CopyRgn
00003842  2F0B                     move.l     -[A7], A3
00003844  486C 0146                pea.l      [A4 + 0x146]
00003848  4EAD 1762                jsr        [A5 + 0x1762 /* export_744, CODE:32 @ 00004B1E */]
0000384C  206C 0084                movea.l    A0, [A4 + 0x84]
00003850  2F28 0018                move.l     -[A7], [A0 + 0x18]
00003854  2F2C 015E                move.l     -[A7], [A4 + 0x15E]
00003858  A8DC                     syscall    CopyRgn
0000385A  2F2C 015E                move.l     -[A7], [A4 + 0x15E]
0000385E  2F2E 000C                move.l     -[A7], [A6 + 0xC]
00003862  2F2C 015E                move.l     -[A7], [A4 + 0x15E]
00003866  A8E4                     syscall    SectRgn
00003868  2F2C 015E                move.l     -[A7], [A4 + 0x15E]
0000386C  206C 0084                movea.l    A0, [A4 + 0x84]
00003870  2F28 0018                move.l     -[A7], [A0 + 0x18]
00003874  A8DC                     syscall    CopyRgn
00003876  2F0C                     move.l     -[A7], A4
00003878  4EBA FB8A                jsr        [PC - 0x476 /* 00003404 */]
0000387C  2F0C                     move.l     -[A7], A4
0000387E  4EBA F9E8                jsr        [PC - 0x618 /* 00003268 */]
00003882  4FEF 0010                lea.l      A7, [A7 + 0x10]
00003886  4CEE 1800 FFF8           movem.l    A3,A4, [A6 - 0x8]
0000388C  4E5E                     unlink     A6
0000388E  4E75                     rts
00003890  9E43 6C69 7057 6974 6... dc.b       "ClipWithin__7cWindowFPP6Region"
export_585:
000038B2  4E56 0000                link       A6, 0
000038B6  48E7 0018                movem.l    -[A7], A3,A4
000038BA  286E 0008                movea.l    A4, [A6 + 0x8]
000038BE  598F                     subq.l     A7, 4
000038C0  A8D8                     syscall    NewRgn
000038C2  265F                     movea.l    A3, [A7]+
000038C4  200B                     move.l     D0, A3
000038C6  660C                     bne        +0xE /* 000038D4 */
000038C8  70FF                     moveq.l    D0, 0xFFFFFFFF
000038CA  2F00                     move.l     -[A7], D0
000038CC  2F0C                     move.l     -[A7], A4
000038CE  4EAD 14E2                jsr        [A5 + 0x14E2 /* export_664, CODE:32 @ 000007B8 */]
000038D2  504F                     addq.w     A7, 8
label000038D4:
000038D4  2F0B                     move.l     -[A7], A3
000038D6  2F2E 000C                move.l     -[A7], [A6 + 0xC]
000038DA  A8DF                     syscall    RectRgn
000038DC  2F0B                     move.l     -[A7], A3
000038DE  2F0C                     move.l     -[A7], A4
000038E0  4EBA FF1C                jsr        [PC - 0xE4 /* 000037FE */]
000038E4  2F0B                     move.l     -[A7], A3
000038E6  A8D9                     syscall    DisposRgn/DisposeRgn
000038E8  504F                     addq.w     A7, 8
000038EA  4CEE 1800 FFF8           movem.l    A3,A4, [A6 - 0x8]
000038F0  4E5E                     unlink     A6
000038F2  4E75                     rts
000038F4  9B43 6C69 7057 6974 6... dc.b       "ClipWithin__7cWindowFR4Rect"
export_586:
fn00003912:
00003912  4E56 0000                link       A6, 0
00003916  48E7 0018                movem.l    -[A7], A3,A4
0000391A  286E 0008                movea.l    A4, [A6 + 0x8]
0000391E  2F0C                     move.l     -[A7], A4
00003920  4EBA F8D8                jsr        [PC - 0x728 /* 000031FA */]
00003924  7000                     moveq.l    D0, 0x00
00003926  2F00                     move.l     -[A7], D0
00003928  2F00                     move.l     -[A7], D0
0000392A  2F0C                     move.l     -[A7], A4
0000392C  4EBA FA8A                jsr        [PC - 0x576 /* 000033B8 */]
00003930  598F                     subq.l     A7, 4
00003932  A8D8                     syscall    NewRgn
00003934  265F                     movea.l    A3, [A7]+
00003936  200B                     move.l     D0, A3
00003938  4FEF 0010                lea.l      A7, [A7 + 0x10]
0000393C  660C                     bne        +0xE /* 0000394A */
0000393E  70FF                     moveq.l    D0, 0xFFFFFFFF
00003940  2F00                     move.l     -[A7], D0
00003942  2F0C                     move.l     -[A7], A4
00003944  4EAD 14E2                jsr        [A5 + 0x14E2 /* export_664, CODE:32 @ 000007B8 */]
00003948  504F                     addq.w     A7, 8
label0000394A:
0000394A  206C 0084                movea.l    A0, [A4 + 0x84]
0000394E  2F28 0018                move.l     -[A7], [A0 + 0x18]
00003952  2F0B                     move.l     -[A7], A3
00003954  A8DC                     syscall    CopyRgn
00003956  2F0B                     move.l     -[A7], A3
00003958  486C 0146                pea.l      [A4 + 0x146]
0000395C  4EAD 1762                jsr        [A5 + 0x1762 /* export_744, CODE:32 @ 00004B1E */]
00003960  2F2C 0084                move.l     -[A7], [A4 + 0x84]
00003964  A909                     syscall    CalcVis
00003966  206C 0084                movea.l    A0, [A4 + 0x84]
0000396A  2F28 0018                move.l     -[A7], [A0 + 0x18]
0000396E  2F2C 015E                move.l     -[A7], [A4 + 0x15E]
00003972  A8DC                     syscall    CopyRgn
00003974  2F2C 015E                move.l     -[A7], [A4 + 0x15E]
00003978  2F2E 000C                move.l     -[A7], [A6 + 0xC]
0000397C  2F2C 015E                move.l     -[A7], [A4 + 0x15E]
00003980  A8E4                     syscall    SectRgn
00003982  2F2C 015E                move.l     -[A7], [A4 + 0x15E]
00003986  206C 0084                movea.l    A0, [A4 + 0x84]
0000398A  2F28 0018                move.l     -[A7], [A0 + 0x18]
0000398E  A8DC                     syscall    CopyRgn
00003990  2F0C                     move.l     -[A7], A4
00003992  4EBA FA70                jsr        [PC - 0x590 /* 00003404 */]
00003996  2F0C                     move.l     -[A7], A4
00003998  4EBA F8CE                jsr        [PC - 0x732 /* 00003268 */]
0000399C  4FEF 0010                lea.l      A7, [A7 + 0x10]
000039A0  4CEE 1800 FFF8           movem.l    A3,A4, [A6 - 0x8]
000039A6  4E5E                     unlink     A6
000039A8  4E75                     rts
000039AA  9A43 6C69 7054 6F5F 5... dc.b       "ClipTo__7cWindowFPP6Region"
export_587:
fn000039C8:
000039C8  4E56 0000                link       A6, 0
000039CC  48E7 0018                movem.l    -[A7], A3,A4
000039D0  286E 0008                movea.l    A4, [A6 + 0x8]
000039D4  598F                     subq.l     A7, 4
000039D6  A8D8                     syscall    NewRgn
000039D8  265F                     movea.l    A3, [A7]+
000039DA  200B                     move.l     D0, A3
000039DC  660C                     bne        +0xE /* 000039EA */
000039DE  70FF                     moveq.l    D0, 0xFFFFFFFF
000039E0  2F00                     move.l     -[A7], D0
000039E2  2F0C                     move.l     -[A7], A4
000039E4  4EAD 14E2                jsr        [A5 + 0x14E2 /* export_664, CODE:32 @ 000007B8 */]
000039E8  504F                     addq.w     A7, 8
label000039EA:
000039EA  2F0B                     move.l     -[A7], A3
000039EC  2F2E 000C                move.l     -[A7], [A6 + 0xC]
000039F0  A8DF                     syscall    RectRgn
000039F2  2F0B                     move.l     -[A7], A3
000039F4  2F0C                     move.l     -[A7], A4
000039F6  4EBA FF1A                jsr        [PC - 0xE6 /* 00003912 */]
000039FA  2F0B                     move.l     -[A7], A3
000039FC  A8D9                     syscall    DisposRgn/DisposeRgn
000039FE  504F                     addq.w     A7, 8
00003A00  4CEE 1800 FFF8           movem.l    A3,A4, [A6 - 0x8]
00003A06  4E5E                     unlink     A6
00003A08  4E75                     rts
00003A0A  9743 6C69 7054 6F5F 5... dc.b       "ClipTo__7cWindowFR4Rect"
export_588:
fn00003A24:
00003A24  4E56 0000                link       A6, 0
00003A28  48E7 0018                movem.l    -[A7], A3,A4
00003A2C  286E 0008                movea.l    A4, [A6 + 0x8]
00003A30  7000                     moveq.l    D0, 0x00
00003A32  2F00                     move.l     -[A7], D0
00003A34  486C 0146                pea.l      [A4 + 0x146]
00003A38  4EAD 176A                jsr        [A5 + 0x176A /* export_745, CODE:32 @ 00004B64 */]
00003A3C  2640                     movea.l    A3, D0
00003A3E  4A2E 000F                tst.b      [A6 + 0xF]
00003A42  504F                     addq.w     A7, 8
00003A44  674C                     beq        +0x4E /* 00003A92 */
00003A46  200B                     move.l     D0, A3
00003A48  6748                     beq        +0x4A /* 00003A92 */
00003A4A  2F0C                     move.l     -[A7], A4
00003A4C  4EBA F7AC                jsr        [PC - 0x854 /* 000031FA */]
00003A50  7000                     moveq.l    D0, 0x00
00003A52  2F00                     move.l     -[A7], D0
00003A54  2F00                     move.l     -[A7], D0
00003A56  2F0C                     move.l     -[A7], A4
00003A58  4EBA F95E                jsr        [PC - 0x6A2 /* 000033B8 */]
00003A5C  2F2C 0084                move.l     -[A7], [A4 + 0x84]
00003A60  A909                     syscall    CalcVis
00003A62  206C 0084                movea.l    A0, [A4 + 0x84]
00003A66  2F28 0018                move.l     -[A7], [A0 + 0x18]
00003A6A  2F0B                     move.l     -[A7], A3
00003A6C  2F0B                     move.l     -[A7], A3
00003A6E  A8E4                     syscall    SectRgn
00003A70  2F0B                     move.l     -[A7], A3
00003A72  206C 0084                movea.l    A0, [A4 + 0x84]
00003A76  2F28 0018                move.l     -[A7], [A0 + 0x18]
00003A7A  A8DC                     syscall    CopyRgn
00003A7C  2F0B                     move.l     -[A7], A3
00003A7E  A8D9                     syscall    DisposRgn/DisposeRgn
00003A80  2F0C                     move.l     -[A7], A4
00003A82  4EBA F980                jsr        [PC - 0x680 /* 00003404 */]
00003A86  2F0C                     move.l     -[A7], A4
00003A88  4EBA F7DE                jsr        [PC - 0x822 /* 00003268 */]
00003A8C  4FEF 0018                lea.l      A7, [A7 + 0x18]
00003A90  6036                     bra        +0x38 /* 00003AC8 */
label00003A92:
00003A92  200B                     move.l     D0, A3
00003A94  6732                     beq        +0x34 /* 00003AC8 */
00003A96  2F0C                     move.l     -[A7], A4
00003A98  4EBA F760                jsr        [PC - 0x8A0 /* 000031FA */]
00003A9C  7000                     moveq.l    D0, 0x00
00003A9E  2F00                     move.l     -[A7], D0
00003AA0  2F00                     move.l     -[A7], D0
00003AA2  2F0C                     move.l     -[A7], A4
00003AA4  4EBA F912                jsr        [PC - 0x6EE /* 000033B8 */]
00003AA8  2F0B                     move.l     -[A7], A3
00003AAA  206C 0084                movea.l    A0, [A4 + 0x84]
00003AAE  2F28 0018                move.l     -[A7], [A0 + 0x18]
00003AB2  A8DC                     syscall    CopyRgn
00003AB4  2F0B                     move.l     -[A7], A3
00003AB6  A8D9                     syscall    DisposRgn/DisposeRgn
00003AB8  2F0C                     move.l     -[A7], A4
00003ABA  4EBA F948                jsr        [PC - 0x6B8 /* 00003404 */]
00003ABE  2F0C                     move.l     -[A7], A4
00003AC0  4EBA F7A6                jsr        [PC - 0x85A /* 00003268 */]
00003AC4  4FEF 0018                lea.l      A7, [A7 + 0x18]
label00003AC8:
00003AC8  4CEE 1800 FFF8           movem.l    A3,A4, [A6 - 0x8]
00003ACE  4E5E                     unlink     A6
00003AD0  4E75                     rts
00003AD2  9852 6573 746F 7265 4... dc.b       "RestoreClip__7cWindowFUc"
export_589:
00003AEE  4E56 0000                link       A6, 0
00003AF2  206E 0008                movea.l    A0, [A6 + 0x8]
00003AF6  2F28 0084                move.l     -[A7], [A0 + 0x84]
00003AFA  3F2E 000E                move.w     -[A7], [A6 + 0xE]
00003AFE  3F2E 0012                move.w     -[A7], [A6 + 0x12]
00003B02  1F2E 0017                move.b     -[A7], [A6 + 0x17]
00003B06  A91D                     syscall    SizeWindow
00003B08  4E5E                     unlink     A6
00003B0A  4E75                     rts
00003B0C  9D53 6574 5769 6E64 6... dc.b       "SetWindowSize__7cWindowFsT1Uc"
export_590:
00003B2C  4E56 0000                link       A6, 0
00003B30  206E 0008                movea.l    A0, [A6 + 0x8]
00003B34  2F28 0084                move.l     -[A7], [A0 + 0x84]
00003B38  3F2E 000E                move.w     -[A7], [A6 + 0xE]
00003B3C  3F2E 0012                move.w     -[A7], [A6 + 0x12]
00003B40  1F2E 0017                move.b     -[A7], [A6 + 0x17]
00003B44  A91B                     syscall    MoveWindow
00003B46  4E5E                     unlink     A6
00003B48  4E75                     rts
00003B4A  8021 5365 7457 696E 6... dc.b       "SetWindowPosition__7cWindowFsT1Uc"
export_591:
00003B70  4E56 0000                link       A6, 0
00003B74  48E7 0018                movem.l    -[A7], A3,A4
00003B78  266E 000C                movea.l    A3, [A6 + 0xC]
00003B7C  286E 0008                movea.l    A4, [A6 + 0x8]
00003B80  206C 0084                movea.l    A0, [A4 + 0x84]
00003B84  3768 0012 0002           move.w     [A3 + 0x2], [A0 + 0x12]
00003B8A  206C 0084                movea.l    A0, [A4 + 0x84]
00003B8E  36A8 0010                move.w     [A3], [A0 + 0x10]
00003B92  2F0C                     move.l     -[A7], A4
00003B94  4EBA F664                jsr        [PC - 0x99C /* 000031FA */]
00003B98  2F0B                     move.l     -[A7], A3
00003B9A  A870                     syscall    LocalToGlobal
00003B9C  2F0C                     move.l     -[A7], A4
00003B9E  4EBA F6C8                jsr        [PC - 0x938 /* 00003268 */]
00003BA2  4CEE 1800 FFF8           movem.l    A3,A4, [A6 - 0x8]
00003BA8  4E5E                     unlink     A6
00003BAA  4E75                     rts
00003BAC  8023 4765 7457 696E 6... dc.b       "GetWindowPosition__7cWindowFR5Point"
export_592:
00003BD4  4E56 0000                link       A6, 0
00003BD8  2F0C                     move.l     -[A7], A4
00003BDA  286E 0008                movea.l    A4, [A6 + 0x8]
00003BDE  4A2C 0109                tst.b      [A4 + 0x109]
00003BE2  6732                     beq        +0x34 /* 00003C16 */
00003BE4  422C 0109                clr.b      [A4 + 0x109]
00003BE8  7001                     moveq.l    D0, 0x01
00003BEA  2F00                     move.l     -[A7], D0
00003BEC  322C 010A                move.w     D1, [A4 + 0x10A]
00003BF0  48C1                     ext.l      D1
00003BF2  2F01                     move.l     -[A7], D1
00003BF4  322C 010C                move.w     D1, [A4 + 0x10C]
00003BF8  48C1                     ext.l      D1
00003BFA  2F01                     move.l     -[A7], D1
00003BFC  204C                     movea.l    A0, A4
00003BFE  226C 0060                movea.l    A1, [A4 + 0x60]
00003C02  D0E9 00E8                add.w      A0, [A1 + 0xE8]
00003C06  2F08                     move.l     -[A7], A0
00003C08  2049                     movea.l    A0, A1
00003C0A  2268 00EC                movea.l    A1, [A0 + 0xEC]
00003C0E  4E91                     jsr        [A1]
00003C10  4FEF 0010                lea.l      A7, [A7 + 0x10]
00003C14  6056                     bra        +0x58 /* 00003C6C */
label00003C16:
00003C16  197C 0001 0109           move.b     [A4 + 0x109], 0x1
00003C1C  206C 0084                movea.l    A0, [A4 + 0x84]
00003C20  2248                     movea.l    A1, A0
00003C22  3028 0016                move.w     D0, [A0 + 0x16]
00003C26  9069 0012                sub.w      D0, [A1 + 0x12]
00003C2A  3940 010C                move.w     [A4 + 0x10C], D0
00003C2E  206C 0084                movea.l    A0, [A4 + 0x84]
00003C32  2248                     movea.l    A1, A0
00003C34  3028 0014                move.w     D0, [A0 + 0x14]
00003C38  9069 0010                sub.w      D0, [A1 + 0x10]
00003C3C  3940 010A                move.w     [A4 + 0x10A], D0
00003C40  7001                     moveq.l    D0, 0x01
00003C42  2F00                     move.l     -[A7], D0
00003C44  322C 0098                move.w     D1, [A4 + 0x98]
00003C48  48C1                     ext.l      D1
00003C4A  2F01                     move.l     -[A7], D1
00003C4C  322C 009A                move.w     D1, [A4 + 0x9A]
00003C50  48C1                     ext.l      D1
00003C52  2F01                     move.l     -[A7], D1
00003C54  204C                     movea.l    A0, A4
00003C56  226C 0060                movea.l    A1, [A4 + 0x60]
00003C5A  D0E9 00E8                add.w      A0, [A1 + 0xE8]
00003C5E  2F08                     move.l     -[A7], A0
00003C60  2049                     movea.l    A0, A1
00003C62  2268 00EC                movea.l    A1, [A0 + 0xEC]
00003C66  4E91                     jsr        [A1]
00003C68  4FEF 0010                lea.l      A7, [A7 + 0x10]
label00003C6C:
00003C6C  286E FFFC                movea.l    A4, [A6 - 0x4]
00003C70  4E5E                     unlink     A6
00003C72  4E75                     rts
00003C74  905A 6F6F 6D5F 5F37 6... dc.b       "Zoom__7cWindowFv"
export_593:
00003C88  4E56 FFF4                link       A6, -0x000C
00003C8C  2F0C                     move.l     -[A7], A4
00003C8E  286E 0008                movea.l    A4, [A6 + 0x8]
00003C92  486E FFF4                pea.l      [A6 - 0xC]
00003C96  A874                     syscall    GetPort
00003C98  2F2C 0084                move.l     -[A7], [A4 + 0x84]
00003C9C  A873                     syscall    SetPort
00003C9E  4AAD FCE4                tst.l      [A5 - 0x31C]
00003CA2  6612                     bne        +0x14 /* 00003CB6 */
00003CA4  598F                     subq.l     A7, 4
00003CA6  2F3C 5049 4354           move.l     -[A7], 0x50494354 /* 'PICT' */
00003CAC  3F3C 3A9B                move.w     -[A7], 0x3A9B
00003CB0  A9A0                     syscall    GetResource
00003CB2  2B5F FCE4                move.l     [A5 - 0x31C], [A7]+
label00003CB6:
00003CB6  4AAC 0080                tst.l      [A4 + 0x80]
00003CBA  660A                     bne        +0xC /* 00003CC6 */
00003CBC  598F                     subq.l     A7, 4
00003CBE  A8D8                     syscall    NewRgn
00003CC0  295F 0080                move.l     [A4 + 0x80], [A7]+
00003CC4  6018                     bra        +0x1A /* 00003CDE */
label00003CC6:
00003CC6  2F2C 0080                move.l     -[A7], [A4 + 0x80]
00003CCA  206C 0084                movea.l    A0, [A4 + 0x84]
00003CCE  2F28 001C                move.l     -[A7], [A0 + 0x1C]
00003CD2  2F28 001C                move.l     -[A7], [A0 + 0x1C]
00003CD6  A8E7                     syscall    XorRgn
00003CD8  2F2C 0080                move.l     -[A7], [A4 + 0x80]
00003CDC  A8D4                     syscall    EraseRgn
label00003CDE:
00003CDE  206C 0084                movea.l    A0, [A4 + 0x84]
00003CE2  3D68 0014 FFFC           move.w     [A6 - 0x4], [A0 + 0x14]
00003CE8  206C 0084                movea.l    A0, [A4 + 0x84]
00003CEC  3D68 0016 FFFE           move.w     [A6 - 0x2], [A0 + 0x16]
00003CF2  302E FFFC                move.w     D0, [A6 - 0x4]
00003CF6  907C 000F                sub.w      D0, 0xF
00003CFA  3D40 FFF8                move.w     [A6 - 0x8], D0
00003CFE  302E FFFE                move.w     D0, [A6 - 0x2]
00003D02  907C 000F                sub.w      D0, 0xF
00003D06  3D40 FFFA                move.w     [A6 - 0x6], D0
00003D0A  486E FFF8                pea.l      [A6 - 0x8]
00003D0E  A8A3                     syscall    EraseRect
00003D10  2F2D FCE4                move.l     -[A7], [A5 - 0x31C]
00003D14  486E FFF8                pea.l      [A6 - 0x8]
00003D18  A8F6                     syscall    DrawPicture
00003D1A  2F2C 0080                move.l     -[A7], [A4 + 0x80]
00003D1E  486E FFF8                pea.l      [A6 - 0x8]
00003D22  A8DF                     syscall    RectRgn
00003D24  2F2C 0080                move.l     -[A7], [A4 + 0x80]
00003D28  206C 0084                movea.l    A0, [A4 + 0x84]
00003D2C  2F28 001C                move.l     -[A7], [A0 + 0x1C]
00003D30  2F28 001C                move.l     -[A7], [A0 + 0x1C]
00003D34  A8E7                     syscall    XorRgn
00003D36  2F2E FFF4                move.l     -[A7], [A6 - 0xC]
00003D3A  A873                     syscall    SetPort
00003D3C  286E FFF0                movea.l    A4, [A6 - 0x10]
00003D40  4E5E                     unlink     A6
00003D42  4E75                     rts
00003D44  9844 7261 7747 726F 7... dc.b       "DrawGrowIcon__7cWindowFv"
export_594:
00003D60  4E56 0000                link       A6, 0
00003D64  48E7 0018                movem.l    -[A7], A3,A4
00003D68  266E 000C                movea.l    A3, [A6 + 0xC]
00003D6C  286E 0008                movea.l    A4, [A6 + 0x8]
00003D70  206C 0084                movea.l    A0, [A4 + 0x84]
00003D74  2248                     movea.l    A1, A0
00003D76  3028 0014                move.w     D0, [A0 + 0x14]
00003D7A  9069 0010                sub.w      D0, [A1 + 0x10]
00003D7E  3680                     move.w     [A3], D0
00003D80  206C 0084                movea.l    A0, [A4 + 0x84]
00003D84  2248                     movea.l    A1, A0
00003D86  3028 0016                move.w     D0, [A0 + 0x16]
00003D8A  9069 0012                sub.w      D0, [A1 + 0x12]
00003D8E  3740 0002                move.w     [A3 + 0x2], D0
00003D92  4CEE 1800 FFF8           movem.l    A3,A4, [A6 - 0x8]
00003D98  4E5E                     unlink     A6
00003D9A  4E75                     rts
00003D9C  9F47 6574 5769 6E64 6... dc.b       "GetWindowSize__7cWindowFR5Point"
export_595:
00003DBE  4E56 0000                link       A6, 0
00003DC2  48E7 0108                movem.l    -[A7], D7,A4
00003DC6  2E2E 000C                move.l     D7, [A6 + 0xC]
00003DCA  286E 0008                movea.l    A4, [A6 + 0x8]
00003DCE  200C                     move.l     D0, A4
00003DD0  6754                     beq        +0x56 /* 00003E26 */
00003DD2  206C 0064                movea.l    A0, [A4 + 0x64]
00003DD6  216D FD0C 0008           move.l     [A0 + 0x8], [A5 - 0x2F4]
00003DDC  296D FD10 0070           move.l     [A4 + 0x70], [A5 - 0x2F0]
00003DE2  296D FD14 0060           move.l     [A4 + 0x60], [A5 - 0x2EC]
00003DE8  200C                     move.l     D0, A4
00003DEA  673A                     beq        +0x3C /* 00003E26 */
00003DEC  7000                     moveq.l    D0, 0x00
00003DEE  2F00                     move.l     -[A7], D0
00003DF0  2F0C                     move.l     -[A7], A4
00003DF2  4EBA 0504                jsr        [PC + 0x504 /* 000042F8 */]
00003DF6  7002                     moveq.l    D0, 0x02
00003DF8  C087                     and.l      D0, D7
00003DFA  6718                     beq        +0x1A /* 00003E14 */
00003DFC  7000                     moveq.l    D0, 0x00
00003DFE  2F00                     move.l     -[A7], D0
00003E00  220C                     move.l     D1, A4
00003E02  D2BC 0000 0180           add.l      D1, 0x180
00003E08  2F01                     move.l     -[A7], D1
00003E0A  4EAD 1632                jsr        [A5 + 0x1632 /* export_706, CODE:32 @ 000036CC */]
00003E0E  7000                     moveq.l    D0, 0x00
00003E10  504F                     addq.w     A7, 8
00003E12  6002                     bra        +0x4 /* 00003E16 */
label00003E14:
00003E14  7000                     moveq.l    D0, 0x00
label00003E16:
00003E16  0807 0000                btst.b     D7, 0x0
00003E1A  504F                     addq.w     A7, 8
00003E1C  6708                     beq        +0xA /* 00003E26 */
00003E1E  2F0C                     move.l     -[A7], A4
00003E20  4EAD 0102                jsr        [A5 + 0x102 /* export_28, CODE:1 @ 00001BE0 */]
00003E24  584F                     addq.w     A7, 4
label00003E26:
00003E26  4CEE 1080 FFF8           movem.l    D7,A4, [A6 - 0x8]
00003E2C  4E5E                     unlink     A6
00003E2E  4E75                     rts
00003E30  965F 5F64 745F 5F31 3... dc.b       "__dt__12cAlertWindowFv"
export_596:
fn00003E4A:
00003E4A  4E56 0000                link       A6, 0
00003E4E  48E7 0318                movem.l    -[A7], D6,D7,A3,A4
00003E52  3C2E 000E                move.w     D6, [A6 + 0xE]
00003E56  3E2E 0016                move.w     D7, [A6 + 0x16]
00003E5A  266E 0010                movea.l    A3, [A6 + 0x10]
00003E5E  286E 0008                movea.l    A4, [A6 + 0x8]
00003E62  4A47                     tst.w      D7
00003E64  6600 015A                bne        +0x15C /* 00003FC0 */
00003E68  4AAC 016C                tst.l      [A4 + 0x16C]
00003E6C  6644                     bne        +0x46 /* 00003EB2 */
00003E6E  2F2E 0018                move.l     -[A7], [A6 + 0x18]
00003E72  2F0B                     move.l     -[A7], A3
00003E74  2F0C                     move.l     -[A7], A4
00003E76  2F0C                     move.l     -[A7], A4
00003E78  7000                     moveq.l    D0, 0x00
00003E7A  2F00                     move.l     -[A7], D0
00003E7C  2F00                     move.l     -[A7], D0
00003E7E  4EAD 19BA                jsr        [A5 + 0x19BA /* export_819, CODE:34 @ 00000000 */]
00003E82  2940 016C                move.l     [A4 + 0x16C], D0
00003E86  670C                     beq        +0xE /* 00003E94 */
00003E88  202C 016C                move.l     D0, [A4 + 0x16C]
00003E8C  D0BC 0000 0080           add.l      D0, 0x80
00003E92  6002                     bra        +0x4 /* 00003E96 */
label00003E94:
00003E94  7000                     moveq.l    D0, 0x00
label00003E96:
00003E96  2F00                     move.l     -[A7], D0
00003E98  2F0C                     move.l     -[A7], A4
00003E9A  4EBA F43E                jsr        [PC - 0xBC2 /* 000032DA */]
00003E9E  7001                     moveq.l    D0, 0x01
00003EA0  2F00                     move.l     -[A7], D0
00003EA2  2F2C 016C                move.l     -[A7], [A4 + 0x16C]
00003EA6  4EAD 1A02                jsr        [A5 + 0x1A02 /* export_828, CODE:34 @ 00000CCC */]
00003EAA  4FEF 0028                lea.l      A7, [A7 + 0x28]
00003EAE  6000 0128                bra        +0x12A /* 00003FD8 */
label00003EB2:
00003EB2  4AAC 0170                tst.l      [A4 + 0x170]
00003EB6  6638                     bne        +0x3A /* 00003EF0 */
00003EB8  2F2E 0018                move.l     -[A7], [A6 + 0x18]
00003EBC  2F0B                     move.l     -[A7], A3
00003EBE  2F0C                     move.l     -[A7], A4
00003EC0  2F0C                     move.l     -[A7], A4
00003EC2  7000                     moveq.l    D0, 0x00
00003EC4  2F00                     move.l     -[A7], D0
00003EC6  2F00                     move.l     -[A7], D0
00003EC8  4EAD 19BA                jsr        [A5 + 0x19BA /* export_819, CODE:34 @ 00000000 */]
00003ECC  2940 0170                move.l     [A4 + 0x170], D0
00003ED0  670C                     beq        +0xE /* 00003EDE */
00003ED2  202C 0170                move.l     D0, [A4 + 0x170]
00003ED6  D0BC 0000 0080           add.l      D0, 0x80
00003EDC  6002                     bra        +0x4 /* 00003EE0 */
label00003EDE:
00003EDE  7000                     moveq.l    D0, 0x00
label00003EE0:
00003EE0  2F00                     move.l     -[A7], D0
00003EE2  2F0C                     move.l     -[A7], A4
00003EE4  4EBA F3F4                jsr        [PC - 0xC0C /* 000032DA */]
00003EE8  4FEF 0020                lea.l      A7, [A7 + 0x20]
00003EEC  6000 00EA                bra        +0xEC /* 00003FD8 */
label00003EF0:
00003EF0  4AAC 0174                tst.l      [A4 + 0x174]
00003EF4  6638                     bne        +0x3A /* 00003F2E */
00003EF6  2F2E 0018                move.l     -[A7], [A6 + 0x18]
00003EFA  2F0B                     move.l     -[A7], A3
00003EFC  2F0C                     move.l     -[A7], A4
00003EFE  2F0C                     move.l     -[A7], A4
00003F00  7000                     moveq.l    D0, 0x00
00003F02  2F00                     move.l     -[A7], D0
00003F04  2F00                     move.l     -[A7], D0
00003F06  4EAD 19BA                jsr        [A5 + 0x19BA /* export_819, CODE:34 @ 00000000 */]
00003F0A  2940 0174                move.l     [A4 + 0x174], D0
00003F0E  670C                     beq        +0xE /* 00003F1C */
00003F10  202C 0174                move.l     D0, [A4 + 0x174]
00003F14  D0BC 0000 0080           add.l      D0, 0x80
00003F1A  6002                     bra        +0x4 /* 00003F1E */
label00003F1C:
00003F1C  7000                     moveq.l    D0, 0x00
label00003F1E:
00003F1E  2F00                     move.l     -[A7], D0
00003F20  2F0C                     move.l     -[A7], A4
00003F22  4EBA F3B6                jsr        [PC - 0xC4A /* 000032DA */]
00003F26  4FEF 0020                lea.l      A7, [A7 + 0x20]
00003F2A  6000 00AC                bra        +0xAE /* 00003FD8 */
label00003F2E:
00003F2E  4AAC 0178                tst.l      [A4 + 0x178]
00003F32  6636                     bne        +0x38 /* 00003F6A */
00003F34  2F2E 0018                move.l     -[A7], [A6 + 0x18]
00003F38  2F0B                     move.l     -[A7], A3
00003F3A  2F0C                     move.l     -[A7], A4
00003F3C  2F0C                     move.l     -[A7], A4
00003F3E  7000                     moveq.l    D0, 0x00
00003F40  2F00                     move.l     -[A7], D0
00003F42  2F00                     move.l     -[A7], D0
00003F44  4EAD 19BA                jsr        [A5 + 0x19BA /* export_819, CODE:34 @ 00000000 */]
00003F48  2940 0178                move.l     [A4 + 0x178], D0
00003F4C  670C                     beq        +0xE /* 00003F5A */
00003F4E  202C 0178                move.l     D0, [A4 + 0x178]
00003F52  D0BC 0000 0080           add.l      D0, 0x80
00003F58  6002                     bra        +0x4 /* 00003F5C */
label00003F5A:
00003F5A  7000                     moveq.l    D0, 0x00
label00003F5C:
00003F5C  2F00                     move.l     -[A7], D0
00003F5E  2F0C                     move.l     -[A7], A4
00003F60  4EBA F378                jsr        [PC - 0xC88 /* 000032DA */]
00003F64  4FEF 0020                lea.l      A7, [A7 + 0x20]
00003F68  606E                     bra        +0x70 /* 00003FD8 */
label00003F6A:
00003F6A  4AAC 017C                tst.l      [A4 + 0x17C]
00003F6E  6636                     bne        +0x38 /* 00003FA6 */
00003F70  2F2E 0018                move.l     -[A7], [A6 + 0x18]
00003F74  2F0B                     move.l     -[A7], A3
00003F76  2F0C                     move.l     -[A7], A4
00003F78  2F0C                     move.l     -[A7], A4
00003F7A  7000                     moveq.l    D0, 0x00
00003F7C  2F00                     move.l     -[A7], D0
00003F7E  2F00                     move.l     -[A7], D0
00003F80  4EAD 19BA                jsr        [A5 + 0x19BA /* export_819, CODE:34 @ 00000000 */]
00003F84  2940 017C                move.l     [A4 + 0x17C], D0
00003F88  670C                     beq        +0xE /* 00003F96 */
00003F8A  202C 017C                move.l     D0, [A4 + 0x17C]
00003F8E  D0BC 0000 0080           add.l      D0, 0x80
00003F94  6002                     bra        +0x4 /* 00003F98 */
label00003F96:
00003F96  7000                     moveq.l    D0, 0x00
label00003F98:
00003F98  2F00                     move.l     -[A7], D0
00003F9A  2F0C                     move.l     -[A7], A4
00003F9C  4EBA F33C                jsr        [PC - 0xCC4 /* 000032DA */]
00003FA0  4FEF 0020                lea.l      A7, [A7 + 0x20]
00003FA4  6032                     bra        +0x34 /* 00003FD8 */
label00003FA6:
00003FA6  2F2E 0018                move.l     -[A7], [A6 + 0x18]
00003FAA  48C7                     ext.l      D7
00003FAC  2F07                     move.l     -[A7], D7
00003FAE  2F0B                     move.l     -[A7], A3
00003FB0  48C6                     ext.l      D6
00003FB2  2F06                     move.l     -[A7], D6
00003FB4  2F0C                     move.l     -[A7], A4
00003FB6  4EBA E4E8                jsr        [PC - 0x1B18 /* 000024A0 */]
00003FBA  4FEF 0014                lea.l      A7, [A7 + 0x14]
00003FBE  6018                     bra        +0x1A /* 00003FD8 */
label00003FC0:
00003FC0  2F2E 0018                move.l     -[A7], [A6 + 0x18]
00003FC4  48C7                     ext.l      D7
00003FC6  2F07                     move.l     -[A7], D7
00003FC8  2F0B                     move.l     -[A7], A3
00003FCA  48C6                     ext.l      D6
00003FCC  2F06                     move.l     -[A7], D6
00003FCE  2F0C                     move.l     -[A7], A4
00003FD0  4EBA E4CE                jsr        [PC - 0x1B32 /* 000024A0 */]
00003FD4  4FEF 0014                lea.l      A7, [A7 + 0x14]
label00003FD8:
00003FD8  4CEE 18C0 FFF0           movem.l    D6,D7,A3,A4, [A6 - 0x10]
00003FDE  4E5E                     unlink     A6
00003FE0  4E75                     rts
00003FE2  8026 4E65 7742 7574 7... dc.b       "NewButton__12cAlertWindowFsR4RectT1PUc"
export_597:
0000400C  4E56 0000                link       A6, 0
00004010  2F0C                     move.l     -[A7], A4
00004012  286E 0008                movea.l    A4, [A6 + 0x8]
00004016  7000                     moveq.l    D0, 0x00
00004018  2F00                     move.l     -[A7], D0
0000401A  2F3C 416C 7431           move.l     -[A7], 0x416C7431 /* 'Alt1' */
00004020  204C                     movea.l    A0, A4
00004022  226C 0060                movea.l    A1, [A4 + 0x60]
00004026  D0E9 0060                add.w      A0, [A1 + 0x60]
0000402A  2F08                     move.l     -[A7], A0
0000402C  2049                     movea.l    A0, A1
0000402E  2268 0064                movea.l    A1, [A0 + 0x64]
00004032  4E91                     jsr        [A1]
00004034  204C                     movea.l    A0, A4
00004036  226C 0060                movea.l    A1, [A4 + 0x60]
0000403A  D0E9 0078                add.w      A0, [A1 + 0x78]
0000403E  2F08                     move.l     -[A7], A0
00004040  2049                     movea.l    A0, A1
00004042  2268 007C                movea.l    A1, [A0 + 0x7C]
00004046  4E91                     jsr        [A1]
00004048  286E FFFC                movea.l    A4, [A6 - 0x4]
0000404C  4E5E                     unlink     A6
0000404E  4E75                     rts
00004050  8025 4361 6E63 656C 4... dc.b       "CancelButtonPressed__12cAlertWindowFv"
export_598:
0000407A  4E56 0000                link       A6, 0
0000407E  2F0C                     move.l     -[A7], A4
00004080  286E 0008                movea.l    A4, [A6 + 0x8]
00004084  302E 000E                move.w     D0, [A6 + 0xE]
00004088  48C0                     ext.l      D0
0000408A  2F00                     move.l     -[A7], D0
0000408C  2F3C 416C 7431           move.l     -[A7], 0x416C7431 /* 'Alt1' */
00004092  204C                     movea.l    A0, A4
00004094  226C 0060                movea.l    A1, [A4 + 0x60]
00004098  D0E9 0060                add.w      A0, [A1 + 0x60]
0000409C  2F08                     move.l     -[A7], A0
0000409E  2049                     movea.l    A0, A1
000040A0  2268 0064                movea.l    A1, [A0 + 0x64]
000040A4  4E91                     jsr        [A1]
000040A6  204C                     movea.l    A0, A4
000040A8  226C 0060                movea.l    A1, [A4 + 0x60]
000040AC  D0E9 0078                add.w      A0, [A1 + 0x78]
000040B0  2F08                     move.l     -[A7], A0
000040B2  2049                     movea.l    A0, A1
000040B4  2268 007C                movea.l    A1, [A0 + 0x7C]
000040B8  4E91                     jsr        [A1]
000040BA  286E FFFC                movea.l    A4, [A6 - 0x4]
000040BE  4E5E                     unlink     A6
000040C0  4E75                     rts
000040C2  8024 4F74 6865 7242 7... dc.b       "OtherButtonPressed__12cAlertWindowFs"
export_599:
000040EA  4E56 0000                link       A6, 0
000040EE  2F0C                     move.l     -[A7], A4
000040F0  286E 0008                movea.l    A4, [A6 + 0x8]
000040F4  7000                     moveq.l    D0, 0x00
000040F6  2F00                     move.l     -[A7], D0
000040F8  2F3C 416C 7430           move.l     -[A7], 0x416C7430 /* 'Alt0' */
000040FE  204C                     movea.l    A0, A4
00004100  226C 0060                movea.l    A1, [A4 + 0x60]
00004104  D0E9 0060                add.w      A0, [A1 + 0x60]
00004108  2F08                     move.l     -[A7], A0
0000410A  2049                     movea.l    A0, A1
0000410C  2268 0064                movea.l    A1, [A0 + 0x64]
00004110  4E91                     jsr        [A1]
00004112  204C                     movea.l    A0, A4
00004114  226C 0060                movea.l    A1, [A4 + 0x60]
00004118  D0E9 0078                add.w      A0, [A1 + 0x78]
0000411C  2F08                     move.l     -[A7], A0
0000411E  2049                     movea.l    A0, A1
00004120  2268 007C                movea.l    A1, [A0 + 0x7C]
00004124  4E91                     jsr        [A1]
00004126  286E FFFC                movea.l    A4, [A6 - 0x4]
0000412A  4E5E                     unlink     A6
0000412C  4E75                     rts
0000412E  8021 4F6B 4275 7474 6... dc.b       "OkButtonPressed__12cAlertWindowFv"
export_600:
00004154  4E56 0000                link       A6, 0
00004158  48E7 0118                movem.l    -[A7], D7,A3,A4
0000415C  2E2E 000C                move.l     D7, [A6 + 0xC]
00004160  266E 0010                movea.l    A3, [A6 + 0x10]
00004164  286E 0008                movea.l    A4, [A6 + 0x8]
00004168  2007                     move.l     D0, D7
0000416A  0480 4742 5430           subi.l     D0, 0x47425430 /* 'GBT0' */
00004170  6600 00C4                bne        +0xC6 /* 00004236 */
00004174  B7EC 016C                cmpa.l     A3, [A4 + 0x16C]
00004178  661A                     bne        +0x1C /* 00004194 */
0000417A  204C                     movea.l    A0, A4
0000417C  226C 0060                movea.l    A1, [A4 + 0x60]
00004180  D0E9 01F0                add.w      A0, [A1 + 0x1F0]
00004184  2F08                     move.l     -[A7], A0
00004186  2049                     movea.l    A0, A1
00004188  2268 01F4                movea.l    A1, [A0 + 0x1F4]
0000418C  4E91                     jsr        [A1]
0000418E  584F                     addq.w     A7, 4
00004190  6000 00B6                bra        +0xB8 /* 00004248 */
label00004194:
00004194  B7EC 0170                cmpa.l     A3, [A4 + 0x170]
00004198  661A                     bne        +0x1C /* 000041B4 */
0000419A  204C                     movea.l    A0, A4
0000419C  226C 0060                movea.l    A1, [A4 + 0x60]
000041A0  D0E9 01F8                add.w      A0, [A1 + 0x1F8]
000041A4  2F08                     move.l     -[A7], A0
000041A6  2049                     movea.l    A0, A1
000041A8  2268 01FC                movea.l    A1, [A0 + 0x1FC]
000041AC  4E91                     jsr        [A1]
000041AE  584F                     addq.w     A7, 4
000041B0  6000 0096                bra        +0x98 /* 00004248 */
label000041B4:
000041B4  B7EC 0174                cmpa.l     A3, [A4 + 0x174]
000041B8  661C                     bne        +0x1E /* 000041D6 */
000041BA  7003                     moveq.l    D0, 0x03
000041BC  2F00                     move.l     -[A7], D0
000041BE  204C                     movea.l    A0, A4
000041C0  226C 0060                movea.l    A1, [A4 + 0x60]
000041C4  D0E9 0200                add.w      A0, [A1 + 0x200]
000041C8  2F08                     move.l     -[A7], A0
000041CA  2049                     movea.l    A0, A1
000041CC  2268 0204                movea.l    A1, [A0 + 0x204]
000041D0  4E91                     jsr        [A1]
000041D2  504F                     addq.w     A7, 8
000041D4  6072                     bra        +0x74 /* 00004248 */
label000041D6:
000041D6  B7EC 0178                cmpa.l     A3, [A4 + 0x178]
000041DA  661C                     bne        +0x1E /* 000041F8 */
000041DC  7004                     moveq.l    D0, 0x04
000041DE  2F00                     move.l     -[A7], D0
000041E0  204C                     movea.l    A0, A4
000041E2  226C 0060                movea.l    A1, [A4 + 0x60]
000041E6  D0E9 0200                add.w      A0, [A1 + 0x200]
000041EA  2F08                     move.l     -[A7], A0
000041EC  2049                     movea.l    A0, A1
000041EE  2268 0204                movea.l    A1, [A0 + 0x204]
000041F2  4E91                     jsr        [A1]
000041F4  504F                     addq.w     A7, 8
000041F6  6050                     bra        +0x52 /* 00004248 */
label000041F8:
000041F8  B7EC 017C                cmpa.l     A3, [A4 + 0x17C]
000041FC  661C                     bne        +0x1E /* 0000421A */
000041FE  7005                     moveq.l    D0, 0x05
00004200  2F00                     move.l     -[A7], D0
00004202  204C                     movea.l    A0, A4
00004204  226C 0060                movea.l    A1, [A4 + 0x60]
00004208  D0E9 0200                add.w      A0, [A1 + 0x200]
0000420C  2F08                     move.l     -[A7], A0
0000420E  2049                     movea.l    A0, A1
00004210  2268 0204                movea.l    A1, [A0 + 0x204]
00004214  4E91                     jsr        [A1]
00004216  504F                     addq.w     A7, 8
00004218  602E                     bra        +0x30 /* 00004248 */
label0000421A:
0000421A  7006                     moveq.l    D0, 0x06
0000421C  2F00                     move.l     -[A7], D0
0000421E  204C                     movea.l    A0, A4
00004220  226C 0060                movea.l    A1, [A4 + 0x60]
00004224  D0E9 0200                add.w      A0, [A1 + 0x200]
00004228  2F08                     move.l     -[A7], A0
0000422A  2049                     movea.l    A0, A1
0000422C  2268 0204                movea.l    A1, [A0 + 0x204]
00004230  4E91                     jsr        [A1]
00004232  504F                     addq.w     A7, 8
00004234  6012                     bra        +0x14 /* 00004248 */
label00004236:
00004236  2F2E 0014                move.l     -[A7], [A6 + 0x14]
0000423A  2F0B                     move.l     -[A7], A3
0000423C  2F07                     move.l     -[A7], D7
0000423E  2F0C                     move.l     -[A7], A4
00004240  4EBA DF6A                jsr        [PC - 0x2096 /* 000021AC */]
00004244  4FEF 0010                lea.l      A7, [A7 + 0x10]
label00004248:
00004248  4CEE 1880 FFF4           movem.l    D7,A3,A4, [A6 - 0xC]
0000424E  4E5E                     unlink     A6
00004250  4E75                     rts
00004252  802A 4861 7342 6565 6... dc.b       "HasBeenAChange__12cAlertWindowFlP6cAgentPc"
export_601:
00004280  4E56 0000                link       A6, 0
00004284  48E7 0118                movem.l    -[A7], D7,A3,A4
00004288  266E 000C                movea.l    A3, [A6 + 0xC]
0000428C  286E 0008                movea.l    A4, [A6 + 0x8]
00004290  203C 0000 00FF           move.l     D0, 0xFF
00004296  C0AB 0002                and.l      D0, [A3 + 0x2]
0000429A  720D                     moveq.l    D1, 0x0D
0000429C  B280                     cmp.l      D1, D0
0000429E  6618                     bne        +0x1A /* 000042B8 */
000042A0  4AAC 016C                tst.l      [A4 + 0x16C]
000042A4  670E                     beq        +0x10 /* 000042B4 */
000042A6  7001                     moveq.l    D0, 0x01
000042A8  2F00                     move.l     -[A7], D0
000042AA  2F2C 016C                move.l     -[A7], [A4 + 0x16C]
000042AE  4EAD 19EA                jsr        [A5 + 0x19EA /* export_825, CODE:34 @ 000007C0 */]
000042B2  504F                     addq.w     A7, 8
label000042B4:
000042B4  7001                     moveq.l    D0, 0x01
000042B6  600C                     bra        +0xE /* 000042C4 */
label000042B8:
000042B8  2F0B                     move.l     -[A7], A3
000042BA  2F0C                     move.l     -[A7], A4
000042BC  4EBA D432                jsr        [PC - 0x2BCE /* 000016F0 */]
000042C0  1E00                     move.b     D7, D0
000042C2  504F                     addq.w     A7, 8
label000042C4:
000042C4  4CEE 1880 FFF4           movem.l    D7,A3,A4, [A6 - 0xC]
000042CA  4E5E                     unlink     A6
000042CC  4E75                     rts
000042CE  8026 4B65 7944 6F77 6... dc.b       "KeyDown__12cAlertWindowFR11EventRecord"
export_602:
fn000042F8:
000042F8  4E56 0000                link       A6, 0
000042FC  48E7 0108                movem.l    -[A7], D7,A4
00004300  2E2E 000C                move.l     D7, [A6 + 0xC]
00004304  286E 0008                movea.l    A4, [A6 + 0x8]
00004308  200C                     move.l     D0, A4
0000430A  6776                     beq        +0x78 /* 00004382 */
0000430C  296D FE30 0070           move.l     [A4 + 0x70], [A5 - 0x1D0]
00004312  206C 0064                movea.l    A0, [A4 + 0x64]
00004316  216D FE34 0008           move.l     [A0 + 0x8], [A5 - 0x1CC]
0000431C  296D FE38 0060           move.l     [A4 + 0x60], [A5 - 0x1C8]
00004322  7000                     moveq.l    D0, 0x00
00004324  2F00                     move.l     -[A7], D0
00004326  2F3C 5359 5332           move.l     -[A7], 0x53595332 /* 'SYS2' */
0000432C  204C                     movea.l    A0, A4
0000432E  226C 0060                movea.l    A1, [A4 + 0x60]
00004332  D0E9 0060                add.w      A0, [A1 + 0x60]
00004336  2F08                     move.l     -[A7], A0
00004338  2049                     movea.l    A0, A1
0000433A  2268 0064                movea.l    A1, [A0 + 0x64]
0000433E  4E91                     jsr        [A1]
00004340  200C                     move.l     D0, A4
00004342  4FEF 000C                lea.l      A7, [A7 + 0xC]
00004346  673A                     beq        +0x3C /* 00004382 */
00004348  7000                     moveq.l    D0, 0x00
0000434A  2F00                     move.l     -[A7], D0
0000434C  2F0C                     move.l     -[A7], A4
0000434E  4EBA C09C                jsr        [PC - 0x3F64 /* 000003EC */]
00004352  7002                     moveq.l    D0, 0x02
00004354  C087                     and.l      D0, D7
00004356  6718                     beq        +0x1A /* 00004370 */
00004358  7000                     moveq.l    D0, 0x00
0000435A  2F00                     move.l     -[A7], D0
0000435C  220C                     move.l     D1, A4
0000435E  D2BC 0000 016C           add.l      D1, 0x16C
00004364  2F01                     move.l     -[A7], D1
00004366  4EAD 1632                jsr        [A5 + 0x1632 /* export_706, CODE:32 @ 000036CC */]
0000436A  7000                     moveq.l    D0, 0x00
0000436C  504F                     addq.w     A7, 8
0000436E  6002                     bra        +0x4 /* 00004372 */
label00004370:
00004370  7000                     moveq.l    D0, 0x00
label00004372:
00004372  0807 0000                btst.b     D7, 0x0
00004376  504F                     addq.w     A7, 8
00004378  6708                     beq        +0xA /* 00004382 */
0000437A  2F0C                     move.l     -[A7], A4
0000437C  4EAD 0102                jsr        [A5 + 0x102 /* export_28, CODE:1 @ 00001BE0 */]
00004380  584F                     addq.w     A7, 4
label00004382:
00004382  4CEE 1080 FFF8           movem.l    D7,A4, [A6 - 0x8]
00004388  4E5E                     unlink     A6
0000438A  4E75                     rts
0000438C  965F 5F64 745F 5F31 3... dc.b       "__dt__12cModalWindowFv"
export_603:
fn000043A6:
000043A6  4E56 0000                link       A6, 0
000043AA  2F0C                     move.l     -[A7], A4
000043AC  286E 0008                movea.l    A4, [A6 + 0x8]
000043B0  70FF                     moveq.l    D0, 0xFFFFFFFF
000043B2  2F00                     move.l     -[A7], D0
000043B4  322E 000E                move.w     D1, [A6 + 0xE]
000043B8  48C1                     ext.l      D1
000043BA  2F01                     move.l     -[A7], D1
000043BC  204C                     movea.l    A0, A4
000043BE  226C 0060                movea.l    A1, [A4 + 0x60]
000043C2  D0E9 0068                add.w      A0, [A1 + 0x68]
000043C6  2F08                     move.l     -[A7], A0
000043C8  2049                     movea.l    A0, A1
000043CA  2268 006C                movea.l    A1, [A0 + 0x6C]
000043CE  4E91                     jsr        [A1]
000043D0  2F0C                     move.l     -[A7], A4
000043D2  2F3C 5359 5331           move.l     -[A7], 0x53595331 /* 'SYS1' */
000043D8  204C                     movea.l    A0, A4
000043DA  226C 0060                movea.l    A1, [A4 + 0x60]
000043DE  D0E9 0060                add.w      A0, [A1 + 0x60]
000043E2  2F08                     move.l     -[A7], A0
000043E4  2049                     movea.l    A0, A1
000043E6  2268 0064                movea.l    A1, [A0 + 0x64]
000043EA  4E91                     jsr        [A1]
000043EC  286E FFFC                movea.l    A4, [A6 - 0x4]
000043F0  4E5E                     unlink     A6
000043F2  4E75                     rts
000043F4  9942 7569 6C64 4974 5... dc.b       "BuildIt__12cModalWindowFs"
export_604:
00004410  4E56 0000                link       A6, 0
00004414  48E7 0108                movem.l    -[A7], D7,A4
00004418  1E2E 000F                move.b     D7, [A6 + 0xF]
0000441C  286E 0008                movea.l    A4, [A6 + 0x8]
00004420  7000                     moveq.l    D0, 0x00
00004422  1007                     move.b     D0, D7
00004424  2F00                     move.l     -[A7], D0
00004426  2F0C                     move.l     -[A7], A4
00004428  4EBA D62C                jsr        [PC - 0x29D4 /* 00001A56 */]
0000442C  4A07                     tst.b      D7
0000442E  504F                     addq.w     A7, 8
00004430  6624                     bne        +0x26 /* 00004456 */
00004432  7000                     moveq.l    D0, 0x00
00004434  2F00                     move.l     -[A7], D0
00004436  2F3C 5359 5332           move.l     -[A7], 0x53595332 /* 'SYS2' */
0000443C  204C                     movea.l    A0, A4
0000443E  226C 0060                movea.l    A1, [A4 + 0x60]
00004442  D0E9 0060                add.w      A0, [A1 + 0x60]
00004446  2F08                     move.l     -[A7], A0
00004448  2049                     movea.l    A0, A1
0000444A  2268 0064                movea.l    A1, [A0 + 0x64]
0000444E  4E91                     jsr        [A1]
00004450  4FEF 000C                lea.l      A7, [A7 + 0xC]
00004454  6020                     bra        +0x22 /* 00004476 */
label00004456:
00004456  2F0C                     move.l     -[A7], A4
00004458  2F3C 5359 5331           move.l     -[A7], 0x53595331 /* 'SYS1' */
0000445E  204C                     movea.l    A0, A4
00004460  226C 0060                movea.l    A1, [A4 + 0x60]
00004464  D0E9 0060                add.w      A0, [A1 + 0x60]
00004468  2F08                     move.l     -[A7], A0
0000446A  2049                     movea.l    A0, A1
0000446C  2268 0064                movea.l    A1, [A0 + 0x64]
00004470  4E91                     jsr        [A1]
00004472  4FEF 000C                lea.l      A7, [A7 + 0xC]
label00004476:
00004476  4CEE 1080 FFF8           movem.l    D7,A4, [A6 - 0x8]
0000447C  4E5E                     unlink     A6
0000447E  4E75                     rts
00004480  9B41 6374 6976 6174 6... dc.b       "Activate__12cModalWindowFUc"
export_605:
0000449E  4E56 0000                link       A6, 0
000044A2  2F0C                     move.l     -[A7], A4
000044A4  286E 0008                movea.l    A4, [A6 + 0x8]
000044A8  7000                     moveq.l    D0, 0x00
000044AA  2F00                     move.l     -[A7], D0
000044AC  2F3C 5359 5332           move.l     -[A7], 0x53595332 /* 'SYS2' */
000044B2  204C                     movea.l    A0, A4
000044B4  226C 0060                movea.l    A1, [A4 + 0x60]
000044B8  D0E9 0060                add.w      A0, [A1 + 0x60]
000044BC  2F08                     move.l     -[A7], A0
000044BE  2049                     movea.l    A0, A1
000044C0  2268 0064                movea.l    A1, [A0 + 0x64]
000044C4  4E91                     jsr        [A1]
000044C6  204C                     movea.l    A0, A4
000044C8  226C 0060                movea.l    A1, [A4 + 0x60]
000044CC  D0E9 0110                add.w      A0, [A1 + 0x110]
000044D0  2F08                     move.l     -[A7], A0
000044D2  2049                     movea.l    A0, A1
000044D4  2268 0114                movea.l    A1, [A0 + 0x114]
000044D8  4E91                     jsr        [A1]
000044DA  2F0C                     move.l     -[A7], A4
000044DC  2F3C 5359 5333           move.l     -[A7], 0x53595333 /* 'SYS3' */
000044E2  204C                     movea.l    A0, A4
000044E4  226C 0060                movea.l    A1, [A4 + 0x60]
000044E8  D0E9 0060                add.w      A0, [A1 + 0x60]
000044EC  2F08                     move.l     -[A7], A0
000044EE  2049                     movea.l    A0, A1
000044F0  2268 0064                movea.l    A1, [A0 + 0x64]
000044F4  4E91                     jsr        [A1]
000044F6  7001                     moveq.l    D0, 0x01
000044F8  286E FFFC                movea.l    A4, [A6 - 0x4]
000044FC  4E5E                     unlink     A6
000044FE  4E75                     rts
00004500  9743 6C6F 7365 5F5F 3... dc.b       "Close__12cModalWindowFv"
export_606:
0000451A  4E56 0000                link       A6, 0
0000451E  206E 0008                movea.l    A0, [A6 + 0x8]
00004522  317C 0002 0180           move.w     [A0 + 0x180], 0x2
00004528  4E5E                     unlink     A6
0000452A  4E75                     rts
0000452C  8026 4361 6E63 656C 4... dc.b       "CancelButtonPressed__13cDieHardAlertFv"
export_607:
00004556  4E56 0000                link       A6, 0
0000455A  206E 0008                movea.l    A0, [A6 + 0x8]
0000455E  316E 000E 0180           move.w     [A0 + 0x180], [A6 + 0xE]
00004564  4E5E                     unlink     A6
00004566  4E75                     rts
00004568  8025 4F74 6865 7242 7... dc.b       "OtherButtonPressed__13cDieHardAlertFs"
export_608:
00004592  4E56 FFE8                link       A6, -0x0018
00004596  48E7 0718                movem.l    -[A7], D5,D6,D7,A3,A4
0000459A  3A2E 0016                move.w     D5, [A6 + 0x16]
0000459E  2E2E 0010                move.l     D7, [A6 + 0x10]
000045A2  286E 0008                movea.l    A4, [A6 + 0x8]
000045A6  302E 000E                move.w     D0, [A6 + 0xE]
000045AA  48C0                     ext.l      D0
000045AC  2F00                     move.l     -[A7], D0
000045AE  2F0C                     move.l     -[A7], A4
000045B0  4EBA FDF4                jsr        [PC - 0x20C /* 000043A6 */]
000045B4  4A2D F110                tst.b      [A5 - 0xEF0]
000045B8  504F                     addq.w     A7, 8
000045BA  671E                     beq        +0x20 /* 000045DA */
000045BC  204C                     movea.l    A0, A4
000045BE  226C 0060                movea.l    A1, [A4 + 0x60]
000045C2  D0E9 0210                add.w      A0, [A1 + 0x210]
000045C6  2F08                     move.l     -[A7], A0
000045C8  2049                     movea.l    A0, A1
000045CA  2268 0214                movea.l    A1, [A0 + 0x214]
000045CE  4E91                     jsr        [A1]
000045D0  197C 0001 0182           move.b     [A4 + 0x182], 0x1
000045D6  584F                     addq.w     A7, 4
000045D8  601E                     bra        +0x20 /* 000045F8 */
label000045DA:
000045DA  7001                     moveq.l    D0, 0x01
000045DC  2F00                     move.l     -[A7], D0
000045DE  204C                     movea.l    A0, A4
000045E0  226C 0060                movea.l    A1, [A4 + 0x60]
000045E4  D0E9 0108                add.w      A0, [A1 + 0x108]
000045E8  2F08                     move.l     -[A7], A0
000045EA  2049                     movea.l    A0, A1
000045EC  2268 010C                movea.l    A1, [A0 + 0x10C]
000045F0  4E91                     jsr        [A1]
000045F2  422C 0182                clr.b      [A4 + 0x182]
000045F6  504F                     addq.w     A7, 8
label000045F8:
000045F8  426C 0180                clr.w      [A4 + 0x180]
000045FC  598F                     subq.l     A7, 4
000045FE  A975                     syscall    TickCount
00004600  295F 01A8                move.l     [A4 + 0x1A8], [A7]+
00004604  7000                     moveq.l    D0, 0x00
00004606  2D40 FFFC                move.l     [A6 - 0x4], D0
0000460A  6000 0238                bra        +0x23A /* 00004844 */
label0000460E:
0000460E  558F                     subq.l     A7, 2
00004610  70FF                     moveq.l    D0, 0xFFFFFFFF
00004612  3F00                     move.w     -[A7], D0
00004614  486E FFE8                pea.l      [A6 - 0x18]
00004618  7200                     moveq.l    D1, 0x00
0000461A  2F01                     move.l     -[A7], D1
0000461C  2F2E FFFC                move.l     -[A7], [A6 - 0x4]
00004620  A860                     syscall    WaitNextEvent
00004622  1C1F                     move.b     D6, [A7]+
00004624  4A2C 0182                tst.b      [A4 + 0x182]
00004628  6728                     beq        +0x2A /* 00004652 */
0000462A  700F                     moveq.l    D0, 0x0F
0000462C  B06E FFE8                cmp.w      D0, [A6 - 0x18]
00004630  6600 0212                bne        +0x214 /* 00004844 */
00004634  486E FFE8                pea.l      [A6 - 0x18]
00004638  204C                     movea.l    A0, A4
0000463A  226C 0060                movea.l    A1, [A4 + 0x60]
0000463E  D0E9 0220                add.w      A0, [A1 + 0x220]
00004642  2F08                     move.l     -[A7], A0
00004644  2049                     movea.l    A0, A1
00004646  2268 0224                movea.l    A1, [A0 + 0x224]
0000464A  4E91                     jsr        [A1]
0000464C  504F                     addq.w     A7, 8
0000464E  6000 01F4                bra        +0x1F6 /* 00004844 */
label00004652:
00004652  4A87                     tst.l      D7
00004654  6F12                     ble        +0x14 /* 00004668 */
00004656  598F                     subq.l     A7, 4
00004658  A975                     syscall    TickCount
0000465A  201F                     move.l     D0, [A7]+
0000465C  90AC 01A8                sub.l      D0, [A4 + 0x1A8]
00004660  BE80                     cmp.l      D7, D0
00004662  6404                     bcc        +0x6 /* 00004668 */
00004664  3945 0180                move.w     [A4 + 0x180], D5
label00004668:
00004668  4A06                     tst.b      D6
0000466A  661A                     bne        +0x1C /* 00004686 */
0000466C  204C                     movea.l    A0, A4
0000466E  226C 0060                movea.l    A1, [A4 + 0x60]
00004672  D0E9 0118                add.w      A0, [A1 + 0x118]
00004676  2F08                     move.l     -[A7], A0
00004678  2049                     movea.l    A0, A1
0000467A  2268 011C                movea.l    A1, [A0 + 0x11C]
0000467E  4E91                     jsr        [A1]
00004680  584F                     addq.w     A7, 4
00004682  6000 01C0                bra        +0x1C2 /* 00004844 */
label00004686:
00004686  302E FFE8                move.w     D0, [A6 - 0x18]
0000468A  6B00 01B8                bmi        +0x1BA /* 00004844 */
0000468E  0C40 0017                cmpi.w     D0, 0x17
00004692  6E00 01B0                bgt        +0x1B2 /* 00004844 */
00004696  D040                     add.w      D0, D0
00004698  303B 0006                move.w     D0, [PC + D0.w + 0x6]
0000469C  4EFB 0000                jmp        [PC + D0.w]
000046A0  0190                     bclr       [A0], D0
000046A2  0032 01A6 00FE           ori.b      [A2 + D0.w - 0x2], 0xA6
000046A8  011C                     btst       [A4]+, D0
000046AA  00FE                     .incomplete
000046AC  0138 01A6                btst       [0x000001A6], D0
000046B0  0160                     bchg       -[A0], D0
000046B2  01A6                     bclr       -[A6], D0
000046B4  01A6                     bclr       -[A6], D0
000046B6  01A6                     bclr       -[A6], D0
000046B8  01A6                     bclr       -[A6], D0
000046BA  01A6                     bclr       -[A6], D0
000046BC  01A6                     bclr       -[A6], D0
000046BE  01A6                     bclr       -[A6], D0
000046C0  01A6                     bclr       -[A6], D0
000046C2  01A6                     bclr       -[A6], D0
000046C4  01A6                     bclr       -[A6], D0
000046C6  01A6                     bclr       -[A6], D0
000046C8  01A6                     bclr       -[A6], D0
000046CA  01A6                     bclr       -[A6], D0
000046CC  01A6                     bclr       -[A6], D0
000046CE  01A6                     bclr       -[A6], D0
000046D0  558F                     subq.l     A7, 2
000046D2  2F2E FFF2                move.l     -[A7], [A6 - 0xE]
000046D6  486E FFF8                pea.l      [A6 - 0x8]
000046DA  A92C                     syscall    FindWindow
000046DC  301F                     move.w     D0, [A7]+
000046DE  6B00 0164                bmi        +0x166 /* 00004844 */
000046E2  0C40 0008                cmpi.w     D0, 0x8
000046E6  6E00 015C                bgt        +0x15E /* 00004844 */
000046EA  D040                     add.w      D0, D0
000046EC  303B 0006                move.w     D0, [PC + D0.w + 0x6]
000046F0  4EFB 0000                jmp        [PC + D0.w]
000046F4  0152                     bchg       [A2], D0
000046F6  0152                     bchg       [A2], D0
000046F8  0152                     bchg       [A2], D0
000046FA  0018 004C                ori.b      [A0]+, 0x4C /* 'L' */
000046FE  0152                     bchg       [A2], D0
00004700  0080 0152 0152           ori.l      D0, 0x1520152
00004706  6000 013C                bra        +0x13E /* 00004844 */
0000470A  206E FFF8                movea.l    A0, [A6 - 0x8]
0000470E  2668 0098                movea.l    A3, [A0 + 0x98]
00004712  B9CB                     cmpa.l     A4, A3
00004714  670A                     beq        +0xC /* 00004720 */
00004716  7001                     moveq.l    D0, 0x01
00004718  3F00                     move.w     -[A7], D0
0000471A  A9C8                     syscall    SysBeep
0000471C  6000 0126                bra        +0x128 /* 00004844 */
label00004720:
00004720  486E FFE8                pea.l      [A6 - 0x18]
00004724  204C                     movea.l    A0, A4
00004726  226C 0060                movea.l    A1, [A4 + 0x60]
0000472A  D0E9 0080                add.w      A0, [A1 + 0x80]
0000472E  2F08                     move.l     -[A7], A0
00004730  2049                     movea.l    A0, A1
00004732  2268 0084                movea.l    A1, [A0 + 0x84]
00004736  4E91                     jsr        [A1]
00004738  504F                     addq.w     A7, 8
0000473A  6000 0108                bra        +0x10A /* 00004844 */
0000473E  206E FFF8                movea.l    A0, [A6 - 0x8]
00004742  2668 0098                movea.l    A3, [A0 + 0x98]
00004746  B9CB                     cmpa.l     A4, A3
00004748  670A                     beq        +0xC /* 00004754 */
0000474A  7001                     moveq.l    D0, 0x01
0000474C  3F00                     move.w     -[A7], D0
0000474E  A9C8                     syscall    SysBeep
00004750  6000 00F2                bra        +0xF4 /* 00004844 */
label00004754:
00004754  486E FFE8                pea.l      [A6 - 0x18]
00004758  204C                     movea.l    A0, A4
0000475A  226C 0060                movea.l    A1, [A4 + 0x60]
0000475E  D0E9 0088                add.w      A0, [A1 + 0x88]
00004762  2F08                     move.l     -[A7], A0
00004764  2049                     movea.l    A0, A1
00004766  2268 008C                movea.l    A1, [A0 + 0x8C]
0000476A  4E91                     jsr        [A1]
0000476C  504F                     addq.w     A7, 8
0000476E  6000 00D4                bra        +0xD6 /* 00004844 */
00004772  206E FFF8                movea.l    A0, [A6 - 0x8]
00004776  2668 0098                movea.l    A3, [A0 + 0x98]
0000477A  200B                     move.l     D0, A3
0000477C  6700 00C6                beq        +0xC8 /* 00004844 */
00004780  558F                     subq.l     A7, 2
00004782  2F2E FFF8                move.l     -[A7], [A6 - 0x8]
00004786  2F2E FFF2                move.l     -[A7], [A6 - 0xE]
0000478A  A91E                     syscall    TrackGoAway
0000478C  4A1F                     tst.b      [A7]+
0000478E  6700 00B4                beq        +0xB6 /* 00004844 */
00004792  397C 0001 0180           move.w     [A4 + 0x180], 0x1
00004798  6000 00AA                bra        +0xAC /* 00004844 */
0000479C  486E FFE8                pea.l      [A6 - 0x18]
000047A0  204C                     movea.l    A0, A4
000047A2  226C 0060                movea.l    A1, [A4 + 0x60]
000047A6  D0E9 00A0                add.w      A0, [A1 + 0xA0]
000047AA  2F08                     move.l     -[A7], A0
000047AC  2049                     movea.l    A0, A1
000047AE  2268 00A4                movea.l    A1, [A0 + 0xA4]
000047B2  4E91                     jsr        [A1]
000047B4  504F                     addq.w     A7, 8
000047B6  6000 008C                bra        +0x8E /* 00004844 */
000047BA  486E FFE8                pea.l      [A6 - 0x18]
000047BE  204C                     movea.l    A0, A4
000047C0  226C 0060                movea.l    A1, [A4 + 0x60]
000047C4  D0E9 00A8                add.w      A0, [A1 + 0xA8]
000047C8  2F08                     move.l     -[A7], A0
000047CA  2049                     movea.l    A0, A1
000047CC  2268 00AC                movea.l    A1, [A0 + 0xAC]
000047D0  4E91                     jsr        [A1]
000047D2  504F                     addq.w     A7, 8
000047D4  606E                     bra        +0x70 /* 00004844 */
000047D6  206E FFEA                movea.l    A0, [A6 - 0x16]
000047DA  2668 0098                movea.l    A3, [A0 + 0x98]
000047DE  200B                     move.l     D0, A3
000047E0  6762                     beq        +0x64 /* 00004844 */
000047E2  7001                     moveq.l    D0, 0x01
000047E4  2F00                     move.l     -[A7], D0
000047E6  204B                     movea.l    A0, A3
000047E8  226B 0060                movea.l    A1, [A3 + 0x60]
000047EC  D0E9 00B0                add.w      A0, [A1 + 0xB0]
000047F0  2F08                     move.l     -[A7], A0
000047F2  2049                     movea.l    A0, A1
000047F4  2268 00B4                movea.l    A1, [A0 + 0xB4]
000047F8  4E91                     jsr        [A1]
000047FA  504F                     addq.w     A7, 8
000047FC  6046                     bra        +0x48 /* 00004844 */
000047FE  206E FFEA                movea.l    A0, [A6 - 0x16]
00004802  2668 0098                movea.l    A3, [A0 + 0x98]
00004806  200B                     move.l     D0, A3
00004808  673A                     beq        +0x3C /* 00004844 */
0000480A  7001                     moveq.l    D0, 0x01
0000480C  C06E FFF6                and.w      D0, [A6 - 0xA]
00004810  7200                     moveq.l    D1, 0x00
00004812  1200                     move.b     D1, D0
00004814  2F01                     move.l     -[A7], D1
00004816  204B                     movea.l    A0, A3
00004818  226B 0060                movea.l    A1, [A3 + 0x60]
0000481C  D0E9 00B8                add.w      A0, [A1 + 0xB8]
00004820  2F08                     move.l     -[A7], A0
00004822  2049                     movea.l    A0, A1
00004824  2268 00BC                movea.l    A1, [A0 + 0xBC]
00004828  4E91                     jsr        [A1]
0000482A  504F                     addq.w     A7, 8
0000482C  6016                     bra        +0x18 /* 00004844 */
0000482E  204C                     movea.l    A0, A4
00004830  226C 0060                movea.l    A1, [A4 + 0x60]
00004834  D0E9 0118                add.w      A0, [A1 + 0x118]
00004838  2F08                     move.l     -[A7], A0
0000483A  2049                     movea.l    A0, A1
0000483C  2268 011C                movea.l    A1, [A0 + 0x11C]
00004840  4E91                     jsr        [A1]
00004842  584F                     addq.w     A7, 4
label00004844:
00004844  4A6C 0180                tst.w      [A4 + 0x180]
00004848  6700 FDC4                beq        -0x23A /* 0000460E */
0000484C  204C                     movea.l    A0, A4
0000484E  226C 0060                movea.l    A1, [A4 + 0x60]
00004852  D0E9 0078                add.w      A0, [A1 + 0x78]
00004856  2F08                     move.l     -[A7], A0
00004858  2049                     movea.l    A0, A1
0000485A  2268 007C                movea.l    A1, [A0 + 0x7C]
0000485E  4E91                     jsr        [A1]
00004860  302C 0180                move.w     D0, [A4 + 0x180]
00004864  584F                     addq.w     A7, 4
00004866  4CEE 18E0 FFD4           movem.l    D5,D6,D7,A3,A4, [A6 - 0x2C]
0000486C  4E5E                     unlink     A6
0000486E  4E75                     rts
00004870  802B 4275 696C 6441 6... dc.b       "BuildAndWaitForAnswer__13cDieHardAlertFslT1"
export_609:
000048A0  4E56 0000                link       A6, 0
000048A4  2F0C                     move.l     -[A7], A4
000048A6  286E 0008                movea.l    A4, [A6 + 0x8]
000048AA  206E 000C                movea.l    A0, [A6 + 0xC]
000048AE  7001                     moveq.l    D0, 0x01
000048B0  C0A8 0002                and.l      D0, [A0 + 0x2]
000048B4  676A                     beq        +0x6C /* 00004920 */
000048B6  5380                     subq.l     D0, 1
000048B8  6702                     beq        +0x4 /* 000048BC */
000048BA  6064                     bra        +0x66 /* 00004920 */
label000048BC:
000048BC  4A2C 0182                tst.b      [A4 + 0x182]
000048C0  675E                     beq        +0x60 /* 00004920 */
000048C2  422D F110                clr.b      [A5 - 0xEF0]
000048C6  422C 0182                clr.b      [A4 + 0x182]
000048CA  598F                     subq.l     A7, 4
000048CC  A975                     syscall    TickCount
000048CE  295F 01A8                move.l     [A4 + 0x1A8], [A7]+
000048D2  204C                     movea.l    A0, A4
000048D4  226C 0060                movea.l    A1, [A4 + 0x60]
000048D8  D0E9 0218                add.w      A0, [A1 + 0x218]
000048DC  2F08                     move.l     -[A7], A0
000048DE  2049                     movea.l    A0, A1
000048E0  2268 021C                movea.l    A1, [A0 + 0x21C]
000048E4  4E91                     jsr        [A1]
000048E6  7000                     moveq.l    D0, 0x00
000048E8  2F00                     move.l     -[A7], D0
000048EA  2F3C 574E 4439           move.l     -[A7], 0x574E4439 /* 'WND9' */
000048F0  204C                     movea.l    A0, A4
000048F2  226C 0060                movea.l    A1, [A4 + 0x60]
000048F6  D0E9 0060                add.w      A0, [A1 + 0x60]
000048FA  2F08                     move.l     -[A7], A0
000048FC  2049                     movea.l    A0, A1
000048FE  2268 0064                movea.l    A1, [A0 + 0x64]
00004902  4E91                     jsr        [A1]
00004904  7001                     moveq.l    D0, 0x01
00004906  2F00                     move.l     -[A7], D0
00004908  204C                     movea.l    A0, A4
0000490A  226C 0060                movea.l    A1, [A4 + 0x60]
0000490E  D0E9 0108                add.w      A0, [A1 + 0x108]
00004912  2F08                     move.l     -[A7], A0
00004914  2049                     movea.l    A0, A1
00004916  2268 010C                movea.l    A1, [A0 + 0x10C]
0000491A  4E91                     jsr        [A1]
0000491C  4FEF 0018                lea.l      A7, [A7 + 0x18]
label00004920:
00004920  286E FFFC                movea.l    A4, [A6 - 0x4]
00004924  4E5E                     unlink     A6
00004926  4E75                     rts
00004928  8027 4F53 4576 656E 7... dc.b       "OSEvent__13cDieHardAlertFR11EventRecord"
export_610:
00004954  4E56 0000                link       A6, 0
00004958  48E7 0108                movem.l    -[A7], D7,A4
0000495C  286E 0008                movea.l    A4, [A6 + 0x8]
00004960  397C 0008 0188           move.w     [A4 + 0x188], 0x8
00004966  397C 0001 0192           move.w     [A4 + 0x192], 0x1
0000496C  7000                     moveq.l    D0, 0x00
0000496E  2940 0194                move.l     [A4 + 0x194], D0
00004972  72FF                     moveq.l    D1, 0xFFFFFFFF
00004974  2941 0198                move.l     [A4 + 0x198], D1
00004978  2940 019C                move.l     [A4 + 0x19C], D0
0000497C  2940 01A0                move.l     [A4 + 0x1A0], D0
00004980  2940 01A4                move.l     [A4 + 0x1A4], D0
00004984  41EC 0184                lea.l      A0, [A4 + 0x184]
00004988  A05E                     syscall    NMInstall
0000498A  3E00                     move.w     D7, D0
0000498C  6712                     beq        +0x14 /* 000049A0 */
0000498E  70A6                     moveq.l    D0, 0xFFFFFFA6
00004990  2F00                     move.l     -[A7], D0
00004992  2F0C                     move.l     -[A7], A4
00004994  4EAD 14E2                jsr        [A5 + 0x14E2 /* export_664, CODE:32 @ 000007B8 */]
00004998  397C FFFF 0188           move.w     [A4 + 0x188], 0xFFFF
0000499E  504F                     addq.w     A7, 8
label000049A0:
000049A0  4CEE 1080 FFF8           movem.l    D7,A4, [A6 - 0x8]
000049A6  4E5E                     unlink     A6
000049A8  4E75                     rts
000049AA  8020 4E6F 7469 6679 4... dc.b       "NotifyInstall__13cDieHardAlertFv"
export_611:
000049CE  4E56 0000                link       A6, 0
000049D2  48E7 0108                movem.l    -[A7], D7,A4
000049D6  286E 0008                movea.l    A4, [A6 + 0x8]
000049DA  70FF                     moveq.l    D0, 0xFFFFFFFF
000049DC  B06C 0188                cmp.w      D0, [A4 + 0x188]
000049E0  673C                     beq        +0x3E /* 00004A1E */
000049E2  4AAC 0198                tst.l      [A4 + 0x198]
000049E6  670E                     beq        +0x10 /* 000049F6 */
000049E8  70FF                     moveq.l    D0, 0xFFFFFFFF
000049EA  B0AC 0198                cmp.l      D0, [A4 + 0x198]
000049EE  6706                     beq        +0x8 /* 000049F6 */
000049F0  2F2C 0198                move.l     -[A7], [A4 + 0x198]
000049F4  A9A3                     syscall    ReleaseResource
label000049F6:
000049F6  4AAC 0194                tst.l      [A4 + 0x194]
000049FA  6706                     beq        +0x8 /* 00004A02 */
000049FC  2F2C 0194                move.l     -[A7], [A4 + 0x194]
00004A00  A9A3                     syscall    ReleaseResource
label00004A02:
00004A02  41EC 0184                lea.l      A0, [A4 + 0x184]
00004A06  A05F                     syscall    NMRemove
00004A08  3E00                     move.w     D7, D0
00004A0A  670C                     beq        +0xE /* 00004A18 */
00004A0C  70A5                     moveq.l    D0, 0xFFFFFFA5
00004A0E  2F00                     move.l     -[A7], D0
00004A10  2F0C                     move.l     -[A7], A4
00004A12  4EAD 14E2                jsr        [A5 + 0x14E2 /* export_664, CODE:32 @ 000007B8 */]
00004A16  504F                     addq.w     A7, 8
label00004A18:
00004A18  397C FFFF 0188           move.w     [A4 + 0x188], 0xFFFF
label00004A1E:
00004A1E  4CEE 1080 FFF8           movem.l    D7,A4, [A6 - 0x8]
00004A24  4E5E                     unlink     A6
00004A26  4E75                     rts
00004A28  9F4E 6F74 6966 7952 6... dc.b       "NotifyRemove__13cDieHardAlertFv"
export_612:
00004A4A  4E56 0000                link       A6, 0
00004A4E  206E 0008                movea.l    A0, [A6 + 0x8]
00004A52  317C 0001 0180           move.w     [A0 + 0x180], 0x1
00004A58  4E5E                     unlink     A6
00004A5A  4E75                     rts
00004A5C  8022 4F6B 4275 7474 6... dc.b       "OkButtonPressed__13cDieHardAlertFv"
export_613:
00004A82  4E56 0000                link       A6, 0
00004A86  2F2E 0014                move.l     -[A7], [A6 + 0x14]
00004A8A  2F2E 0010                move.l     -[A7], [A6 + 0x10]
00004A8E  302E 000E                move.w     D0, [A6 + 0xE]
00004A92  48C0                     ext.l      D0
00004A94  2F00                     move.l     -[A7], D0
00004A96  2F2E 0008                move.l     -[A7], [A6 + 0x8]
00004A9A  4EBA DB30                jsr        [PC - 0x24D0 /* 000025CC */]
00004A9E  4E5E                     unlink     A6
00004AA0  4E75                     rts
00004AA2  8029 4E65 7753 7461 7... dc.b       "NewStaticText__13cDieHardAlertFsR4RectPUc"
