# near model CODE resource
# jump table entries: 2392-2405 (14 of them)
export_299:
00000000  4E56 0000                link       A6, 0
00000004  48E7 1018                movem.l    -[A7], D3,A3,A4
00000008  266E 000C                movea.l    A3, [A6 + 0xC]
0000000C  286E 0008                movea.l    A4, [A6 + 0x8]
00000010  200C                     move.l     D0, A4
00000012  6612                     bne        +0x14 /* 00000026 */
00000014  4878 0140                push.l     0x140
00000018  4EAD 010A                jsr        [A5 + 0x10A /* export_29, CODE:1 @ 00001C0A */]
0000001C  2840                     movea.l    A4, D0
0000001E  200C                     move.l     D0, A4
00000020  584F                     addq.w     A7, 4
00000022  6700 00AE                beq        +0xB0 /* 000000D2 */
label00000026:
00000026  200B                     move.l     D0, A3
00000028  57C3                     seq        D3
0000002A  4403                     neg.b      D3
0000002C  674E                     beq        +0x50 /* 0000007C */
0000002E  264C                     movea.l    A3, A4
00000030  47EB 0134                lea.l      A3, [A3 + 0x134]
00000034  7601                     moveq.l    D3, 0x01
00000036  200C                     move.l     D0, A4
00000038  D0BC 0000 0134           add.l      D0, 0x134
0000003E  6614                     bne        +0x16 /* 00000054 */
00000040  2F03                     move.l     -[A7], D3
00000042  700C                     moveq.l    D0, 0x0C
00000044  2F00                     move.l     -[A7], D0
00000046  4EAD 010A                jsr        [A5 + 0x10A /* export_29, CODE:1 @ 00001C0A */]
0000004A  588F                     addq.l     A7, 4
0000004C  261F                     move.l     D3, [A7]+
0000004E  4A80                     tst.l      D0
00000050  6602                     bne        +0x4 /* 00000054 */
00000052  7600                     moveq.l    D3, 0x00
label00000054:
00000054  4A03                     tst.b      D3
00000056  6718                     beq        +0x1A /* 00000070 */
00000058  204D                     movea.l    A0, A5
0000005A  D1FC FFFF 0670           add.l      A0, 0xFFFF0670
00000060  2950 013C                move.l     [A4 + 0x13C], [A0]
00000064  7000                     moveq.l    D0, 0x00
00000066  2940 0134                move.l     [A4 + 0x134], D0
0000006A  2940 0138                move.l     [A4 + 0x138], D0
0000006E  6002                     bra        +0x4 /* 00000072 */
label00000070:
00000070  7000                     moveq.l    D0, 0x00
label00000072:
00000072  200C                     move.l     D0, A4
00000074  D0BC 0000 0134           add.l      D0, 0x134
0000007A  6002                     bra        +0x4 /* 0000007E */
label0000007C:
0000007C  200B                     move.l     D0, A3
label0000007E:
0000007E  7000                     moveq.l    D0, 0x00
00000080  2F00                     move.l     -[A7], D0
00000082  2F00                     move.l     -[A7], D0
00000084  2F00                     move.l     -[A7], D0
00000086  2F2E 0018                move.l     -[A7], [A6 + 0x18]
0000008A  2F2E 0014                move.l     -[A7], [A6 + 0x14]
0000008E  2F2E 0010                move.l     -[A7], [A6 + 0x10]
00000092  2F0B                     move.l     -[A7], A3
00000094  2F0C                     move.l     -[A7], A4
00000096  4EAD 019A                jsr        [A5 + 0x19A /* export_47, CODE:1 @ 00002D3A */]
0000009A  204D                     movea.l    A0, A5
0000009C  D1FC FFFF 0674           add.l      A0, 0xFFFF0674
000000A2  2950 0060                move.l     [A4 + 0x60], [A0]
000000A6  204D                     movea.l    A0, A5
000000A8  D1FC FFFF 0678           add.l      A0, 0xFFFF0678
000000AE  2950 0088                move.l     [A4 + 0x88], [A0]
000000B2  204D                     movea.l    A0, A5
000000B4  D1FC FFFF 067C           add.l      A0, 0xFFFF067C
000000BA  2950 0070                move.l     [A4 + 0x70], [A0]
000000BE  206C 0064                movea.l    A0, [A4 + 0x64]
000000C2  224D                     movea.l    A1, A5
000000C4  D3FC FFFF 0680           add.l      A1, 0xFFFF0680
000000CA  2151 0008                move.l     [A0 + 0x8], [A1]
000000CE  4FEF 0020                lea.l      A7, [A7 + 0x20]
label000000D2:
000000D2  200C                     move.l     D0, A4
000000D4  4CEE 1808 FFF4           movem.l    D3,A3,A4, [A6 - 0xC]
000000DA  4E5E                     unlink     A6
000000DC  4E75                     rts
000000DE  8031 5F5F 6374 5F5F 3... dc.b       "__ct__17cBalanceSheetItemFP6cAgentP7cWindowR4Rect"
export_300:
00000114  4E56 0000                link       A6, 0
00000118  48E7 0108                movem.l    -[A7], D7,A4
0000011C  2E2E 000C                move.l     D7, [A6 + 0xC]
00000120  286E 0008                movea.l    A4, [A6 + 0x8]
00000124  200C                     move.l     D0, A4
00000126  6772                     beq        +0x74 /* 0000019A */
00000128  206C 0064                movea.l    A0, [A4 + 0x64]
0000012C  224D                     movea.l    A1, A5
0000012E  D3FC FFFF 0680           add.l      A1, 0xFFFF0680
00000134  2151 0008                move.l     [A0 + 0x8], [A1]
00000138  204D                     movea.l    A0, A5
0000013A  D1FC FFFF 067C           add.l      A0, 0xFFFF067C
00000140  2950 0070                move.l     [A4 + 0x70], [A0]
00000144  204D                     movea.l    A0, A5
00000146  D1FC FFFF 0678           add.l      A0, 0xFFFF0678
0000014C  2950 0088                move.l     [A4 + 0x88], [A0]
00000150  204D                     movea.l    A0, A5
00000152  D1FC FFFF 0674           add.l      A0, 0xFFFF0674
00000158  2950 0060                move.l     [A4 + 0x60], [A0]
0000015C  200C                     move.l     D0, A4
0000015E  673A                     beq        +0x3C /* 0000019A */
00000160  7000                     moveq.l    D0, 0x00
00000162  2F00                     move.l     -[A7], D0
00000164  2F0C                     move.l     -[A7], A4
00000166  4EAD 01A2                jsr        [A5 + 0x1A2 /* export_48, CODE:1 @ 00002EC4 */]
0000016A  7002                     moveq.l    D0, 0x02
0000016C  C087                     and.l      D0, D7
0000016E  6718                     beq        +0x1A /* 00000188 */
00000170  7000                     moveq.l    D0, 0x00
00000172  2F00                     move.l     -[A7], D0
00000174  220C                     move.l     D1, A4
00000176  D2BC 0000 0134           add.l      D1, 0x134
0000017C  2F01                     move.l     -[A7], D1
0000017E  4EAD 1632                jsr        [A5 + 0x1632 /* export_706, CODE:32 @ 000036CC */]
00000182  7000                     moveq.l    D0, 0x00
00000184  504F                     addq.w     A7, 8
00000186  6002                     bra        +0x4 /* 0000018A */
label00000188:
00000188  7000                     moveq.l    D0, 0x00
label0000018A:
0000018A  0807 0000                btst.b     D7, 0x0
0000018E  504F                     addq.w     A7, 8
00000190  6708                     beq        +0xA /* 0000019A */
00000192  2F0C                     move.l     -[A7], A4
00000194  4EAD 0102                jsr        [A5 + 0x102 /* export_28, CODE:1 @ 00001BE0 */]
00000198  584F                     addq.w     A7, 4
label0000019A:
0000019A  4CEE 1080 FFF8           movem.l    D7,A4, [A6 - 0x8]
000001A0  4E5E                     unlink     A6
000001A2  4E75                     rts
000001A4  9B5F 5F64 745F 5F31 3... dc.b       "__dt__17cBalanceSheetItemFv"
export_301:
000001C2  4E56 FF10                link       A6, -0x00F0
000001C6  48E7 0118                movem.l    -[A7], D7,A3,A4
000001CA  286E 0008                movea.l    A4, [A6 + 0x8]
000001CE  2F3C 00AA FFAA           move.l     -[A7], 0xAAFFAA
000001D4  7000                     moveq.l    D0, 0x00
000001D6  2F00                     move.l     -[A7], D0
000001D8  486E FF10                pea.l      [A6 - 0xF0]
000001DC  4EAD 15AA                jsr        [A5 + 0x15AA /* export_689, CODE:32 @ 0000234A */]
000001E0  2F3C 00BB BBFF           move.l     -[A7], 0xBBBBFF
000001E6  7000                     moveq.l    D0, 0x00
000001E8  2F00                     move.l     -[A7], D0
000001EA  486E FF42                pea.l      [A6 - 0xBE]
000001EE  4EAD 15AA                jsr        [A5 + 0x15AA /* export_689, CODE:32 @ 0000234A */]
000001F2  2F3C 00FF FFFF           move.l     -[A7], 0xFFFFFF
000001F8  7000                     moveq.l    D0, 0x00
000001FA  2F00                     move.l     -[A7], D0
000001FC  486E FF74                pea.l      [A6 - 0x8C]
00000200  4EAD 15AA                jsr        [A5 + 0x15AA /* export_689, CODE:32 @ 0000234A */]
00000204  7000                     moveq.l    D0, 0x00
00000206  2F00                     move.l     -[A7], D0
00000208  2F00                     move.l     -[A7], D0
0000020A  486E FFA6                pea.l      [A6 - 0x5A]
0000020E  4EAD 15AA                jsr        [A5 + 0x15AA /* export_689, CODE:32 @ 0000234A */]
00000212  41EE FFD8                lea.l      A0, [A6 - 0x28]
00000216  43EC 0090                lea.l      A1, [A4 + 0x90]
0000021A  20D9                     move.l     [A0]+, [A1]+
0000021C  20D9                     move.l     [A0]+, [A1]+
0000021E  4247                     clr.w      D7
00000220  486E FFA6                pea.l      [A6 - 0x5A]
00000224  AA14                     syscall    RGBForeColor
00000226  266C 0112                movea.l    A3, [A4 + 0x112]
0000022A  41EB 009C                lea.l      A0, [A3 + 0x9C]
0000022E  43EC 00CC                lea.l      A1, [A4 + 0xCC]
00000232  22D8                     move.l     [A1]+, [A0]+
00000234  32D8                     move.w     [A1]+, [A0]+
00000236  486E FFD8                pea.l      [A6 - 0x28]
0000023A  302E FFDA                move.w     D0, [A6 - 0x26]
0000023E  48C0                     ext.l      D0
00000240  4480                     neg.l      D0
00000242  3F00                     move.w     -[A7], D0
00000244  302E FFD8                move.w     D0, [A6 - 0x28]
00000248  48C0                     ext.l      D0
0000024A  4480                     neg.l      D0
0000024C  3F00                     move.w     -[A7], D0
0000024E  A8A8                     syscall    OffsetRect
00000250  486E FF74                pea.l      [A6 - 0x8C]
00000254  AA15                     syscall    RGBBackColor
00000256  486E FFD8                pea.l      [A6 - 0x28]
0000025A  A8A3                     syscall    EraseRect
0000025C  41EE FFE0                lea.l      A0, [A6 - 0x20]
00000260  43EE FFD8                lea.l      A1, [A6 - 0x28]
00000264  20D9                     move.l     [A0]+, [A1]+
00000266  20D9                     move.l     [A0]+, [A1]+
00000268  3E2E FFE4                move.w     D7, [A6 - 0x1C]
0000026C  9E6E FFE0                sub.w      D7, [A6 - 0x20]
00000270  302E FFE0                move.w     D0, [A6 - 0x20]
00000274  D07C 000C                add.w      D0, 0xC
00000278  3D40 FFE4                move.w     [A6 - 0x1C], D0
0000027C  41EE FFE8                lea.l      A0, [A6 - 0x18]
00000280  43EE FFE0                lea.l      A1, [A6 - 0x20]
00000284  20D9                     move.l     [A0]+, [A1]+
00000286  20D9                     move.l     [A0]+, [A1]+
00000288  41EE FFF0                lea.l      A0, [A6 - 0x10]
0000028C  43EE FFE0                lea.l      A1, [A6 - 0x20]
00000290  20D9                     move.l     [A0]+, [A1]+
00000292  20D9                     move.l     [A0]+, [A1]+
00000294  302E FFEE                move.w     D0, [A6 - 0x12]
00000298  E240                     asr        D0.w, 1
0000029A  907C 000A                sub.w      D0, 0xA /* '\n' */
0000029E  3D40 FFEE                move.w     [A6 - 0x12], D0
000002A2  302E FFF6                move.w     D0, [A6 - 0xA]
000002A6  E240                     asr        D0.w, 1
000002A8  3D40 FFF2                move.w     [A6 - 0xE], D0
000002AC  046E 000A FFF6           subi.w     [A6 - 0xA], 0xA /* '\n' */
000002B2  486E FF42                pea.l      [A6 - 0xBE]
000002B6  AA15                     syscall    RGBBackColor
000002B8  4FEF 0030                lea.l      A7, [A7 + 0x30]
000002BC  6018                     bra        +0x1A /* 000002D6 */
label000002BE:
000002BE  486E FFE0                pea.l      [A6 - 0x20]
000002C2  A8A3                     syscall    EraseRect
000002C4  486E FFE0                pea.l      [A6 - 0x20]
000002C8  7000                     moveq.l    D0, 0x00
000002CA  3F00                     move.w     -[A7], D0
000002CC  7218                     moveq.l    D1, 0x18
000002CE  3F01                     move.w     -[A7], D1
000002D0  A8A8                     syscall    OffsetRect
000002D2  0447 0018                subi.w     D7, 0x18
label000002D6:
000002D6  4A47                     tst.w      D7
000002D8  6EE4                     bgt        -0x1A /* 000002BE */
000002DA  486E FF10                pea.l      [A6 - 0xF0]
000002DE  AA15                     syscall    RGBBackColor
000002E0  486E FFE8                pea.l      [A6 - 0x18]
000002E4  A8A3                     syscall    EraseRect
000002E6  486E FFE8                pea.l      [A6 - 0x18]
000002EA  7000                     moveq.l    D0, 0x00
000002EC  3F00                     move.w     -[A7], D0
000002EE  726C                     moveq.l    D1, 0x6C
000002F0  3F01                     move.w     -[A7], D1
000002F2  A8A8                     syscall    OffsetRect
000002F4  486E FFE8                pea.l      [A6 - 0x18]
000002F8  A8A3                     syscall    EraseRect
000002FA  486E FFE8                pea.l      [A6 - 0x18]
000002FE  7000                     moveq.l    D0, 0x00
00000300  3F00                     move.w     -[A7], D0
00000302  7218                     moveq.l    D1, 0x18
00000304  3F01                     move.w     -[A7], D1
00000306  A8A8                     syscall    OffsetRect
00000308  486E FFE8                pea.l      [A6 - 0x18]
0000030C  A8A3                     syscall    EraseRect
0000030E  486E FFE8                pea.l      [A6 - 0x18]
00000312  7000                     moveq.l    D0, 0x00
00000314  3F00                     move.w     -[A7], D0
00000316  7260                     moveq.l    D1, 0x60
00000318  3F01                     move.w     -[A7], D1
0000031A  A8A8                     syscall    OffsetRect
0000031C  486E FFE8                pea.l      [A6 - 0x18]
00000320  A8A3                     syscall    EraseRect
00000322  486E FFF0                pea.l      [A6 - 0x10]
00000326  A8A3                     syscall    EraseRect
00000328  486E FFF0                pea.l      [A6 - 0x10]
0000032C  7000                     moveq.l    D0, 0x00
0000032E  3F00                     move.w     -[A7], D0
00000330  3F3C 00D8                move.w     -[A7], 0xD8
00000334  A8A8                     syscall    OffsetRect
00000336  486E FFF0                pea.l      [A6 - 0x10]
0000033A  A8A3                     syscall    EraseRect
0000033C  486E FFF0                pea.l      [A6 - 0x10]
00000340  7000                     moveq.l    D0, 0x00
00000342  3F00                     move.w     -[A7], D0
00000344  7218                     moveq.l    D1, 0x18
00000346  3F01                     move.w     -[A7], D1
00000348  A8A8                     syscall    OffsetRect
0000034A  486E FFF0                pea.l      [A6 - 0x10]
0000034E  A8A3                     syscall    EraseRect
00000350  486C 00CC                pea.l      [A4 + 0xCC]
00000354  AA15                     syscall    RGBBackColor
00000356  7000                     moveq.l    D0, 0x00
00000358  2F00                     move.l     -[A7], D0
0000035A  7201                     moveq.l    D1, 0x01
0000035C  2F01                     move.l     -[A7], D1
0000035E  7009                     moveq.l    D0, 0x09
00000360  2F00                     move.l     -[A7], D0
00000362  7003                     moveq.l    D0, 0x03
00000364  2F00                     move.l     -[A7], D0
00000366  7000                     moveq.l    D0, 0x00
00000368  2F00                     move.l     -[A7], D0
0000036A  204D                     movea.l    A0, A5
0000036C  D1FC FFFF 0460           add.l      A0, 0xFFFF0460
00000372  4850                     pea.l      [A0]
00000374  2F00                     move.l     -[A7], D0
00000376  4EAD 1922                jsr        [A5 + 0x1922 /* export_800, CODE:33 @ 00000FF6 */]
0000037A  2840                     movea.l    A4, D0
0000037C  7002                     moveq.l    D0, 0x02
0000037E  2F00                     move.l     -[A7], D0
00000380  4878 00AA                push.l     0xAA
00000384  2F0C                     move.l     -[A7], A4
00000386  4EAD 1942                jsr        [A5 + 0x1942 /* export_804, CODE:33 @ 0000186C */]
0000038A  4EAD 07AA                jsr        [A5 + 0x7AA /* export_241, CODE:13 @ 00003698 */]
0000038E  204D                     movea.l    A0, A5
00000390  D1FC FFFE BD72           add.l      A0, 0xFFFEBD72
00000396  2080                     move.l     [A0], D0
00000398  4EAD 05EA                jsr        [A5 + 0x5EA /* export_185, CODE:10 @ 00002B8A */]
0000039C  204D                     movea.l    A0, A5
0000039E  D1FC FFFE BD6E           add.l      A0, 0xFFFEBD6E
000003A4  2080                     move.l     [A0], D0
000003A6  4EAD 04BA                jsr        [A5 + 0x4BA /* export_147, CODE:6 @ 00005BD0 */]
000003AA  204D                     movea.l    A0, A5
000003AC  D1FC FFFE BD66           add.l      A0, 0xFFFEBD66
000003B2  2080                     move.l     [A0], D0
000003B4  4EAD 02A2                jsr        [A5 + 0x2A2 /* export_80, CODE:3 @ 00002C7A */]
000003B8  204D                     movea.l    A0, A5
000003BA  D1FC FFFE BD62           add.l      A0, 0xFFFEBD62
000003C0  2080                     move.l     [A0], D0
000003C2  204D                     movea.l    A0, A5
000003C4  D1FC FFFE BD66           add.l      A0, 0xFFFEBD66
000003CA  2010                     move.l     D0, [A0]
000003CC  204D                     movea.l    A0, A5
000003CE  D1FC FFFE BD62           add.l      A0, 0xFFFEBD62
000003D4  D090                     add.l      D0, [A0]
000003D6  204D                     movea.l    A0, A5
000003D8  D1FC FFFE BD72           add.l      A0, 0xFFFEBD72
000003DE  2210                     move.l     D1, [A0]
000003E0  D280                     add.l      D1, D0
000003E2  204D                     movea.l    A0, A5
000003E4  D1FC FFFE BD6E           add.l      A0, 0xFFFEBD6E
000003EA  2010                     move.l     D0, [A0]
000003EC  D081                     add.l      D0, D1
000003EE  204D                     movea.l    A0, A5
000003F0  D1FC FFFE BD76           add.l      A0, 0xFFFEBD76
000003F6  2210                     move.l     D1, [A0]
000003F8  D280                     add.l      D1, D0
000003FA  204D                     movea.l    A0, A5
000003FC  D1FC FFFE BD0A           add.l      A0, 0xFFFEBD0A
00000402  2081                     move.l     [A0], D1
00000404  7000                     moveq.l    D0, 0x00
00000406  2F00                     move.l     -[A7], D0
00000408  2F2C 0014                move.l     -[A7], [A4 + 0x14]
0000040C  204D                     movea.l    A0, A5
0000040E  D1FC FFFF 046A           add.l      A0, 0xFFFF046A
00000414  4850                     pea.l      [A0]
00000416  2F0C                     move.l     -[A7], A4
00000418  4EAD 178A                jsr        [A5 + 0x178A /* export_749, CODE:32 @ 00004E80 */]
0000041C  204D                     movea.l    A0, A5
0000041E  D1FC FFFE BD76           add.l      A0, 0xFFFEBD76
00000424  2F10                     move.l     -[A7], [A0]
00000426  2F0C                     move.l     -[A7], A4
00000428  4EAD 17FA                jsr        [A5 + 0x17FA /* export_763, CODE:32 @ 000057BC */]
0000042C  7000                     moveq.l    D0, 0x00
0000042E  2F00                     move.l     -[A7], D0
00000430  2F2C 0014                move.l     -[A7], [A4 + 0x14]
00000434  204D                     movea.l    A0, A5
00000436  D1FC FFFF 0472           add.l      A0, 0xFFFF0472
0000043C  4850                     pea.l      [A0]
0000043E  2F0C                     move.l     -[A7], A4
00000440  4EAD 178A                jsr        [A5 + 0x178A /* export_749, CODE:32 @ 00004E80 */]
00000444  7000                     moveq.l    D0, 0x00
00000446  2F00                     move.l     -[A7], D0
00000448  2F2C 0014                move.l     -[A7], [A4 + 0x14]
0000044C  204D                     movea.l    A0, A5
0000044E  D1FC FFFF 0476           add.l      A0, 0xFFFF0476
00000454  4850                     pea.l      [A0]
00000456  2F0C                     move.l     -[A7], A4
00000458  4EAD 178A                jsr        [A5 + 0x178A /* export_749, CODE:32 @ 00004E80 */]
0000045C  204D                     movea.l    A0, A5
0000045E  D1FC FFFE BD6E           add.l      A0, 0xFFFEBD6E
00000464  2F10                     move.l     -[A7], [A0]
00000466  2F0C                     move.l     -[A7], A4
00000468  4EAD 17FA                jsr        [A5 + 0x17FA /* export_763, CODE:32 @ 000057BC */]
0000046C  7000                     moveq.l    D0, 0x00
0000046E  2F00                     move.l     -[A7], D0
00000470  2F2C 0014                move.l     -[A7], [A4 + 0x14]
00000474  204D                     movea.l    A0, A5
00000476  D1FC FFFF 0482           add.l      A0, 0xFFFF0482
0000047C  4850                     pea.l      [A0]
0000047E  2F0C                     move.l     -[A7], A4
00000480  4EAD 178A                jsr        [A5 + 0x178A /* export_749, CODE:32 @ 00004E80 */]
00000484  7000                     moveq.l    D0, 0x00
00000486  2F00                     move.l     -[A7], D0
00000488  2F2C 0014                move.l     -[A7], [A4 + 0x14]
0000048C  204D                     movea.l    A0, A5
0000048E  D1FC FFFF 0486           add.l      A0, 0xFFFF0486
00000494  4850                     pea.l      [A0]
00000496  2F0C                     move.l     -[A7], A4
00000498  4EAD 178A                jsr        [A5 + 0x178A /* export_749, CODE:32 @ 00004E80 */]
0000049C  204D                     movea.l    A0, A5
0000049E  D1FC FFFE BD72           add.l      A0, 0xFFFEBD72
000004A4  2F10                     move.l     -[A7], [A0]
000004A6  2F0C                     move.l     -[A7], A4
000004A8  4EAD 17FA                jsr        [A5 + 0x17FA /* export_763, CODE:32 @ 000057BC */]
000004AC  7000                     moveq.l    D0, 0x00
000004AE  2F00                     move.l     -[A7], D0
000004B0  2F2C 0014                move.l     -[A7], [A4 + 0x14]
000004B4  204D                     movea.l    A0, A5
000004B6  D1FC FFFF 048E           add.l      A0, 0xFFFF048E
000004BC  4850                     pea.l      [A0]
000004BE  2F0C                     move.l     -[A7], A4
000004C0  4EAD 178A                jsr        [A5 + 0x178A /* export_749, CODE:32 @ 00004E80 */]
000004C4  7000                     moveq.l    D0, 0x00
000004C6  2F00                     move.l     -[A7], D0
000004C8  2F2C 0014                move.l     -[A7], [A4 + 0x14]
000004CC  204D                     movea.l    A0, A5
000004CE  D1FC FFFF 0492           add.l      A0, 0xFFFF0492
000004D4  4850                     pea.l      [A0]
000004D6  2F0C                     move.l     -[A7], A4
000004D8  4EAD 178A                jsr        [A5 + 0x178A /* export_749, CODE:32 @ 00004E80 */]
000004DC  204D                     movea.l    A0, A5
000004DE  D1FC FFFE BD66           add.l      A0, 0xFFFEBD66
000004E4  2F10                     move.l     -[A7], [A0]
000004E6  2F0C                     move.l     -[A7], A4
000004E8  4EAD 17FA                jsr        [A5 + 0x17FA /* export_763, CODE:32 @ 000057BC */]
000004EC  7000                     moveq.l    D0, 0x00
000004EE  2F00                     move.l     -[A7], D0
000004F0  2F2C 0014                move.l     -[A7], [A4 + 0x14]
000004F4  204D                     movea.l    A0, A5
000004F6  D1FC FFFF 049C           add.l      A0, 0xFFFF049C
000004FC  4850                     pea.l      [A0]
000004FE  2F0C                     move.l     -[A7], A4
00000500  4EAD 178A                jsr        [A5 + 0x178A /* export_749, CODE:32 @ 00004E80 */]
00000504  7000                     moveq.l    D0, 0x00
00000506  2F00                     move.l     -[A7], D0
00000508  2F2C 0014                move.l     -[A7], [A4 + 0x14]
0000050C  204D                     movea.l    A0, A5
0000050E  D1FC FFFF 04A0           add.l      A0, 0xFFFF04A0
00000514  4850                     pea.l      [A0]
00000516  2F0C                     move.l     -[A7], A4
00000518  4EAD 178A                jsr        [A5 + 0x178A /* export_749, CODE:32 @ 00004E80 */]
0000051C  204D                     movea.l    A0, A5
0000051E  D1FC FFFE BD62           add.l      A0, 0xFFFEBD62
00000524  2F10                     move.l     -[A7], [A0]
00000526  2F0C                     move.l     -[A7], A4
00000528  4EAD 17FA                jsr        [A5 + 0x17FA /* export_763, CODE:32 @ 000057BC */]
0000052C  7000                     moveq.l    D0, 0x00
0000052E  2F00                     move.l     -[A7], D0
00000530  2F2C 0014                move.l     -[A7], [A4 + 0x14]
00000534  204D                     movea.l    A0, A5
00000536  D1FC FFFF 04AC           add.l      A0, 0xFFFF04AC
0000053C  4850                     pea.l      [A0]
0000053E  2F0C                     move.l     -[A7], A4
00000540  4EAD 178A                jsr        [A5 + 0x178A /* export_749, CODE:32 @ 00004E80 */]
00000544  7000                     moveq.l    D0, 0x00
00000546  2F00                     move.l     -[A7], D0
00000548  2F2C 0014                move.l     -[A7], [A4 + 0x14]
0000054C  204D                     movea.l    A0, A5
0000054E  D1FC FFFF 04B2           add.l      A0, 0xFFFF04B2
00000554  4850                     pea.l      [A0]
00000556  2F0C                     move.l     -[A7], A4
00000558  4EAD 178A                jsr        [A5 + 0x178A /* export_749, CODE:32 @ 00004E80 */]
0000055C  204D                     movea.l    A0, A5
0000055E  D1FC FFFE BD0A           add.l      A0, 0xFFFEBD0A
00000564  2F10                     move.l     -[A7], [A0]
00000566  2F0C                     move.l     -[A7], A4
00000568  4EAD 17FA                jsr        [A5 + 0x17FA /* export_763, CODE:32 @ 000057BC */]
0000056C  7000                     moveq.l    D0, 0x00
0000056E  2F00                     move.l     -[A7], D0
00000570  2F2C 0014                move.l     -[A7], [A4 + 0x14]
00000574  204D                     movea.l    A0, A5
00000576  D1FC FFFF 04C2           add.l      A0, 0xFFFF04C2
0000057C  4850                     pea.l      [A0]
0000057E  2F0C                     move.l     -[A7], A4
00000580  4EAD 178A                jsr        [A5 + 0x178A /* export_749, CODE:32 @ 00004E80 */]
00000584  7000                     moveq.l    D0, 0x00
00000586  2F00                     move.l     -[A7], D0
00000588  2F2C 0014                move.l     -[A7], [A4 + 0x14]
0000058C  204D                     movea.l    A0, A5
0000058E  D1FC FFFF 04D6           add.l      A0, 0xFFFF04D6
00000594  4850                     pea.l      [A0]
00000596  2F0C                     move.l     -[A7], A4
00000598  4EAD 178A                jsr        [A5 + 0x178A /* export_749, CODE:32 @ 00004E80 */]
0000059C  204D                     movea.l    A0, A5
0000059E  D1FC FFFE BD5E           add.l      A0, 0xFFFEBD5E
000005A4  2F10                     move.l     -[A7], [A0]
000005A6  2F0C                     move.l     -[A7], A4
000005A8  4EAD 17FA                jsr        [A5 + 0x17FA /* export_763, CODE:32 @ 000057BC */]
000005AC  7000                     moveq.l    D0, 0x00
000005AE  2F00                     move.l     -[A7], D0
000005B0  2F2C 0014                move.l     -[A7], [A4 + 0x14]
000005B4  204D                     movea.l    A0, A5
000005B6  D1FC FFFF 04E4           add.l      A0, 0xFFFF04E4
000005BC  4850                     pea.l      [A0]
000005BE  2F0C                     move.l     -[A7], A4
000005C0  4EAD 178A                jsr        [A5 + 0x178A /* export_749, CODE:32 @ 00004E80 */]
000005C4  7000                     moveq.l    D0, 0x00
000005C6  2F00                     move.l     -[A7], D0
000005C8  2F2C 0014                move.l     -[A7], [A4 + 0x14]
000005CC  204D                     movea.l    A0, A5
000005CE  D1FC FFFF 04E8           add.l      A0, 0xFFFF04E8
000005D4  4850                     pea.l      [A0]
000005D6  2F0C                     move.l     -[A7], A4
000005D8  4EAD 178A                jsr        [A5 + 0x178A /* export_749, CODE:32 @ 00004E80 */]
000005DC  204D                     movea.l    A0, A5
000005DE  D1FC FFFE BD5A           add.l      A0, 0xFFFEBD5A
000005E4  2F10                     move.l     -[A7], [A0]
000005E6  2F0C                     move.l     -[A7], A4
000005E8  4EAD 17FA                jsr        [A5 + 0x17FA /* export_763, CODE:32 @ 000057BC */]
000005EC  7000                     moveq.l    D0, 0x00
000005EE  2F00                     move.l     -[A7], D0
000005F0  2F2C 0014                move.l     -[A7], [A4 + 0x14]
000005F4  204D                     movea.l    A0, A5
000005F6  D1FC FFFF 04FA           add.l      A0, 0xFFFF04FA
000005FC  4850                     pea.l      [A0]
000005FE  2F0C                     move.l     -[A7], A4
00000600  4EAD 178A                jsr        [A5 + 0x178A /* export_749, CODE:32 @ 00004E80 */]
00000604  7000                     moveq.l    D0, 0x00
00000606  2F00                     move.l     -[A7], D0
00000608  2F2C 0014                move.l     -[A7], [A4 + 0x14]
0000060C  204D                     movea.l    A0, A5
0000060E  D1FC FFFF 04FE           add.l      A0, 0xFFFF04FE
00000614  4850                     pea.l      [A0]
00000616  2F0C                     move.l     -[A7], A4
00000618  4EAD 178A                jsr        [A5 + 0x178A /* export_749, CODE:32 @ 00004E80 */]
0000061C  204D                     movea.l    A0, A5
0000061E  D1FC FFFE BD56           add.l      A0, 0xFFFEBD56
00000624  2F10                     move.l     -[A7], [A0]
00000626  2F0C                     move.l     -[A7], A4
00000628  4EAD 17FA                jsr        [A5 + 0x17FA /* export_763, CODE:32 @ 000057BC */]
0000062C  7000                     moveq.l    D0, 0x00
0000062E  2F00                     move.l     -[A7], D0
00000630  2F2C 0014                move.l     -[A7], [A4 + 0x14]
00000634  204D                     movea.l    A0, A5
00000636  D1FC FFFF 050C           add.l      A0, 0xFFFF050C
0000063C  4850                     pea.l      [A0]
0000063E  2F0C                     move.l     -[A7], A4
00000640  4EAD 178A                jsr        [A5 + 0x178A /* export_749, CODE:32 @ 00004E80 */]
00000644  7000                     moveq.l    D0, 0x00
00000646  2F00                     move.l     -[A7], D0
00000648  2F2C 0014                move.l     -[A7], [A4 + 0x14]
0000064C  204D                     movea.l    A0, A5
0000064E  D1FC FFFF 0510           add.l      A0, 0xFFFF0510
00000654  4850                     pea.l      [A0]
00000656  2F0C                     move.l     -[A7], A4
00000658  4EAD 178A                jsr        [A5 + 0x178A /* export_749, CODE:32 @ 00004E80 */]
0000065C  204D                     movea.l    A0, A5
0000065E  D1FC FFFE BD52           add.l      A0, 0xFFFEBD52
00000664  2F10                     move.l     -[A7], [A0]
00000666  2F0C                     move.l     -[A7], A4
00000668  4EAD 17FA                jsr        [A5 + 0x17FA /* export_763, CODE:32 @ 000057BC */]
0000066C  7000                     moveq.l    D0, 0x00
0000066E  2F00                     move.l     -[A7], D0
00000670  2F2C 0014                move.l     -[A7], [A4 + 0x14]
00000674  204D                     movea.l    A0, A5
00000676  D1FC FFFF 0520           add.l      A0, 0xFFFF0520
0000067C  4850                     pea.l      [A0]
0000067E  2F0C                     move.l     -[A7], A4
00000680  4EAD 178A                jsr        [A5 + 0x178A /* export_749, CODE:32 @ 00004E80 */]
00000684  7000                     moveq.l    D0, 0x00
00000686  2F00                     move.l     -[A7], D0
00000688  2F2C 0014                move.l     -[A7], [A4 + 0x14]
0000068C  204D                     movea.l    A0, A5
0000068E  D1FC FFFF 0524           add.l      A0, 0xFFFF0524
00000694  4850                     pea.l      [A0]
00000696  2F0C                     move.l     -[A7], A4
00000698  4EAD 178A                jsr        [A5 + 0x178A /* export_749, CODE:32 @ 00004E80 */]
0000069C  204D                     movea.l    A0, A5
0000069E  D1FC FFFE BD4A           add.l      A0, 0xFFFEBD4A
000006A4  2F10                     move.l     -[A7], [A0]
000006A6  2F0C                     move.l     -[A7], A4
000006A8  4EAD 17FA                jsr        [A5 + 0x17FA /* export_763, CODE:32 @ 000057BC */]
000006AC  7000                     moveq.l    D0, 0x00
000006AE  2F00                     move.l     -[A7], D0
000006B0  2F2C 0014                move.l     -[A7], [A4 + 0x14]
000006B4  204D                     movea.l    A0, A5
000006B6  D1FC FFFF 0534           add.l      A0, 0xFFFF0534
000006BC  4850                     pea.l      [A0]
000006BE  2F0C                     move.l     -[A7], A4
000006C0  4EAD 178A                jsr        [A5 + 0x178A /* export_749, CODE:32 @ 00004E80 */]
000006C4  4EAD 062A                jsr        [A5 + 0x62A /* export_193, CODE:10 @ 00003D0C */]
000006C8  7000                     moveq.l    D0, 0x00
000006CA  2F00                     move.l     -[A7], D0
000006CC  2F2C 0014                move.l     -[A7], [A4 + 0x14]
000006D0  204D                     movea.l    A0, A5
000006D2  D1FC FFFF 0538           add.l      A0, 0xFFFF0538
000006D8  4850                     pea.l      [A0]
000006DA  2F0C                     move.l     -[A7], A4
000006DC  4EAD 178A                jsr        [A5 + 0x178A /* export_749, CODE:32 @ 00004E80 */]
000006E0  204D                     movea.l    A0, A5
000006E2  D1FC FFFE BD06           add.l      A0, 0xFFFEBD06
000006E8  2F10                     move.l     -[A7], [A0]
000006EA  2F0C                     move.l     -[A7], A4
000006EC  4EAD 17FA                jsr        [A5 + 0x17FA /* export_763, CODE:32 @ 000057BC */]
000006F0  7000                     moveq.l    D0, 0x00
000006F2  2F00                     move.l     -[A7], D0
000006F4  2F2C 0014                move.l     -[A7], [A4 + 0x14]
000006F8  204D                     movea.l    A0, A5
000006FA  D1FC FFFF 0548           add.l      A0, 0xFFFF0548
00000700  4850                     pea.l      [A0]
00000702  2F0C                     move.l     -[A7], A4
00000704  4EAD 178A                jsr        [A5 + 0x178A /* export_749, CODE:32 @ 00004E80 */]
00000708  41EE FFF8                lea.l      A0, [A6 - 0x8]
0000070C  43EE FFD8                lea.l      A1, [A6 - 0x28]
00000710  20D9                     move.l     [A0]+, [A1]+
00000712  20D9                     move.l     [A0]+, [A1]+
00000714  066E 000A FFFA           addi.w     [A6 - 0x6], 0xA /* '\n' */
0000071A  302E FFFE                move.w     D0, [A6 - 0x2]
0000071E  E240                     asr        D0.w, 1
00000720  907C 000A                sub.w      D0, 0xA /* '\n' */
00000724  3D40 FFFE                move.w     [A6 - 0x2], D0
00000728  7000                     moveq.l    D0, 0x00
0000072A  2F00                     move.l     -[A7], D0
0000072C  2F00                     move.l     -[A7], D0
0000072E  486E FFF8                pea.l      [A6 - 0x8]
00000732  2F0C                     move.l     -[A7], A4
00000734  4EAD 193A                jsr        [A5 + 0x193A /* export_803, CODE:33 @ 00001176 */]
00000738  2F0C                     move.l     -[A7], A4
0000073A  4EAD 1782                jsr        [A5 + 0x1782 /* export_748, CODE:32 @ 00004E1E */]
0000073E  4207                     clr.b      D7
00000740  7000                     moveq.l    D0, 0x00
00000742  1007                     move.b     D0, D7
00000744  2F00                     move.l     -[A7], D0
00000746  2F2C 0014                move.l     -[A7], [A4 + 0x14]
0000074A  204D                     movea.l    A0, A5
0000074C  D1FC FFFF 054C           add.l      A0, 0xFFFF054C
00000752  4850                     pea.l      [A0]
00000754  2F0C                     move.l     -[A7], A4
00000756  4EAD 178A                jsr        [A5 + 0x178A /* export_749, CODE:32 @ 00004E80 */]
0000075A  204D                     movea.l    A0, A5
0000075C  D1FC FFFE BD46           add.l      A0, 0xFFFEBD46
00000762  2F10                     move.l     -[A7], [A0]
00000764  2F0C                     move.l     -[A7], A4
00000766  4EAD 17FA                jsr        [A5 + 0x17FA /* export_763, CODE:32 @ 000057BC */]
0000076A  7000                     moveq.l    D0, 0x00
0000076C  2F00                     move.l     -[A7], D0
0000076E  2F2C 0014                move.l     -[A7], [A4 + 0x14]
00000772  204D                     movea.l    A0, A5
00000774  D1FC FFFF 0562           add.l      A0, 0xFFFF0562
0000077A  4850                     pea.l      [A0]
0000077C  2F0C                     move.l     -[A7], A4
0000077E  4EAD 178A                jsr        [A5 + 0x178A /* export_749, CODE:32 @ 00004E80 */]
00000782  7000                     moveq.l    D0, 0x00
00000784  2F00                     move.l     -[A7], D0
00000786  2F2C 0014                move.l     -[A7], [A4 + 0x14]
0000078A  204D                     movea.l    A0, A5
0000078C  D1FC FFFF 0566           add.l      A0, 0xFFFF0566
00000792  4850                     pea.l      [A0]
00000794  2F0C                     move.l     -[A7], A4
00000796  4EAD 178A                jsr        [A5 + 0x178A /* export_749, CODE:32 @ 00004E80 */]
0000079A  204D                     movea.l    A0, A5
0000079C  D1FC FFFE BD42           add.l      A0, 0xFFFEBD42
000007A2  2F10                     move.l     -[A7], [A0]
000007A4  2F0C                     move.l     -[A7], A4
000007A6  4EAD 17FA                jsr        [A5 + 0x17FA /* export_763, CODE:32 @ 000057BC */]
000007AA  7000                     moveq.l    D0, 0x00
000007AC  2F00                     move.l     -[A7], D0
000007AE  2F2C 0014                move.l     -[A7], [A4 + 0x14]
000007B2  204D                     movea.l    A0, A5
000007B4  D1FC FFFF 0572           add.l      A0, 0xFFFF0572
000007BA  4850                     pea.l      [A0]
000007BC  2F0C                     move.l     -[A7], A4
000007BE  4EAD 178A                jsr        [A5 + 0x178A /* export_749, CODE:32 @ 00004E80 */]
000007C2  7000                     moveq.l    D0, 0x00
000007C4  2F00                     move.l     -[A7], D0
000007C6  2F2C 0014                move.l     -[A7], [A4 + 0x14]
000007CA  204D                     movea.l    A0, A5
000007CC  D1FC FFFF 0576           add.l      A0, 0xFFFF0576
000007D2  4850                     pea.l      [A0]
000007D4  2F0C                     move.l     -[A7], A4
000007D6  4EAD 178A                jsr        [A5 + 0x178A /* export_749, CODE:32 @ 00004E80 */]
000007DA  204D                     movea.l    A0, A5
000007DC  D1FC FFFE BD3E           add.l      A0, 0xFFFEBD3E
000007E2  2F10                     move.l     -[A7], [A0]
000007E4  2F0C                     move.l     -[A7], A4
000007E6  4EAD 17FA                jsr        [A5 + 0x17FA /* export_763, CODE:32 @ 000057BC */]
000007EA  7000                     moveq.l    D0, 0x00
000007EC  2F00                     move.l     -[A7], D0
000007EE  2F2C 0014                move.l     -[A7], [A4 + 0x14]
000007F2  204D                     movea.l    A0, A5
000007F4  D1FC FFFF 0588           add.l      A0, 0xFFFF0588
000007FA  4850                     pea.l      [A0]
000007FC  2F0C                     move.l     -[A7], A4
000007FE  4EAD 178A                jsr        [A5 + 0x178A /* export_749, CODE:32 @ 00004E80 */]
00000802  7000                     moveq.l    D0, 0x00
00000804  2F00                     move.l     -[A7], D0
00000806  2F2C 0014                move.l     -[A7], [A4 + 0x14]
0000080A  204D                     movea.l    A0, A5
0000080C  D1FC FFFF 058C           add.l      A0, 0xFFFF058C
00000812  4850                     pea.l      [A0]
00000814  2F0C                     move.l     -[A7], A4
00000816  4EAD 178A                jsr        [A5 + 0x178A /* export_749, CODE:32 @ 00004E80 */]
0000081A  204D                     movea.l    A0, A5
0000081C  D1FC FFFE BD3A           add.l      A0, 0xFFFEBD3A
00000822  2F10                     move.l     -[A7], [A0]
00000824  2F0C                     move.l     -[A7], A4
00000826  4EAD 17FA                jsr        [A5 + 0x17FA /* export_763, CODE:32 @ 000057BC */]
0000082A  7000                     moveq.l    D0, 0x00
0000082C  2F00                     move.l     -[A7], D0
0000082E  2F2C 0014                move.l     -[A7], [A4 + 0x14]
00000832  204D                     movea.l    A0, A5
00000834  D1FC FFFF 059E           add.l      A0, 0xFFFF059E
0000083A  4850                     pea.l      [A0]
0000083C  2F0C                     move.l     -[A7], A4
0000083E  4EAD 178A                jsr        [A5 + 0x178A /* export_749, CODE:32 @ 00004E80 */]
00000842  7000                     moveq.l    D0, 0x00
00000844  2F00                     move.l     -[A7], D0
00000846  2F2C 0014                move.l     -[A7], [A4 + 0x14]
0000084A  204D                     movea.l    A0, A5
0000084C  D1FC FFFF 05A2           add.l      A0, 0xFFFF05A2
00000852  4850                     pea.l      [A0]
00000854  2F0C                     move.l     -[A7], A4
00000856  4EAD 178A                jsr        [A5 + 0x178A /* export_749, CODE:32 @ 00004E80 */]
0000085A  204D                     movea.l    A0, A5
0000085C  D1FC FFFE BD2E           add.l      A0, 0xFFFEBD2E
00000862  2F10                     move.l     -[A7], [A0]
00000864  2F0C                     move.l     -[A7], A4
00000866  4EAD 17FA                jsr        [A5 + 0x17FA /* export_763, CODE:32 @ 000057BC */]
0000086A  7000                     moveq.l    D0, 0x00
0000086C  2F00                     move.l     -[A7], D0
0000086E  2F2C 0014                move.l     -[A7], [A4 + 0x14]
00000872  204D                     movea.l    A0, A5
00000874  D1FC FFFF 05B0           add.l      A0, 0xFFFF05B0
0000087A  4850                     pea.l      [A0]
0000087C  2F0C                     move.l     -[A7], A4
0000087E  4EAD 178A                jsr        [A5 + 0x178A /* export_749, CODE:32 @ 00004E80 */]
00000882  7000                     moveq.l    D0, 0x00
00000884  2F00                     move.l     -[A7], D0
00000886  2F2C 0014                move.l     -[A7], [A4 + 0x14]
0000088A  204D                     movea.l    A0, A5
0000088C  D1FC FFFF 05B4           add.l      A0, 0xFFFF05B4
00000892  4850                     pea.l      [A0]
00000894  2F0C                     move.l     -[A7], A4
00000896  4EAD 178A                jsr        [A5 + 0x178A /* export_749, CODE:32 @ 00004E80 */]
0000089A  204D                     movea.l    A0, A5
0000089C  D1FC FFFE BD26           add.l      A0, 0xFFFEBD26
000008A2  2F10                     move.l     -[A7], [A0]
000008A4  2F0C                     move.l     -[A7], A4
000008A6  4EAD 17FA                jsr        [A5 + 0x17FA /* export_763, CODE:32 @ 000057BC */]
000008AA  7000                     moveq.l    D0, 0x00
000008AC  2F00                     move.l     -[A7], D0
000008AE  2F2C 0014                move.l     -[A7], [A4 + 0x14]
000008B2  204D                     movea.l    A0, A5
000008B4  D1FC FFFF 05C0           add.l      A0, 0xFFFF05C0
000008BA  4850                     pea.l      [A0]
000008BC  2F0C                     move.l     -[A7], A4
000008BE  4EAD 178A                jsr        [A5 + 0x178A /* export_749, CODE:32 @ 00004E80 */]
000008C2  7000                     moveq.l    D0, 0x00
000008C4  2F00                     move.l     -[A7], D0
000008C6  2F2C 0014                move.l     -[A7], [A4 + 0x14]
000008CA  204D                     movea.l    A0, A5
000008CC  D1FC FFFF 05C4           add.l      A0, 0xFFFF05C4
000008D2  4850                     pea.l      [A0]
000008D4  2F0C                     move.l     -[A7], A4
000008D6  4EAD 178A                jsr        [A5 + 0x178A /* export_749, CODE:32 @ 00004E80 */]
000008DA  204D                     movea.l    A0, A5
000008DC  D1FC FFFE BD1E           add.l      A0, 0xFFFEBD1E
000008E2  2F10                     move.l     -[A7], [A0]
000008E4  2F0C                     move.l     -[A7], A4
000008E6  4EAD 17FA                jsr        [A5 + 0x17FA /* export_763, CODE:32 @ 000057BC */]
000008EA  7000                     moveq.l    D0, 0x00
000008EC  2F00                     move.l     -[A7], D0
000008EE  2F2C 0014                move.l     -[A7], [A4 + 0x14]
000008F2  204D                     movea.l    A0, A5
000008F4  D1FC FFFF 05D0           add.l      A0, 0xFFFF05D0
000008FA  4850                     pea.l      [A0]
000008FC  2F0C                     move.l     -[A7], A4
000008FE  4EAD 178A                jsr        [A5 + 0x178A /* export_749, CODE:32 @ 00004E80 */]
00000902  7000                     moveq.l    D0, 0x00
00000904  2F00                     move.l     -[A7], D0
00000906  2F2C 0014                move.l     -[A7], [A4 + 0x14]
0000090A  204D                     movea.l    A0, A5
0000090C  D1FC FFFF 05D4           add.l      A0, 0xFFFF05D4
00000912  4850                     pea.l      [A0]
00000914  2F0C                     move.l     -[A7], A4
00000916  4EAD 178A                jsr        [A5 + 0x178A /* export_749, CODE:32 @ 00004E80 */]
0000091A  204D                     movea.l    A0, A5
0000091C  D1FC FFFE BD1A           add.l      A0, 0xFFFEBD1A
00000922  2F10                     move.l     -[A7], [A0]
00000924  2F0C                     move.l     -[A7], A4
00000926  4EAD 17FA                jsr        [A5 + 0x17FA /* export_763, CODE:32 @ 000057BC */]
0000092A  7000                     moveq.l    D0, 0x00
0000092C  2F00                     move.l     -[A7], D0
0000092E  2F2C 0014                move.l     -[A7], [A4 + 0x14]
00000932  204D                     movea.l    A0, A5
00000934  D1FC FFFF 05E4           add.l      A0, 0xFFFF05E4
0000093A  4850                     pea.l      [A0]
0000093C  2F0C                     move.l     -[A7], A4
0000093E  4EAD 178A                jsr        [A5 + 0x178A /* export_749, CODE:32 @ 00004E80 */]
00000942  7000                     moveq.l    D0, 0x00
00000944  2F00                     move.l     -[A7], D0
00000946  2F2C 0014                move.l     -[A7], [A4 + 0x14]
0000094A  204D                     movea.l    A0, A5
0000094C  D1FC FFFF 05E8           add.l      A0, 0xFFFF05E8
00000952  4850                     pea.l      [A0]
00000954  2F0C                     move.l     -[A7], A4
00000956  4EAD 178A                jsr        [A5 + 0x178A /* export_749, CODE:32 @ 00004E80 */]
0000095A  204D                     movea.l    A0, A5
0000095C  D1FC FFFE BD16           add.l      A0, 0xFFFEBD16
00000962  2F10                     move.l     -[A7], [A0]
00000964  2F0C                     move.l     -[A7], A4
00000966  4EAD 17FA                jsr        [A5 + 0x17FA /* export_763, CODE:32 @ 000057BC */]
0000096A  7000                     moveq.l    D0, 0x00
0000096C  2F00                     move.l     -[A7], D0
0000096E  2F2C 0014                move.l     -[A7], [A4 + 0x14]
00000972  204D                     movea.l    A0, A5
00000974  D1FC FFFF 05FA           add.l      A0, 0xFFFF05FA
0000097A  4850                     pea.l      [A0]
0000097C  2F0C                     move.l     -[A7], A4
0000097E  4EAD 178A                jsr        [A5 + 0x178A /* export_749, CODE:32 @ 00004E80 */]
00000982  7000                     moveq.l    D0, 0x00
00000984  2F00                     move.l     -[A7], D0
00000986  2F2C 0014                move.l     -[A7], [A4 + 0x14]
0000098A  204D                     movea.l    A0, A5
0000098C  D1FC FFFF 05FE           add.l      A0, 0xFFFF05FE
00000992  4850                     pea.l      [A0]
00000994  2F0C                     move.l     -[A7], A4
00000996  4EAD 178A                jsr        [A5 + 0x178A /* export_749, CODE:32 @ 00004E80 */]
0000099A  204D                     movea.l    A0, A5
0000099C  D1FC FFFE BD80           add.l      A0, 0xFFFEBD80
000009A2  2F10                     move.l     -[A7], [A0]
000009A4  2F0C                     move.l     -[A7], A4
000009A6  4EAD 17FA                jsr        [A5 + 0x17FA /* export_763, CODE:32 @ 000057BC */]
000009AA  7000                     moveq.l    D0, 0x00
000009AC  2F00                     move.l     -[A7], D0
000009AE  2F2C 0014                move.l     -[A7], [A4 + 0x14]
000009B2  204D                     movea.l    A0, A5
000009B4  D1FC FFFF 0606           add.l      A0, 0xFFFF0606
000009BA  4850                     pea.l      [A0]
000009BC  2F0C                     move.l     -[A7], A4
000009BE  4EAD 178A                jsr        [A5 + 0x178A /* export_749, CODE:32 @ 00004E80 */]
000009C2  7000                     moveq.l    D0, 0x00
000009C4  2F00                     move.l     -[A7], D0
000009C6  2F2C 0014                move.l     -[A7], [A4 + 0x14]
000009CA  204D                     movea.l    A0, A5
000009CC  D1FC FFFF 060A           add.l      A0, 0xFFFF060A
000009D2  4850                     pea.l      [A0]
000009D4  2F0C                     move.l     -[A7], A4
000009D6  4EAD 178A                jsr        [A5 + 0x178A /* export_749, CODE:32 @ 00004E80 */]
000009DA  204D                     movea.l    A0, A5
000009DC  D1FC FFFE BD12           add.l      A0, 0xFFFEBD12
000009E2  2F10                     move.l     -[A7], [A0]
000009E4  2F0C                     move.l     -[A7], A4
000009E6  4EAD 17FA                jsr        [A5 + 0x17FA /* export_763, CODE:32 @ 000057BC */]
000009EA  7000                     moveq.l    D0, 0x00
000009EC  2F00                     move.l     -[A7], D0
000009EE  2F2C 0014                move.l     -[A7], [A4 + 0x14]
000009F2  204D                     movea.l    A0, A5
000009F4  D1FC FFFF 061A           add.l      A0, 0xFFFF061A
000009FA  4850                     pea.l      [A0]
000009FC  2F0C                     move.l     -[A7], A4
000009FE  4EAD 178A                jsr        [A5 + 0x178A /* export_749, CODE:32 @ 00004E80 */]
00000A02  204D                     movea.l    A0, A5
00000A04  D1FC FFFE BD02           add.l      A0, 0xFFFEBD02
00000A0A  2F10                     move.l     -[A7], [A0]
00000A0C  2F0C                     move.l     -[A7], A4
00000A0E  4EAD 17FA                jsr        [A5 + 0x17FA /* export_763, CODE:32 @ 000057BC */]
00000A12  7000                     moveq.l    D0, 0x00
00000A14  2F00                     move.l     -[A7], D0
00000A16  2F2C 0014                move.l     -[A7], [A4 + 0x14]
00000A1A  204D                     movea.l    A0, A5
00000A1C  D1FC FFFF 0632           add.l      A0, 0xFFFF0632
00000A22  4850                     pea.l      [A0]
00000A24  2F0C                     move.l     -[A7], A4
00000A26  4EAD 178A                jsr        [A5 + 0x178A /* export_749, CODE:32 @ 00004E80 */]
00000A2A  204D                     movea.l    A0, A5
00000A2C  D1FC FFFE BCFE           add.l      A0, 0xFFFEBCFE
00000A32  2F10                     move.l     -[A7], [A0]
00000A34  2F0C                     move.l     -[A7], A4
00000A36  4EAD 17FA                jsr        [A5 + 0x17FA /* export_763, CODE:32 @ 000057BC */]
00000A3A  41EE FFF8                lea.l      A0, [A6 - 0x8]
00000A3E  43EE FFD8                lea.l      A1, [A6 - 0x28]
00000A42  20D9                     move.l     [A0]+, [A1]+
00000A44  20D9                     move.l     [A0]+, [A1]+
00000A46  302E FFFE                move.w     D0, [A6 - 0x2]
00000A4A  E240                     asr        D0.w, 1
00000A4C  D07C 000A                add.w      D0, 0xA /* '\n' */
00000A50  3D40 FFFA                move.w     [A6 - 0x6], D0
00000A54  046E 000A FFFE           subi.w     [A6 - 0x2], 0xA /* '\n' */
00000A5A  7000                     moveq.l    D0, 0x00
00000A5C  2F00                     move.l     -[A7], D0
00000A5E  2F00                     move.l     -[A7], D0
00000A60  486E FFF8                pea.l      [A6 - 0x8]
00000A64  2F0C                     move.l     -[A7], A4
00000A66  4EAD 193A                jsr        [A5 + 0x193A /* export_803, CODE:33 @ 00001176 */]
00000A6A  200C                     move.l     D0, A4
00000A6C  671E                     beq        +0x20 /* 00000A8C */
00000A6E  7003                     moveq.l    D0, 0x03
00000A70  2F00                     move.l     -[A7], D0
00000A72  204C                     movea.l    A0, A4
00000A74  226C 0008                movea.l    A1, [A4 + 0x8]
00000A78  D0E9 0030                add.w      A0, [A1 + 0x30]
00000A7C  2F08                     move.l     -[A7], A0
00000A7E  2049                     movea.l    A0, A1
00000A80  2268 0034                movea.l    A1, [A0 + 0x34]
00000A84  4E91                     jsr        [A1]
00000A86  7000                     moveq.l    D0, 0x00
00000A88  504F                     addq.w     A7, 8
00000A8A  6002                     bra        +0x4 /* 00000A8E */
label00000A8C:
00000A8C  7000                     moveq.l    D0, 0x00
label00000A8E:
00000A8E  7000                     moveq.l    D0, 0x00
00000A90  2F00                     move.l     -[A7], D0
00000A92  7201                     moveq.l    D1, 0x01
00000A94  2F01                     move.l     -[A7], D1
00000A96  7009                     moveq.l    D0, 0x09
00000A98  2F00                     move.l     -[A7], D0
00000A9A  7003                     moveq.l    D0, 0x03
00000A9C  2F00                     move.l     -[A7], D0
00000A9E  7000                     moveq.l    D0, 0x00
00000AA0  2F00                     move.l     -[A7], D0
00000AA2  204D                     movea.l    A0, A5
00000AA4  D1FC FFFF 0644           add.l      A0, 0xFFFF0644
00000AAA  4850                     pea.l      [A0]
00000AAC  2F00                     move.l     -[A7], D0
00000AAE  4EAD 1922                jsr        [A5 + 0x1922 /* export_800, CODE:33 @ 00000FF6 */]
00000AB2  2840                     movea.l    A4, D0
00000AB4  7002                     moveq.l    D0, 0x02
00000AB6  2F00                     move.l     -[A7], D0
00000AB8  4878 00E6                push.l     0xE6
00000ABC  2F0C                     move.l     -[A7], A4
00000ABE  4EAD 1942                jsr        [A5 + 0x1942 /* export_804, CODE:33 @ 0000186C */]
00000AC2  4EAD 0632                jsr        [A5 + 0x632 /* export_194, CODE:10 @ 00003E38 */]
00000AC6  2F00                     move.l     -[A7], D0
00000AC8  2F0C                     move.l     -[A7], A4
00000ACA  4EAD 17FA                jsr        [A5 + 0x17FA /* export_763, CODE:32 @ 000057BC */]
00000ACE  7000                     moveq.l    D0, 0x00
00000AD0  2F00                     move.l     -[A7], D0
00000AD2  2F2C 0014                move.l     -[A7], [A4 + 0x14]
00000AD6  204D                     movea.l    A0, A5
00000AD8  D1FC FFFF 0656           add.l      A0, 0xFFFF0656
00000ADE  4850                     pea.l      [A0]
00000AE0  2F0C                     move.l     -[A7], A4
00000AE2  4EAD 178A                jsr        [A5 + 0x178A /* export_749, CODE:32 @ 00004E80 */]
00000AE6  204D                     movea.l    A0, A5
00000AE8  D1FC FFFD 93EC           add.l      A0, 0xFFFD93EC
00000AEE  2F10                     move.l     -[A7], [A0]
00000AF0  2F0C                     move.l     -[A7], A4
00000AF2  4EAD 17FA                jsr        [A5 + 0x17FA /* export_763, CODE:32 @ 000057BC */]
00000AF6  41EE FFF8                lea.l      A0, [A6 - 0x8]
00000AFA  43EE FFD8                lea.l      A1, [A6 - 0x28]
00000AFE  20D9                     move.l     [A0]+, [A1]+
00000B00  20D9                     move.l     [A0]+, [A1]+
00000B02  066E 000A FFFA           addi.w     [A6 - 0x6], 0xA /* '\n' */
00000B08  3D7C 00FC FFF8           move.w     [A6 - 0x8], 0xFC
00000B0E  7000                     moveq.l    D0, 0x00
00000B10  2F00                     move.l     -[A7], D0
00000B12  2F00                     move.l     -[A7], D0
00000B14  486E FFF8                pea.l      [A6 - 0x8]
00000B18  2F0C                     move.l     -[A7], A4
00000B1A  4EAD 193A                jsr        [A5 + 0x193A /* export_803, CODE:33 @ 00001176 */]
00000B1E  200C                     move.l     D0, A4
00000B20  671E                     beq        +0x20 /* 00000B40 */
00000B22  7003                     moveq.l    D0, 0x03
00000B24  2F00                     move.l     -[A7], D0
00000B26  204C                     movea.l    A0, A4
00000B28  226C 0008                movea.l    A1, [A4 + 0x8]
00000B2C  D0E9 0030                add.w      A0, [A1 + 0x30]
00000B30  2F08                     move.l     -[A7], A0
00000B32  2049                     movea.l    A0, A1
00000B34  2268 0034                movea.l    A1, [A0 + 0x34]
00000B38  4E91                     jsr        [A1]
00000B3A  7000                     moveq.l    D0, 0x00
00000B3C  504F                     addq.w     A7, 8
00000B3E  6002                     bra        +0x4 /* 00000B42 */
label00000B40:
00000B40  7000                     moveq.l    D0, 0x00
label00000B42:
00000B42  7002                     moveq.l    D0, 0x02
00000B44  2F00                     move.l     -[A7], D0
00000B46  486E FFA6                pea.l      [A6 - 0x5A]
00000B4A  4EAD 15D2                jsr        [A5 + 0x15D2 /* export_694, CODE:32 @ 000029D6 */]
00000B4E  7002                     moveq.l    D0, 0x02
00000B50  2F00                     move.l     -[A7], D0
00000B52  486E FF74                pea.l      [A6 - 0x8C]
00000B56  4EAD 15D2                jsr        [A5 + 0x15D2 /* export_694, CODE:32 @ 000029D6 */]
00000B5A  7002                     moveq.l    D0, 0x02
00000B5C  2F00                     move.l     -[A7], D0
00000B5E  486E FF42                pea.l      [A6 - 0xBE]
00000B62  4EAD 15D2                jsr        [A5 + 0x15D2 /* export_694, CODE:32 @ 000029D6 */]
00000B66  7002                     moveq.l    D0, 0x02
00000B68  2F00                     move.l     -[A7], D0
00000B6A  486E FF10                pea.l      [A6 - 0xF0]
00000B6E  4EAD 15D2                jsr        [A5 + 0x15D2 /* export_694, CODE:32 @ 000029D6 */]
00000B72  4FEF 047C                lea.l      A7, [A7 + 0x47C]
00000B76  4CEE 1880 FF04           movem.l    D7,A3,A4, [A6 - 0xFC]
00000B7C  4E5E                     unlink     A6
00000B7E  4E75                     rts
00000B80  8026 4472 6177 496E 7... dc.b       "DrawIntoNotepad__17cBalanceSheetItemFv"
export_302:
00000BAA  4E56 FFF4                link       A6, -0x000C
00000BAE  48E7 1018                movem.l    -[A7], D3,A3,A4
00000BB2  266E 000C                movea.l    A3, [A6 + 0xC]
00000BB6  286E 0008                movea.l    A4, [A6 + 0x8]
00000BBA  200C                     move.l     D0, A4
00000BBC  6612                     bne        +0x14 /* 00000BD0 */
00000BBE  4878 014C                push.l     0x14C
00000BC2  4EAD 010A                jsr        [A5 + 0x10A /* export_29, CODE:1 @ 00001C0A */]
00000BC6  2840                     movea.l    A4, D0
00000BC8  200C                     move.l     D0, A4
00000BCA  584F                     addq.w     A7, 4
00000BCC  6700 0240                beq        +0x242 /* 00000E0E */
label00000BD0:
00000BD0  200B                     move.l     D0, A3
00000BD2  57C3                     seq        D3
00000BD4  4403                     neg.b      D3
00000BD6  674E                     beq        +0x50 /* 00000C26 */
00000BD8  264C                     movea.l    A3, A4
00000BDA  47EB 0140                lea.l      A3, [A3 + 0x140]
00000BDE  7601                     moveq.l    D3, 0x01
00000BE0  200C                     move.l     D0, A4
00000BE2  D0BC 0000 0140           add.l      D0, 0x140
00000BE8  6614                     bne        +0x16 /* 00000BFE */
00000BEA  2F03                     move.l     -[A7], D3
00000BEC  700C                     moveq.l    D0, 0x0C
00000BEE  2F00                     move.l     -[A7], D0
00000BF0  4EAD 010A                jsr        [A5 + 0x10A /* export_29, CODE:1 @ 00001C0A */]
00000BF4  588F                     addq.l     A7, 4
00000BF6  261F                     move.l     D3, [A7]+
00000BF8  4A80                     tst.l      D0
00000BFA  6602                     bne        +0x4 /* 00000BFE */
00000BFC  7600                     moveq.l    D3, 0x00
label00000BFE:
00000BFE  4A03                     tst.b      D3
00000C00  6718                     beq        +0x1A /* 00000C1A */
00000C02  204D                     movea.l    A0, A5
00000C04  D1FC FFFF 39C2           add.l      A0, 0xFFFF39C2
00000C0A  2950 0148                move.l     [A4 + 0x148], [A0]
00000C0E  7000                     moveq.l    D0, 0x00
00000C10  2940 0140                move.l     [A4 + 0x140], D0
00000C14  2940 0144                move.l     [A4 + 0x144], D0
00000C18  6002                     bra        +0x4 /* 00000C1C */
label00000C1A:
00000C1A  7000                     moveq.l    D0, 0x00
label00000C1C:
00000C1C  200C                     move.l     D0, A4
00000C1E  D0BC 0000 0140           add.l      D0, 0x140
00000C24  6002                     bra        +0x4 /* 00000C28 */
label00000C26:
00000C26  200B                     move.l     D0, A3
label00000C28:
00000C28  7008                     moveq.l    D0, 0x08
00000C2A  2F00                     move.l     -[A7], D0
00000C2C  7200                     moveq.l    D1, 0x00
00000C2E  2F01                     move.l     -[A7], D1
00000C30  7001                     moveq.l    D0, 0x01
00000C32  2F00                     move.l     -[A7], D0
00000C34  2F2E 0018                move.l     -[A7], [A6 + 0x18]
00000C38  2F2E 0014                move.l     -[A7], [A6 + 0x14]
00000C3C  2F2E 0010                move.l     -[A7], [A6 + 0x10]
00000C40  2F0B                     move.l     -[A7], A3
00000C42  2F0C                     move.l     -[A7], A4
00000C44  4EAD 019A                jsr        [A5 + 0x19A /* export_47, CODE:1 @ 00002D3A */]
00000C48  204D                     movea.l    A0, A5
00000C4A  D1FC FFFF 39C6           add.l      A0, 0xFFFF39C6
00000C50  2950 0060                move.l     [A4 + 0x60], [A0]
00000C54  204D                     movea.l    A0, A5
00000C56  D1FC FFFF 39CA           add.l      A0, 0xFFFF39CA
00000C5C  2950 0088                move.l     [A4 + 0x88], [A0]
00000C60  204D                     movea.l    A0, A5
00000C62  D1FC FFFF 39CE           add.l      A0, 0xFFFF39CE
00000C68  2950 0070                move.l     [A4 + 0x70], [A0]
00000C6C  206C 0064                movea.l    A0, [A4 + 0x64]
00000C70  224D                     movea.l    A1, A5
00000C72  D3FC FFFF 39D2           add.l      A1, 0xFFFF39D2
00000C78  2151 0008                move.l     [A0 + 0x8], [A1]
00000C7C  197C 0001 0134           move.b     [A4 + 0x134], 0x1
00000C82  422C 0135                clr.b      [A4 + 0x135]
00000C86  197C 0001 013E           move.b     [A4 + 0x13E], 0x1
00000C8C  426C 0138                clr.w      [A4 + 0x138]
00000C90  397C 0010 013C           move.w     [A4 + 0x13C], 0x10
00000C96  426C 0136                clr.w      [A4 + 0x136]
00000C9A  397C 0010 013A           move.w     [A4 + 0x13A], 0x10
00000CA0  204D                     movea.l    A0, A5
00000CA2  D1FC FFFF 3C46           add.l      A0, 0xFFFF3C46
00000CA8  4A90                     tst.l      [A0]
00000CAA  4FEF 0020                lea.l      A7, [A7 + 0x20]
00000CAE  6600 015A                bne        +0x15C /* 00000E0A */
00000CB2  598F                     subq.l     A7, 4
00000CB4  3F3C 044F                move.w     -[A7], 0x44F
00000CB8  A9BC                     syscall    GetPicture
00000CBA  265F                     movea.l    A3, [A7]+
00000CBC  200B                     move.l     D0, A3
00000CBE  6700 014A                beq        +0x14C /* 00000E0A */
00000CC2  204B                     movea.l    A0, A3
00000CC4  A064                     syscall    MoveHHi
00000CC6  A029                     syscall    HLock
00000CC8  206C 0112                movea.l    A0, [A4 + 0x112]
00000CCC  2068 0084                movea.l    A0, [A0 + 0x84]
00000CD0  43EE FFF4                lea.l      A1, [A6 - 0xC]
00000CD4  41E8 0010                lea.l      A0, [A0 + 0x10]
00000CD8  22D8                     move.l     [A1]+, [A0]+
00000CDA  22D8                     move.l     [A1]+, [A0]+
00000CDC  2F2C 0112                move.l     -[A7], [A4 + 0x112]
00000CE0  4EAD 11E2                jsr        [A5 + 0x11E2 /* export_568, CODE:26 @ 000031FA */]
00000CE4  486E FFF4                pea.l      [A6 - 0xC]
00000CE8  A870                     syscall    LocalToGlobal
00000CEA  302E FFF6                move.w     D0, [A6 - 0xA]
00000CEE  48C0                     ext.l      D0
00000CF0  2053                     movea.l    A0, [A3]
00000CF2  3228 0008                move.w     D1, [A0 + 0x8]
00000CF6  48C1                     ext.l      D1
00000CF8  D280                     add.l      D1, D0
00000CFA  9268 0004                sub.w      D1, [A0 + 0x4]
00000CFE  3D41 FFFA                move.w     [A6 - 0x6], D1
00000D02  302E FFF4                move.w     D0, [A6 - 0xC]
00000D06  48C0                     ext.l      D0
00000D08  2053                     movea.l    A0, [A3]
00000D0A  3228 0006                move.w     D1, [A0 + 0x6]
00000D0E  48C1                     ext.l      D1
00000D10  D280                     add.l      D1, D0
00000D12  9268 0002                sub.w      D1, [A0 + 0x2]
00000D16  3D41 FFF8                move.w     [A6 - 0x8], D1
00000D1A  2F2C 0112                move.l     -[A7], [A4 + 0x112]
00000D1E  4EAD 11EA                jsr        [A5 + 0x11EA /* export_569, CODE:26 @ 00003268 */]
00000D22  204D                     movea.l    A0, A5
00000D24  D1FC FFFF 7868           add.l      A0, 0xFFFF7868
00000D2A  2050                     movea.l    A0, [A0]
00000D2C  2D48 FFFC                move.l     [A6 - 0x4], A0
00000D30  7001                     moveq.l    D0, 0x01
00000D32  B068 0186                cmp.w      D0, [A0 + 0x186]
00000D36  504F                     addq.w     A7, 8
00000D38  6626                     bne        +0x28 /* 00000D60 */
00000D3A  7000                     moveq.l    D0, 0x00
00000D3C  2F00                     move.l     -[A7], D0
00000D3E  2F00                     move.l     -[A7], D0
00000D40  2F00                     move.l     -[A7], D0
00000D42  7208                     moveq.l    D1, 0x08
00000D44  2F01                     move.l     -[A7], D1
00000D46  486E FFF4                pea.l      [A6 - 0xC]
00000D4A  2F00                     move.l     -[A7], D0
00000D4C  4EAD 1722                jsr        [A5 + 0x1722 /* export_736, CODE:32 @ 00004320 */]
00000D50  204D                     movea.l    A0, A5
00000D52  D1FC FFFF 3C46           add.l      A0, 0xFFFF3C46
00000D58  2080                     move.l     [A0], D0
00000D5A  4FEF 0018                lea.l      A7, [A7 + 0x18]
00000D5E  6022                     bra        +0x24 /* 00000D82 */
label00000D60:
00000D60  7000                     moveq.l    D0, 0x00
00000D62  2F00                     move.l     -[A7], D0
00000D64  2F00                     move.l     -[A7], D0
00000D66  2F00                     move.l     -[A7], D0
00000D68  2F00                     move.l     -[A7], D0
00000D6A  486E FFF4                pea.l      [A6 - 0xC]
00000D6E  2F00                     move.l     -[A7], D0
00000D70  4EAD 1722                jsr        [A5 + 0x1722 /* export_736, CODE:32 @ 00004320 */]
00000D74  204D                     movea.l    A0, A5
00000D76  D1FC FFFF 3C46           add.l      A0, 0xFFFF3C46
00000D7C  2080                     move.l     [A0], D0
00000D7E  4FEF 0018                lea.l      A7, [A7 + 0x18]
label00000D82:
00000D82  204D                     movea.l    A0, A5
00000D84  D1FC FFFF 3C46           add.l      A0, 0xFFFF3C46
00000D8A  4A90                     tst.l      [A0]
00000D8C  6774                     beq        +0x76 /* 00000E02 */
00000D8E  224D                     movea.l    A1, A5
00000D90  D3FC FFFF 3C46           add.l      A1, 0xFFFF3C46
00000D96  2051                     movea.l    A0, [A1]
00000D98  4868 001C                pea.l      [A0 + 0x1C]
00000D9C  224D                     movea.l    A1, A5
00000D9E  D3FC FFFF 3C46           add.l      A1, 0xFFFF3C46
00000DA4  2051                     movea.l    A0, [A1]
00000DA6  4868 0020                pea.l      [A0 + 0x20]
00000DAA  203C 0008 0005           move.l     D0, 0x80005
00000DB0  AB1D                     syscall    QDExtensions
00000DB2  224D                     movea.l    A1, A5
00000DB4  D3FC FFFF 3C46           add.l      A1, 0xFFFF3C46
00000DBA  2051                     movea.l    A0, [A1]
00000DBC  2F28 0018                move.l     -[A7], [A0 + 0x18]
00000DC0  7000                     moveq.l    D0, 0x00
00000DC2  2F00                     move.l     -[A7], D0
00000DC4  203C 0008 0006           move.l     D0, 0x80006
00000DCA  AB1D                     syscall    QDExtensions
00000DCC  2053                     movea.l    A0, [A3]
00000DCE  4868 0002                pea.l      [A0 + 0x2]
00000DD2  A8A3                     syscall    EraseRect
00000DD4  2F0B                     move.l     -[A7], A3
00000DD6  2053                     movea.l    A0, [A3]
00000DD8  4868 0002                pea.l      [A0 + 0x2]
00000DDC  A8F6                     syscall    DrawPicture
00000DDE  224D                     movea.l    A1, A5
00000DE0  D3FC FFFF 3C46           add.l      A1, 0xFFFF3C46
00000DE6  2051                     movea.l    A0, [A1]
00000DE8  2F28 001C                move.l     -[A7], [A0 + 0x1C]
00000DEC  224D                     movea.l    A1, A5
00000DEE  D3FC FFFF 3C46           add.l      A1, 0xFFFF3C46
00000DF4  2051                     movea.l    A0, [A1]
00000DF6  2F28 0020                move.l     -[A7], [A0 + 0x20]
00000DFA  203C 0008 0006           move.l     D0, 0x80006
00000E00  AB1D                     syscall    QDExtensions
label00000E02:
00000E02  204B                     movea.l    A0, A3
00000E04  A02A                     syscall    HUnlock
00000E06  2F0B                     move.l     -[A7], A3
00000E08  A9A3                     syscall    ReleaseResource
label00000E0A:
00000E0A  422C 0132                clr.b      [A4 + 0x132]
label00000E0E:
00000E0E  200C                     move.l     D0, A4
00000E10  4CEE 1808 FFE8           movem.l    D3,A3,A4, [A6 - 0x18]
00000E16  4E5E                     unlink     A6
00000E18  4E75                     rts
00000E1A  802C 5F5F 6374 5F5F 3... dc.b       "__ct__12cFarmMapItemFP6cAgentP7cWindowR4Rect"
export_303:
00000E4A  4E56 0000                link       A6, 0
00000E4E  48E7 0108                movem.l    -[A7], D7,A4
00000E52  2E2E 000C                move.l     D7, [A6 + 0xC]
00000E56  286E 0008                movea.l    A4, [A6 + 0x8]
00000E5A  200C                     move.l     D0, A4
00000E5C  6772                     beq        +0x74 /* 00000ED0 */
00000E5E  206C 0064                movea.l    A0, [A4 + 0x64]
00000E62  224D                     movea.l    A1, A5
00000E64  D3FC FFFF 39D2           add.l      A1, 0xFFFF39D2
00000E6A  2151 0008                move.l     [A0 + 0x8], [A1]
00000E6E  204D                     movea.l    A0, A5
00000E70  D1FC FFFF 39CE           add.l      A0, 0xFFFF39CE
00000E76  2950 0070                move.l     [A4 + 0x70], [A0]
00000E7A  204D                     movea.l    A0, A5
00000E7C  D1FC FFFF 39CA           add.l      A0, 0xFFFF39CA
00000E82  2950 0088                move.l     [A4 + 0x88], [A0]
00000E86  204D                     movea.l    A0, A5
00000E88  D1FC FFFF 39C6           add.l      A0, 0xFFFF39C6
00000E8E  2950 0060                move.l     [A4 + 0x60], [A0]
00000E92  200C                     move.l     D0, A4
00000E94  673A                     beq        +0x3C /* 00000ED0 */
00000E96  7000                     moveq.l    D0, 0x00
00000E98  2F00                     move.l     -[A7], D0
00000E9A  2F0C                     move.l     -[A7], A4
00000E9C  4EAD 01A2                jsr        [A5 + 0x1A2 /* export_48, CODE:1 @ 00002EC4 */]
00000EA0  7002                     moveq.l    D0, 0x02
00000EA2  C087                     and.l      D0, D7
00000EA4  6718                     beq        +0x1A /* 00000EBE */
00000EA6  7000                     moveq.l    D0, 0x00
00000EA8  2F00                     move.l     -[A7], D0
00000EAA  220C                     move.l     D1, A4
00000EAC  D2BC 0000 0140           add.l      D1, 0x140
00000EB2  2F01                     move.l     -[A7], D1
00000EB4  4EAD 1632                jsr        [A5 + 0x1632 /* export_706, CODE:32 @ 000036CC */]
00000EB8  7000                     moveq.l    D0, 0x00
00000EBA  504F                     addq.w     A7, 8
00000EBC  6002                     bra        +0x4 /* 00000EC0 */
label00000EBE:
00000EBE  7000                     moveq.l    D0, 0x00
label00000EC0:
00000EC0  0807 0000                btst.b     D7, 0x0
00000EC4  504F                     addq.w     A7, 8
00000EC6  6708                     beq        +0xA /* 00000ED0 */
00000EC8  2F0C                     move.l     -[A7], A4
00000ECA  4EAD 0102                jsr        [A5 + 0x102 /* export_28, CODE:1 @ 00001BE0 */]
00000ECE  584F                     addq.w     A7, 4
label00000ED0:
00000ED0  4CEE 1080 FFF8           movem.l    D7,A4, [A6 - 0x8]
00000ED6  4E5E                     unlink     A6
00000ED8  4E75                     rts
00000EDA  965F 5F64 745F 5F31 3... dc.b       "__dt__12cFarmMapItemFv"
export_304:
00000EF4  4E56 0000                link       A6, 0
00000EF8  48E7 0108                movem.l    -[A7], D7,A4
00000EFC  1E2E 000F                move.b     D7, [A6 + 0xF]
00000F00  286E 0008                movea.l    A4, [A6 + 0x8]
00000F04  BE2C 013F                cmp.b      D7, [A4 + 0x13F]
00000F08  670E                     beq        +0x10 /* 00000F18 */
00000F0A  1947 013F                move.b     [A4 + 0x13F], D7
00000F0E  422C 0132                clr.b      [A4 + 0x132]
00000F12  197C 0001 013E           move.b     [A4 + 0x13E], 0x1
label00000F18:
00000F18  7000                     moveq.l    D0, 0x00
00000F1A  102C 013F                move.b     D0, [A4 + 0x13F]
00000F1E  0C40 0001                cmpi.w     D0, 0x1
00000F22  6614                     bne        +0x16 /* 00000F38 */
00000F24  426C 0138                clr.w      [A4 + 0x138]
00000F28  397C 0010 013C           move.w     [A4 + 0x13C], 0x10
00000F2E  426C 0136                clr.w      [A4 + 0x136]
00000F32  397C 0010 013A           move.w     [A4 + 0x13A], 0x10
label00000F38:
00000F38  4CEE 1080 FFF8           movem.l    D7,A4, [A6 - 0x8]
00000F3E  4E5E                     unlink     A6
00000F40  4E75                     rts
00000F42  8021 5365 7444 6973 7... dc.b       "SetDisplayMode__12cFarmMapItemFUc"
export_305:
00000F68  4E56 FEEE                link       A6, -0x0112
00000F6C  48E7 1F18                movem.l    -[A7], D3,D4,D5,D6,D7,A3,A4
00000F70  286E 0008                movea.l    A4, [A6 + 0x8]
00000F74  204D                     movea.l    A0, A5
00000F76  D1FC FFFF 3C46           add.l      A0, 0xFFFF3C46
00000F7C  4A90                     tst.l      [A0]
00000F7E  6700 0726                beq        +0x728 /* 000016A6 */
00000F82  4AAC 012A                tst.l      [A4 + 0x12A]
00000F86  6700 071E                beq        +0x720 /* 000016A6 */
00000F8A  4A2C 0132                tst.b      [A4 + 0x132]
00000F8E  6600 0716                bne        +0x718 /* 000016A6 */
00000F92  598F                     subq.l     A7, 4
00000F94  224D                     movea.l    A1, A5
00000F96  D3FC FFFF 3C46           add.l      A1, 0xFFFF3C46
00000F9C  2051                     movea.l    A0, [A1]
00000F9E  2068 0018                movea.l    A0, [A0 + 0x18]
00000FA2  2F28 0002                move.l     -[A7], [A0 + 0x2]
00000FA6  203C 0004 000F           move.l     D0, 0x4000F
00000FAC  AB1D                     syscall    QDExtensions
00000FAE  2D5F FFDE                move.l     [A6 - 0x22], [A7]+
00000FB2  266C 012A                movea.l    A3, [A4 + 0x12A]
00000FB6  598F                     subq.l     A7, 4
00000FB8  206B 0018                movea.l    A0, [A3 + 0x18]
00000FBC  2F28 0002                move.l     -[A7], [A0 + 0x2]
00000FC0  203C 0004 000F           move.l     D0, 0x4000F
00000FC6  AB1D                     syscall    QDExtensions
00000FC8  2D5F FFE2                move.l     [A6 - 0x1E], [A7]+
00000FCC  266C 012A                movea.l    A3, [A4 + 0x12A]
00000FD0  206B 0018                movea.l    A0, [A3 + 0x18]
00000FD4  2068 0002                movea.l    A0, [A0 + 0x2]
00000FD8  2050                     movea.l    A0, [A0]
00000FDA  3028 0004                move.w     D0, [A0 + 0x4]
00000FDE  48C0                     ext.l      D0
00000FE0  323C 7FFF                move.w     D1, 0x7FFF
00000FE4  C240                     and.w      D1, D0
00000FE6  E249                     lsr        D1.w, 1
00000FE8  7000                     moveq.l    D0, 0x00
00000FEA  3001                     move.w     D0, D1
00000FEC  2D40 FFE6                move.l     [A6 - 0x1A], D0
00000FF0  224D                     movea.l    A1, A5
00000FF2  D3FC FFFF 3C46           add.l      A1, 0xFFFF3C46
00000FF8  2051                     movea.l    A0, [A1]
00000FFA  2068 0018                movea.l    A0, [A0 + 0x18]
00000FFE  2068 0002                movea.l    A0, [A0 + 0x2]
00001002  2050                     movea.l    A0, [A0]
00001004  3028 0004                move.w     D0, [A0 + 0x4]
00001008  48C0                     ext.l      D0
0000100A  323C 7FFF                move.w     D1, 0x7FFF
0000100E  C240                     and.w      D1, D0
00001010  E249                     lsr        D1.w, 1
00001012  7000                     moveq.l    D0, 0x00
00001014  3001                     move.w     D0, D1
00001016  2D40 FFEA                move.l     [A6 - 0x16], D0
0000101A  486E FFEE                pea.l      [A6 - 0x12]
0000101E  A898                     syscall    GetPenState
00001020  4244                     clr.w      D4
label00001022:
00001022  2004                     move.l     D0, D4
00001024  C1FC 00C0                muls.w     D0, 0xC0
00001028  204D                     movea.l    A0, A5
0000102A  D1FC FFFE 42D4           add.l      A0, 0xFFFE42D4
00001030  D0C0                     add.w      A0, D0
00001032  2D48 FFDA                move.l     [A6 - 0x26], A0
00001036  266E FFE2                movea.l    A3, [A6 - 0x1E]
0000103A  4245                     clr.w      D5
label0000103C:
0000103C  206E FFDA                movea.l    A0, [A6 - 0x26]
00001040  54AE FFDA                addq.l     [A6 - 0x26], 2
00001044  7000                     moveq.l    D0, 0x00
00001046  3010                     move.w     D0, [A0]
00001048  3E3C 07FF                move.w     D7, 0x7FF
0000104C  CE40                     and.w      D7, D0
0000104E  2004                     move.l     D0, D4
00001050  C1FC 00C0                muls.w     D0, 0xC0
00001054  204D                     movea.l    A0, A5
00001056  D1FC FFFD FAD4           add.l      A0, 0xFFFDFAD4
0000105C  2205                     move.l     D1, D5
0000105E  D241                     add.w      D1, D1
00001060  D240                     add.w      D1, D0
00001062  7000                     moveq.l    D0, 0x00
00001064  3030 1000                move.w     D0, [A0 + D1.w]
00001068  323C 1000                move.w     D1, 0x1000
0000106C  C240                     and.w      D1, D0
0000106E  6714                     beq        +0x16 /* 00001084 */
00001070  48C5                     ext.l      D5
00001072  2F05                     move.l     -[A7], D5
00001074  48C4                     ext.l      D4
00001076  2F04                     move.l     -[A7], D4
00001078  4EAD 03F2                jsr        [A5 + 0x3F2 /* export_122, CODE:6 @ 000039FA */]
0000107C  4880                     ext.w      D0
0000107E  3C00                     move.w     D6, D0
00001080  504F                     addq.w     A7, 8
00001082  6002                     bra        +0x4 /* 00001086 */
label00001084:
00001084  7CFF                     moveq.l    D6, 0xFFFFFFFF
label00001086:
00001086  102C 013F                move.b     D0, [A4 + 0x13F]
0000108A  0C00 0008                cmpi.b     D0, 0x8
0000108E  6200 01D4                bhi        +0x1D6 /* 00001264 */
00001092  7200                     moveq.l    D1, 0x00
00001094  1200                     move.b     D1, D0
00001096  D241                     add.w      D1, D1
00001098  323B 1006                move.w     D1, [PC + D1.w + 0x6]
0000109C  4EFB 1000                jmp        [PC + D1.w]
000010A0  01C6                     .incomplete
000010A2  0014 0064                ori.b      [A4], 0x64 /* 'd' */
000010A6  0092 00C0 00EE           ori.l      [A2], 0xC000EE
000010AC  011C                     btst       [A4]+, D0
000010AE  0176 019E 3005           bchg       [[] + D0 + 0x3005], D0
000010B4  E640                     asr        D0.w, 3
000010B6  3204                     move.w     D1, D4
000010B8  E641                     asr        D1.w, 3
000010BA  C3FC 000C                muls.w     D1, 0xC
000010BE  204D                     movea.l    A0, A5
000010C0  D1FC FFFE 97B2           add.l      A0, 0xFFFE97B2
000010C6  D041                     add.w      D0, D1
000010C8  7200                     moveq.l    D1, 0x00
000010CA  1230 0000                move.b     D1, [A0 + D0.w]
000010CE  4A81                     tst.l      D1
000010D0  6700 0192                beq        +0x194 /* 00001264 */
000010D4  3005                     move.w     D0, D5
000010D6  E640                     asr        D0.w, 3
000010D8  3204                     move.w     D1, D4
000010DA  E641                     asr        D1.w, 3
000010DC  C3FC 000C                muls.w     D1, 0xC
000010E0  204D                     movea.l    A0, A5
000010E2  D1FC FFFE 97B2           add.l      A0, 0xFFFE97B2
000010E8  D041                     add.w      D0, D1
000010EA  7200                     moveq.l    D1, 0x00
000010EC  1230 0000                move.b     D1, [A0 + D0.w]
000010F0  D241                     add.w      D1, D1
000010F2  204D                     movea.l    A0, A5
000010F4  D1FC FFFF 3C4A           add.l      A0, 0xFFFF3C4A
000010FA  3E30 1000                move.w     D7, [A0 + D1.w]
000010FE  6000 0164                bra        +0x166 /* 00001264 */
00001102  4A46                     tst.w      D6
00001104  6D22                     blt        +0x24 /* 00001128 */
00001106  2006                     move.l     D0, D6
00001108  C1FC 0044                muls.w     D0, 0x44 /* 'D' */
0000110C  204D                     movea.l    A0, A5
0000110E  D1FC FFFD AFAE           add.l      A0, 0xFFFDAFAE
00001114  1030 0020                move.b     D0, [A0 + D0.w + 0x20]
00001118  E608                     lsr        D0.b, 3
0000111A  7200                     moveq.l    D1, 0x00
0000111C  1200                     move.b     D1, D0
0000111E  3E01                     move.w     D7, D1
00001120  DE7C 01D0                add.w      D7, 0x1D0
00001124  6000 013E                bra        +0x140 /* 00001264 */
label00001128:
00001128  3E3C 01D0                move.w     D7, 0x1D0
0000112C  6000 0136                bra        +0x138 /* 00001264 */
00001130  4A46                     tst.w      D6
00001132  6D22                     blt        +0x24 /* 00001156 */
00001134  2006                     move.l     D0, D6
00001136  C1FC 0044                muls.w     D0, 0x44 /* 'D' */
0000113A  204D                     movea.l    A0, A5
0000113C  D1FC FFFD AFAE           add.l      A0, 0xFFFDAFAE
00001142  1030 001D                move.b     D0, [A0 + D0.w + 0x1D]
00001146  E608                     lsr        D0.b, 3
00001148  7200                     moveq.l    D1, 0x00
0000114A  1200                     move.b     D1, D0
0000114C  3E01                     move.w     D7, D1
0000114E  DE7C 01D0                add.w      D7, 0x1D0
00001152  6000 0110                bra        +0x112 /* 00001264 */
label00001156:
00001156  3E3C 01D0                move.w     D7, 0x1D0
0000115A  6000 0108                bra        +0x10A /* 00001264 */
0000115E  4A46                     tst.w      D6
00001160  6D22                     blt        +0x24 /* 00001184 */
00001162  2006                     move.l     D0, D6
00001164  C1FC 0044                muls.w     D0, 0x44 /* 'D' */
00001168  204D                     movea.l    A0, A5
0000116A  D1FC FFFD AFAE           add.l      A0, 0xFFFDAFAE
00001170  1030 0016                move.b     D0, [A0 + D0.w + 0x16]
00001174  E608                     lsr        D0.b, 3
00001176  7200                     moveq.l    D1, 0x00
00001178  1200                     move.b     D1, D0
0000117A  3E01                     move.w     D7, D1
0000117C  DE7C 01D0                add.w      D7, 0x1D0
00001180  6000 00E2                bra        +0xE4 /* 00001264 */
label00001184:
00001184  3E3C 01D0                move.w     D7, 0x1D0
00001188  6000 00DA                bra        +0xDC /* 00001264 */
0000118C  4A46                     tst.w      D6
0000118E  6D22                     blt        +0x24 /* 000011B2 */
00001190  2006                     move.l     D0, D6
00001192  C1FC 0044                muls.w     D0, 0x44 /* 'D' */
00001196  204D                     movea.l    A0, A5
00001198  D1FC FFFD AFAE           add.l      A0, 0xFFFDAFAE
0000119E  1030 0015                move.b     D0, [A0 + D0.w + 0x15]
000011A2  E608                     lsr        D0.b, 3
000011A4  7200                     moveq.l    D1, 0x00
000011A6  1200                     move.b     D1, D0
000011A8  3E01                     move.w     D7, D1
000011AA  DE7C 01D0                add.w      D7, 0x1D0
000011AE  6000 00B4                bra        +0xB6 /* 00001264 */
label000011B2:
000011B2  3E3C 01D0                move.w     D7, 0x1D0
000011B6  6000 00AC                bra        +0xAE /* 00001264 */
000011BA  2004                     move.l     D0, D4
000011BC  C1FC 00C0                muls.w     D0, 0xC0
000011C0  204D                     movea.l    A0, A5
000011C2  D1FC FFFE 42D4           add.l      A0, 0xFFFE42D4
000011C8  2205                     move.l     D1, D5
000011CA  D241                     add.w      D1, D1
000011CC  D240                     add.w      D1, D0
000011CE  7000                     moveq.l    D0, 0x00
000011D0  3030 1000                move.w     D0, [A0 + D1.w]
000011D4  323C 2000                move.w     D1, 0x2000 /* ' \0' */
000011D8  C240                     and.w      D1, D0
000011DA  6708                     beq        +0xA /* 000011E4 */
000011DC  3E3C 01EF                move.w     D7, 0x1EF
000011E0  6000 0082                bra        +0x84 /* 00001264 */
label000011E4:
000011E4  2004                     move.l     D0, D4
000011E6  C1FC 0060                muls.w     D0, 0x60 /* '`' */
000011EA  204D                     movea.l    A0, A5
000011EC  D1FC FFFD D6D4           add.l      A0, 0xFFFDD6D4
000011F2  2205                     move.l     D1, D5
000011F4  D240                     add.w      D1, D0
000011F6  7000                     moveq.l    D0, 0x00
000011F8  1030 1000                move.b     D0, [A0 + D1.w]
000011FC  4A80                     tst.l      D0
000011FE  204D                     movea.l    A0, A5
00001200  D1FC FFFE 8AEC           add.l      A0, 0xFFFE8AEC
00001206  1210                     move.b     D1, [A0]
00001208  4881                     ext.w      D1
0000120A  D240                     add.w      D1, D0
0000120C  3E01                     move.w     D7, D1
0000120E  DE7C 01D3                add.w      D7, 0x1D3
00001212  6050                     bra        +0x52 /* 00001264 */
00001214  4A46                     tst.w      D6
00001216  6D4C                     blt        +0x4E /* 00001264 */
00001218  2006                     move.l     D0, D6
0000121A  C1FC 0044                muls.w     D0, 0x44 /* 'D' */
0000121E  204D                     movea.l    A0, A5
00001220  D1FC FFFD AFAE           add.l      A0, 0xFFFDAFAE
00001226  720B                     moveq.l    D1, 0x0B
00001228  3030 0012                move.w     D0, [A0 + D0.w + 0x12]
0000122C  E268                     lsr        D0.w, D1
0000122E  7200                     moveq.l    D1, 0x00
00001230  3200                     move.w     D1, D0
00001232  2E3C 0000 01EF           move.l     D7, 0x1EF
00001238  9E81                     sub.l      D7, D1
0000123A  6028                     bra        +0x2A /* 00001264 */
0000123C  4A46                     tst.w      D6
0000123E  6D20                     blt        +0x22 /* 00001260 */
00001240  2006                     move.l     D0, D6
00001242  C1FC 0044                muls.w     D0, 0x44 /* 'D' */
00001246  204D                     movea.l    A0, A5
00001248  D1FC FFFD AFAE           add.l      A0, 0xFFFDAFAE
0000124E  1030 0014                move.b     D0, [A0 + D0.w + 0x14]
00001252  E608                     lsr        D0.b, 3
00001254  7200                     moveq.l    D1, 0x00
00001256  1200                     move.b     D1, D0
00001258  3E01                     move.w     D7, D1
0000125A  DE7C 01D0                add.w      D7, 0x1D0
0000125E  6004                     bra        +0x6 /* 00001264 */
label00001260:
00001260  3E3C 01D0                move.w     D7, 0x1D0
label00001264:
00001264  7000                     moveq.l    D0, 0x00
00001266  3007                     move.w     D0, D7
00001268  4A80                     tst.l      D0
0000126A  4C7C 0800 0000 0028      divu.l     D0:D0, 0x8000000
00001272  E388                     lsl        D0, 1
00001274  4C2E 0800 FFEA           muls.l     D2:D7, [A6 + 0x800]
0000127A  2D40 FFA8                move.l     [A6 - 0x58], D0
0000127E  7000                     moveq.l    D0, 0x00
00001280  3007                     move.w     D0, D7
00001282  4A80                     tst.l      D0
00001284  4C7C 0801 0000 0028      divu.l     D0:D0, 0x8010000
0000128C  49C1                     lea.l      A4, D1
0000128E  D3AE FFA8                add.l      [A6 - 0x58], D1
00001292  206E FFDE                movea.l    A0, [A6 - 0x22]
00001296  202E FFA8                move.l     D0, [A6 - 0x58]
0000129A  36B0 0A00                move.w     [A3], [A0 + D0 * 2]
0000129E  202E FFE6                move.l     D0, [A6 - 0x1A]
000012A2  D080                     add.l      D0, D0
000012A4  D7C0                     add.l      A3, D0
000012A6  202E FFEA                move.l     D0, [A6 - 0x16]
000012AA  D0AE FFA8                add.l      D0, [A6 - 0x58]
000012AE  206E FFDE                movea.l    A0, [A6 - 0x22]
000012B2  36B0 0A00                move.w     [A3], [A0 + D0 * 2]
000012B6  202E FFE6                move.l     D0, [A6 - 0x1A]
000012BA  D080                     add.l      D0, D0
000012BC  D7C0                     add.l      A3, D0
000012BE  3005                     move.w     D0, D5
000012C0  5245                     addq.w     D5, 1
000012C2  0C45 0060                cmpi.w     D5, 0x60 /* '`' */
000012C6  6D00 FD74                blt        -0x28A /* 0000103C */
000012CA  54AE FFE2                addq.l     [A6 - 0x1E], 2
000012CE  3004                     move.w     D0, D4
000012D0  5244                     addq.w     D4, 1
000012D2  0C44 0060                cmpi.w     D4, 0x60 /* '`' */
000012D6  6D00 FD4A                blt        -0x2B4 /* 00001022 */
000012DA  7000                     moveq.l    D0, 0x00
000012DC  2F00                     move.l     -[A7], D0
000012DE  2F00                     move.l     -[A7], D0
000012E0  486E FFAC                pea.l      [A6 - 0x54]
000012E4  4EAD 15AA                jsr        [A5 + 0x15AA /* export_689, CODE:32 @ 0000234A */]
000012E8  486E FFAC                pea.l      [A6 - 0x54]
000012EC  AA14                     syscall    RGBForeColor
000012EE  7000                     moveq.l    D0, 0x00
000012F0  102C 013F                move.b     D0, [A4 + 0x13F]
000012F4  0C40 0001                cmpi.w     D0, 0x1
000012F8  4FEF 000C                lea.l      A7, [A7 + 0xC]
000012FC  6650                     bne        +0x52 /* 0000134E */
000012FE  4244                     clr.w      D4
label00001300:
00001300  48C4                     ext.l      D4
00001302  2004                     move.l     D0, D4
00001304  E988                     lsl        D0, 4
00001306  3F00                     move.w     -[A7], D0
00001308  7000                     moveq.l    D0, 0x00
0000130A  3F00                     move.w     -[A7], D0
0000130C  A893                     syscall    MoveTo
0000130E  48C4                     ext.l      D4
00001310  2004                     move.l     D0, D4
00001312  E988                     lsl        D0, 4
00001314  3F00                     move.w     -[A7], D0
00001316  3F3C 00C0                move.w     -[A7], 0xC0
0000131A  A891                     syscall    LineTo
0000131C  3004                     move.w     D0, D4
0000131E  5244                     addq.w     D4, 1
00001320  0C44 000C                cmpi.w     D4, 0xC
00001324  6FDA                     ble        -0x24 /* 00001300 */
00001326  4245                     clr.w      D5
label00001328:
00001328  7000                     moveq.l    D0, 0x00
0000132A  3F00                     move.w     -[A7], D0
0000132C  48C5                     ext.l      D5
0000132E  2205                     move.l     D1, D5
00001330  E989                     lsl        D1, 4
00001332  3F01                     move.w     -[A7], D1
00001334  A893                     syscall    MoveTo
00001336  3F3C 00C0                move.w     -[A7], 0xC0
0000133A  48C5                     ext.l      D5
0000133C  2005                     move.l     D0, D5
0000133E  E988                     lsl        D0, 4
00001340  3F00                     move.w     -[A7], D0
00001342  A891                     syscall    LineTo
00001344  3005                     move.w     D0, D5
00001346  5245                     addq.w     D5, 1
00001348  0C45 000C                cmpi.w     D5, 0xC
0000134C  6FDA                     ble        -0x24 /* 00001328 */
label0000134E:
0000134E  2F3C 00FF FFFF           move.l     -[A7], 0xFFFFFF
00001354  7000                     moveq.l    D0, 0x00
00001356  2F00                     move.l     -[A7], D0
00001358  486E FEEE                pea.l      [A6 - 0x112]
0000135C  4EAD 15AA                jsr        [A5 + 0x15AA /* export_689, CODE:32 @ 0000234A */]
00001360  7000                     moveq.l    D0, 0x00
00001362  2F00                     move.l     -[A7], D0
00001364  2F00                     move.l     -[A7], D0
00001366  486E FF20                pea.l      [A6 - 0xE0]
0000136A  4EAD 15AA                jsr        [A5 + 0x15AA /* export_689, CODE:32 @ 0000234A */]
0000136E  7000                     moveq.l    D0, 0x00
00001370  2F00                     move.l     -[A7], D0
00001372  2F00                     move.l     -[A7], D0
00001374  7209                     moveq.l    D1, 0x09
00001376  2F01                     move.l     -[A7], D1
00001378  7003                     moveq.l    D0, 0x03
0000137A  2F00                     move.l     -[A7], D0
0000137C  7000                     moveq.l    D0, 0x00
0000137E  2F00                     move.l     -[A7], D0
00001380  2F00                     move.l     -[A7], D0
00001382  486E FF52                pea.l      [A6 - 0xAE]
00001386  4EAD 1922                jsr        [A5 + 0x1922 /* export_800, CODE:33 @ 00000FF6 */]
0000138A  204D                     movea.l    A0, A5
0000138C  D1FC FFFF 7868           add.l      A0, 0xFFFF7868
00001392  2650                     movea.l    A3, [A0]
00001394  7001                     moveq.l    D0, 0x01
00001396  B06B 0186                cmp.w      D0, [A3 + 0x186]
0000139A  4FEF 0034                lea.l      A7, [A7 + 0x34]
0000139E  6608                     bne        +0xA /* 000013A8 */
000013A0  486E FF20                pea.l      [A6 - 0xE0]
000013A4  AA14                     syscall    RGBForeColor
000013A6  6006                     bra        +0x8 /* 000013AE */
label000013A8:
000013A8  486E FEEE                pea.l      [A6 - 0x112]
000013AC  AA14                     syscall    RGBForeColor
label000013AE:
000013AE  3D7C 0001 FF74           move.w     [A6 - 0x8C], 0x1
000013B4  486E FF52                pea.l      [A6 - 0xAE]
000013B8  4EAD 1932                jsr        [A5 + 0x1932 /* export_802, CODE:33 @ 000010EA */]
000013BC  204D                     movea.l    A0, A5
000013BE  D1FC FFFF 0442           add.l      A0, 0xFFFF0442
000013C4  3010                     move.w     D0, [A0]
000013C6  48C0                     ext.l      D0
000013C8  2800                     move.l     D4, D0
000013CA  E98C                     lsl        D4, 4
000013CC  204D                     movea.l    A0, A5
000013CE  D1FC FFFF 0440           add.l      A0, 0xFFFF0440
000013D4  3010                     move.w     D0, [A0]
000013D6  48C0                     ext.l      D0
000013D8  2A00                     move.l     D5, D0
000013DA  E98D                     lsl        D5, 4
000013DC  486E FF9C                pea.l      [A6 - 0x64]
000013E0  3004                     move.w     D0, D4
000013E2  5440                     addq.w     D0, 2
000013E4  3F00                     move.w     -[A7], D0
000013E6  3005                     move.w     D0, D5
000013E8  5440                     addq.w     D0, 2
000013EA  3F00                     move.w     -[A7], D0
000013EC  3004                     move.w     D0, D4
000013EE  D07C 000A                add.w      D0, 0xA /* '\n' */
000013F2  3F00                     move.w     -[A7], D0
000013F4  3005                     move.w     D0, D5
000013F6  D07C 000A                add.w      D0, 0xA /* '\n' */
000013FA  3F00                     move.w     -[A7], D0
000013FC  A8A7                     syscall    SetRect
000013FE  486E FF52                pea.l      [A6 - 0xAE]
00001402  4EAD 1782                jsr        [A5 + 0x1782 /* export_748, CODE:32 @ 00004E1E */]
00001406  4206                     clr.b      D6
00001408  7000                     moveq.l    D0, 0x00
0000140A  1006                     move.b     D0, D6
0000140C  2F00                     move.l     -[A7], D0
0000140E  2F2E FF66                move.l     -[A7], [A6 - 0x9A]
00001412  204D                     movea.l    A0, A5
00001414  D1FC FFFF 39B2           add.l      A0, 0xFFFF39B2
0000141A  4850                     pea.l      [A0]
0000141C  486E FF52                pea.l      [A6 - 0xAE]
00001420  4EAD 178A                jsr        [A5 + 0x178A /* export_749, CODE:32 @ 00004E80 */]
00001424  7000                     moveq.l    D0, 0x00
00001426  2F00                     move.l     -[A7], D0
00001428  7201                     moveq.l    D1, 0x01
0000142A  2F01                     move.l     -[A7], D1
0000142C  486E FF9C                pea.l      [A6 - 0x64]
00001430  486E FF52                pea.l      [A6 - 0xAE]
00001434  4EAD 193A                jsr        [A5 + 0x193A /* export_803, CODE:33 @ 00001176 */]
00001438  204D                     movea.l    A0, A5
0000143A  D1FC FFFF 7820           add.l      A0, 0xFFFF7820
00001440  3010                     move.w     D0, [A0]
00001442  48C0                     ext.l      D0
00001444  2800                     move.l     D4, D0
00001446  E38C                     lsl        D4, 1
00001448  204D                     movea.l    A0, A5
0000144A  D1FC FFFF 781E           add.l      A0, 0xFFFF781E
00001450  3010                     move.w     D0, [A0]
00001452  48C0                     ext.l      D0
00001454  2A00                     move.l     D5, D0
00001456  E38D                     lsl        D5, 1
00001458  486E FF9C                pea.l      [A6 - 0x64]
0000145C  3004                     move.w     D0, D4
0000145E  5440                     addq.w     D0, 2
00001460  3F00                     move.w     -[A7], D0
00001462  3005                     move.w     D0, D5
00001464  5440                     addq.w     D0, 2
00001466  3F00                     move.w     -[A7], D0
00001468  3004                     move.w     D0, D4
0000146A  D07C 000A                add.w      D0, 0xA /* '\n' */
0000146E  3F00                     move.w     -[A7], D0
00001470  3005                     move.w     D0, D5
00001472  D07C 000A                add.w      D0, 0xA /* '\n' */
00001476  3F00                     move.w     -[A7], D0
00001478  A8A7                     syscall    SetRect
0000147A  486E FF52                pea.l      [A6 - 0xAE]
0000147E  4EAD 1782                jsr        [A5 + 0x1782 /* export_748, CODE:32 @ 00004E1E */]
00001482  4206                     clr.b      D6
00001484  7000                     moveq.l    D0, 0x00
00001486  1006                     move.b     D0, D6
00001488  2F00                     move.l     -[A7], D0
0000148A  2F2E FF66                move.l     -[A7], [A6 - 0x9A]
0000148E  204D                     movea.l    A0, A5
00001490  D1FC FFFF 39B6           add.l      A0, 0xFFFF39B6
00001496  4850                     pea.l      [A0]
00001498  486E FF52                pea.l      [A6 - 0xAE]
0000149C  4EAD 178A                jsr        [A5 + 0x178A /* export_749, CODE:32 @ 00004E80 */]
000014A0  7000                     moveq.l    D0, 0x00
000014A2  2F00                     move.l     -[A7], D0
000014A4  7201                     moveq.l    D1, 0x01
000014A6  2F01                     move.l     -[A7], D1
000014A8  486E FF9C                pea.l      [A6 - 0x64]
000014AC  486E FF52                pea.l      [A6 - 0xAE]
000014B0  4EAD 193A                jsr        [A5 + 0x193A /* export_803, CODE:33 @ 00001176 */]
000014B4  7000                     moveq.l    D0, 0x00
000014B6  204D                     movea.l    A0, A5
000014B8  D1FC FFFD AD20           add.l      A0, 0xFFFDAD20
000014BE  1010                     move.b     D0, [A0]
000014C0  4A80                     tst.l      D0
000014C2  0800 0000                btst.b     D0, 0x0
000014C6  4FEF 004C                lea.l      A7, [A7 + 0x4C]
000014CA  6700 0082                beq        +0x84 /* 0000154E */
000014CE  204D                     movea.l    A0, A5
000014D0  D1FC FFFD AD1A           add.l      A0, 0xFFFDAD1A
000014D6  3010                     move.w     D0, [A0]
000014D8  48C0                     ext.l      D0
000014DA  2800                     move.l     D4, D0
000014DC  E38C                     lsl        D4, 1
000014DE  204D                     movea.l    A0, A5
000014E0  D1FC FFFD AD18           add.l      A0, 0xFFFDAD18
000014E6  3010                     move.w     D0, [A0]
000014E8  48C0                     ext.l      D0
000014EA  2A00                     move.l     D5, D0
000014EC  E38D                     lsl        D5, 1
000014EE  486E FF9C                pea.l      [A6 - 0x64]
000014F2  3004                     move.w     D0, D4
000014F4  5440                     addq.w     D0, 2
000014F6  3F00                     move.w     -[A7], D0
000014F8  3005                     move.w     D0, D5
000014FA  5440                     addq.w     D0, 2
000014FC  3F00                     move.w     -[A7], D0
000014FE  3004                     move.w     D0, D4
00001500  D07C 000A                add.w      D0, 0xA /* '\n' */
00001504  3F00                     move.w     -[A7], D0
00001506  3005                     move.w     D0, D5
00001508  D07C 000A                add.w      D0, 0xA /* '\n' */
0000150C  3F00                     move.w     -[A7], D0
0000150E  A8A7                     syscall    SetRect
00001510  486E FF52                pea.l      [A6 - 0xAE]
00001514  4EAD 1782                jsr        [A5 + 0x1782 /* export_748, CODE:32 @ 00004E1E */]
00001518  4206                     clr.b      D6
0000151A  7000                     moveq.l    D0, 0x00
0000151C  1006                     move.b     D0, D6
0000151E  2F00                     move.l     -[A7], D0
00001520  2F2E FF66                move.l     -[A7], [A6 - 0x9A]
00001524  204D                     movea.l    A0, A5
00001526  D1FC FFFF 39BA           add.l      A0, 0xFFFF39BA
0000152C  4850                     pea.l      [A0]
0000152E  486E FF52                pea.l      [A6 - 0xAE]
00001532  4EAD 178A                jsr        [A5 + 0x178A /* export_749, CODE:32 @ 00004E80 */]
00001536  7000                     moveq.l    D0, 0x00
00001538  2F00                     move.l     -[A7], D0
0000153A  7201                     moveq.l    D1, 0x01
0000153C  2F01                     move.l     -[A7], D1
0000153E  486E FF9C                pea.l      [A6 - 0x64]
00001542  486E FF52                pea.l      [A6 - 0xAE]
00001546  4EAD 193A                jsr        [A5 + 0x193A /* export_803, CODE:33 @ 00001176 */]
0000154A  4FEF 0024                lea.l      A7, [A7 + 0x24]
label0000154E:
0000154E  7000                     moveq.l    D0, 0x00
00001550  204D                     movea.l    A0, A5
00001552  D1FC FFFD AD20           add.l      A0, 0xFFFDAD20
00001558  1010                     move.b     D0, [A0]
0000155A  7220                     moveq.l    D1, 0x20
0000155C  C200                     and.b      D1, D0
0000155E  6700 0082                beq        +0x84 /* 000015E2 */
00001562  204D                     movea.l    A0, A5
00001564  D1FC FFFD AD0A           add.l      A0, 0xFFFDAD0A
0000156A  3010                     move.w     D0, [A0]
0000156C  48C0                     ext.l      D0
0000156E  2800                     move.l     D4, D0
00001570  E38C                     lsl        D4, 1
00001572  204D                     movea.l    A0, A5
00001574  D1FC FFFD AD08           add.l      A0, 0xFFFDAD08
0000157A  3010                     move.w     D0, [A0]
0000157C  48C0                     ext.l      D0
0000157E  2A00                     move.l     D5, D0
00001580  E38D                     lsl        D5, 1
00001582  486E FF9C                pea.l      [A6 - 0x64]
00001586  3004                     move.w     D0, D4
00001588  5440                     addq.w     D0, 2
0000158A  3F00                     move.w     -[A7], D0
0000158C  3005                     move.w     D0, D5
0000158E  5440                     addq.w     D0, 2
00001590  3F00                     move.w     -[A7], D0
00001592  3004                     move.w     D0, D4
00001594  D07C 000A                add.w      D0, 0xA /* '\n' */
00001598  3F00                     move.w     -[A7], D0
0000159A  3005                     move.w     D0, D5
0000159C  D07C 000A                add.w      D0, 0xA /* '\n' */
000015A0  3F00                     move.w     -[A7], D0
000015A2  A8A7                     syscall    SetRect
000015A4  486E FF52                pea.l      [A6 - 0xAE]
000015A8  4EAD 1782                jsr        [A5 + 0x1782 /* export_748, CODE:32 @ 00004E1E */]
000015AC  4204                     clr.b      D4
000015AE  7000                     moveq.l    D0, 0x00
000015B0  1004                     move.b     D0, D4
000015B2  2F00                     move.l     -[A7], D0
000015B4  2F2E FF66                move.l     -[A7], [A6 - 0x9A]
000015B8  204D                     movea.l    A0, A5
000015BA  D1FC FFFF 39BE           add.l      A0, 0xFFFF39BE
000015C0  4850                     pea.l      [A0]
000015C2  486E FF52                pea.l      [A6 - 0xAE]
000015C6  4EAD 178A                jsr        [A5 + 0x178A /* export_749, CODE:32 @ 00004E80 */]
000015CA  7000                     moveq.l    D0, 0x00
000015CC  2F00                     move.l     -[A7], D0
000015CE  7201                     moveq.l    D1, 0x01
000015D0  2F01                     move.l     -[A7], D1
000015D2  486E FF9C                pea.l      [A6 - 0x64]
000015D6  486E FF52                pea.l      [A6 - 0xAE]
000015DA  4EAD 193A                jsr        [A5 + 0x193A /* export_803, CODE:33 @ 00001176 */]
000015DE  4FEF 0024                lea.l      A7, [A7 + 0x24]
label000015E2:
000015E2  224D                     movea.l    A1, A5
000015E4  D3FC FFFF 2042           add.l      A1, 0xFFFF2042
000015EA  2051                     movea.l    A0, [A1]
000015EC  2668 01E0                movea.l    A3, [A0 + 0x1E0]
000015F0  2D6B 01D8 FFA4           move.l     [A6 - 0x5C], [A3 + 0x1D8]
000015F6  224D                     movea.l    A1, A5
000015F8  D3FC FFFF 2042           add.l      A1, 0xFFFF2042
000015FE  2051                     movea.l    A0, [A1]
00001600  2668 01E0                movea.l    A3, [A0 + 0x1E0]
00001604  2D6B 01D4 FFA8           move.l     [A6 - 0x58], [A3 + 0x1D4]
0000160A  7000                     moveq.l    D0, 0x00
0000160C  102C 013F                move.b     D0, [A4 + 0x13F]
00001610  0C40 0001                cmpi.w     D0, 0x1
00001614  6730                     beq        +0x32 /* 00001646 */
00001616  302E FFA8                move.w     D0, [A6 - 0x58]
0000161A  E640                     asr        D0.w, 3
0000161C  3940 0136                move.w     [A4 + 0x136], D0
00001620  302E FFAA                move.w     D0, [A6 - 0x56]
00001624  E640                     asr        D0.w, 3
00001626  3940 0138                move.w     [A4 + 0x138], D0
0000162A  302E FFA4                move.w     D0, [A6 - 0x5C]
0000162E  E640                     asr        D0.w, 3
00001630  D06C 0136                add.w      D0, [A4 + 0x136]
00001634  3940 013A                move.w     [A4 + 0x13A], D0
00001638  302E FFA6                move.w     D0, [A6 - 0x5A]
0000163C  E640                     asr        D0.w, 3
0000163E  D06C 0138                add.w      D0, [A4 + 0x138]
00001642  3940 013C                move.w     [A4 + 0x13C], D0
label00001646:
00001646  422C 013E                clr.b      [A4 + 0x13E]
0000164A  2F0C                     move.l     -[A7], A4
0000164C  4EBA 0088                jsr        [PC + 0x88 /* 000016D6 */]
00001650  486E FF20                pea.l      [A6 - 0xE0]
00001654  AA14                     syscall    RGBForeColor
00001656  266C 012A                movea.l    A3, [A4 + 0x12A]
0000165A  206B 0018                movea.l    A0, [A3 + 0x18]
0000165E  41E8 0010                lea.l      A0, [A0 + 0x10]
00001662  2F08                     move.l     -[A7], A0
00001664  A8A1                     syscall    FrameRect
00001666  197C 0001 0132           move.b     [A4 + 0x132], 0x1
0000166C  486E FFEE                pea.l      [A6 - 0x12]
00001670  A899                     syscall    SetPenState
00001672  7002                     moveq.l    D0, 0x02
00001674  2F00                     move.l     -[A7], D0
00001676  486E FF52                pea.l      [A6 - 0xAE]
0000167A  4EAD 192A                jsr        [A5 + 0x192A /* export_801, CODE:33 @ 00001084 */]
0000167E  7002                     moveq.l    D0, 0x02
00001680  2F00                     move.l     -[A7], D0
00001682  486E FF20                pea.l      [A6 - 0xE0]
00001686  4EAD 15D2                jsr        [A5 + 0x15D2 /* export_694, CODE:32 @ 000029D6 */]
0000168A  7002                     moveq.l    D0, 0x02
0000168C  2F00                     move.l     -[A7], D0
0000168E  486E FEEE                pea.l      [A6 - 0x112]
00001692  4EAD 15D2                jsr        [A5 + 0x15D2 /* export_694, CODE:32 @ 000029D6 */]
00001696  7002                     moveq.l    D0, 0x02
00001698  2F00                     move.l     -[A7], D0
0000169A  486E FFAC                pea.l      [A6 - 0x54]
0000169E  4EAD 15D2                jsr        [A5 + 0x15D2 /* export_694, CODE:32 @ 000029D6 */]
000016A2  4FEF 0024                lea.l      A7, [A7 + 0x24]
label000016A6:
000016A6  4CEE 18F8 FED2           movem.l    D3,D4,D5,D6,D7,A3,A4, [A6 - 0x12E]
000016AC  4E5E                     unlink     A6
000016AE  4E75                     rts
000016B0  8021 4472 6177 496E 7... dc.b       "DrawIntoNotepad__12cFarmMapItemFv"
fn000016D6:
000016D6  4E56 FF8A                link       A6, -0x0076
000016DA  2F0C                     move.l     -[A7], A4
000016DC  286E 0008                movea.l    A4, [A6 + 0x8]
000016E0  2F3C 00FF FFFF           move.l     -[A7], 0xFFFFFF
000016E6  7000                     moveq.l    D0, 0x00
000016E8  2F00                     move.l     -[A7], D0
000016EA  486E FF8A                pea.l      [A6 - 0x76]
000016EE  4EAD 15AA                jsr        [A5 + 0x15AA /* export_689, CODE:32 @ 0000234A */]
000016F2  7000                     moveq.l    D0, 0x00
000016F4  2F00                     move.l     -[A7], D0
000016F6  2F00                     move.l     -[A7], D0
000016F8  486E FFBC                pea.l      [A6 - 0x44]
000016FC  4EAD 15AA                jsr        [A5 + 0x15AA /* export_689, CODE:32 @ 0000234A */]
00001700  7000                     moveq.l    D0, 0x00
00001702  102C 013F                move.b     D0, [A4 + 0x13F]
00001706  0C40 0009                cmpi.w     D0, 0x9 /* '\t' */
0000170A  4FEF 0018                lea.l      A7, [A7 + 0x18]
0000170E  661E                     bne        +0x20 /* 0000172E */
00001710  7002                     moveq.l    D0, 0x02
00001712  2F00                     move.l     -[A7], D0
00001714  486E FFBC                pea.l      [A6 - 0x44]
00001718  4EAD 15D2                jsr        [A5 + 0x15D2 /* export_694, CODE:32 @ 000029D6 */]
0000171C  7002                     moveq.l    D0, 0x02
0000171E  2F00                     move.l     -[A7], D0
00001720  486E FF8A                pea.l      [A6 - 0x76]
00001724  4EAD 15D2                jsr        [A5 + 0x15D2 /* export_694, CODE:32 @ 000029D6 */]
00001728  4FEF 0010                lea.l      A7, [A7 + 0x10]
0000172C  605C                     bra        +0x5E /* 0000178A */
label0000172E:
0000172E  486E FFEE                pea.l      [A6 - 0x12]
00001732  A898                     syscall    GetPenState
00001734  7001                     moveq.l    D0, 0x01
00001736  3F00                     move.w     -[A7], D0
00001738  3F00                     move.w     -[A7], D0
0000173A  A89B                     syscall    PenSize
0000173C  486E FF8A                pea.l      [A6 - 0x76]
00001740  AA14                     syscall    RGBForeColor
00001742  7000                     moveq.l    D0, 0x00
00001744  102C 013F                move.b     D0, [A4 + 0x13F]
00001748  0C40 0001                cmpi.w     D0, 0x1
0000174C  670E                     beq        +0x10 /* 0000175C */
0000174E  700A                     moveq.l    D0, 0x0A
00001750  3F00                     move.w     -[A7], D0
00001752  A89C                     syscall    PenMode
00001754  486C 0136                pea.l      [A4 + 0x136]
00001758  A8A1                     syscall    FrameRect
0000175A  600C                     bra        +0xE /* 00001768 */
label0000175C:
0000175C  7008                     moveq.l    D0, 0x08
0000175E  3F00                     move.w     -[A7], D0
00001760  A89C                     syscall    PenMode
00001762  486C 0136                pea.l      [A4 + 0x136]
00001766  A8A2                     syscall    PaintRect
label00001768:
00001768  486E FFEE                pea.l      [A6 - 0x12]
0000176C  A899                     syscall    SetPenState
0000176E  7002                     moveq.l    D0, 0x02
00001770  2F00                     move.l     -[A7], D0
00001772  486E FFBC                pea.l      [A6 - 0x44]
00001776  4EAD 15D2                jsr        [A5 + 0x15D2 /* export_694, CODE:32 @ 000029D6 */]
0000177A  7002                     moveq.l    D0, 0x02
0000177C  2F00                     move.l     -[A7], D0
0000177E  486E FF8A                pea.l      [A6 - 0x76]
00001782  4EAD 15D2                jsr        [A5 + 0x15D2 /* export_694, CODE:32 @ 000029D6 */]
00001786  4FEF 0010                lea.l      A7, [A7 + 0x10]
label0000178A:
0000178A  286E FF86                movea.l    A4, [A6 - 0x7A]
0000178E  4E5E                     unlink     A6
00001790  4E75                     rts
00001792  9F44 7261 7756 6965 7... dc.b       "DrawViewFrame__12cFarmMapItemFv"
fn000017B4:
000017B4  4E56 FFE6                link       A6, -0x001A
000017B8  48E7 0018                movem.l    -[A7], A3,A4
000017BC  286E 0008                movea.l    A4, [A6 + 0x8]
000017C0  7000                     moveq.l    D0, 0x00
000017C2  102C 013F                move.b     D0, [A4 + 0x13F]
000017C6  0C40 0001                cmpi.w     D0, 0x1
000017CA  6700 0152                beq        +0x154 /* 0000191E */
000017CE  7000                     moveq.l    D0, 0x00
000017D0  102C 013F                move.b     D0, [A4 + 0x13F]
000017D4  0C40 0009                cmpi.w     D0, 0x9 /* '\t' */
000017D8  6700 0144                beq        +0x146 /* 0000191E */
000017DC  2F2C 0112                move.l     -[A7], [A4 + 0x112]
000017E0  4EAD 11E2                jsr        [A5 + 0x11E2 /* export_568, CODE:26 @ 000031FA */]
000017E4  486C 0090                pea.l      [A4 + 0x90]
000017E8  2F0C                     move.l     -[A7], A4
000017EA  4EAD 1F72                jsr        [A5 + 0x1F72 /* export_1002, CODE:37 @ 000015D2 */]
000017EE  302C 0090                move.w     D0, [A4 + 0x90]
000017F2  48C0                     ext.l      D0
000017F4  4480                     neg.l      D0
000017F6  322C 012E                move.w     D1, [A4 + 0x12E]
000017FA  D240                     add.w      D1, D0
000017FC  48C1                     ext.l      D1
000017FE  2F01                     move.l     -[A7], D1
00001800  302C 0092                move.w     D0, [A4 + 0x92]
00001804  48C0                     ext.l      D0
00001806  4480                     neg.l      D0
00001808  322C 0130                move.w     D1, [A4 + 0x130]
0000180C  D240                     add.w      D1, D0
0000180E  48C1                     ext.l      D1
00001810  2F01                     move.l     -[A7], D1
00001812  2F2C 0112                move.l     -[A7], [A4 + 0x112]
00001816  4EAD 1202                jsr        [A5 + 0x1202 /* export_572, CODE:26 @ 000033B8 */]
0000181A  486E FFE6                pea.l      [A6 - 0x1A]
0000181E  A898                     syscall    GetPenState
00001820  224D                     movea.l    A1, A5
00001822  D3FC FFFF 2042           add.l      A1, 0xFFFF2042
00001828  2051                     movea.l    A0, [A1]
0000182A  2668 01E0                movea.l    A3, [A0 + 0x1E0]
0000182E  2D6B 01D8 FFFC           move.l     [A6 - 0x4], [A3 + 0x1D8]
00001834  302E 000E                move.w     D0, [A6 + 0xE]
00001838  48C0                     ext.l      D0
0000183A  E788                     lsl        D0, 3
0000183C  3D40 FFFA                move.w     [A6 - 0x6], D0
00001840  302E 000C                move.w     D0, [A6 + 0xC]
00001844  48C0                     ext.l      D0
00001846  E788                     lsl        D0, 3
00001848  3D40 FFF8                move.w     [A6 - 0x8], D0
0000184C  302E FFFE                move.w     D0, [A6 - 0x2]
00001850  E240                     asr        D0.w, 1
00001852  916E FFFA                sub.w      [A6 - 0x6], D0
00001856  302E FFFC                move.w     D0, [A6 - 0x4]
0000185A  E240                     asr        D0.w, 1
0000185C  916E FFF8                sub.w      [A6 - 0x8], D0
00001860  4A6E FFFA                tst.w      [A6 - 0x6]
00001864  4FEF 0018                lea.l      A7, [A7 + 0x18]
00001868  6C0C                     bge        +0xE /* 00001876 */
0000186A  302E FFFA                move.w     D0, [A6 - 0x6]
0000186E  48C0                     ext.l      D0
00001870  4480                     neg.l      D0
00001872  D16E FFFA                add.w      [A6 - 0x6], D0
label00001876:
00001876  4A6E FFF8                tst.w      [A6 - 0x8]
0000187A  6C0C                     bge        +0xE /* 00001888 */
0000187C  302E FFF8                move.w     D0, [A6 - 0x8]
00001880  48C0                     ext.l      D0
00001882  4480                     neg.l      D0
00001884  D16E FFF8                add.w      [A6 - 0x8], D0
label00001888:
00001888  2F2E FFF8                move.l     -[A7], [A6 - 0x8]
0000188C  204D                     movea.l    A0, A5
0000188E  D1FC FFFF 2042           add.l      A0, 0xFFFF2042
00001894  2F10                     move.l     -[A7], [A0]
00001896  4EAD 0EF2                jsr        [A5 + 0xEF2 /* export_474, CODE:22 @ 00002CA8 */]
0000189A  4A2C 013E                tst.b      [A4 + 0x13E]
0000189E  504F                     addq.w     A7, 8
000018A0  6706                     beq        +0x8 /* 000018A8 */
000018A2  422C 013E                clr.b      [A4 + 0x13E]
000018A6  6008                     bra        +0xA /* 000018B0 */
label000018A8:
000018A8  2F0C                     move.l     -[A7], A4
000018AA  4EBA FE2A                jsr        [PC - 0x1D6 /* 000016D6 */]
000018AE  584F                     addq.w     A7, 4
label000018B0:
000018B0  224D                     movea.l    A1, A5
000018B2  D3FC FFFF 2042           add.l      A1, 0xFFFF2042
000018B8  2051                     movea.l    A0, [A1]
000018BA  2668 01E0                movea.l    A3, [A0 + 0x1E0]
000018BE  2D6B 01D4 FFF8           move.l     [A6 - 0x8], [A3 + 0x1D4]
000018C4  302E FFF8                move.w     D0, [A6 - 0x8]
000018C8  E640                     asr        D0.w, 3
000018CA  3940 0136                move.w     [A4 + 0x136], D0
000018CE  302E FFFA                move.w     D0, [A6 - 0x6]
000018D2  E640                     asr        D0.w, 3
000018D4  3940 0138                move.w     [A4 + 0x138], D0
000018D8  302E FFFC                move.w     D0, [A6 - 0x4]
000018DC  E640                     asr        D0.w, 3
000018DE  D06C 0136                add.w      D0, [A4 + 0x136]
000018E2  3940 013A                move.w     [A4 + 0x13A], D0
000018E6  302E FFFE                move.w     D0, [A6 - 0x2]
000018EA  E640                     asr        D0.w, 3
000018EC  D06C 0138                add.w      D0, [A4 + 0x138]
000018F0  3940 013C                move.w     [A4 + 0x13C], D0
000018F4  2F0C                     move.l     -[A7], A4
000018F6  4EBA FDDE                jsr        [PC - 0x222 /* 000016D6 */]
000018FA  486E FFE6                pea.l      [A6 - 0x1A]
000018FE  A899                     syscall    SetPenState
00001900  2F2C 0112                move.l     -[A7], [A4 + 0x112]
00001904  4EAD 120A                jsr        [A5 + 0x120A /* export_573, CODE:26 @ 00003404 */]
00001908  7000                     moveq.l    D0, 0x00
0000190A  2F00                     move.l     -[A7], D0
0000190C  2F0C                     move.l     -[A7], A4
0000190E  4EAD 1F7A                jsr        [A5 + 0x1F7A /* export_1003, CODE:37 @ 00001612 */]
00001912  2F2C 0112                move.l     -[A7], [A4 + 0x112]
00001916  4EAD 11EA                jsr        [A5 + 0x11EA /* export_569, CODE:26 @ 00003268 */]
0000191A  4FEF 0014                lea.l      A7, [A7 + 0x14]
label0000191E:
0000191E  4CEE 1800 FFDE           movem.l    A3,A4, [A6 - 0x22]
00001924  4E5E                     unlink     A6
00001926  4E75                     rts
00001928  8025 5570 6461 7465 5... dc.b       "UpdateViewRect__12cFarmMapItemF5Point"
export_306:
00001952  4E56 0000                link       A6, 0
00001956  2F0C                     move.l     -[A7], A4
00001958  286E 0008                movea.l    A4, [A6 + 0x8]
0000195C  558F                     subq.l     A7, 2
0000195E  2F2E 000C                move.l     -[A7], [A6 + 0xC]
00001962  486C 0090                pea.l      [A4 + 0x90]
00001966  A8AD                     syscall    PtInRect
00001968  4A1F                     tst.b      [A7]+
0000196A  6700 0090                beq        +0x92 /* 000019FC */
0000196E  7000                     moveq.l    D0, 0x00
00001970  102C 013F                move.b     D0, [A4 + 0x13F]
00001974  0C40 0009                cmpi.w     D0, 0x9 /* '\t' */
00001978  6700 0082                beq        +0x84 /* 000019FC */
0000197C  302C 0092                move.w     D0, [A4 + 0x92]
00001980  916E 000E                sub.w      [A6 + 0xE], D0
00001984  302C 0090                move.w     D0, [A4 + 0x90]
00001988  916E 000C                sub.w      [A6 + 0xC], D0
0000198C  7000                     moveq.l    D0, 0x00
0000198E  102C 013F                move.b     D0, [A4 + 0x13F]
00001992  0C40 0001                cmpi.w     D0, 0x1
00001996  6646                     bne        +0x48 /* 000019DE */
00001998  302E 000C                move.w     D0, [A6 + 0xC]
0000199C  48C0                     ext.l      D0
0000199E  323C FFF0                move.w     D1, 0xFFF0
000019A2  C240                     and.w      D1, D0
000019A4  3941 0136                move.w     [A4 + 0x136], D1
000019A8  302E 000E                move.w     D0, [A6 + 0xE]
000019AC  48C0                     ext.l      D0
000019AE  323C FFF0                move.w     D1, 0xFFF0
000019B2  C240                     and.w      D1, D0
000019B4  3941 0138                move.w     [A4 + 0x138], D1
000019B8  302C 0136                move.w     D0, [A4 + 0x136]
000019BC  D07C 0010                add.w      D0, 0x10
000019C0  3940 013A                move.w     [A4 + 0x13A], D0
000019C4  302C 0138                move.w     D0, [A4 + 0x138]
000019C8  D07C 0010                add.w      D0, 0x10
000019CC  3940 013C                move.w     [A4 + 0x13C], D0
000019D0  422C 0132                clr.b      [A4 + 0x132]
000019D4  2F0C                     move.l     -[A7], A4
000019D6  4EAD 1F52                jsr        [A5 + 0x1F52 /* export_998, CODE:37 @ 000014C8 */]
000019DA  584F                     addq.w     A7, 4
000019DC  601E                     bra        +0x20 /* 000019FC */
label000019DE:
000019DE  7000                     moveq.l    D0, 0x00
000019E0  102C 013F                move.b     D0, [A4 + 0x13F]
000019E4  0C40 0009                cmpi.w     D0, 0x9 /* '\t' */
000019E8  6712                     beq        +0x14 /* 000019FC */
000019EA  2F2E 000C                move.l     -[A7], [A6 + 0xC]
000019EE  2F0C                     move.l     -[A7], A4
000019F0  4EBA FDC2                jsr        [PC - 0x23E /* 000017B4 */]
000019F4  197C 0001 0135           move.b     [A4 + 0x135], 0x1
000019FA  504F                     addq.w     A7, 8
label000019FC:
000019FC  286E FFFC                movea.l    A4, [A6 - 0x4]
00001A00  4E5E                     unlink     A6
00001A02  4E75                     rts
00001A04  8023 4D6F 7573 6544 6... dc.b       "MouseDown__12cFarmMapItemF5PointlT2"
export_307:
00001A2C  4E56 0000                link       A6, 0
00001A30  2F0C                     move.l     -[A7], A4
00001A32  286E 0008                movea.l    A4, [A6 + 0x8]
00001A36  4A2C 0135                tst.b      [A4 + 0x135]
00001A3A  672C                     beq        +0x2E /* 00001A68 */
00001A3C  558F                     subq.l     A7, 2
00001A3E  2F2E 000C                move.l     -[A7], [A6 + 0xC]
00001A42  486C 0090                pea.l      [A4 + 0x90]
00001A46  A8AD                     syscall    PtInRect
00001A48  4A1F                     tst.b      [A7]+
00001A4A  671C                     beq        +0x1E /* 00001A68 */
00001A4C  302C 0092                move.w     D0, [A4 + 0x92]
00001A50  916E 000E                sub.w      [A6 + 0xE], D0
00001A54  302C 0090                move.w     D0, [A4 + 0x90]
00001A58  916E 000C                sub.w      [A6 + 0xC], D0
00001A5C  2F2E 000C                move.l     -[A7], [A6 + 0xC]
00001A60  2F0C                     move.l     -[A7], A4
00001A62  4EBA FD50                jsr        [PC - 0x2B0 /* 000017B4 */]
00001A66  504F                     addq.w     A7, 8
label00001A68:
00001A68  7001                     moveq.l    D0, 0x01
00001A6A  286E FFFC                movea.l    A4, [A6 - 0x4]
00001A6E  4E5E                     unlink     A6
00001A70  4E75                     rts
00001A72  8020 4D6F 7573 654F 7... dc.b       "MouseOver__12cFarmMapItemF5Point"
export_308:
00001A96  4E56 0000                link       A6, 0
00001A9A  48E7 0018                movem.l    -[A7], A3,A4
00001A9E  266E 0010                movea.l    A3, [A6 + 0x10]
00001AA2  286E 0008                movea.l    A4, [A6 + 0x8]
00001AA6  422C 0135                clr.b      [A4 + 0x135]
00001AAA  302C 0138                move.w     D0, [A4 + 0x138]
00001AAE  E840                     asr        D0.w, 4
00001AB0  3740 0002                move.w     [A3 + 0x2], D0
00001AB4  302C 0136                move.w     D0, [A4 + 0x136]
00001AB8  E840                     asr        D0.w, 4
00001ABA  3680                     move.w     [A3], D0
00001ABC  4CEE 1800 FFF8           movem.l    A3,A4, [A6 - 0x8]
00001AC2  4E5E                     unlink     A6
00001AC4  4E75                     rts
00001AC6  802D 4D6F 7573 6555 7... dc.b       "MouseUp__12cFarmMapItemFR11EventRecordR5Point"
export_309:
00001AF8  4E56 FFFC                link       A6, -0x0004
00001AFC  48E7 0018                movem.l    -[A7], A3,A4
00001B00  286E 0008                movea.l    A4, [A6 + 0x8]
00001B04  7000                     moveq.l    D0, 0x00
00001B06  2F00                     move.l     -[A7], D0
00001B08  4EAD 18B2                jsr        [A5 + 0x18B2 /* export_786, CODE:32 @ 00006458 */]
00001B0C  2640                     movea.l    A3, D0
00001B0E  200B                     move.l     D0, A3
00001B10  584F                     addq.w     A7, 4
00001B12  6766                     beq        +0x68 /* 00001B7A */
00001B14  7000                     moveq.l    D0, 0x00
00001B16  2F00                     move.l     -[A7], D0
00001B18  204B                     movea.l    A0, A3
00001B1A  226B 0060                movea.l    A1, [A3 + 0x60]
00001B1E  D0E9 0100                add.w      A0, [A1 + 0x100]
00001B22  2F08                     move.l     -[A7], A0
00001B24  2049                     movea.l    A0, A1
00001B26  2268 0104                movea.l    A1, [A0 + 0x104]
00001B2A  4E91                     jsr        [A1]
00001B2C  2D40 FFFC                move.l     [A6 - 0x4], D0
00001B30  504F                     addq.w     A7, 8
00001B32  6746                     beq        +0x48 /* 00001B7A */
00001B34  206E FFFC                movea.l    A0, [A6 - 0x4]
00001B38  0CA8 4D61 7020 0168      cmpi.l     [A0 + 0x168], 0x4D617020 /* 'Map ' */
00001B40  6638                     bne        +0x3A /* 00001B7A */
00001B42  486C 01AE                pea.l      [A4 + 0x1AE]
00001B46  2F2E 000C                move.l     -[A7], [A6 + 0xC]
00001B4A  206C 016C                movea.l    A0, [A4 + 0x16C]
00001B4E  2248                     movea.l    A1, A0
00001B50  2269 0060                movea.l    A1, [A1 + 0x60]
00001B54  D0E9 00F8                add.w      A0, [A1 + 0xF8]
00001B58  2F08                     move.l     -[A7], A0
00001B5A  206C 016C                movea.l    A0, [A4 + 0x16C]
00001B5E  2068 0060                movea.l    A0, [A0 + 0x60]
00001B62  2268 00FC                movea.l    A1, [A0 + 0xFC]
00001B66  4E91                     jsr        [A1]
00001B68  7001                     moveq.l    D0, 0x01
00001B6A  2F00                     move.l     -[A7], D0
00001B6C  2F0C                     move.l     -[A7], A4
00001B6E  4EBA 04D4                jsr        [PC + 0x4D4 /* 00002044 */]
00001B72  7001                     moveq.l    D0, 0x01
00001B74  4FEF 0014                lea.l      A7, [A7 + 0x14]
00001B78  6002                     bra        +0x4 /* 00001B7C */
label00001B7A:
00001B7A  7000                     moveq.l    D0, 0x00
label00001B7C:
00001B7C  4CEE 1800 FFF4           movem.l    A3,A4, [A6 - 0xC]
00001B82  4E5E                     unlink     A6
00001B84  4E75                     rts
00001B86  8024 4D6F 7573 6555 7... dc.b       "MouseUp__10cMapWindowFR11EventRecord"
export_310:
00001BAE  4E56 0000                link       A6, 0
00001BB2  48E7 0118                movem.l    -[A7], D7,A3,A4
00001BB6  286E 0008                movea.l    A4, [A6 + 0x8]
00001BBA  206C 0084                movea.l    A0, [A4 + 0x84]
00001BBE  7000                     moveq.l    D0, 0x00
00001BC0  1028 006E                move.b     D0, [A0 + 0x6E]
00001BC4  0C40 0001                cmpi.w     D0, 0x1
00001BC8  6644                     bne        +0x46 /* 00001C0E */
00001BCA  202C 01BC                move.l     D0, [A4 + 0x1BC]
00001BCE  204D                     movea.l    A0, A5
00001BD0  D1FC FFFE BD76           add.l      A0, 0xFFFEBD76
00001BD6  B090                     cmp.l      D0, [A0]
00001BD8  670C                     beq        +0xE /* 00001BE6 */
00001BDA  7000                     moveq.l    D0, 0x00
00001BDC  2F00                     move.l     -[A7], D0
00001BDE  2F0C                     move.l     -[A7], A4
00001BE0  4EBA 0462                jsr        [PC + 0x462 /* 00002044 */]
00001BE4  504F                     addq.w     A7, 8
label00001BE6:
00001BE6  598F                     subq.l     A7, 4
00001BE8  A975                     syscall    TickCount
00001BEA  2E1F                     move.l     D7, [A7]+
00001BEC  2007                     move.l     D0, D7
00001BEE  90AC 01C0                sub.l      D0, [A4 + 0x1C0]
00001BF2  0C80 0000 012C           cmpi.l     D0, 0x12C
00001BF8  6F14                     ble        +0x16 /* 00001C0E */
00001BFA  2947 01C0                move.l     [A4 + 0x1C0], D7
00001BFE  266C 016C                movea.l    A3, [A4 + 0x16C]
00001C02  422B 0132                clr.b      [A3 + 0x132]
00001C06  2F0B                     move.l     -[A7], A3
00001C08  4EAD 1F52                jsr        [A5 + 0x1F52 /* export_998, CODE:37 @ 000014C8 */]
00001C0C  584F                     addq.w     A7, 4
label00001C0E:
00001C0E  4CEE 1880 FFF4           movem.l    D7,A3,A4, [A6 - 0xC]
00001C14  4E5E                     unlink     A6
00001C16  4E75                     rts
00001C18  994E 756C 6C45 7665 6... dc.b       "NullEvent__10cMapWindowFv"
export_311:
00001C34  4E56 FFBE                link       A6, -0x0042
00001C38  48E7 0318                movem.l    -[A7], D6,D7,A3,A4
00001C3C  286E 0008                movea.l    A4, [A6 + 0x8]
00001C40  4206                     clr.b      D6
00001C42  102E 000F                move.b     D0, [A6 + 0xF]
00001C46  0C00 0008                cmpi.b     D0, 0x8
00001C4A  6200 01E0                bhi        +0x1E2 /* 00001E2C */
00001C4E  7200                     moveq.l    D1, 0x00
00001C50  1200                     move.b     D1, D0
00001C52  D241                     add.w      D1, D1
00001C54  323B 1006                move.w     D1, [PC + D1.w + 0x6]
00001C58  4EFB 1000                jmp        [PC + D1.w]
00001C5C  0014 0048                ori.b      [A4], 0x48 /* 'H' */
00001C60  00E0                     .incomplete
00001C62  0144                     bchg       D4, D0
00001C64  01A4                     bclr       -[A4], D0
00001C66  007C 0112                ori.w      sr, 274
00001C6A  0174 00AE                bchg       [A4 + D0.w - 0x52], D0
00001C6E  7C01                     moveq.l    D6, 0x01
00001C70  206C 01B8                movea.l    A0, [A4 + 0x1B8]
00001C74  47E8 012A                lea.l      A3, [A0 + 0x12A]
00001C78  2F0B                     move.l     -[A7], A3
00001C7A  4EAD 1782                jsr        [A5 + 0x1782 /* export_748, CODE:32 @ 00004E1E */]
00001C7E  4207                     clr.b      D7
00001C80  7000                     moveq.l    D0, 0x00
00001C82  1007                     move.b     D0, D7
00001C84  2F00                     move.l     -[A7], D0
00001C86  2F2B 0014                move.l     -[A7], [A3 + 0x14]
00001C8A  204D                     movea.l    A0, A5
00001C8C  D1FC FFFF 47B6           add.l      A0, 0xFFFF47B6
00001C92  4850                     pea.l      [A0]
00001C94  2F0B                     move.l     -[A7], A3
00001C96  4EAD 178A                jsr        [A5 + 0x178A /* export_749, CODE:32 @ 00004E80 */]
00001C9A  4FEF 0014                lea.l      A7, [A7 + 0x14]
00001C9E  6000 018C                bra        +0x18E /* 00001E2C */
00001CA2  7C01                     moveq.l    D6, 0x01
00001CA4  206C 01B8                movea.l    A0, [A4 + 0x1B8]
00001CA8  47E8 012A                lea.l      A3, [A0 + 0x12A]
00001CAC  2F0B                     move.l     -[A7], A3
00001CAE  4EAD 1782                jsr        [A5 + 0x1782 /* export_748, CODE:32 @ 00004E1E */]
00001CB2  4207                     clr.b      D7
00001CB4  7000                     moveq.l    D0, 0x00
00001CB6  1007                     move.b     D0, D7
00001CB8  2F00                     move.l     -[A7], D0
00001CBA  2F2B 0014                move.l     -[A7], [A3 + 0x14]
00001CBE  204D                     movea.l    A0, A5
00001CC0  D1FC FFFF 47C0           add.l      A0, 0xFFFF47C0
00001CC6  4850                     pea.l      [A0]
00001CC8  2F0B                     move.l     -[A7], A3
00001CCA  4EAD 178A                jsr        [A5 + 0x178A /* export_749, CODE:32 @ 00004E80 */]
00001CCE  4FEF 0014                lea.l      A7, [A7 + 0x14]
00001CD2  6000 0158                bra        +0x15A /* 00001E2C */
00001CD6  206C 01B8                movea.l    A0, [A4 + 0x1B8]
00001CDA  47E8 012A                lea.l      A3, [A0 + 0x12A]
00001CDE  2F0B                     move.l     -[A7], A3
00001CE0  4EAD 1782                jsr        [A5 + 0x1782 /* export_748, CODE:32 @ 00004E1E */]
00001CE4  4207                     clr.b      D7
00001CE6  7000                     moveq.l    D0, 0x00
00001CE8  1007                     move.b     D0, D7
00001CEA  2F00                     move.l     -[A7], D0
00001CEC  2F2B 0014                move.l     -[A7], [A3 + 0x14]
00001CF0  204D                     movea.l    A0, A5
00001CF2  D1FC FFFF 47CA           add.l      A0, 0xFFFF47CA
00001CF8  4850                     pea.l      [A0]
00001CFA  2F0B                     move.l     -[A7], A3
00001CFC  4EAD 178A                jsr        [A5 + 0x178A /* export_749, CODE:32 @ 00004E80 */]
00001D00  4FEF 0014                lea.l      A7, [A7 + 0x14]
00001D04  6000 0126                bra        +0x128 /* 00001E2C */
00001D08  206C 01B8                movea.l    A0, [A4 + 0x1B8]
00001D0C  47E8 012A                lea.l      A3, [A0 + 0x12A]
00001D10  2F0B                     move.l     -[A7], A3
00001D12  4EAD 1782                jsr        [A5 + 0x1782 /* export_748, CODE:32 @ 00004E1E */]
00001D16  4207                     clr.b      D7
00001D18  7000                     moveq.l    D0, 0x00
00001D1A  1007                     move.b     D0, D7
00001D1C  2F00                     move.l     -[A7], D0
00001D1E  2F2B 0014                move.l     -[A7], [A3 + 0x14]
00001D22  204D                     movea.l    A0, A5
00001D24  D1FC FFFF 47D2           add.l      A0, 0xFFFF47D2
00001D2A  4850                     pea.l      [A0]
00001D2C  2F0B                     move.l     -[A7], A3
00001D2E  4EAD 178A                jsr        [A5 + 0x178A /* export_749, CODE:32 @ 00004E80 */]
00001D32  4FEF 0014                lea.l      A7, [A7 + 0x14]
00001D36  6000 00F4                bra        +0xF6 /* 00001E2C */
00001D3A  206C 01B8                movea.l    A0, [A4 + 0x1B8]
00001D3E  47E8 012A                lea.l      A3, [A0 + 0x12A]
00001D42  2F0B                     move.l     -[A7], A3
00001D44  4EAD 1782                jsr        [A5 + 0x1782 /* export_748, CODE:32 @ 00004E1E */]
00001D48  4207                     clr.b      D7
00001D4A  7000                     moveq.l    D0, 0x00
00001D4C  1007                     move.b     D0, D7
00001D4E  2F00                     move.l     -[A7], D0
00001D50  2F2B 0014                move.l     -[A7], [A3 + 0x14]
00001D54  204D                     movea.l    A0, A5
00001D56  D1FC FFFF 47DA           add.l      A0, 0xFFFF47DA
00001D5C  4850                     pea.l      [A0]
00001D5E  2F0B                     move.l     -[A7], A3
00001D60  4EAD 178A                jsr        [A5 + 0x178A /* export_749, CODE:32 @ 00004E80 */]
00001D64  4FEF 0014                lea.l      A7, [A7 + 0x14]
00001D68  6000 00C2                bra        +0xC4 /* 00001E2C */
00001D6C  206C 01B8                movea.l    A0, [A4 + 0x1B8]
00001D70  47E8 012A                lea.l      A3, [A0 + 0x12A]
00001D74  2F0B                     move.l     -[A7], A3
00001D76  4EAD 1782                jsr        [A5 + 0x1782 /* export_748, CODE:32 @ 00004E1E */]
00001D7A  4207                     clr.b      D7
00001D7C  7000                     moveq.l    D0, 0x00
00001D7E  1007                     move.b     D0, D7
00001D80  2F00                     move.l     -[A7], D0
00001D82  2F2B 0014                move.l     -[A7], [A3 + 0x14]
00001D86  204D                     movea.l    A0, A5
00001D88  D1FC FFFF 47EA           add.l      A0, 0xFFFF47EA
00001D8E  4850                     pea.l      [A0]
00001D90  2F0B                     move.l     -[A7], A3
00001D92  4EAD 178A                jsr        [A5 + 0x178A /* export_749, CODE:32 @ 00004E80 */]
00001D96  4FEF 0014                lea.l      A7, [A7 + 0x14]
00001D9A  6000 0090                bra        +0x92 /* 00001E2C */
00001D9E  206C 01B8                movea.l    A0, [A4 + 0x1B8]
00001DA2  47E8 012A                lea.l      A3, [A0 + 0x12A]
00001DA6  2F0B                     move.l     -[A7], A3
00001DA8  4EAD 1782                jsr        [A5 + 0x1782 /* export_748, CODE:32 @ 00004E1E */]
00001DAC  4207                     clr.b      D7
00001DAE  7000                     moveq.l    D0, 0x00
00001DB0  1007                     move.b     D0, D7
00001DB2  2F00                     move.l     -[A7], D0
00001DB4  2F2B 0014                move.l     -[A7], [A3 + 0x14]
00001DB8  204D                     movea.l    A0, A5
00001DBA  D1FC FFFF 47F8           add.l      A0, 0xFFFF47F8
00001DC0  4850                     pea.l      [A0]
00001DC2  2F0B                     move.l     -[A7], A3
00001DC4  4EAD 178A                jsr        [A5 + 0x178A /* export_749, CODE:32 @ 00004E80 */]
00001DC8  4FEF 0014                lea.l      A7, [A7 + 0x14]
00001DCC  605E                     bra        +0x60 /* 00001E2C */
00001DCE  206C 01B8                movea.l    A0, [A4 + 0x1B8]
00001DD2  47E8 012A                lea.l      A3, [A0 + 0x12A]
00001DD6  2F0B                     move.l     -[A7], A3
00001DD8  4EAD 1782                jsr        [A5 + 0x1782 /* export_748, CODE:32 @ 00004E1E */]
00001DDC  4207                     clr.b      D7
00001DDE  7000                     moveq.l    D0, 0x00
00001DE0  1007                     move.b     D0, D7
00001DE2  2F00                     move.l     -[A7], D0
00001DE4  2F2B 0014                move.l     -[A7], [A3 + 0x14]
00001DE8  204D                     movea.l    A0, A5
00001DEA  D1FC FFFF 4808           add.l      A0, 0xFFFF4808
00001DF0  4850                     pea.l      [A0]
00001DF2  2F0B                     move.l     -[A7], A3
00001DF4  4EAD 178A                jsr        [A5 + 0x178A /* export_749, CODE:32 @ 00004E80 */]
00001DF8  4FEF 0014                lea.l      A7, [A7 + 0x14]
00001DFC  602E                     bra        +0x30 /* 00001E2C */
00001DFE  206C 01B8                movea.l    A0, [A4 + 0x1B8]
00001E02  47E8 012A                lea.l      A3, [A0 + 0x12A]
00001E06  2F0B                     move.l     -[A7], A3
00001E08  4EAD 1782                jsr        [A5 + 0x1782 /* export_748, CODE:32 @ 00004E1E */]
00001E0C  4207                     clr.b      D7
00001E0E  7000                     moveq.l    D0, 0x00
00001E10  1007                     move.b     D0, D7
00001E12  2F00                     move.l     -[A7], D0
00001E14  2F2B 0014                move.l     -[A7], [A3 + 0x14]
00001E18  204D                     movea.l    A0, A5
00001E1A  D1FC FFFF 4816           add.l      A0, 0xFFFF4816
00001E20  4850                     pea.l      [A0]
00001E22  2F0B                     move.l     -[A7], A3
00001E24  4EAD 178A                jsr        [A5 + 0x178A /* export_749, CODE:32 @ 00004E80 */]
00001E28  4FEF 0014                lea.l      A7, [A7 + 0x14]
label00001E2C:
00001E2C  2F2C 01B8                move.l     -[A7], [A4 + 0x1B8]
00001E30  4EAD 1F52                jsr        [A5 + 0x1F52 /* export_998, CODE:37 @ 000014C8 */]
00001E34  4A06                     tst.b      D6
00001E36  584F                     addq.w     A7, 4
00001E38  6700 012E                beq        +0x130 /* 00001F68 */
00001E3C  7000                     moveq.l    D0, 0x00
00001E3E  2F00                     move.l     -[A7], D0
00001E40  486E FFBE                pea.l      [A6 - 0x42]
00001E44  4EAD 15BA                jsr        [A5 + 0x15BA /* export_691, CODE:32 @ 000025FA */]
00001E48  226C 018E                movea.l    A1, [A4 + 0x18E]
00001E4C  43E9 0080                lea.l      A1, [A1 + 0x80]
00001E50  2049                     movea.l    A0, A1
00001E52  226C 018E                movea.l    A1, [A4 + 0x18E]
00001E56  2269 0088                movea.l    A1, [A1 + 0x88]
00001E5A  D0E9 00B8                add.w      A0, [A1 + 0xB8]
00001E5E  2F08                     move.l     -[A7], A0
00001E60  206C 018E                movea.l    A0, [A4 + 0x18E]
00001E64  2068 0088                movea.l    A0, [A0 + 0x88]
00001E68  2268 00BC                movea.l    A1, [A0 + 0xBC]
00001E6C  4E91                     jsr        [A1]
00001E6E  226C 0192                movea.l    A1, [A4 + 0x192]
00001E72  43E9 0080                lea.l      A1, [A1 + 0x80]
00001E76  2049                     movea.l    A0, A1
00001E78  226C 0192                movea.l    A1, [A4 + 0x192]
00001E7C  2269 0088                movea.l    A1, [A1 + 0x88]
00001E80  D0E9 00B8                add.w      A0, [A1 + 0xB8]
00001E84  2F08                     move.l     -[A7], A0
00001E86  206C 0192                movea.l    A0, [A4 + 0x192]
00001E8A  2068 0088                movea.l    A0, [A0 + 0x88]
00001E8E  2268 00BC                movea.l    A1, [A0 + 0xBC]
00001E92  4E91                     jsr        [A1]
00001E94  226C 01A2                movea.l    A1, [A4 + 0x1A2]
00001E98  43E9 0086                lea.l      A1, [A1 + 0x86]
00001E9C  2049                     movea.l    A0, A1
00001E9E  226C 01A2                movea.l    A1, [A4 + 0x1A2]
00001EA2  2269 008E                movea.l    A1, [A1 + 0x8E]
00001EA6  D0E9 00B8                add.w      A0, [A1 + 0xB8]
00001EAA  2F08                     move.l     -[A7], A0
00001EAC  206C 01A2                movea.l    A0, [A4 + 0x1A2]
00001EB0  2068 008E                movea.l    A0, [A0 + 0x8E]
00001EB4  2268 00BC                movea.l    A1, [A0 + 0xBC]
00001EB8  4E91                     jsr        [A1]
00001EBA  41EC 009C                lea.l      A0, [A4 + 0x9C]
00001EBE  43EE FFBE                lea.l      A1, [A6 - 0x42]
00001EC2  22D8                     move.l     [A1]+, [A0]+
00001EC4  32D8                     move.w     [A1]+, [A0]+
00001EC6  486E FFBE                pea.l      [A6 - 0x42]
00001ECA  AA15                     syscall    RGBBackColor
00001ECC  41EC 0100                lea.l      A0, [A4 + 0x100]
00001ED0  43EE FFF0                lea.l      A1, [A6 - 0x10]
00001ED4  22D8                     move.l     [A1]+, [A0]+
00001ED6  22D8                     move.l     [A1]+, [A0]+
00001ED8  486E FFF0                pea.l      [A6 - 0x10]
00001EDC  302E FFF2                move.w     D0, [A6 - 0xE]
00001EE0  48C0                     ext.l      D0
00001EE2  4480                     neg.l      D0
00001EE4  3F00                     move.w     -[A7], D0
00001EE6  302E FFF0                move.w     D0, [A6 - 0x10]
00001EEA  48C0                     ext.l      D0
00001EEC  4480                     neg.l      D0
00001EEE  3F00                     move.w     -[A7], D0
00001EF0  A8A8                     syscall    OffsetRect
00001EF2  486E FFF0                pea.l      [A6 - 0x10]
00001EF6  2F0C                     move.l     -[A7], A4
00001EF8  4EAD 126A                jsr        [A5 + 0x126A /* export_585, CODE:26 @ 000038B2 */]
00001EFC  2F0C                     move.l     -[A7], A4
00001EFE  4EAD 11E2                jsr        [A5 + 0x11E2 /* export_568, CODE:26 @ 000031FA */]
00001F02  206C 018E                movea.l    A0, [A4 + 0x18E]
00001F06  43EE FFF8                lea.l      A1, [A6 - 0x8]
00001F0A  41E8 0090                lea.l      A0, [A0 + 0x90]
00001F0E  22D8                     move.l     [A1]+, [A0]+
00001F10  22D8                     move.l     [A1]+, [A0]+
00001F12  486E FFF8                pea.l      [A6 - 0x8]
00001F16  A8A3                     syscall    EraseRect
00001F18  206C 0192                movea.l    A0, [A4 + 0x192]
00001F1C  43EE FFF8                lea.l      A1, [A6 - 0x8]
00001F20  41E8 0090                lea.l      A0, [A0 + 0x90]
00001F24  22D8                     move.l     [A1]+, [A0]+
00001F26  22D8                     move.l     [A1]+, [A0]+
00001F28  486E FFF8                pea.l      [A6 - 0x8]
00001F2C  A8A3                     syscall    EraseRect
00001F2E  206C 01A2                movea.l    A0, [A4 + 0x1A2]
00001F32  43EE FFF8                lea.l      A1, [A6 - 0x8]
00001F36  41E8 0096                lea.l      A0, [A0 + 0x96]
00001F3A  22D8                     move.l     [A1]+, [A0]+
00001F3C  22D8                     move.l     [A1]+, [A0]+
00001F3E  486E FFF8                pea.l      [A6 - 0x8]
00001F42  A8A3                     syscall    EraseRect
00001F44  7000                     moveq.l    D0, 0x00
00001F46  2F00                     move.l     -[A7], D0
00001F48  2F0C                     move.l     -[A7], A4
00001F4A  4EAD 1282                jsr        [A5 + 0x1282 /* export_588, CODE:26 @ 00003A24 */]
00001F4E  2F0C                     move.l     -[A7], A4
00001F50  4EAD 11EA                jsr        [A5 + 0x11EA /* export_569, CODE:26 @ 00003268 */]
00001F54  7002                     moveq.l    D0, 0x02
00001F56  2F00                     move.l     -[A7], D0
00001F58  486E FFBE                pea.l      [A6 - 0x42]
00001F5C  4EAD 15D2                jsr        [A5 + 0x15D2 /* export_694, CODE:32 @ 000029D6 */]
00001F60  4FEF 0034                lea.l      A7, [A7 + 0x34]
00001F64  6000 00B2                bra        +0xB4 /* 00002018 */
label00001F68:
00001F68  226C 018E                movea.l    A1, [A4 + 0x18E]
00001F6C  43E9 0080                lea.l      A1, [A1 + 0x80]
00001F70  2049                     movea.l    A0, A1
00001F72  226C 018E                movea.l    A1, [A4 + 0x18E]
00001F76  2269 0088                movea.l    A1, [A1 + 0x88]
00001F7A  D0E9 00C0                add.w      A0, [A1 + 0xC0]
00001F7E  2F08                     move.l     -[A7], A0
00001F80  206C 018E                movea.l    A0, [A4 + 0x18E]
00001F84  2068 0088                movea.l    A0, [A0 + 0x88]
00001F88  2268 00C4                movea.l    A1, [A0 + 0xC4]
00001F8C  4E91                     jsr        [A1]
00001F8E  226C 0192                movea.l    A1, [A4 + 0x192]
00001F92  43E9 0080                lea.l      A1, [A1 + 0x80]
00001F96  2049                     movea.l    A0, A1
00001F98  226C 0192                movea.l    A1, [A4 + 0x192]
00001F9C  2269 0088                movea.l    A1, [A1 + 0x88]
00001FA0  D0E9 00C0                add.w      A0, [A1 + 0xC0]
00001FA4  2F08                     move.l     -[A7], A0
00001FA6  206C 0192                movea.l    A0, [A4 + 0x192]
00001FAA  2068 0088                movea.l    A0, [A0 + 0x88]
00001FAE  2268 00C4                movea.l    A1, [A0 + 0xC4]
00001FB2  4E91                     jsr        [A1]
00001FB4  226C 01A2                movea.l    A1, [A4 + 0x1A2]
00001FB8  43E9 0086                lea.l      A1, [A1 + 0x86]
00001FBC  2049                     movea.l    A0, A1
00001FBE  226C 01A2                movea.l    A1, [A4 + 0x1A2]
00001FC2  2269 008E                movea.l    A1, [A1 + 0x8E]
00001FC6  D0E9 00C0                add.w      A0, [A1 + 0xC0]
00001FCA  2F08                     move.l     -[A7], A0
00001FCC  206C 01A2                movea.l    A0, [A4 + 0x1A2]
00001FD0  2068 008E                movea.l    A0, [A0 + 0x8E]
00001FD4  2268 00C4                movea.l    A1, [A0 + 0xC4]
00001FD8  4E91                     jsr        [A1]
00001FDA  2F0C                     move.l     -[A7], A4
00001FDC  4EAD 11E2                jsr        [A5 + 0x11E2 /* export_568, CODE:26 @ 000031FA */]
00001FE0  206C 01A2                movea.l    A0, [A4 + 0x1A2]
00001FE4  2248                     movea.l    A1, A0
00001FE6  2269 0060                movea.l    A1, [A1 + 0x60]
00001FEA  D0E9 0070                add.w      A0, [A1 + 0x70]
00001FEE  2F08                     move.l     -[A7], A0
00001FF0  206C 01A2                movea.l    A0, [A4 + 0x1A2]
00001FF4  2068 0060                movea.l    A0, [A0 + 0x60]
00001FF8  2268 0074                movea.l    A1, [A0 + 0x74]
00001FFC  4E91                     jsr        [A1]
00001FFE  2F0C                     move.l     -[A7], A4
00002000  4EAD 11EA                jsr        [A5 + 0x11EA /* export_569, CODE:26 @ 00003268 */]
00002004  2F2C 018E                move.l     -[A7], [A4 + 0x18E]
00002008  4EAD 1F52                jsr        [A5 + 0x1F52 /* export_998, CODE:37 @ 000014C8 */]
0000200C  2F2C 0192                move.l     -[A7], [A4 + 0x192]
00002010  4EAD 1F52                jsr        [A5 + 0x1F52 /* export_998, CODE:37 @ 000014C8 */]
00002014  4FEF 0020                lea.l      A7, [A7 + 0x20]
label00002018:
00002018  4CEE 18C0 FFAE           movem.l    D6,D7,A3,A4, [A6 - 0x52]
0000201E  4E5E                     unlink     A6
00002020  4E75                     rts
00002022  9F55 7064 6174 6542 6... dc.b       "UpdateBarGraph__10cMapWindowFUc"
export_312:
fn00002044:
00002044  4E56 FFBE                link       A6, -0x0042
00002048  48E7 0318                movem.l    -[A7], D6,D7,A3,A4
0000204C  286E 0008                movea.l    A4, [A6 + 0x8]
00002050  422C 01B2                clr.b      [A4 + 0x1B2]
00002054  206C 016C                movea.l    A0, [A4 + 0x16C]
00002058  7000                     moveq.l    D0, 0x00
0000205A  1028 013F                move.b     D0, [A0 + 0x13F]
0000205E  0C40 0001                cmpi.w     D0, 0x1
00002062  6600 00EA                bne        +0xEC /* 0000214E */
00002066  70FF                     moveq.l    D0, 0xFFFFFFFF
00002068  B06C 01B0                cmp.w      D0, [A4 + 0x1B0]
0000206C  6700 00E0                beq        +0xE2 /* 0000214E */
00002070  302C 01B0                move.w     D0, [A4 + 0x1B0]
00002074  C1FC 000C                muls.w     D0, 0xC
00002078  204D                     movea.l    A0, A5
0000207A  D1FC FFFE 97B2           add.l      A0, 0xFFFE97B2
00002080  322C 01AE                move.w     D1, [A4 + 0x1AE]
00002084  D240                     add.w      D1, D0
00002086  7000                     moveq.l    D0, 0x00
00002088  1030 1000                move.b     D0, [A0 + D1.w]
0000208C  0C40 0001                cmpi.w     D0, 0x1
00002090  663A                     bne        +0x3C /* 000020CC */
00002092  197C 0001 01B2           move.b     [A4 + 0x1B2], 0x1
00002098  7001                     moveq.l    D0, 0x01
0000209A  2F00                     move.l     -[A7], D0
0000209C  204D                     movea.l    A0, A5
0000209E  D1FC FFFF 4820           add.l      A0, 0xFFFF4820
000020A4  4850                     pea.l      [A0]
000020A6  206C 01AA                movea.l    A0, [A4 + 0x1AA]
000020AA  2248                     movea.l    A1, A0
000020AC  2269 0060                movea.l    A1, [A1 + 0x60]
000020B0  D0E9 0150                add.w      A0, [A1 + 0x150]
000020B4  2F08                     move.l     -[A7], A0
000020B6  206C 01AA                movea.l    A0, [A4 + 0x1AA]
000020BA  2068 0060                movea.l    A0, [A0 + 0x60]
000020BE  2268 0154                movea.l    A1, [A0 + 0x154]
000020C2  4E91                     jsr        [A1]
000020C4  4FEF 000C                lea.l      A7, [A7 + 0xC]
000020C8  6000 0084                bra        +0x86 /* 0000214E */
label000020CC:
000020CC  302C 01B0                move.w     D0, [A4 + 0x1B0]
000020D0  C1FC 000C                muls.w     D0, 0xC
000020D4  204D                     movea.l    A0, A5
000020D6  D1FC FFFE 97B2           add.l      A0, 0xFFFE97B2
000020DC  322C 01AE                move.w     D1, [A4 + 0x1AE]
000020E0  D240                     add.w      D1, D0
000020E2  7000                     moveq.l    D0, 0x00
000020E4  1030 1000                move.b     D0, [A0 + D1.w]
000020E8  4A80                     tst.l      D0
000020EA  6662                     bne        +0x64 /* 0000214E */
000020EC  486E FFF2                pea.l      [A6 - 0xE]
000020F0  486E FFF0                pea.l      [A6 - 0x10]
000020F4  302C 01AE                move.w     D0, [A4 + 0x1AE]
000020F8  48C0                     ext.l      D0
000020FA  2F00                     move.l     -[A7], D0
000020FC  302C 01B0                move.w     D0, [A4 + 0x1B0]
00002100  48C0                     ext.l      D0
00002102  2F00                     move.l     -[A7], D0
00002104  4EAD 078A                jsr        [A5 + 0x78A /* export_237, CODE:13 @ 000030B6 */]
00002108  204D                     movea.l    A0, A5
0000210A  D1FC FFFE BD76           add.l      A0, 0xFFFEBD76
00002110  B090                     cmp.l      D0, [A0]
00002112  4FEF 0010                lea.l      A7, [A7 + 0x10]
00002116  6236                     bhi        +0x38 /* 0000214E */
00002118  197C 0001 01B2           move.b     [A4 + 0x1B2], 0x1
0000211E  7001                     moveq.l    D0, 0x01
00002120  2F00                     move.l     -[A7], D0
00002122  204D                     movea.l    A0, A5
00002124  D1FC FFFF 4826           add.l      A0, 0xFFFF4826
0000212A  4850                     pea.l      [A0]
0000212C  206C 01AA                movea.l    A0, [A4 + 0x1AA]
00002130  2248                     movea.l    A1, A0
00002132  2269 0060                movea.l    A1, [A1 + 0x60]
00002136  D0E9 0150                add.w      A0, [A1 + 0x150]
0000213A  2F08                     move.l     -[A7], A0
0000213C  206C 01AA                movea.l    A0, [A4 + 0x1AA]
00002140  2068 0060                movea.l    A0, [A0 + 0x60]
00002144  2268 0154                movea.l    A1, [A0 + 0x154]
00002148  4E91                     jsr        [A1]
0000214A  4FEF 000C                lea.l      A7, [A7 + 0xC]
label0000214E:
0000214E  41EC 0100                lea.l      A0, [A4 + 0x100]
00002152  43EE FFF4                lea.l      A1, [A6 - 0xC]
00002156  22D8                     move.l     [A1]+, [A0]+
00002158  22D8                     move.l     [A1]+, [A0]+
0000215A  486E FFF4                pea.l      [A6 - 0xC]
0000215E  302E FFF6                move.w     D0, [A6 - 0xA]
00002162  48C0                     ext.l      D0
00002164  4480                     neg.l      D0
00002166  3F00                     move.w     -[A7], D0
00002168  302E FFF4                move.w     D0, [A6 - 0xC]
0000216C  48C0                     ext.l      D0
0000216E  4480                     neg.l      D0
00002170  3F00                     move.w     -[A7], D0
00002172  A8A8                     syscall    OffsetRect
00002174  486E FFF4                pea.l      [A6 - 0xC]
00002178  2F0C                     move.l     -[A7], A4
0000217A  4EAD 126A                jsr        [A5 + 0x126A /* export_585, CODE:26 @ 000038B2 */]
0000217E  2F0C                     move.l     -[A7], A4
00002180  4EAD 11E2                jsr        [A5 + 0x11E2 /* export_568, CODE:26 @ 000031FA */]
00002184  4A2C 01B2                tst.b      [A4 + 0x1B2]
00002188  4FEF 000C                lea.l      A7, [A7 + 0xC]
0000218C  6760                     beq        +0x62 /* 000021EE */
0000218E  206C 01AA                movea.l    A0, [A4 + 0x1AA]
00002192  2248                     movea.l    A1, A0
00002194  2269 0060                movea.l    A1, [A1 + 0x60]
00002198  D0E9 0100                add.w      A0, [A1 + 0x100]
0000219C  2F08                     move.l     -[A7], A0
0000219E  206C 01AA                movea.l    A0, [A4 + 0x1AA]
000021A2  2068 0060                movea.l    A0, [A0 + 0x60]
000021A6  2268 0104                movea.l    A1, [A0 + 0x104]
000021AA  4E91                     jsr        [A1]
000021AC  206C 01AA                movea.l    A0, [A4 + 0x1AA]
000021B0  2248                     movea.l    A1, A0
000021B2  2269 0060                movea.l    A1, [A1 + 0x60]
000021B6  D0E9 00F0                add.w      A0, [A1 + 0xF0]
000021BA  2F08                     move.l     -[A7], A0
000021BC  206C 01AA                movea.l    A0, [A4 + 0x1AA]
000021C0  2068 0060                movea.l    A0, [A0 + 0x60]
000021C4  2268 00F4                movea.l    A1, [A0 + 0xF4]
000021C8  4E91                     jsr        [A1]
000021CA  206C 01AA                movea.l    A0, [A4 + 0x1AA]
000021CE  2248                     movea.l    A1, A0
000021D0  2269 0060                movea.l    A1, [A1 + 0x60]
000021D4  D0E9 00E8                add.w      A0, [A1 + 0xE8]
000021D8  2F08                     move.l     -[A7], A0
000021DA  206C 01AA                movea.l    A0, [A4 + 0x1AA]
000021DE  2068 0060                movea.l    A0, [A0 + 0x60]
000021E2  2268 00EC                movea.l    A1, [A0 + 0xEC]
000021E6  4E91                     jsr        [A1]
000021E8  4FEF 000C                lea.l      A7, [A7 + 0xC]
000021EC  6074                     bra        +0x76 /* 00002262 */
label000021EE:
000021EE  7000                     moveq.l    D0, 0x00
000021F0  2F00                     move.l     -[A7], D0
000021F2  486E FFBE                pea.l      [A6 - 0x42]
000021F6  4EAD 15BA                jsr        [A5 + 0x15BA /* export_691, CODE:32 @ 000025FA */]
000021FA  206C 01AA                movea.l    A0, [A4 + 0x1AA]
000021FE  2248                     movea.l    A1, A0
00002200  2269 0060                movea.l    A1, [A1 + 0x60]
00002204  D0E9 0108                add.w      A0, [A1 + 0x108]
00002208  2F08                     move.l     -[A7], A0
0000220A  206C 01AA                movea.l    A0, [A4 + 0x1AA]
0000220E  2068 0060                movea.l    A0, [A0 + 0x60]
00002212  2268 010C                movea.l    A1, [A0 + 0x10C]
00002216  4E91                     jsr        [A1]
00002218  206C 01AA                movea.l    A0, [A4 + 0x1AA]
0000221C  2248                     movea.l    A1, A0
0000221E  2269 0060                movea.l    A1, [A1 + 0x60]
00002222  D0E9 00F8                add.w      A0, [A1 + 0xF8]
00002226  2F08                     move.l     -[A7], A0
00002228  206C 01AA                movea.l    A0, [A4 + 0x1AA]
0000222C  2068 0060                movea.l    A0, [A0 + 0x60]
00002230  2268 00FC                movea.l    A1, [A0 + 0xFC]
00002234  4E91                     jsr        [A1]
00002236  41EC 009C                lea.l      A0, [A4 + 0x9C]
0000223A  43EE FFBE                lea.l      A1, [A6 - 0x42]
0000223E  22D8                     move.l     [A1]+, [A0]+
00002240  32D8                     move.w     [A1]+, [A0]+
00002242  486E FFBE                pea.l      [A6 - 0x42]
00002246  AA15                     syscall    RGBBackColor
00002248  206C 01AA                movea.l    A0, [A4 + 0x1AA]
0000224C  4868 0090                pea.l      [A0 + 0x90]
00002250  A8A3                     syscall    EraseRect
00002252  7002                     moveq.l    D0, 0x02
00002254  2F00                     move.l     -[A7], D0
00002256  486E FFBE                pea.l      [A6 - 0x42]
0000225A  4EAD 15D2                jsr        [A5 + 0x15D2 /* export_694, CODE:32 @ 000029D6 */]
0000225E  4FEF 0018                lea.l      A7, [A7 + 0x18]
label00002262:
00002262  486E FFFE                pea.l      [A6 - 0x2]
00002266  486E FFFC                pea.l      [A6 - 0x4]
0000226A  302C 01AE                move.w     D0, [A4 + 0x1AE]
0000226E  48C0                     ext.l      D0
00002270  2F00                     move.l     -[A7], D0
00002272  302C 01B0                move.w     D0, [A4 + 0x1B0]
00002276  48C0                     ext.l      D0
00002278  2F00                     move.l     -[A7], D0
0000227A  4EAD 078A                jsr        [A5 + 0x78A /* export_237, CODE:13 @ 000030B6 */]
0000227E  2C00                     move.l     D6, D0
00002280  206C 01B4                movea.l    A0, [A4 + 0x1B4]
00002284  47E8 01C4                lea.l      A3, [A0 + 0x1C4]
00002288  2F0B                     move.l     -[A7], A3
0000228A  4EAD 1782                jsr        [A5 + 0x1782 /* export_748, CODE:32 @ 00004E1E */]
0000228E  4207                     clr.b      D7
00002290  7000                     moveq.l    D0, 0x00
00002292  1007                     move.b     D0, D7
00002294  2F00                     move.l     -[A7], D0
00002296  2F2B 0014                move.l     -[A7], [A3 + 0x14]
0000229A  204D                     movea.l    A0, A5
0000229C  D1FC FFFF 482C           add.l      A0, 0xFFFF482C
000022A2  4850                     pea.l      [A0]
000022A4  2F0B                     move.l     -[A7], A3
000022A6  4EAD 178A                jsr        [A5 + 0x178A /* export_749, CODE:32 @ 00004E80 */]
000022AA  2F06                     move.l     -[A7], D6
000022AC  206C 01B4                movea.l    A0, [A4 + 0x1B4]
000022B0  4868 01C4                pea.l      [A0 + 0x1C4]
000022B4  4EAD 17FA                jsr        [A5 + 0x17FA /* export_763, CODE:32 @ 000057BC */]
000022B8  2F2C 01B4                move.l     -[A7], [A4 + 0x1B4]
000022BC  4EAD 1F52                jsr        [A5 + 0x1F52 /* export_998, CODE:37 @ 000014C8 */]
000022C0  7000                     moveq.l    D0, 0x00
000022C2  2F00                     move.l     -[A7], D0
000022C4  2F0C                     move.l     -[A7], A4
000022C6  4EAD 1282                jsr        [A5 + 0x1282 /* export_588, CODE:26 @ 00003A24 */]
000022CA  2F0C                     move.l     -[A7], A4
000022CC  4EAD 11EA                jsr        [A5 + 0x11EA /* export_569, CODE:26 @ 00003268 */]
000022D0  204D                     movea.l    A0, A5
000022D2  D1FC FFFE BD76           add.l      A0, 0xFFFEBD76
000022D8  2950 01BC                move.l     [A4 + 0x1BC], [A0]
000022DC  4FEF 003C                lea.l      A7, [A7 + 0x3C]
000022E0  4CEE 18C0 FFAE           movem.l    D6,D7,A3,A4, [A6 - 0x52]
000022E6  4E5E                     unlink     A6
000022E8  4E75                     rts
000022EA  9E55 7064 6174 6542 7... dc.b       "UpdateButtons__10cMapWindowFUc"
