# near model CODE resource
# jump table entries: 7624-7708 (85 of them)
export_953:
00000000  4E56 FFF8                link       A6, -0x0008
00000004  48E7 1018                movem.l    -[A7], D3,A3,A4
00000008  266E 000C                movea.l    A3, [A6 + 0xC]
0000000C  286E 0008                movea.l    A4, [A6 + 0x8]
00000010  200C                     move.l     D0, A4
00000012  6612                     bne        +0x14 /* 00000026 */
00000014  4878 01F2                push.l     0x1F2
00000018  4EAD 010A                jsr        [A5 + 0x10A /* export_29, CODE:1 @ 00001C0A */]
0000001C  2840                     movea.l    A4, D0
0000001E  200C                     move.l     D0, A4
00000020  584F                     addq.w     A7, 4
00000022  6700 018C                beq        +0x18E /* 000001B0 */
label00000026:
00000026  200B                     move.l     D0, A3
00000028  57C3                     seq        D3
0000002A  4403                     neg.b      D3
0000002C  6748                     beq        +0x4A /* 00000076 */
0000002E  264C                     movea.l    A3, A4
00000030  47EB 01D8                lea.l      A3, [A3 + 0x1D8]
00000034  7601                     moveq.l    D3, 0x01
00000036  200C                     move.l     D0, A4
00000038  D0BC 0000 01D8           add.l      D0, 0x1D8
0000003E  6614                     bne        +0x16 /* 00000054 */
00000040  2F03                     move.l     -[A7], D3
00000042  700C                     moveq.l    D0, 0x0C
00000044  2F00                     move.l     -[A7], D0
00000046  4EAD 010A                jsr        [A5 + 0x10A /* export_29, CODE:1 @ 00001C0A */]
0000004A  588F                     addq.l     A7, 4
0000004C  261F                     move.l     D3, [A7]+
0000004E  4A80                     tst.l      D0
00000050  6602                     bne        +0x4 /* 00000054 */
00000052  7600                     moveq.l    D3, 0x00
label00000054:
00000054  4A03                     tst.b      D3
00000056  6712                     beq        +0x14 /* 0000006A */
00000058  296D F442 01E0           move.l     [A4 + 0x1E0], [A5 - 0xBBE]
0000005E  7000                     moveq.l    D0, 0x00
00000060  2940 01D8                move.l     [A4 + 0x1D8], D0
00000064  2940 01DC                move.l     [A4 + 0x1DC], D0
00000068  6002                     bra        +0x4 /* 0000006C */
label0000006A:
0000006A  7000                     moveq.l    D0, 0x00
label0000006C:
0000006C  200C                     move.l     D0, A4
0000006E  D0BC 0000 01D8           add.l      D0, 0x1D8
00000074  6002                     bra        +0x4 /* 00000078 */
label00000076:
00000076  200B                     move.l     D0, A3
label00000078:
00000078  2F2E 0018                move.l     -[A7], [A6 + 0x18]
0000007C  2F2E 0014                move.l     -[A7], [A6 + 0x14]
00000080  2F2E 0010                move.l     -[A7], [A6 + 0x10]
00000084  2F0B                     move.l     -[A7], A3
00000086  2F0C                     move.l     -[A7], A4
00000088  4EBA 1C04                jsr        [PC + 0x1C04 /* 00001C8E */]
0000008C  7000                     moveq.l    D0, 0x00
0000008E  2F00                     move.l     -[A7], D0
00000090  322E 002A                move.w     D1, [A6 + 0x2A]
00000094  48C1                     ext.l      D1
00000096  2F01                     move.l     -[A7], D1
00000098  322E 0026                move.w     D1, [A6 + 0x26]
0000009C  48C1                     ext.l      D1
0000009E  2F01                     move.l     -[A7], D1
000000A0  7201                     moveq.l    D1, 0x01
000000A2  2F01                     move.l     -[A7], D1
000000A4  2F2E 0018                move.l     -[A7], [A6 + 0x18]
000000A8  2F2E 0018                move.l     -[A7], [A6 + 0x18]
000000AC  206E 0014                movea.l    A0, [A6 + 0x14]
000000B0  2F28 0084                move.l     -[A7], [A0 + 0x84]
000000B4  2F0B                     move.l     -[A7], A3
000000B6  240C                     move.l     D2, A4
000000B8  D4BC 0000 01C4           add.l      D2, 0x1C4
000000BE  2F02                     move.l     -[A7], D2
000000C0  4EAD 163A                jsr        [A5 + 0x163A /* export_707, CODE:32 @ 00003746 */]
000000C4  296D F446 0060           move.l     [A4 + 0x60], [A5 - 0xBBA]
000000CA  296D F44A 01D0           move.l     [A4 + 0x1D0], [A5 - 0xBB6]
000000D0  296D F44E 0088           move.l     [A4 + 0x88], [A5 - 0xBB2]
000000D6  296D F452 0070           move.l     [A4 + 0x70], [A5 - 0xBAE]
000000DC  206C 0064                movea.l    A0, [A4 + 0x64]
000000E0  216D F456 0008           move.l     [A0 + 0x8], [A5 - 0xBAA]
000000E6  4A2E 001F                tst.b      [A6 + 0x1F]
000000EA  4FEF 0038                lea.l      A7, [A7 + 0x38]
000000EE  660C                     bne        +0xE /* 000000FC */
000000F0  7000                     moveq.l    D0, 0x00
000000F2  2F00                     move.l     -[A7], D0
000000F4  2F0C                     move.l     -[A7], A4
000000F6  4EBA 1CC6                jsr        [PC + 0x1CC6 /* 00001DBE */]
000000FA  504F                     addq.w     A7, 8
label000000FC:
000000FC  41EE FFF8                lea.l      A0, [A6 - 0x8]
00000100  43EC 0090                lea.l      A1, [A4 + 0x90]
00000104  20D9                     move.l     [A0]+, [A1]+
00000106  20D9                     move.l     [A0]+, [A1]+
00000108  486E FFF8                pea.l      [A6 - 0x8]
0000010C  7003                     moveq.l    D0, 0x03
0000010E  3F00                     move.w     -[A7], D0
00000110  3F00                     move.w     -[A7], D0
00000112  A8A9                     syscall    InsetRect
00000114  486E FFF8                pea.l      [A6 - 0x8]
00000118  43EC 01C4                lea.l      A1, [A4 + 0x1C4]
0000011C  2049                     movea.l    A0, A1
0000011E  226C 01D0                movea.l    A1, [A4 + 0x1D0]
00000122  D0E9 0038                add.w      A0, [A1 + 0x38]
00000126  2F08                     move.l     -[A7], A0
00000128  2049                     movea.l    A0, A1
0000012A  2268 003C                movea.l    A1, [A0 + 0x3C]
0000012E  4E91                     jsr        [A1]
00000130  4AAE 0020                tst.l      [A6 + 0x20]
00000134  504F                     addq.w     A7, 8
00000136  672C                     beq        +0x2E /* 00000164 */
00000138  7000                     moveq.l    D0, 0x00
0000013A  2F00                     move.l     -[A7], D0
0000013C  2F2E 0020                move.l     -[A7], [A6 + 0x20]
00000140  43EC 01C4                lea.l      A1, [A4 + 0x1C4]
00000144  2049                     movea.l    A0, A1
00000146  226C 01D0                movea.l    A1, [A4 + 0x1D0]
0000014A  D0E9 0030                add.w      A0, [A1 + 0x30]
0000014E  2F08                     move.l     -[A7], A0
00000150  2049                     movea.l    A0, A1
00000152  2268 0034                movea.l    A1, [A0 + 0x34]
00000156  4E91                     jsr        [A1]
00000158  486C 01C4                pea.l      [A4 + 0x1C4]
0000015C  4EAD 169A                jsr        [A5 + 0x169A /* export_719, CODE:32 @ 00003C88 */]
00000160  4FEF 0010                lea.l      A7, [A7 + 0x10]
label00000164:
00000164  2F3C 0100 000F           move.l     -[A7], 0x100000F
0000016A  486C 00CC                pea.l      [A4 + 0xCC]
0000016E  4EAD 15C2                jsr        [A5 + 0x15C2 /* export_692, CODE:32 @ 000026A8 */]
00000172  422C 01CE                clr.b      [A4 + 0x1CE]
00000176  4AAE 002C                tst.l      [A6 + 0x2C]
0000017A  504F                     addq.w     A7, 8
0000017C  672E                     beq        +0x30 /* 000001AC */
0000017E  197C 0001 01E4           move.b     [A4 + 0x1E4], 0x1
00000184  422C 01E5                clr.b      [A4 + 0x1E5]
00000188  206E 002C                movea.l    A0, [A6 + 0x2C]
0000018C  2248                     movea.l    A1, A0
0000018E  3028 0006                move.w     D0, [A0 + 0x6]
00000192  9069 0002                sub.w      D0, [A1 + 0x2]
00000196  3940 01E6                move.w     [A4 + 0x1E6], D0
0000019A  206E 002C                movea.l    A0, [A6 + 0x2C]
0000019E  2248                     movea.l    A1, A0
000001A0  3028 0004                move.w     D0, [A0 + 0x4]
000001A4  9051                     sub.w      D0, [A1]
000001A6  3940 01E8                move.w     [A4 + 0x1E8], D0
000001AA  6004                     bra        +0x6 /* 000001B0 */
label000001AC:
000001AC  422C 01E4                clr.b      [A4 + 0x1E4]
label000001B0:
000001B0  200C                     move.l     D0, A4
000001B2  4CEE 1808 FFEC           movem.l    D3,A3,A4, [A6 - 0x14]
000001B8  4E5E                     unlink     A6
000001BA  4E75                     rts
000001BC  803B 5F5F 6374 5F5F 3... dc.b       "__ct__13cEditTextItemFP6cAgentP7cWindowR4RectUcPUcsT6P4Rect"
export_954:
000001FC  4E56 0000                link       A6, 0
00000200  48E7 0118                movem.l    -[A7], D7,A3,A4
00000204  2E2E 000C                move.l     D7, [A6 + 0xC]
00000208  266E 0014                movea.l    A3, [A6 + 0x14]
0000020C  286E 0008                movea.l    A4, [A6 + 0x8]
00000210  2007                     move.l     D0, D7
00000212  0480 4742 5446           subi.l     D0, 0x47425446 /* 'GBTF' */
00000218  670A                     beq        +0xC /* 00000224 */
0000021A  5F80                     subq.l     D0, 7
0000021C  6700 00A8                beq        +0xAA /* 000002C6 */
00000220  6000 014C                bra        +0x14E /* 0000036E */
label00000224:
00000224  200B                     move.l     D0, A3
00000226  674A                     beq        +0x4C /* 00000272 */
00000228  7001                     moveq.l    D0, 0x01
0000022A  2F00                     move.l     -[A7], D0
0000022C  486C 01C4                pea.l      [A4 + 0x1C4]
00000230  4EAD 16BA                jsr        [A5 + 0x16BA /* export_723, CODE:32 @ 00003E66 */]
00000234  204C                     movea.l    A0, A4
00000236  226C 0060                movea.l    A1, [A4 + 0x60]
0000023A  D0E9 00F0                add.w      A0, [A1 + 0xF0]
0000023E  2F08                     move.l     -[A7], A0
00000240  2049                     movea.l    A0, A1
00000242  2268 00F4                movea.l    A1, [A0 + 0xF4]
00000246  4E91                     jsr        [A1]
00000248  2F0C                     move.l     -[A7], A4
0000024A  4EBA 016E                jsr        [PC + 0x16E /* 000003BA */]
0000024E  7001                     moveq.l    D0, 0x01
00000250  2F00                     move.l     -[A7], D0
00000252  2F3C 4742 544F           move.l     -[A7], 0x4742544F /* 'GBTO' */
00000258  204C                     movea.l    A0, A4
0000025A  226C 0060                movea.l    A1, [A4 + 0x60]
0000025E  D0E9 0060                add.w      A0, [A1 + 0x60]
00000262  2F08                     move.l     -[A7], A0
00000264  2049                     movea.l    A0, A1
00000266  2268 0064                movea.l    A1, [A0 + 0x64]
0000026A  4E91                     jsr        [A1]
0000026C  4FEF 001C                lea.l      A7, [A7 + 0x1C]
00000270  6048                     bra        +0x4A /* 000002BA */
label00000272:
00000272  7000                     moveq.l    D0, 0x00
00000274  2F00                     move.l     -[A7], D0
00000276  486C 01C4                pea.l      [A4 + 0x1C4]
0000027A  4EAD 16BA                jsr        [A5 + 0x16BA /* export_723, CODE:32 @ 00003E66 */]
0000027E  204C                     movea.l    A0, A4
00000280  226C 0060                movea.l    A1, [A4 + 0x60]
00000284  D0E9 00F8                add.w      A0, [A1 + 0xF8]
00000288  2F08                     move.l     -[A7], A0
0000028A  2049                     movea.l    A0, A1
0000028C  2268 00FC                movea.l    A1, [A0 + 0xFC]
00000290  4E91                     jsr        [A1]
00000292  2F0C                     move.l     -[A7], A4
00000294  4EBA 0124                jsr        [PC + 0x124 /* 000003BA */]
00000298  7000                     moveq.l    D0, 0x00
0000029A  2F00                     move.l     -[A7], D0
0000029C  2F3C 4742 544F           move.l     -[A7], 0x4742544F /* 'GBTO' */
000002A2  204C                     movea.l    A0, A4
000002A4  226C 0060                movea.l    A1, [A4 + 0x60]
000002A8  D0E9 0060                add.w      A0, [A1 + 0x60]
000002AC  2F08                     move.l     -[A7], A0
000002AE  2049                     movea.l    A0, A1
000002B0  2268 0064                movea.l    A1, [A0 + 0x64]
000002B4  4E91                     jsr        [A1]
000002B6  4FEF 001C                lea.l      A7, [A7 + 0x1C]
label000002BA:
000002BA  2F0C                     move.l     -[A7], A4
000002BC  4EBA 120A                jsr        [PC + 0x120A /* 000014C8 */]
000002C0  584F                     addq.w     A7, 4
000002C2  6000 00BC                bra        +0xBE /* 00000380 */
label000002C6:
000002C6  200B                     move.l     D0, A3
000002C8  6752                     beq        +0x54 /* 0000031C */
000002CA  7001                     moveq.l    D0, 0x01
000002CC  2F00                     move.l     -[A7], D0
000002CE  486C 01C4                pea.l      [A4 + 0x1C4]
000002D2  4EAD 16BA                jsr        [A5 + 0x16BA /* export_723, CODE:32 @ 00003E66 */]
000002D6  204C                     movea.l    A0, A4
000002D8  226C 0060                movea.l    A1, [A4 + 0x60]
000002DC  D0E9 00F0                add.w      A0, [A1 + 0xF0]
000002E0  2F08                     move.l     -[A7], A0
000002E2  2049                     movea.l    A0, A1
000002E4  2268 00F4                movea.l    A1, [A0 + 0xF4]
000002E8  4E91                     jsr        [A1]
000002EA  2F0C                     move.l     -[A7], A4
000002EC  4EBA 00CC                jsr        [PC + 0xCC /* 000003BA */]
000002F0  486C 01C4                pea.l      [A4 + 0x1C4]
000002F4  4EAD 169A                jsr        [A5 + 0x169A /* export_719, CODE:32 @ 00003C88 */]
000002F8  7001                     moveq.l    D0, 0x01
000002FA  2F00                     move.l     -[A7], D0
000002FC  2F3C 4742 544F           move.l     -[A7], 0x4742544F /* 'GBTO' */
00000302  204C                     movea.l    A0, A4
00000304  226C 0060                movea.l    A1, [A4 + 0x60]
00000308  D0E9 0060                add.w      A0, [A1 + 0x60]
0000030C  2F08                     move.l     -[A7], A0
0000030E  2049                     movea.l    A0, A1
00000310  2268 0064                movea.l    A1, [A0 + 0x64]
00000314  4E91                     jsr        [A1]
00000316  4FEF 0020                lea.l      A7, [A7 + 0x20]
0000031A  6048                     bra        +0x4A /* 00000364 */
label0000031C:
0000031C  204C                     movea.l    A0, A4
0000031E  226C 0060                movea.l    A1, [A4 + 0x60]
00000322  D0E9 00F8                add.w      A0, [A1 + 0xF8]
00000326  2F08                     move.l     -[A7], A0
00000328  2049                     movea.l    A0, A1
0000032A  2268 00FC                movea.l    A1, [A0 + 0xFC]
0000032E  4E91                     jsr        [A1]
00000330  7000                     moveq.l    D0, 0x00
00000332  2F00                     move.l     -[A7], D0
00000334  486C 01C4                pea.l      [A4 + 0x1C4]
00000338  4EAD 16BA                jsr        [A5 + 0x16BA /* export_723, CODE:32 @ 00003E66 */]
0000033C  2F0C                     move.l     -[A7], A4
0000033E  4EBA 007A                jsr        [PC + 0x7A /* 000003BA */]
00000342  7000                     moveq.l    D0, 0x00
00000344  2F00                     move.l     -[A7], D0
00000346  2F3C 4742 544F           move.l     -[A7], 0x4742544F /* 'GBTO' */
0000034C  204C                     movea.l    A0, A4
0000034E  226C 0060                movea.l    A1, [A4 + 0x60]
00000352  D0E9 0060                add.w      A0, [A1 + 0x60]
00000356  2F08                     move.l     -[A7], A0
00000358  2049                     movea.l    A0, A1
0000035A  2268 0064                movea.l    A1, [A0 + 0x64]
0000035E  4E91                     jsr        [A1]
00000360  4FEF 001C                lea.l      A7, [A7 + 0x1C]
label00000364:
00000364  2F0C                     move.l     -[A7], A4
00000366  4EBA 1160                jsr        [PC + 0x1160 /* 000014C8 */]
0000036A  584F                     addq.w     A7, 4
0000036C  6012                     bra        +0x14 /* 00000380 */
label0000036E:
0000036E  2F0B                     move.l     -[A7], A3
00000370  2F2E 0010                move.l     -[A7], [A6 + 0x10]
00000374  2F07                     move.l     -[A7], D7
00000376  2F0C                     move.l     -[A7], A4
00000378  4EAD 14C2                jsr        [A5 + 0x14C2 /* export_660, CODE:32 @ 00000440 */]
0000037C  4FEF 0010                lea.l      A7, [A7 + 0x10]
label00000380:
00000380  4CEE 1880 FFF4           movem.l    D7,A3,A4, [A6 - 0xC]
00000386  4E5E                     unlink     A6
00000388  4E75                     rts
0000038A  802B 4861 7342 6565 6... dc.b       "HasBeenAChange__13cEditTextItemFlP6cAgentPc"
fn000003BA:
000003BA  4E56 FFF8                link       A6, -0x0008
000003BE  48E7 0108                movem.l    -[A7], D7,A4
000003C2  286E 0008                movea.l    A4, [A6 + 0x8]
000003C6  4A2C 01E4                tst.b      [A4 + 0x1E4]
000003CA  6700 0108                beq        +0x10A /* 000004D4 */
000003CE  4A2C 01E5                tst.b      [A4 + 0x1E5]
000003D2  6600 0100                bne        +0x102 /* 000004D4 */
000003D6  7000                     moveq.l    D0, 0x00
000003D8  102C 0098                move.b     D0, [A4 + 0x98]
000003DC  7208                     moveq.l    D1, 0x08
000003DE  C200                     and.b      D1, D0
000003E0  7000                     moveq.l    D0, 0x00
000003E2  1001                     move.b     D0, D1
000003E4  4A80                     tst.l      D0
000003E6  6700 00EC                beq        +0xEE /* 000004D4 */
000003EA  206C 01C4                movea.l    A0, [A4 + 0x1C4]
000003EE  A029                     syscall    HLock
000003F0  598F                     subq.l     A7, 4
000003F2  206C 01C4                movea.l    A0, [A4 + 0x1C4]
000003F6  2050                     movea.l    A0, [A0]
000003F8  3028 003C                move.w     D0, [A0 + 0x3C]
000003FC  48C0                     ext.l      D0
000003FE  2F00                     move.l     -[A7], D0
00000400  7000                     moveq.l    D0, 0x00
00000402  2F00                     move.l     -[A7], D0
00000404  2F2C 01C4                move.l     -[A7], [A4 + 0x1C4]
00000408  3F3C 0009                move.w     -[A7], 0x9 /* '\t' */
0000040C  A83D                     syscall    TEDispatch
0000040E  201F                     move.l     D0, [A7]+
00000410  3E00                     move.w     D7, D0
00000412  206C 01C4                movea.l    A0, [A4 + 0x1C4]
00000416  A02A                     syscall    HUnlock
00000418  48C7                     ext.l      D7
0000041A  206C 01C4                movea.l    A0, [A4 + 0x1C4]
0000041E  2050                     movea.l    A0, [A0]
00000420  3028 000C                move.w     D0, [A0 + 0xC]
00000424  48C0                     ext.l      D0
00000426  206C 01C4                movea.l    A0, [A4 + 0x1C4]
0000042A  2050                     movea.l    A0, [A0]
0000042C  3228 0008                move.w     D1, [A0 + 0x8]
00000430  48C1                     ext.l      D1
00000432  9081                     sub.l      D0, D1
00000434  B087                     cmp.l      D0, D7
00000436  6C00 014A                bge        +0x14C /* 00000582 */
0000043A  197C 0001 01E5           move.b     [A4 + 0x1E5], 0x1
00000440  206C 01C4                movea.l    A0, [A4 + 0x1C4]
00000444  2050                     movea.l    A0, [A0]
00000446  43EE FFF8                lea.l      A1, [A6 - 0x8]
0000044A  5088                     addq.l     A0, 8
0000044C  22D8                     move.l     [A1]+, [A0]+
0000044E  22D8                     move.l     [A1]+, [A0]+
00000450  302C 01E6                move.w     D0, [A4 + 0x1E6]
00000454  D06E FFFA                add.w      D0, [A6 - 0x6]
00000458  3D40 FFFE                move.w     [A6 - 0x2], D0
0000045C  302C 01E8                move.w     D0, [A4 + 0x1E8]
00000460  D06E FFF8                add.w      D0, [A6 - 0x8]
00000464  3D40 FFFC                move.w     [A6 - 0x4], D0
00000468  41EC 01EA                lea.l      A0, [A4 + 0x1EA]
0000046C  43EC 0090                lea.l      A1, [A4 + 0x90]
00000470  20D9                     move.l     [A0]+, [A1]+
00000472  20D9                     move.l     [A0]+, [A1]+
00000474  302C 0092                move.w     D0, [A4 + 0x92]
00000478  48C0                     ext.l      D0
0000047A  322C 01E6                move.w     D1, [A4 + 0x1E6]
0000047E  48C1                     ext.l      D1
00000480  D280                     add.l      D1, D0
00000482  5841                     addq.w     D1, 4
00000484  3941 0096                move.w     [A4 + 0x96], D1
00000488  302C 0090                move.w     D0, [A4 + 0x90]
0000048C  48C0                     ext.l      D0
0000048E  322C 01E8                move.w     D1, [A4 + 0x1E8]
00000492  48C1                     ext.l      D1
00000494  D280                     add.l      D1, D0
00000496  5841                     addq.w     D1, 4
00000498  3941 0094                move.w     [A4 + 0x94], D1
0000049C  486E FFF8                pea.l      [A6 - 0x8]
000004A0  43EC 01C4                lea.l      A1, [A4 + 0x1C4]
000004A4  2049                     movea.l    A0, A1
000004A6  226C 01D0                movea.l    A1, [A4 + 0x1D0]
000004AA  D0E9 0038                add.w      A0, [A1 + 0x38]
000004AE  2F08                     move.l     -[A7], A0
000004B0  2049                     movea.l    A0, A1
000004B2  2268 003C                movea.l    A1, [A0 + 0x3C]
000004B6  4E91                     jsr        [A1]
000004B8  204C                     movea.l    A0, A4
000004BA  226C 0060                movea.l    A1, [A4 + 0x60]
000004BE  D0E9 00E8                add.w      A0, [A1 + 0xE8]
000004C2  2F08                     move.l     -[A7], A0
000004C4  2049                     movea.l    A0, A1
000004C6  2268 00EC                movea.l    A1, [A0 + 0xEC]
000004CA  4E91                     jsr        [A1]
000004CC  4FEF 000C                lea.l      A7, [A7 + 0xC]
000004D0  6000 00B0                bra        +0xB2 /* 00000582 */
label000004D4:
000004D4  4A2C 01E5                tst.b      [A4 + 0x1E5]
000004D8  6742                     beq        +0x44 /* 0000051C */
000004DA  7000                     moveq.l    D0, 0x00
000004DC  102C 0098                move.b     D0, [A4 + 0x98]
000004E0  7208                     moveq.l    D1, 0x08
000004E2  C200                     and.b      D1, D0
000004E4  7000                     moveq.l    D0, 0x00
000004E6  1001                     move.b     D0, D1
000004E8  4A80                     tst.l      D0
000004EA  6730                     beq        +0x32 /* 0000051C */
000004EC  206C 01C4                movea.l    A0, [A4 + 0x1C4]
000004F0  A029                     syscall    HLock
000004F2  598F                     subq.l     A7, 4
000004F4  206C 01C4                movea.l    A0, [A4 + 0x1C4]
000004F8  2050                     movea.l    A0, [A0]
000004FA  3028 003C                move.w     D0, [A0 + 0x3C]
000004FE  48C0                     ext.l      D0
00000500  2F00                     move.l     -[A7], D0
00000502  7000                     moveq.l    D0, 0x00
00000504  2F00                     move.l     -[A7], D0
00000506  2F2C 01C4                move.l     -[A7], [A4 + 0x1C4]
0000050A  3F3C 0009                move.w     -[A7], 0x9 /* '\t' */
0000050E  A83D                     syscall    TEDispatch
00000510  201F                     move.l     D0, [A7]+
00000512  3E00                     move.w     D7, D0
00000514  206C 01C4                movea.l    A0, [A4 + 0x1C4]
00000518  A02A                     syscall    HUnlock
0000051A  6066                     bra        +0x68 /* 00000582 */
label0000051C:
0000051C  4A2C 01E5                tst.b      [A4 + 0x1E5]
00000520  6760                     beq        +0x62 /* 00000582 */
00000522  7000                     moveq.l    D0, 0x00
00000524  102C 0098                move.b     D0, [A4 + 0x98]
00000528  7208                     moveq.l    D1, 0x08
0000052A  C200                     and.b      D1, D0
0000052C  7000                     moveq.l    D0, 0x00
0000052E  1001                     move.b     D0, D1
00000530  4A80                     tst.l      D0
00000532  664E                     bne        +0x50 /* 00000582 */
00000534  2F0C                     move.l     -[A7], A4
00000536  4EBA 0F90                jsr        [PC + 0xF90 /* 000014C8 */]
0000053A  41EC 0090                lea.l      A0, [A4 + 0x90]
0000053E  43EC 01EA                lea.l      A1, [A4 + 0x1EA]
00000542  20D9                     move.l     [A0]+, [A1]+
00000544  20D9                     move.l     [A0]+, [A1]+
00000546  41EE FFF8                lea.l      A0, [A6 - 0x8]
0000054A  43EC 0090                lea.l      A1, [A4 + 0x90]
0000054E  20D9                     move.l     [A0]+, [A1]+
00000550  20D9                     move.l     [A0]+, [A1]+
00000552  486E FFF8                pea.l      [A6 - 0x8]
00000556  7002                     moveq.l    D0, 0x02
00000558  3F00                     move.w     -[A7], D0
0000055A  3F00                     move.w     -[A7], D0
0000055C  A8A9                     syscall    InsetRect
0000055E  486E FFF8                pea.l      [A6 - 0x8]
00000562  43EC 01C4                lea.l      A1, [A4 + 0x1C4]
00000566  2049                     movea.l    A0, A1
00000568  226C 01D0                movea.l    A1, [A4 + 0x1D0]
0000056C  D0E9 0038                add.w      A0, [A1 + 0x38]
00000570  2F08                     move.l     -[A7], A0
00000572  2049                     movea.l    A0, A1
00000574  2268 003C                movea.l    A1, [A0 + 0x3C]
00000578  4E91                     jsr        [A1]
0000057A  422C 01E5                clr.b      [A4 + 0x1E5]
0000057E  4FEF 000C                lea.l      A7, [A7 + 0xC]
label00000582:
00000582  4CEE 1080 FFF0           movem.l    D7,A4, [A6 - 0x10]
00000588  4E5E                     unlink     A6
0000058A  4E75                     rts
0000058C  802C 4861 6E64 6C65 4... dc.b       "HandleExpandFunctionality__13cEditTextItemFv"
export_955:
000005BC  4E56 0000                link       A6, 0
000005C0  48E7 1008                movem.l    -[A7], D3,A4
000005C4  286E 0008                movea.l    A4, [A6 + 0x8]
000005C8  7000                     moveq.l    D0, 0x00
000005CA  102C 0098                move.b     D0, [A4 + 0x98]
000005CE  7208                     moveq.l    D1, 0x08
000005D0  C200                     and.b      D1, D0
000005D2  7000                     moveq.l    D0, 0x00
000005D4  1001                     move.b     D0, D1
000005D6  4A80                     tst.l      D0
000005D8  6604                     bne        +0x6 /* 000005DE */
000005DA  7000                     moveq.l    D0, 0x00
000005DC  601A                     bra        +0x1C /* 000005F8 */
label000005DE:
000005DE  206C 01C4                movea.l    A0, [A4 + 0x1C4]
000005E2  2050                     movea.l    A0, [A0]
000005E4  226C 01C4                movea.l    A1, [A4 + 0x1C4]
000005E8  2251                     movea.l    A1, [A1]
000005EA  3028 0020                move.w     D0, [A0 + 0x20]
000005EE  B069 0022                cmp.w      D0, [A1 + 0x22]
000005F2  5DC3                     slt        D3
000005F4  4403                     neg.b      D3
000005F6  1003                     move.b     D0, D3
label000005F8:
000005F8  4CEE 1008 FFF8           movem.l    D3,A4, [A6 - 0x8]
000005FE  4E5E                     unlink     A6
00000600  4E75                     rts
00000602  9943 616E 4375 745F 5... dc.b       "CanCut__13cEditTextItemFv"
export_956:
0000061E  4E56 0000                link       A6, 0
00000622  48E7 1008                movem.l    -[A7], D3,A4
00000626  286E 0008                movea.l    A4, [A6 + 0x8]
0000062A  7000                     moveq.l    D0, 0x00
0000062C  102C 0098                move.b     D0, [A4 + 0x98]
00000630  7208                     moveq.l    D1, 0x08
00000632  C200                     and.b      D1, D0
00000634  7000                     moveq.l    D0, 0x00
00000636  1001                     move.b     D0, D1
00000638  4A80                     tst.l      D0
0000063A  6604                     bne        +0x6 /* 00000640 */
0000063C  7000                     moveq.l    D0, 0x00
0000063E  601A                     bra        +0x1C /* 0000065A */
label00000640:
00000640  206C 01C4                movea.l    A0, [A4 + 0x1C4]
00000644  2050                     movea.l    A0, [A0]
00000646  226C 01C4                movea.l    A1, [A4 + 0x1C4]
0000064A  2251                     movea.l    A1, [A1]
0000064C  3028 0020                move.w     D0, [A0 + 0x20]
00000650  B069 0022                cmp.w      D0, [A1 + 0x22]
00000654  5DC3                     slt        D3
00000656  4403                     neg.b      D3
00000658  1003                     move.b     D0, D3
label0000065A:
0000065A  4CEE 1008 FFF8           movem.l    D3,A4, [A6 - 0x8]
00000660  4E5E                     unlink     A6
00000662  4E75                     rts
00000664  9A43 616E 436F 7079 5... dc.b       "CanCopy__13cEditTextItemFv"
export_957:
00000682  4E56 0000                link       A6, 0
00000686  2F03                     move.l     -[A7], D3
00000688  7000                     moveq.l    D0, 0x00
0000068A  3038 0AB0                move.w     D0, [0x00000AB0 /* TEScrpLength */]
0000068E  4A80                     tst.l      D0
00000690  52C3                     shi        D3
00000692  4403                     neg.b      D3
00000694  1003                     move.b     D0, D3
00000696  262E FFFC                move.l     D3, [A6 - 0x4]
0000069A  4E5E                     unlink     A6
0000069C  4E75                     rts
0000069E  9B43 616E 5061 7374 6... dc.b       "CanPaste__13cEditTextItemFv"
export_958:
000006BC  4E56 0000                link       A6, 0
000006C0  48E7 1008                movem.l    -[A7], D3,A4
000006C4  286E 0008                movea.l    A4, [A6 + 0x8]
000006C8  7000                     moveq.l    D0, 0x00
000006CA  102C 0098                move.b     D0, [A4 + 0x98]
000006CE  7208                     moveq.l    D1, 0x08
000006D0  C200                     and.b      D1, D0
000006D2  7000                     moveq.l    D0, 0x00
000006D4  1001                     move.b     D0, D1
000006D6  4A80                     tst.l      D0
000006D8  6604                     bne        +0x6 /* 000006DE */
000006DA  7000                     moveq.l    D0, 0x00
000006DC  601A                     bra        +0x1C /* 000006F8 */
label000006DE:
000006DE  206C 01C4                movea.l    A0, [A4 + 0x1C4]
000006E2  2050                     movea.l    A0, [A0]
000006E4  226C 01C4                movea.l    A1, [A4 + 0x1C4]
000006E8  2251                     movea.l    A1, [A1]
000006EA  3028 0020                move.w     D0, [A0 + 0x20]
000006EE  B069 0022                cmp.w      D0, [A1 + 0x22]
000006F2  5DC3                     slt        D3
000006F4  4403                     neg.b      D3
000006F6  1003                     move.b     D0, D3
label000006F8:
000006F8  4CEE 1008 FFF8           movem.l    D3,A4, [A6 - 0x8]
000006FE  4E5E                     unlink     A6
00000700  4E75                     rts
00000702  9B43 616E 436C 6561 7... dc.b       "CanClear__13cEditTextItemFv"
export_959:
00000720  4E56 0000                link       A6, 0
00000724  2F03                     move.l     -[A7], D3
00000726  206E 0008                movea.l    A0, [A6 + 0x8]
0000072A  7000                     moveq.l    D0, 0x00
0000072C  1028 0098                move.b     D0, [A0 + 0x98]
00000730  7208                     moveq.l    D1, 0x08
00000732  C200                     and.b      D1, D0
00000734  7000                     moveq.l    D0, 0x00
00000736  1001                     move.b     D0, D1
00000738  4A80                     tst.l      D0
0000073A  56C3                     sne        D3
0000073C  4403                     neg.b      D3
0000073E  1003                     move.b     D0, D3
00000740  262E FFFC                move.l     D3, [A6 - 0x4]
00000744  4E5E                     unlink     A6
00000746  4E75                     rts
00000748  9F43 616E 5365 6C65 6... dc.b       "CanSelectAll__13cEditTextItemFv"
export_960:
0000076A  4E56 0000                link       A6, 0
0000076E  7000                     moveq.l    D0, 0x00
00000770  4E5E                     unlink     A6
00000772  4E75                     rts
00000774  9A43 616E 556E 646F 5... dc.b       "CanUndo__13cEditTextItemFv"
export_961:
00000792  4E56 0000                link       A6, 0
00000796  206E 0008                movea.l    A0, [A6 + 0x8]
0000079A  4868 01C4                pea.l      [A0 + 0x1C4]
0000079E  4EAD 167A                jsr        [A5 + 0x167A /* export_715, CODE:32 @ 00003BDA */]
000007A2  4E5E                     unlink     A6
000007A4  4E75                     rts
000007A6  9643 7574 5F5F 3133 6... dc.b       "Cut__13cEditTextItemFv"
export_962:
000007C0  4E56 0000                link       A6, 0
000007C4  206E 0008                movea.l    A0, [A6 + 0x8]
000007C8  4868 01C4                pea.l      [A0 + 0x1C4]
000007CC  4EAD 1682                jsr        [A5 + 0x1682 /* export_716, CODE:32 @ 00003C0A */]
000007D0  4E5E                     unlink     A6
000007D2  4E75                     rts
000007D4  9743 6F70 795F 5F31 3... dc.b       "Copy__13cEditTextItemFv"
export_963:
000007EE  4E56 0000                link       A6, 0
000007F2  2F0C                     move.l     -[A7], A4
000007F4  286E 0008                movea.l    A4, [A6 + 0x8]
000007F8  486C 01C4                pea.l      [A4 + 0x1C4]
000007FC  4EAD 168A                jsr        [A5 + 0x168A /* export_717, CODE:32 @ 00003C30 */]
00000800  2F0C                     move.l     -[A7], A4
00000802  4EBA FBB6                jsr        [PC - 0x44A /* 000003BA */]
00000806  286E FFFC                movea.l    A4, [A6 - 0x4]
0000080A  4E5E                     unlink     A6
0000080C  4E75                     rts
0000080E  9850 6173 7465 5F5F 3... dc.b       "Paste__13cEditTextItemFv"
export_964:
0000082A  4E56 0000                link       A6, 0
0000082E  206E 0008                movea.l    A0, [A6 + 0x8]
00000832  4868 01C4                pea.l      [A0 + 0x1C4]
00000836  4EAD 1692                jsr        [A5 + 0x1692 /* export_718, CODE:32 @ 00003C56 */]
0000083A  4E5E                     unlink     A6
0000083C  4E75                     rts
0000083E  9843 6C65 6172 5F5F 3... dc.b       "Clear__13cEditTextItemFv"
export_965:
0000085A  4E56 0000                link       A6, 0
0000085E  206E 0008                movea.l    A0, [A6 + 0x8]
00000862  4868 01C4                pea.l      [A0 + 0x1C4]
00000866  4EAD 169A                jsr        [A5 + 0x169A /* export_719, CODE:32 @ 00003C88 */]
0000086A  4E5E                     unlink     A6
0000086C  4E75                     rts
0000086E  9C53 656C 6563 7441 6... dc.b       "SelectAll__13cEditTextItemFv"
export_966:
0000088E  4E56 0000                link       A6, 0
00000892  206E 0008                movea.l    A0, [A6 + 0x8]
00000896  4868 01C4                pea.l      [A0 + 0x1C4]
0000089A  4EAD 16A2                jsr        [A5 + 0x16A2 /* export_720, CODE:32 @ 00003CC8 */]
0000089E  4E5E                     unlink     A6
000008A0  4E75                     rts
000008A2  9755 6E64 6F5F 5F31 3... dc.b       "Undo__13cEditTextItemFv"
export_967:
000008BC  4E56 0000                link       A6, 0
000008C0  7001                     moveq.l    D0, 0x01
000008C2  4E5E                     unlink     A6
000008C4  4E75                     rts
000008C6  9E48 616E 646C 6573 4... dc.b       "HandlesKeys__13cEditTextItemFv"
export_968:
000008E8  4E56 FFF4                link       A6, -0x000C
000008EC  48E7 0308                movem.l    -[A7], D6,D7,A4
000008F0  3C2E 0012                move.w     D6, [A6 + 0x12]
000008F4  3E2E 000E                move.w     D7, [A6 + 0xE]
000008F8  286E 0008                movea.l    A4, [A6 + 0x8]
000008FC  3D47 FFF6                move.w     [A6 - 0xA], D7
00000900  3D46 FFF4                move.w     [A6 - 0xC], D6
00000904  48C6                     ext.l      D6
00000906  2F06                     move.l     -[A7], D6
00000908  48C7                     ext.l      D7
0000090A  2F07                     move.l     -[A7], D7
0000090C  486C 0080                pea.l      [A4 + 0x80]
00000910  4EAD 1CDA                jsr        [A5 + 0x1CDA /* export_919, CODE:36 @ 000009EE */]
00000914  41EE FFF8                lea.l      A0, [A6 - 0x8]
00000918  43EC 0090                lea.l      A1, [A4 + 0x90]
0000091C  20D9                     move.l     [A0]+, [A1]+
0000091E  20D9                     move.l     [A0]+, [A1]+
00000920  486E FFF8                pea.l      [A6 - 0x8]
00000924  7002                     moveq.l    D0, 0x02
00000926  3F00                     move.w     -[A7], D0
00000928  3F00                     move.w     -[A7], D0
0000092A  A8A9                     syscall    InsetRect
0000092C  486E FFF8                pea.l      [A6 - 0x8]
00000930  43EC 01C4                lea.l      A1, [A4 + 0x1C4]
00000934  2049                     movea.l    A0, A1
00000936  226C 01D0                movea.l    A1, [A4 + 0x1D0]
0000093A  D0E9 0038                add.w      A0, [A1 + 0x38]
0000093E  2F08                     move.l     -[A7], A0
00000940  2049                     movea.l    A0, A1
00000942  2268 003C                movea.l    A1, [A0 + 0x3C]
00000946  4E91                     jsr        [A1]
00000948  4CEE 10C0 FFE8           movem.l    D6,D7,A4, [A6 - 0x18]
0000094E  4E5E                     unlink     A6
00000950  4E75                     rts
00000952  9B52 6573 697A 655F 5... dc.b       "Resize__13cEditTextItemFsT1"
export_969:
00000970  4E56 FFF4                link       A6, -0x000C
00000974  48E7 0308                movem.l    -[A7], D6,D7,A4
00000978  3C2E 0012                move.w     D6, [A6 + 0x12]
0000097C  3E2E 000E                move.w     D7, [A6 + 0xE]
00000980  286E 0008                movea.l    A4, [A6 + 0x8]
00000984  3D47 FFF6                move.w     [A6 - 0xA], D7
00000988  3D46 FFF4                move.w     [A6 - 0xC], D6
0000098C  48C6                     ext.l      D6
0000098E  2F06                     move.l     -[A7], D6
00000990  48C7                     ext.l      D7
00000992  2F07                     move.l     -[A7], D7
00000994  486C 0080                pea.l      [A4 + 0x80]
00000998  4EAD 1CD2                jsr        [A5 + 0x1CD2 /* export_918, CODE:36 @ 0000099A */]
0000099C  41EE FFF8                lea.l      A0, [A6 - 0x8]
000009A0  43EC 0090                lea.l      A1, [A4 + 0x90]
000009A4  20D9                     move.l     [A0]+, [A1]+
000009A6  20D9                     move.l     [A0]+, [A1]+
000009A8  486E FFF8                pea.l      [A6 - 0x8]
000009AC  7002                     moveq.l    D0, 0x02
000009AE  3F00                     move.w     -[A7], D0
000009B0  3F00                     move.w     -[A7], D0
000009B2  A8A9                     syscall    InsetRect
000009B4  486E FFF8                pea.l      [A6 - 0x8]
000009B8  43EC 01C4                lea.l      A1, [A4 + 0x1C4]
000009BC  2049                     movea.l    A0, A1
000009BE  226C 01D0                movea.l    A1, [A4 + 0x1D0]
000009C2  D0E9 0038                add.w      A0, [A1 + 0x38]
000009C6  2F08                     move.l     -[A7], A0
000009C8  2049                     movea.l    A0, A1
000009CA  2268 003C                movea.l    A1, [A0 + 0x3C]
000009CE  4E91                     jsr        [A1]
000009D0  4CEE 10C0 FFE8           movem.l    D6,D7,A4, [A6 - 0x18]
000009D6  4E5E                     unlink     A6
000009D8  4E75                     rts
000009DA  994D 6F76 655F 5F31 3... dc.b       "Move__13cEditTextItemFsT1"
export_970:
000009F6  4E56 0000                link       A6, 0
000009FA  48E7 0018                movem.l    -[A7], A3,A4
000009FE  266E 000C                movea.l    A3, [A6 + 0xC]
00000A02  286E 0008                movea.l    A4, [A6 + 0x8]
00000A06  206C 01C4                movea.l    A0, [A4 + 0x1C4]
00000A0A  2050                     movea.l    A0, [A0]
00000A0C  3028 003C                move.w     D0, [A0 + 0x3C]
00000A10  48C0                     ext.l      D0
00000A12  5480                     addq.l     D0, 2
00000A14  2F00                     move.l     -[A7], D0
00000A16  2F0B                     move.l     -[A7], A3
00000A18  4EAD 17DA                jsr        [A5 + 0x17DA /* export_759, CODE:32 @ 00005616 */]
00000A1C  206C 01C4                movea.l    A0, [A4 + 0x1C4]
00000A20  2050                     movea.l    A0, [A0]
00000A22  3028 003C                move.w     D0, [A0 + 0x3C]
00000A26  48C0                     ext.l      D0
00000A28  5280                     addq.l     D0, 1
00000A2A  2F00                     move.l     -[A7], D0
00000A2C  206B 000C                movea.l    A0, [A3 + 0xC]
00000A30  2F10                     move.l     -[A7], [A0]
00000A32  486C 01C4                pea.l      [A4 + 0x1C4]
00000A36  4EAD 1672                jsr        [A5 + 0x1672 /* export_714, CODE:32 @ 00003B44 */]
00000A3A  2F0B                     move.l     -[A7], A3
00000A3C  4EAD 17E2                jsr        [A5 + 0x17E2 /* export_760, CODE:32 @ 0000565A */]
00000A40  7001                     moveq.l    D0, 0x01
00000A42  4CEE 1800 FFF8           movem.l    A3,A4, [A6 - 0x8]
00000A48  4E5E                     unlink     A6
00000A4A  4E75                     rts
00000A4C  8029 4578 7472 6163 7... dc.b       "ExtractTextField__13cEditTextItemFR5cText"
export_971:
00000A7A  4E56 0000                link       A6, 0
00000A7E  48E7 0108                movem.l    -[A7], D7,A4
00000A82  2E2E 000C                move.l     D7, [A6 + 0xC]
00000A86  286E 0008                movea.l    A4, [A6 + 0x8]
00000A8A  200C                     move.l     D0, A4
00000A8C  6774                     beq        +0x76 /* 00000B02 */
00000A8E  206C 0064                movea.l    A0, [A4 + 0x64]
00000A92  216D F456 0008           move.l     [A0 + 0x8], [A5 - 0xBAA]
00000A98  296D F452 0070           move.l     [A4 + 0x70], [A5 - 0xBAE]
00000A9E  296D F44E 0088           move.l     [A4 + 0x88], [A5 - 0xBB2]
00000AA4  296D F44A 01D0           move.l     [A4 + 0x1D0], [A5 - 0xBB6]
00000AAA  296D F446 0060           move.l     [A4 + 0x60], [A5 - 0xBBA]
00000AB0  200C                     move.l     D0, A4
00000AB2  674E                     beq        +0x50 /* 00000B02 */
00000AB4  7000                     moveq.l    D0, 0x00
00000AB6  2F00                     move.l     -[A7], D0
00000AB8  220C                     move.l     D1, A4
00000ABA  D2BC 0000 01C4           add.l      D1, 0x1C4
00000AC0  2F01                     move.l     -[A7], D1
00000AC2  4EAD 1642                jsr        [A5 + 0x1642 /* export_708, CODE:32 @ 000038CE */]
00000AC6  7000                     moveq.l    D0, 0x00
00000AC8  2F00                     move.l     -[A7], D0
00000ACA  2F0C                     move.l     -[A7], A4
00000ACC  4EBA 1642                jsr        [PC + 0x1642 /* 00002110 */]
00000AD0  7002                     moveq.l    D0, 0x02
00000AD2  C087                     and.l      D0, D7
00000AD4  6718                     beq        +0x1A /* 00000AEE */
00000AD6  7000                     moveq.l    D0, 0x00
00000AD8  2F00                     move.l     -[A7], D0
00000ADA  220C                     move.l     D1, A4
00000ADC  D2BC 0000 01D8           add.l      D1, 0x1D8
00000AE2  2F01                     move.l     -[A7], D1
00000AE4  4EAD 1632                jsr        [A5 + 0x1632 /* export_706, CODE:32 @ 000036CC */]
00000AE8  7000                     moveq.l    D0, 0x00
00000AEA  504F                     addq.w     A7, 8
00000AEC  6002                     bra        +0x4 /* 00000AF0 */
label00000AEE:
00000AEE  7000                     moveq.l    D0, 0x00
label00000AF0:
00000AF0  0807 0000                btst.b     D7, 0x0
00000AF4  4FEF 0010                lea.l      A7, [A7 + 0x10]
00000AF8  6708                     beq        +0xA /* 00000B02 */
00000AFA  2F0C                     move.l     -[A7], A4
00000AFC  4EAD 0102                jsr        [A5 + 0x102 /* export_28, CODE:1 @ 00001BE0 */]
00000B00  584F                     addq.w     A7, 4
label00000B02:
00000B02  4CEE 1080 FFF8           movem.l    D7,A4, [A6 - 0x8]
00000B08  4E5E                     unlink     A6
00000B0A  4E75                     rts
00000B0C  975F 5F64 745F 5F31 3... dc.b       "__dt__13cEditTextItemFv"
export_972:
00000B26  4E56 FFF8                link       A6, -0x0008
00000B2A  2F0C                     move.l     -[A7], A4
00000B2C  286E 0008                movea.l    A4, [A6 + 0x8]
00000B30  2F2C 0112                move.l     -[A7], [A4 + 0x112]
00000B34  4EAD 11E2                jsr        [A5 + 0x11E2 /* export_568, CODE:26 @ 000031FA */]
00000B38  0CAD 0000 0200 F29A      cmpi.l     [A5 - 0xD66], 0x200
00000B40  584F                     addq.w     A7, 4
00000B42  6D06                     blt        +0x8 /* 00000B4A */
00000B44  486C 00CC                pea.l      [A4 + 0xCC]
00000B48  AA15                     syscall    RGBBackColor
label00000B4A:
00000B4A  4A2C 01E5                tst.b      [A4 + 0x1E5]
00000B4E  671E                     beq        +0x20 /* 00000B6E */
00000B50  206C 01C4                movea.l    A0, [A4 + 0x1C4]
00000B54  2050                     movea.l    A0, [A0]
00000B56  43EE FFF8                lea.l      A1, [A6 - 0x8]
00000B5A  5088                     addq.l     A0, 8
00000B5C  22D8                     move.l     [A1]+, [A0]+
00000B5E  22D8                     move.l     [A1]+, [A0]+
00000B60  486E FFF8                pea.l      [A6 - 0x8]
00000B64  70FE                     moveq.l    D0, 0xFFFFFFFE
00000B66  3F00                     move.w     -[A7], D0
00000B68  3F00                     move.w     -[A7], D0
00000B6A  A8A9                     syscall    InsetRect
00000B6C  600C                     bra        +0xE /* 00000B7A */
label00000B6E:
00000B6E  41EE FFF8                lea.l      A0, [A6 - 0x8]
00000B72  43EC 0090                lea.l      A1, [A4 + 0x90]
00000B76  20D9                     move.l     [A0]+, [A1]+
00000B78  20D9                     move.l     [A0]+, [A1]+
label00000B7A:
00000B7A  486E FFF8                pea.l      [A6 - 0x8]
00000B7E  A8A3                     syscall    EraseRect
00000B80  4A2C 01E5                tst.b      [A4 + 0x1E5]
00000B84  6706                     beq        +0x8 /* 00000B8C */
00000B86  486E FFF8                pea.l      [A6 - 0x8]
00000B8A  A8A1                     syscall    FrameRect
label00000B8C:
00000B8C  2F2C 0112                move.l     -[A7], [A4 + 0x112]
00000B90  4EAD 11EA                jsr        [A5 + 0x11EA /* export_569, CODE:26 @ 00003268 */]
00000B94  2F0C                     move.l     -[A7], A4
00000B96  4EBA 1638                jsr        [PC + 0x1638 /* 000021D0 */]
00000B9A  486C 01C4                pea.l      [A4 + 0x1C4]
00000B9E  4EAD 1652                jsr        [A5 + 0x1652 /* export_710, CODE:32 @ 000039D4 */]
00000BA2  4FEF 000C                lea.l      A7, [A7 + 0xC]
00000BA6  286E FFF4                movea.l    A4, [A6 - 0xC]
00000BAA  4E5E                     unlink     A6
00000BAC  4E75                     rts
00000BAE  9744 7261 775F 5F31 3... dc.b       "Draw__13cEditTextItemFv"
export_973:
00000BC8  4E56 0000                link       A6, 0
00000BCC  2F0C                     move.l     -[A7], A4
00000BCE  286E 0008                movea.l    A4, [A6 + 0x8]
00000BD2  2F2C 0112                move.l     -[A7], [A4 + 0x112]
00000BD6  4EAD 11E2                jsr        [A5 + 0x11E2 /* export_568, CODE:26 @ 000031FA */]
00000BDA  0CAD 0000 0200 F29A      cmpi.l     [A5 - 0xD66], 0x200
00000BE2  584F                     addq.w     A7, 4
00000BE4  6D06                     blt        +0x8 /* 00000BEC */
00000BE6  486C 00CC                pea.l      [A4 + 0xCC]
00000BEA  AA15                     syscall    RGBBackColor
label00000BEC:
00000BEC  558F                     subq.l     A7, 2
00000BEE  2F2E 000C                move.l     -[A7], [A6 + 0xC]
00000BF2  486C 0090                pea.l      [A4 + 0x90]
00000BF6  A8AD                     syscall    PtInRect
00000BF8  4A1F                     tst.b      [A7]+
00000BFA  6748                     beq        +0x4A /* 00000C44 */
00000BFC  4A2C 01C8                tst.b      [A4 + 0x1C8]
00000C00  660E                     bne        +0x10 /* 00000C10 */
00000C02  7001                     moveq.l    D0, 0x01
00000C04  2F00                     move.l     -[A7], D0
00000C06  486C 01C4                pea.l      [A4 + 0x1C4]
00000C0A  4EAD 16BA                jsr        [A5 + 0x16BA /* export_723, CODE:32 @ 00003E66 */]
00000C0E  504F                     addq.w     A7, 8
label00000C10:
00000C10  2F0C                     move.l     -[A7], A4
00000C12  2F3C 4742 5447           move.l     -[A7], 0x47425447 /* 'GBTG' */
00000C18  204C                     movea.l    A0, A4
00000C1A  226C 0060                movea.l    A1, [A4 + 0x60]
00000C1E  D0E9 0060                add.w      A0, [A1 + 0x60]
00000C22  2F08                     move.l     -[A7], A0
00000C24  2049                     movea.l    A0, A1
00000C26  2268 0064                movea.l    A1, [A0 + 0x64]
00000C2A  4E91                     jsr        [A1]
00000C2C  2F2E 0014                move.l     -[A7], [A6 + 0x14]
00000C30  2F2E 0010                move.l     -[A7], [A6 + 0x10]
00000C34  2F2E 000C                move.l     -[A7], [A6 + 0xC]
00000C38  486C 01C4                pea.l      [A4 + 0x1C4]
00000C3C  4EAD 16C2                jsr        [A5 + 0x16C2 /* export_724, CODE:32 @ 00003F48 */]
00000C40  4FEF 001C                lea.l      A7, [A7 + 0x1C]
label00000C44:
00000C44  2F2C 0112                move.l     -[A7], [A4 + 0x112]
00000C48  4EAD 11EA                jsr        [A5 + 0x11EA /* export_569, CODE:26 @ 00003268 */]
00000C4C  584F                     addq.w     A7, 4
00000C4E  286E FFFC                movea.l    A4, [A6 - 0x4]
00000C52  4E5E                     unlink     A6
00000C54  4E75                     rts
00000C56  8024 4D6F 7573 6544 6... dc.b       "MouseDown__13cEditTextItemF5PointlT2"
export_974:
00000C7E  4E56 0000                link       A6, 0
00000C82  48E7 0108                movem.l    -[A7], D7,A4
00000C86  286E 0008                movea.l    A4, [A6 + 0x8]
00000C8A  4207                     clr.b      D7
00000C8C  2F2C 0112                move.l     -[A7], [A4 + 0x112]
00000C90  4EAD 11E2                jsr        [A5 + 0x11E2 /* export_568, CODE:26 @ 000031FA */]
00000C94  0CAD 0000 0200 F29A      cmpi.l     [A5 - 0xD66], 0x200
00000C9C  584F                     addq.w     A7, 4
00000C9E  6D06                     blt        +0x8 /* 00000CA6 */
00000CA0  486C 00CC                pea.l      [A4 + 0xCC]
00000CA4  AA15                     syscall    RGBBackColor
label00000CA6:
00000CA6  2F2E 000C                move.l     -[A7], [A6 + 0xC]
00000CAA  486C 01C4                pea.l      [A4 + 0x1C4]
00000CAE  4EAD 165A                jsr        [A5 + 0x165A /* export_711, CODE:32 @ 00003A3C */]
00000CB2  1E00                     move.b     D7, D0
00000CB4  2F2C 0112                move.l     -[A7], [A4 + 0x112]
00000CB8  4EAD 11EA                jsr        [A5 + 0x11EA /* export_569, CODE:26 @ 00003268 */]
00000CBC  2F0C                     move.l     -[A7], A4
00000CBE  4EBA F6FA                jsr        [PC - 0x906 /* 000003BA */]
00000CC2  1007                     move.b     D0, D7
00000CC4  4FEF 0010                lea.l      A7, [A7 + 0x10]
00000CC8  4CEE 1080 FFF8           movem.l    D7,A4, [A6 - 0x8]
00000CCE  4E5E                     unlink     A6
00000CD0  4E75                     rts
00000CD2  8027 4B65 7944 6F77 6... dc.b       "KeyDown__13cEditTextItemFR11EventRecord"
export_975:
00000CFE  4E56 0000                link       A6, 0
00000D02  2F0C                     move.l     -[A7], A4
00000D04  286E 0008                movea.l    A4, [A6 + 0x8]
00000D08  2F2C 0112                move.l     -[A7], [A4 + 0x112]
00000D0C  4EAD 11E2                jsr        [A5 + 0x11E2 /* export_568, CODE:26 @ 000031FA */]
00000D10  486C 01C4                pea.l      [A4 + 0x1C4]
00000D14  4EAD 1662                jsr        [A5 + 0x1662 /* export_712, CODE:32 @ 00003A8E */]
00000D18  2F2C 0112                move.l     -[A7], [A4 + 0x112]
00000D1C  4EAD 11EA                jsr        [A5 + 0x11EA /* export_569, CODE:26 @ 00003268 */]
00000D20  286E FFFC                movea.l    A4, [A6 - 0x4]
00000D24  4E5E                     unlink     A6
00000D26  4E75                     rts
00000D28  9749 646C 655F 5F31 3... dc.b       "Idle__13cEditTextItemFv"
export_976:
00000D42  4E56 FFFC                link       A6, -0x0004
00000D46  48E7 0108                movem.l    -[A7], D7,A4
00000D4A  286E 0008                movea.l    A4, [A6 + 0x8]
00000D4E  2D6E 000C FFFC           move.l     [A6 - 0x4], [A6 + 0xC]
00000D54  302C 0092                move.w     D0, [A4 + 0x92]
00000D58  916E FFFE                sub.w      [A6 - 0x2], D0
00000D5C  302C 0090                move.w     D0, [A4 + 0x90]
00000D60  916E FFFC                sub.w      [A6 - 0x4], D0
00000D64  2F2E FFFC                move.l     -[A7], [A6 - 0x4]
00000D68  486C 01C4                pea.l      [A4 + 0x1C4]
00000D6C  4EAD 164A                jsr        [A5 + 0x164A /* export_709, CODE:32 @ 0000394A */]
00000D70  3E00                     move.w     D7, D0
00000D72  504F                     addq.w     A7, 8
00000D74  6726                     beq        +0x28 /* 00000D9C */
00000D76  48C7                     ext.l      D7
00000D78  2F07                     move.l     -[A7], D7
00000D7A  2F3C 5359 5330           move.l     -[A7], 0x53595330 /* 'SYS0' */
00000D80  204C                     movea.l    A0, A4
00000D82  226C 0060                movea.l    A1, [A4 + 0x60]
00000D86  D0E9 0060                add.w      A0, [A1 + 0x60]
00000D8A  2F08                     move.l     -[A7], A0
00000D8C  2049                     movea.l    A0, A1
00000D8E  2268 0064                movea.l    A1, [A0 + 0x64]
00000D92  4E91                     jsr        [A1]
00000D94  7001                     moveq.l    D0, 0x01
00000D96  4FEF 000C                lea.l      A7, [A7 + 0xC]
00000D9A  6002                     bra        +0x4 /* 00000D9E */
label00000D9C:
00000D9C  7000                     moveq.l    D0, 0x00
label00000D9E:
00000D9E  4CEE 1080 FFF4           movem.l    D7,A4, [A6 - 0xC]
00000DA4  4E5E                     unlink     A6
00000DA6  4E75                     rts
00000DA8  8021 4D6F 7573 654F 7... dc.b       "MouseOver__13cEditTextItemF5Point"
export_977:
fn00000DCE:
00000DCE  4E56 0000                link       A6, 0
00000DD2  48E7 1018                movem.l    -[A7], D3,A3,A4
00000DD6  266E 000C                movea.l    A3, [A6 + 0xC]
00000DDA  286E 0008                movea.l    A4, [A6 + 0x8]
00000DDE  200C                     move.l     D0, A4
00000DE0  6612                     bne        +0x14 /* 00000DF4 */
00000DE2  4878 012A                push.l     0x12A
00000DE6  4EAD 010A                jsr        [A5 + 0x10A /* export_29, CODE:1 @ 00001C0A */]
00000DEA  2840                     movea.l    A4, D0
00000DEC  200C                     move.l     D0, A4
00000DEE  584F                     addq.w     A7, 4
00000DF0  6700 00F6                beq        +0xF8 /* 00000EE8 */
label00000DF4:
00000DF4  200B                     move.l     D0, A3
00000DF6  57C3                     seq        D3
00000DF8  4403                     neg.b      D3
00000DFA  6748                     beq        +0x4A /* 00000E44 */
00000DFC  264C                     movea.l    A3, A4
00000DFE  47EB 0106                lea.l      A3, [A3 + 0x106]
00000E02  7601                     moveq.l    D3, 0x01
00000E04  200C                     move.l     D0, A4
00000E06  D0BC 0000 0106           add.l      D0, 0x106
00000E0C  6614                     bne        +0x16 /* 00000E22 */
00000E0E  2F03                     move.l     -[A7], D3
00000E10  700C                     moveq.l    D0, 0x0C
00000E12  2F00                     move.l     -[A7], D0
00000E14  4EAD 010A                jsr        [A5 + 0x10A /* export_29, CODE:1 @ 00001C0A */]
00000E18  588F                     addq.l     A7, 4
00000E1A  261F                     move.l     D3, [A7]+
00000E1C  4A80                     tst.l      D0
00000E1E  6602                     bne        +0x4 /* 00000E22 */
00000E20  7600                     moveq.l    D3, 0x00
label00000E22:
00000E22  4A03                     tst.b      D3
00000E24  6712                     beq        +0x14 /* 00000E38 */
00000E26  296D F466 010E           move.l     [A4 + 0x10E], [A5 - 0xB9A]
00000E2C  7000                     moveq.l    D0, 0x00
00000E2E  2940 0106                move.l     [A4 + 0x106], D0
00000E32  2940 010A                move.l     [A4 + 0x10A], D0
00000E36  6002                     bra        +0x4 /* 00000E3A */
label00000E38:
00000E38  7000                     moveq.l    D0, 0x00
label00000E3A:
00000E3A  200C                     move.l     D0, A4
00000E3C  D0BC 0000 0106           add.l      D0, 0x106
00000E42  6002                     bra        +0x4 /* 00000E46 */
label00000E44:
00000E44  200B                     move.l     D0, A3
label00000E46:
00000E46  7000                     moveq.l    D0, 0x00
00000E48  2F00                     move.l     -[A7], D0
00000E4A  2F2E 0010                move.l     -[A7], [A6 + 0x10]
00000E4E  2F0B                     move.l     -[A7], A3
00000E50  2F0C                     move.l     -[A7], A4
00000E52  4EAD 1482                jsr        [A5 + 0x1482 /* export_652, CODE:32 @ 00000000 */]
00000E56  200C                     move.l     D0, A4
00000E58  7268                     moveq.l    D1, 0x68
00000E5A  D081                     add.l      D0, D1
00000E5C  2F00                     move.l     -[A7], D0
00000E5E  4EAD 15E2                jsr        [A5 + 0x15E2 /* export_696, CODE:32 @ 00002B52 */]
00000E62  2F0B                     move.l     -[A7], A3
00000E64  200C                     move.l     D0, A4
00000E66  D0BC 0000 0080           add.l      D0, 0x80
00000E6C  2F00                     move.l     -[A7], D0
00000E6E  4EAD 1CF2                jsr        [A5 + 0x1CF2 /* export_922, CODE:36 @ 00000A9E */]
00000E72  296D F46A 0060           move.l     [A4 + 0x60], [A5 - 0xB96]
00000E78  296D F46E 0088           move.l     [A4 + 0x88], [A5 - 0xB92]
00000E7E  296D F472 0070           move.l     [A4 + 0x70], [A5 - 0xB8E]
00000E84  206C 0064                movea.l    A0, [A4 + 0x64]
00000E88  216D F476 0008           move.l     [A0 + 0x8], [A5 - 0xB8A]
00000E8E  296E 0014 0112           move.l     [A4 + 0x112], [A6 + 0x14]
00000E94  7000                     moveq.l    D0, 0x00
00000E96  2940 0116                move.l     [A4 + 0x116], D0
00000E9A  426C 011A                clr.w      [A4 + 0x11A]
00000E9E  598F                     subq.l     A7, 4
00000EA0  A8D8                     syscall    NewRgn
00000EA2  295F 0120                move.l     [A4 + 0x120], [A7]+
00000EA6  4FEF 001C                lea.l      A7, [A7 + 0x1C]
00000EAA  660C                     bne        +0xE /* 00000EB8 */
00000EAC  70FF                     moveq.l    D0, 0xFFFFFFFF
00000EAE  2F00                     move.l     -[A7], D0
00000EB0  2F0C                     move.l     -[A7], A4
00000EB2  4EAD 14E2                jsr        [A5 + 0x14E2 /* export_664, CODE:32 @ 000007B8 */]
00000EB6  504F                     addq.w     A7, 8
label00000EB8:
00000EB8  206E 0018                movea.l    A0, [A6 + 0x18]
00000EBC  43EC 0090                lea.l      A1, [A4 + 0x90]
00000EC0  22D8                     move.l     [A1]+, [A0]+
00000EC2  22D8                     move.l     [A1]+, [A0]+
00000EC4  2F2C 0102                move.l     -[A7], [A4 + 0x102]
00000EC8  486C 0090                pea.l      [A4 + 0x90]
00000ECC  A8DF                     syscall    RectRgn
00000ECE  70FF                     moveq.l    D0, 0xFFFFFFFF
00000ED0  B0AD F47C                cmp.l      D0, [A5 - 0xB84]
00000ED4  6606                     bne        +0x8 /* 00000EDC */
00000ED6  2B78 02F0 F47C           move.l     [A5 - 0xB84], [0x000002F0 /* DoubleTime */]
label00000EDC:
00000EDC  422C 0128                clr.b      [A4 + 0x128]
00000EE0  297C 4641 4345 0124      move.l     [A4 + 0x124], 0x46414345 /* 'FACE' */
label00000EE8:
00000EE8  200C                     move.l     D0, A4
00000EEA  4CEE 1808 FFF4           movem.l    D3,A3,A4, [A6 - 0xC]
00000EF0  4E5E                     unlink     A6
00000EF2  4E75                     rts
00000EF4  802E 5F5F 6374 5F5F 3... dc.b       "__ct__14cInterfaceItemFP6cAgentP7cWindowR4Rect"
export_978:
fn00000F26:
00000F26  4E56 0000                link       A6, 0
00000F2A  48E7 0108                movem.l    -[A7], D7,A4
00000F2E  2E2E 000C                move.l     D7, [A6 + 0xC]
00000F32  286E 0008                movea.l    A4, [A6 + 0x8]
00000F36  200C                     move.l     D0, A4
00000F38  6700 008C                beq        +0x8E /* 00000FC6 */
00000F3C  206C 0064                movea.l    A0, [A4 + 0x64]
00000F40  216D F476 0008           move.l     [A0 + 0x8], [A5 - 0xB8A]
00000F46  296D F472 0070           move.l     [A4 + 0x70], [A5 - 0xB8E]
00000F4C  296D F46E 0088           move.l     [A4 + 0x88], [A5 - 0xB92]
00000F52  296D F46A 0060           move.l     [A4 + 0x60], [A5 - 0xB96]
00000F58  2F2C 0102                move.l     -[A7], [A4 + 0x102]
00000F5C  A8D9                     syscall    DisposRgn/DisposeRgn
00000F5E  2F2C 0120                move.l     -[A7], [A4 + 0x120]
00000F62  A8D9                     syscall    DisposRgn/DisposeRgn
00000F64  200C                     move.l     D0, A4
00000F66  675E                     beq        +0x60 /* 00000FC6 */
00000F68  7000                     moveq.l    D0, 0x00
00000F6A  2F00                     move.l     -[A7], D0
00000F6C  220C                     move.l     D1, A4
00000F6E  D2BC 0000 0080           add.l      D1, 0x80
00000F74  2F01                     move.l     -[A7], D1
00000F76  4EAD 1CCA                jsr        [A5 + 0x1CCA /* export_917, CODE:36 @ 00000912 */]
00000F7A  7000                     moveq.l    D0, 0x00
00000F7C  2F00                     move.l     -[A7], D0
00000F7E  220C                     move.l     D1, A4
00000F80  7468                     moveq.l    D2, 0x68
00000F82  D282                     add.l      D1, D2
00000F84  2F01                     move.l     -[A7], D1
00000F86  4EAD 15DA                jsr        [A5 + 0x15DA /* export_695, CODE:32 @ 00002A4A */]
00000F8A  7000                     moveq.l    D0, 0x00
00000F8C  2F00                     move.l     -[A7], D0
00000F8E  2F0C                     move.l     -[A7], A4
00000F90  4EAD 148A                jsr        [A5 + 0x148A /* export_653, CODE:32 @ 00000140 */]
00000F94  7002                     moveq.l    D0, 0x02
00000F96  C087                     and.l      D0, D7
00000F98  6718                     beq        +0x1A /* 00000FB2 */
00000F9A  7000                     moveq.l    D0, 0x00
00000F9C  2F00                     move.l     -[A7], D0
00000F9E  220C                     move.l     D1, A4
00000FA0  D2BC 0000 0106           add.l      D1, 0x106
00000FA6  2F01                     move.l     -[A7], D1
00000FA8  4EAD 1632                jsr        [A5 + 0x1632 /* export_706, CODE:32 @ 000036CC */]
00000FAC  7000                     moveq.l    D0, 0x00
00000FAE  504F                     addq.w     A7, 8
00000FB0  6002                     bra        +0x4 /* 00000FB4 */
label00000FB2:
00000FB2  7000                     moveq.l    D0, 0x00
label00000FB4:
00000FB4  0807 0000                btst.b     D7, 0x0
00000FB8  4FEF 0018                lea.l      A7, [A7 + 0x18]
00000FBC  6708                     beq        +0xA /* 00000FC6 */
00000FBE  2F0C                     move.l     -[A7], A4
00000FC0  4EAD 0102                jsr        [A5 + 0x102 /* export_28, CODE:1 @ 00001BE0 */]
00000FC4  584F                     addq.w     A7, 4
label00000FC6:
00000FC6  4CEE 1080 FFF8           movem.l    D7,A4, [A6 - 0x8]
00000FCC  4E5E                     unlink     A6
00000FCE  4E75                     rts
00000FD0  985F 5F64 745F 5F31 3... dc.b       "__dt__14cInterfaceItemFv"
export_979:
00000FEC  4E56 FFFC                link       A6, -0x0004
00000FF0  48E7 0108                movem.l    -[A7], D7,A4
00000FF4  2E2E 0014                move.l     D7, [A6 + 0x14]
00000FF8  286E 0008                movea.l    A4, [A6 + 0x8]
00000FFC  486E FFFC                pea.l      [A6 - 0x4]
00001000  A874                     syscall    GetPort
00001002  206C 0112                movea.l    A0, [A4 + 0x112]
00001006  2F28 0084                move.l     -[A7], [A0 + 0x84]
0000100A  A873                     syscall    SetPort
0000100C  2007                     move.l     D0, D7
0000100E  90AC 0116                sub.l      D0, [A4 + 0x116]
00001012  B0AD F47C                cmp.l      D0, [A5 - 0xB84]
00001016  6E56                     bgt        +0x58 /* 0000106E */
00001018  302C 011E                move.w     D0, [A4 + 0x11E]
0000101C  48C0                     ext.l      D0
0000101E  322E 000E                move.w     D1, [A6 + 0xE]
00001022  48C1                     ext.l      D1
00001024  9081                     sub.l      D0, D1
00001026  2F00                     move.l     -[A7], D0
00001028  4EAD 145A                jsr        [A5 + 0x145A /* export_647, CODE:31 @ 00000000 */]
0000102C  322D F47A                move.w     D1, [A5 - 0xB86]
00001030  48C1                     ext.l      D1
00001032  B280                     cmp.l      D1, D0
00001034  584F                     addq.w     A7, 4
00001036  6D26                     blt        +0x28 /* 0000105E */
00001038  302C 011C                move.w     D0, [A4 + 0x11C]
0000103C  48C0                     ext.l      D0
0000103E  322E 000C                move.w     D1, [A6 + 0xC]
00001042  48C1                     ext.l      D1
00001044  9081                     sub.l      D0, D1
00001046  2F00                     move.l     -[A7], D0
00001048  4EAD 145A                jsr        [A5 + 0x145A /* export_647, CODE:31 @ 00000000 */]
0000104C  322D F47A                move.w     D1, [A5 - 0xB86]
00001050  48C1                     ext.l      D1
00001052  B280                     cmp.l      D1, D0
00001054  584F                     addq.w     A7, 4
00001056  6D06                     blt        +0x8 /* 0000105E */
00001058  526C 011A                addq.w     [A4 + 0x11A], 1
0000105C  6004                     bra        +0x6 /* 00001062 */
label0000105E:
0000105E  426C 011A                clr.w      [A4 + 0x11A]
label00001062:
00001062  296E 000C 011C           move.l     [A4 + 0x11C], [A6 + 0xC]
00001068  2947 0116                move.l     [A4 + 0x116], D7
0000106C  600E                     bra        +0x10 /* 0000107C */
label0000106E:
0000106E  426C 011A                clr.w      [A4 + 0x11A]
00001072  2947 0116                move.l     [A4 + 0x116], D7
00001076  296E 000C 011C           move.l     [A4 + 0x11C], [A6 + 0xC]
label0000107C:
0000107C  2F2E FFFC                move.l     -[A7], [A6 - 0x4]
00001080  A873                     syscall    SetPort
00001082  4CEE 1080 FFF4           movem.l    D7,A4, [A6 - 0xC]
00001088  4E5E                     unlink     A6
0000108A  4E75                     rts
0000108C  8025 4D6F 7573 6544 6... dc.b       "MouseDown__14cInterfaceItemF5PointlT2"
export_980:
000010B6  4E56 0000                link       A6, 0
000010BA  7000                     moveq.l    D0, 0x00
000010BC  4E5E                     unlink     A6
000010BE  4E75                     rts
000010C0  8028 4B65 7944 6F77 6... dc.b       "KeyDown__14cInterfaceItemFR11EventRecord"
export_981:
000010EC  4E56 0000                link       A6, 0
000010F0  4E5E                     unlink     A6
000010F2  4E75                     rts
000010F4  9849 646C 655F 5F31 3... dc.b       "Idle__14cInterfaceItemFv"
export_982:
00001110  4E56 FFFC                link       A6, -0x0004
00001114  486E FFFC                pea.l      [A6 - 0x4]
00001118  A874                     syscall    GetPort
0000111A  206E 0008                movea.l    A0, [A6 + 0x8]
0000111E  2068 0112                movea.l    A0, [A0 + 0x112]
00001122  2F28 0084                move.l     -[A7], [A0 + 0x84]
00001126  A873                     syscall    SetPort
00001128  2F2E 000C                move.l     -[A7], [A6 + 0xC]
0000112C  A928                     syscall    InvalRect
0000112E  2F2E FFFC                move.l     -[A7], [A6 - 0x4]
00001132  A873                     syscall    SetPort
00001134  4E5E                     unlink     A6
00001136  4E75                     rts
00001138  8023 496E 7661 6C69 6... dc.b       "Invalidate__14cInterfaceItemFR4Rect"
export_983:
00001160  4E56 0000                link       A6, 0
00001164  4E5E                     unlink     A6
00001166  4E75                     rts
00001168  9843 6F70 795F 5F31 3... dc.b       "Copy__14cInterfaceItemFv"
export_984:
00001184  4E56 0000                link       A6, 0
00001188  4E5E                     unlink     A6
0000118A  4E75                     rts
0000118C  9950 6173 7465 5F5F 3... dc.b       "Paste__14cInterfaceItemFv"
export_985:
000011A8  4E56 0000                link       A6, 0
000011AC  4E5E                     unlink     A6
000011AE  4E75                     rts
000011B0  9943 6C65 6172 5F5F 3... dc.b       "Clear__14cInterfaceItemFv"
export_986:
000011CC  4E56 0000                link       A6, 0
000011D0  4E5E                     unlink     A6
000011D2  4E75                     rts
000011D4  9D53 656C 6563 7441 6... dc.b       "SelectAll__14cInterfaceItemFv"
export_987:
000011F4  4E56 0000                link       A6, 0
000011F8  4E5E                     unlink     A6
000011FA  4E75                     rts
000011FC  9855 6E64 6F5F 5F31 3... dc.b       "Undo__14cInterfaceItemFv"
export_988:
00001218  4E56 0000                link       A6, 0
0000121C  2F0C                     move.l     -[A7], A4
0000121E  286E 0008                movea.l    A4, [A6 + 0x8]
00001222  2F2E 000C                move.l     -[A7], [A6 + 0xC]
00001226  2F0C                     move.l     -[A7], A4
00001228  4EBA 0366                jsr        [PC + 0x366 /* 00001590 */]
0000122C  7000                     moveq.l    D0, 0x00
0000122E  2F00                     move.l     -[A7], D0
00001230  2F00                     move.l     -[A7], D0
00001232  2F2C 0112                move.l     -[A7], [A4 + 0x112]
00001236  4EAD 1202                jsr        [A5 + 0x1202 /* export_572, CODE:26 @ 000033B8 */]
0000123A  43EC 0080                lea.l      A1, [A4 + 0x80]
0000123E  2049                     movea.l    A0, A1
00001240  226C 0088                movea.l    A1, [A4 + 0x88]
00001244  D0E9 0038                add.w      A0, [A1 + 0x38]
00001248  2F08                     move.l     -[A7], A0
0000124A  2049                     movea.l    A0, A1
0000124C  2268 003C                movea.l    A1, [A0 + 0x3C]
00001250  4E91                     jsr        [A1]
00001252  2F2C 0112                move.l     -[A7], [A4 + 0x112]
00001256  4EAD 120A                jsr        [A5 + 0x120A /* export_573, CODE:26 @ 00003404 */]
0000125A  7000                     moveq.l    D0, 0x00
0000125C  2F00                     move.l     -[A7], D0
0000125E  2F0C                     move.l     -[A7], A4
00001260  4EBA 03B0                jsr        [PC + 0x3B0 /* 00001612 */]
00001264  286E FFFC                movea.l    A4, [A6 - 0x4]
00001268  4E5E                     unlink     A6
0000126A  4E75                     rts
0000126C  802A 4472 6177 5468 6... dc.b       "DrawThisRegion__14cInterfaceItemFPP6Region"
export_989:
0000129A  4E56 0000                link       A6, 0
0000129E  2F0C                     move.l     -[A7], A4
000012A0  286E 0008                movea.l    A4, [A6 + 0x8]
000012A4  4A2C 0128                tst.b      [A4 + 0x128]
000012A8  6748                     beq        +0x4A /* 000012F2 */
000012AA  558F                     subq.l     A7, 2
000012AC  2F2E 000C                move.l     -[A7], [A6 + 0xC]
000012B0  486C 0090                pea.l      [A4 + 0x90]
000012B4  A8AD                     syscall    PtInRect
000012B6  4A1F                     tst.b      [A7]+
000012B8  6738                     beq        +0x3A /* 000012F2 */
000012BA  7000                     moveq.l    D0, 0x00
000012BC  102C 0098                move.b     D0, [A4 + 0x98]
000012C0  7208                     moveq.l    D1, 0x08
000012C2  C200                     and.b      D1, D0
000012C4  7000                     moveq.l    D0, 0x00
000012C6  1001                     move.b     D0, D1
000012C8  4A80                     tst.l      D0
000012CA  6726                     beq        +0x28 /* 000012F2 */
000012CC  2F2C 0124                move.l     -[A7], [A4 + 0x124]
000012D0  2F3C 4D43 4830           move.l     -[A7], 0x4D434830 /* 'MCH0' */
000012D6  204C                     movea.l    A0, A4
000012D8  226C 0060                movea.l    A1, [A4 + 0x60]
000012DC  D0E9 0060                add.w      A0, [A1 + 0x60]
000012E0  2F08                     move.l     -[A7], A0
000012E2  2049                     movea.l    A0, A1
000012E4  2268 0064                movea.l    A1, [A0 + 0x64]
000012E8  4E91                     jsr        [A1]
000012EA  7001                     moveq.l    D0, 0x01
000012EC  4FEF 000C                lea.l      A7, [A7 + 0xC]
000012F0  6002                     bra        +0x4 /* 000012F4 */
label000012F2:
000012F2  7000                     moveq.l    D0, 0x00
label000012F4:
000012F4  286E FFFC                movea.l    A4, [A6 - 0x4]
000012F8  4E5E                     unlink     A6
000012FA  4E75                     rts
000012FC  8022 4D6F 7573 654F 7... dc.b       "MouseOver__14cInterfaceItemF5Point"
export_990:
00001322  4E56 0000                link       A6, 0
00001326  7000                     moveq.l    D0, 0x00
00001328  4E5E                     unlink     A6
0000132A  4E75                     rts
0000132C  9A43 616E 4375 745F 5... dc.b       "CanCut__14cInterfaceItemFv"
export_991:
0000134A  4E56 0000                link       A6, 0
0000134E  7000                     moveq.l    D0, 0x00
00001350  4E5E                     unlink     A6
00001352  4E75                     rts
00001354  9B43 616E 436F 7079 5... dc.b       "CanCopy__14cInterfaceItemFv"
export_992:
00001372  4E56 0000                link       A6, 0
00001376  7000                     moveq.l    D0, 0x00
00001378  4E5E                     unlink     A6
0000137A  4E75                     rts
0000137C  9C43 616E 5061 7374 6... dc.b       "CanPaste__14cInterfaceItemFv"
export_993:
0000139C  4E56 0000                link       A6, 0
000013A0  7000                     moveq.l    D0, 0x00
000013A2  4E5E                     unlink     A6
000013A4  4E75                     rts
000013A6  9C43 616E 436C 6561 7... dc.b       "CanClear__14cInterfaceItemFv"
export_994:
000013C6  4E56 0000                link       A6, 0
000013CA  7000                     moveq.l    D0, 0x00
000013CC  4E5E                     unlink     A6
000013CE  4E75                     rts
000013D0  8020 4361 6E53 656C 6... dc.b       "CanSelectAll__14cInterfaceItemFv"
export_995:
000013F4  4E56 0000                link       A6, 0
000013F8  7000                     moveq.l    D0, 0x00
000013FA  4E5E                     unlink     A6
000013FC  4E75                     rts
000013FE  9B43 616E 556E 646F 5... dc.b       "CanUndo__14cInterfaceItemFv"
export_996:
0000141C  4E56 FFFC                link       A6, -0x0004
00001420  48E7 0118                movem.l    -[A7], D7,A3,A4
00001424  286E 0008                movea.l    A4, [A6 + 0x8]
00001428  206C 0112                movea.l    A0, [A4 + 0x112]
0000142C  2D68 0084 FFFC           move.l     [A6 - 0x4], [A0 + 0x84]
00001432  598F                     subq.l     A7, 4
00001434  A8D8                     syscall    NewRgn
00001436  265F                     movea.l    A3, [A7]+
00001438  200B                     move.l     D0, A3
0000143A  660C                     bne        +0xE /* 00001448 */
0000143C  70FF                     moveq.l    D0, 0xFFFFFFFF
0000143E  2F00                     move.l     -[A7], D0
00001440  2F0C                     move.l     -[A7], A4
00001442  4EAD 14E2                jsr        [A5 + 0x14E2 /* export_664, CODE:32 @ 000007B8 */]
00001446  504F                     addq.w     A7, 8
label00001448:
00001448  206E FFFC                movea.l    A0, [A6 - 0x4]
0000144C  2F28 0018                move.l     -[A7], [A0 + 0x18]
00001450  2F0B                     move.l     -[A7], A3
00001452  A8DC                     syscall    CopyRgn
00001454  4207                     clr.b      D7
00001456  2F0B                     move.l     -[A7], A3
00001458  2F2C 0102                move.l     -[A7], [A4 + 0x102]
0000145C  2F0B                     move.l     -[A7], A3
0000145E  A8E4                     syscall    SectRgn
00001460  558F                     subq.l     A7, 2
00001462  206E FFFC                movea.l    A0, [A6 - 0x4]
00001466  2F28 0018                move.l     -[A7], [A0 + 0x18]
0000146A  2F0B                     move.l     -[A7], A3
0000146C  A8E3                     syscall    EqualRgn
0000146E  1E1F                     move.b     D7, [A7]+
00001470  2F0B                     move.l     -[A7], A3
00001472  A8D9                     syscall    DisposRgn/DisposeRgn
00001474  1007                     move.b     D0, D7
00001476  4CEE 1880 FFF0           movem.l    D7,A3,A4, [A6 - 0x10]
0000147C  4E5E                     unlink     A6
0000147E  4E75                     rts
00001480  8021 4361 6E53 6565 4... dc.b       "CanSeeAllOfMe__14cInterfaceItemFv"
export_997:
000014A6  4E56 0000                link       A6, 0
000014AA  4E5E                     unlink     A6
000014AC  4E75                     rts
000014AE  9743 7574 5F5F 3134 6... dc.b       "Cut__14cInterfaceItemFv"
export_998:
fn000014C8:
000014C8  4E56 FFFC                link       A6, -0x0004
000014CC  2F0C                     move.l     -[A7], A4
000014CE  286E 0008                movea.l    A4, [A6 + 0x8]
000014D2  486E FFFC                pea.l      [A6 - 0x4]
000014D6  A874                     syscall    GetPort
000014D8  206C 0112                movea.l    A0, [A4 + 0x112]
000014DC  2F28 0084                move.l     -[A7], [A0 + 0x84]
000014E0  A873                     syscall    SetPort
000014E2  486C 0090                pea.l      [A4 + 0x90]
000014E6  A928                     syscall    InvalRect
000014E8  2F2E FFFC                move.l     -[A7], [A6 - 0x4]
000014EC  A873                     syscall    SetPort
000014EE  286E FFF8                movea.l    A4, [A6 - 0x8]
000014F2  4E5E                     unlink     A6
000014F4  4E75                     rts
000014F6  9E49 6E76 616C 6964 6... dc.b       "Invalidate__14cInterfaceItemFv"
export_999:
00001518  4E56 0000                link       A6, 0
0000151C  2F2E 000C                move.l     -[A7], [A6 + 0xC]
00001520  206E 0008                movea.l    A0, [A6 + 0x8]
00001524  2F28 0112                move.l     -[A7], [A0 + 0x112]
00001528  4EAD 1272                jsr        [A5 + 0x1272 /* export_586, CODE:26 @ 00003912 */]
0000152C  4E5E                     unlink     A6
0000152E  4E75                     rts
00001530  8022 436C 6970 546F 5... dc.b       "ClipTo__14cInterfaceItemFPP6Region"
export_1000:
fn00001556:
00001556  4E56 0000                link       A6, 0
0000155A  2F2E 000C                move.l     -[A7], [A6 + 0xC]
0000155E  206E 0008                movea.l    A0, [A6 + 0x8]
00001562  2F28 0112                move.l     -[A7], [A0 + 0x112]
00001566  4EAD 127A                jsr        [A5 + 0x127A /* export_587, CODE:26 @ 000039C8 */]
0000156A  4E5E                     unlink     A6
0000156C  4E75                     rts
0000156E  9F43 6C69 7054 6F5F 5... dc.b       "ClipTo__14cInterfaceItemFR4Rect"
export_1001:
fn00001590:
00001590  4E56 0000                link       A6, 0
00001594  2F2E 000C                move.l     -[A7], [A6 + 0xC]
00001598  206E 0008                movea.l    A0, [A6 + 0x8]
0000159C  2F28 0112                move.l     -[A7], [A0 + 0x112]
000015A0  4EAD 1262                jsr        [A5 + 0x1262 /* export_584, CODE:26 @ 000037FE */]
000015A4  4E5E                     unlink     A6
000015A6  4E75                     rts
000015A8  8026 436C 6970 5769 7... dc.b       "ClipWithin__14cInterfaceItemFPP6Region"
export_1002:
fn000015D2:
000015D2  4E56 0000                link       A6, 0
000015D6  2F2E 000C                move.l     -[A7], [A6 + 0xC]
000015DA  206E 0008                movea.l    A0, [A6 + 0x8]
000015DE  2F28 0112                move.l     -[A7], [A0 + 0x112]
000015E2  4EAD 126A                jsr        [A5 + 0x126A /* export_585, CODE:26 @ 000038B2 */]
000015E6  4E5E                     unlink     A6
000015E8  4E75                     rts
000015EA  8023 436C 6970 5769 7... dc.b       "ClipWithin__14cInterfaceItemFR4Rect"
export_1003:
fn00001612:
00001612  4E56 0000                link       A6, 0
00001616  7000                     moveq.l    D0, 0x00
00001618  102E 000F                move.b     D0, [A6 + 0xF]
0000161C  2F00                     move.l     -[A7], D0
0000161E  206E 0008                movea.l    A0, [A6 + 0x8]
00001622  2F28 0112                move.l     -[A7], [A0 + 0x112]
00001626  4EAD 1282                jsr        [A5 + 0x1282 /* export_588, CODE:26 @ 00003A24 */]
0000162A  4E5E                     unlink     A6
0000162C  4E75                     rts
0000162E  8020 5265 7374 6F72 6... dc.b       "RestoreClip__14cInterfaceItemFUc"
export_1004:
00001652  4E56 0000                link       A6, 0
00001656  48E7 1018                movem.l    -[A7], D3,A3,A4
0000165A  266E 000C                movea.l    A3, [A6 + 0xC]
0000165E  286E 0008                movea.l    A4, [A6 + 0x8]
00001662  200C                     move.l     D0, A4
00001664  6612                     bne        +0x14 /* 00001678 */
00001666  4878 015E                push.l     0x15E
0000166A  4EAD 010A                jsr        [A5 + 0x10A /* export_29, CODE:1 @ 00001C0A */]
0000166E  2840                     movea.l    A4, D0
00001670  200C                     move.l     D0, A4
00001672  584F                     addq.w     A7, 4
00001674  6700 00C6                beq        +0xC8 /* 0000173C */
label00001678:
00001678  200B                     move.l     D0, A3
0000167A  57C3                     seq        D3
0000167C  4403                     neg.b      D3
0000167E  6748                     beq        +0x4A /* 000016C8 */
00001680  264C                     movea.l    A3, A4
00001682  47EB 0152                lea.l      A3, [A3 + 0x152]
00001686  7601                     moveq.l    D3, 0x01
00001688  200C                     move.l     D0, A4
0000168A  D0BC 0000 0152           add.l      D0, 0x152
00001690  6614                     bne        +0x16 /* 000016A6 */
00001692  2F03                     move.l     -[A7], D3
00001694  700C                     moveq.l    D0, 0x0C
00001696  2F00                     move.l     -[A7], D0
00001698  4EAD 010A                jsr        [A5 + 0x10A /* export_29, CODE:1 @ 00001C0A */]
0000169C  588F                     addq.l     A7, 4
0000169E  261F                     move.l     D3, [A7]+
000016A0  4A80                     tst.l      D0
000016A2  6602                     bne        +0x4 /* 000016A6 */
000016A4  7600                     moveq.l    D3, 0x00
label000016A6:
000016A6  4A03                     tst.b      D3
000016A8  6712                     beq        +0x14 /* 000016BC */
000016AA  296D F480 015A           move.l     [A4 + 0x15A], [A5 - 0xB80]
000016B0  7000                     moveq.l    D0, 0x00
000016B2  2940 0152                move.l     [A4 + 0x152], D0
000016B6  2940 0156                move.l     [A4 + 0x156], D0
000016BA  6002                     bra        +0x4 /* 000016BE */
label000016BC:
000016BC  7000                     moveq.l    D0, 0x00
label000016BE:
000016BE  200C                     move.l     D0, A4
000016C0  D0BC 0000 0152           add.l      D0, 0x152
000016C6  6002                     bra        +0x4 /* 000016CA */
label000016C8:
000016C8  200B                     move.l     D0, A3
label000016CA:
000016CA  2F2E 0018                move.l     -[A7], [A6 + 0x18]
000016CE  2F2E 0014                move.l     -[A7], [A6 + 0x14]
000016D2  2F2E 0010                move.l     -[A7], [A6 + 0x10]
000016D6  2F0B                     move.l     -[A7], A3
000016D8  2F0C                     move.l     -[A7], A4
000016DA  4EBA F6F2                jsr        [PC - 0x90E /* 00000DCE */]
000016DE  7064                     moveq.l    D0, 0x64
000016E0  2F00                     move.l     -[A7], D0
000016E2  322E 001E                move.w     D1, [A6 + 0x1E]
000016E6  48C1                     ext.l      D1
000016E8  2F01                     move.l     -[A7], D1
000016EA  220C                     move.l     D1, A4
000016EC  D2BC 0000 012A           add.l      D1, 0x12A
000016F2  2F01                     move.l     -[A7], D1
000016F4  4EAD 0172                jsr        [A5 + 0x172 /* export_42, CODE:1 @ 00002978 */]
000016F8  296D F484 0060           move.l     [A4 + 0x60], [A5 - 0xB7C]
000016FE  296D F488 0132           move.l     [A4 + 0x132], [A5 - 0xB78]
00001704  206C 0064                movea.l    A0, [A4 + 0x64]
00001708  216D F48C 0008           move.l     [A0 + 0x8], [A5 - 0xB74]
0000170E  296D F490 0070           move.l     [A4 + 0x70], [A5 - 0xB70]
00001714  296D F494 0088           move.l     [A4 + 0x88], [A5 - 0xB6C]
0000171A  196E 0023 0150           move.b     [A4 + 0x150], [A6 + 0x23]
00001720  43EC 0080                lea.l      A1, [A4 + 0x80]
00001724  2049                     movea.l    A0, A1
00001726  226C 0088                movea.l    A1, [A4 + 0x88]
0000172A  D0E9 0098                add.w      A0, [A1 + 0x98]
0000172E  2F08                     move.l     -[A7], A0
00001730  2049                     movea.l    A0, A1
00001732  2268 009C                movea.l    A1, [A0 + 0x9C]
00001736  4E91                     jsr        [A1]
00001738  4FEF 0024                lea.l      A7, [A7 + 0x24]
label0000173C:
0000173C  200C                     move.l     D0, A4
0000173E  4CEE 1808 FFF4           movem.l    D3,A3,A4, [A6 - 0xC]
00001744  4E5E                     unlink     A6
00001746  4E75                     rts
00001748  802B 5F5F 6374 5F5F 3... dc.b       "__ct__9cIconItemFP6cAgentP7cWindowR4RectsUc"
export_1005:
00001778  4E56 0000                link       A6, 0
0000177C  48E7 0108                movem.l    -[A7], D7,A4
00001780  2E2E 000C                move.l     D7, [A6 + 0xC]
00001784  286E 0008                movea.l    A4, [A6 + 0x8]
00001788  200C                     move.l     D0, A4
0000178A  6774                     beq        +0x76 /* 00001800 */
0000178C  296D F494 0088           move.l     [A4 + 0x88], [A5 - 0xB6C]
00001792  296D F490 0070           move.l     [A4 + 0x70], [A5 - 0xB70]
00001798  206C 0064                movea.l    A0, [A4 + 0x64]
0000179C  216D F48C 0008           move.l     [A0 + 0x8], [A5 - 0xB74]
000017A2  296D F488 0132           move.l     [A4 + 0x132], [A5 - 0xB78]
000017A8  296D F484 0060           move.l     [A4 + 0x60], [A5 - 0xB7C]
000017AE  200C                     move.l     D0, A4
000017B0  674E                     beq        +0x50 /* 00001800 */
000017B2  7000                     moveq.l    D0, 0x00
000017B4  2F00                     move.l     -[A7], D0
000017B6  220C                     move.l     D1, A4
000017B8  D2BC 0000 012A           add.l      D1, 0x12A
000017BE  2F01                     move.l     -[A7], D1
000017C0  4EAD 017A                jsr        [A5 + 0x17A /* export_43, CODE:1 @ 00002A34 */]
000017C4  7000                     moveq.l    D0, 0x00
000017C6  2F00                     move.l     -[A7], D0
000017C8  2F0C                     move.l     -[A7], A4
000017CA  4EBA F75A                jsr        [PC - 0x8A6 /* 00000F26 */]
000017CE  7002                     moveq.l    D0, 0x02
000017D0  C087                     and.l      D0, D7
000017D2  6718                     beq        +0x1A /* 000017EC */
000017D4  7000                     moveq.l    D0, 0x00
000017D6  2F00                     move.l     -[A7], D0
000017D8  220C                     move.l     D1, A4
000017DA  D2BC 0000 0152           add.l      D1, 0x152
000017E0  2F01                     move.l     -[A7], D1
000017E2  4EAD 1632                jsr        [A5 + 0x1632 /* export_706, CODE:32 @ 000036CC */]
000017E6  7000                     moveq.l    D0, 0x00
000017E8  504F                     addq.w     A7, 8
000017EA  6002                     bra        +0x4 /* 000017EE */
label000017EC:
000017EC  7000                     moveq.l    D0, 0x00
label000017EE:
000017EE  0807 0000                btst.b     D7, 0x0
000017F2  4FEF 0010                lea.l      A7, [A7 + 0x10]
000017F6  6708                     beq        +0xA /* 00001800 */
000017F8  2F0C                     move.l     -[A7], A4
000017FA  4EAD 0102                jsr        [A5 + 0x102 /* export_28, CODE:1 @ 00001BE0 */]
000017FE  584F                     addq.w     A7, 4
label00001800:
00001800  4CEE 1080 FFF8           movem.l    D7,A4, [A6 - 0x8]
00001806  4E5E                     unlink     A6
00001808  4E75                     rts
0000180A  925F 5F64 745F 5F39 6... dc.b       "__dt__9cIconItemFv"
export_1006:
00001820  4E56 FFF8                link       A6, -0x0008
00001824  48E7 1118                movem.l    -[A7], D3,D7,A3,A4
00001828  286E 0008                movea.l    A4, [A6 + 0x8]
0000182C  7000                     moveq.l    D0, 0x00
0000182E  102C 0098                move.b     D0, [A4 + 0x98]
00001832  7201                     moveq.l    D1, 0x01
00001834  C200                     and.b      D1, D0
00001836  7000                     moveq.l    D0, 0x00
00001838  1001                     move.b     D0, D1
0000183A  4A80                     tst.l      D0
0000183C  6600 00D0                bne        +0xD2 /* 0000190E */
00001840  2F2C 0112                move.l     -[A7], [A4 + 0x112]
00001844  4EAD 11E2                jsr        [A5 + 0x11E2 /* export_568, CODE:26 @ 000031FA */]
00001848  486C 0090                pea.l      [A4 + 0x90]
0000184C  2F2C 0112                move.l     -[A7], [A4 + 0x112]
00001850  4EAD 127A                jsr        [A5 + 0x127A /* export_587, CODE:26 @ 000039C8 */]
00001854  0CAD 0000 0200 F29A      cmpi.l     [A5 - 0xD66], 0x200
0000185C  4FEF 000C                lea.l      A7, [A7 + 0xC]
00001860  6D0C                     blt        +0xE /* 0000186E */
00001862  486C 009A                pea.l      [A4 + 0x9A]
00001866  AA14                     syscall    RGBForeColor
00001868  486C 00CC                pea.l      [A4 + 0xCC]
0000186C  AA15                     syscall    RGBBackColor
label0000186E:
0000186E  7000                     moveq.l    D0, 0x00
00001870  102C 0098                move.b     D0, [A4 + 0x98]
00001874  7204                     moveq.l    D1, 0x04
00001876  C200                     and.b      D1, D0
00001878  7000                     moveq.l    D0, 0x00
0000187A  1001                     move.b     D0, D1
0000187C  4A80                     tst.l      D0
0000187E  673C                     beq        +0x3E /* 000018BC */
00001880  47EC 0090                lea.l      A3, [A4 + 0x90]
00001884  7000                     moveq.l    D0, 0x00
00001886  102C 0098                move.b     D0, [A4 + 0x98]
0000188A  7208                     moveq.l    D1, 0x08
0000188C  C200                     and.b      D1, D0
0000188E  7000                     moveq.l    D0, 0x00
00001890  1001                     move.b     D0, D1
00001892  4A80                     tst.l      D0
00001894  56C3                     sne        D3
00001896  4403                     neg.b      D3
00001898  1E03                     move.b     D7, D3
0000189A  3D6B 0002 FFFA           move.w     [A6 - 0x6], [A3 + 0x2]
000018A0  3D53 FFF8                move.w     [A6 - 0x8], [A3]
000018A4  7000                     moveq.l    D0, 0x00
000018A6  1007                     move.b     D0, D7
000018A8  2F00                     move.l     -[A7], D0
000018AA  2F2E FFF8                move.l     -[A7], [A6 - 0x8]
000018AE  486C 012A                pea.l      [A4 + 0x12A]
000018B2  4EAD 0192                jsr        [A5 + 0x192 /* export_46, CODE:1 @ 00002C5E */]
000018B6  4FEF 000C                lea.l      A7, [A7 + 0xC]
000018BA  603A                     bra        +0x3C /* 000018F6 */
label000018BC:
000018BC  47EC 0090                lea.l      A3, [A4 + 0x90]
000018C0  7000                     moveq.l    D0, 0x00
000018C2  102C 0098                move.b     D0, [A4 + 0x98]
000018C6  7208                     moveq.l    D1, 0x08
000018C8  C200                     and.b      D1, D0
000018CA  7000                     moveq.l    D0, 0x00
000018CC  1001                     move.b     D0, D1
000018CE  4A80                     tst.l      D0
000018D0  56C3                     sne        D3
000018D2  4403                     neg.b      D3
000018D4  1E03                     move.b     D7, D3
000018D6  3D6B 0002 FFFE           move.w     [A6 - 0x2], [A3 + 0x2]
000018DC  3D53 FFFC                move.w     [A6 - 0x4], [A3]
000018E0  7000                     moveq.l    D0, 0x00
000018E2  1007                     move.b     D0, D7
000018E4  2F00                     move.l     -[A7], D0
000018E6  2F2E FFFC                move.l     -[A7], [A6 - 0x4]
000018EA  486C 012A                pea.l      [A4 + 0x12A]
000018EE  4EAD 018A                jsr        [A5 + 0x18A /* export_45, CODE:1 @ 00002B88 */]
000018F2  4FEF 000C                lea.l      A7, [A7 + 0xC]
label000018F6:
000018F6  7000                     moveq.l    D0, 0x00
000018F8  2F00                     move.l     -[A7], D0
000018FA  2F2C 0112                move.l     -[A7], [A4 + 0x112]
000018FE  4EAD 1282                jsr        [A5 + 0x1282 /* export_588, CODE:26 @ 00003A24 */]
00001902  2F2C 0112                move.l     -[A7], [A4 + 0x112]
00001906  4EAD 11EA                jsr        [A5 + 0x11EA /* export_569, CODE:26 @ 00003268 */]
0000190A  4FEF 000C                lea.l      A7, [A7 + 0xC]
label0000190E:
0000190E  4CEE 1888 FFE8           movem.l    D3,D7,A3,A4, [A6 - 0x18]
00001914  4E5E                     unlink     A6
00001916  4E75                     rts
00001918  9244 7261 775F 5F39 6... dc.b       "Draw__9cIconItemFv"
export_1007:
0000192E  4E56 FFFC                link       A6, -0x0004
00001932  48E7 1008                movem.l    -[A7], D3,A4
00001936  286E 0008                movea.l    A4, [A6 + 0x8]
0000193A  2D6E 000C FFFC           move.l     [A6 - 0x4], [A6 + 0xC]
00001940  558F                     subq.l     A7, 2
00001942  2F2E 000C                move.l     -[A7], [A6 + 0xC]
00001946  486C 0090                pea.l      [A4 + 0x90]
0000194A  A8AD                     syscall    PtInRect
0000194C  4A1F                     tst.b      [A7]+
0000194E  6700 00F2                beq        +0xF4 /* 00001A42 */
00001952  7000                     moveq.l    D0, 0x00
00001954  102C 0098                move.b     D0, [A4 + 0x98]
00001958  7208                     moveq.l    D1, 0x08
0000195A  C200                     and.b      D1, D0
0000195C  7000                     moveq.l    D0, 0x00
0000195E  1001                     move.b     D0, D1
00001960  4A80                     tst.l      D0
00001962  6700 00DE                beq        +0xE0 /* 00001A42 */
00001966  397C 0005 014E           move.w     [A4 + 0x14E], 0x5
label0000196C:
0000196C  558F                     subq.l     A7, 2
0000196E  2F2E FFFC                move.l     -[A7], [A6 - 0x4]
00001972  486C 0090                pea.l      [A4 + 0x90]
00001976  A8AD                     syscall    PtInRect
00001978  4A1F                     tst.b      [A7]+
0000197A  675C                     beq        +0x5E /* 000019D8 */
0000197C  7000                     moveq.l    D0, 0x00
0000197E  102C 0098                move.b     D0, [A4 + 0x98]
00001982  7204                     moveq.l    D1, 0x04
00001984  C200                     and.b      D1, D0
00001986  7000                     moveq.l    D0, 0x00
00001988  1001                     move.b     D0, D1
0000198A  4A80                     tst.l      D0
0000198C  56C3                     sne        D3
0000198E  4403                     neg.b      D3
00001990  49C3                     lea.l      A4, D3
00001992  2F03                     move.l     -[A7], D3
00001994  2F3C 4742 5437           move.l     -[A7], 0x47425437 /* 'GBT7' */
0000199A  204C                     movea.l    A0, A4
0000199C  226C 0060                movea.l    A1, [A4 + 0x60]
000019A0  D0E9 0060                add.w      A0, [A1 + 0x60]
000019A4  2F08                     move.l     -[A7], A0
000019A6  2049                     movea.l    A0, A1
000019A8  2268 0064                movea.l    A1, [A0 + 0x64]
000019AC  4E91                     jsr        [A1]
000019AE  4A2C 0150                tst.b      [A4 + 0x150]
000019B2  4FEF 000C                lea.l      A7, [A7 + 0xC]
000019B6  677A                     beq        +0x7C /* 00001A32 */
000019B8  2F2C 0112                move.l     -[A7], [A4 + 0x112]
000019BC  4EAD 11E2                jsr        [A5 + 0x11E2 /* export_568, CODE:26 @ 000031FA */]
000019C0  7001                     moveq.l    D0, 0x01
000019C2  2F00                     move.l     -[A7], D0
000019C4  2F0C                     move.l     -[A7], A4
000019C6  4EBA 011C                jsr        [PC + 0x11C /* 00001AE4 */]
000019CA  2F2C 0112                move.l     -[A7], [A4 + 0x112]
000019CE  4EAD 11EA                jsr        [A5 + 0x11EA /* export_569, CODE:26 @ 00003268 */]
000019D2  4FEF 0010                lea.l      A7, [A7 + 0x10]
000019D6  605A                     bra        +0x5C /* 00001A32 */
label000019D8:
000019D8  7000                     moveq.l    D0, 0x00
000019DA  102C 0098                move.b     D0, [A4 + 0x98]
000019DE  7204                     moveq.l    D1, 0x04
000019E0  C200                     and.b      D1, D0
000019E2  7000                     moveq.l    D0, 0x00
000019E4  1001                     move.b     D0, D1
000019E6  4A80                     tst.l      D0
000019E8  56C3                     sne        D3
000019EA  4403                     neg.b      D3
000019EC  49C3                     lea.l      A4, D3
000019EE  2F03                     move.l     -[A7], D3
000019F0  2F3C B8BD ABC8           move.l     -[A7], 0xB8BDABC8
000019F6  204C                     movea.l    A0, A4
000019F8  226C 0060                movea.l    A1, [A4 + 0x60]
000019FC  D0E9 0060                add.w      A0, [A1 + 0x60]
00001A00  2F08                     move.l     -[A7], A0
00001A02  2049                     movea.l    A0, A1
00001A04  2268 0064                movea.l    A1, [A0 + 0x64]
00001A08  4E91                     jsr        [A1]
00001A0A  4A2C 0150                tst.b      [A4 + 0x150]
00001A0E  4FEF 000C                lea.l      A7, [A7 + 0xC]
00001A12  671E                     beq        +0x20 /* 00001A32 */
00001A14  2F2C 0112                move.l     -[A7], [A4 + 0x112]
00001A18  4EAD 11E2                jsr        [A5 + 0x11E2 /* export_568, CODE:26 @ 000031FA */]
00001A1C  7000                     moveq.l    D0, 0x00
00001A1E  2F00                     move.l     -[A7], D0
00001A20  2F0C                     move.l     -[A7], A4
00001A22  4EBA 00C0                jsr        [PC + 0xC0 /* 00001AE4 */]
00001A26  2F2C 0112                move.l     -[A7], [A4 + 0x112]
00001A2A  4EAD 11EA                jsr        [A5 + 0x11EA /* export_569, CODE:26 @ 00003268 */]
00001A2E  4FEF 0010                lea.l      A7, [A7 + 0x10]
label00001A32:
00001A32  486E FFFC                pea.l      [A6 - 0x4]
00001A36  A972                     syscall    GetMouse
00001A38  558F                     subq.l     A7, 2
00001A3A  A974                     syscall    Button
00001A3C  4A1F                     tst.b      [A7]+
00001A3E  6600 FF2C                bne        -0xD2 /* 0000196C */
label00001A42:
00001A42  426C 014E                clr.w      [A4 + 0x14E]
00001A46  558F                     subq.l     A7, 2
00001A48  2F2E FFFC                move.l     -[A7], [A6 - 0x4]
00001A4C  486C 0090                pea.l      [A4 + 0x90]
00001A50  A8AD                     syscall    PtInRect
00001A52  4A1F                     tst.b      [A7]+
00001A54  6762                     beq        +0x64 /* 00001AB8 */
00001A56  7000                     moveq.l    D0, 0x00
00001A58  102C 0098                move.b     D0, [A4 + 0x98]
00001A5C  7208                     moveq.l    D1, 0x08
00001A5E  C200                     and.b      D1, D0
00001A60  7000                     moveq.l    D0, 0x00
00001A62  1001                     move.b     D0, D1
00001A64  4A80                     tst.l      D0
00001A66  6750                     beq        +0x52 /* 00001AB8 */
00001A68  7000                     moveq.l    D0, 0x00
00001A6A  102C 0098                move.b     D0, [A4 + 0x98]
00001A6E  7204                     moveq.l    D1, 0x04
00001A70  C200                     and.b      D1, D0
00001A72  7000                     moveq.l    D0, 0x00
00001A74  1001                     move.b     D0, D1
00001A76  4A80                     tst.l      D0
00001A78  56C3                     sne        D3
00001A7A  4403                     neg.b      D3
00001A7C  49C3                     lea.l      A4, D3
00001A7E  2F03                     move.l     -[A7], D3
00001A80  2F3C 4742 5438           move.l     -[A7], 0x47425438 /* 'GBT8' */
00001A86  204C                     movea.l    A0, A4
00001A88  226C 0060                movea.l    A1, [A4 + 0x60]
00001A8C  D0E9 0060                add.w      A0, [A1 + 0x60]
00001A90  2F08                     move.l     -[A7], A0
00001A92  2049                     movea.l    A0, A1
00001A94  2268 0064                movea.l    A1, [A0 + 0x64]
00001A98  4E91                     jsr        [A1]
00001A9A  204C                     movea.l    A0, A4
00001A9C  226C 0060                movea.l    A1, [A4 + 0x60]
00001AA0  D0E9 00F8                add.w      A0, [A1 + 0xF8]
00001AA4  2F08                     move.l     -[A7], A0
00001AA6  2049                     movea.l    A0, A1
00001AA8  2268 00FC                movea.l    A1, [A0 + 0xFC]
00001AAC  4E91                     jsr        [A1]
00001AAE  2F0C                     move.l     -[A7], A4
00001AB0  4EBA FA16                jsr        [PC - 0x5EA /* 000014C8 */]
00001AB4  4FEF 0014                lea.l      A7, [A7 + 0x14]
label00001AB8:
00001AB8  4CEE 1008 FFF4           movem.l    D3,A4, [A6 - 0xC]
00001ABE  4E5E                     unlink     A6
00001AC0  4E75                     rts
00001AC2  9F4D 6F75 7365 446F 7... dc.b       "MouseDown__9cIconItemF5PointlT2"
fn00001AE4:
00001AE4  4E56 FFFC                link       A6, -0x0004
00001AE8  48E7 0018                movem.l    -[A7], A3,A4
00001AEC  286E 0008                movea.l    A4, [A6 + 0x8]
00001AF0  2F2C 0112                move.l     -[A7], [A4 + 0x112]
00001AF4  4EAD 11E2                jsr        [A5 + 0x11E2 /* export_568, CODE:26 @ 000031FA */]
00001AF8  0CAD 0000 0200 F29A      cmpi.l     [A5 - 0xD66], 0x200
00001B00  584F                     addq.w     A7, 4
00001B02  6D0C                     blt        +0xE /* 00001B10 */
00001B04  486C 009A                pea.l      [A4 + 0x9A]
00001B08  AA14                     syscall    RGBForeColor
00001B0A  486C 00CC                pea.l      [A4 + 0xCC]
00001B0E  AA15                     syscall    RGBBackColor
label00001B10:
00001B10  4A2E 000F                tst.b      [A6 + 0xF]
00001B14  673E                     beq        +0x40 /* 00001B54 */
00001B16  4A6C 014E                tst.w      [A4 + 0x14E]
00001B1A  6708                     beq        +0xA /* 00001B24 */
00001B1C  7001                     moveq.l    D0, 0x01
00001B1E  B06C 014E                cmp.w      D0, [A4 + 0x14E]
00001B22  676C                     beq        +0x6E /* 00001B90 */
label00001B24:
00001B24  47EC 0090                lea.l      A3, [A4 + 0x90]
00001B28  3D6B 0002 FFFE           move.w     [A6 - 0x2], [A3 + 0x2]
00001B2E  3D53 FFFC                move.w     [A6 - 0x4], [A3]
00001B32  7001                     moveq.l    D0, 0x01
00001B34  2F00                     move.l     -[A7], D0
00001B36  2F2E FFFC                move.l     -[A7], [A6 - 0x4]
00001B3A  486C 012A                pea.l      [A4 + 0x12A]
00001B3E  4EAD 0192                jsr        [A5 + 0x192 /* export_46, CODE:1 @ 00002C5E */]
00001B42  4A6C 014E                tst.w      [A4 + 0x14E]
00001B46  4FEF 000C                lea.l      A7, [A7 + 0xC]
00001B4A  6744                     beq        +0x46 /* 00001B90 */
00001B4C  397C 0001 014E           move.w     [A4 + 0x14E], 0x1
00001B52  603C                     bra        +0x3E /* 00001B90 */
label00001B54:
00001B54  4A6C 014E                tst.w      [A4 + 0x14E]
00001B58  6708                     beq        +0xA /* 00001B62 */
00001B5A  7002                     moveq.l    D0, 0x02
00001B5C  B06C 014E                cmp.w      D0, [A4 + 0x14E]
00001B60  672E                     beq        +0x30 /* 00001B90 */
label00001B62:
00001B62  47EC 0090                lea.l      A3, [A4 + 0x90]
00001B66  3D6B 0002 FFFE           move.w     [A6 - 0x2], [A3 + 0x2]
00001B6C  3D53 FFFC                move.w     [A6 - 0x4], [A3]
00001B70  7001                     moveq.l    D0, 0x01
00001B72  2F00                     move.l     -[A7], D0
00001B74  2F2E FFFC                move.l     -[A7], [A6 - 0x4]
00001B78  486C 012A                pea.l      [A4 + 0x12A]
00001B7C  4EAD 018A                jsr        [A5 + 0x18A /* export_45, CODE:1 @ 00002B88 */]
00001B80  4A6C 014E                tst.w      [A4 + 0x14E]
00001B84  4FEF 000C                lea.l      A7, [A7 + 0xC]
00001B88  6706                     beq        +0x8 /* 00001B90 */
00001B8A  397C 0002 014E           move.w     [A4 + 0x14E], 0x2
label00001B90:
00001B90  2F2C 0112                move.l     -[A7], [A4 + 0x112]
00001B94  4EAD 11EA                jsr        [A5 + 0x11EA /* export_569, CODE:26 @ 00003268 */]
00001B98  584F                     addq.w     A7, 4
00001B9A  4CEE 1800 FFF4           movem.l    A3,A4, [A6 - 0xC]
00001BA0  4E5E                     unlink     A6
00001BA2  4E75                     rts
00001BA4  9D52 6561 6C54 696D 6... dc.b       "RealTimeUpdate__9cIconItemFUc"
export_1008:
00001BC4  4E56 0000                link       A6, 0
00001BC8  4E5E                     unlink     A6
00001BCA  4E75                     rts
00001BCC  9A57 6547 6F74 546F 7... dc.b       "WeGotTouched__9cIconItemFv"
export_1009:
00001BEA  4E56 0000                link       A6, 0
00001BEE  2F0C                     move.l     -[A7], A4
00001BF0  286E 0008                movea.l    A4, [A6 + 0x8]
00001BF4  302E 000E                move.w     D0, [A6 + 0xE]
00001BF8  48C0                     ext.l      D0
00001BFA  2F00                     move.l     -[A7], D0
00001BFC  486C 012A                pea.l      [A4 + 0x12A]
00001C00  4EAD 0182                jsr        [A5 + 0x182 /* export_44, CODE:1 @ 00002AAE */]
00001C04  204C                     movea.l    A0, A4
00001C06  226C 0060                movea.l    A1, [A4 + 0x60]
00001C0A  D0E9 00E8                add.w      A0, [A1 + 0xE8]
00001C0E  2F08                     move.l     -[A7], A0
00001C10  2049                     movea.l    A0, A1
00001C12  2268 00EC                movea.l    A1, [A0 + 0xEC]
00001C16  4E91                     jsr        [A1]
00001C18  286E FFFC                movea.l    A4, [A6 - 0x4]
00001C1C  4E5E                     unlink     A6
00001C1E  4E75                     rts
00001C20  9753 6574 4963 6F6E 4... dc.b       "SetIconID__9cIconItemFs"
export_1010:
00001C3A  4E56 0000                link       A6, 0
00001C3E  2F07                     move.l     -[A7], D7
00001C40  2E2E 000C                move.l     D7, [A6 + 0xC]
00001C44  2007                     move.l     D0, D7
00001C46  2F2E 0014                move.l     -[A7], [A6 + 0x14]
00001C4A  2F2E 0010                move.l     -[A7], [A6 + 0x10]
00001C4E  2F07                     move.l     -[A7], D7
00001C50  2F2E 0008                move.l     -[A7], [A6 + 0x8]
00001C54  4EAD 14C2                jsr        [A5 + 0x14C2 /* export_660, CODE:32 @ 00000440 */]
00001C58  4FEF 0010                lea.l      A7, [A7 + 0x10]
00001C5C  2E2E FFFC                move.l     D7, [A6 - 0x4]
00001C60  4E5E                     unlink     A6
00001C62  4E75                     rts
00001C64  8026 4861 7342 6565 6... dc.b       "HasBeenAChange__9cIconItemFlP6cAgentPc"
export_1011:
fn00001C8E:
00001C8E  4E56 0000                link       A6, 0
00001C92  48E7 1018                movem.l    -[A7], D3,A3,A4
00001C96  266E 000C                movea.l    A3, [A6 + 0xC]
00001C9A  286E 0008                movea.l    A4, [A6 + 0x8]
00001C9E  200C                     move.l     D0, A4
00001CA0  6612                     bne        +0x14 /* 00001CB4 */
00001CA2  4878 01D0                push.l     0x1D0
00001CA6  4EAD 010A                jsr        [A5 + 0x10A /* export_29, CODE:1 @ 00001C0A */]
00001CAA  2840                     movea.l    A4, D0
00001CAC  200C                     move.l     D0, A4
00001CAE  584F                     addq.w     A7, 4
00001CB0  6700 00C8                beq        +0xCA /* 00001D7A */
label00001CB4:
00001CB4  200B                     move.l     D0, A3
00001CB6  57C3                     seq        D3
00001CB8  4403                     neg.b      D3
00001CBA  6748                     beq        +0x4A /* 00001D04 */
00001CBC  264C                     movea.l    A3, A4
00001CBE  47EB 01C4                lea.l      A3, [A3 + 0x1C4]
00001CC2  7601                     moveq.l    D3, 0x01
00001CC4  200C                     move.l     D0, A4
00001CC6  D0BC 0000 01C4           add.l      D0, 0x1C4
00001CCC  6614                     bne        +0x16 /* 00001CE2 */
00001CCE  2F03                     move.l     -[A7], D3
00001CD0  700C                     moveq.l    D0, 0x0C
00001CD2  2F00                     move.l     -[A7], D0
00001CD4  4EAD 010A                jsr        [A5 + 0x10A /* export_29, CODE:1 @ 00001C0A */]
00001CD8  588F                     addq.l     A7, 4
00001CDA  261F                     move.l     D3, [A7]+
00001CDC  4A80                     tst.l      D0
00001CDE  6602                     bne        +0x4 /* 00001CE2 */
00001CE0  7600                     moveq.l    D3, 0x00
label00001CE2:
00001CE2  4A03                     tst.b      D3
00001CE4  6712                     beq        +0x14 /* 00001CF8 */
00001CE6  296D F4A0 01CC           move.l     [A4 + 0x1CC], [A5 - 0xB60]
00001CEC  7000                     moveq.l    D0, 0x00
00001CEE  2940 01C4                move.l     [A4 + 0x1C4], D0
00001CF2  2940 01C8                move.l     [A4 + 0x1C8], D0
00001CF6  6002                     bra        +0x4 /* 00001CFA */
label00001CF8:
00001CF8  7000                     moveq.l    D0, 0x00
label00001CFA:
00001CFA  200C                     move.l     D0, A4
00001CFC  D0BC 0000 01C4           add.l      D0, 0x1C4
00001D02  6002                     bra        +0x4 /* 00001D06 */
label00001D04:
00001D04  200B                     move.l     D0, A3
label00001D06:
00001D06  2F2E 0018                move.l     -[A7], [A6 + 0x18]
00001D0A  2F2E 0014                move.l     -[A7], [A6 + 0x14]
00001D0E  2F2E 0010                move.l     -[A7], [A6 + 0x10]
00001D12  2F0B                     move.l     -[A7], A3
00001D14  2F0C                     move.l     -[A7], A4
00001D16  4EBA F0B6                jsr        [PC - 0xF4A /* 00000DCE */]
00001D1A  296D F4A4 0060           move.l     [A4 + 0x60], [A5 - 0xB5C]
00001D20  206C 0064                movea.l    A0, [A4 + 0x64]
00001D24  216D F4A8 0008           move.l     [A0 + 0x8], [A5 - 0xB58]
00001D2A  296D F4AC 0070           move.l     [A4 + 0x70], [A5 - 0xB54]
00001D30  296D F4B0 0088           move.l     [A4 + 0x88], [A5 - 0xB50]
00001D36  2F3C 0100 000D           move.l     -[A7], 0x100000D
00001D3C  7000                     moveq.l    D0, 0x00
00001D3E  2F00                     move.l     -[A7], D0
00001D40  486C 012A                pea.l      [A4 + 0x12A]
00001D44  4EAD 15AA                jsr        [A5 + 0x15AA /* export_689, CODE:32 @ 0000234A */]
00001D48  2F3C 0100 000F           move.l     -[A7], 0x100000F
00001D4E  7000                     moveq.l    D0, 0x00
00001D50  2F00                     move.l     -[A7], D0
00001D52  486C 015C                pea.l      [A4 + 0x15C]
00001D56  4EAD 15AA                jsr        [A5 + 0x15AA /* export_689, CODE:32 @ 0000234A */]
00001D5A  7000                     moveq.l    D0, 0x00
00001D5C  2F00                     move.l     -[A7], D0
00001D5E  486C 018E                pea.l      [A4 + 0x18E]
00001D62  4EAD 15BA                jsr        [A5 + 0x15BA /* export_691, CODE:32 @ 000025FA */]
00001D66  197C 0001 01C0           move.b     [A4 + 0x1C0], 0x1
00001D6C  197C 0001 01C1           move.b     [A4 + 0x1C1], 0x1
00001D72  422C 01C2                clr.b      [A4 + 0x1C2]
00001D76  4FEF 0034                lea.l      A7, [A7 + 0x34]
label00001D7A:
00001D7A  200C                     move.l     D0, A4
00001D7C  4CEE 1808 FFF4           movem.l    D3,A3,A4, [A6 - 0xC]
00001D82  4E5E                     unlink     A6
00001D84  4E75                     rts
00001D86  8033 5F5F 6374 5F5F 3... dc.b       "__ct__19cNiftyRectangleItemFP6cAgentP7cWindowR4Rect"
fn00001DBE:
00001DBE  4E56 0000                link       A6, 0
00001DC2  48E7 0108                movem.l    -[A7], D7,A4
00001DC6  1E2E 000F                move.b     D7, [A6 + 0xF]
00001DCA  286E 0008                movea.l    A4, [A6 + 0x8]
00001DCE  BE2C 01C0                cmp.b      D7, [A4 + 0x1C0]
00001DD2  6728                     beq        +0x2A /* 00001DFC */
00001DD4  4A07                     tst.b      D7
00001DD6  670E                     beq        +0x10 /* 00001DE6 */
00001DD8  486C 0090                pea.l      [A4 + 0x90]
00001DDC  7002                     moveq.l    D0, 0x02
00001DDE  3F00                     move.w     -[A7], D0
00001DE0  3F00                     move.w     -[A7], D0
00001DE2  A8A9                     syscall    InsetRect
00001DE4  600C                     bra        +0xE /* 00001DF2 */
label00001DE6:
00001DE6  486C 0090                pea.l      [A4 + 0x90]
00001DEA  70FE                     moveq.l    D0, 0xFFFFFFFE
00001DEC  3F00                     move.w     -[A7], D0
00001DEE  3F00                     move.w     -[A7], D0
00001DF0  A8A9                     syscall    InsetRect
label00001DF2:
00001DF2  2F2C 0102                move.l     -[A7], [A4 + 0x102]
00001DF6  486C 0090                pea.l      [A4 + 0x90]
00001DFA  A8DF                     syscall    RectRgn
label00001DFC:
00001DFC  1947 01C0                move.b     [A4 + 0x1C0], D7
00001E00  4CEE 1080 FFF8           movem.l    D7,A4, [A6 - 0x8]
00001E06  4E5E                     unlink     A6
00001E08  4E75                     rts
00001E0A  8023 5368 6F77 4672 6... dc.b       "ShowFrame__19cNiftyRectangleItemFUc"
export_1012:
00001E32  4E56 0000                link       A6, 0
00001E36  2F0C                     move.l     -[A7], A4
00001E38  286E 0008                movea.l    A4, [A6 + 0x8]
00001E3C  2F0C                     move.l     -[A7], A4
00001E3E  4EBA 0080                jsr        [PC + 0x80 /* 00001EC0 */]
00001E42  486C 0080                pea.l      [A4 + 0x80]
00001E46  4EAD 1C32                jsr        [A5 + 0x1C32 /* export_898, CODE:36 @ 000004C0 */]
00001E4A  286E FFFC                movea.l    A4, [A6 - 0x4]
00001E4E  4E5E                     unlink     A6
00001E50  4E75                     rts
00001E52  8021 4163 7469 7661 7... dc.b       "Activate__19cNiftyRectangleItemFv"
export_1013:
00001E78  4E56 0000                link       A6, 0
00001E7C  2F0C                     move.l     -[A7], A4
00001E7E  286E 0008                movea.l    A4, [A6 + 0x8]
00001E82  2F0C                     move.l     -[A7], A4
00001E84  4EBA 0126                jsr        [PC + 0x126 /* 00001FAC */]
00001E88  486C 0080                pea.l      [A4 + 0x80]
00001E8C  4EAD 1C9A                jsr        [A5 + 0x1C9A /* export_911, CODE:36 @ 000007FC */]
00001E90  286E FFFC                movea.l    A4, [A6 - 0x4]
00001E94  4E5E                     unlink     A6
00001E96  4E75                     rts
00001E98  8023 4465 6163 7469 7... dc.b       "Deactivate__19cNiftyRectangleItemFv"
fn00001EC0:
00001EC0  4E56 FFF2                link       A6, -0x000E
00001EC4  2F0C                     move.l     -[A7], A4
00001EC6  286E 0008                movea.l    A4, [A6 + 0x8]
00001ECA  4A2C 01C0                tst.b      [A4 + 0x1C0]
00001ECE  6700 00A6                beq        +0xA8 /* 00001F76 */
00001ED2  2F2C 0112                move.l     -[A7], [A4 + 0x112]
00001ED6  4EAD 11E2                jsr        [A5 + 0x11E2 /* export_568, CODE:26 @ 000031FA */]
00001EDA  41EE FFF8                lea.l      A0, [A6 - 0x8]
00001EDE  43EC 0090                lea.l      A1, [A4 + 0x90]
00001EE2  20D9                     move.l     [A0]+, [A1]+
00001EE4  20D9                     move.l     [A0]+, [A1]+
00001EE6  486E FFF8                pea.l      [A6 - 0x8]
00001EEA  70FD                     moveq.l    D0, 0xFFFFFFFD
00001EEC  3F00                     move.w     -[A7], D0
00001EEE  3F00                     move.w     -[A7], D0
00001EF0  A8A9                     syscall    InsetRect
00001EF2  4A2C 01C2                tst.b      [A4 + 0x1C2]
00001EF6  584F                     addq.w     A7, 4
00001EF8  6632                     bne        +0x34 /* 00001F2C */
00001EFA  0CAD 0000 0200 F29A      cmpi.l     [A5 - 0xD66], 0x200
00001F02  6D28                     blt        +0x2A /* 00001F2C */
00001F04  302E FFFA                move.w     D0, [A6 - 0x6]
00001F08  5240                     addq.w     D0, 1
00001F0A  3F00                     move.w     -[A7], D0
00001F0C  302E FFF8                move.w     D0, [A6 - 0x8]
00001F10  5240                     addq.w     D0, 1
00001F12  3F00                     move.w     -[A7], D0
00001F14  486E FFF2                pea.l      [A6 - 0xE]
00001F18  AA17                     syscall    GetCPixel
00001F1A  41EE FFF2                lea.l      A0, [A6 - 0xE]
00001F1E  43EC 018E                lea.l      A1, [A4 + 0x18E]
00001F22  22D8                     move.l     [A1]+, [A0]+
00001F24  32D8                     move.w     [A1]+, [A0]+
00001F26  197C 0001 01C2           move.b     [A4 + 0x1C2], 0x1
label00001F2C:
00001F2C  486E FFF8                pea.l      [A6 - 0x8]
00001F30  2F0C                     move.l     -[A7], A4
00001F32  4EBA F622                jsr        [PC - 0x9DE /* 00001556 */]
00001F36  0CAD 0000 0200 F29A      cmpi.l     [A5 - 0xD66], 0x200
00001F3E  504F                     addq.w     A7, 8
00001F40  6D06                     blt        +0x8 /* 00001F48 */
00001F42  486C 009A                pea.l      [A4 + 0x9A]
00001F46  AA14                     syscall    RGBForeColor
label00001F48:
00001F48  486E FFF8                pea.l      [A6 - 0x8]
00001F4C  A8A1                     syscall    FrameRect
00001F4E  486E FFF8                pea.l      [A6 - 0x8]
00001F52  7001                     moveq.l    D0, 0x01
00001F54  3F00                     move.w     -[A7], D0
00001F56  3F00                     move.w     -[A7], D0
00001F58  A8A9                     syscall    InsetRect
00001F5A  486E FFF8                pea.l      [A6 - 0x8]
00001F5E  A8A1                     syscall    FrameRect
00001F60  7000                     moveq.l    D0, 0x00
00001F62  2F00                     move.l     -[A7], D0
00001F64  2F0C                     move.l     -[A7], A4
00001F66  4EBA F6AA                jsr        [PC - 0x956 /* 00001612 */]
00001F6A  2F2C 0112                move.l     -[A7], [A4 + 0x112]
00001F6E  4EAD 11EA                jsr        [A5 + 0x11EA /* export_569, CODE:26 @ 00003268 */]
00001F72  4FEF 000C                lea.l      A7, [A7 + 0xC]
label00001F76:
00001F76  286E FFEE                movea.l    A4, [A6 - 0x12]
00001F7A  4E5E                     unlink     A6
00001F7C  4E75                     rts
00001F7E  802A 4472 6177 4E69 6... dc.b       "DrawNiftyFocusBox__19cNiftyRectangleItemFv"
fn00001FAC:
00001FAC  4E56 FFF8                link       A6, -0x0008
00001FB0  2F0C                     move.l     -[A7], A4
00001FB2  286E 0008                movea.l    A4, [A6 + 0x8]
00001FB6  4A2C 01C0                tst.b      [A4 + 0x1C0]
00001FBA  6700 0084                beq        +0x86 /* 00002040 */
00001FBE  4A2C 01C2                tst.b      [A4 + 0x1C2]
00001FC2  677C                     beq        +0x7E /* 00002040 */
00001FC4  2F2C 0112                move.l     -[A7], [A4 + 0x112]
00001FC8  4EAD 11E2                jsr        [A5 + 0x11E2 /* export_568, CODE:26 @ 000031FA */]
00001FCC  41EE FFF8                lea.l      A0, [A6 - 0x8]
00001FD0  43EC 0090                lea.l      A1, [A4 + 0x90]
00001FD4  20D9                     move.l     [A0]+, [A1]+
00001FD6  20D9                     move.l     [A0]+, [A1]+
00001FD8  486E FFF8                pea.l      [A6 - 0x8]
00001FDC  70FD                     moveq.l    D0, 0xFFFFFFFD
00001FDE  3F00                     move.w     -[A7], D0
00001FE0  3F00                     move.w     -[A7], D0
00001FE2  A8A9                     syscall    InsetRect
00001FE4  486E FFF8                pea.l      [A6 - 0x8]
00001FE8  2F0C                     move.l     -[A7], A4
00001FEA  4EBA F56A                jsr        [PC - 0xA96 /* 00001556 */]
00001FEE  0CAD 0000 0200 F29A      cmpi.l     [A5 - 0xD66], 0x200
00001FF6  4FEF 000C                lea.l      A7, [A7 + 0xC]
00001FFA  6D06                     blt        +0x8 /* 00002002 */
00001FFC  486C 018E                pea.l      [A4 + 0x18E]
00002000  AA14                     syscall    RGBForeColor
label00002002:
00002002  486E FFF8                pea.l      [A6 - 0x8]
00002006  A8A1                     syscall    FrameRect
00002008  486E FFF8                pea.l      [A6 - 0x8]
0000200C  7001                     moveq.l    D0, 0x01
0000200E  3F00                     move.w     -[A7], D0
00002010  3F00                     move.w     -[A7], D0
00002012  A8A9                     syscall    InsetRect
00002014  486E FFF8                pea.l      [A6 - 0x8]
00002018  A8A1                     syscall    FrameRect
0000201A  7000                     moveq.l    D0, 0x00
0000201C  2F00                     move.l     -[A7], D0
0000201E  2F0C                     move.l     -[A7], A4
00002020  4EBA F5F0                jsr        [PC - 0xA10 /* 00001612 */]
00002024  0CAD 0000 0200 F29A      cmpi.l     [A5 - 0xD66], 0x200
0000202C  504F                     addq.w     A7, 8
0000202E  6D06                     blt        +0x8 /* 00002036 */
00002030  486C 009A                pea.l      [A4 + 0x9A]
00002034  AA14                     syscall    RGBForeColor
label00002036:
00002036  2F2C 0112                move.l     -[A7], [A4 + 0x112]
0000203A  4EAD 11EA                jsr        [A5 + 0x11EA /* export_569, CODE:26 @ 00003268 */]
0000203E  584F                     addq.w     A7, 4
label00002040:
00002040  286E FFF4                movea.l    A4, [A6 - 0xC]
00002044  4E5E                     unlink     A6
00002046  4E75                     rts
00002048  802C 556E 4472 6177 4... dc.b       "UnDrawNiftyFocusBox__19cNiftyRectangleItemFv"
export_1014:
00002078  4E56 0000                link       A6, 0
0000207C  48E7 0118                movem.l    -[A7], D7,A3,A4
00002080  266E 000C                movea.l    A3, [A6 + 0xC]
00002084  286E 0008                movea.l    A4, [A6 + 0x8]
00002088  2F0B                     move.l     -[A7], A3
0000208A  486C 0080                pea.l      [A4 + 0x80]
0000208E  4EAD 1C2A                jsr        [A5 + 0x1C2A /* export_897, CODE:36 @ 0000043E */]
00002092  4247                     clr.w      D7
00002094  504F                     addq.w     A7, 8
00002096  6038                     bra        +0x3A /* 000020D0 */
label00002098:
00002098  48C7                     ext.l      D7
0000209A  2053                     movea.l    A0, [A3]
0000209C  3030 7E08                move.w     D0, [A0 + D7 * 8 + 0x8]
000020A0  5140                     subq.w     D0, 8
000020A2  6706                     beq        +0x8 /* 000020AA */
000020A4  5340                     subq.w     D0, 1
000020A6  6714                     beq        +0x16 /* 000020BC */
000020A8  6022                     bra        +0x24 /* 000020CC */
label000020AA:
000020AA  48C7                     ext.l      D7
000020AC  2053                     movea.l    A0, [A3]
000020AE  41F0 7E0A                lea.l      A0, [A0 + D7 * 8 + 0xA]
000020B2  43EC 012A                lea.l      A1, [A4 + 0x12A]
000020B6  22D8                     move.l     [A1]+, [A0]+
000020B8  32D8                     move.w     [A1]+, [A0]+
000020BA  6010                     bra        +0x12 /* 000020CC */
label000020BC:
000020BC  48C7                     ext.l      D7
000020BE  2053                     movea.l    A0, [A3]
000020C0  41F0 7E0A                lea.l      A0, [A0 + D7 * 8 + 0xA]
000020C4  43EC 015C                lea.l      A1, [A4 + 0x15C]
000020C8  22D8                     move.l     [A1]+, [A0]+
000020CA  32D8                     move.w     [A1]+, [A0]+
label000020CC:
000020CC  3007                     move.w     D0, D7
000020CE  5247                     addq.w     D7, 1
label000020D0:
000020D0  2053                     movea.l    A0, [A3]
000020D2  BE68 0006                cmp.w      D7, [A0 + 0x6]
000020D6  6FC0                     ble        -0x3E /* 00002098 */
000020D8  4CEE 1880 FFF4           movem.l    D7,A3,A4, [A6 - 0xC]
000020DE  4E5E                     unlink     A6
000020E0  4E75                     rts
000020E2  802A 5365 7443 6F6C 6... dc.b       "SetColor__19cNiftyRectangleItemFPP7CtlCTab"
export_1015:
fn00002110:
00002110  4E56 0000                link       A6, 0
00002114  48E7 0108                movem.l    -[A7], D7,A4
00002118  2E2E 000C                move.l     D7, [A6 + 0xC]
0000211C  286E 0008                movea.l    A4, [A6 + 0x8]
00002120  200C                     move.l     D0, A4
00002122  6700 0082                beq        +0x84 /* 000021A6 */
00002126  296D F4B0 0088           move.l     [A4 + 0x88], [A5 - 0xB50]
0000212C  296D F4AC 0070           move.l     [A4 + 0x70], [A5 - 0xB54]
00002132  206C 0064                movea.l    A0, [A4 + 0x64]
00002136  216D F4A8 0008           move.l     [A0 + 0x8], [A5 - 0xB58]
0000213C  296D F4A4 0060           move.l     [A4 + 0x60], [A5 - 0xB5C]
00002142  200C                     move.l     D0, A4
00002144  6760                     beq        +0x62 /* 000021A6 */
00002146  7002                     moveq.l    D0, 0x02
00002148  2F00                     move.l     -[A7], D0
0000214A  486C 018E                pea.l      [A4 + 0x18E]
0000214E  4EAD 15D2                jsr        [A5 + 0x15D2 /* export_694, CODE:32 @ 000029D6 */]
00002152  7002                     moveq.l    D0, 0x02
00002154  2F00                     move.l     -[A7], D0
00002156  486C 015C                pea.l      [A4 + 0x15C]
0000215A  4EAD 15D2                jsr        [A5 + 0x15D2 /* export_694, CODE:32 @ 000029D6 */]
0000215E  7002                     moveq.l    D0, 0x02
00002160  2F00                     move.l     -[A7], D0
00002162  486C 012A                pea.l      [A4 + 0x12A]
00002166  4EAD 15D2                jsr        [A5 + 0x15D2 /* export_694, CODE:32 @ 000029D6 */]
0000216A  7000                     moveq.l    D0, 0x00
0000216C  2F00                     move.l     -[A7], D0
0000216E  2F0C                     move.l     -[A7], A4
00002170  4EBA EDB4                jsr        [PC - 0x124C /* 00000F26 */]
00002174  7002                     moveq.l    D0, 0x02
00002176  C087                     and.l      D0, D7
00002178  6718                     beq        +0x1A /* 00002192 */
0000217A  7000                     moveq.l    D0, 0x00
0000217C  2F00                     move.l     -[A7], D0
0000217E  220C                     move.l     D1, A4
00002180  D2BC 0000 01C4           add.l      D1, 0x1C4
00002186  2F01                     move.l     -[A7], D1
00002188  4EAD 1632                jsr        [A5 + 0x1632 /* export_706, CODE:32 @ 000036CC */]
0000218C  7000                     moveq.l    D0, 0x00
0000218E  504F                     addq.w     A7, 8
00002190  6002                     bra        +0x4 /* 00002194 */
label00002192:
00002192  7000                     moveq.l    D0, 0x00
label00002194:
00002194  0807 0000                btst.b     D7, 0x0
00002198  4FEF 0020                lea.l      A7, [A7 + 0x20]
0000219C  6708                     beq        +0xA /* 000021A6 */
0000219E  2F0C                     move.l     -[A7], A4
000021A0  4EAD 0102                jsr        [A5 + 0x102 /* export_28, CODE:1 @ 00001BE0 */]
000021A4  584F                     addq.w     A7, 4
label000021A6:
000021A6  4CEE 1080 FFF8           movem.l    D7,A4, [A6 - 0x8]
000021AC  4E5E                     unlink     A6
000021AE  4E75                     rts
000021B0  9D5F 5F64 745F 5F31 3... dc.b       "__dt__19cNiftyRectangleItemFv"
export_1016:
fn000021D0:
000021D0  4E56 FFF8                link       A6, -0x0008
000021D4  2F0C                     move.l     -[A7], A4
000021D6  286E 0008                movea.l    A4, [A6 + 0x8]
000021DA  7000                     moveq.l    D0, 0x00
000021DC  102C 0098                move.b     D0, [A4 + 0x98]
000021E0  7201                     moveq.l    D1, 0x01
000021E2  C200                     and.b      D1, D0
000021E4  7000                     moveq.l    D0, 0x00
000021E6  1001                     move.b     D0, D1
000021E8  4A80                     tst.l      D0
000021EA  6600 00F4                bne        +0xF6 /* 000022E0 */
000021EE  2F2C 0112                move.l     -[A7], [A4 + 0x112]
000021F2  4EAD 11E2                jsr        [A5 + 0x11E2 /* export_568, CODE:26 @ 000031FA */]
000021F6  7000                     moveq.l    D0, 0x00
000021F8  102C 0098                move.b     D0, [A4 + 0x98]
000021FC  7208                     moveq.l    D1, 0x08
000021FE  C200                     and.b      D1, D0
00002200  7000                     moveq.l    D0, 0x00
00002202  1001                     move.b     D0, D1
00002204  4A80                     tst.l      D0
00002206  584F                     addq.w     A7, 4
00002208  6708                     beq        +0xA /* 00002212 */
0000220A  2F0C                     move.l     -[A7], A4
0000220C  4EBA FCB2                jsr        [PC - 0x34E /* 00001EC0 */]
00002210  584F                     addq.w     A7, 4
label00002212:
00002212  41EE FFF8                lea.l      A0, [A6 - 0x8]
00002216  43EC 0090                lea.l      A1, [A4 + 0x90]
0000221A  20D9                     move.l     [A0]+, [A1]+
0000221C  20D9                     move.l     [A0]+, [A1]+
0000221E  0CAD 0000 0200 F29A      cmpi.l     [A5 - 0xD66], 0x200
00002226  6D0C                     blt        +0xE /* 00002234 */
00002228  486C 009A                pea.l      [A4 + 0x9A]
0000222C  AA14                     syscall    RGBForeColor
0000222E  486C 00CC                pea.l      [A4 + 0xCC]
00002232  AA15                     syscall    RGBBackColor
label00002234:
00002234  4A2C 01C0                tst.b      [A4 + 0x1C0]
00002238  6700 009C                beq        +0x9E /* 000022D6 */
0000223C  486E FFF8                pea.l      [A6 - 0x8]
00002240  A8A1                     syscall    FrameRect
00002242  4A2C 01C1                tst.b      [A4 + 0x1C1]
00002246  6700 008E                beq        +0x90 /* 000022D6 */
0000224A  486E FFF8                pea.l      [A6 - 0x8]
0000224E  7001                     moveq.l    D0, 0x01
00002250  3F00                     move.w     -[A7], D0
00002252  3F00                     move.w     -[A7], D0
00002254  A8A9                     syscall    InsetRect
00002256  0CAD 0000 0200 F29A      cmpi.l     [A5 - 0xD66], 0x200
0000225E  6D06                     blt        +0x8 /* 00002266 */
00002260  486C 015C                pea.l      [A4 + 0x15C]
00002264  AA14                     syscall    RGBForeColor
label00002266:
00002266  3F2E FFFA                move.w     -[A7], [A6 - 0x6]
0000226A  302E FFFC                move.w     D0, [A6 - 0x4]
0000226E  5340                     subq.w     D0, 1
00002270  3F00                     move.w     -[A7], D0
00002272  A893                     syscall    MoveTo
00002274  2F2E FFF8                move.l     -[A7], [A6 - 0x8]
00002278  A891                     syscall    LineTo
0000227A  302E FFFE                move.w     D0, [A6 - 0x2]
0000227E  5340                     subq.w     D0, 1
00002280  3F00                     move.w     -[A7], D0
00002282  3F2E FFF8                move.w     -[A7], [A6 - 0x8]
00002286  A891                     syscall    LineTo
00002288  0CAD 0000 0200 F29A      cmpi.l     [A5 - 0xD66], 0x200
00002290  6D06                     blt        +0x8 /* 00002298 */
00002292  486C 012A                pea.l      [A4 + 0x12A]
00002296  AA14                     syscall    RGBForeColor
label00002298:
00002298  302E FFFE                move.w     D0, [A6 - 0x2]
0000229C  5340                     subq.w     D0, 1
0000229E  3F00                     move.w     -[A7], D0
000022A0  3F2E FFF8                move.w     -[A7], [A6 - 0x8]
000022A4  A893                     syscall    MoveTo
000022A6  302E FFFE                move.w     D0, [A6 - 0x2]
000022AA  5340                     subq.w     D0, 1
000022AC  3F00                     move.w     -[A7], D0
000022AE  302E FFFC                move.w     D0, [A6 - 0x4]
000022B2  5340                     subq.w     D0, 1
000022B4  3F00                     move.w     -[A7], D0
000022B6  A891                     syscall    LineTo
000022B8  3F2E FFFA                move.w     -[A7], [A6 - 0x6]
000022BC  302E FFFC                move.w     D0, [A6 - 0x4]
000022C0  5340                     subq.w     D0, 1
000022C2  3F00                     move.w     -[A7], D0
000022C4  A891                     syscall    LineTo
000022C6  0CAD 0000 0200 F29A      cmpi.l     [A5 - 0xD66], 0x200
000022CE  6D06                     blt        +0x8 /* 000022D6 */
000022D0  486C 009A                pea.l      [A4 + 0x9A]
000022D4  AA14                     syscall    RGBForeColor
label000022D6:
000022D6  2F2C 0112                move.l     -[A7], [A4 + 0x112]
000022DA  4EAD 11EA                jsr        [A5 + 0x11EA /* export_569, CODE:26 @ 00003268 */]
000022DE  584F                     addq.w     A7, 4
label000022E0:
000022E0  286E FFF4                movea.l    A4, [A6 - 0xC]
000022E4  4E5E                     unlink     A6
000022E6  4E75                     rts
000022E8  9D44 7261 775F 5F31 3... dc.b       "Draw__19cNiftyRectangleItemFv"
export_1017:
00002308  4E56 FEF8                link       A6, -0x0108
0000230C  48E7 1318                movem.l    -[A7], D3,D6,D7,A3,A4
00002310  3C2E 0032                move.w     D6, [A6 + 0x32]
00002314  3E2E 0022                move.w     D7, [A6 + 0x22]
00002318  266E 000C                movea.l    A3, [A6 + 0xC]
0000231C  286E 0008                movea.l    A4, [A6 + 0x8]
00002320  200C                     move.l     D0, A4
00002322  6612                     bne        +0x14 /* 00002336 */
00002324  4878 028E                push.l     0x28E
00002328  4EAD 010A                jsr        [A5 + 0x10A /* export_29, CODE:1 @ 00001C0A */]
0000232C  2840                     movea.l    A4, D0
0000232E  200C                     move.l     D0, A4
00002330  584F                     addq.w     A7, 4
00002332  6700 02B6                beq        +0x2B8 /* 000025EA */
label00002336:
00002336  200B                     move.l     D0, A3
00002338  57C3                     seq        D3
0000233A  4403                     neg.b      D3
0000233C  6748                     beq        +0x4A /* 00002386 */
0000233E  264C                     movea.l    A3, A4
00002340  47EB 0282                lea.l      A3, [A3 + 0x282]
00002344  7601                     moveq.l    D3, 0x01
00002346  200C                     move.l     D0, A4
00002348  D0BC 0000 0282           add.l      D0, 0x282
0000234E  6614                     bne        +0x16 /* 00002364 */
00002350  2F03                     move.l     -[A7], D3
00002352  700C                     moveq.l    D0, 0x0C
00002354  2F00                     move.l     -[A7], D0
00002356  4EAD 010A                jsr        [A5 + 0x10A /* export_29, CODE:1 @ 00001C0A */]
0000235A  588F                     addq.l     A7, 4
0000235C  261F                     move.l     D3, [A7]+
0000235E  4A80                     tst.l      D0
00002360  6602                     bne        +0x4 /* 00002364 */
00002362  7600                     moveq.l    D3, 0x00
label00002364:
00002364  4A03                     tst.b      D3
00002366  6712                     beq        +0x14 /* 0000237A */
00002368  296D F79E 028A           move.l     [A4 + 0x28A], [A5 - 0x862]
0000236E  7000                     moveq.l    D0, 0x00
00002370  2940 0282                move.l     [A4 + 0x282], D0
00002374  2940 0286                move.l     [A4 + 0x286], D0
00002378  6002                     bra        +0x4 /* 0000237C */
label0000237A:
0000237A  7000                     moveq.l    D0, 0x00
label0000237C:
0000237C  200C                     move.l     D0, A4
0000237E  D0BC 0000 0282           add.l      D0, 0x282
00002384  6002                     bra        +0x4 /* 00002388 */
label00002386:
00002386  200B                     move.l     D0, A3
label00002388:
00002388  2F2E 0018                move.l     -[A7], [A6 + 0x18]
0000238C  2F2E 0014                move.l     -[A7], [A6 + 0x14]
00002390  2F2E 0010                move.l     -[A7], [A6 + 0x10]
00002394  2F0B                     move.l     -[A7], A3
00002396  2F0C                     move.l     -[A7], A4
00002398  4EBA EA34                jsr        [PC - 0x15CC /* 00000DCE */]
0000239C  296D F7A2 0060           move.l     [A4 + 0x60], [A5 - 0x85E]
000023A2  206C 0064                movea.l    A0, [A4 + 0x64]
000023A6  216D F7A6 0008           move.l     [A0 + 0x8], [A5 - 0x85A]
000023AC  296D F7AA 0070           move.l     [A4 + 0x70], [A5 - 0x856]
000023B2  296D F7AE 0088           move.l     [A4 + 0x88], [A5 - 0x852]
000023B8  2F3C 0100 000F           move.l     -[A7], 0x100000F
000023BE  7000                     moveq.l    D0, 0x00
000023C0  2F00                     move.l     -[A7], D0
000023C2  486C 0150                pea.l      [A4 + 0x150]
000023C6  4EAD 15AA                jsr        [A5 + 0x15AA /* export_689, CODE:32 @ 0000234A */]
000023CA  7000                     moveq.l    D0, 0x00
000023CC  2F00                     move.l     -[A7], D0
000023CE  2F00                     move.l     -[A7], D0
000023D0  720C                     moveq.l    D1, 0x0C
000023D2  2F01                     move.l     -[A7], D1
000023D4  2F00                     move.l     -[A7], D0
000023D6  2F00                     move.l     -[A7], D0
000023D8  2F00                     move.l     -[A7], D0
000023DA  2F00                     move.l     -[A7], D0
000023DC  4EAD 1922                jsr        [A5 + 0x1922 /* export_800, CODE:33 @ 00000FF6 */]
000023E0  2940 0146                move.l     [A4 + 0x146], D0
000023E4  4FEF 003C                lea.l      A7, [A7 + 0x3C]
000023E8  660C                     bne        +0xE /* 000023F6 */
000023EA  70FD                     moveq.l    D0, 0xFFFFFFFD
000023EC  2F00                     move.l     -[A7], D0
000023EE  2F0C                     move.l     -[A7], A4
000023F0  4EAD 14E2                jsr        [A5 + 0x14E2 /* export_664, CODE:32 @ 000007B8 */]
000023F4  504F                     addq.w     A7, 8
label000023F6:
000023F6  4AAE 001C                tst.l      [A6 + 0x1C]
000023FA  677C                     beq        +0x7E /* 00002478 */
000023FC  41EC 012A                lea.l      A0, [A4 + 0x12A]
00002400  43EC 0090                lea.l      A1, [A4 + 0x90]
00002404  20D9                     move.l     [A0]+, [A1]+
00002406  20D9                     move.l     [A0]+, [A1]+
00002408  70FF                     moveq.l    D0, 0xFFFFFFFF
0000240A  2F00                     move.l     -[A7], D0
0000240C  322E 002E                move.w     D1, [A6 + 0x2E]
00002410  48C1                     ext.l      D1
00002412  2F01                     move.l     -[A7], D1
00002414  322E 002A                move.w     D1, [A6 + 0x2A]
00002418  48C1                     ext.l      D1
0000241A  2F01                     move.l     -[A7], D1
0000241C  322E 0026                move.w     D1, [A6 + 0x26]
00002420  48C1                     ext.l      D1
00002422  2F01                     move.l     -[A7], D1
00002424  7200                     moveq.l    D1, 0x00
00002426  2F01                     move.l     -[A7], D1
00002428  2F2E 001C                move.l     -[A7], [A6 + 0x1C]
0000242C  2F01                     move.l     -[A7], D1
0000242E  4EAD 1922                jsr        [A5 + 0x1922 /* export_800, CODE:33 @ 00000FF6 */]
00002432  2940 0142                move.l     [A4 + 0x142], D0
00002436  4A46                     tst.w      D6
00002438  4FEF 001C                lea.l      A7, [A7 + 0x1C]
0000243C  6F22                     ble        +0x24 /* 00002460 */
0000243E  3006                     move.w     D0, D6
00002440  D06C 012C                add.w      D0, [A4 + 0x12C]
00002444  3940 0130                move.w     [A4 + 0x130], D0
00002448  7001                     moveq.l    D0, 0x01
0000244A  2F00                     move.l     -[A7], D0
0000244C  2F00                     move.l     -[A7], D0
0000244E  486C 012A                pea.l      [A4 + 0x12A]
00002452  2F2C 0142                move.l     -[A7], [A4 + 0x142]
00002456  4EAD 193A                jsr        [A5 + 0x193A /* export_803, CODE:33 @ 00001176 */]
0000245A  4FEF 0010                lea.l      A7, [A7 + 0x10]
0000245E  6030                     bra        +0x32 /* 00002490 */
label00002460:
00002460  7001                     moveq.l    D0, 0x01
00002462  2F00                     move.l     -[A7], D0
00002464  2F00                     move.l     -[A7], D0
00002466  486C 012A                pea.l      [A4 + 0x12A]
0000246A  2F2C 0142                move.l     -[A7], [A4 + 0x142]
0000246E  4EAD 193A                jsr        [A5 + 0x193A /* export_803, CODE:33 @ 00001176 */]
00002472  4FEF 0010                lea.l      A7, [A7 + 0x10]
00002476  6018                     bra        +0x1A /* 00002490 */
label00002478:
00002478  7000                     moveq.l    D0, 0x00
0000247A  2940 0142                move.l     [A4 + 0x142], D0
0000247E  41EC 012A                lea.l      A0, [A4 + 0x12A]
00002482  43EC 0090                lea.l      A1, [A4 + 0x90]
00002486  20D9                     move.l     [A0]+, [A1]+
00002488  20D9                     move.l     [A0]+, [A1]+
0000248A  396C 012C 0130           move.w     [A4 + 0x130], [A4 + 0x12C]
label00002490:
00002490  41EC 0132                lea.l      A0, [A4 + 0x132]
00002494  43EC 0090                lea.l      A1, [A4 + 0x90]
00002498  20D9                     move.l     [A0]+, [A1]+
0000249A  20D9                     move.l     [A0]+, [A1]+
0000249C  302C 0130                move.w     D0, [A4 + 0x130]
000024A0  5840                     addq.w     D0, 4
000024A2  3940 0134                move.w     [A4 + 0x134], D0
000024A6  4AAD F7B2                tst.l      [A5 - 0x84E]
000024AA  6624                     bne        +0x26 /* 000024D0 */
000024AC  0CAD 0000 0200 F29A      cmpi.l     [A5 - 0xD66], 0x200
000024B4  6D0E                     blt        +0x10 /* 000024C4 */
000024B6  598F                     subq.l     A7, 4
000024B8  3F3C 3A9E                move.w     -[A7], 0x3A9E
000024BC  AA1E                     syscall    GetCIcon
000024BE  2B5F F7B2                move.l     [A5 - 0x84E], [A7]+
000024C2  600C                     bra        +0xE /* 000024D0 */
label000024C4:
000024C4  598F                     subq.l     A7, 4
000024C6  3F3C 3A9E                move.w     -[A7], 0x3A9E
000024CA  A9BC                     syscall    GetPicture
000024CC  2B5F F7B2                move.l     [A5 - 0x84E], [A7]+
label000024D0:
000024D0  7000                     moveq.l    D0, 0x00
000024D2  2940 014A                move.l     [A4 + 0x14A], D0
000024D6  4A47                     tst.w      D7
000024D8  6D3A                     blt        +0x3C /* 00002514 */
000024DA  598F                     subq.l     A7, 4
000024DC  2F0C                     move.l     -[A7], A4
000024DE  4EBA 0562                jsr        [PC + 0x562 /* 00002A42 */]
000024E2  588F                     addq.l     A7, 4
000024E4  3F00                     move.w     -[A7], D0
000024E6  486D F794                pea.l      [A5 - 0x86C]
000024EA  A931                     syscall    NewMenu
000024EC  295F 014A                move.l     [A4 + 0x14A], [A7]+
000024F0  598F                     subq.l     A7, 4
000024F2  3F07                     move.w     -[A7], D7
000024F4  A9BF                     syscall    GetRMenu
000024F6  265F                     movea.l    A3, [A7]+
000024F8  200B                     move.l     D0, A3
000024FA  6718                     beq        +0x1A /* 00002514 */
000024FC  7000                     moveq.l    D0, 0x00
000024FE  2F00                     move.l     -[A7], D0
00002500  4878 2710                push.l     0x2710
00002504  2F0B                     move.l     -[A7], A3
00002506  2F0C                     move.l     -[A7], A4
00002508  4EBA 06C6                jsr        [PC + 0x6C6 /* 00002BD0 */]
0000250C  2F0B                     move.l     -[A7], A3
0000250E  A9A3                     syscall    ReleaseResource
00002510  4FEF 0010                lea.l      A7, [A7 + 0x10]
label00002514:
00002514  4AAC 014A                tst.l      [A4 + 0x14A]
00002518  6624                     bne        +0x26 /* 0000253E */
0000251A  598F                     subq.l     A7, 4
0000251C  2F0C                     move.l     -[A7], A4
0000251E  4EBA 0522                jsr        [PC + 0x522 /* 00002A42 */]
00002522  588F                     addq.l     A7, 4
00002524  3F00                     move.w     -[A7], D0
00002526  486D F796                pea.l      [A5 - 0x86A]
0000252A  A931                     syscall    NewMenu
0000252C  295F 014A                move.l     [A4 + 0x14A], [A7]+
00002530  660C                     bne        +0xE /* 0000253E */
00002532  70FF                     moveq.l    D0, 0xFFFFFFFF
00002534  2F00                     move.l     -[A7], D0
00002536  2F0C                     move.l     -[A7], A4
00002538  4EAD 14E2                jsr        [A5 + 0x14E2 /* export_664, CODE:32 @ 000007B8 */]
0000253C  504F                     addq.w     A7, 8
label0000253E:
0000253E  2F2C 014A                move.l     -[A7], [A4 + 0x14A]
00002542  70FF                     moveq.l    D0, 0xFFFFFFFF
00002544  3F00                     move.w     -[A7], D0
00002546  A935                     syscall    InsertMenu
00002548  2F2C 014A                move.l     -[A7], [A4 + 0x14A]
0000254C  7001                     moveq.l    D0, 0x01
0000254E  3F00                     move.w     -[A7], D0
00002550  486E FF00                pea.l      [A6 - 0x100]
00002554  A946                     syscall    GetMenuItemText/GetItem
00002556  266C 0146                movea.l    A3, [A4 + 0x146]
0000255A  2F0B                     move.l     -[A7], A3
0000255C  4EAD 1782                jsr        [A5 + 0x1782 /* export_748, CODE:32 @ 00004E1E */]
00002560  4207                     clr.b      D7
00002562  7000                     moveq.l    D0, 0x00
00002564  1007                     move.b     D0, D7
00002566  2F00                     move.l     -[A7], D0
00002568  2F2B 0014                move.l     -[A7], [A3 + 0x14]
0000256C  486E FF00                pea.l      [A6 - 0x100]
00002570  2F0B                     move.l     -[A7], A3
00002572  4EAD 178A                jsr        [A5 + 0x178A /* export_749, CODE:32 @ 00004E80 */]
00002576  41EC 013A                lea.l      A0, [A4 + 0x13A]
0000257A  43EC 0132                lea.l      A1, [A4 + 0x132]
0000257E  20D9                     move.l     [A0]+, [A1]+
00002580  20D9                     move.l     [A0]+, [A1]+
00002582  5C6C 013C                addq.w     [A4 + 0x13C], 6
00002586  046C 0016 0140           subi.w     [A4 + 0x140], 0x16
0000258C  302C 0136                move.w     D0, [A4 + 0x136]
00002590  48C0                     ext.l      D0
00002592  322C 0132                move.w     D1, [A4 + 0x132]
00002596  48C1                     ext.l      D1
00002598  9081                     sub.l      D0, D1
0000259A  E280                     asr        D0, 1
0000259C  5F40                     subq.w     D0, 7
0000259E  D16C 013A                add.w      [A4 + 0x13A], D0
000025A2  302C 013A                move.w     D0, [A4 + 0x13A]
000025A6  D07C 000E                add.w      D0, 0xE
000025AA  3940 013E                move.w     [A4 + 0x13E], D0
000025AE  42AE FEFC                clr.l      [A6 - 0x104]
000025B2  42AE FEF8                clr.l      [A6 - 0x108]
000025B6  302C 0140                move.w     D0, [A4 + 0x140]
000025BA  906C 013C                sub.w      D0, [A4 + 0x13C]
000025BE  3D40 FEFE                move.w     [A6 - 0x102], D0
000025C2  302C 013E                move.w     D0, [A4 + 0x13E]
000025C6  906C 013A                sub.w      D0, [A4 + 0x13A]
000025CA  3D40 FEFC                move.w     [A6 - 0x104], D0
000025CE  558F                     subq.l     A7, 2
000025D0  2F2C 014A                move.l     -[A7], [A4 + 0x14A]
000025D4  A950                     syscall    CountMItems
000025D6  4A5F                     tst.w      [A7]+
000025D8  4FEF 0014                lea.l      A7, [A7 + 0x14]
000025DC  6708                     beq        +0xA /* 000025E6 */
000025DE  397C 0001 014E           move.w     [A4 + 0x14E], 0x1
000025E4  6004                     bra        +0x6 /* 000025EA */
label000025E6:
000025E6  426C 014E                clr.w      [A4 + 0x14E]
label000025EA:
000025EA  200C                     move.l     D0, A4
000025EC  4CEE 18C8 FEE4           movem.l    D3,D6,D7,A3,A4, [A6 - 0x11C]
000025F2  4E5E                     unlink     A6
000025F4  4E75                     rts
000025F6  8035 5F5F 6374 5F5F 3... dc.b       "__ct__14cPopupMenuItemFP6cAgentP7cWindowR4RectPUcsN45"
export_1018:
00002630  4E56 FEE0                link       A6, -0x0120
00002634  48E7 0318                movem.l    -[A7], D6,D7,A3,A4
00002638  2C2E 0010                move.l     D6, [A6 + 0x10]
0000263C  286E 0008                movea.l    A4, [A6 + 0x8]
00002640  2D6E 0014 FFF6           move.l     [A6 - 0xA], [A6 + 0x14]
00002646  2D6E 000C FFFA           move.l     [A6 - 0x6], [A6 + 0xC]
0000264C  7000                     moveq.l    D0, 0x00
0000264E  2D40 FFF2                move.l     [A6 - 0xE], D0
00002652  3D46 FFFE                move.w     [A6 - 0x2], D6
00002656  42AE FFE8                clr.l      [A6 - 0x18]
0000265A  42AE FFE4                clr.l      [A6 - 0x1C]
0000265E  2F2C 0112                move.l     -[A7], [A4 + 0x112]
00002662  4EAD 11E2                jsr        [A5 + 0x11E2 /* export_568, CODE:26 @ 000031FA */]
00002666  2F2C 0102                move.l     -[A7], [A4 + 0x102]
0000266A  2F0C                     move.l     -[A7], A4
0000266C  4EBA EF22                jsr        [PC - 0x10DE /* 00001590 */]
00002670  3D6C 013C FFEE           move.w     [A6 - 0x12], [A4 + 0x13C]
00002676  3D6C 013A FFEC           move.w     [A6 - 0x14], [A4 + 0x13A]
0000267C  486E FFEC                pea.l      [A6 - 0x14]
00002680  A870                     syscall    LocalToGlobal
00002682  4AAC 0142                tst.l      [A4 + 0x142]
00002686  4FEF 000C                lea.l      A7, [A7 + 0xC]
0000268A  6714                     beq        +0x16 /* 000026A0 */
0000268C  7000                     moveq.l    D0, 0x00
0000268E  1038 0938                move.b     D0, [0x00000938 /* HiliteMode */]
00002692  2F00                     move.l     -[A7], D0
00002694  7000                     moveq.l    D0, 0x00
00002696  2F00                     move.l     -[A7], D0
00002698  A85F                     syscall    BitClr
0000269A  486C 012A                pea.l      [A4 + 0x12A]
0000269E  A8A4                     syscall    InvertRect
label000026A0:
000026A0  7000                     moveq.l    D0, 0x00
000026A2  2F00                     move.l     -[A7], D0
000026A4  2F0C                     move.l     -[A7], A4
000026A6  4EBA EF6A                jsr        [PC - 0x1096 /* 00001612 */]
000026AA  598F                     subq.l     A7, 4
000026AC  A8D8                     syscall    NewRgn
000026AE  265F                     movea.l    A3, [A7]+
000026B0  200B                     move.l     D0, A3
000026B2  504F                     addq.w     A7, 8
000026B4  660C                     bne        +0xE /* 000026C2 */
000026B6  70FF                     moveq.l    D0, 0xFFFFFFFF
000026B8  2F00                     move.l     -[A7], D0
000026BA  2F0C                     move.l     -[A7], A4
000026BC  4EAD 14E2                jsr        [A5 + 0x14E2 /* export_664, CODE:32 @ 000007B8 */]
000026C0  504F                     addq.w     A7, 8
label000026C2:
000026C2  2F0B                     move.l     -[A7], A3
000026C4  486C 013A                pea.l      [A4 + 0x13A]
000026C8  A8DF                     syscall    RectRgn
000026CA  2F0B                     move.l     -[A7], A3
000026CC  2F0C                     move.l     -[A7], A4
000026CE  4EBA EEC0                jsr        [PC - 0x1140 /* 00001590 */]
000026D2  598F                     subq.l     A7, 4
000026D4  2F2C 014A                move.l     -[A7], [A4 + 0x14A]
000026D8  3F2E FFEC                move.w     -[A7], [A6 - 0x14]
000026DC  3F2E FFEE                move.w     -[A7], [A6 - 0x12]
000026E0  3F2C 014E                move.w     -[A7], [A4 + 0x14E]
000026E4  A80B                     syscall    PopUpMenuSelect
000026E6  2E1F                     move.l     D7, [A7]+
000026E8  203C FFFF 0000           move.l     D0, 0xFFFF0000
000026EE  C087                     and.l      D0, D7
000026F0  504F                     addq.w     A7, 8
000026F2  6700 00B8                beq        +0xBA /* 000027AC */
000026F6  203C 0000 FFFF           move.l     D0, 0xFFFF
000026FC  C087                     and.l      D0, D7
000026FE  6700 0096                beq        +0x98 /* 00002796 */
00002702  203C 0000 FFFF           move.l     D0, 0xFFFF
00002708  C087                     and.l      D0, D7
0000270A  3940 014E                move.w     [A4 + 0x14E], D0
0000270E  2F2C 014A                move.l     -[A7], [A4 + 0x14A]
00002712  3F2C 014E                move.w     -[A7], [A4 + 0x14E]
00002716  486E FEE4                pea.l      [A6 - 0x11C]
0000271A  A946                     syscall    GetMenuItemText/GetItem
0000271C  266C 0146                movea.l    A3, [A4 + 0x146]
00002720  2F0B                     move.l     -[A7], A3
00002722  4EAD 1782                jsr        [A5 + 0x1782 /* export_748, CODE:32 @ 00004E1E */]
00002726  4207                     clr.b      D7
00002728  7000                     moveq.l    D0, 0x00
0000272A  1007                     move.b     D0, D7
0000272C  2F00                     move.l     -[A7], D0
0000272E  2F2B 0014                move.l     -[A7], [A3 + 0x14]
00002732  486E FEE4                pea.l      [A6 - 0x11C]
00002736  2F0B                     move.l     -[A7], A3
00002738  4EAD 178A                jsr        [A5 + 0x178A /* export_749, CODE:32 @ 00004E80 */]
0000273C  302C 0140                move.w     D0, [A4 + 0x140]
00002740  906C 013C                sub.w      D0, [A4 + 0x13C]
00002744  3D40 FFEA                move.w     [A6 - 0x16], D0
00002748  302C 013E                move.w     D0, [A4 + 0x13E]
0000274C  906C 013A                sub.w      D0, [A4 + 0x13A]
00002750  3D40 FFE8                move.w     [A6 - 0x18], D0
00002754  204C                     movea.l    A0, A4
00002756  226C 0060                movea.l    A1, [A4 + 0x60]
0000275A  D0E9 00E8                add.w      A0, [A1 + 0xE8]
0000275E  2F08                     move.l     -[A7], A0
00002760  2049                     movea.l    A0, A1
00002762  2268 00EC                movea.l    A1, [A0 + 0xEC]
00002766  4E91                     jsr        [A1]
00002768  3D6C 014E FEE0           move.w     [A6 - 0x120], [A4 + 0x14E]
0000276E  3D46 FEE2                move.w     [A6 - 0x11E], D6
00002772  486E FEE0                pea.l      [A6 - 0x120]
00002776  2F3C 4742 5435           move.l     -[A7], 0x47425435 /* 'GBT5' */
0000277C  204C                     movea.l    A0, A4
0000277E  226C 0060                movea.l    A1, [A4 + 0x60]
00002782  D0E9 0060                add.w      A0, [A1 + 0x60]
00002786  2F08                     move.l     -[A7], A0
00002788  2049                     movea.l    A0, A1
0000278A  2268 0064                movea.l    A1, [A0 + 0x64]
0000278E  4E91                     jsr        [A1]
00002790  4FEF 0024                lea.l      A7, [A7 + 0x24]
00002794  6016                     bra        +0x18 /* 000027AC */
label00002796:
00002796  204C                     movea.l    A0, A4
00002798  226C 0060                movea.l    A1, [A4 + 0x60]
0000279C  D0E9 00E8                add.w      A0, [A1 + 0xE8]
000027A0  2F08                     move.l     -[A7], A0
000027A2  2049                     movea.l    A0, A1
000027A4  2268 00EC                movea.l    A1, [A0 + 0xEC]
000027A8  4E91                     jsr        [A1]
000027AA  584F                     addq.w     A7, 4
label000027AC:
000027AC  7000                     moveq.l    D0, 0x00
000027AE  2F00                     move.l     -[A7], D0
000027B0  2F0C                     move.l     -[A7], A4
000027B2  4EBA EE5E                jsr        [PC - 0x11A2 /* 00001612 */]
000027B6  2F2C 0102                move.l     -[A7], [A4 + 0x102]
000027BA  2F0C                     move.l     -[A7], A4
000027BC  4EBA EDD2                jsr        [PC - 0x122E /* 00001590 */]
000027C0  4AAC 0142                tst.l      [A4 + 0x142]
000027C4  4FEF 0010                lea.l      A7, [A7 + 0x10]
000027C8  6714                     beq        +0x16 /* 000027DE */
000027CA  7000                     moveq.l    D0, 0x00
000027CC  1038 0938                move.b     D0, [0x00000938 /* HiliteMode */]
000027D0  2F00                     move.l     -[A7], D0
000027D2  7000                     moveq.l    D0, 0x00
000027D4  2F00                     move.l     -[A7], D0
000027D6  A85F                     syscall    BitClr
000027D8  486C 012A                pea.l      [A4 + 0x12A]
000027DC  A8A4                     syscall    InvertRect
label000027DE:
000027DE  7000                     moveq.l    D0, 0x00
000027E0  2F00                     move.l     -[A7], D0
000027E2  2F0C                     move.l     -[A7], A4
000027E4  4EBA EE2C                jsr        [PC - 0x11D4 /* 00001612 */]
000027E8  2F2C 0112                move.l     -[A7], [A4 + 0x112]
000027EC  4EAD 11EA                jsr        [A5 + 0x11EA /* export_569, CODE:26 @ 00003268 */]
000027F0  4FEF 000C                lea.l      A7, [A7 + 0xC]
000027F4  4CEE 18C0 FED0           movem.l    D6,D7,A3,A4, [A6 - 0x130]
000027FA  4E5E                     unlink     A6
000027FC  4E75                     rts
000027FE  8025 4D6F 7573 6544 6... dc.b       "MouseDown__14cPopupMenuItemF5PointlT2"
export_1019:
00002828  4E56 FFF0                link       A6, -0x0010
0000282C  48E7 0018                movem.l    -[A7], A3,A4
00002830  286E 0008                movea.l    A4, [A6 + 0x8]
00002834  2F2C 0112                move.l     -[A7], [A4 + 0x112]
00002838  4EAD 11E2                jsr        [A5 + 0x11E2 /* export_568, CODE:26 @ 000031FA */]
0000283C  41EE FFF0                lea.l      A0, [A6 - 0x10]
00002840  43EC 0090                lea.l      A1, [A4 + 0x90]
00002844  20D9                     move.l     [A0]+, [A1]+
00002846  20D9                     move.l     [A0]+, [A1]+
00002848  486E FFF0                pea.l      [A6 - 0x10]
0000284C  70FE                     moveq.l    D0, 0xFFFFFFFE
0000284E  3F00                     move.w     -[A7], D0
00002850  3F00                     move.w     -[A7], D0
00002852  A8A9                     syscall    InsetRect
00002854  486E FFF0                pea.l      [A6 - 0x10]
00002858  2F0C                     move.l     -[A7], A4
0000285A  4EBA ED76                jsr        [PC - 0x128A /* 000015D2 */]
0000285E  0CAD 0000 0200 F29A      cmpi.l     [A5 - 0xD66], 0x200
00002866  4FEF 000C                lea.l      A7, [A7 + 0xC]
0000286A  6D0C                     blt        +0xE /* 00002878 */
0000286C  486C 009A                pea.l      [A4 + 0x9A]
00002870  AA14                     syscall    RGBForeColor
00002872  486C 00CC                pea.l      [A4 + 0xCC]
00002876  AA15                     syscall    RGBBackColor
label00002878:
00002878  4AAC 0142                tst.l      [A4 + 0x142]
0000287C  6716                     beq        +0x18 /* 00002894 */
0000287E  7000                     moveq.l    D0, 0x00
00002880  2F00                     move.l     -[A7], D0
00002882  2F00                     move.l     -[A7], D0
00002884  486C 012A                pea.l      [A4 + 0x12A]
00002888  2F2C 0142                move.l     -[A7], [A4 + 0x142]
0000288C  4EAD 193A                jsr        [A5 + 0x193A /* export_803, CODE:33 @ 00001176 */]
00002890  4FEF 0010                lea.l      A7, [A7 + 0x10]
label00002894:
00002894  0CAD 0000 0200 F29A      cmpi.l     [A5 - 0xD66], 0x200
0000289C  6D06                     blt        +0x8 /* 000028A4 */
0000289E  486C 0150                pea.l      [A4 + 0x150]
000028A2  AA15                     syscall    RGBBackColor
label000028A4:
000028A4  486C 0132                pea.l      [A4 + 0x132]
000028A8  A8A3                     syscall    EraseRect
000028AA  486C 0132                pea.l      [A4 + 0x132]
000028AE  A8A1                     syscall    FrameRect
000028B0  302C 0134                move.w     D0, [A4 + 0x134]
000028B4  5240                     addq.w     D0, 1
000028B6  3F00                     move.w     -[A7], D0
000028B8  3F2C 0136                move.w     -[A7], [A4 + 0x136]
000028BC  A893                     syscall    MoveTo
000028BE  2F2C 0136                move.l     -[A7], [A4 + 0x136]
000028C2  A891                     syscall    LineTo
000028C4  3F2C 0138                move.w     -[A7], [A4 + 0x138]
000028C8  302C 0132                move.w     D0, [A4 + 0x132]
000028CC  5240                     addq.w     D0, 1
000028CE  3F00                     move.w     -[A7], D0
000028D0  A891                     syscall    LineTo
000028D2  486C 013A                pea.l      [A4 + 0x13A]
000028D6  2F0C                     move.l     -[A7], A4
000028D8  4EBA ECF8                jsr        [PC - 0x1308 /* 000015D2 */]
000028DC  7000                     moveq.l    D0, 0x00
000028DE  2F00                     move.l     -[A7], D0
000028E0  2F00                     move.l     -[A7], D0
000028E2  486C 013A                pea.l      [A4 + 0x13A]
000028E6  2F2C 0146                move.l     -[A7], [A4 + 0x146]
000028EA  4EAD 193A                jsr        [A5 + 0x193A /* export_803, CODE:33 @ 00001176 */]
000028EE  7000                     moveq.l    D0, 0x00
000028F0  2F00                     move.l     -[A7], D0
000028F2  2F0C                     move.l     -[A7], A4
000028F4  4EBA ED1C                jsr        [PC - 0x12E4 /* 00001612 */]
000028F8  41EE FFF8                lea.l      A0, [A6 - 0x8]
000028FC  43EC 0132                lea.l      A1, [A4 + 0x132]
00002900  20D9                     move.l     [A0]+, [A1]+
00002902  20D9                     move.l     [A0]+, [A1]+
00002904  596E FFFE                subq.w     [A6 - 0x2], 4
00002908  0CAD 0000 0200 F29A      cmpi.l     [A5 - 0xD66], 0x200
00002910  4FEF 0020                lea.l      A7, [A7 + 0x20]
00002914  6D00 0086                blt        +0x88 /* 0000299C */
00002918  302E FFFE                move.w     D0, [A6 - 0x2]
0000291C  48C0                     ext.l      D0
0000291E  206D F7B2                movea.l    A0, [A5 - 0x84E]
00002922  2050                     movea.l    A0, [A0]
00002924  3228 000C                move.w     D1, [A0 + 0xC]
00002928  48C1                     ext.l      D1
0000292A  9081                     sub.l      D0, D1
0000292C  206D F7B2                movea.l    A0, [A5 - 0x84E]
00002930  2050                     movea.l    A0, [A0]
00002932  3228 0008                move.w     D1, [A0 + 0x8]
00002936  D240                     add.w      D1, D0
00002938  3D41 FFFA                move.w     [A6 - 0x6], D1
0000293C  302C 0136                move.w     D0, [A4 + 0x136]
00002940  48C0                     ext.l      D0
00002942  322C 0132                move.w     D1, [A4 + 0x132]
00002946  48C1                     ext.l      D1
00002948  9081                     sub.l      D0, D1
0000294A  206D F7B2                movea.l    A0, [A5 - 0x84E]
0000294E  2050                     movea.l    A0, [A0]
00002950  3228 000A                move.w     D1, [A0 + 0xA]
00002954  48C1                     ext.l      D1
00002956  206D F7B2                movea.l    A0, [A5 - 0x84E]
0000295A  2050                     movea.l    A0, [A0]
0000295C  3428 0006                move.w     D2, [A0 + 0x6]
00002960  48C2                     ext.l      D2
00002962  9282                     sub.l      D1, D2
00002964  9081                     sub.l      D0, D1
00002966  E280                     asr        D0, 1
00002968  D16E FFF8                add.w      [A6 - 0x8], D0
0000296C  302E FFF8                move.w     D0, [A6 - 0x8]
00002970  48C0                     ext.l      D0
00002972  206D F7B2                movea.l    A0, [A5 - 0x84E]
00002976  2050                     movea.l    A0, [A0]
00002978  3228 000A                move.w     D1, [A0 + 0xA]
0000297C  48C1                     ext.l      D1
0000297E  D280                     add.l      D1, D0
00002980  206D F7B2                movea.l    A0, [A5 - 0x84E]
00002984  2050                     movea.l    A0, [A0]
00002986  3028 0006                move.w     D0, [A0 + 0x6]
0000298A  D041                     add.w      D0, D1
0000298C  3D40 FFFC                move.w     [A6 - 0x4], D0
00002990  486E FFF8                pea.l      [A6 - 0x8]
00002994  2F2D F7B2                move.l     -[A7], [A5 - 0x84E]
00002998  AA1F                     syscall    PlotCIcon
0000299A  606A                     bra        +0x6C /* 00002A06 */
label0000299C:
0000299C  266D F7B2                movea.l    A3, [A5 - 0x84E]
000029A0  302E FFFE                move.w     D0, [A6 - 0x2]
000029A4  48C0                     ext.l      D0
000029A6  2053                     movea.l    A0, [A3]
000029A8  3228 0008                move.w     D1, [A0 + 0x8]
000029AC  48C1                     ext.l      D1
000029AE  9081                     sub.l      D0, D1
000029B0  2053                     movea.l    A0, [A3]
000029B2  3228 0004                move.w     D1, [A0 + 0x4]
000029B6  D240                     add.w      D1, D0
000029B8  3D41 FFFA                move.w     [A6 - 0x6], D1
000029BC  302C 0136                move.w     D0, [A4 + 0x136]
000029C0  48C0                     ext.l      D0
000029C2  322C 0132                move.w     D1, [A4 + 0x132]
000029C6  48C1                     ext.l      D1
000029C8  9081                     sub.l      D0, D1
000029CA  2053                     movea.l    A0, [A3]
000029CC  3228 0006                move.w     D1, [A0 + 0x6]
000029D0  48C1                     ext.l      D1
000029D2  3428 0002                move.w     D2, [A0 + 0x2]
000029D6  48C2                     ext.l      D2
000029D8  9282                     sub.l      D1, D2
000029DA  9081                     sub.l      D0, D1
000029DC  E280                     asr        D0, 1
000029DE  D16E FFF8                add.w      [A6 - 0x8], D0
000029E2  302E FFF8                move.w     D0, [A6 - 0x8]
000029E6  48C0                     ext.l      D0
000029E8  2053                     movea.l    A0, [A3]
000029EA  3228 0006                move.w     D1, [A0 + 0x6]
000029EE  48C1                     ext.l      D1
000029F0  D280                     add.l      D1, D0
000029F2  3028 0002                move.w     D0, [A0 + 0x2]
000029F6  D041                     add.w      D0, D1
000029F8  3D40 FFFC                move.w     [A6 - 0x4], D0
000029FC  2F2D F7B2                move.l     -[A7], [A5 - 0x84E]
00002A00  486E FFF8                pea.l      [A6 - 0x8]
00002A04  A8F6                     syscall    DrawPicture
label00002A06:
00002A06  7000                     moveq.l    D0, 0x00
00002A08  2F00                     move.l     -[A7], D0
00002A0A  2F0C                     move.l     -[A7], A4
00002A0C  4EBA EC04                jsr        [PC - 0x13FC /* 00001612 */]
00002A10  2F2C 0112                move.l     -[A7], [A4 + 0x112]
00002A14  4EAD 11EA                jsr        [A5 + 0x11EA /* export_569, CODE:26 @ 00003268 */]
00002A18  4FEF 000C                lea.l      A7, [A7 + 0xC]
00002A1C  4CEE 1800 FFE8           movem.l    A3,A4, [A6 - 0x18]
00002A22  4E5E                     unlink     A6
00002A24  4E75                     rts
00002A26  9844 7261 775F 5F31 3... dc.b       "Draw__14cPopupMenuItemFv"
fn00002A42:
00002A42  4E56 0000                link       A6, 0
00002A46  48E7 0108                movem.l    -[A7], D7,A4
00002A4A  3E3C 0FFF                move.w     D7, 0xFFF
label00002A4E:
00002A4E  598F                     subq.l     A7, 4
00002A50  5247                     addq.w     D7, 1
00002A52  3F07                     move.w     -[A7], D7
00002A54  A949                     syscall    GetMenuHandle
00002A56  285F                     movea.l    A4, [A7]+
00002A58  200C                     move.l     D0, A4
00002A5A  66F2                     bne        -0xC /* 00002A4E */
00002A5C  3007                     move.w     D0, D7
00002A5E  4CEE 1080 FFF8           movem.l    D7,A4, [A6 - 0x8]
00002A64  4E5E                     unlink     A6
00002A66  4E75                     rts
00002A68  8024 4669 6E64 556E 7... dc.b       "FindUnusedMenuID__14cPopupMenuItemFv"
export_1020:
00002A90  4E56 0000                link       A6, 0
00002A94  48E7 0308                movem.l    -[A7], D6,D7,A4
00002A98  3C2E 0012                move.w     D6, [A6 + 0x12]
00002A9C  3E2E 000E                move.w     D7, [A6 + 0xE]
00002AA0  286E 0008                movea.l    A4, [A6 + 0x8]
00002AA4  48C6                     ext.l      D6
00002AA6  2F06                     move.l     -[A7], D6
00002AA8  48C7                     ext.l      D7
00002AAA  2F07                     move.l     -[A7], D7
00002AAC  486C 0080                pea.l      [A4 + 0x80]
00002AB0  4EAD 1CD2                jsr        [A5 + 0x1CD2 /* export_918, CODE:36 @ 0000099A */]
00002AB4  486C 013A                pea.l      [A4 + 0x13A]
00002AB8  3F07                     move.w     -[A7], D7
00002ABA  3F06                     move.w     -[A7], D6
00002ABC  A8A8                     syscall    OffsetRect
00002ABE  486C 0132                pea.l      [A4 + 0x132]
00002AC2  3F07                     move.w     -[A7], D7
00002AC4  3F06                     move.w     -[A7], D6
00002AC6  A8A8                     syscall    OffsetRect
00002AC8  486C 012A                pea.l      [A4 + 0x12A]
00002ACC  3F07                     move.w     -[A7], D7
00002ACE  3F06                     move.w     -[A7], D6
00002AD0  A8A8                     syscall    OffsetRect
00002AD2  4CEE 10C0 FFF4           movem.l    D6,D7,A4, [A6 - 0xC]
00002AD8  4E5E                     unlink     A6
00002ADA  4E75                     rts
00002ADC  9A4D 6F76 655F 5F31 3... dc.b       "Move__14cPopupMenuItemFsT1"
export_1021:
00002AFA  4E56 0000                link       A6, 0
00002AFE  48E7 0308                movem.l    -[A7], D6,D7,A4
00002B02  3C2E 0012                move.w     D6, [A6 + 0x12]
00002B06  3E2E 000E                move.w     D7, [A6 + 0xE]
00002B0A  286E 0008                movea.l    A4, [A6 + 0x8]
00002B0E  48C6                     ext.l      D6
00002B10  2F06                     move.l     -[A7], D6
00002B12  48C7                     ext.l      D7
00002B14  2F07                     move.l     -[A7], D7
00002B16  486C 0080                pea.l      [A4 + 0x80]
00002B1A  4EAD 1CDA                jsr        [A5 + 0x1CDA /* export_919, CODE:36 @ 000009EE */]
00002B1E  DF6C 0140                add.w      [A4 + 0x140], D7
00002B22  DD6C 013E                add.w      [A4 + 0x13E], D6
00002B26  DF6C 0138                add.w      [A4 + 0x138], D7
00002B2A  DD6C 0136                add.w      [A4 + 0x136], D6
00002B2E  DF6C 0130                add.w      [A4 + 0x130], D7
00002B32  DD6C 012E                add.w      [A4 + 0x12E], D6
00002B36  4CEE 10C0 FFF4           movem.l    D6,D7,A4, [A6 - 0xC]
00002B3C  4E5E                     unlink     A6
00002B3E  4E75                     rts
00002B40  9C52 6573 697A 655F 5... dc.b       "Resize__14cPopupMenuItemFsT1"
export_1022:
00002B60  4E56 0000                link       A6, 0
00002B64  48E7 0118                movem.l    -[A7], D7,A3,A4
00002B68  266E 000C                movea.l    A3, [A6 + 0xC]
00002B6C  286E 0008                movea.l    A4, [A6 + 0x8]
00002B70  4247                     clr.w      D7
00002B72  6020                     bra        +0x22 /* 00002B94 */
label00002B74:
00002B74  48C7                     ext.l      D7
00002B76  2053                     movea.l    A0, [A3]
00002B78  3030 7E08                move.w     D0, [A0 + D7 * 8 + 0x8]
00002B7C  5740                     subq.w     D0, 3
00002B7E  6610                     bne        +0x12 /* 00002B90 */
00002B80  48C7                     ext.l      D7
00002B82  2053                     movea.l    A0, [A3]
00002B84  41F0 7E0A                lea.l      A0, [A0 + D7 * 8 + 0xA]
00002B88  43EC 0150                lea.l      A1, [A4 + 0x150]
00002B8C  22D8                     move.l     [A1]+, [A0]+
00002B8E  32D8                     move.w     [A1]+, [A0]+
label00002B90:
00002B90  3007                     move.w     D0, D7
00002B92  5247                     addq.w     D7, 1
label00002B94:
00002B94  2053                     movea.l    A0, [A3]
00002B96  BE68 0006                cmp.w      D7, [A0 + 0x6]
00002B9A  6FD8                     ble        -0x26 /* 00002B74 */
00002B9C  4CEE 1880 FFF4           movem.l    D7,A3,A4, [A6 - 0xC]
00002BA2  4E5E                     unlink     A6
00002BA4  4E75                     rts
00002BA6  8025 5365 7443 6F6C 6... dc.b       "SetColor__14cPopupMenuItemFPP7CtlCTab"
fn00002BD0:
00002BD0  4E56 FF00                link       A6, -0x0100
00002BD4  48E7 1F18                movem.l    -[A7], D3,D4,D5,D6,D7,A3,A4
00002BD8  182E 0017                move.b     D4, [A6 + 0x17]
00002BDC  266E 000C                movea.l    A3, [A6 + 0xC]
00002BE0  49EE FF00                lea.l      A4, [A6 - 0x100]
00002BE4  3C2E 0012                move.w     D6, [A6 + 0x12]
00002BE8  200B                     move.l     D0, A3
00002BEA  674E                     beq        +0x50 /* 00002C3A */
00002BEC  558F                     subq.l     A7, 2
00002BEE  2F0B                     move.l     -[A7], A3
00002BF0  A950                     syscall    CountMItems
00002BF2  3A1F                     move.w     D5, [A7]+
00002BF4  7E01                     moveq.l    D7, 0x01
00002BF6  603E                     bra        +0x40 /* 00002C36 */
label00002BF8:
00002BF8  2F0B                     move.l     -[A7], A3
00002BFA  3F07                     move.w     -[A7], D7
00002BFC  2F0C                     move.l     -[A7], A4
00002BFE  A946                     syscall    GetMenuItemText/GetItem
00002C00  7600                     moveq.l    D3, 0x00
00002C02  7000                     moveq.l    D0, 0x00
00002C04  1004                     move.b     D0, D4
00002C06  0C40 0001                cmpi.w     D0, 0x1
00002C0A  6608                     bne        +0xA /* 00002C14 */
00002C0C  0C47 0001                cmpi.w     D7, 0x1
00002C10  6602                     bne        +0x4 /* 00002C14 */
00002C12  7601                     moveq.l    D3, 0x01
label00002C14:
00002C14  49C3                     lea.l      A4, D3
00002C16  2F03                     move.l     -[A7], D3
00002C18  48C6                     ext.l      D6
00002C1A  2F06                     move.l     -[A7], D6
00002C1C  2F0C                     move.l     -[A7], A4
00002C1E  2F2E 0008                move.l     -[A7], [A6 + 0x8]
00002C22  4EBA 00CA                jsr        [PC + 0xCA /* 00002CEE */]
00002C26  0C46 00FF                cmpi.w     D6, 0xFF
00002C2A  4FEF 0010                lea.l      A7, [A7 + 0x10]
00002C2E  6C02                     bge        +0x4 /* 00002C32 */
00002C30  5246                     addq.w     D6, 1
label00002C32:
00002C32  3007                     move.w     D0, D7
00002C34  5247                     addq.w     D7, 1
label00002C36:
00002C36  BA47                     cmp.w      D5, D7
00002C38  6CBE                     bge        -0x40 /* 00002BF8 */
label00002C3A:
00002C3A  4CEE 18F8 FEE4           movem.l    D3,D4,D5,D6,D7,A3,A4, [A6 - 0x11C]
00002C40  4E5E                     unlink     A6
00002C42  4E75                     rts
00002C44  802C 4164 6446 726F 6... dc.b       "AddFromMenu__14cPopupMenuItemFPP8MenuInfosUc"
export_1023:
00002C74  4E56 0000                link       A6, 0
00002C78  2F0C                     move.l     -[A7], A4
00002C7A  286E 0008                movea.l    A4, [A6 + 0x8]
00002C7E  206C 014A                movea.l    A0, [A4 + 0x14A]
00002C82  2050                     movea.l    A0, [A0]
00002C84  3F10                     move.w     -[A7], [A0]
00002C86  A936                     syscall    DeleteMenu
00002C88  206C 014A                movea.l    A0, [A4 + 0x14A]
00002C8C  A023                     syscall    DisposHandle/DisposeHandle
00002C8E  598F                     subq.l     A7, 4
00002C90  2F0C                     move.l     -[A7], A4
00002C92  4EBA FDAE                jsr        [PC - 0x252 /* 00002A42 */]
00002C96  588F                     addq.l     A7, 4
00002C98  3F00                     move.w     -[A7], D0
00002C9A  486D F798                pea.l      [A5 - 0x868]
00002C9E  A931                     syscall    NewMenu
00002CA0  295F 014A                move.l     [A4 + 0x14A], [A7]+
00002CA4  660C                     bne        +0xE /* 00002CB2 */
00002CA6  70FF                     moveq.l    D0, 0xFFFFFFFF
00002CA8  2F00                     move.l     -[A7], D0
00002CAA  2F0C                     move.l     -[A7], A4
00002CAC  4EAD 14E2                jsr        [A5 + 0x14E2 /* export_664, CODE:32 @ 000007B8 */]
00002CB0  504F                     addq.w     A7, 8
label00002CB2:
00002CB2  2F2C 014A                move.l     -[A7], [A4 + 0x14A]
00002CB6  70FF                     moveq.l    D0, 0xFFFFFFFF
00002CB8  3F00                     move.w     -[A7], D0
00002CBA  A935                     syscall    InsertMenu
00002CBC  286E FFFC                movea.l    A4, [A6 - 0x4]
00002CC0  4E5E                     unlink     A6
00002CC2  4E75                     rts
00002CC4  8026 4465 6C65 7465 4... dc.b       "DeleteAllMenuItems__14cPopupMenuItemFv"
export_1024:
fn00002CEE:
00002CEE  4E56 FEF8                link       A6, -0x0108
00002CF2  48E7 0318                movem.l    -[A7], D6,D7,A3,A4
00002CF6  3C2E 0012                move.w     D6, [A6 + 0x12]
00002CFA  286E 0008                movea.l    A4, [A6 + 0x8]
00002CFE  42AE FFFC                clr.l      [A6 - 0x4]
00002D02  42AE FFF8                clr.l      [A6 - 0x8]
00002D06  3E06                     move.w     D7, D6
00002D08  5247                     addq.w     D7, 1
00002D0A  558F                     subq.l     A7, 2
00002D0C  2F2C 014A                move.l     -[A7], [A4 + 0x14A]
00002D10  A950                     syscall    CountMItems
00002D12  BE5F                     cmp.w      D7, [A7]+
00002D14  6F0C                     ble        +0xE /* 00002D22 */
00002D16  558F                     subq.l     A7, 2
00002D18  2F2C 014A                move.l     -[A7], [A4 + 0x14A]
00002D1C  A950                     syscall    CountMItems
00002D1E  3E1F                     move.w     D7, [A7]+
00002D20  5247                     addq.w     D7, 1
label00002D22:
00002D22  2F2C 014A                move.l     -[A7], [A4 + 0x14A]
00002D26  486D F79A                pea.l      [A5 - 0x866]
00002D2A  3F06                     move.w     -[A7], D6
00002D2C  A826                     syscall    InsertMenuItem/InsMenuItem
00002D2E  2F2C 014A                move.l     -[A7], [A4 + 0x14A]
00002D32  3F07                     move.w     -[A7], D7
00002D34  2F2E 000C                move.l     -[A7], [A6 + 0xC]
00002D38  A947                     syscall    SetMenuItemText/SetItem
00002D3A  4A2E 0017                tst.b      [A6 + 0x17]
00002D3E  6756                     beq        +0x58 /* 00002D96 */
00002D40  266C 0146                movea.l    A3, [A4 + 0x146]
00002D44  2F0B                     move.l     -[A7], A3
00002D46  4EAD 1782                jsr        [A5 + 0x1782 /* export_748, CODE:32 @ 00004E1E */]
00002D4A  4206                     clr.b      D6
00002D4C  7000                     moveq.l    D0, 0x00
00002D4E  1006                     move.b     D0, D6
00002D50  2F00                     move.l     -[A7], D0
00002D52  2F2B 0014                move.l     -[A7], [A3 + 0x14]
00002D56  2F2E 000C                move.l     -[A7], [A6 + 0xC]
00002D5A  2F0B                     move.l     -[A7], A3
00002D5C  4EAD 178A                jsr        [A5 + 0x178A /* export_749, CODE:32 @ 00004E80 */]
00002D60  302C 0140                move.w     D0, [A4 + 0x140]
00002D64  906C 013C                sub.w      D0, [A4 + 0x13C]
00002D68  3D40 FFFE                move.w     [A6 - 0x2], D0
00002D6C  302C 013E                move.w     D0, [A4 + 0x13E]
00002D70  906C 013A                sub.w      D0, [A4 + 0x13A]
00002D74  3D40 FFFC                move.w     [A6 - 0x4], D0
00002D78  204C                     movea.l    A0, A4
00002D7A  226C 0060                movea.l    A1, [A4 + 0x60]
00002D7E  D0E9 00E8                add.w      A0, [A1 + 0xE8]
00002D82  2F08                     move.l     -[A7], A0
00002D84  2049                     movea.l    A0, A1
00002D86  2268 00EC                movea.l    A1, [A0 + 0xEC]
00002D8A  4E91                     jsr        [A1]
00002D8C  3947 014E                move.w     [A4 + 0x14E], D7
00002D90  4FEF 0018                lea.l      A7, [A7 + 0x18]
00002D94  6068                     bra        +0x6A /* 00002DFE */
label00002D96:
00002D96  4A6C 014E                tst.w      [A4 + 0x14E]
00002D9A  6662                     bne        +0x64 /* 00002DFE */
00002D9C  3947 014E                move.w     [A4 + 0x14E], D7
00002DA0  2F2C 014A                move.l     -[A7], [A4 + 0x14A]
00002DA4  3F2C 014E                move.w     -[A7], [A4 + 0x14E]
00002DA8  486E FEF8                pea.l      [A6 - 0x108]
00002DAC  A946                     syscall    GetMenuItemText/GetItem
00002DAE  266C 0146                movea.l    A3, [A4 + 0x146]
00002DB2  2F0B                     move.l     -[A7], A3
00002DB4  4EAD 1782                jsr        [A5 + 0x1782 /* export_748, CODE:32 @ 00004E1E */]
00002DB8  4206                     clr.b      D6
00002DBA  7000                     moveq.l    D0, 0x00
00002DBC  1006                     move.b     D0, D6
00002DBE  2F00                     move.l     -[A7], D0
00002DC0  2F2B 0014                move.l     -[A7], [A3 + 0x14]
00002DC4  486E FEF8                pea.l      [A6 - 0x108]
00002DC8  2F0B                     move.l     -[A7], A3
00002DCA  4EAD 178A                jsr        [A5 + 0x178A /* export_749, CODE:32 @ 00004E80 */]
00002DCE  302C 0140                move.w     D0, [A4 + 0x140]
00002DD2  906C 013C                sub.w      D0, [A4 + 0x13C]
00002DD6  3D40 FFFE                move.w     [A6 - 0x2], D0
00002DDA  302C 013E                move.w     D0, [A4 + 0x13E]
00002DDE  906C 013A                sub.w      D0, [A4 + 0x13A]
00002DE2  3D40 FFFC                move.w     [A6 - 0x4], D0
00002DE6  204C                     movea.l    A0, A4
00002DE8  226C 0060                movea.l    A1, [A4 + 0x60]
00002DEC  D0E9 00E8                add.w      A0, [A1 + 0xE8]
00002DF0  2F08                     move.l     -[A7], A0
00002DF2  2049                     movea.l    A0, A1
00002DF4  2268 00EC                movea.l    A1, [A0 + 0xEC]
00002DF8  4E91                     jsr        [A1]
00002DFA  4FEF 0018                lea.l      A7, [A7 + 0x18]
label00002DFE:
00002DFE  3007                     move.w     D0, D7
00002E00  4CEE 18C0 FEE8           movem.l    D6,D7,A3,A4, [A6 - 0x118]
00002E06  4E5E                     unlink     A6
00002E08  4E75                     rts
00002E0A  8024 4164 644D 656E 7... dc.b       "AddMenuItem__14cPopupMenuItemFPUcsUc"
export_1025:
00002E32  4E56 0000                link       A6, 0
00002E36  48E7 0108                movem.l    -[A7], D7,A4
00002E3A  2E2E 000C                move.l     D7, [A6 + 0xC]
00002E3E  286E 0008                movea.l    A4, [A6 + 0x8]
00002E42  200C                     move.l     D0, A4
00002E44  6700 00E0                beq        +0xE2 /* 00002F26 */
00002E48  296D F7AE 0088           move.l     [A4 + 0x88], [A5 - 0x852]
00002E4E  296D F7AA 0070           move.l     [A4 + 0x70], [A5 - 0x856]
00002E54  206C 0064                movea.l    A0, [A4 + 0x64]
00002E58  216D F7A6 0008           move.l     [A0 + 0x8], [A5 - 0x85A]
00002E5E  296D F7A2 0060           move.l     [A4 + 0x60], [A5 - 0x85E]
00002E64  4AAC 0142                tst.l      [A4 + 0x142]
00002E68  6730                     beq        +0x32 /* 00002E9A */
00002E6A  4AAC 0142                tst.l      [A4 + 0x142]
00002E6E  6728                     beq        +0x2A /* 00002E98 */
00002E70  7003                     moveq.l    D0, 0x03
00002E72  2F00                     move.l     -[A7], D0
00002E74  206C 0142                movea.l    A0, [A4 + 0x142]
00002E78  2248                     movea.l    A1, A0
00002E7A  2269 0008                movea.l    A1, [A1 + 0x8]
00002E7E  D0E9 0030                add.w      A0, [A1 + 0x30]
00002E82  2F08                     move.l     -[A7], A0
00002E84  206C 0142                movea.l    A0, [A4 + 0x142]
00002E88  2068 0008                movea.l    A0, [A0 + 0x8]
00002E8C  2268 0034                movea.l    A1, [A0 + 0x34]
00002E90  4E91                     jsr        [A1]
00002E92  7000                     moveq.l    D0, 0x00
00002E94  504F                     addq.w     A7, 8
00002E96  6002                     bra        +0x4 /* 00002E9A */
label00002E98:
00002E98  7000                     moveq.l    D0, 0x00
label00002E9A:
00002E9A  4AAC 0146                tst.l      [A4 + 0x146]
00002E9E  6728                     beq        +0x2A /* 00002EC8 */
00002EA0  7003                     moveq.l    D0, 0x03
00002EA2  2F00                     move.l     -[A7], D0
00002EA4  206C 0146                movea.l    A0, [A4 + 0x146]
00002EA8  2248                     movea.l    A1, A0
00002EAA  2269 0008                movea.l    A1, [A1 + 0x8]
00002EAE  D0E9 0030                add.w      A0, [A1 + 0x30]
00002EB2  2F08                     move.l     -[A7], A0
00002EB4  206C 0146                movea.l    A0, [A4 + 0x146]
00002EB8  2068 0008                movea.l    A0, [A0 + 0x8]
00002EBC  2268 0034                movea.l    A1, [A0 + 0x34]
00002EC0  4E91                     jsr        [A1]
00002EC2  7000                     moveq.l    D0, 0x00
00002EC4  504F                     addq.w     A7, 8
00002EC6  6002                     bra        +0x4 /* 00002ECA */
label00002EC8:
00002EC8  7000                     moveq.l    D0, 0x00
label00002ECA:
00002ECA  206C 014A                movea.l    A0, [A4 + 0x14A]
00002ECE  2050                     movea.l    A0, [A0]
00002ED0  3F10                     move.w     -[A7], [A0]
00002ED2  A936                     syscall    DeleteMenu
00002ED4  206C 014A                movea.l    A0, [A4 + 0x14A]
00002ED8  A023                     syscall    DisposHandle/DisposeHandle
00002EDA  200C                     move.l     D0, A4
00002EDC  6748                     beq        +0x4A /* 00002F26 */
00002EDE  7002                     moveq.l    D0, 0x02
00002EE0  2F00                     move.l     -[A7], D0
00002EE2  486C 0150                pea.l      [A4 + 0x150]
00002EE6  4EAD 15D2                jsr        [A5 + 0x15D2 /* export_694, CODE:32 @ 000029D6 */]
00002EEA  7000                     moveq.l    D0, 0x00
00002EEC  2F00                     move.l     -[A7], D0
00002EEE  2F0C                     move.l     -[A7], A4
00002EF0  4EBA E034                jsr        [PC - 0x1FCC /* 00000F26 */]
00002EF4  7002                     moveq.l    D0, 0x02
00002EF6  C087                     and.l      D0, D7
00002EF8  6718                     beq        +0x1A /* 00002F12 */
00002EFA  7000                     moveq.l    D0, 0x00
00002EFC  2F00                     move.l     -[A7], D0
00002EFE  220C                     move.l     D1, A4
00002F00  D2BC 0000 0282           add.l      D1, 0x282
00002F06  2F01                     move.l     -[A7], D1
00002F08  4EAD 1632                jsr        [A5 + 0x1632 /* export_706, CODE:32 @ 000036CC */]
00002F0C  7000                     moveq.l    D0, 0x00
00002F0E  504F                     addq.w     A7, 8
00002F10  6002                     bra        +0x4 /* 00002F14 */
label00002F12:
00002F12  7000                     moveq.l    D0, 0x00
label00002F14:
00002F14  0807 0000                btst.b     D7, 0x0
00002F18  4FEF 0010                lea.l      A7, [A7 + 0x10]
00002F1C  6708                     beq        +0xA /* 00002F26 */
00002F1E  2F0C                     move.l     -[A7], A4
00002F20  4EAD 0102                jsr        [A5 + 0x102 /* export_28, CODE:1 @ 00001BE0 */]
00002F24  584F                     addq.w     A7, 4
label00002F26:
00002F26  4CEE 1080 FFF8           movem.l    D7,A4, [A6 - 0x8]
00002F2C  4E5E                     unlink     A6
00002F2E  4E75                     rts
00002F30  985F 5F64 745F 5F31 3... dc.b       "__dt__14cPopupMenuItemFv"
export_1026:
00002F4C  4E56 0000                link       A6, 0
00002F50  48E7 0708                movem.l    -[A7], D5,D6,D7,A4
00002F54  286E 0008                movea.l    A4, [A6 + 0x8]
00002F58  3C2E 0012                move.w     D6, [A6 + 0x12]
00002F5C  3E2E 000E                move.w     D7, [A6 + 0xE]
00002F60  6F3E                     ble        +0x40 /* 00002FA0 */
00002F62  558F                     subq.l     A7, 2
00002F64  2F2C 014A                move.l     -[A7], [A4 + 0x14A]
00002F68  A950                     syscall    CountMItems
00002F6A  BE5F                     cmp.w      D7, [A7]+
00002F6C  6E32                     bgt        +0x34 /* 00002FA0 */
00002F6E  7000                     moveq.l    D0, 0x00
00002F70  3006                     move.w     D0, D6
00002F72  0C40 0101                cmpi.w     D0, 0x101
00002F76  650A                     bcs        +0xC /* 00002F82 */
00002F78  7000                     moveq.l    D0, 0x00
00002F7A  3006                     move.w     D0, D6
00002F7C  0C40 01FF                cmpi.w     D0, 0x1FF
00002F80  6304                     bls        +0x6 /* 00002F86 */
label00002F82:
00002F82  4205                     clr.b      D5
00002F84  600C                     bra        +0xE /* 00002F92 */
label00002F86:
00002F86  7000                     moveq.l    D0, 0x00
00002F88  3006                     move.w     D0, D6
00002F8A  2A00                     move.l     D5, D0
00002F8C  9ABC 0000 0100           sub.l      D5, 0x100
label00002F92:
00002F92  2F2C 014A                move.l     -[A7], [A4 + 0x14A]
00002F96  3F07                     move.w     -[A7], D7
00002F98  7000                     moveq.l    D0, 0x00
00002F9A  1005                     move.b     D0, D5
00002F9C  3F00                     move.w     -[A7], D0
00002F9E  A940                     syscall    SetItmIcon
label00002FA0:
00002FA0  4CEE 10E0 FFF0           movem.l    D5,D6,D7,A4, [A6 - 0x10]
00002FA6  4E5E                     unlink     A6
00002FA8  4E75                     rts
00002FAA  8021 5365 7449 7465 6... dc.b       "SetItemIcon__14cPopupMenuItemFsUs"
export_1027:
00002FD0  4E56 0000                link       A6, 0
00002FD4  48E7 1018                movem.l    -[A7], D3,A3,A4
00002FD8  266E 0018                movea.l    A3, [A6 + 0x18]
00002FDC  286E 0008                movea.l    A4, [A6 + 0x8]
00002FE0  200C                     move.l     D0, A4
00002FE2  6612                     bne        +0x14 /* 00002FF6 */
00002FE4  4878 0142                push.l     0x142
00002FE8  4EAD 010A                jsr        [A5 + 0x10A /* export_29, CODE:1 @ 00001C0A */]
00002FEC  2840                     movea.l    A4, D0
00002FEE  200C                     move.l     D0, A4
00002FF0  584F                     addq.w     A7, 4
00002FF2  6700 012E                beq        +0x130 /* 00003122 */
label00002FF6:
00002FF6  4AAE 000C                tst.l      [A6 + 0xC]
00002FFA  57C3                     seq        D3
00002FFC  4403                     neg.b      D3
00002FFE  674E                     beq        +0x50 /* 0000304E */
00003000  200C                     move.l     D0, A4
00003002  D0BC 0000 0136           add.l      D0, 0x136
00003008  2D40 000C                move.l     [A6 + 0xC], D0
0000300C  7601                     moveq.l    D3, 0x01
0000300E  200C                     move.l     D0, A4
00003010  D0BC 0000 0136           add.l      D0, 0x136
00003016  6614                     bne        +0x16 /* 0000302C */
00003018  2F03                     move.l     -[A7], D3
0000301A  700C                     moveq.l    D0, 0x0C
0000301C  2F00                     move.l     -[A7], D0
0000301E  4EAD 010A                jsr        [A5 + 0x10A /* export_29, CODE:1 @ 00001C0A */]
00003022  588F                     addq.l     A7, 4
00003024  261F                     move.l     D3, [A7]+
00003026  4A80                     tst.l      D0
00003028  6602                     bne        +0x4 /* 0000302C */
0000302A  7600                     moveq.l    D3, 0x00
label0000302C:
0000302C  4A03                     tst.b      D3
0000302E  6712                     beq        +0x14 /* 00003042 */
00003030  296D F88E 013E           move.l     [A4 + 0x13E], [A5 - 0x772]
00003036  7000                     moveq.l    D0, 0x00
00003038  2940 0136                move.l     [A4 + 0x136], D0
0000303C  2940 013A                move.l     [A4 + 0x13A], D0
00003040  6002                     bra        +0x4 /* 00003044 */
label00003042:
00003042  7000                     moveq.l    D0, 0x00
label00003044:
00003044  200C                     move.l     D0, A4
00003046  D0BC 0000 0136           add.l      D0, 0x136
0000304C  6004                     bra        +0x6 /* 00003052 */
label0000304E:
0000304E  202E 000C                move.l     D0, [A6 + 0xC]
label00003052:
00003052  2F0B                     move.l     -[A7], A3
00003054  2F2E 0014                move.l     -[A7], [A6 + 0x14]
00003058  2F2E 0010                move.l     -[A7], [A6 + 0x10]
0000305C  2F2E 000C                move.l     -[A7], [A6 + 0xC]
00003060  2F0C                     move.l     -[A7], A4
00003062  4EAD 1B6A                jsr        [A5 + 0x1B6A /* export_873, CODE:35 @ 000007C8 */]
00003066  296D F892 0060           move.l     [A4 + 0x60], [A5 - 0x76E]
0000306C  296D F896 0088           move.l     [A4 + 0x88], [A5 - 0x76A]
00003072  296D F89A 0070           move.l     [A4 + 0x70], [A5 - 0x766]
00003078  206C 0064                movea.l    A0, [A4 + 0x64]
0000307C  216D F89E 0008           move.l     [A0 + 0x8], [A5 - 0x762]
00003082  302B 0006                move.w     D0, [A3 + 0x6]
00003086  48C0                     ext.l      D0
00003088  322B 0002                move.w     D1, [A3 + 0x2]
0000308C  48C1                     ext.l      D1
0000308E  9081                     sub.l      D0, D1
00003090  322B 0004                move.w     D1, [A3 + 0x4]
00003094  48C1                     ext.l      D1
00003096  3413                     move.w     D2, [A3]
00003098  48C2                     ext.l      D2
0000309A  9282                     sub.l      D1, D2
0000309C  B280                     cmp.l      D1, D0
0000309E  4FEF 0014                lea.l      A7, [A7 + 0x14]
000030A2  6C18                     bge        +0x1A /* 000030BC */
000030A4  41EC 0090                lea.l      A0, [A4 + 0x90]
000030A8  224B                     movea.l    A1, A3
000030AA  20D9                     move.l     [A0]+, [A1]+
000030AC  20D9                     move.l     [A0]+, [A1]+
000030AE  302C 0090                move.w     D0, [A4 + 0x90]
000030B2  D07C 0010                add.w      D0, 0x10
000030B6  3940 0094                move.w     [A4 + 0x94], D0
000030BA  6016                     bra        +0x18 /* 000030D2 */
label000030BC:
000030BC  41EC 0090                lea.l      A0, [A4 + 0x90]
000030C0  224B                     movea.l    A1, A3
000030C2  20D9                     move.l     [A0]+, [A1]+
000030C4  20D9                     move.l     [A0]+, [A1]+
000030C6  302C 0092                move.w     D0, [A4 + 0x92]
000030CA  D07C 0010                add.w      D0, 0x10
000030CE  3940 0096                move.w     [A4 + 0x96], D0
label000030D2:
000030D2  598F                     subq.l     A7, 4
000030D4  206E 0014                movea.l    A0, [A6 + 0x14]
000030D8  2F28 0084                move.l     -[A7], [A0 + 0x84]
000030DC  486C 0090                pea.l      [A4 + 0x90]
000030E0  7000                     moveq.l    D0, 0x00
000030E2  2F00                     move.l     -[A7], D0
000030E4  7201                     moveq.l    D1, 0x01
000030E6  1F01                     move.b     -[A7], D1
000030E8  3F2E 0026                move.w     -[A7], [A6 + 0x26]
000030EC  3F2E 001E                move.w     -[A7], [A6 + 0x1E]
000030F0  3F2E 0022                move.w     -[A7], [A6 + 0x22]
000030F4  7010                     moveq.l    D0, 0x10
000030F6  3F00                     move.w     -[A7], D0
000030F8  7000                     moveq.l    D0, 0x00
000030FA  2F00                     move.l     -[A7], D0
000030FC  A954                     syscall    NewControl
000030FE  295F 012A                move.l     [A4 + 0x12A], [A7]+
00003102  397C 0001 0132           move.w     [A4 + 0x132], 0x1
00003108  397C 0008 0134           move.w     [A4 + 0x134], 0x8
0000310E  206C 012A                movea.l    A0, [A4 + 0x12A]
00003112  2050                     movea.l    A0, [A0]
00003114  214C 0024                move.l     [A0 + 0x24], A4
00003118  2F2C 0102                move.l     -[A7], [A4 + 0x102]
0000311C  486C 0090                pea.l      [A4 + 0x90]
00003120  A8DF                     syscall    RectRgn
label00003122:
00003122  200C                     move.l     D0, A4
00003124  4CEE 1808 FFF4           movem.l    D3,A3,A4, [A6 - 0xC]
0000312A  4E5E                     unlink     A6
0000312C  4E75                     rts
0000312E  8035 5F5F 6374 5F5F 3... dc.b       "__ct__17cScrollBarControlFP6cAgentP7cWindowR4RectsN24"
export_1028:
00003168  4E56 FFE6                link       A6, -0x001A
0000316C  48E7 0118                movem.l    -[A7], D7,A3,A4
00003170  47EE FFE6                lea.l      A3, [A6 - 0x1A]
00003174  286E 0008                movea.l    A4, [A6 + 0x8]
00003178  2D6E 0014 FFF2           move.l     [A6 - 0xE], [A6 + 0x14]
0000317E  2D6E 000C FFF6           move.l     [A6 - 0xA], [A6 + 0xC]
00003184  7000                     moveq.l    D0, 0x00
00003186  2D40 FFEE                move.l     [A6 - 0x12], D0
0000318A  3D6E 0012 FFFA           move.w     [A6 - 0x6], [A6 + 0x12]
00003190  558F                     subq.l     A7, 2
00003192  2F2E 000C                move.l     -[A7], [A6 + 0xC]
00003196  206C 0112                movea.l    A0, [A4 + 0x112]
0000319A  2F28 0084                move.l     -[A7], [A0 + 0x84]
0000319E  486E FFFC                pea.l      [A6 - 0x4]
000031A2  A96C                     syscall    FindControl
000031A4  4A5F                     tst.w      [A7]+
000031A6  6700 0086                beq        +0x88 /* 0000322E */
000031AA  202E FFFC                move.l     D0, [A6 - 0x4]
000031AE  B0AC 012A                cmp.l      D0, [A4 + 0x12A]
000031B2  667A                     bne        +0x7C /* 0000322E */
000031B4  558F                     subq.l     A7, 2
000031B6  2F2C 012A                move.l     -[A7], [A4 + 0x12A]
000031BA  2F2E 000C                move.l     -[A7], [A6 + 0xC]
000031BE  A966                     syscall    TestControl
000031C0  3E1F                     move.w     D7, [A7]+
000031C2  0C47 0081                cmpi.w     D7, 0x81
000031C6  6714                     beq        +0x16 /* 000031DC */
000031C8  558F                     subq.l     A7, 2
000031CA  2F2C 012A                move.l     -[A7], [A4 + 0x12A]
000031CE  2F2E 000C                move.l     -[A7], [A6 + 0xC]
000031D2  486D 206A                pea.l      [A5 + 0x206A /* export_1033, CODE:37 @ 000036E2 */]
000031D6  A968                     syscall    TrackControl
000031D8  544F                     addq.w     A7, 2
000031DA  6052                     bra        +0x54 /* 0000322E */
label000031DC:
000031DC  558F                     subq.l     A7, 2
000031DE  2F2C 012A                move.l     -[A7], [A4 + 0x12A]
000031E2  2F2E 000C                move.l     -[A7], [A6 + 0xC]
000031E6  7000                     moveq.l    D0, 0x00
000031E8  2F00                     move.l     -[A7], D0
000031EA  A968                     syscall    TrackControl
000031EC  558F                     subq.l     A7, 2
000031EE  2F2C 012A                move.l     -[A7], [A4 + 0x12A]
000031F2  A961                     syscall    GetControlMinimum/GetMinCtl
000031F4  369F                     move.w     [A3], [A7]+
000031F6  558F                     subq.l     A7, 2
000031F8  2F2C 012A                move.l     -[A7], [A4 + 0x12A]
000031FC  A962                     syscall    GetControlMaximum/GetMaxCtl
000031FE  375F 0002                move.w     [A3 + 0x2], [A7]+
00003202  558F                     subq.l     A7, 2
00003204  2F2C 012A                move.l     -[A7], [A4 + 0x12A]
00003208  A960                     syscall    GetControlValue/GetCtlValue
0000320A  375F 0004                move.w     [A3 + 0x4], [A7]+
0000320E  2F0B                     move.l     -[A7], A3
00003210  2F3C 4742 5433           move.l     -[A7], 0x47425433 /* 'GBT3' */
00003216  204C                     movea.l    A0, A4
00003218  226C 0060                movea.l    A1, [A4 + 0x60]
0000321C  D0E9 0060                add.w      A0, [A1 + 0x60]
00003220  2F08                     move.l     -[A7], A0
00003222  2049                     movea.l    A0, A1
00003224  2268 0064                movea.l    A1, [A0 + 0x64]
00003228  4E91                     jsr        [A1]
0000322A  4FEF 000E                lea.l      A7, [A7 + 0xE]
label0000322E:
0000322E  4CEE 1880 FFDA           movem.l    D7,A3,A4, [A6 - 0x26]
00003234  4E5E                     unlink     A6
00003236  4E75                     rts
00003238  8028 4D6F 7573 6544 6... dc.b       "MouseDown__17cScrollBarControlF5PointlT2"
export_1029:
00003264  4E56 0000                link       A6, 0
00003268  2F0C                     move.l     -[A7], A4
0000326A  286E 0008                movea.l    A4, [A6 + 0x8]
0000326E  302C 0096                move.w     D0, [A4 + 0x96]
00003272  48C0                     ext.l      D0
00003274  322C 0092                move.w     D1, [A4 + 0x92]
00003278  48C1                     ext.l      D1
0000327A  9081                     sub.l      D0, D1
0000327C  7210                     moveq.l    D1, 0x10
0000327E  B280                     cmp.l      D1, D0
00003280  661E                     bne        +0x20 /* 000032A0 */
00003282  302E 0012                move.w     D0, [A6 + 0x12]
00003286  D16C 0094                add.w      [A4 + 0x94], D0
0000328A  2F2C 012A                move.l     -[A7], [A4 + 0x12A]
0000328E  7010                     moveq.l    D0, 0x10
00003290  3F00                     move.w     -[A7], D0
00003292  322C 0094                move.w     D1, [A4 + 0x94]
00003296  926C 0090                sub.w      D1, [A4 + 0x90]
0000329A  3F01                     move.w     -[A7], D1
0000329C  A95C                     syscall    SizeControl
0000329E  601C                     bra        +0x1E /* 000032BC */
label000032A0:
000032A0  302E 000E                move.w     D0, [A6 + 0xE]
000032A4  D16C 0096                add.w      [A4 + 0x96], D0
000032A8  2F2C 012A                move.l     -[A7], [A4 + 0x12A]
000032AC  302C 0096                move.w     D0, [A4 + 0x96]
000032B0  906C 0092                sub.w      D0, [A4 + 0x92]
000032B4  3F00                     move.w     -[A7], D0
000032B6  7010                     moveq.l    D0, 0x10
000032B8  3F00                     move.w     -[A7], D0
000032BA  A95C                     syscall    SizeControl
label000032BC:
000032BC  2F2C 0102                move.l     -[A7], [A4 + 0x102]
000032C0  486C 0090                pea.l      [A4 + 0x90]
000032C4  A8DF                     syscall    RectRgn
000032C6  286E FFFC                movea.l    A4, [A6 - 0x4]
000032CA  4E5E                     unlink     A6
000032CC  4E75                     rts
000032CE  9F52 6573 697A 655F 5... dc.b       "Resize__17cScrollBarControlFsT1"
export_1030:
000032F0  4E56 0000                link       A6, 0
000032F4  48E7 0708                movem.l    -[A7], D5,D6,D7,A4
000032F8  3A2E 0016                move.w     D5, [A6 + 0x16]
000032FC  3C2E 0012                move.w     D6, [A6 + 0x12]
00003300  3E2E 000E                move.w     D7, [A6 + 0xE]
00003304  286E 0008                movea.l    A4, [A6 + 0x8]
00003308  206C 012A                movea.l    A0, [A4 + 0x12A]
0000330C  A069                     syscall    HGetState
0000330E  4A78 0220                tst.w      [0x00000220 /* MemErr */]
00003312  664E                     bne        +0x50 /* 00003362 */
00003314  206C 012A                movea.l    A0, [A4 + 0x12A]
00003318  2050                     movea.l    A0, [A0]
0000331A  BE68 0014                cmp.w      D7, [A0 + 0x14]
0000331E  6618                     bne        +0x1A /* 00003338 */
00003320  206C 012A                movea.l    A0, [A4 + 0x12A]
00003324  2050                     movea.l    A0, [A0]
00003326  BC68 0016                cmp.w      D6, [A0 + 0x16]
0000332A  660C                     bne        +0xE /* 00003338 */
0000332C  206C 012A                movea.l    A0, [A4 + 0x12A]
00003330  2050                     movea.l    A0, [A0]
00003332  BA68 0012                cmp.w      D5, [A0 + 0x12]
00003336  672A                     beq        +0x2C /* 00003362 */
label00003338:
00003338  206C 012A                movea.l    A0, [A4 + 0x12A]
0000333C  2050                     movea.l    A0, [A0]
0000333E  3147 0014                move.w     [A0 + 0x14], D7
00003342  206C 012A                movea.l    A0, [A4 + 0x12A]
00003346  2050                     movea.l    A0, [A0]
00003348  3146 0016                move.w     [A0 + 0x16], D6
0000334C  206C 012A                movea.l    A0, [A4 + 0x12A]
00003350  2050                     movea.l    A0, [A0]
00003352  3145 0012                move.w     [A0 + 0x12], D5
00003356  4A2E 001B                tst.b      [A6 + 0x1B]
0000335A  6706                     beq        +0x8 /* 00003362 */
0000335C  2F2C 012A                move.l     -[A7], [A4 + 0x12A]
00003360  A96D                     syscall    Draw1Control
label00003362:
00003362  4CEE 10E0 FFF0           movem.l    D5,D6,D7,A4, [A6 - 0x10]
00003368  4E5E                     unlink     A6
0000336A  4E75                     rts
0000336C  8023 4861 7264 5365 7... dc.b       "HardSet__17cScrollBarControlFsN21Uc"
fn00003394:
00003394  4E56 FFFA                link       A6, -0x0006
00003398  48E7 0318                movem.l    -[A7], D6,D7,A3,A4
0000339C  3C2E 000E                move.w     D6, [A6 + 0xE]
000033A0  47EE FFFA                lea.l      A3, [A6 - 0x6]
000033A4  286E 0008                movea.l    A4, [A6 + 0x8]
000033A8  4A46                     tst.w      D6
000033AA  6700 019A                beq        +0x19C /* 00003546 */
000033AE  3006                     move.w     D0, D6
000033B0  0440 0014                subi.w     D0, 0x14
000033B4  6B00 0120                bmi        +0x122 /* 000034D6 */
000033B8  0C40 0003                cmpi.w     D0, 0x3
000033BC  6E00 0118                bgt        +0x11A /* 000034D6 */
000033C0  D040                     add.w      D0, D0
000033C2  303B 0006                move.w     D0, [PC + D0.w + 0x6]
000033C6  4EFB 0000                jmp        [PC + D0.w]
000033CA  000A 0042                ori.b      A2, 0x42 /* 'B' */
000033CE  0090 00C4 558F           ori.l      [A0], 0xC4558F
000033D4  2F2C 012A                move.l     -[A7], [A4 + 0x12A]
000033D8  A960                     syscall    GetControlValue/GetCtlValue
000033DA  301F                     move.w     D0, [A7]+
000033DC  B06C 0132                cmp.w      D0, [A4 + 0x132]
000033E0  6F1A                     ble        +0x1C /* 000033FC */
000033E2  2F2C 012A                move.l     -[A7], [A4 + 0x12A]
000033E6  558F                     subq.l     A7, 2
000033E8  2F2C 012A                move.l     -[A7], [A4 + 0x12A]
000033EC  A960                     syscall    GetControlValue/GetCtlValue
000033EE  301F                     move.w     D0, [A7]+
000033F0  906C 0132                sub.w      D0, [A4 + 0x132]
000033F4  3F00                     move.w     -[A7], D0
000033F6  A963                     syscall    SetControlValue/SetCtlValue
000033F8  6000 00DC                bra        +0xDE /* 000034D6 */
label000033FC:
000033FC  2F2C 012A                move.l     -[A7], [A4 + 0x12A]
00003400  7001                     moveq.l    D0, 0x01
00003402  3F00                     move.w     -[A7], D0
00003404  A963                     syscall    SetControlValue/SetCtlValue
00003406  6000 00CE                bra        +0xD0 /* 000034D6 */
0000340A  558F                     subq.l     A7, 2
0000340C  2F2C 012A                move.l     -[A7], [A4 + 0x12A]
00003410  A960                     syscall    GetControlValue/GetCtlValue
00003412  558F                     subq.l     A7, 2
00003414  2F2C 012A                move.l     -[A7], [A4 + 0x12A]
00003418  A962                     syscall    GetControlMaximum/GetMaxCtl
0000341A  301F                     move.w     D0, [A7]+
0000341C  48C0                     ext.l      D0
0000341E  322C 0132                move.w     D1, [A4 + 0x132]
00003422  48C1                     ext.l      D1
00003424  9081                     sub.l      D0, D1
00003426  321F                     move.w     D1, [A7]+
00003428  48C1                     ext.l      D1
0000342A  B081                     cmp.l      D0, D1
0000342C  6D1A                     blt        +0x1C /* 00003448 */
0000342E  2F2C 012A                move.l     -[A7], [A4 + 0x12A]
00003432  558F                     subq.l     A7, 2
00003434  2F2C 012A                move.l     -[A7], [A4 + 0x12A]
00003438  A960                     syscall    GetControlValue/GetCtlValue
0000343A  302C 0132                move.w     D0, [A4 + 0x132]
0000343E  D05F                     add.w      D0, [A7]+
00003440  3F00                     move.w     -[A7], D0
00003442  A963                     syscall    SetControlValue/SetCtlValue
00003444  6000 0090                bra        +0x92 /* 000034D6 */
label00003448:
00003448  2F2C 012A                move.l     -[A7], [A4 + 0x12A]
0000344C  558F                     subq.l     A7, 2
0000344E  2F2C 012A                move.l     -[A7], [A4 + 0x12A]
00003452  A962                     syscall    GetControlMaximum/GetMaxCtl
00003454  A963                     syscall    SetControlValue/SetCtlValue
00003456  607E                     bra        +0x80 /* 000034D6 */
00003458  558F                     subq.l     A7, 2
0000345A  2F2C 012A                move.l     -[A7], [A4 + 0x12A]
0000345E  A960                     syscall    GetControlValue/GetCtlValue
00003460  301F                     move.w     D0, [A7]+
00003462  B06C 0134                cmp.w      D0, [A4 + 0x134]
00003466  6F18                     ble        +0x1A /* 00003480 */
00003468  2F2C 012A                move.l     -[A7], [A4 + 0x12A]
0000346C  558F                     subq.l     A7, 2
0000346E  2F2C 012A                move.l     -[A7], [A4 + 0x12A]
00003472  A960                     syscall    GetControlValue/GetCtlValue
00003474  301F                     move.w     D0, [A7]+
00003476  906C 0134                sub.w      D0, [A4 + 0x134]
0000347A  3F00                     move.w     -[A7], D0
0000347C  A963                     syscall    SetControlValue/SetCtlValue
0000347E  6056                     bra        +0x58 /* 000034D6 */
label00003480:
00003480  2F2C 012A                move.l     -[A7], [A4 + 0x12A]
00003484  7001                     moveq.l    D0, 0x01
00003486  3F00                     move.w     -[A7], D0
00003488  A963                     syscall    SetControlValue/SetCtlValue
0000348A  604A                     bra        +0x4C /* 000034D6 */
0000348C  558F                     subq.l     A7, 2
0000348E  2F2C 012A                move.l     -[A7], [A4 + 0x12A]
00003492  A960                     syscall    GetControlValue/GetCtlValue
00003494  558F                     subq.l     A7, 2
00003496  2F2C 012A                move.l     -[A7], [A4 + 0x12A]
0000349A  A962                     syscall    GetControlMaximum/GetMaxCtl
0000349C  301F                     move.w     D0, [A7]+
0000349E  48C0                     ext.l      D0
000034A0  322C 0134                move.w     D1, [A4 + 0x134]
000034A4  48C1                     ext.l      D1
000034A6  9081                     sub.l      D0, D1
000034A8  321F                     move.w     D1, [A7]+
000034AA  48C1                     ext.l      D1
000034AC  B081                     cmp.l      D0, D1
000034AE  6D18                     blt        +0x1A /* 000034C8 */
000034B0  2F2C 012A                move.l     -[A7], [A4 + 0x12A]
000034B4  558F                     subq.l     A7, 2
000034B6  2F2C 012A                move.l     -[A7], [A4 + 0x12A]
000034BA  A960                     syscall    GetControlValue/GetCtlValue
000034BC  302C 0134                move.w     D0, [A4 + 0x134]
000034C0  D05F                     add.w      D0, [A7]+
000034C2  3F00                     move.w     -[A7], D0
000034C4  A963                     syscall    SetControlValue/SetCtlValue
000034C6  600E                     bra        +0x10 /* 000034D6 */
label000034C8:
000034C8  2F2C 012A                move.l     -[A7], [A4 + 0x12A]
000034CC  558F                     subq.l     A7, 2
000034CE  2F2C 012A                move.l     -[A7], [A4 + 0x12A]
000034D2  A962                     syscall    GetControlMaximum/GetMaxCtl
000034D4  A963                     syscall    SetControlValue/SetCtlValue
label000034D6:
000034D6  558F                     subq.l     A7, 2
000034D8  2F2C 012A                move.l     -[A7], [A4 + 0x12A]
000034DC  A961                     syscall    GetControlMinimum/GetMinCtl
000034DE  369F                     move.w     [A3], [A7]+
000034E0  558F                     subq.l     A7, 2
000034E2  2F2C 012A                move.l     -[A7], [A4 + 0x12A]
000034E6  A962                     syscall    GetControlMaximum/GetMaxCtl
000034E8  375F 0002                move.w     [A3 + 0x2], [A7]+
000034EC  558F                     subq.l     A7, 2
000034EE  2F2C 012A                move.l     -[A7], [A4 + 0x12A]
000034F2  A960                     syscall    GetControlValue/GetCtlValue
000034F4  375F 0004                move.w     [A3 + 0x4], [A7]+
000034F8  2F0B                     move.l     -[A7], A3
000034FA  2F3C 4742 5433           move.l     -[A7], 0x47425433 /* 'GBT3' */
00003500  204C                     movea.l    A0, A4
00003502  226C 0060                movea.l    A1, [A4 + 0x60]
00003506  D0E9 0060                add.w      A0, [A1 + 0x60]
0000350A  2F08                     move.l     -[A7], A0
0000350C  2049                     movea.l    A0, A1
0000350E  2268 0064                movea.l    A1, [A0 + 0x64]
00003512  4E91                     jsr        [A1]
00003514  4A2E 0013                tst.b      [A6 + 0x13]
00003518  4FEF 000C                lea.l      A7, [A7 + 0xC]
0000351C  6728                     beq        +0x2A /* 00003546 */
0000351E  598F                     subq.l     A7, 4
00003520  A975                     syscall    TickCount
00003522  2E1F                     move.l     D7, [A7]+
00003524  5C87                     addq.l     D7, 6
00003526  48C6                     ext.l      D6
00003528  2F06                     move.l     -[A7], D6
0000352A  2F0C                     move.l     -[A7], A4
0000352C  4EAD 1B52                jsr        [A5 + 0x1B52 /* export_870, CODE:35 @ 000006F8 */]
00003530  504F                     addq.w     A7, 8
label00003532:
00003532  598F                     subq.l     A7, 4
00003534  A975                     syscall    TickCount
00003536  BE9F                     cmp.l      D7, [A7]+
00003538  64F8                     bcc        -0x6 /* 00003532 */
0000353A  7000                     moveq.l    D0, 0x00
0000353C  2F00                     move.l     -[A7], D0
0000353E  2F0C                     move.l     -[A7], A4
00003540  4EAD 1B52                jsr        [A5 + 0x1B52 /* export_870, CODE:35 @ 000006F8 */]
00003544  504F                     addq.w     A7, 8
label00003546:
00003546  4CEE 18C0 FFEA           movem.l    D6,D7,A3,A4, [A6 - 0x16]
0000354C  4E5E                     unlink     A6
0000354E  4E75                     rts
00003550  8022 446F 5061 7274 4... dc.b       "DoPartHit__17cScrollBarControlFsUc"
export_1031:
00003576  4E56 0000                link       A6, 0
0000357A  48E7 0108                movem.l    -[A7], D7,A4
0000357E  2E2E 000C                move.l     D7, [A6 + 0xC]
00003582  286E 0008                movea.l    A4, [A6 + 0x8]
00003586  200C                     move.l     D0, A4
00003588  675A                     beq        +0x5C /* 000035E4 */
0000358A  206C 0064                movea.l    A0, [A4 + 0x64]
0000358E  216D F89E 0008           move.l     [A0 + 0x8], [A5 - 0x762]
00003594  296D F89A 0070           move.l     [A4 + 0x70], [A5 - 0x766]
0000359A  296D F896 0088           move.l     [A4 + 0x88], [A5 - 0x76A]
000035A0  296D F892 0060           move.l     [A4 + 0x60], [A5 - 0x76E]
000035A6  200C                     move.l     D0, A4
000035A8  673A                     beq        +0x3C /* 000035E4 */
000035AA  7000                     moveq.l    D0, 0x00
000035AC  2F00                     move.l     -[A7], D0
000035AE  2F0C                     move.l     -[A7], A4
000035B0  4EAD 1B3A                jsr        [A5 + 0x1B3A /* export_867, CODE:35 @ 000005B2 */]
000035B4  7002                     moveq.l    D0, 0x02
000035B6  C087                     and.l      D0, D7
000035B8  6718                     beq        +0x1A /* 000035D2 */
000035BA  7000                     moveq.l    D0, 0x00
000035BC  2F00                     move.l     -[A7], D0
000035BE  220C                     move.l     D1, A4
000035C0  D2BC 0000 0136           add.l      D1, 0x136
000035C6  2F01                     move.l     -[A7], D1
000035C8  4EAD 1632                jsr        [A5 + 0x1632 /* export_706, CODE:32 @ 000036CC */]
000035CC  7000                     moveq.l    D0, 0x00
000035CE  504F                     addq.w     A7, 8
000035D0  6002                     bra        +0x4 /* 000035D4 */
label000035D2:
000035D2  7000                     moveq.l    D0, 0x00
label000035D4:
000035D4  0807 0000                btst.b     D7, 0x0
000035D8  504F                     addq.w     A7, 8
000035DA  6708                     beq        +0xA /* 000035E4 */
000035DC  2F0C                     move.l     -[A7], A4
000035DE  4EAD 0102                jsr        [A5 + 0x102 /* export_28, CODE:1 @ 00001BE0 */]
000035E2  584F                     addq.w     A7, 4
label000035E4:
000035E4  4CEE 1080 FFF8           movem.l    D7,A4, [A6 - 0x8]
000035EA  4E5E                     unlink     A6
000035EC  4E75                     rts
000035EE  9B5F 5F64 745F 5F31 3... dc.b       "__dt__17cScrollBarControlFv"
export_1032:
0000360C  4E56 0000                link       A6, 0
00003610  48E7 0308                movem.l    -[A7], D6,D7,A4
00003614  3C2E 0012                move.w     D6, [A6 + 0x12]
00003618  3E2E 000E                move.w     D7, [A6 + 0xE]
0000361C  286E 0008                movea.l    A4, [A6 + 0x8]
00003620  302C 0094                move.w     D0, [A4 + 0x94]
00003624  906C 0090                sub.w      D0, [A4 + 0x90]
00003628  322C 0096                move.w     D1, [A4 + 0x96]
0000362C  926C 0092                sub.w      D1, [A4 + 0x92]
00003630  B240                     cmp.w      D1, D0
00003632  6C3E                     bge        +0x40 /* 00003672 */
00003634  7000                     moveq.l    D0, 0x00
00003636  2F00                     move.l     -[A7], D0
00003638  48C7                     ext.l      D7
0000363A  2F07                     move.l     -[A7], D7
0000363C  204C                     movea.l    A0, A4
0000363E  226C 0060                movea.l    A1, [A4 + 0x60]
00003642  D0E9 0110                add.w      A0, [A1 + 0x110]
00003646  2F08                     move.l     -[A7], A0
00003648  2049                     movea.l    A0, A1
0000364A  2268 0114                movea.l    A1, [A0 + 0x114]
0000364E  4E91                     jsr        [A1]
00003650  48C6                     ext.l      D6
00003652  2F06                     move.l     -[A7], D6
00003654  7000                     moveq.l    D0, 0x00
00003656  2F00                     move.l     -[A7], D0
00003658  204C                     movea.l    A0, A4
0000365A  226C 0060                movea.l    A1, [A4 + 0x60]
0000365E  D0E9 0118                add.w      A0, [A1 + 0x118]
00003662  2F08                     move.l     -[A7], A0
00003664  2049                     movea.l    A0, A1
00003666  2268 011C                movea.l    A1, [A0 + 0x11C]
0000366A  4E91                     jsr        [A1]
0000366C  4FEF 0018                lea.l      A7, [A7 + 0x18]
00003670  603C                     bra        +0x3E /* 000036AE */
label00003672:
00003672  48C6                     ext.l      D6
00003674  2F06                     move.l     -[A7], D6
00003676  7000                     moveq.l    D0, 0x00
00003678  2F00                     move.l     -[A7], D0
0000367A  204C                     movea.l    A0, A4
0000367C  226C 0060                movea.l    A1, [A4 + 0x60]
00003680  D0E9 0110                add.w      A0, [A1 + 0x110]
00003684  2F08                     move.l     -[A7], A0
00003686  2049                     movea.l    A0, A1
00003688  2268 0114                movea.l    A1, [A0 + 0x114]
0000368C  4E91                     jsr        [A1]
0000368E  7000                     moveq.l    D0, 0x00
00003690  2F00                     move.l     -[A7], D0
00003692  48C7                     ext.l      D7
00003694  2F07                     move.l     -[A7], D7
00003696  204C                     movea.l    A0, A4
00003698  226C 0060                movea.l    A1, [A4 + 0x60]
0000369C  D0E9 0118                add.w      A0, [A1 + 0x118]
000036A0  2F08                     move.l     -[A7], A0
000036A2  2049                     movea.l    A0, A1
000036A4  2268 011C                movea.l    A1, [A0 + 0x11C]
000036A8  4E91                     jsr        [A1]
000036AA  4FEF 0018                lea.l      A7, [A7 + 0x18]
label000036AE:
000036AE  4CEE 10C0 FFF4           movem.l    D6,D7,A4, [A6 - 0xC]
000036B4  4E5E                     unlink     A6
000036B6  4E75                     rts
000036B8  8026 5061 7265 6E74 5... dc.b       "ParentResized__17cScrollBarControlFsT1"
export_1033:
000036E2  4E56 0000                link       A6, 0
000036E6  2F0C                     move.l     -[A7], A4
000036E8  206E 000A                movea.l    A0, [A6 + 0xA]
000036EC  2050                     movea.l    A0, [A0]
000036EE  2868 0024                movea.l    A4, [A0 + 0x24]
000036F2  7000                     moveq.l    D0, 0x00
000036F4  2F00                     move.l     -[A7], D0
000036F6  322E 0008                move.w     D1, [A6 + 0x8]
000036FA  48C1                     ext.l      D1
000036FC  2F01                     move.l     -[A7], D1
000036FE  2F0C                     move.l     -[A7], A4
00003700  4EBA FC92                jsr        [PC - 0x36E /* 00003394 */]
00003704  286E FFFC                movea.l    A4, [A6 - 0x4]
00003708  4E5E                     unlink     A6
0000370A  4E74 0006                rtd        0x0006
0000370E  8E54 5241 434B 5343 5... dc.b       "TRACKSCROLLBAR"
export_1034:
00003720  4E56 0000                link       A6, 0
00003724  48E7 0108                movem.l    -[A7], D7,A4
00003728  2E2E 000C                move.l     D7, [A6 + 0xC]
0000372C  286E 0008                movea.l    A4, [A6 + 0x8]
00003730  200C                     move.l     D0, A4
00003732  675A                     beq        +0x5C /* 0000378E */
00003734  296D F8E6 0088           move.l     [A4 + 0x88], [A5 - 0x71A]
0000373A  296D F8E2 0070           move.l     [A4 + 0x70], [A5 - 0x71E]
00003740  206C 0064                movea.l    A0, [A4 + 0x64]
00003744  216D F8DE 0008           move.l     [A0 + 0x8], [A5 - 0x722]
0000374A  296D F8DA 0060           move.l     [A4 + 0x60], [A5 - 0x726]
00003750  200C                     move.l     D0, A4
00003752  673A                     beq        +0x3C /* 0000378E */
00003754  7000                     moveq.l    D0, 0x00
00003756  2F00                     move.l     -[A7], D0
00003758  2F0C                     move.l     -[A7], A4
0000375A  4EAD 225A                jsr        [A5 + 0x225A /* export_1095, CODE:40 @ 000031B0 */]
0000375E  7002                     moveq.l    D0, 0x02
00003760  C087                     and.l      D0, D7
00003762  6718                     beq        +0x1A /* 0000377C */
00003764  7000                     moveq.l    D0, 0x00
00003766  2F00                     move.l     -[A7], D0
00003768  220C                     move.l     D1, A4
0000376A  D2BC 0000 01FC           add.l      D1, 0x1FC
00003770  2F01                     move.l     -[A7], D1
00003772  4EAD 1632                jsr        [A5 + 0x1632 /* export_706, CODE:32 @ 000036CC */]
00003776  7000                     moveq.l    D0, 0x00
00003778  504F                     addq.w     A7, 8
0000377A  6002                     bra        +0x4 /* 0000377E */
label0000377C:
0000377C  7000                     moveq.l    D0, 0x00
label0000377E:
0000377E  0807 0000                btst.b     D7, 0x0
00003782  504F                     addq.w     A7, 8
00003784  6708                     beq        +0xA /* 0000378E */
00003786  2F0C                     move.l     -[A7], A4
00003788  4EAD 0102                jsr        [A5 + 0x102 /* export_28, CODE:1 @ 00001BE0 */]
0000378C  584F                     addq.w     A7, 4
label0000378E:
0000378E  4CEE 1080 FFF8           movem.l    D7,A4, [A6 - 0x8]
00003794  4E5E                     unlink     A6
00003796  4E75                     rts
00003798  9B5F 5F64 745F 5F31 3... dc.b       "__dt__17cHScrollerDocItemFv"
export_1035:
000037B6  4E56 FFF8                link       A6, -0x0008
000037BA  2F0C                     move.l     -[A7], A4
000037BC  286E 0008                movea.l    A4, [A6 + 0x8]
000037C0  41EE FFF8                lea.l      A0, [A6 - 0x8]
000037C4  43EC 0090                lea.l      A1, [A4 + 0x90]
000037C8  20D9                     move.l     [A0]+, [A1]+
000037CA  20D9                     move.l     [A0]+, [A1]+
000037CC  2F2C 0112                move.l     -[A7], [A4 + 0x112]
000037D0  4EAD 11E2                jsr        [A5 + 0x11E2 /* export_568, CODE:26 @ 000031FA */]
000037D4  0CAD 0000 0200 F29A      cmpi.l     [A5 - 0xD66], 0x200
000037DC  584F                     addq.w     A7, 4
000037DE  6D0C                     blt        +0xE /* 000037EC */
000037E0  486C 009A                pea.l      [A4 + 0x9A]
000037E4  AA14                     syscall    RGBForeColor
000037E6  486C 00CC                pea.l      [A4 + 0xCC]
000037EA  AA15                     syscall    RGBBackColor
label000037EC:
000037EC  486E FFF8                pea.l      [A6 - 0x8]
000037F0  A8A3                     syscall    EraseRect
000037F2  2F2C 0112                move.l     -[A7], [A4 + 0x112]
000037F6  4EAD 11EA                jsr        [A5 + 0x11EA /* export_569, CODE:26 @ 00003268 */]
000037FA  2F0C                     move.l     -[A7], A4
000037FC  4EBA E9D2                jsr        [PC - 0x162E /* 000021D0 */]
00003800  7000                     moveq.l    D0, 0x00
00003802  2F00                     move.l     -[A7], D0
00003804  2F00                     move.l     -[A7], D0
00003806  486C 020E                pea.l      [A4 + 0x20E]
0000380A  486C 01C4                pea.l      [A4 + 0x1C4]
0000380E  4EAD 193A                jsr        [A5 + 0x193A /* export_803, CODE:33 @ 00001176 */]
00003812  4FEF 0018                lea.l      A7, [A7 + 0x18]
00003816  286E FFF4                movea.l    A4, [A6 - 0xC]
0000381A  4E5E                     unlink     A6
0000381C  4E75                     rts
0000381E  9844 7261 775F 5F31 3... dc.b       "Draw__14cBoxStaticTextFv"
export_1036:
0000383A  4E56 0000                link       A6, 0
0000383E  48E7 0108                movem.l    -[A7], D7,A4
00003842  2E2E 000C                move.l     D7, [A6 + 0xC]
00003846  286E 0008                movea.l    A4, [A6 + 0x8]
0000384A  200C                     move.l     D0, A4
0000384C  6774                     beq        +0x76 /* 000038C2 */
0000384E  206C 0064                movea.l    A0, [A4 + 0x64]
00003852  216D FDF0 0008           move.l     [A0 + 0x8], [A5 - 0x210]
00003858  296D FDEC 0070           move.l     [A4 + 0x70], [A5 - 0x214]
0000385E  296D FDE8 0088           move.l     [A4 + 0x88], [A5 - 0x218]
00003864  296D FDE4 01CC           move.l     [A4 + 0x1CC], [A5 - 0x21C]
0000386A  296D FDE0 0060           move.l     [A4 + 0x60], [A5 - 0x220]
00003870  200C                     move.l     D0, A4
00003872  674E                     beq        +0x50 /* 000038C2 */
00003874  7000                     moveq.l    D0, 0x00
00003876  2F00                     move.l     -[A7], D0
00003878  220C                     move.l     D1, A4
0000387A  D2BC 0000 01C4           add.l      D1, 0x1C4
00003880  2F01                     move.l     -[A7], D1
00003882  4EAD 192A                jsr        [A5 + 0x192A /* export_801, CODE:33 @ 00001084 */]
00003886  7000                     moveq.l    D0, 0x00
00003888  2F00                     move.l     -[A7], D0
0000388A  2F0C                     move.l     -[A7], A4
0000388C  4EBA E882                jsr        [PC - 0x177E /* 00002110 */]
00003890  7002                     moveq.l    D0, 0x02
00003892  C087                     and.l      D0, D7
00003894  6718                     beq        +0x1A /* 000038AE */
00003896  7000                     moveq.l    D0, 0x00
00003898  2F00                     move.l     -[A7], D0
0000389A  220C                     move.l     D1, A4
0000389C  D2BC 0000 0216           add.l      D1, 0x216
000038A2  2F01                     move.l     -[A7], D1
000038A4  4EAD 1632                jsr        [A5 + 0x1632 /* export_706, CODE:32 @ 000036CC */]
000038A8  7000                     moveq.l    D0, 0x00
000038AA  504F                     addq.w     A7, 8
000038AC  6002                     bra        +0x4 /* 000038B0 */
label000038AE:
000038AE  7000                     moveq.l    D0, 0x00
label000038B0:
000038B0  0807 0000                btst.b     D7, 0x0
000038B4  4FEF 0010                lea.l      A7, [A7 + 0x10]
000038B8  6708                     beq        +0xA /* 000038C2 */
000038BA  2F0C                     move.l     -[A7], A4
000038BC  4EAD 0102                jsr        [A5 + 0x102 /* export_28, CODE:1 @ 00001BE0 */]
000038C0  584F                     addq.w     A7, 4
label000038C2:
000038C2  4CEE 1080 FFF8           movem.l    D7,A4, [A6 - 0x8]
000038C8  4E5E                     unlink     A6
000038CA  4E75                     rts
000038CC  985F 5F64 745F 5F31 3... dc.b       "__dt__14cBoxStaticTextFv"
export_1037:
000038E8  4E56 FFF4                link       A6, -0x000C
000038EC  2F0C                     move.l     -[A7], A4
000038EE  286E 0008                movea.l    A4, [A6 + 0x8]
000038F2  2D6E 000C FFF4           move.l     [A6 - 0xC], [A6 + 0xC]
000038F8  2D6E 0010 FFFC           move.l     [A6 - 0x4], [A6 + 0x10]
000038FE  2D6E 0014 FFF8           move.l     [A6 - 0x8], [A6 + 0x14]
00003904  302C 0130                move.w     D0, [A4 + 0x130]
00003908  D06C 0092                add.w      D0, [A4 + 0x92]
0000390C  916E FFF6                sub.w      [A6 - 0xA], D0
00003910  302C 012E                move.w     D0, [A4 + 0x12E]
00003914  D06C 0090                add.w      D0, [A4 + 0x90]
00003918  916E FFF4                sub.w      [A6 - 0xC], D0
0000391C  486E FFF4                pea.l      [A6 - 0xC]
00003920  2F3C 4742 5453           move.l     -[A7], 0x47425453 /* 'GBTS' */
00003926  204C                     movea.l    A0, A4
00003928  226C 0060                movea.l    A1, [A4 + 0x60]
0000392C  D0E9 0060                add.w      A0, [A1 + 0x60]
00003930  2F08                     move.l     -[A7], A0
00003932  2049                     movea.l    A0, A1
00003934  2268 0064                movea.l    A1, [A0 + 0x64]
00003938  4E91                     jsr        [A1]
0000393A  286E FFF0                movea.l    A4, [A6 - 0x10]
0000393E  4E5E                     unlink     A6
00003940  4E75                     rts
00003942  8023 4D6F 7573 6544 6... dc.b       "MouseDown__12cNotepadItemF5PointlT2"
