# near model CODE resource
# jump table entries: 1192-1192 (1 of them)
export_149:
00000000  4E56 FFFE                link       A6, -0x0002
00000004  48E7 1F00                movem.l    -[A7], D3,D4,D5,D6,D7
00000008  3C2E 0012                move.w     D6, [A6 + 0x12]
0000000C  3E2E 000E                move.w     D7, [A6 + 0xE]
00000010  7000                     moveq.l    D0, 0x00
00000012  102E 000B                move.b     D0, [A6 + 0xB]
00000016  4A80                     tst.l      D0
00000018  6600 0624                bne        +0x626 /* 0000063E */
0000001C  48C6                     ext.l      D6
0000001E  2F06                     move.l     -[A7], D6
00000020  48C7                     ext.l      D7
00000022  2F07                     move.l     -[A7], D7
00000024  4EAD 0542                jsr        [A5 + 0x542 /* export_164, CODE:10 @ 00000000 */]
00000028  204D                     movea.l    A0, A5
0000002A  D1FC FFFD AE08           add.l      A0, 0xFFFDAE08
00000030  3080                     move.w     [A0], D0
00000032  504F                     addq.w     A7, 8
00000034  6700 00D4                beq        +0xD6 /* 0000010A */
00000038  204D                     movea.l    A0, A5
0000003A  D1FC FFFD AE08           add.l      A0, 0xFFFDAE08
00000040  3A10                     move.w     D5, [A0]
00000042  2005                     move.l     D0, D5
00000044  C1FC 003A                muls.w     D0, 0x3A /* ':' */
00000048  204D                     movea.l    A0, A5
0000004A  D1FC FFFE 9F9C           add.l      A0, 0xFFFE9F9C
00000050  7200                     moveq.l    D1, 0x00
00000052  3230 0002                move.w     D1, [A0 + D0.w + 0x2]
00000056  7003                     moveq.l    D0, 0x03
00000058  C041                     and.w      D0, D1
0000005A  671E                     beq        +0x20 /* 0000007A */
0000005C  703E                     moveq.l    D0, 0x3E
0000005E  2F00                     move.l     -[A7], D0
00000060  4EAD 032A                jsr        [A5 + 0x32A /* export_97, CODE:5 @ 00000560 */]
00000064  204D                     movea.l    A0, A5
00000066  D1FC FFFD AD72           add.l      A0, 0xFFFDAD72
0000006C  4850                     pea.l      [A0]
0000006E  4EAD 0742                jsr        [A5 + 0x742 /* export_228, CODE:12 @ 000045BA */]
00000072  7000                     moveq.l    D0, 0x00
00000074  504F                     addq.w     A7, 8
00000076  6000 1A28                bra        +0x1A2A /* 00001AA0 */
label0000007A:
0000007A  204D                     movea.l    A0, A5
0000007C  D1FC FFFD AE02           add.l      A0, 0xFFFDAE02
00000082  4250                     clr.w      [A0]
00000084  7001                     moveq.l    D0, 0x01
00000086  2F00                     move.l     -[A7], D0
00000088  2F00                     move.l     -[A7], D0
0000008A  48C6                     ext.l      D6
0000008C  2F06                     move.l     -[A7], D6
0000008E  48C7                     ext.l      D7
00000090  2F07                     move.l     -[A7], D7
00000092  4EAD 0932                jsr        [A5 + 0x932 /* export_290, CODE:16 @ 00000802 */]
00000096  204D                     movea.l    A0, A5
00000098  D1FC FFFD AE06           add.l      A0, 0xFFFDAE06
0000009E  3080                     move.w     [A0], D0
000000A0  204D                     movea.l    A0, A5
000000A2  D1FC FFFD AE06           add.l      A0, 0xFFFDAE06
000000A8  4A50                     tst.w      [A0]
000000AA  4FEF 0010                lea.l      A7, [A7 + 0x10]
000000AE  6738                     beq        +0x3A /* 000000E8 */
000000B0  204D                     movea.l    A0, A5
000000B2  D1FC FFFD AE06           add.l      A0, 0xFFFDAE06
000000B8  3010                     move.w     D0, [A0]
000000BA  C1FC 0046                muls.w     D0, 0x46 /* 'F' */
000000BE  204D                     movea.l    A0, A5
000000C0  D1FC FFFE D880           add.l      A0, 0xFFFED880
000000C6  7200                     moveq.l    D1, 0x00
000000C8  3230 0002                move.w     D1, [A0 + D0.w + 0x2]
000000CC  7001                     moveq.l    D0, 0x01
000000CE  C041                     and.w      D0, D1
000000D0  6616                     bne        +0x18 /* 000000E8 */
000000D2  204D                     movea.l    A0, A5
000000D4  D1FC FFFD AD7C           add.l      A0, 0xFFFDAD7C
000000DA  4850                     pea.l      [A0]
000000DC  4EAD 0742                jsr        [A5 + 0x742 /* export_228, CODE:12 @ 000045BA */]
000000E0  7000                     moveq.l    D0, 0x00
000000E2  584F                     addq.w     A7, 4
000000E4  6000 19BA                bra        +0x19BC /* 00001AA0 */
label000000E8:
000000E8  204D                     movea.l    A0, A5
000000EA  D1FC FFFD AE00           add.l      A0, 0xFFFDAE00
000000F0  3087                     move.w     [A0], D7
000000F2  204D                     movea.l    A0, A5
000000F4  D1FC FFFD ADFE           add.l      A0, 0xFFFDADFE
000000FA  3086                     move.w     [A0], D6
000000FC  7007                     moveq.l    D0, 0x07
000000FE  2F00                     move.l     -[A7], D0
00000100  4EAD 032A                jsr        [A5 + 0x32A /* export_97, CODE:5 @ 00000560 */]
00000104  584F                     addq.w     A7, 4
00000106  6000 0530                bra        +0x532 /* 00000638 */
label0000010A:
0000010A  48C6                     ext.l      D6
0000010C  2F06                     move.l     -[A7], D6
0000010E  48C7                     ext.l      D7
00000110  2F07                     move.l     -[A7], D7
00000112  4EAD 090A                jsr        [A5 + 0x90A /* export_285, CODE:16 @ 00000220 */]
00000116  204D                     movea.l    A0, A5
00000118  D1FC FFFD AE08           add.l      A0, 0xFFFDAE08
0000011E  3080                     move.w     [A0], D0
00000120  504F                     addq.w     A7, 8
00000122  6700 0092                beq        +0x94 /* 000001B6 */
00000126  204D                     movea.l    A0, A5
00000128  D1FC FFFD AE08           add.l      A0, 0xFFFDAE08
0000012E  3810                     move.w     D4, [A0]
00000130  204D                     movea.l    A0, A5
00000132  D1FC FFFD AE02           add.l      A0, 0xFFFDAE02
00000138  30BC 00DC                move.w     [A0], 0xDC
0000013C  204D                     movea.l    A0, A5
0000013E  D1FC FFFD AE08           add.l      A0, 0xFFFDAE08
00000144  3010                     move.w     D0, [A0]
00000146  48C0                     ext.l      D0
00000148  E588                     lsl        D0, 2
0000014A  2200                     move.l     D1, D0
0000014C  E588                     lsl        D0, 2
0000014E  D081                     add.l      D0, D1
00000150  204D                     movea.l    A0, A5
00000152  D1FC FFFE 8AF0           add.l      A0, 0xFFFE8AF0
00000158  3030 0000                move.w     D0, [A0 + D0.w]
0000015C  48C0                     ext.l      D0
0000015E  C1FC 0012                muls.w     D0, 0x12
00000162  204D                     movea.l    A0, A5
00000164  D1FC FFFE 8A04           add.l      A0, 0xFFFE8A04
0000016A  D0C0                     add.w      A0, D0
0000016C  224D                     movea.l    A1, A5
0000016E  D3FC FFFD AE0A           add.l      A1, 0xFFFDAE0A
00000174  2288                     move.l     [A1], A0
00000176  7001                     moveq.l    D0, 0x01
00000178  2F00                     move.l     -[A7], D0
0000017A  2F00                     move.l     -[A7], D0
0000017C  48C6                     ext.l      D6
0000017E  2F06                     move.l     -[A7], D6
00000180  48C7                     ext.l      D7
00000182  2F07                     move.l     -[A7], D7
00000184  4EAD 0932                jsr        [A5 + 0x932 /* export_290, CODE:16 @ 00000802 */]
00000188  204D                     movea.l    A0, A5
0000018A  D1FC FFFD AE06           add.l      A0, 0xFFFDAE06
00000190  3080                     move.w     [A0], D0
00000192  204D                     movea.l    A0, A5
00000194  D1FC FFFD AE00           add.l      A0, 0xFFFDAE00
0000019A  3087                     move.w     [A0], D7
0000019C  204D                     movea.l    A0, A5
0000019E  D1FC FFFD ADFE           add.l      A0, 0xFFFDADFE
000001A4  3086                     move.w     [A0], D6
000001A6  7007                     moveq.l    D0, 0x07
000001A8  2F00                     move.l     -[A7], D0
000001AA  4EAD 032A                jsr        [A5 + 0x32A /* export_97, CODE:5 @ 00000560 */]
000001AE  4FEF 0014                lea.l      A7, [A7 + 0x14]
000001B2  6000 0484                bra        +0x486 /* 00000638 */
label000001B6:
000001B6  2007                     move.l     D0, D7
000001B8  C1FC 00C0                muls.w     D0, 0xC0
000001BC  204D                     movea.l    A0, A5
000001BE  D1FC FFFE 42D4           add.l      A0, 0xFFFE42D4
000001C4  2206                     move.l     D1, D6
000001C6  D241                     add.w      D1, D1
000001C8  D240                     add.w      D1, D0
000001CA  7000                     moveq.l    D0, 0x00
000001CC  3030 1000                move.w     D0, [A0 + D1.w]
000001D0  323C 07FF                move.w     D1, 0x7FF
000001D4  C240                     and.w      D1, D0
000001D6  7000                     moveq.l    D0, 0x00
000001D8  3001                     move.w     D0, D1
000001DA  4A80                     tst.l      D0
000001DC  204D                     movea.l    A0, A5
000001DE  D1FC FFFF 79F0           add.l      A0, 0xFFFF79F0
000001E4  3210                     move.w     D1, [A0]
000001E6  48C1                     ext.l      D1
000001E8  B280                     cmp.l      D1, D0
000001EA  6E00 00F6                bgt        +0xF8 /* 000002E2 */
000001EE  2007                     move.l     D0, D7
000001F0  C1FC 00C0                muls.w     D0, 0xC0
000001F4  204D                     movea.l    A0, A5
000001F6  D1FC FFFE 42D4           add.l      A0, 0xFFFE42D4
000001FC  2206                     move.l     D1, D6
000001FE  D241                     add.w      D1, D1
00000200  D240                     add.w      D1, D0
00000202  7000                     moveq.l    D0, 0x00
00000204  3030 1000                move.w     D0, [A0 + D1.w]
00000208  323C 07FF                move.w     D1, 0x7FF
0000020C  C240                     and.w      D1, D0
0000020E  7000                     moveq.l    D0, 0x00
00000210  3001                     move.w     D0, D1
00000212  4A80                     tst.l      D0
00000214  204D                     movea.l    A0, A5
00000216  D1FC FFFF 7A0E           add.l      A0, 0xFFFF7A0E
0000021C  3210                     move.w     D1, [A0]
0000021E  48C1                     ext.l      D1
00000220  B280                     cmp.l      D1, D0
00000222  6D00 00BE                blt        +0xC0 /* 000002E2 */
00000226  48C6                     ext.l      D6
00000228  2F06                     move.l     -[A7], D6
0000022A  48C7                     ext.l      D7
0000022C  2F07                     move.l     -[A7], D7
0000022E  4EAD 02C2                jsr        [A5 + 0x2C2 /* export_84, CODE:3 @ 00002F2A */]
00000232  204D                     movea.l    A0, A5
00000234  D1FC FFFD AE08           add.l      A0, 0xFFFDAE08
0000023A  3080                     move.w     [A0], D0
0000023C  204D                     movea.l    A0, A5
0000023E  D1FC FFFD AE08           add.l      A0, 0xFFFDAE08
00000244  4A50                     tst.w      [A0]
00000246  504F                     addq.w     A7, 8
00000248  6700 0082                beq        +0x84 /* 000002CC */
0000024C  204D                     movea.l    A0, A5
0000024E  D1FC FFFD AE08           add.l      A0, 0xFFFDAE08
00000254  3010                     move.w     D0, [A0]
00000256  C1FC 000C                muls.w     D0, 0xC
0000025A  204D                     movea.l    A0, A5
0000025C  D1FC FFFD 9400           add.l      A0, 0xFFFD9400
00000262  7200                     moveq.l    D1, 0x00
00000264  3230 0000                move.w     D1, [A0 + D0.w]
00000268  C3FC 0012                muls.w     D1, 0x12
0000026C  204D                     movea.l    A0, A5
0000026E  D1FC FFFE 8C44           add.l      A0, 0xFFFE8C44
00000274  D0C1                     add.w      A0, D1
00000276  224D                     movea.l    A1, A5
00000278  D3FC FFFD AE0A           add.l      A1, 0xFFFDAE0A
0000027E  2288                     move.l     [A1], A0
00000280  7001                     moveq.l    D0, 0x01
00000282  2F00                     move.l     -[A7], D0
00000284  2F00                     move.l     -[A7], D0
00000286  48C6                     ext.l      D6
00000288  2F06                     move.l     -[A7], D6
0000028A  48C7                     ext.l      D7
0000028C  2F07                     move.l     -[A7], D7
0000028E  4EAD 0932                jsr        [A5 + 0x932 /* export_290, CODE:16 @ 00000802 */]
00000292  204D                     movea.l    A0, A5
00000294  D1FC FFFD AE06           add.l      A0, 0xFFFDAE06
0000029A  3080                     move.w     [A0], D0
0000029C  204D                     movea.l    A0, A5
0000029E  D1FC FFFD AE00           add.l      A0, 0xFFFDAE00
000002A4  3087                     move.w     [A0], D7
000002A6  204D                     movea.l    A0, A5
000002A8  D1FC FFFD ADFE           add.l      A0, 0xFFFDADFE
000002AE  3086                     move.w     [A0], D6
000002B0  7007                     moveq.l    D0, 0x07
000002B2  2F00                     move.l     -[A7], D0
000002B4  4EAD 032A                jsr        [A5 + 0x32A /* export_97, CODE:5 @ 00000560 */]
000002B8  204D                     movea.l    A0, A5
000002BA  D1FC FFFD AE02           add.l      A0, 0xFFFDAE02
000002C0  30BC 0057                move.w     [A0], 0x57 /* 'W' */
000002C4  4FEF 0014                lea.l      A7, [A7 + 0x14]
000002C8  6000 036E                bra        +0x370 /* 00000638 */
label000002CC:
000002CC  204D                     movea.l    A0, A5
000002CE  D1FC FFFD AD86           add.l      A0, 0xFFFDAD86
000002D4  4850                     pea.l      [A0]
000002D6  4EAD 0742                jsr        [A5 + 0x742 /* export_228, CODE:12 @ 000045BA */]
000002DA  7000                     moveq.l    D0, 0x00
000002DC  584F                     addq.w     A7, 4
000002DE  6000 17C0                bra        +0x17C2 /* 00001AA0 */
label000002E2:
000002E2  2007                     move.l     D0, D7
000002E4  C1FC 00C0                muls.w     D0, 0xC0
000002E8  204D                     movea.l    A0, A5
000002EA  D1FC FFFE 42D4           add.l      A0, 0xFFFE42D4
000002F0  2206                     move.l     D1, D6
000002F2  D241                     add.w      D1, D1
000002F4  D240                     add.w      D1, D0
000002F6  7000                     moveq.l    D0, 0x00
000002F8  3030 1000                move.w     D0, [A0 + D1.w]
000002FC  323C 07FF                move.w     D1, 0x7FF
00000300  C240                     and.w      D1, D0
00000302  7000                     moveq.l    D0, 0x00
00000304  3001                     move.w     D0, D1
00000306  4A80                     tst.l      D0
00000308  204D                     movea.l    A0, A5
0000030A  D1FC FFFF 7A1C           add.l      A0, 0xFFFF7A1C
00000310  3210                     move.w     D1, [A0]
00000312  48C1                     ext.l      D1
00000314  B280                     cmp.l      D1, D0
00000316  6E00 00F6                bgt        +0xF8 /* 0000040E */
0000031A  2007                     move.l     D0, D7
0000031C  C1FC 00C0                muls.w     D0, 0xC0
00000320  204D                     movea.l    A0, A5
00000322  D1FC FFFE 42D4           add.l      A0, 0xFFFE42D4
00000328  2206                     move.l     D1, D6
0000032A  D241                     add.w      D1, D1
0000032C  D240                     add.w      D1, D0
0000032E  7000                     moveq.l    D0, 0x00
00000330  3030 1000                move.w     D0, [A0 + D1.w]
00000334  323C 07FF                move.w     D1, 0x7FF
00000338  C240                     and.w      D1, D0
0000033A  7000                     moveq.l    D0, 0x00
0000033C  3001                     move.w     D0, D1
0000033E  4A80                     tst.l      D0
00000340  204D                     movea.l    A0, A5
00000342  D1FC FFFF 7A3A           add.l      A0, 0xFFFF7A3A
00000348  3210                     move.w     D1, [A0]
0000034A  48C1                     ext.l      D1
0000034C  B280                     cmp.l      D1, D0
0000034E  6D00 00BE                blt        +0xC0 /* 0000040E */
00000352  48C6                     ext.l      D6
00000354  2F06                     move.l     -[A7], D6
00000356  48C7                     ext.l      D7
00000358  2F07                     move.l     -[A7], D7
0000035A  4EAD 02C2                jsr        [A5 + 0x2C2 /* export_84, CODE:3 @ 00002F2A */]
0000035E  204D                     movea.l    A0, A5
00000360  D1FC FFFD AE08           add.l      A0, 0xFFFDAE08
00000366  3080                     move.w     [A0], D0
00000368  204D                     movea.l    A0, A5
0000036A  D1FC FFFD AE08           add.l      A0, 0xFFFDAE08
00000370  4A50                     tst.w      [A0]
00000372  504F                     addq.w     A7, 8
00000374  6700 0082                beq        +0x84 /* 000003F8 */
00000378  204D                     movea.l    A0, A5
0000037A  D1FC FFFD AE08           add.l      A0, 0xFFFDAE08
00000380  3010                     move.w     D0, [A0]
00000382  C1FC 000C                muls.w     D0, 0xC
00000386  204D                     movea.l    A0, A5
00000388  D1FC FFFD 9400           add.l      A0, 0xFFFD9400
0000038E  7200                     moveq.l    D1, 0x00
00000390  3230 0000                move.w     D1, [A0 + D0.w]
00000394  C3FC 0012                muls.w     D1, 0x12
00000398  204D                     movea.l    A0, A5
0000039A  D1FC FFFE 8F14           add.l      A0, 0xFFFE8F14
000003A0  D0C1                     add.w      A0, D1
000003A2  224D                     movea.l    A1, A5
000003A4  D3FC FFFD AE0A           add.l      A1, 0xFFFDAE0A
000003AA  2288                     move.l     [A1], A0
000003AC  7001                     moveq.l    D0, 0x01
000003AE  2F00                     move.l     -[A7], D0
000003B0  2F00                     move.l     -[A7], D0
000003B2  48C6                     ext.l      D6
000003B4  2F06                     move.l     -[A7], D6
000003B6  48C7                     ext.l      D7
000003B8  2F07                     move.l     -[A7], D7
000003BA  4EAD 0932                jsr        [A5 + 0x932 /* export_290, CODE:16 @ 00000802 */]
000003BE  204D                     movea.l    A0, A5
000003C0  D1FC FFFD AE06           add.l      A0, 0xFFFDAE06
000003C6  3080                     move.w     [A0], D0
000003C8  204D                     movea.l    A0, A5
000003CA  D1FC FFFD AE00           add.l      A0, 0xFFFDAE00
000003D0  3087                     move.w     [A0], D7
000003D2  204D                     movea.l    A0, A5
000003D4  D1FC FFFD ADFE           add.l      A0, 0xFFFDADFE
000003DA  3086                     move.w     [A0], D6
000003DC  7007                     moveq.l    D0, 0x07
000003DE  2F00                     move.l     -[A7], D0
000003E0  4EAD 032A                jsr        [A5 + 0x32A /* export_97, CODE:5 @ 00000560 */]
000003E4  204D                     movea.l    A0, A5
000003E6  D1FC FFFD AE02           add.l      A0, 0xFFFDAE02
000003EC  30BC 006D                move.w     [A0], 0x6D /* 'm' */
000003F0  4FEF 0014                lea.l      A7, [A7 + 0x14]
000003F4  6000 0242                bra        +0x244 /* 00000638 */
label000003F8:
000003F8  204D                     movea.l    A0, A5
000003FA  D1FC FFFD AD90           add.l      A0, 0xFFFDAD90
00000400  4850                     pea.l      [A0]
00000402  4EAD 0742                jsr        [A5 + 0x742 /* export_228, CODE:12 @ 000045BA */]
00000406  7000                     moveq.l    D0, 0x00
00000408  584F                     addq.w     A7, 4
0000040A  6000 1694                bra        +0x1696 /* 00001AA0 */
label0000040E:
0000040E  2007                     move.l     D0, D7
00000410  C1FC 00C0                muls.w     D0, 0xC0
00000414  204D                     movea.l    A0, A5
00000416  D1FC FFFE 42D4           add.l      A0, 0xFFFE42D4
0000041C  2206                     move.l     D1, D6
0000041E  D241                     add.w      D1, D1
00000420  D240                     add.w      D1, D0
00000422  7000                     moveq.l    D0, 0x00
00000424  3030 1000                move.w     D0, [A0 + D1.w]
00000428  323C 07FF                move.w     D1, 0x7FF
0000042C  C240                     and.w      D1, D0
0000042E  7000                     moveq.l    D0, 0x00
00000430  3001                     move.w     D0, D1
00000432  4A80                     tst.l      D0
00000434  204D                     movea.l    A0, A5
00000436  D1FC FFFF 79E0           add.l      A0, 0xFFFF79E0
0000043C  3210                     move.w     D1, [A0]
0000043E  48C1                     ext.l      D1
00000440  B280                     cmp.l      D1, D0
00000442  6E00 00E0                bgt        +0xE2 /* 00000524 */
00000446  2007                     move.l     D0, D7
00000448  C1FC 00C0                muls.w     D0, 0xC0
0000044C  204D                     movea.l    A0, A5
0000044E  D1FC FFFE 42D4           add.l      A0, 0xFFFE42D4
00000454  2206                     move.l     D1, D6
00000456  D241                     add.w      D1, D1
00000458  D240                     add.w      D1, D0
0000045A  7000                     moveq.l    D0, 0x00
0000045C  3030 1000                move.w     D0, [A0 + D1.w]
00000460  323C 07FF                move.w     D1, 0x7FF
00000464  C240                     and.w      D1, D0
00000466  7000                     moveq.l    D0, 0x00
00000468  3001                     move.w     D0, D1
0000046A  4A80                     tst.l      D0
0000046C  204D                     movea.l    A0, A5
0000046E  D1FC FFFF 79E0           add.l      A0, 0xFFFF79E0
00000474  3210                     move.w     D1, [A0]
00000476  48C1                     ext.l      D1
00000478  7400                     moveq.l    D2, 0x00
0000047A  204D                     movea.l    A0, A5
0000047C  D1FC FFFF 78F1           add.l      A0, 0xFFFF78F1
00000482  1410                     move.b     D2, [A0]
00000484  D481                     add.l      D2, D1
00000486  B480                     cmp.l      D2, D0
00000488  6F00 009A                ble        +0x9C /* 00000524 */
0000048C  48C6                     ext.l      D6
0000048E  2F06                     move.l     -[A7], D6
00000490  48C7                     ext.l      D7
00000492  2F07                     move.l     -[A7], D7
00000494  4EAD 02C2                jsr        [A5 + 0x2C2 /* export_84, CODE:3 @ 00002F2A */]
00000498  204D                     movea.l    A0, A5
0000049A  D1FC FFFD AE08           add.l      A0, 0xFFFDAE08
000004A0  3080                     move.w     [A0], D0
000004A2  224D                     movea.l    A1, A5
000004A4  D3FC FFFE 9910           add.l      A1, 0xFFFE9910
000004AA  41D1                     lea.l      A0, [A1]
000004AC  224D                     movea.l    A1, A5
000004AE  D3FC FFFD AE0A           add.l      A1, 0xFFFDAE0A
000004B4  2288                     move.l     [A1], A0
000004B6  7001                     moveq.l    D0, 0x01
000004B8  2F00                     move.l     -[A7], D0
000004BA  2F00                     move.l     -[A7], D0
000004BC  48C6                     ext.l      D6
000004BE  2F06                     move.l     -[A7], D6
000004C0  48C7                     ext.l      D7
000004C2  2F07                     move.l     -[A7], D7
000004C4  4EAD 0932                jsr        [A5 + 0x932 /* export_290, CODE:16 @ 00000802 */]
000004C8  204D                     movea.l    A0, A5
000004CA  D1FC FFFD AE06           add.l      A0, 0xFFFDAE06
000004D0  3080                     move.w     [A0], D0
000004D2  4FEF 0018                lea.l      A7, [A7 + 0x18]
000004D6  671E                     beq        +0x20 /* 000004F6 */
000004D8  48C6                     ext.l      D6
000004DA  2F06                     move.l     -[A7], D6
000004DC  48C7                     ext.l      D7
000004DE  2F07                     move.l     -[A7], D7
000004E0  204D                     movea.l    A0, A5
000004E2  D1FC FFFD AE06           add.l      A0, 0xFFFDAE06
000004E8  3010                     move.w     D0, [A0]
000004EA  48C0                     ext.l      D0
000004EC  2F00                     move.l     -[A7], D0
000004EE  4EAD 0952                jsr        [A5 + 0x952 /* export_294, CODE:16 @ 00001AD8 */]
000004F2  4FEF 000C                lea.l      A7, [A7 + 0xC]
label000004F6:
000004F6  204D                     movea.l    A0, A5
000004F8  D1FC FFFD AE00           add.l      A0, 0xFFFDAE00
000004FE  3087                     move.w     [A0], D7
00000500  204D                     movea.l    A0, A5
00000502  D1FC FFFD ADFE           add.l      A0, 0xFFFDADFE
00000508  3086                     move.w     [A0], D6
0000050A  7007                     moveq.l    D0, 0x07
0000050C  2F00                     move.l     -[A7], D0
0000050E  4EAD 032A                jsr        [A5 + 0x32A /* export_97, CODE:5 @ 00000560 */]
00000512  204D                     movea.l    A0, A5
00000514  D1FC FFFD AE02           add.l      A0, 0xFFFDAE02
0000051A  30BC 004F                move.w     [A0], 0x4F /* 'O' */
0000051E  584F                     addq.w     A7, 4
00000520  6000 0116                bra        +0x118 /* 00000638 */
label00000524:
00000524  2007                     move.l     D0, D7
00000526  C1FC 00C0                muls.w     D0, 0xC0
0000052A  204D                     movea.l    A0, A5
0000052C  D1FC FFFD FAD4           add.l      A0, 0xFFFDFAD4
00000532  2206                     move.l     D1, D6
00000534  D241                     add.w      D1, D1
00000536  D240                     add.w      D1, D0
00000538  7000                     moveq.l    D0, 0x00
0000053A  3030 1000                move.w     D0, [A0 + D1.w]
0000053E  323C 07FF                move.w     D1, 0x7FF
00000542  C240                     and.w      D1, D0
00000544  7000                     moveq.l    D0, 0x00
00000546  3001                     move.w     D0, D1
00000548  4A80                     tst.l      D0
0000054A  204D                     movea.l    A0, A5
0000054C  D1FC FFFF 79E4           add.l      A0, 0xFFFF79E4
00000552  3210                     move.w     D1, [A0]
00000554  48C1                     ext.l      D1
00000556  B280                     cmp.l      D1, D0
00000558  6E00 00CC                bgt        +0xCE /* 00000626 */
0000055C  2007                     move.l     D0, D7
0000055E  C1FC 00C0                muls.w     D0, 0xC0
00000562  204D                     movea.l    A0, A5
00000564  D1FC FFFD FAD4           add.l      A0, 0xFFFDFAD4
0000056A  2206                     move.l     D1, D6
0000056C  D241                     add.w      D1, D1
0000056E  D240                     add.w      D1, D0
00000570  7000                     moveq.l    D0, 0x00
00000572  3030 1000                move.w     D0, [A0 + D1.w]
00000576  323C 07FF                move.w     D1, 0x7FF
0000057A  C240                     and.w      D1, D0
0000057C  7000                     moveq.l    D0, 0x00
0000057E  3001                     move.w     D0, D1
00000580  4A80                     tst.l      D0
00000582  204D                     movea.l    A0, A5
00000584  D1FC FFFF 79E4           add.l      A0, 0xFFFF79E4
0000058A  3210                     move.w     D1, [A0]
0000058C  48C1                     ext.l      D1
0000058E  7400                     moveq.l    D2, 0x00
00000590  204D                     movea.l    A0, A5
00000592  D1FC FFFF 78F3           add.l      A0, 0xFFFF78F3
00000598  1410                     move.b     D2, [A0]
0000059A  D481                     add.l      D2, D1
0000059C  B480                     cmp.l      D2, D0
0000059E  6F00 0086                ble        +0x88 /* 00000626 */
000005A2  48C6                     ext.l      D6
000005A4  2F06                     move.l     -[A7], D6
000005A6  48C7                     ext.l      D7
000005A8  2F07                     move.l     -[A7], D7
000005AA  4EAD 02C2                jsr        [A5 + 0x2C2 /* export_84, CODE:3 @ 00002F2A */]
000005AE  204D                     movea.l    A0, A5
000005B0  D1FC FFFD AE08           add.l      A0, 0xFFFDAE08
000005B6  3080                     move.w     [A0], D0
000005B8  204D                     movea.l    A0, A5
000005BA  D1FC FFFD AE08           add.l      A0, 0xFFFDAE08
000005C0  4A50                     tst.w      [A0]
000005C2  504F                     addq.w     A7, 8
000005C4  674A                     beq        +0x4C /* 00000610 */
000005C6  224D                     movea.l    A1, A5
000005C8  D3FC FFFE 9922           add.l      A1, 0xFFFE9922
000005CE  41D1                     lea.l      A0, [A1]
000005D0  224D                     movea.l    A1, A5
000005D2  D3FC FFFD AE0A           add.l      A1, 0xFFFDAE0A
000005D8  2288                     move.l     [A1], A0
000005DA  204D                     movea.l    A0, A5
000005DC  D1FC FFFD AE06           add.l      A0, 0xFFFDAE06
000005E2  4250                     clr.w      [A0]
000005E4  204D                     movea.l    A0, A5
000005E6  D1FC FFFD AE00           add.l      A0, 0xFFFDAE00
000005EC  3087                     move.w     [A0], D7
000005EE  204D                     movea.l    A0, A5
000005F0  D1FC FFFD ADFE           add.l      A0, 0xFFFDADFE
000005F6  3086                     move.w     [A0], D6
000005F8  204D                     movea.l    A0, A5
000005FA  D1FC FFFD AE02           add.l      A0, 0xFFFDAE02
00000600  30BC 0051                move.w     [A0], 0x51 /* 'Q' */
00000604  7007                     moveq.l    D0, 0x07
00000606  2F00                     move.l     -[A7], D0
00000608  4EAD 032A                jsr        [A5 + 0x32A /* export_97, CODE:5 @ 00000560 */]
0000060C  584F                     addq.w     A7, 4
0000060E  6028                     bra        +0x2A /* 00000638 */
label00000610:
00000610  204D                     movea.l    A0, A5
00000612  D1FC FFFD AD9A           add.l      A0, 0xFFFDAD9A
00000618  4850                     pea.l      [A0]
0000061A  4EAD 0742                jsr        [A5 + 0x742 /* export_228, CODE:12 @ 000045BA */]
0000061E  7000                     moveq.l    D0, 0x00
00000620  584F                     addq.w     A7, 4
00000622  6000 147C                bra        +0x147E /* 00001AA0 */
label00000626:
00000626  204D                     movea.l    A0, A5
00000628  D1FC FFFD AE02           add.l      A0, 0xFFFDAE02
0000062E  30BC FFFF                move.w     [A0], 0xFFFF
00000632  7000                     moveq.l    D0, 0x00
00000634  6000 146A                bra        +0x146C /* 00001AA0 */
label00000638:
00000638  7001                     moveq.l    D0, 0x01
0000063A  6000 1464                bra        +0x1466 /* 00001AA0 */
label0000063E:
0000063E  2007                     move.l     D0, D7
00000640  C1FC 00C0                muls.w     D0, 0xC0
00000644  204D                     movea.l    A0, A5
00000646  D1FC FFFD FAD4           add.l      A0, 0xFFFDFAD4
0000064C  2206                     move.l     D1, D6
0000064E  D241                     add.w      D1, D1
00000650  D240                     add.w      D1, D0
00000652  7000                     moveq.l    D0, 0x00
00000654  3030 1000                move.w     D0, [A0 + D1.w]
00000658  323C 0800                move.w     D1, 0x800
0000065C  C240                     and.w      D1, D0
0000065E  6616                     bne        +0x18 /* 00000676 */
00000660  204D                     movea.l    A0, A5
00000662  D1FC FFFD ADA4           add.l      A0, 0xFFFDADA4
00000668  4850                     pea.l      [A0]
0000066A  4EAD 0742                jsr        [A5 + 0x742 /* export_228, CODE:12 @ 000045BA */]
0000066E  7001                     moveq.l    D0, 0x01
00000670  584F                     addq.w     A7, 4
00000672  6000 142C                bra        +0x142E /* 00001AA0 */
label00000676:
00000676  7001                     moveq.l    D0, 0x01
00000678  2F00                     move.l     -[A7], D0
0000067A  2F00                     move.l     -[A7], D0
0000067C  48C6                     ext.l      D6
0000067E  2F06                     move.l     -[A7], D6
00000680  48C7                     ext.l      D7
00000682  2F07                     move.l     -[A7], D7
00000684  4EAD 0932                jsr        [A5 + 0x932 /* export_290, CODE:16 @ 00000802 */]
00000688  204D                     movea.l    A0, A5
0000068A  D1FC FFFD AE04           add.l      A0, 0xFFFDAE04
00000690  3080                     move.w     [A0], D0
00000692  204D                     movea.l    A0, A5
00000694  D1FC FFFD AE02           add.l      A0, 0xFFFDAE02
0000069A  3010                     move.w     D0, [A0]
0000069C  5240                     addq.w     D0, 1
0000069E  4FEF 0010                lea.l      A7, [A7 + 0x10]
000006A2  6700 13F6                beq        +0x13F8 /* 00001A9A */
000006A6  5340                     subq.w     D0, 1
000006A8  6728                     beq        +0x2A /* 000006D2 */
000006AA  0440 004F                subi.w     D0, 0x4F /* 'O' */
000006AE  6700 0B22                beq        +0xB24 /* 000011D2 */
000006B2  5540                     subq.w     D0, 2
000006B4  6700 0D66                beq        +0xD68 /* 0000141C */
000006B8  5D40                     subq.w     D0, 6
000006BA  6700 0758                beq        +0x75A /* 00000E14 */
000006BE  0440 0016                subi.w     D0, 0x16
000006C2  6700 0750                beq        +0x752 /* 00000E14 */
000006C6  0440 006F                subi.w     D0, 0x6F /* 'o' */
000006CA  6700 0156                beq        +0x158 /* 00000822 */
000006CE  6000 13CA                bra        +0x13CC /* 00001A9A */
label000006D2:
000006D2  204D                     movea.l    A0, A5
000006D4  D1FC FFFD AE08           add.l      A0, 0xFFFDAE08
000006DA  3A10                     move.w     D5, [A0]
000006DC  2005                     move.l     D0, D5
000006DE  C1FC 003A                muls.w     D0, 0x3A /* ':' */
000006E2  204D                     movea.l    A0, A5
000006E4  D1FC FFFE 9F9C           add.l      A0, 0xFFFE9F9C
000006EA  7200                     moveq.l    D1, 0x00
000006EC  3230 0002                move.w     D1, [A0 + D0.w + 0x2]
000006F0  7003                     moveq.l    D0, 0x03
000006F2  C041                     and.w      D0, D1
000006F4  671E                     beq        +0x20 /* 00000714 */
000006F6  703E                     moveq.l    D0, 0x3E
000006F8  2F00                     move.l     -[A7], D0
000006FA  4EAD 032A                jsr        [A5 + 0x32A /* export_97, CODE:5 @ 00000560 */]
000006FE  204D                     movea.l    A0, A5
00000700  D1FC FFFD ADAE           add.l      A0, 0xFFFDADAE
00000706  4850                     pea.l      [A0]
00000708  4EAD 0742                jsr        [A5 + 0x742 /* export_228, CODE:12 @ 000045BA */]
0000070C  7000                     moveq.l    D0, 0x00
0000070E  504F                     addq.w     A7, 8
00000710  6000 138E                bra        +0x1390 /* 00001AA0 */
label00000714:
00000714  204D                     movea.l    A0, A5
00000716  D1FC FFFD AE06           add.l      A0, 0xFFFDAE06
0000071C  4A50                     tst.w      [A0]
0000071E  6700 00B8                beq        +0xBA /* 000007D8 */
00000722  2005                     move.l     D0, D5
00000724  C1FC 003A                muls.w     D0, 0x3A /* ':' */
00000728  204D                     movea.l    A0, A5
0000072A  D1FC FFFE 9F9C           add.l      A0, 0xFFFE9F9C
00000730  7200                     moveq.l    D1, 0x00
00000732  1230 0006                move.b     D1, [A0 + D0.w + 0x6]
00000736  2F01                     move.l     -[A7], D1
00000738  2005                     move.l     D0, D5
0000073A  C1FC 003A                muls.w     D0, 0x3A /* ':' */
0000073E  204D                     movea.l    A0, A5
00000740  D1FC FFFE 9F9C           add.l      A0, 0xFFFE9F9C
00000746  7200                     moveq.l    D1, 0x00
00000748  1230 0005                move.b     D1, [A0 + D0.w + 0x5]
0000074C  2F01                     move.l     -[A7], D1
0000074E  204D                     movea.l    A0, A5
00000750  D1FC FFFD AE06           add.l      A0, 0xFFFDAE06
00000756  3010                     move.w     D0, [A0]
00000758  48C0                     ext.l      D0
0000075A  2F00                     move.l     -[A7], D0
0000075C  4EAD 0952                jsr        [A5 + 0x952 /* export_294, CODE:16 @ 00001AD8 */]
00000760  2005                     move.l     D0, D5
00000762  C1FC 003A                muls.w     D0, 0x3A /* ':' */
00000766  204D                     movea.l    A0, A5
00000768  D1FC FFFE 9F9C           add.l      A0, 0xFFFE9F9C
0000076E  0270 FFFB 0002           andi.w     [A0 + D0.w + 0x2], 0xFFFB
00000774  2005                     move.l     D0, D5
00000776  C1FC 003A                muls.w     D0, 0x3A /* ':' */
0000077A  204D                     movea.l    A0, A5
0000077C  D1FC FFFE 9F9C           add.l      A0, 0xFFFE9F9C
00000782  7200                     moveq.l    D1, 0x00
00000784  1230 0006                move.b     D1, [A0 + D0.w + 0x6]
00000788  2F01                     move.l     -[A7], D1
0000078A  2005                     move.l     D0, D5
0000078C  C1FC 003A                muls.w     D0, 0x3A /* ':' */
00000790  204D                     movea.l    A0, A5
00000792  D1FC FFFE 9F9C           add.l      A0, 0xFFFE9F9C
00000798  7200                     moveq.l    D1, 0x00
0000079A  1230 0005                move.b     D1, [A0 + D0.w + 0x5]
0000079E  2F01                     move.l     -[A7], D1
000007A0  4EAD 0942                jsr        [A5 + 0x942 /* export_292, CODE:16 @ 00000A96 */]
000007A4  2005                     move.l     D0, D5
000007A6  C1FC 003A                muls.w     D0, 0x3A /* ':' */
000007AA  204D                     movea.l    A0, A5
000007AC  D1FC FFFE 9F9C           add.l      A0, 0xFFFE9F9C
000007B2  7200                     moveq.l    D1, 0x00
000007B4  1230 0006                move.b     D1, [A0 + D0.w + 0x6]
000007B8  2F01                     move.l     -[A7], D1
000007BA  2005                     move.l     D0, D5
000007BC  C1FC 003A                muls.w     D0, 0x3A /* ':' */
000007C0  204D                     movea.l    A0, A5
000007C2  D1FC FFFE 9F9C           add.l      A0, 0xFFFE9F9C
000007C8  7200                     moveq.l    D1, 0x00
000007CA  1230 0005                move.b     D1, [A0 + D0.w + 0x5]
000007CE  2F01                     move.l     -[A7], D1
000007D0  4EAD 0942                jsr        [A5 + 0x942 /* export_292, CODE:16 @ 00000A96 */]
000007D4  4FEF 001C                lea.l      A7, [A7 + 0x1C]
label000007D8:
000007D8  2005                     move.l     D0, D5
000007DA  C1FC 003A                muls.w     D0, 0x3A /* ':' */
000007DE  204D                     movea.l    A0, A5
000007E0  D1FC FFFE 9F9C           add.l      A0, 0xFFFE9F9C
000007E6  0070 0002 0002           ori.w      [A0 + D0.w + 0x2], 0x2
000007EC  3D47 FFFE                move.w     [A6 - 0x2], D7
000007F0  3806                     move.w     D4, D6
000007F2  48C4                     ext.l      D4
000007F4  2F04                     move.l     -[A7], D4
000007F6  302E FFFE                move.w     D0, [A6 - 0x2]
000007FA  48C0                     ext.l      D0
000007FC  2F00                     move.l     -[A7], D0
000007FE  48C5                     ext.l      D5
00000800  2F05                     move.l     -[A7], D5
00000802  4EAD 055A                jsr        [A5 + 0x55A /* export_167, CODE:10 @ 00000348 */]
00000806  2005                     move.l     D0, D5
00000808  C1FC 003A                muls.w     D0, 0x3A /* ':' */
0000080C  204D                     movea.l    A0, A5
0000080E  D1FC FFFE 9F9C           add.l      A0, 0xFFFE9F9C
00000814  0070 0800 0002           ori.w      [A0 + D0.w + 0x2], 0x800
0000081A  4FEF 000C                lea.l      A7, [A7 + 0xC]
0000081E  6000 127A                bra        +0x127C /* 00001A9A */
label00000822:
00000822  204D                     movea.l    A0, A5
00000824  D1FC FFFD AE04           add.l      A0, 0xFFFDAE04
0000082A  4A50                     tst.w      [A0]
0000082C  6700 0266                beq        +0x268 /* 00000A94 */
00000830  204D                     movea.l    A0, A5
00000832  D1FC FFFD AE0A           add.l      A0, 0xFFFDAE0A
00000838  2F10                     move.l     -[A7], [A0]
0000083A  48C6                     ext.l      D6
0000083C  2F06                     move.l     -[A7], D6
0000083E  48C7                     ext.l      D7
00000840  2F07                     move.l     -[A7], D7
00000842  204D                     movea.l    A0, A5
00000844  D1FC FFFD AE08           add.l      A0, 0xFFFDAE08
0000084A  3010                     move.w     D0, [A0]
0000084C  48C0                     ext.l      D0
0000084E  2F00                     move.l     -[A7], D0
00000850  204D                     movea.l    A0, A5
00000852  D1FC FFFD AE04           add.l      A0, 0xFFFDAE04
00000858  3010                     move.w     D0, [A0]
0000085A  48C0                     ext.l      D0
0000085C  2F00                     move.l     -[A7], D0
0000085E  4EAD 094A                jsr        [A5 + 0x94A /* export_293, CODE:16 @ 00000FDC */]
00000862  4A40                     tst.w      D0
00000864  4FEF 0014                lea.l      A7, [A7 + 0x14]
00000868  6700 0214                beq        +0x216 /* 00000A7E */
0000086C  204D                     movea.l    A0, A5
0000086E  D1FC FFFD AE06           add.l      A0, 0xFFFDAE06
00000874  4A50                     tst.w      [A0]
00000876  6736                     beq        +0x38 /* 000008AE */
00000878  204D                     movea.l    A0, A5
0000087A  D1FC FFFD ADFE           add.l      A0, 0xFFFDADFE
00000880  3010                     move.w     D0, [A0]
00000882  48C0                     ext.l      D0
00000884  2F00                     move.l     -[A7], D0
00000886  204D                     movea.l    A0, A5
00000888  D1FC FFFD AE00           add.l      A0, 0xFFFDAE00
0000088E  3010                     move.w     D0, [A0]
00000890  48C0                     ext.l      D0
00000892  2F00                     move.l     -[A7], D0
00000894  204D                     movea.l    A0, A5
00000896  D1FC FFFD AE06           add.l      A0, 0xFFFDAE06
0000089C  3010                     move.w     D0, [A0]
0000089E  48C0                     ext.l      D0
000008A0  2F00                     move.l     -[A7], D0
000008A2  4EAD 0952                jsr        [A5 + 0x952 /* export_294, CODE:16 @ 00001AD8 */]
000008A6  4FEF 000C                lea.l      A7, [A7 + 0xC]
000008AA  6000 01B2                bra        +0x1B4 /* 00000A5E */
label000008AE:
000008AE  204D                     movea.l    A0, A5
000008B0  D1FC FFFD AE00           add.l      A0, 0xFFFDAE00
000008B6  3010                     move.w     D0, [A0]
000008B8  C1FC 00C0                muls.w     D0, 0xC0
000008BC  204D                     movea.l    A0, A5
000008BE  D1FC FFFE 42D4           add.l      A0, 0xFFFE42D4
000008C4  224D                     movea.l    A1, A5
000008C6  D3FC FFFD ADFE           add.l      A1, 0xFFFDADFE
000008CC  3211                     move.w     D1, [A1]
000008CE  D241                     add.w      D1, D1
000008D0  D240                     add.w      D1, D0
000008D2  7000                     moveq.l    D0, 0x00
000008D4  3030 1000                move.w     D0, [A0 + D1.w]
000008D8  323C F800                move.w     D1, 0xF800
000008DC  C240                     and.w      D1, D0
000008DE  7000                     moveq.l    D0, 0x00
000008E0  3001                     move.w     D0, D1
000008E2  4A80                     tst.l      D0
000008E4  204D                     movea.l    A0, A5
000008E6  D1FC FFFD AE00           add.l      A0, 0xFFFDAE00
000008EC  3210                     move.w     D1, [A0]
000008EE  C3FC 0060                muls.w     D1, 0x60 /* '`' */
000008F2  204D                     movea.l    A0, A5
000008F4  D1FC FFFD D6D4           add.l      A0, 0xFFFDD6D4
000008FA  224D                     movea.l    A1, A5
000008FC  D3FC FFFD ADFE           add.l      A1, 0xFFFDADFE
00000902  3411                     move.w     D2, [A1]
00000904  D441                     add.w      D2, D1
00000906  1430 2000                move.b     D2, [A0 + D2.w]
0000090A  E40A                     lsr        D2.b, 2
0000090C  7200                     moveq.l    D1, 0x00
0000090E  1202                     move.b     D1, D2
00000910  4A81                     tst.l      D1
00000912  204D                     movea.l    A0, A5
00000914  D1FC FFFF 7942           add.l      A0, 0xFFFF7942
0000091A  3410                     move.w     D2, [A0]
0000091C  48C2                     ext.l      D2
0000091E  D481                     add.l      D2, D1
00000920  204D                     movea.l    A0, A5
00000922  D1FC FFFE 8AEC           add.l      A0, 0xFFFE8AEC
00000928  1210                     move.b     D1, [A0]
0000092A  49C1                     lea.l      A4, D1
0000092C  D282                     add.l      D1, D2
0000092E  8280                     or.l       D1, D0
00000930  203C FFFF BFFF           move.l     D0, 0xFFFFBFFF
00000936  C081                     and.l      D0, D1
00000938  204D                     movea.l    A0, A5
0000093A  D1FC FFFD AE00           add.l      A0, 0xFFFDAE00
00000940  3210                     move.w     D1, [A0]
00000942  C3FC 00C0                muls.w     D1, 0xC0
00000946  204D                     movea.l    A0, A5
00000948  D1FC FFFE 42D4           add.l      A0, 0xFFFE42D4
0000094E  224D                     movea.l    A1, A5
00000950  D3FC FFFD ADFE           add.l      A1, 0xFFFDADFE
00000956  3411                     move.w     D2, [A1]
00000958  D442                     add.w      D2, D2
0000095A  D441                     add.w      D2, D1
0000095C  3180 2000                move.w     [A0 + D2.w], D0
00000960  204D                     movea.l    A0, A5
00000962  D1FC FFFD AE00           add.l      A0, 0xFFFDAE00
00000968  3010                     move.w     D0, [A0]
0000096A  C1FC 00C0                muls.w     D0, 0xC0
0000096E  204D                     movea.l    A0, A5
00000970  D1FC FFFD FAD4           add.l      A0, 0xFFFDFAD4
00000976  224D                     movea.l    A1, A5
00000978  D3FC FFFD ADFE           add.l      A1, 0xFFFDADFE
0000097E  3211                     move.w     D1, [A1]
00000980  D241                     add.w      D1, D1
00000982  D240                     add.w      D1, D0
00000984  7000                     moveq.l    D0, 0x00
00000986  3030 1000                move.w     D0, [A0 + D1.w]
0000098A  323C F800                move.w     D1, 0xF800
0000098E  C240                     and.w      D1, D0
00000990  7000                     moveq.l    D0, 0x00
00000992  3001                     move.w     D0, D1
00000994  4A80                     tst.l      D0
00000996  204D                     movea.l    A0, A5
00000998  D1FC FFFD AE00           add.l      A0, 0xFFFDAE00
0000099E  3210                     move.w     D1, [A0]
000009A0  C3FC 0060                muls.w     D1, 0x60 /* '`' */
000009A4  204D                     movea.l    A0, A5
000009A6  D1FC FFFD D6D4           add.l      A0, 0xFFFDD6D4
000009AC  224D                     movea.l    A1, A5
000009AE  D3FC FFFD ADFE           add.l      A1, 0xFFFDADFE
000009B4  3411                     move.w     D2, [A1]
000009B6  D441                     add.w      D2, D1
000009B8  1430 2000                move.b     D2, [A0 + D2.w]
000009BC  E40A                     lsr        D2.b, 2
000009BE  7200                     moveq.l    D1, 0x00
000009C0  1202                     move.b     D1, D2
000009C2  4A81                     tst.l      D1
000009C4  204D                     movea.l    A0, A5
000009C6  D1FC FFFF 7942           add.l      A0, 0xFFFF7942
000009CC  3410                     move.w     D2, [A0]
000009CE  48C2                     ext.l      D2
000009D0  D481                     add.l      D2, D1
000009D2  204D                     movea.l    A0, A5
000009D4  D1FC FFFE 8AEC           add.l      A0, 0xFFFE8AEC
000009DA  1210                     move.b     D1, [A0]
000009DC  49C1                     lea.l      A4, D1
000009DE  D282                     add.l      D1, D2
000009E0  8280                     or.l       D1, D0
000009E2  204D                     movea.l    A0, A5
000009E4  D1FC FFFD AE00           add.l      A0, 0xFFFDAE00
000009EA  3010                     move.w     D0, [A0]
000009EC  C1FC 00C0                muls.w     D0, 0xC0
000009F0  204D                     movea.l    A0, A5
000009F2  D1FC FFFD FAD4           add.l      A0, 0xFFFDFAD4
000009F8  224D                     movea.l    A1, A5
000009FA  D3FC FFFD ADFE           add.l      A1, 0xFFFDADFE
00000A00  3411                     move.w     D2, [A1]
00000A02  D442                     add.w      D2, D2
00000A04  D440                     add.w      D2, D0
00000A06  3181 2000                move.w     [A0 + D2.w], D1
00000A0A  204D                     movea.l    A0, A5
00000A0C  D1FC FFFD AE00           add.l      A0, 0xFFFDAE00
00000A12  3010                     move.w     D0, [A0]
00000A14  C1FC 00C0                muls.w     D0, 0xC0
00000A18  204D                     movea.l    A0, A5
00000A1A  D1FC FFFE 42D4           add.l      A0, 0xFFFE42D4
00000A20  224D                     movea.l    A1, A5
00000A22  D3FC FFFD ADFE           add.l      A1, 0xFFFDADFE
00000A28  3211                     move.w     D1, [A1]
00000A2A  D241                     add.w      D1, D1
00000A2C  D240                     add.w      D1, D0
00000A2E  0270 BFFF 1000           andi.w     [A0 + D1.w], 0xBFFF
00000A34  204D                     movea.l    A0, A5
00000A36  D1FC FFFD AE00           add.l      A0, 0xFFFDAE00
00000A3C  3010                     move.w     D0, [A0]
00000A3E  C1FC 00C0                muls.w     D0, 0xC0
00000A42  204D                     movea.l    A0, A5
00000A44  D1FC FFFE 42D4           add.l      A0, 0xFFFE42D4
00000A4A  224D                     movea.l    A1, A5
00000A4C  D3FC FFFD ADFE           add.l      A1, 0xFFFDADFE
00000A52  3211                     move.w     D1, [A1]
00000A54  D241                     add.w      D1, D1
00000A56  D240                     add.w      D1, D0
00000A58  0270 F7FF 1000           andi.w     [A0 + D1.w], 0xF7FF
label00000A5E:
00000A5E  48C6                     ext.l      D6
00000A60  2F06                     move.l     -[A7], D6
00000A62  48C7                     ext.l      D7
00000A64  2F07                     move.l     -[A7], D7
00000A66  4EAD 0942                jsr        [A5 + 0x942 /* export_292, CODE:16 @ 00000A96 */]
00000A6A  48C6                     ext.l      D6
00000A6C  2F06                     move.l     -[A7], D6
00000A6E  48C7                     ext.l      D7
00000A70  2F07                     move.l     -[A7], D7
00000A72  4EAD 0942                jsr        [A5 + 0x942 /* export_292, CODE:16 @ 00000A96 */]
00000A76  4FEF 0010                lea.l      A7, [A7 + 0x10]
00000A7A  6000 101E                bra        +0x1020 /* 00001A9A */
label00000A7E:
00000A7E  204D                     movea.l    A0, A5
00000A80  D1FC FFFD ADB8           add.l      A0, 0xFFFDADB8
00000A86  4850                     pea.l      [A0]
00000A88  4EAD 0742                jsr        [A5 + 0x742 /* export_228, CODE:12 @ 000045BA */]
00000A8C  7001                     moveq.l    D0, 0x01
00000A8E  584F                     addq.w     A7, 4
00000A90  6000 100E                bra        +0x1010 /* 00001AA0 */
label00000A94:
00000A94  2007                     move.l     D0, D7
00000A96  C1FC 00C0                muls.w     D0, 0xC0
00000A9A  204D                     movea.l    A0, A5
00000A9C  D1FC FFFE 42D4           add.l      A0, 0xFFFE42D4
00000AA2  2206                     move.l     D1, D6
00000AA4  D241                     add.w      D1, D1
00000AA6  D240                     add.w      D1, D0
00000AA8  7000                     moveq.l    D0, 0x00
00000AAA  3030 1000                move.w     D0, [A0 + D1.w]
00000AAE  323C 07FF                move.w     D1, 0x7FF
00000AB2  C240                     and.w      D1, D0
00000AB4  7000                     moveq.l    D0, 0x00
00000AB6  3001                     move.w     D0, D1
00000AB8  4A80                     tst.l      D0
00000ABA  204D                     movea.l    A0, A5
00000ABC  D1FC FFFF 7942           add.l      A0, 0xFFFF7942
00000AC2  3210                     move.w     D1, [A0]
00000AC4  48C1                     ext.l      D1
00000AC6  B280                     cmp.l      D1, D0
00000AC8  6E00 0334                bgt        +0x336 /* 00000DFE */
00000ACC  2007                     move.l     D0, D7
00000ACE  C1FC 00C0                muls.w     D0, 0xC0
00000AD2  204D                     movea.l    A0, A5
00000AD4  D1FC FFFE 42D4           add.l      A0, 0xFFFE42D4
00000ADA  2206                     move.l     D1, D6
00000ADC  D241                     add.w      D1, D1
00000ADE  D240                     add.w      D1, D0
00000AE0  7000                     moveq.l    D0, 0x00
00000AE2  3030 1000                move.w     D0, [A0 + D1.w]
00000AE6  323C 07FF                move.w     D1, 0x7FF
00000AEA  C240                     and.w      D1, D0
00000AEC  7000                     moveq.l    D0, 0x00
00000AEE  3001                     move.w     D0, D1
00000AF0  4A80                     tst.l      D0
00000AF2  204D                     movea.l    A0, A5
00000AF4  D1FC FFFF 7942           add.l      A0, 0xFFFF7942
00000AFA  3210                     move.w     D1, [A0]
00000AFC  48C1                     ext.l      D1
00000AFE  7400                     moveq.l    D2, 0x00
00000B00  204D                     movea.l    A0, A5
00000B02  D1FC FFFF 78A2           add.l      A0, 0xFFFF78A2
00000B08  1410                     move.b     D2, [A0]
00000B0A  D481                     add.l      D2, D1
00000B0C  B480                     cmp.l      D2, D0
00000B0E  6D00 02EE                blt        +0x2F0 /* 00000DFE */
00000B12  2007                     move.l     D0, D7
00000B14  C1FC 00C0                muls.w     D0, 0xC0
00000B18  204D                     movea.l    A0, A5
00000B1A  D1FC FFFE 42D4           add.l      A0, 0xFFFE42D4
00000B20  2206                     move.l     D1, D6
00000B22  D241                     add.w      D1, D1
00000B24  D240                     add.w      D1, D0
00000B26  7000                     moveq.l    D0, 0x00
00000B28  3030 1000                move.w     D0, [A0 + D1.w]
00000B2C  323C 0800                move.w     D1, 0x800
00000B30  C240                     and.w      D1, D0
00000B32  6600 02CA                bne        +0x2CC /* 00000DFE */
00000B36  204D                     movea.l    A0, A5
00000B38  D1FC FFFD AE06           add.l      A0, 0xFFFDAE06
00000B3E  4A50                     tst.w      [A0]
00000B40  6736                     beq        +0x38 /* 00000B78 */
00000B42  204D                     movea.l    A0, A5
00000B44  D1FC FFFD ADFE           add.l      A0, 0xFFFDADFE
00000B4A  3010                     move.w     D0, [A0]
00000B4C  48C0                     ext.l      D0
00000B4E  2F00                     move.l     -[A7], D0
00000B50  204D                     movea.l    A0, A5
00000B52  D1FC FFFD AE00           add.l      A0, 0xFFFDAE00
00000B58  3010                     move.w     D0, [A0]
00000B5A  48C0                     ext.l      D0
00000B5C  2F00                     move.l     -[A7], D0
00000B5E  204D                     movea.l    A0, A5
00000B60  D1FC FFFD AE06           add.l      A0, 0xFFFDAE06
00000B66  3010                     move.w     D0, [A0]
00000B68  48C0                     ext.l      D0
00000B6A  2F00                     move.l     -[A7], D0
00000B6C  4EAD 0952                jsr        [A5 + 0x952 /* export_294, CODE:16 @ 00001AD8 */]
00000B70  4FEF 000C                lea.l      A7, [A7 + 0xC]
00000B74  6000 01B2                bra        +0x1B4 /* 00000D28 */
label00000B78:
00000B78  204D                     movea.l    A0, A5
00000B7A  D1FC FFFD AE00           add.l      A0, 0xFFFDAE00
00000B80  3010                     move.w     D0, [A0]
00000B82  C1FC 00C0                muls.w     D0, 0xC0
00000B86  204D                     movea.l    A0, A5
00000B88  D1FC FFFE 42D4           add.l      A0, 0xFFFE42D4
00000B8E  224D                     movea.l    A1, A5
00000B90  D3FC FFFD ADFE           add.l      A1, 0xFFFDADFE
00000B96  3211                     move.w     D1, [A1]
00000B98  D241                     add.w      D1, D1
00000B9A  D240                     add.w      D1, D0
00000B9C  7000                     moveq.l    D0, 0x00
00000B9E  3030 1000                move.w     D0, [A0 + D1.w]
00000BA2  323C F800                move.w     D1, 0xF800
00000BA6  C240                     and.w      D1, D0
00000BA8  7000                     moveq.l    D0, 0x00
00000BAA  3001                     move.w     D0, D1
00000BAC  4A80                     tst.l      D0
00000BAE  204D                     movea.l    A0, A5
00000BB0  D1FC FFFD AE00           add.l      A0, 0xFFFDAE00
00000BB6  3210                     move.w     D1, [A0]
00000BB8  C3FC 0060                muls.w     D1, 0x60 /* '`' */
00000BBC  204D                     movea.l    A0, A5
00000BBE  D1FC FFFD D6D4           add.l      A0, 0xFFFDD6D4
00000BC4  224D                     movea.l    A1, A5
00000BC6  D3FC FFFD ADFE           add.l      A1, 0xFFFDADFE
00000BCC  3411                     move.w     D2, [A1]
00000BCE  D441                     add.w      D2, D1
00000BD0  1430 2000                move.b     D2, [A0 + D2.w]
00000BD4  E40A                     lsr        D2.b, 2
00000BD6  7200                     moveq.l    D1, 0x00
00000BD8  1202                     move.b     D1, D2
00000BDA  4A81                     tst.l      D1
00000BDC  204D                     movea.l    A0, A5
00000BDE  D1FC FFFF 7942           add.l      A0, 0xFFFF7942
00000BE4  3410                     move.w     D2, [A0]
00000BE6  48C2                     ext.l      D2
00000BE8  D481                     add.l      D2, D1
00000BEA  204D                     movea.l    A0, A5
00000BEC  D1FC FFFE 8AEC           add.l      A0, 0xFFFE8AEC
00000BF2  1210                     move.b     D1, [A0]
00000BF4  49C1                     lea.l      A4, D1
00000BF6  D282                     add.l      D1, D2
00000BF8  8280                     or.l       D1, D0
00000BFA  203C FFFF BFFF           move.l     D0, 0xFFFFBFFF
00000C00  C081                     and.l      D0, D1
00000C02  204D                     movea.l    A0, A5
00000C04  D1FC FFFD AE00           add.l      A0, 0xFFFDAE00
00000C0A  3210                     move.w     D1, [A0]
00000C0C  C3FC 00C0                muls.w     D1, 0xC0
00000C10  204D                     movea.l    A0, A5
00000C12  D1FC FFFE 42D4           add.l      A0, 0xFFFE42D4
00000C18  224D                     movea.l    A1, A5
00000C1A  D3FC FFFD ADFE           add.l      A1, 0xFFFDADFE
00000C20  3411                     move.w     D2, [A1]
00000C22  D442                     add.w      D2, D2
00000C24  D441                     add.w      D2, D1
00000C26  3180 2000                move.w     [A0 + D2.w], D0
00000C2A  204D                     movea.l    A0, A5
00000C2C  D1FC FFFD AE00           add.l      A0, 0xFFFDAE00
00000C32  3010                     move.w     D0, [A0]
00000C34  C1FC 00C0                muls.w     D0, 0xC0
00000C38  204D                     movea.l    A0, A5
00000C3A  D1FC FFFD FAD4           add.l      A0, 0xFFFDFAD4
00000C40  224D                     movea.l    A1, A5
00000C42  D3FC FFFD ADFE           add.l      A1, 0xFFFDADFE
00000C48  3211                     move.w     D1, [A1]
00000C4A  D241                     add.w      D1, D1
00000C4C  D240                     add.w      D1, D0
00000C4E  7000                     moveq.l    D0, 0x00
00000C50  3030 1000                move.w     D0, [A0 + D1.w]
00000C54  323C F800                move.w     D1, 0xF800
00000C58  C240                     and.w      D1, D0
00000C5A  7000                     moveq.l    D0, 0x00
00000C5C  3001                     move.w     D0, D1
00000C5E  4A80                     tst.l      D0
00000C60  204D                     movea.l    A0, A5
00000C62  D1FC FFFD AE00           add.l      A0, 0xFFFDAE00
00000C68  3210                     move.w     D1, [A0]
00000C6A  C3FC 0060                muls.w     D1, 0x60 /* '`' */
00000C6E  204D                     movea.l    A0, A5
00000C70  D1FC FFFD D6D4           add.l      A0, 0xFFFDD6D4
00000C76  224D                     movea.l    A1, A5
00000C78  D3FC FFFD ADFE           add.l      A1, 0xFFFDADFE
00000C7E  3411                     move.w     D2, [A1]
00000C80  D441                     add.w      D2, D1
00000C82  1430 2000                move.b     D2, [A0 + D2.w]
00000C86  E40A                     lsr        D2.b, 2
00000C88  7200                     moveq.l    D1, 0x00
00000C8A  1202                     move.b     D1, D2
00000C8C  4A81                     tst.l      D1
00000C8E  204D                     movea.l    A0, A5
00000C90  D1FC FFFF 7942           add.l      A0, 0xFFFF7942
00000C96  3410                     move.w     D2, [A0]
00000C98  48C2                     ext.l      D2
00000C9A  D481                     add.l      D2, D1
00000C9C  204D                     movea.l    A0, A5
00000C9E  D1FC FFFE 8AEC           add.l      A0, 0xFFFE8AEC
00000CA4  1210                     move.b     D1, [A0]
00000CA6  49C1                     lea.l      A4, D1
00000CA8  D282                     add.l      D1, D2
00000CAA  8280                     or.l       D1, D0
00000CAC  204D                     movea.l    A0, A5
00000CAE  D1FC FFFD AE00           add.l      A0, 0xFFFDAE00
00000CB4  3010                     move.w     D0, [A0]
00000CB6  C1FC 00C0                muls.w     D0, 0xC0
00000CBA  204D                     movea.l    A0, A5
00000CBC  D1FC FFFD FAD4           add.l      A0, 0xFFFDFAD4
00000CC2  224D                     movea.l    A1, A5
00000CC4  D3FC FFFD ADFE           add.l      A1, 0xFFFDADFE
00000CCA  3411                     move.w     D2, [A1]
00000CCC  D442                     add.w      D2, D2
00000CCE  D440                     add.w      D2, D0
00000CD0  3181 2000                move.w     [A0 + D2.w], D1
00000CD4  204D                     movea.l    A0, A5
00000CD6  D1FC FFFD AE00           add.l      A0, 0xFFFDAE00
00000CDC  3010                     move.w     D0, [A0]
00000CDE  C1FC 00C0                muls.w     D0, 0xC0
00000CE2  204D                     movea.l    A0, A5
00000CE4  D1FC FFFE 42D4           add.l      A0, 0xFFFE42D4
00000CEA  224D                     movea.l    A1, A5
00000CEC  D3FC FFFD ADFE           add.l      A1, 0xFFFDADFE
00000CF2  3211                     move.w     D1, [A1]
00000CF4  D241                     add.w      D1, D1
00000CF6  D240                     add.w      D1, D0
00000CF8  0270 BFFF 1000           andi.w     [A0 + D1.w], 0xBFFF
00000CFE  204D                     movea.l    A0, A5
00000D00  D1FC FFFD AE00           add.l      A0, 0xFFFDAE00
00000D06  3010                     move.w     D0, [A0]
00000D08  C1FC 00C0                muls.w     D0, 0xC0
00000D0C  204D                     movea.l    A0, A5
00000D0E  D1FC FFFE 42D4           add.l      A0, 0xFFFE42D4
00000D14  224D                     movea.l    A1, A5
00000D16  D3FC FFFD ADFE           add.l      A1, 0xFFFDADFE
00000D1C  3211                     move.w     D1, [A1]
00000D1E  D241                     add.w      D1, D1
00000D20  D240                     add.w      D1, D0
00000D22  0270 F7FF 1000           andi.w     [A0 + D1.w], 0xF7FF
label00000D28:
00000D28  204D                     movea.l    A0, A5
00000D2A  D1FC FFFD AE08           add.l      A0, 0xFFFDAE08
00000D30  3010                     move.w     D0, [A0]
00000D32  48C0                     ext.l      D0
00000D34  E588                     lsl        D0, 2
00000D36  2200                     move.l     D1, D0
00000D38  E588                     lsl        D0, 2
00000D3A  D081                     add.l      D0, D1
00000D3C  204D                     movea.l    A0, A5
00000D3E  D1FC FFFE 8AF0           add.l      A0, 0xFFFE8AF0
00000D44  1187 0005                move.b     [A0 + D0.w + 0x5], D7
00000D48  204D                     movea.l    A0, A5
00000D4A  D1FC FFFD AE08           add.l      A0, 0xFFFDAE08
00000D50  3010                     move.w     D0, [A0]
00000D52  48C0                     ext.l      D0
00000D54  E588                     lsl        D0, 2
00000D56  2200                     move.l     D1, D0
00000D58  E588                     lsl        D0, 2
00000D5A  D081                     add.l      D0, D1
00000D5C  204D                     movea.l    A0, A5
00000D5E  D1FC FFFE 8AF0           add.l      A0, 0xFFFE8AF0
00000D64  1186 0006                move.b     [A0 + D0.w + 0x6], D6
00000D68  2007                     move.l     D0, D7
00000D6A  C1FC 00C0                muls.w     D0, 0xC0
00000D6E  204D                     movea.l    A0, A5
00000D70  D1FC FFFD FAD4           add.l      A0, 0xFFFDFAD4
00000D76  2206                     move.l     D1, D6
00000D78  D241                     add.w      D1, D1
00000D7A  D240                     add.w      D1, D0
00000D7C  7000                     moveq.l    D0, 0x00
00000D7E  3030 1000                move.w     D0, [A0 + D1.w]
00000D82  323C F800                move.w     D1, 0xF800
00000D86  C240                     and.w      D1, D0
00000D88  7000                     moveq.l    D0, 0x00
00000D8A  3001                     move.w     D0, D1
00000D8C  4A80                     tst.l      D0
00000D8E  224D                     movea.l    A1, A5
00000D90  D3FC FFFD AE0A           add.l      A1, 0xFFFDAE0A
00000D96  2051                     movea.l    A0, [A1]
00000D98  7200                     moveq.l    D1, 0x00
00000D9A  1210                     move.b     D1, [A0]
00000D9C  D241                     add.w      D1, D1
00000D9E  204D                     movea.l    A0, A5
00000DA0  D1FC FFFF 7942           add.l      A0, 0xFFFF7942
00000DA6  3230 1000                move.w     D1, [A0 + D1.w]
00000DAA  48C1                     ext.l      D1
00000DAC  8280                     or.l       D1, D0
00000DAE  2007                     move.l     D0, D7
00000DB0  C1FC 00C0                muls.w     D0, 0xC0
00000DB4  204D                     movea.l    A0, A5
00000DB6  D1FC FFFD FAD4           add.l      A0, 0xFFFDFAD4
00000DBC  2406                     move.l     D2, D6
00000DBE  D442                     add.w      D2, D2
00000DC0  D440                     add.w      D2, D0
00000DC2  3181 2000                move.w     [A0 + D2.w], D1
00000DC6  2007                     move.l     D0, D7
00000DC8  C1FC 00C0                muls.w     D0, 0xC0
00000DCC  204D                     movea.l    A0, A5
00000DCE  D1FC FFFE 42D4           add.l      A0, 0xFFFE42D4
00000DD4  2206                     move.l     D1, D6
00000DD6  D241                     add.w      D1, D1
00000DD8  D240                     add.w      D1, D0
00000DDA  0270 BFFF 1000           andi.w     [A0 + D1.w], 0xBFFF
00000DE0  2007                     move.l     D0, D7
00000DE2  C1FC 00C0                muls.w     D0, 0xC0
00000DE6  204D                     movea.l    A0, A5
00000DE8  D1FC FFFE 42D4           add.l      A0, 0xFFFE42D4
00000DEE  2206                     move.l     D1, D6
00000DF0  D241                     add.w      D1, D1
00000DF2  D240                     add.w      D1, D0
00000DF4  0070 0800 1000           ori.w      [A0 + D1.w], 0x800
00000DFA  6000 0C9E                bra        +0xCA0 /* 00001A9A */
label00000DFE:
00000DFE  204D                     movea.l    A0, A5
00000E00  D1FC FFFD ADC2           add.l      A0, 0xFFFDADC2
00000E06  4850                     pea.l      [A0]
00000E08  4EAD 0742                jsr        [A5 + 0x742 /* export_228, CODE:12 @ 000045BA */]
00000E0C  7001                     moveq.l    D0, 0x01
00000E0E  584F                     addq.w     A7, 4
00000E10  6000 0C8E                bra        +0xC90 /* 00001AA0 */
label00000E14:
00000E14  204D                     movea.l    A0, A5
00000E16  D1FC FFFD AE04           add.l      A0, 0xFFFDAE04
00000E1C  4A50                     tst.w      [A0]
00000E1E  6700 0168                beq        +0x16A /* 00000F88 */
00000E22  204D                     movea.l    A0, A5
00000E24  D1FC FFFD AE0A           add.l      A0, 0xFFFDAE0A
00000E2A  2F10                     move.l     -[A7], [A0]
00000E2C  48C6                     ext.l      D6
00000E2E  2F06                     move.l     -[A7], D6
00000E30  48C7                     ext.l      D7
00000E32  2F07                     move.l     -[A7], D7
00000E34  204D                     movea.l    A0, A5
00000E36  D1FC FFFD AE08           add.l      A0, 0xFFFDAE08
00000E3C  3010                     move.w     D0, [A0]
00000E3E  48C0                     ext.l      D0
00000E40  2F00                     move.l     -[A7], D0
00000E42  204D                     movea.l    A0, A5
00000E44  D1FC FFFD AE04           add.l      A0, 0xFFFDAE04
00000E4A  3010                     move.w     D0, [A0]
00000E4C  48C0                     ext.l      D0
00000E4E  2F00                     move.l     -[A7], D0
00000E50  4EAD 094A                jsr        [A5 + 0x94A /* export_293, CODE:16 @ 00000FDC */]
00000E54  4A40                     tst.w      D0
00000E56  4FEF 0014                lea.l      A7, [A7 + 0x14]
00000E5A  6700 0116                beq        +0x118 /* 00000F72 */
00000E5E  204D                     movea.l    A0, A5
00000E60  D1FC FFFD AE06           add.l      A0, 0xFFFDAE06
00000E66  4A50                     tst.w      [A0]
00000E68  6736                     beq        +0x38 /* 00000EA0 */
00000E6A  204D                     movea.l    A0, A5
00000E6C  D1FC FFFD ADFE           add.l      A0, 0xFFFDADFE
00000E72  3010                     move.w     D0, [A0]
00000E74  48C0                     ext.l      D0
00000E76  2F00                     move.l     -[A7], D0
00000E78  204D                     movea.l    A0, A5
00000E7A  D1FC FFFD AE00           add.l      A0, 0xFFFDAE00
00000E80  3010                     move.w     D0, [A0]
00000E82  48C0                     ext.l      D0
00000E84  2F00                     move.l     -[A7], D0
00000E86  204D                     movea.l    A0, A5
00000E88  D1FC FFFD AE06           add.l      A0, 0xFFFDAE06
00000E8E  3010                     move.w     D0, [A0]
00000E90  48C0                     ext.l      D0
00000E92  2F00                     move.l     -[A7], D0
00000E94  4EAD 0952                jsr        [A5 + 0x952 /* export_294, CODE:16 @ 00001AD8 */]
00000E98  4FEF 000C                lea.l      A7, [A7 + 0xC]
00000E9C  6000 00B4                bra        +0xB6 /* 00000F52 */
label00000EA0:
00000EA0  204D                     movea.l    A0, A5
00000EA2  D1FC FFFD AE00           add.l      A0, 0xFFFDAE00
00000EA8  3010                     move.w     D0, [A0]
00000EAA  C1FC 00C0                muls.w     D0, 0xC0
00000EAE  204D                     movea.l    A0, A5
00000EB0  D1FC FFFE 42D4           add.l      A0, 0xFFFE42D4
00000EB6  224D                     movea.l    A1, A5
00000EB8  D3FC FFFD ADFE           add.l      A1, 0xFFFDADFE
00000EBE  3211                     move.w     D1, [A1]
00000EC0  D241                     add.w      D1, D1
00000EC2  D240                     add.w      D1, D0
00000EC4  7000                     moveq.l    D0, 0x00
00000EC6  3030 1000                move.w     D0, [A0 + D1.w]
00000ECA  323C F800                move.w     D1, 0xF800
00000ECE  C240                     and.w      D1, D0
00000ED0  7000                     moveq.l    D0, 0x00
00000ED2  3001                     move.w     D0, D1
00000ED4  4A80                     tst.l      D0
00000ED6  204D                     movea.l    A0, A5
00000ED8  D1FC FFFD AE00           add.l      A0, 0xFFFDAE00
00000EDE  3210                     move.w     D1, [A0]
00000EE0  C3FC 0060                muls.w     D1, 0x60 /* '`' */
00000EE4  204D                     movea.l    A0, A5
00000EE6  D1FC FFFD D6D4           add.l      A0, 0xFFFDD6D4
00000EEC  224D                     movea.l    A1, A5
00000EEE  D3FC FFFD ADFE           add.l      A1, 0xFFFDADFE
00000EF4  3411                     move.w     D2, [A1]
00000EF6  D441                     add.w      D2, D1
00000EF8  1430 2000                move.b     D2, [A0 + D2.w]
00000EFC  E40A                     lsr        D2.b, 2
00000EFE  7200                     moveq.l    D1, 0x00
00000F00  1202                     move.b     D1, D2
00000F02  4A81                     tst.l      D1
00000F04  204D                     movea.l    A0, A5
00000F06  D1FC FFFF 7942           add.l      A0, 0xFFFF7942
00000F0C  3410                     move.w     D2, [A0]
00000F0E  48C2                     ext.l      D2
00000F10  D481                     add.l      D2, D1
00000F12  204D                     movea.l    A0, A5
00000F14  D1FC FFFE 8AEC           add.l      A0, 0xFFFE8AEC
00000F1A  1210                     move.b     D1, [A0]
00000F1C  49C1                     lea.l      A4, D1
00000F1E  D282                     add.l      D1, D2
00000F20  8280                     or.l       D1, D0
00000F22  203C FFFF BFFF           move.l     D0, 0xFFFFBFFF
00000F28  C081                     and.l      D0, D1
00000F2A  204D                     movea.l    A0, A5
00000F2C  D1FC FFFD AE00           add.l      A0, 0xFFFDAE00
00000F32  3210                     move.w     D1, [A0]
00000F34  C3FC 00C0                muls.w     D1, 0xC0
00000F38  204D                     movea.l    A0, A5
00000F3A  D1FC FFFE 42D4           add.l      A0, 0xFFFE42D4
00000F40  224D                     movea.l    A1, A5
00000F42  D3FC FFFD ADFE           add.l      A1, 0xFFFDADFE
00000F48  3411                     move.w     D2, [A1]
00000F4A  D442                     add.w      D2, D2
00000F4C  D441                     add.w      D2, D1
00000F4E  3180 2000                move.w     [A0 + D2.w], D0
label00000F52:
00000F52  48C6                     ext.l      D6
00000F54  2F06                     move.l     -[A7], D6
00000F56  48C7                     ext.l      D7
00000F58  2F07                     move.l     -[A7], D7
00000F5A  4EAD 0942                jsr        [A5 + 0x942 /* export_292, CODE:16 @ 00000A96 */]
00000F5E  48C6                     ext.l      D6
00000F60  2F06                     move.l     -[A7], D6
00000F62  48C7                     ext.l      D7
00000F64  2F07                     move.l     -[A7], D7
00000F66  4EAD 0942                jsr        [A5 + 0x942 /* export_292, CODE:16 @ 00000A96 */]
00000F6A  4FEF 0010                lea.l      A7, [A7 + 0x10]
00000F6E  6000 0B2A                bra        +0xB2C /* 00001A9A */
label00000F72:
00000F72  204D                     movea.l    A0, A5
00000F74  D1FC FFFD ADCC           add.l      A0, 0xFFFDADCC
00000F7A  4850                     pea.l      [A0]
00000F7C  4EAD 0742                jsr        [A5 + 0x742 /* export_228, CODE:12 @ 000045BA */]
00000F80  7001                     moveq.l    D0, 0x01
00000F82  584F                     addq.w     A7, 4
00000F84  6000 0B1A                bra        +0xB1C /* 00001AA0 */
label00000F88:
00000F88  2007                     move.l     D0, D7
00000F8A  C1FC 00C0                muls.w     D0, 0xC0
00000F8E  204D                     movea.l    A0, A5
00000F90  D1FC FFFE 42D4           add.l      A0, 0xFFFE42D4
00000F96  2206                     move.l     D1, D6
00000F98  D241                     add.w      D1, D1
00000F9A  D240                     add.w      D1, D0
00000F9C  7000                     moveq.l    D0, 0x00
00000F9E  3030 1000                move.w     D0, [A0 + D1.w]
00000FA2  323C 07FF                move.w     D1, 0x7FF
00000FA6  C240                     and.w      D1, D0
00000FA8  7000                     moveq.l    D0, 0x00
00000FAA  3001                     move.w     D0, D1
00000FAC  4A80                     tst.l      D0
00000FAE  204D                     movea.l    A0, A5
00000FB0  D1FC FFFF 7942           add.l      A0, 0xFFFF7942
00000FB6  3210                     move.w     D1, [A0]
00000FB8  48C1                     ext.l      D1
00000FBA  B280                     cmp.l      D1, D0
00000FBC  6E00 01FE                bgt        +0x200 /* 000011BC */
00000FC0  2007                     move.l     D0, D7
00000FC2  C1FC 00C0                muls.w     D0, 0xC0
00000FC6  204D                     movea.l    A0, A5
00000FC8  D1FC FFFE 42D4           add.l      A0, 0xFFFE42D4
00000FCE  2206                     move.l     D1, D6
00000FD0  D241                     add.w      D1, D1
00000FD2  D240                     add.w      D1, D0
00000FD4  7000                     moveq.l    D0, 0x00
00000FD6  3030 1000                move.w     D0, [A0 + D1.w]
00000FDA  323C 07FF                move.w     D1, 0x7FF
00000FDE  C240                     and.w      D1, D0
00000FE0  7000                     moveq.l    D0, 0x00
00000FE2  3001                     move.w     D0, D1
00000FE4  4A80                     tst.l      D0
00000FE6  204D                     movea.l    A0, A5
00000FE8  D1FC FFFF 7942           add.l      A0, 0xFFFF7942
00000FEE  3210                     move.w     D1, [A0]
00000FF0  48C1                     ext.l      D1
00000FF2  7400                     moveq.l    D2, 0x00
00000FF4  204D                     movea.l    A0, A5
00000FF6  D1FC FFFF 78A2           add.l      A0, 0xFFFF78A2
00000FFC  1410                     move.b     D2, [A0]
00000FFE  D481                     add.l      D2, D1
00001000  B480                     cmp.l      D2, D0
00001002  6D00 01B8                blt        +0x1BA /* 000011BC */
00001006  2007                     move.l     D0, D7
00001008  C1FC 00C0                muls.w     D0, 0xC0
0000100C  204D                     movea.l    A0, A5
0000100E  D1FC FFFE 42D4           add.l      A0, 0xFFFE42D4
00001014  2206                     move.l     D1, D6
00001016  D241                     add.w      D1, D1
00001018  D240                     add.w      D1, D0
0000101A  7000                     moveq.l    D0, 0x00
0000101C  3030 1000                move.w     D0, [A0 + D1.w]
00001020  323C 0800                move.w     D1, 0x800
00001024  C240                     and.w      D1, D0
00001026  6600 0194                bne        +0x196 /* 000011BC */
0000102A  204D                     movea.l    A0, A5
0000102C  D1FC FFFD AE06           add.l      A0, 0xFFFDAE06
00001032  4A50                     tst.w      [A0]
00001034  6736                     beq        +0x38 /* 0000106C */
00001036  204D                     movea.l    A0, A5
00001038  D1FC FFFD ADFE           add.l      A0, 0xFFFDADFE
0000103E  3010                     move.w     D0, [A0]
00001040  48C0                     ext.l      D0
00001042  2F00                     move.l     -[A7], D0
00001044  204D                     movea.l    A0, A5
00001046  D1FC FFFD AE00           add.l      A0, 0xFFFDAE00
0000104C  3010                     move.w     D0, [A0]
0000104E  48C0                     ext.l      D0
00001050  2F00                     move.l     -[A7], D0
00001052  204D                     movea.l    A0, A5
00001054  D1FC FFFD AE06           add.l      A0, 0xFFFDAE06
0000105A  3010                     move.w     D0, [A0]
0000105C  48C0                     ext.l      D0
0000105E  2F00                     move.l     -[A7], D0
00001060  4EAD 0952                jsr        [A5 + 0x952 /* export_294, CODE:16 @ 00001AD8 */]
00001064  4FEF 000C                lea.l      A7, [A7 + 0xC]
00001068  6000 00B4                bra        +0xB6 /* 0000111E */
label0000106C:
0000106C  204D                     movea.l    A0, A5
0000106E  D1FC FFFD AE00           add.l      A0, 0xFFFDAE00
00001074  3010                     move.w     D0, [A0]
00001076  C1FC 00C0                muls.w     D0, 0xC0
0000107A  204D                     movea.l    A0, A5
0000107C  D1FC FFFE 42D4           add.l      A0, 0xFFFE42D4
00001082  224D                     movea.l    A1, A5
00001084  D3FC FFFD ADFE           add.l      A1, 0xFFFDADFE
0000108A  3211                     move.w     D1, [A1]
0000108C  D241                     add.w      D1, D1
0000108E  D240                     add.w      D1, D0
00001090  7000                     moveq.l    D0, 0x00
00001092  3030 1000                move.w     D0, [A0 + D1.w]
00001096  323C F800                move.w     D1, 0xF800
0000109A  C240                     and.w      D1, D0
0000109C  7000                     moveq.l    D0, 0x00
0000109E  3001                     move.w     D0, D1
000010A0  4A80                     tst.l      D0
000010A2  204D                     movea.l    A0, A5
000010A4  D1FC FFFD AE00           add.l      A0, 0xFFFDAE00
000010AA  3210                     move.w     D1, [A0]
000010AC  C3FC 0060                muls.w     D1, 0x60 /* '`' */
000010B0  204D                     movea.l    A0, A5
000010B2  D1FC FFFD D6D4           add.l      A0, 0xFFFDD6D4
000010B8  224D                     movea.l    A1, A5
000010BA  D3FC FFFD ADFE           add.l      A1, 0xFFFDADFE
000010C0  3411                     move.w     D2, [A1]
000010C2  D441                     add.w      D2, D1
000010C4  1430 2000                move.b     D2, [A0 + D2.w]
000010C8  E40A                     lsr        D2.b, 2
000010CA  7200                     moveq.l    D1, 0x00
000010CC  1202                     move.b     D1, D2
000010CE  4A81                     tst.l      D1
000010D0  204D                     movea.l    A0, A5
000010D2  D1FC FFFF 7942           add.l      A0, 0xFFFF7942
000010D8  3410                     move.w     D2, [A0]
000010DA  48C2                     ext.l      D2
000010DC  D481                     add.l      D2, D1
000010DE  204D                     movea.l    A0, A5
000010E0  D1FC FFFE 8AEC           add.l      A0, 0xFFFE8AEC
000010E6  1210                     move.b     D1, [A0]
000010E8  49C1                     lea.l      A4, D1
000010EA  D282                     add.l      D1, D2
000010EC  8280                     or.l       D1, D0
000010EE  203C FFFF BFFF           move.l     D0, 0xFFFFBFFF
000010F4  C081                     and.l      D0, D1
000010F6  204D                     movea.l    A0, A5
000010F8  D1FC FFFD AE00           add.l      A0, 0xFFFDAE00
000010FE  3210                     move.w     D1, [A0]
00001100  C3FC 00C0                muls.w     D1, 0xC0
00001104  204D                     movea.l    A0, A5
00001106  D1FC FFFE 42D4           add.l      A0, 0xFFFE42D4
0000110C  224D                     movea.l    A1, A5
0000110E  D3FC FFFD ADFE           add.l      A1, 0xFFFDADFE
00001114  3411                     move.w     D2, [A1]
00001116  D442                     add.w      D2, D2
00001118  D441                     add.w      D2, D1
0000111A  3180 2000                move.w     [A0 + D2.w], D0
label0000111E:
0000111E  204D                     movea.l    A0, A5
00001120  D1FC FFFD AE08           add.l      A0, 0xFFFDAE08
00001126  3010                     move.w     D0, [A0]
00001128  C1FC 000C                muls.w     D0, 0xC
0000112C  204D                     movea.l    A0, A5
0000112E  D1FC FFFD 9400           add.l      A0, 0xFFFD9400
00001134  1187 0008                move.b     [A0 + D0.w + 0x8], D7
00001138  204D                     movea.l    A0, A5
0000113A  D1FC FFFD AE08           add.l      A0, 0xFFFDAE08
00001140  3010                     move.w     D0, [A0]
00001142  C1FC 000C                muls.w     D0, 0xC
00001146  204D                     movea.l    A0, A5
00001148  D1FC FFFD 9400           add.l      A0, 0xFFFD9400
0000114E  1186 0009                move.b     [A0 + D0.w + 0x9], D6
00001152  2007                     move.l     D0, D7
00001154  C1FC 00C0                muls.w     D0, 0xC0
00001158  204D                     movea.l    A0, A5
0000115A  D1FC FFFE 42D4           add.l      A0, 0xFFFE42D4
00001160  2206                     move.l     D1, D6
00001162  D241                     add.w      D1, D1
00001164  D240                     add.w      D1, D0
00001166  7000                     moveq.l    D0, 0x00
00001168  3030 1000                move.w     D0, [A0 + D1.w]
0000116C  323C F800                move.w     D1, 0xF800
00001170  C240                     and.w      D1, D0
00001172  7000                     moveq.l    D0, 0x00
00001174  3001                     move.w     D0, D1
00001176  4A80                     tst.l      D0
00001178  224D                     movea.l    A1, A5
0000117A  D3FC FFFD AE0A           add.l      A1, 0xFFFDAE0A
00001180  2051                     movea.l    A0, [A1]
00001182  7200                     moveq.l    D1, 0x00
00001184  1210                     move.b     D1, [A0]
00001186  D241                     add.w      D1, D1
00001188  204D                     movea.l    A0, A5
0000118A  D1FC FFFF 7942           add.l      A0, 0xFFFF7942
00001190  3230 1000                move.w     D1, [A0 + D1.w]
00001194  48C1                     ext.l      D1
00001196  8280                     or.l       D1, D0
00001198  203C FFFF BFFF           move.l     D0, 0xFFFFBFFF
0000119E  C081                     and.l      D0, D1
000011A0  2207                     move.l     D1, D7
000011A2  C3FC 00C0                muls.w     D1, 0xC0
000011A6  204D                     movea.l    A0, A5
000011A8  D1FC FFFE 42D4           add.l      A0, 0xFFFE42D4
000011AE  2406                     move.l     D2, D6
000011B0  D442                     add.w      D2, D2
000011B2  D441                     add.w      D2, D1
000011B4  3180 2000                move.w     [A0 + D2.w], D0
000011B8  6000 08E0                bra        +0x8E2 /* 00001A9A */
label000011BC:
000011BC  204D                     movea.l    A0, A5
000011BE  D1FC FFFD ADD6           add.l      A0, 0xFFFDADD6
000011C4  4850                     pea.l      [A0]
000011C6  4EAD 0742                jsr        [A5 + 0x742 /* export_228, CODE:12 @ 000045BA */]
000011CA  7001                     moveq.l    D0, 0x01
000011CC  584F                     addq.w     A7, 4
000011CE  6000 08D0                bra        +0x8D2 /* 00001AA0 */
label000011D2:
000011D2  2007                     move.l     D0, D7
000011D4  C1FC 00C0                muls.w     D0, 0xC0
000011D8  204D                     movea.l    A0, A5
000011DA  D1FC FFFE 42D4           add.l      A0, 0xFFFE42D4
000011E0  2206                     move.l     D1, D6
000011E2  D241                     add.w      D1, D1
000011E4  D240                     add.w      D1, D0
000011E6  7000                     moveq.l    D0, 0x00
000011E8  3030 1000                move.w     D0, [A0 + D1.w]
000011EC  323C 07FF                move.w     D1, 0x7FF
000011F0  C240                     and.w      D1, D0
000011F2  7000                     moveq.l    D0, 0x00
000011F4  3001                     move.w     D0, D1
000011F6  4A80                     tst.l      D0
000011F8  204D                     movea.l    A0, A5
000011FA  D1FC FFFF 7942           add.l      A0, 0xFFFF7942
00001200  3210                     move.w     D1, [A0]
00001202  48C1                     ext.l      D1
00001204  B280                     cmp.l      D1, D0
00001206  6E00 01FE                bgt        +0x200 /* 00001406 */
0000120A  2007                     move.l     D0, D7
0000120C  C1FC 00C0                muls.w     D0, 0xC0
00001210  204D                     movea.l    A0, A5
00001212  D1FC FFFE 42D4           add.l      A0, 0xFFFE42D4
00001218  2206                     move.l     D1, D6
0000121A  D241                     add.w      D1, D1
0000121C  D240                     add.w      D1, D0
0000121E  7000                     moveq.l    D0, 0x00
00001220  3030 1000                move.w     D0, [A0 + D1.w]
00001224  323C 07FF                move.w     D1, 0x7FF
00001228  C240                     and.w      D1, D0
0000122A  7000                     moveq.l    D0, 0x00
0000122C  3001                     move.w     D0, D1
0000122E  4A80                     tst.l      D0
00001230  204D                     movea.l    A0, A5
00001232  D1FC FFFF 7942           add.l      A0, 0xFFFF7942
00001238  3210                     move.w     D1, [A0]
0000123A  48C1                     ext.l      D1
0000123C  7400                     moveq.l    D2, 0x00
0000123E  204D                     movea.l    A0, A5
00001240  D1FC FFFF 78A2           add.l      A0, 0xFFFF78A2
00001246  1410                     move.b     D2, [A0]
00001248  D481                     add.l      D2, D1
0000124A  B480                     cmp.l      D2, D0
0000124C  6D00 01B8                blt        +0x1BA /* 00001406 */
00001250  204D                     movea.l    A0, A5
00001252  D1FC FFFD AE08           add.l      A0, 0xFFFDAE08
00001258  3010                     move.w     D0, [A0]
0000125A  C1FC 000C                muls.w     D0, 0xC
0000125E  204D                     movea.l    A0, A5
00001260  D1FC FFFD 9400           add.l      A0, 0xFFFD9400
00001266  7200                     moveq.l    D1, 0x00
00001268  3230 0002                move.w     D1, [A0 + D0.w + 0x2]
0000126C  4A81                     tst.l      D1
0000126E  6358                     bls        +0x5A /* 000012C8 */
00001270  2007                     move.l     D0, D7
00001272  C1FC 00C0                muls.w     D0, 0xC0
00001276  204D                     movea.l    A0, A5
00001278  D1FC FFFE 42D4           add.l      A0, 0xFFFE42D4
0000127E  2206                     move.l     D1, D6
00001280  D241                     add.w      D1, D1
00001282  D240                     add.w      D1, D0
00001284  7000                     moveq.l    D0, 0x00
00001286  3030 1000                move.w     D0, [A0 + D1.w]
0000128A  323C F800                move.w     D1, 0xF800
0000128E  C240                     and.w      D1, D0
00001290  7000                     moveq.l    D0, 0x00
00001292  3001                     move.w     D0, D1
00001294  4A80                     tst.l      D0
00001296  204D                     movea.l    A0, A5
00001298  D1FC FFFF 79E0           add.l      A0, 0xFFFF79E0
0000129E  3210                     move.w     D1, [A0]
000012A0  48C1                     ext.l      D1
000012A2  5281                     addq.l     D1, 1
000012A4  8280                     or.l       D1, D0
000012A6  203C FFFF BFFF           move.l     D0, 0xFFFFBFFF
000012AC  C081                     and.l      D0, D1
000012AE  2207                     move.l     D1, D7
000012B0  C3FC 00C0                muls.w     D1, 0xC0
000012B4  204D                     movea.l    A0, A5
000012B6  D1FC FFFE 42D4           add.l      A0, 0xFFFE42D4
000012BC  2406                     move.l     D2, D6
000012BE  D442                     add.w      D2, D2
000012C0  D441                     add.w      D2, D1
000012C2  3180 2000                move.w     [A0 + D2.w], D0
000012C6  6054                     bra        +0x56 /* 0000131C */
label000012C8:
000012C8  2007                     move.l     D0, D7
000012CA  C1FC 00C0                muls.w     D0, 0xC0
000012CE  204D                     movea.l    A0, A5
000012D0  D1FC FFFE 42D4           add.l      A0, 0xFFFE42D4
000012D6  2206                     move.l     D1, D6
000012D8  D241                     add.w      D1, D1
000012DA  D240                     add.w      D1, D0
000012DC  7000                     moveq.l    D0, 0x00
000012DE  3030 1000                move.w     D0, [A0 + D1.w]
000012E2  323C F800                move.w     D1, 0xF800
000012E6  C240                     and.w      D1, D0
000012E8  7000                     moveq.l    D0, 0x00
000012EA  3001                     move.w     D0, D1
000012EC  4A80                     tst.l      D0
000012EE  204D                     movea.l    A0, A5
000012F0  D1FC FFFF 79E0           add.l      A0, 0xFFFF79E0
000012F6  3210                     move.w     D1, [A0]
000012F8  48C1                     ext.l      D1
000012FA  8280                     or.l       D1, D0
000012FC  203C FFFF BFFF           move.l     D0, 0xFFFFBFFF
00001302  C081                     and.l      D0, D1
00001304  2207                     move.l     D1, D7
00001306  C3FC 00C0                muls.w     D1, 0xC0
0000130A  204D                     movea.l    A0, A5
0000130C  D1FC FFFE 42D4           add.l      A0, 0xFFFE42D4
00001312  2406                     move.l     D2, D6
00001314  D442                     add.w      D2, D2
00001316  D441                     add.w      D2, D1
00001318  3180 2000                move.w     [A0 + D2.w], D0
label0000131C:
0000131C  204D                     movea.l    A0, A5
0000131E  D1FC FFFD AE00           add.l      A0, 0xFFFDAE00
00001324  3010                     move.w     D0, [A0]
00001326  C1FC 00C0                muls.w     D0, 0xC0
0000132A  204D                     movea.l    A0, A5
0000132C  D1FC FFFE 42D4           add.l      A0, 0xFFFE42D4
00001332  224D                     movea.l    A1, A5
00001334  D3FC FFFD ADFE           add.l      A1, 0xFFFDADFE
0000133A  3211                     move.w     D1, [A1]
0000133C  D241                     add.w      D1, D1
0000133E  D240                     add.w      D1, D0
00001340  7000                     moveq.l    D0, 0x00
00001342  3030 1000                move.w     D0, [A0 + D1.w]
00001346  323C F800                move.w     D1, 0xF800
0000134A  C240                     and.w      D1, D0
0000134C  7000                     moveq.l    D0, 0x00
0000134E  3001                     move.w     D0, D1
00001350  4A80                     tst.l      D0
00001352  204D                     movea.l    A0, A5
00001354  D1FC FFFD AE00           add.l      A0, 0xFFFDAE00
0000135A  3210                     move.w     D1, [A0]
0000135C  C3FC 0060                muls.w     D1, 0x60 /* '`' */
00001360  204D                     movea.l    A0, A5
00001362  D1FC FFFD D6D4           add.l      A0, 0xFFFDD6D4
00001368  224D                     movea.l    A1, A5
0000136A  D3FC FFFD ADFE           add.l      A1, 0xFFFDADFE
00001370  3411                     move.w     D2, [A1]
00001372  D441                     add.w      D2, D1
00001374  1430 2000                move.b     D2, [A0 + D2.w]
00001378  E40A                     lsr        D2.b, 2
0000137A  7200                     moveq.l    D1, 0x00
0000137C  1202                     move.b     D1, D2
0000137E  4A81                     tst.l      D1
00001380  204D                     movea.l    A0, A5
00001382  D1FC FFFF 7942           add.l      A0, 0xFFFF7942
00001388  3410                     move.w     D2, [A0]
0000138A  48C2                     ext.l      D2
0000138C  D481                     add.l      D2, D1
0000138E  204D                     movea.l    A0, A5
00001390  D1FC FFFE 8AEC           add.l      A0, 0xFFFE8AEC
00001396  1210                     move.b     D1, [A0]
00001398  49C1                     lea.l      A4, D1
0000139A  D282                     add.l      D1, D2
0000139C  8280                     or.l       D1, D0
0000139E  203C FFFF BFFF           move.l     D0, 0xFFFFBFFF
000013A4  C081                     and.l      D0, D1
000013A6  204D                     movea.l    A0, A5
000013A8  D1FC FFFD AE00           add.l      A0, 0xFFFDAE00
000013AE  3210                     move.w     D1, [A0]
000013B0  C3FC 00C0                muls.w     D1, 0xC0
000013B4  204D                     movea.l    A0, A5
000013B6  D1FC FFFE 42D4           add.l      A0, 0xFFFE42D4
000013BC  224D                     movea.l    A1, A5
000013BE  D3FC FFFD ADFE           add.l      A1, 0xFFFDADFE
000013C4  3411                     move.w     D2, [A1]
000013C6  D442                     add.w      D2, D2
000013C8  D441                     add.w      D2, D1
000013CA  3180 2000                move.w     [A0 + D2.w], D0
000013CE  204D                     movea.l    A0, A5
000013D0  D1FC FFFD AE08           add.l      A0, 0xFFFDAE08
000013D6  3010                     move.w     D0, [A0]
000013D8  C1FC 000C                muls.w     D0, 0xC
000013DC  204D                     movea.l    A0, A5
000013DE  D1FC FFFD 9400           add.l      A0, 0xFFFD9400
000013E4  1187 0008                move.b     [A0 + D0.w + 0x8], D7
000013E8  204D                     movea.l    A0, A5
000013EA  D1FC FFFD AE08           add.l      A0, 0xFFFDAE08
000013F0  3010                     move.w     D0, [A0]
000013F2  C1FC 000C                muls.w     D0, 0xC
000013F6  204D                     movea.l    A0, A5
000013F8  D1FC FFFD 9400           add.l      A0, 0xFFFD9400
000013FE  1186 0009                move.b     [A0 + D0.w + 0x9], D6
00001402  6000 0696                bra        +0x698 /* 00001A9A */
label00001406:
00001406  204D                     movea.l    A0, A5
00001408  D1FC FFFD ADE0           add.l      A0, 0xFFFDADE0
0000140E  4850                     pea.l      [A0]
00001410  4EAD 0742                jsr        [A5 + 0x742 /* export_228, CODE:12 @ 000045BA */]
00001414  7001                     moveq.l    D0, 0x01
00001416  584F                     addq.w     A7, 4
00001418  6000 0686                bra        +0x688 /* 00001AA0 */
label0000141C:
0000141C  204D                     movea.l    A0, A5
0000141E  D1FC FFFD AE04           add.l      A0, 0xFFFDAE04
00001424  4A50                     tst.w      [A0]
00001426  6716                     beq        +0x18 /* 0000143E */
00001428  204D                     movea.l    A0, A5
0000142A  D1FC FFFD ADEA           add.l      A0, 0xFFFDADEA
00001430  4850                     pea.l      [A0]
00001432  4EAD 0742                jsr        [A5 + 0x742 /* export_228, CODE:12 @ 000045BA */]
00001436  7001                     moveq.l    D0, 0x01
00001438  584F                     addq.w     A7, 4
0000143A  6000 0664                bra        +0x666 /* 00001AA0 */
label0000143E:
0000143E  2007                     move.l     D0, D7
00001440  C1FC 00C0                muls.w     D0, 0xC0
00001444  204D                     movea.l    A0, A5
00001446  D1FC FFFE 42D4           add.l      A0, 0xFFFE42D4
0000144C  2206                     move.l     D1, D6
0000144E  D241                     add.w      D1, D1
00001450  D240                     add.w      D1, D0
00001452  7000                     moveq.l    D0, 0x00
00001454  3030 1000                move.w     D0, [A0 + D1.w]
00001458  323C 07FF                move.w     D1, 0x7FF
0000145C  C240                     and.w      D1, D0
0000145E  7000                     moveq.l    D0, 0x00
00001460  3001                     move.w     D0, D1
00001462  4A80                     tst.l      D0
00001464  204D                     movea.l    A0, A5
00001466  D1FC FFFF 7942           add.l      A0, 0xFFFF7942
0000146C  3210                     move.w     D1, [A0]
0000146E  48C1                     ext.l      D1
00001470  B280                     cmp.l      D1, D0
00001472  6E00 0612                bgt        +0x614 /* 00001A86 */
00001476  2007                     move.l     D0, D7
00001478  C1FC 00C0                muls.w     D0, 0xC0
0000147C  204D                     movea.l    A0, A5
0000147E  D1FC FFFE 42D4           add.l      A0, 0xFFFE42D4
00001484  2206                     move.l     D1, D6
00001486  D241                     add.w      D1, D1
00001488  D240                     add.w      D1, D0
0000148A  7000                     moveq.l    D0, 0x00
0000148C  3030 1000                move.w     D0, [A0 + D1.w]
00001490  323C 07FF                move.w     D1, 0x7FF
00001494  C240                     and.w      D1, D0
00001496  7000                     moveq.l    D0, 0x00
00001498  3001                     move.w     D0, D1
0000149A  4A80                     tst.l      D0
0000149C  204D                     movea.l    A0, A5
0000149E  D1FC FFFF 7942           add.l      A0, 0xFFFF7942
000014A4  3210                     move.w     D1, [A0]
000014A6  48C1                     ext.l      D1
000014A8  7400                     moveq.l    D2, 0x00
000014AA  204D                     movea.l    A0, A5
000014AC  D1FC FFFF 78A2           add.l      A0, 0xFFFF78A2
000014B2  1410                     move.b     D2, [A0]
000014B4  D481                     add.l      D2, D1
000014B6  B480                     cmp.l      D2, D0
000014B8  6D00 05CC                blt        +0x5CE /* 00001A86 */
000014BC  2007                     move.l     D0, D7
000014BE  C1FC 00C0                muls.w     D0, 0xC0
000014C2  204D                     movea.l    A0, A5
000014C4  D1FC FFFE 42D4           add.l      A0, 0xFFFE42D4
000014CA  2206                     move.l     D1, D6
000014CC  D241                     add.w      D1, D1
000014CE  D240                     add.w      D1, D0
000014D0  7000                     moveq.l    D0, 0x00
000014D2  3030 1000                move.w     D0, [A0 + D1.w]
000014D6  323C 0800                move.w     D1, 0x800
000014DA  C240                     and.w      D1, D0
000014DC  6600 05A8                bne        +0x5AA /* 00001A86 */
000014E0  204D                     movea.l    A0, A5
000014E2  D1FC FFFD AE00           add.l      A0, 0xFFFDAE00
000014E8  3010                     move.w     D0, [A0]
000014EA  C1FC 00C0                muls.w     D0, 0xC0
000014EE  204D                     movea.l    A0, A5
000014F0  D1FC FFFE 42D4           add.l      A0, 0xFFFE42D4
000014F6  224D                     movea.l    A1, A5
000014F8  D3FC FFFD ADFE           add.l      A1, 0xFFFDADFE
000014FE  3211                     move.w     D1, [A1]
00001500  D241                     add.w      D1, D1
00001502  D240                     add.w      D1, D0
00001504  0270 F7FF 1000           andi.w     [A0 + D1.w], 0xF7FF
0000150A  204D                     movea.l    A0, A5
0000150C  D1FC FFFD AE00           add.l      A0, 0xFFFDAE00
00001512  3010                     move.w     D0, [A0]
00001514  C1FC 00C0                muls.w     D0, 0xC0
00001518  204D                     movea.l    A0, A5
0000151A  D1FC FFFD FAD4           add.l      A0, 0xFFFDFAD4
00001520  224D                     movea.l    A1, A5
00001522  D3FC FFFD ADFE           add.l      A1, 0xFFFDADFE
00001528  3211                     move.w     D1, [A1]
0000152A  D241                     add.w      D1, D1
0000152C  D240                     add.w      D1, D0
0000152E  7000                     moveq.l    D0, 0x00
00001530  3030 1000                move.w     D0, [A0 + D1.w]
00001534  323C F800                move.w     D1, 0xF800
00001538  C240                     and.w      D1, D0
0000153A  7000                     moveq.l    D0, 0x00
0000153C  3001                     move.w     D0, D1
0000153E  4A80                     tst.l      D0
00001540  204D                     movea.l    A0, A5
00001542  D1FC FFFF 7942           add.l      A0, 0xFFFF7942
00001548  3210                     move.w     D1, [A0]
0000154A  48C1                     ext.l      D1
0000154C  204D                     movea.l    A0, A5
0000154E  D1FC FFFD AE00           add.l      A0, 0xFFFDAE00
00001554  3410                     move.w     D2, [A0]
00001556  C5FC 0060                muls.w     D2, 0x60 /* '`' */
0000155A  204D                     movea.l    A0, A5
0000155C  D1FC FFFD D6D4           add.l      A0, 0xFFFDD6D4
00001562  224D                     movea.l    A1, A5
00001564  D3FC FFFD ADFE           add.l      A1, 0xFFFDADFE
0000156A  3611                     move.w     D3, [A1]
0000156C  D642                     add.w      D3, D2
0000156E  7400                     moveq.l    D2, 0x00
00001570  1430 3000                move.b     D2, [A0 + D3.w]
00001574  760F                     moveq.l    D3, 0x0F
00001576  C602                     and.b      D3, D2
00001578  7400                     moveq.l    D2, 0x00
0000157A  1403                     move.b     D2, D3
0000157C  D481                     add.l      D2, D1
0000157E  8480                     or.l       D2, D0
00001580  204D                     movea.l    A0, A5
00001582  D1FC FFFD AE00           add.l      A0, 0xFFFDAE00
00001588  3010                     move.w     D0, [A0]
0000158A  C1FC 00C0                muls.w     D0, 0xC0
0000158E  204D                     movea.l    A0, A5
00001590  D1FC FFFD FAD4           add.l      A0, 0xFFFDFAD4
00001596  224D                     movea.l    A1, A5
00001598  D3FC FFFD ADFE           add.l      A1, 0xFFFDADFE
0000159E  3211                     move.w     D1, [A1]
000015A0  D241                     add.w      D1, D1
000015A2  D240                     add.w      D1, D0
000015A4  3182 1000                move.w     [A0 + D1.w], D2
000015A8  204D                     movea.l    A0, A5
000015AA  D1FC FFFD AE00           add.l      A0, 0xFFFDAE00
000015B0  3010                     move.w     D0, [A0]
000015B2  C1FC 00C0                muls.w     D0, 0xC0
000015B6  204D                     movea.l    A0, A5
000015B8  D1FC FFFE 42D4           add.l      A0, 0xFFFE42D4
000015BE  224D                     movea.l    A1, A5
000015C0  D3FC FFFD ADFE           add.l      A1, 0xFFFDADFE
000015C6  3211                     move.w     D1, [A1]
000015C8  D241                     add.w      D1, D1
000015CA  D240                     add.w      D1, D0
000015CC  0270 BFFF 1000           andi.w     [A0 + D1.w], 0xBFFF
000015D2  204D                     movea.l    A0, A5
000015D4  D1FC FFFD AE08           add.l      A0, 0xFFFDAE08
000015DA  3010                     move.w     D0, [A0]
000015DC  C1FC 000C                muls.w     D0, 0xC
000015E0  204D                     movea.l    A0, A5
000015E2  D1FC FFFD 9400           add.l      A0, 0xFFFD9400
000015E8  1187 0008                move.b     [A0 + D0.w + 0x8], D7
000015EC  204D                     movea.l    A0, A5
000015EE  D1FC FFFD AE08           add.l      A0, 0xFFFDAE08
000015F4  3010                     move.w     D0, [A0]
000015F6  C1FC 000C                muls.w     D0, 0xC
000015FA  204D                     movea.l    A0, A5
000015FC  D1FC FFFD 9400           add.l      A0, 0xFFFD9400
00001602  1186 0009                move.b     [A0 + D0.w + 0x9], D6
00001606  204D                     movea.l    A0, A5
00001608  D1FC FFFD AE08           add.l      A0, 0xFFFDAE08
0000160E  3010                     move.w     D0, [A0]
00001610  C1FC 000C                muls.w     D0, 0xC
00001614  204D                     movea.l    A0, A5
00001616  D1FC FFFD 9400           add.l      A0, 0xFFFD9400
0000161C  7200                     moveq.l    D1, 0x00
0000161E  3230 0002                move.w     D1, [A0 + D0.w + 0x2]
00001622  4A81                     tst.l      D1
00001624  6200 0136                bhi        +0x138 /* 0000175C */
00001628  2007                     move.l     D0, D7
0000162A  C1FC 00C0                muls.w     D0, 0xC0
0000162E  204D                     movea.l    A0, A5
00001630  D1FC FFFE 42D4           add.l      A0, 0xFFFE42D4
00001636  2206                     move.l     D1, D6
00001638  D241                     add.w      D1, D1
0000163A  D240                     add.w      D1, D0
0000163C  0270 F7FF 1000           andi.w     [A0 + D1.w], 0xF7FF
00001642  2007                     move.l     D0, D7
00001644  C1FC 00C0                muls.w     D0, 0xC0
00001648  204D                     movea.l    A0, A5
0000164A  D1FC FFFE 42D4           add.l      A0, 0xFFFE42D4
00001650  2206                     move.l     D1, D6
00001652  D241                     add.w      D1, D1
00001654  D240                     add.w      D1, D0
00001656  7000                     moveq.l    D0, 0x00
00001658  3030 1000                move.w     D0, [A0 + D1.w]
0000165C  323C F800                move.w     D1, 0xF800
00001660  C240                     and.w      D1, D0
00001662  7000                     moveq.l    D0, 0x00
00001664  3001                     move.w     D0, D1
00001666  4A80                     tst.l      D0
00001668  204D                     movea.l    A0, A5
0000166A  D1FC FFFF 7942           add.l      A0, 0xFFFF7942
00001670  3210                     move.w     D1, [A0]
00001672  48C1                     ext.l      D1
00001674  2407                     move.l     D2, D7
00001676  C5FC 0060                muls.w     D2, 0x60 /* '`' */
0000167A  204D                     movea.l    A0, A5
0000167C  D1FC FFFD D6D4           add.l      A0, 0xFFFDD6D4
00001682  2606                     move.l     D3, D6
00001684  D642                     add.w      D3, D2
00001686  7400                     moveq.l    D2, 0x00
00001688  1430 3000                move.b     D2, [A0 + D3.w]
0000168C  760F                     moveq.l    D3, 0x0F
0000168E  C602                     and.b      D3, D2
00001690  7400                     moveq.l    D2, 0x00
00001692  1403                     move.b     D2, D3
00001694  D481                     add.l      D2, D1
00001696  8480                     or.l       D2, D0
00001698  203C FFFF BFFF           move.l     D0, 0xFFFFBFFF
0000169E  C082                     and.l      D0, D2
000016A0  2207                     move.l     D1, D7
000016A2  C3FC 00C0                muls.w     D1, 0xC0
000016A6  204D                     movea.l    A0, A5
000016A8  D1FC FFFE 42D4           add.l      A0, 0xFFFE42D4
000016AE  2406                     move.l     D2, D6
000016B0  D442                     add.w      D2, D2
000016B2  D441                     add.w      D2, D1
000016B4  3180 2000                move.w     [A0 + D2.w], D0
000016B8  2007                     move.l     D0, D7
000016BA  C1FC 00C0                muls.w     D0, 0xC0
000016BE  204D                     movea.l    A0, A5
000016C0  D1FC FFFD FAD4           add.l      A0, 0xFFFDFAD4
000016C6  2206                     move.l     D1, D6
000016C8  D241                     add.w      D1, D1
000016CA  D240                     add.w      D1, D0
000016CC  7000                     moveq.l    D0, 0x00
000016CE  3030 1000                move.w     D0, [A0 + D1.w]
000016D2  323C F800                move.w     D1, 0xF800
000016D6  C240                     and.w      D1, D0
000016D8  7000                     moveq.l    D0, 0x00
000016DA  3001                     move.w     D0, D1
000016DC  4A80                     tst.l      D0
000016DE  204D                     movea.l    A0, A5
000016E0  D1FC FFFF 7942           add.l      A0, 0xFFFF7942
000016E6  3210                     move.w     D1, [A0]
000016E8  48C1                     ext.l      D1
000016EA  2407                     move.l     D2, D7
000016EC  C5FC 0060                muls.w     D2, 0x60 /* '`' */
000016F0  204D                     movea.l    A0, A5
000016F2  D1FC FFFD D6D4           add.l      A0, 0xFFFDD6D4
000016F8  2606                     move.l     D3, D6
000016FA  D642                     add.w      D3, D2
000016FC  7400                     moveq.l    D2, 0x00
000016FE  1430 3000                move.b     D2, [A0 + D3.w]
00001702  760F                     moveq.l    D3, 0x0F
00001704  C602                     and.b      D3, D2
00001706  7400                     moveq.l    D2, 0x00
00001708  1403                     move.b     D2, D3
0000170A  D481                     add.l      D2, D1
0000170C  8480                     or.l       D2, D0
0000170E  2007                     move.l     D0, D7
00001710  C1FC 00C0                muls.w     D0, 0xC0
00001714  204D                     movea.l    A0, A5
00001716  D1FC FFFD FAD4           add.l      A0, 0xFFFDFAD4
0000171C  2206                     move.l     D1, D6
0000171E  D241                     add.w      D1, D1
00001720  D240                     add.w      D1, D0
00001722  3182 1000                move.w     [A0 + D1.w], D2
00001726  2007                     move.l     D0, D7
00001728  C1FC 00C0                muls.w     D0, 0xC0
0000172C  204D                     movea.l    A0, A5
0000172E  D1FC FFFE 42D4           add.l      A0, 0xFFFE42D4
00001734  2206                     move.l     D1, D6
00001736  D241                     add.w      D1, D1
00001738  D240                     add.w      D1, D0
0000173A  0270 BFFF 1000           andi.w     [A0 + D1.w], 0xBFFF
00001740  4878 012C                push.l     0x12C
00001744  204D                     movea.l    A0, A5
00001746  D1FC FFFD AE08           add.l      A0, 0xFFFDAE08
0000174C  3010                     move.w     D0, [A0]
0000174E  48C0                     ext.l      D0
00001750  2F00                     move.l     -[A7], D0
00001752  4EAD 04EA                jsr        [A5 + 0x4EA /* export_153, CODE:9 @ 00000000 */]
00001756  504F                     addq.w     A7, 8
00001758  6000 0340                bra        +0x342 /* 00001A9A */
label0000175C:
0000175C  204D                     movea.l    A0, A5
0000175E  D1FC FFFD AE08           add.l      A0, 0xFFFDAE08
00001764  3010                     move.w     D0, [A0]
00001766  C1FC 000C                muls.w     D0, 0xC
0000176A  204D                     movea.l    A0, A5
0000176C  D1FC FFFD 9400           add.l      A0, 0xFFFD9400
00001772  7200                     moveq.l    D1, 0x00
00001774  3230 0002                move.w     D1, [A0 + D0.w + 0x2]
00001778  0C41 0066                cmpi.w     D1, 0x66 /* 'f' */
0000177C  6400 0088                bcc        +0x8A /* 00001806 */
00001780  2007                     move.l     D0, D7
00001782  C1FC 00C0                muls.w     D0, 0xC0
00001786  204D                     movea.l    A0, A5
00001788  D1FC FFFD FAD4           add.l      A0, 0xFFFDFAD4
0000178E  2206                     move.l     D1, D6
00001790  D241                     add.w      D1, D1
00001792  D240                     add.w      D1, D0
00001794  7000                     moveq.l    D0, 0x00
00001796  3030 1000                move.w     D0, [A0 + D1.w]
0000179A  323C F800                move.w     D1, 0xF800
0000179E  C240                     and.w      D1, D0
000017A0  7000                     moveq.l    D0, 0x00
000017A2  3001                     move.w     D0, D1
000017A4  4A80                     tst.l      D0
000017A6  204D                     movea.l    A0, A5
000017A8  D1FC FFFF 79E4           add.l      A0, 0xFFFF79E4
000017AE  3210                     move.w     D1, [A0]
000017B0  48C1                     ext.l      D1
000017B2  5881                     addq.l     D1, 4
000017B4  8280                     or.l       D1, D0
000017B6  2007                     move.l     D0, D7
000017B8  C1FC 00C0                muls.w     D0, 0xC0
000017BC  204D                     movea.l    A0, A5
000017BE  D1FC FFFD FAD4           add.l      A0, 0xFFFDFAD4
000017C4  2406                     move.l     D2, D6
000017C6  D442                     add.w      D2, D2
000017C8  D440                     add.w      D2, D0
000017CA  3181 2000                move.w     [A0 + D2.w], D1
000017CE  2007                     move.l     D0, D7
000017D0  C1FC 00C0                muls.w     D0, 0xC0
000017D4  204D                     movea.l    A0, A5
000017D6  D1FC FFFE 42D4           add.l      A0, 0xFFFE42D4
000017DC  2206                     move.l     D1, D6
000017DE  D241                     add.w      D1, D1
000017E0  D240                     add.w      D1, D0
000017E2  0270 BFFF 1000           andi.w     [A0 + D1.w], 0xBFFF
000017E8  2007                     move.l     D0, D7
000017EA  C1FC 00C0                muls.w     D0, 0xC0
000017EE  204D                     movea.l    A0, A5
000017F0  D1FC FFFE 42D4           add.l      A0, 0xFFFE42D4
000017F6  2206                     move.l     D1, D6
000017F8  D241                     add.w      D1, D1
000017FA  D240                     add.w      D1, D0
000017FC  0070 0800 1000           ori.w      [A0 + D1.w], 0x800
00001802  6000 0296                bra        +0x298 /* 00001A9A */
label00001806:
00001806  204D                     movea.l    A0, A5
00001808  D1FC FFFD AE08           add.l      A0, 0xFFFDAE08
0000180E  3010                     move.w     D0, [A0]
00001810  C1FC 000C                muls.w     D0, 0xC
00001814  204D                     movea.l    A0, A5
00001816  D1FC FFFD 9400           add.l      A0, 0xFFFD9400
0000181C  7200                     moveq.l    D1, 0x00
0000181E  3230 0002                move.w     D1, [A0 + D0.w + 0x2]
00001822  0C41 00CE                cmpi.w     D1, 0xCE
00001826  6400 0088                bcc        +0x8A /* 000018B0 */
0000182A  2007                     move.l     D0, D7
0000182C  C1FC 00C0                muls.w     D0, 0xC0
00001830  204D                     movea.l    A0, A5
00001832  D1FC FFFD FAD4           add.l      A0, 0xFFFDFAD4
00001838  2206                     move.l     D1, D6
0000183A  D241                     add.w      D1, D1
0000183C  D240                     add.w      D1, D0
0000183E  7000                     moveq.l    D0, 0x00
00001840  3030 1000                move.w     D0, [A0 + D1.w]
00001844  323C F800                move.w     D1, 0xF800
00001848  C240                     and.w      D1, D0
0000184A  7000                     moveq.l    D0, 0x00
0000184C  3001                     move.w     D0, D1
0000184E  4A80                     tst.l      D0
00001850  204D                     movea.l    A0, A5
00001852  D1FC FFFF 79E4           add.l      A0, 0xFFFF79E4
00001858  3210                     move.w     D1, [A0]
0000185A  48C1                     ext.l      D1
0000185C  5681                     addq.l     D1, 3
0000185E  8280                     or.l       D1, D0
00001860  2007                     move.l     D0, D7
00001862  C1FC 00C0                muls.w     D0, 0xC0
00001866  204D                     movea.l    A0, A5
00001868  D1FC FFFD FAD4           add.l      A0, 0xFFFDFAD4
0000186E  2406                     move.l     D2, D6
00001870  D442                     add.w      D2, D2
00001872  D440                     add.w      D2, D0
00001874  3181 2000                move.w     [A0 + D2.w], D1
00001878  2007                     move.l     D0, D7
0000187A  C1FC 00C0                muls.w     D0, 0xC0
0000187E  204D                     movea.l    A0, A5
00001880  D1FC FFFE 42D4           add.l      A0, 0xFFFE42D4
00001886  2206                     move.l     D1, D6
00001888  D241                     add.w      D1, D1
0000188A  D240                     add.w      D1, D0
0000188C  0270 BFFF 1000           andi.w     [A0 + D1.w], 0xBFFF
00001892  2007                     move.l     D0, D7
00001894  C1FC 00C0                muls.w     D0, 0xC0
00001898  204D                     movea.l    A0, A5
0000189A  D1FC FFFE 42D4           add.l      A0, 0xFFFE42D4
000018A0  2206                     move.l     D1, D6
000018A2  D241                     add.w      D1, D1
000018A4  D240                     add.w      D1, D0
000018A6  0070 0800 1000           ori.w      [A0 + D1.w], 0x800
000018AC  6000 01EC                bra        +0x1EE /* 00001A9A */
label000018B0:
000018B0  204D                     movea.l    A0, A5
000018B2  D1FC FFFD AE08           add.l      A0, 0xFFFDAE08
000018B8  3010                     move.w     D0, [A0]
000018BA  C1FC 000C                muls.w     D0, 0xC
000018BE  204D                     movea.l    A0, A5
000018C0  D1FC FFFD 9400           add.l      A0, 0xFFFD9400
000018C6  7200                     moveq.l    D1, 0x00
000018C8  3230 0002                move.w     D1, [A0 + D0.w + 0x2]
000018CC  0C41 0134                cmpi.w     D1, 0x134
000018D0  6400 0088                bcc        +0x8A /* 0000195A */
000018D4  2007                     move.l     D0, D7
000018D6  C1FC 00C0                muls.w     D0, 0xC0
000018DA  204D                     movea.l    A0, A5
000018DC  D1FC FFFD FAD4           add.l      A0, 0xFFFDFAD4
000018E2  2206                     move.l     D1, D6
000018E4  D241                     add.w      D1, D1
000018E6  D240                     add.w      D1, D0
000018E8  7000                     moveq.l    D0, 0x00
000018EA  3030 1000                move.w     D0, [A0 + D1.w]
000018EE  323C F800                move.w     D1, 0xF800
000018F2  C240                     and.w      D1, D0
000018F4  7000                     moveq.l    D0, 0x00
000018F6  3001                     move.w     D0, D1
000018F8  4A80                     tst.l      D0
000018FA  204D                     movea.l    A0, A5
000018FC  D1FC FFFF 79E4           add.l      A0, 0xFFFF79E4
00001902  3210                     move.w     D1, [A0]
00001904  48C1                     ext.l      D1
00001906  5481                     addq.l     D1, 2
00001908  8280                     or.l       D1, D0
0000190A  2007                     move.l     D0, D7
0000190C  C1FC 00C0                muls.w     D0, 0xC0
00001910  204D                     movea.l    A0, A5
00001912  D1FC FFFD FAD4           add.l      A0, 0xFFFDFAD4
00001918  2406                     move.l     D2, D6
0000191A  D442                     add.w      D2, D2
0000191C  D440                     add.w      D2, D0
0000191E  3181 2000                move.w     [A0 + D2.w], D1
00001922  2007                     move.l     D0, D7
00001924  C1FC 00C0                muls.w     D0, 0xC0
00001928  204D                     movea.l    A0, A5
0000192A  D1FC FFFE 42D4           add.l      A0, 0xFFFE42D4
00001930  2206                     move.l     D1, D6
00001932  D241                     add.w      D1, D1
00001934  D240                     add.w      D1, D0
00001936  0270 BFFF 1000           andi.w     [A0 + D1.w], 0xBFFF
0000193C  2007                     move.l     D0, D7
0000193E  C1FC 00C0                muls.w     D0, 0xC0
00001942  204D                     movea.l    A0, A5
00001944  D1FC FFFE 42D4           add.l      A0, 0xFFFE42D4
0000194A  2206                     move.l     D1, D6
0000194C  D241                     add.w      D1, D1
0000194E  D240                     add.w      D1, D0
00001950  0070 0800 1000           ori.w      [A0 + D1.w], 0x800
00001956  6000 0142                bra        +0x144 /* 00001A9A */
label0000195A:
0000195A  204D                     movea.l    A0, A5
0000195C  D1FC FFFD AE08           add.l      A0, 0xFFFDAE08
00001962  3010                     move.w     D0, [A0]
00001964  C1FC 000C                muls.w     D0, 0xC
00001968  204D                     movea.l    A0, A5
0000196A  D1FC FFFD 9400           add.l      A0, 0xFFFD9400
00001970  7200                     moveq.l    D1, 0x00
00001972  3230 0002                move.w     D1, [A0 + D0.w + 0x2]
00001976  0C41 019A                cmpi.w     D1, 0x19A
0000197A  6400 0088                bcc        +0x8A /* 00001A04 */
0000197E  2007                     move.l     D0, D7
00001980  C1FC 00C0                muls.w     D0, 0xC0
00001984  204D                     movea.l    A0, A5
00001986  D1FC FFFD FAD4           add.l      A0, 0xFFFDFAD4
0000198C  2206                     move.l     D1, D6
0000198E  D241                     add.w      D1, D1
00001990  D240                     add.w      D1, D0
00001992  7000                     moveq.l    D0, 0x00
00001994  3030 1000                move.w     D0, [A0 + D1.w]
00001998  323C F800                move.w     D1, 0xF800
0000199C  C240                     and.w      D1, D0
0000199E  7000                     moveq.l    D0, 0x00
000019A0  3001                     move.w     D0, D1
000019A2  4A80                     tst.l      D0
000019A4  204D                     movea.l    A0, A5
000019A6  D1FC FFFF 79E4           add.l      A0, 0xFFFF79E4
000019AC  3210                     move.w     D1, [A0]
000019AE  48C1                     ext.l      D1
000019B0  5281                     addq.l     D1, 1
000019B2  8280                     or.l       D1, D0
000019B4  2007                     move.l     D0, D7
000019B6  C1FC 00C0                muls.w     D0, 0xC0
000019BA  204D                     movea.l    A0, A5
000019BC  D1FC FFFD FAD4           add.l      A0, 0xFFFDFAD4
000019C2  2406                     move.l     D2, D6
000019C4  D442                     add.w      D2, D2
000019C6  D440                     add.w      D2, D0
000019C8  3181 2000                move.w     [A0 + D2.w], D1
000019CC  2007                     move.l     D0, D7
000019CE  C1FC 00C0                muls.w     D0, 0xC0
000019D2  204D                     movea.l    A0, A5
000019D4  D1FC FFFE 42D4           add.l      A0, 0xFFFE42D4
000019DA  2206                     move.l     D1, D6
000019DC  D241                     add.w      D1, D1
000019DE  D240                     add.w      D1, D0
000019E0  0270 BFFF 1000           andi.w     [A0 + D1.w], 0xBFFF
000019E6  2007                     move.l     D0, D7
000019E8  C1FC 00C0                muls.w     D0, 0xC0
000019EC  204D                     movea.l    A0, A5
000019EE  D1FC FFFE 42D4           add.l      A0, 0xFFFE42D4
000019F4  2206                     move.l     D1, D6
000019F6  D241                     add.w      D1, D1
000019F8  D240                     add.w      D1, D0
000019FA  0070 0800 1000           ori.w      [A0 + D1.w], 0x800
00001A00  6000 0098                bra        +0x9A /* 00001A9A */
label00001A04:
00001A04  2007                     move.l     D0, D7
00001A06  C1FC 00C0                muls.w     D0, 0xC0
00001A0A  204D                     movea.l    A0, A5
00001A0C  D1FC FFFD FAD4           add.l      A0, 0xFFFDFAD4
00001A12  2206                     move.l     D1, D6
00001A14  D241                     add.w      D1, D1
00001A16  D240                     add.w      D1, D0
00001A18  7000                     moveq.l    D0, 0x00
00001A1A  3030 1000                move.w     D0, [A0 + D1.w]
00001A1E  323C F800                move.w     D1, 0xF800
00001A22  C240                     and.w      D1, D0
00001A24  7000                     moveq.l    D0, 0x00
00001A26  3001                     move.w     D0, D1
00001A28  4A80                     tst.l      D0
00001A2A  204D                     movea.l    A0, A5
00001A2C  D1FC FFFF 79E4           add.l      A0, 0xFFFF79E4
00001A32  3210                     move.w     D1, [A0]
00001A34  48C1                     ext.l      D1
00001A36  8280                     or.l       D1, D0
00001A38  2007                     move.l     D0, D7
00001A3A  C1FC 00C0                muls.w     D0, 0xC0
00001A3E  204D                     movea.l    A0, A5
00001A40  D1FC FFFD FAD4           add.l      A0, 0xFFFDFAD4
00001A46  2406                     move.l     D2, D6
00001A48  D442                     add.w      D2, D2
00001A4A  D440                     add.w      D2, D0
00001A4C  3181 2000                move.w     [A0 + D2.w], D1
00001A50  2007                     move.l     D0, D7
00001A52  C1FC 00C0                muls.w     D0, 0xC0
00001A56  204D                     movea.l    A0, A5
00001A58  D1FC FFFE 42D4           add.l      A0, 0xFFFE42D4
00001A5E  2206                     move.l     D1, D6
00001A60  D241                     add.w      D1, D1
00001A62  D240                     add.w      D1, D0
00001A64  0270 BFFF 1000           andi.w     [A0 + D1.w], 0xBFFF
00001A6A  2007                     move.l     D0, D7
00001A6C  C1FC 00C0                muls.w     D0, 0xC0
00001A70  204D                     movea.l    A0, A5
00001A72  D1FC FFFE 42D4           add.l      A0, 0xFFFE42D4
00001A78  2206                     move.l     D1, D6
00001A7A  D241                     add.w      D1, D1
00001A7C  D240                     add.w      D1, D0
00001A7E  0070 0800 1000           ori.w      [A0 + D1.w], 0x800
00001A84  6014                     bra        +0x16 /* 00001A9A */
label00001A86:
00001A86  204D                     movea.l    A0, A5
00001A88  D1FC FFFD ADF4           add.l      A0, 0xFFFDADF4
00001A8E  4850                     pea.l      [A0]
00001A90  4EAD 0742                jsr        [A5 + 0x742 /* export_228, CODE:12 @ 000045BA */]
00001A94  7001                     moveq.l    D0, 0x01
00001A96  584F                     addq.w     A7, 4
00001A98  6006                     bra        +0x8 /* 00001AA0 */
label00001A9A:
00001A9A  7000                     moveq.l    D0, 0x00
00001A9C  6002                     bra        +0x4 /* 00001AA0 */
00001A9E  7000                     moveq.l    D0, 0x00
label00001AA0:
00001AA0  4CEE 00F8 FFEA           movem.l    D3,D4,D5,D6,D7, [A6 - 0x16]
00001AA6  4E5E                     unlink     A6
00001AA8  4E75                     rts
00001AAA  8021 646F 6D6F 7665 6... dc.b       "domovemode__F15eMoveCursorTypesT2"
