# near model CODE resource
# jump table entries: 1664-1684 (21 of them)
export_208:
00000000  4E56 FFFA                link       A6, -0x0006
00000004  48E7 1718                movem.l    -[A7], D3,D5,D6,D7,A3,A4
00000008  204D                     movea.l    A0, A5
0000000A  D1FC FFFE BF82           add.l      A0, 0xFFFEBF82
00000010  49D0                     lea.l      A4, [A0]
00000012  3C2E 000A                move.w     D6, [A6 + 0xA]
00000016  1D7C 0018 FFFD           move.b     [A6 - 0x3], 0x18
0000001C  48C6                     ext.l      D6
0000001E  2F06                     move.l     -[A7], D6
00000020  7001                     moveq.l    D0, 0x01
00000022  2F00                     move.l     -[A7], D0
00000024  2F00                     move.l     -[A7], D0
00000026  486E FFFD                pea.l      [A6 - 0x3]
0000002A  4EAD 141A                jsr        [A5 + 0x141A /* export_639, CODE:27 @ 00002B78 */]
0000002E  48C6                     ext.l      D6
00000030  2F06                     move.l     -[A7], D6
00000032  7001                     moveq.l    D0, 0x01
00000034  2F00                     move.l     -[A7], D0
00000036  7202                     moveq.l    D1, 0x02
00000038  2F01                     move.l     -[A7], D1
0000003A  204D                     movea.l    A0, A5
0000003C  D1FC FFFD 71EA           add.l      A0, 0xFFFD71EA
00000042  4850                     pea.l      [A0]
00000044  4EAD 141A                jsr        [A5 + 0x141A /* export_639, CODE:27 @ 00002B78 */]
00000048  7E00                     moveq.l    D7, 0x00
0000004A  4FEF 0020                lea.l      A7, [A7 + 0x20]
label0000004E:
0000004E  48C6                     ext.l      D6
00000050  2F06                     move.l     -[A7], D6
00000052  7001                     moveq.l    D0, 0x01
00000054  2F00                     move.l     -[A7], D0
00000056  7222                     moveq.l    D1, 0x22
00000058  2F01                     move.l     -[A7], D1
0000005A  2407                     move.l     D2, D7
0000005C  C5FC 0022                muls.w     D2, 0x22 /* '\"' */
00000060  204D                     movea.l    A0, A5
00000062  D1FC FFFD 71EC           add.l      A0, 0xFFFD71EC
00000068  4870 2000                pea.l      [A0 + D2.w]
0000006C  4EAD 141A                jsr        [A5 + 0x141A /* export_639, CODE:27 @ 00002B78 */]
00000070  4FEF 0010                lea.l      A7, [A7 + 0x10]
00000074  2007                     move.l     D0, D7
00000076  5287                     addq.l     D7, 1
00000078  0C87 0000 0100           cmpi.l     D7, 0x100
0000007E  6DCE                     blt        -0x30 /* 0000004E */
00000080  48C6                     ext.l      D6
00000082  2F06                     move.l     -[A7], D6
00000084  7001                     moveq.l    D0, 0x01
00000086  2F00                     move.l     -[A7], D0
00000088  7202                     moveq.l    D1, 0x02
0000008A  2F01                     move.l     -[A7], D1
0000008C  204D                     movea.l    A0, A5
0000008E  D1FC FFFE 8AEE           add.l      A0, 0xFFFE8AEE
00000094  4850                     pea.l      [A0]
00000096  4EAD 141A                jsr        [A5 + 0x141A /* export_639, CODE:27 @ 00002B78 */]
0000009A  7E00                     moveq.l    D7, 0x00
0000009C  4FEF 0010                lea.l      A7, [A7 + 0x10]
label000000A0:
000000A0  48C6                     ext.l      D6
000000A2  2F06                     move.l     -[A7], D6
000000A4  7001                     moveq.l    D0, 0x01
000000A6  2F00                     move.l     -[A7], D0
000000A8  7214                     moveq.l    D1, 0x14
000000AA  2F01                     move.l     -[A7], D1
000000AC  2407                     move.l     D2, D7
000000AE  48C2                     ext.l      D2
000000B0  E58A                     lsl        D2, 2
000000B2  2602                     move.l     D3, D2
000000B4  E58A                     lsl        D2, 2
000000B6  D483                     add.l      D2, D3
000000B8  204D                     movea.l    A0, A5
000000BA  D1FC FFFE 8AF0           add.l      A0, 0xFFFE8AF0
000000C0  4870 2000                pea.l      [A0 + D2.w]
000000C4  4EAD 141A                jsr        [A5 + 0x141A /* export_639, CODE:27 @ 00002B78 */]
000000C8  4FEF 0010                lea.l      A7, [A7 + 0x10]
000000CC  2007                     move.l     D0, D7
000000CE  5287                     addq.l     D7, 1
000000D0  707F                     moveq.l    D0, 0x7F
000000D2  B087                     cmp.l      D0, D7
000000D4  6ECA                     bgt        -0x34 /* 000000A0 */
000000D6  48C6                     ext.l      D6
000000D8  2F06                     move.l     -[A7], D6
000000DA  7001                     moveq.l    D0, 0x01
000000DC  2F00                     move.l     -[A7], D0
000000DE  7202                     moveq.l    D1, 0x02
000000E0  2F01                     move.l     -[A7], D1
000000E2  204D                     movea.l    A0, A5
000000E4  D1FC FFFE 9F9A           add.l      A0, 0xFFFE9F9A
000000EA  4850                     pea.l      [A0]
000000EC  4EAD 141A                jsr        [A5 + 0x141A /* export_639, CODE:27 @ 00002B78 */]
000000F0  7E00                     moveq.l    D7, 0x00
000000F2  4FEF 0010                lea.l      A7, [A7 + 0x10]
label000000F6:
000000F6  48C6                     ext.l      D6
000000F8  2F06                     move.l     -[A7], D6
000000FA  7001                     moveq.l    D0, 0x01
000000FC  2F00                     move.l     -[A7], D0
000000FE  723A                     moveq.l    D1, 0x3A
00000100  2F01                     move.l     -[A7], D1
00000102  2407                     move.l     D2, D7
00000104  C5FC 003A                muls.w     D2, 0x3A /* ':' */
00000108  204D                     movea.l    A0, A5
0000010A  D1FC FFFE 9F9C           add.l      A0, 0xFFFE9F9C
00000110  4870 2000                pea.l      [A0 + D2.w]
00000114  4EAD 141A                jsr        [A5 + 0x141A /* export_639, CODE:27 @ 00002B78 */]
00000118  4FEF 0010                lea.l      A7, [A7 + 0x10]
0000011C  2007                     move.l     D0, D7
0000011E  5287                     addq.l     D7, 1
00000120  707F                     moveq.l    D0, 0x7F
00000122  B087                     cmp.l      D0, D7
00000124  6ED0                     bgt        -0x2E /* 000000F6 */
00000126  48C6                     ext.l      D6
00000128  2F06                     move.l     -[A7], D6
0000012A  7001                     moveq.l    D0, 0x01
0000012C  2F00                     move.l     -[A7], D0
0000012E  7202                     moveq.l    D1, 0x02
00000130  2F01                     move.l     -[A7], D1
00000132  204D                     movea.l    A0, A5
00000134  D1FC FFFD AFAC           add.l      A0, 0xFFFDAFAC
0000013A  4850                     pea.l      [A0]
0000013C  4EAD 141A                jsr        [A5 + 0x141A /* export_639, CODE:27 @ 00002B78 */]
00000140  7E00                     moveq.l    D7, 0x00
00000142  4FEF 0010                lea.l      A7, [A7 + 0x10]
label00000146:
00000146  48C6                     ext.l      D6
00000148  2F06                     move.l     -[A7], D6
0000014A  7001                     moveq.l    D0, 0x01
0000014C  2F00                     move.l     -[A7], D0
0000014E  7244                     moveq.l    D1, 0x44
00000150  2F01                     move.l     -[A7], D1
00000152  2407                     move.l     D2, D7
00000154  C5FC 0044                muls.w     D2, 0x44 /* 'D' */
00000158  204D                     movea.l    A0, A5
0000015A  D1FC FFFD AFAE           add.l      A0, 0xFFFDAFAE
00000160  4870 2000                pea.l      [A0 + D2.w]
00000164  4EAD 141A                jsr        [A5 + 0x141A /* export_639, CODE:27 @ 00002B78 */]
00000168  4FEF 0010                lea.l      A7, [A7 + 0x10]
0000016C  2007                     move.l     D0, D7
0000016E  5287                     addq.l     D7, 1
00000170  7062                     moveq.l    D0, 0x62
00000172  B087                     cmp.l      D0, D7
00000174  6ED0                     bgt        -0x2E /* 00000146 */
00000176  48C6                     ext.l      D6
00000178  2F06                     move.l     -[A7], D6
0000017A  7001                     moveq.l    D0, 0x01
0000017C  2F00                     move.l     -[A7], D0
0000017E  7202                     moveq.l    D1, 0x02
00000180  2F01                     move.l     -[A7], D1
00000182  204D                     movea.l    A0, A5
00000184  D1FC FFFE 94DC           add.l      A0, 0xFFFE94DC
0000018A  4850                     pea.l      [A0]
0000018C  4EAD 141A                jsr        [A5 + 0x141A /* export_639, CODE:27 @ 00002B78 */]
00000190  7E00                     moveq.l    D7, 0x00
00000192  4FEF 0010                lea.l      A7, [A7 + 0x10]
label00000196:
00000196  48C6                     ext.l      D6
00000198  2F06                     move.l     -[A7], D6
0000019A  7001                     moveq.l    D0, 0x01
0000019C  2F00                     move.l     -[A7], D0
0000019E  7246                     moveq.l    D1, 0x46
000001A0  2F01                     move.l     -[A7], D1
000001A2  2407                     move.l     D2, D7
000001A4  C5FC 0046                muls.w     D2, 0x46 /* 'F' */
000001A8  204D                     movea.l    A0, A5
000001AA  D1FC FFFE D880           add.l      A0, 0xFFFED880
000001B0  4870 2000                pea.l      [A0 + D2.w]
000001B4  4EAD 141A                jsr        [A5 + 0x141A /* export_639, CODE:27 @ 00002B78 */]
000001B8  4FEF 0010                lea.l      A7, [A7 + 0x10]
000001BC  2007                     move.l     D0, D7
000001BE  5287                     addq.l     D7, 1
000001C0  707F                     moveq.l    D0, 0x7F
000001C2  B087                     cmp.l      D0, D7
000001C4  6ED0                     bgt        -0x2E /* 00000196 */
000001C6  48C6                     ext.l      D6
000001C8  2F06                     move.l     -[A7], D6
000001CA  7001                     moveq.l    D0, 0x01
000001CC  2F00                     move.l     -[A7], D0
000001CE  7202                     moveq.l    D1, 0x02
000001D0  2F01                     move.l     -[A7], D1
000001D2  204D                     movea.l    A0, A5
000001D4  D1FC FFFD 93FE           add.l      A0, 0xFFFD93FE
000001DA  4850                     pea.l      [A0]
000001DC  4EAD 141A                jsr        [A5 + 0x141A /* export_639, CODE:27 @ 00002B78 */]
000001E0  7E00                     moveq.l    D7, 0x00
000001E2  4FEF 0010                lea.l      A7, [A7 + 0x10]
label000001E6:
000001E6  48C6                     ext.l      D6
000001E8  2F06                     move.l     -[A7], D6
000001EA  7001                     moveq.l    D0, 0x01
000001EC  2F00                     move.l     -[A7], D0
000001EE  720C                     moveq.l    D1, 0x0C
000001F0  2F01                     move.l     -[A7], D1
000001F2  2407                     move.l     D2, D7
000001F4  C5FC 000C                muls.w     D2, 0xC
000001F8  204D                     movea.l    A0, A5
000001FA  D1FC FFFD 9400           add.l      A0, 0xFFFD9400
00000200  4870 2000                pea.l      [A0 + D2.w]
00000204  4EAD 141A                jsr        [A5 + 0x141A /* export_639, CODE:27 @ 00002B78 */]
00000208  4FEF 0010                lea.l      A7, [A7 + 0x10]
0000020C  2007                     move.l     D0, D7
0000020E  5287                     addq.l     D7, 1
00000210  0C87 0000 0200           cmpi.l     D7, 0x200
00000216  6DCE                     blt        -0x30 /* 000001E6 */
00000218  48C6                     ext.l      D6
0000021A  2F06                     move.l     -[A7], D6
0000021C  7001                     moveq.l    D0, 0x01
0000021E  2F00                     move.l     -[A7], D0
00000220  2F00                     move.l     -[A7], D0
00000222  204D                     movea.l    A0, A5
00000224  D1FC FFFE D29A           add.l      A0, 0xFFFED29A
0000022A  4850                     pea.l      [A0]
0000022C  4EAD 141A                jsr        [A5 + 0x141A /* export_639, CODE:27 @ 00002B78 */]
00000230  7E00                     moveq.l    D7, 0x00
00000232  4FEF 0010                lea.l      A7, [A7 + 0x10]
label00000236:
00000236  48C6                     ext.l      D6
00000238  2F06                     move.l     -[A7], D6
0000023A  7001                     moveq.l    D0, 0x01
0000023C  2F00                     move.l     -[A7], D0
0000023E  7208                     moveq.l    D1, 0x08
00000240  2F01                     move.l     -[A7], D1
00000242  2407                     move.l     D2, D7
00000244  E742                     asl        D2.w, 3
00000246  204D                     movea.l    A0, A5
00000248  D1FC FFFE D21A           add.l      A0, 0xFFFED21A
0000024E  4870 2000                pea.l      [A0 + D2.w]
00000252  4EAD 141A                jsr        [A5 + 0x141A /* export_639, CODE:27 @ 00002B78 */]
00000256  4FEF 0010                lea.l      A7, [A7 + 0x10]
0000025A  2007                     move.l     D0, D7
0000025C  5287                     addq.l     D7, 1
0000025E  7010                     moveq.l    D0, 0x10
00000260  B087                     cmp.l      D0, D7
00000262  6ED2                     bgt        -0x2C /* 00000236 */
00000264  558F                     subq.l     A7, 2
00000266  204D                     movea.l    A0, A5
00000268  D1FC FFFF 7822           add.l      A0, 0xFFFF7822
0000026E  4850                     pea.l      [A0]
00000270  7000                     moveq.l    D0, 0x00
00000272  1F00                     move.b     -[A7], D0
00000274  486E FFFE                pea.l      [A6 - 0x2]
00000278  303C 0002                move.w     D0, 0x2
0000027C  AA52                     syscall    HFSPinaforeDispatch/HighLevelFSDispatch
0000027E  3A1F                     move.w     D5, [A7]+
00000280  6706                     beq        +0x8 /* 00000288 */
00000282  7000                     moveq.l    D0, 0x00
00000284  6000 0C22                bra        +0xC24 /* 00000EA8 */
label00000288:
00000288  203C 0000 B7C0           move.l     D0, 0xB7C0
0000028E  A11E                     syscall    NewPtr, flags=1
00000290  2648                     movea.l    A3, A0
00000292  200B                     move.l     D0, A3
00000294  6640                     bne        +0x42 /* 000002D6 */
00000296  7E00                     moveq.l    D7, 0x00
label00000298:
00000298  302E FFFE                move.w     D0, [A6 - 0x2]
0000029C  48C0                     ext.l      D0
0000029E  2F00                     move.l     -[A7], D0
000002A0  7001                     moveq.l    D0, 0x01
000002A2  2F00                     move.l     -[A7], D0
000002A4  7202                     moveq.l    D1, 0x02
000002A6  2F01                     move.l     -[A7], D1
000002A8  486E FFFA                pea.l      [A6 - 0x6]
000002AC  4EAD 1412                jsr        [A5 + 0x1412 /* export_638, CODE:27 @ 00002B38 */]
000002B0  48C6                     ext.l      D6
000002B2  2F06                     move.l     -[A7], D6
000002B4  7001                     moveq.l    D0, 0x01
000002B6  2F00                     move.l     -[A7], D0
000002B8  7202                     moveq.l    D1, 0x02
000002BA  2F01                     move.l     -[A7], D1
000002BC  486E FFFA                pea.l      [A6 - 0x6]
000002C0  4EAD 141A                jsr        [A5 + 0x141A /* export_639, CODE:27 @ 00002B78 */]
000002C4  4FEF 0020                lea.l      A7, [A7 + 0x20]
000002C8  2007                     move.l     D0, D7
000002CA  5287                     addq.l     D7, 1
000002CC  0C87 0000 5BE0           cmpi.l     D7, 0x5BE0
000002D2  6DC4                     blt        -0x3A /* 00000298 */
000002D4  6030                     bra        +0x32 /* 00000306 */
label000002D6:
000002D6  302E FFFE                move.w     D0, [A6 - 0x2]
000002DA  48C0                     ext.l      D0
000002DC  2F00                     move.l     -[A7], D0
000002DE  4878 5BE0                push.l     0x5BE0
000002E2  7002                     moveq.l    D0, 0x02
000002E4  2F00                     move.l     -[A7], D0
000002E6  2F0B                     move.l     -[A7], A3
000002E8  4EAD 1412                jsr        [A5 + 0x1412 /* export_638, CODE:27 @ 00002B38 */]
000002EC  48C6                     ext.l      D6
000002EE  2F06                     move.l     -[A7], D6
000002F0  4878 5BE0                push.l     0x5BE0
000002F4  7002                     moveq.l    D0, 0x02
000002F6  2F00                     move.l     -[A7], D0
000002F8  2F0B                     move.l     -[A7], A3
000002FA  4EAD 141A                jsr        [A5 + 0x141A /* export_639, CODE:27 @ 00002B78 */]
000002FE  204B                     movea.l    A0, A3
00000300  A01F                     syscall    DisposPtr/DisposePtr
00000302  4FEF 0020                lea.l      A7, [A7 + 0x20]
label00000306:
00000306  558F                     subq.l     A7, 2
00000308  3F2E FFFE                move.w     -[A7], [A6 - 0x2]
0000030C  4EAD 007A                jsr        [A5 + 0x7A /* export_11, CODE:1 @ 0000118E */]
00000310  48C6                     ext.l      D6
00000312  2F06                     move.l     -[A7], D6
00000314  7001                     moveq.l    D0, 0x01
00000316  2F00                     move.l     -[A7], D0
00000318  4878 4800                push.l     0x4800 /* 'H\0' */
0000031C  204D                     movea.l    A0, A5
0000031E  D1FC FFFE 42D4           add.l      A0, 0xFFFE42D4
00000324  4850                     pea.l      [A0]
00000326  4EAD 141A                jsr        [A5 + 0x141A /* export_639, CODE:27 @ 00002B78 */]
0000032A  48C6                     ext.l      D6
0000032C  2F06                     move.l     -[A7], D6
0000032E  7001                     moveq.l    D0, 0x01
00000330  2F00                     move.l     -[A7], D0
00000332  4878 4800                push.l     0x4800 /* 'H\0' */
00000336  204D                     movea.l    A0, A5
00000338  D1FC FFFD FAD4           add.l      A0, 0xFFFDFAD4
0000033E  4850                     pea.l      [A0]
00000340  4EAD 141A                jsr        [A5 + 0x141A /* export_639, CODE:27 @ 00002B78 */]
00000344  48C6                     ext.l      D6
00000346  2F06                     move.l     -[A7], D6
00000348  7001                     moveq.l    D0, 0x01
0000034A  2F00                     move.l     -[A7], D0
0000034C  4878 2400                push.l     0x2400 /* '$\0' */
00000350  204D                     movea.l    A0, A5
00000352  D1FC FFFD D6D4           add.l      A0, 0xFFFDD6D4
00000358  4850                     pea.l      [A0]
0000035A  4EAD 141A                jsr        [A5 + 0x141A /* export_639, CODE:27 @ 00002B78 */]
0000035E  7E00                     moveq.l    D7, 0x00
00000360  4FEF 0032                lea.l      A7, [A7 + 0x32]
label00000364:
00000364  48C6                     ext.l      D6
00000366  2F06                     move.l     -[A7], D6
00000368  7001                     moveq.l    D0, 0x01
0000036A  2F00                     move.l     -[A7], D0
0000036C  2F00                     move.l     -[A7], D0
0000036E  204D                     movea.l    A0, A5
00000370  D1FC FFFE D734           add.l      A0, 0xFFFED734
00000376  4870 7000                pea.l      [A0 + D7.w]
0000037A  4EAD 141A                jsr        [A5 + 0x141A /* export_639, CODE:27 @ 00002B78 */]
0000037E  48C6                     ext.l      D6
00000380  2F06                     move.l     -[A7], D6
00000382  7001                     moveq.l    D0, 0x01
00000384  2F00                     move.l     -[A7], D0
00000386  2F00                     move.l     -[A7], D0
00000388  204D                     movea.l    A0, A5
0000038A  D1FC FFFE D642           add.l      A0, 0xFFFED642
00000390  4870 7000                pea.l      [A0 + D7.w]
00000394  4EAD 141A                jsr        [A5 + 0x141A /* export_639, CODE:27 @ 00002B78 */]
00000398  48C6                     ext.l      D6
0000039A  2F06                     move.l     -[A7], D6
0000039C  7001                     moveq.l    D0, 0x01
0000039E  2F00                     move.l     -[A7], D0
000003A0  2F00                     move.l     -[A7], D0
000003A2  204D                     movea.l    A0, A5
000003A4  D1FC FFFE D54E           add.l      A0, 0xFFFED54E
000003AA  4870 7000                pea.l      [A0 + D7.w]
000003AE  4EAD 141A                jsr        [A5 + 0x141A /* export_639, CODE:27 @ 00002B78 */]
000003B2  4FEF 0030                lea.l      A7, [A7 + 0x30]
000003B6  2007                     move.l     D0, D7
000003B8  5287                     addq.l     D7, 1
000003BA  0C87 0000 00F0           cmpi.l     D7, 0xF0
000003C0  6DA2                     blt        -0x5C /* 00000364 */
000003C2  7E00                     moveq.l    D7, 0x00
label000003C4:
000003C4  48C6                     ext.l      D6
000003C6  2F06                     move.l     -[A7], D6
000003C8  7001                     moveq.l    D0, 0x01
000003CA  2F00                     move.l     -[A7], D0
000003CC  7212                     moveq.l    D1, 0x12
000003CE  2F01                     move.l     -[A7], D1
000003D0  2407                     move.l     D2, D7
000003D2  C5FC 0012                muls.w     D2, 0x12
000003D6  204D                     movea.l    A0, A5
000003D8  D1FC FFFE 9EB0           add.l      A0, 0xFFFE9EB0
000003DE  4870 2000                pea.l      [A0 + D2.w]
000003E2  4EAD 141A                jsr        [A5 + 0x141A /* export_639, CODE:27 @ 00002B78 */]
000003E6  4FEF 0010                lea.l      A7, [A7 + 0x10]
000003EA  2007                     move.l     D0, D7
000003EC  5287                     addq.l     D7, 1
000003EE  700C                     moveq.l    D0, 0x0C
000003F0  B087                     cmp.l      D0, D7
000003F2  6ED0                     bgt        -0x2E /* 000003C4 */
000003F4  7E00                     moveq.l    D7, 0x00
label000003F6:
000003F6  48C6                     ext.l      D6
000003F8  2F06                     move.l     -[A7], D6
000003FA  7001                     moveq.l    D0, 0x01
000003FC  2F00                     move.l     -[A7], D0
000003FE  7212                     moveq.l    D1, 0x12
00000400  2F01                     move.l     -[A7], D1
00000402  2407                     move.l     D2, D7
00000404  C5FC 0012                muls.w     D2, 0x12
00000408  204D                     movea.l    A0, A5
0000040A  D1FC FFFE 9E0E           add.l      A0, 0xFFFE9E0E
00000410  4870 2000                pea.l      [A0 + D2.w]
00000414  4EAD 141A                jsr        [A5 + 0x141A /* export_639, CODE:27 @ 00002B78 */]
00000418  4FEF 0010                lea.l      A7, [A7 + 0x10]
0000041C  2007                     move.l     D0, D7
0000041E  5287                     addq.l     D7, 1
00000420  7009                     moveq.l    D0, 0x09
00000422  B087                     cmp.l      D0, D7
00000424  6ED0                     bgt        -0x2E /* 000003F6 */
00000426  7E00                     moveq.l    D7, 0x00
label00000428:
00000428  48C6                     ext.l      D6
0000042A  2F06                     move.l     -[A7], D6
0000042C  7001                     moveq.l    D0, 0x01
0000042E  2F00                     move.l     -[A7], D0
00000430  7212                     moveq.l    D1, 0x12
00000432  2F01                     move.l     -[A7], D1
00000434  2407                     move.l     D2, D7
00000436  C5FC 0012                muls.w     D2, 0x12
0000043A  204D                     movea.l    A0, A5
0000043C  D1FC FFFE 9C5E           add.l      A0, 0xFFFE9C5E
00000442  4870 2000                pea.l      [A0 + D2.w]
00000446  4EAD 141A                jsr        [A5 + 0x141A /* export_639, CODE:27 @ 00002B78 */]
0000044A  4FEF 0010                lea.l      A7, [A7 + 0x10]
0000044E  2007                     move.l     D0, D7
00000450  5287                     addq.l     D7, 1
00000452  7018                     moveq.l    D0, 0x18
00000454  B087                     cmp.l      D0, D7
00000456  6ED0                     bgt        -0x2E /* 00000428 */
00000458  7E00                     moveq.l    D7, 0x00
label0000045A:
0000045A  48C6                     ext.l      D6
0000045C  2F06                     move.l     -[A7], D6
0000045E  7001                     moveq.l    D0, 0x01
00000460  2F00                     move.l     -[A7], D0
00000462  7212                     moveq.l    D1, 0x12
00000464  2F01                     move.l     -[A7], D1
00000466  2407                     move.l     D2, D7
00000468  C5FC 0012                muls.w     D2, 0x12
0000046C  204D                     movea.l    A0, A5
0000046E  D1FC FFFE 9C04           add.l      A0, 0xFFFE9C04
00000474  4870 2000                pea.l      [A0 + D2.w]
00000478  4EAD 141A                jsr        [A5 + 0x141A /* export_639, CODE:27 @ 00002B78 */]
0000047C  4FEF 0010                lea.l      A7, [A7 + 0x10]
00000480  2007                     move.l     D0, D7
00000482  5287                     addq.l     D7, 1
00000484  7005                     moveq.l    D0, 0x05
00000486  B087                     cmp.l      D0, D7
00000488  6ED0                     bgt        -0x2E /* 0000045A */
0000048A  7E00                     moveq.l    D7, 0x00
label0000048C:
0000048C  48C6                     ext.l      D6
0000048E  2F06                     move.l     -[A7], D6
00000490  7001                     moveq.l    D0, 0x01
00000492  2F00                     move.l     -[A7], D0
00000494  7212                     moveq.l    D1, 0x12
00000496  2F01                     move.l     -[A7], D1
00000498  2407                     move.l     D2, D7
0000049A  C5FC 0012                muls.w     D2, 0x12
0000049E  204D                     movea.l    A0, A5
000004A0  D1FC FFFE 9AE4           add.l      A0, 0xFFFE9AE4
000004A6  4870 2000                pea.l      [A0 + D2.w]
000004AA  4EAD 141A                jsr        [A5 + 0x141A /* export_639, CODE:27 @ 00002B78 */]
000004AE  4FEF 0010                lea.l      A7, [A7 + 0x10]
000004B2  2007                     move.l     D0, D7
000004B4  5287                     addq.l     D7, 1
000004B6  7010                     moveq.l    D0, 0x10
000004B8  B087                     cmp.l      D0, D7
000004BA  6ED0                     bgt        -0x2E /* 0000048C */
000004BC  7E00                     moveq.l    D7, 0x00
label000004BE:
000004BE  48C6                     ext.l      D6
000004C0  2F06                     move.l     -[A7], D6
000004C2  7001                     moveq.l    D0, 0x01
000004C4  2F00                     move.l     -[A7], D0
000004C6  7212                     moveq.l    D1, 0x12
000004C8  2F01                     move.l     -[A7], D1
000004CA  2407                     move.l     D2, D7
000004CC  C5FC 0012                muls.w     D2, 0x12
000004D0  204D                     movea.l    A0, A5
000004D2  D1FC FFFE 99C4           add.l      A0, 0xFFFE99C4
000004D8  4870 2000                pea.l      [A0 + D2.w]
000004DC  4EAD 141A                jsr        [A5 + 0x141A /* export_639, CODE:27 @ 00002B78 */]
000004E0  4FEF 0010                lea.l      A7, [A7 + 0x10]
000004E4  2007                     move.l     D0, D7
000004E6  5287                     addq.l     D7, 1
000004E8  7010                     moveq.l    D0, 0x10
000004EA  B087                     cmp.l      D0, D7
000004EC  6ED0                     bgt        -0x2E /* 000004BE */
000004EE  7E00                     moveq.l    D7, 0x00
label000004F0:
000004F0  48C6                     ext.l      D6
000004F2  2F06                     move.l     -[A7], D6
000004F4  7001                     moveq.l    D0, 0x01
000004F6  2F00                     move.l     -[A7], D0
000004F8  7212                     moveq.l    D1, 0x12
000004FA  2F01                     move.l     -[A7], D1
000004FC  2407                     move.l     D2, D7
000004FE  C5FC 0012                muls.w     D2, 0x12
00000502  204D                     movea.l    A0, A5
00000504  D1FC FFFE 997C           add.l      A0, 0xFFFE997C
0000050A  4870 2000                pea.l      [A0 + D2.w]
0000050E  4EAD 141A                jsr        [A5 + 0x141A /* export_639, CODE:27 @ 00002B78 */]
00000512  4FEF 0010                lea.l      A7, [A7 + 0x10]
00000516  2007                     move.l     D0, D7
00000518  5287                     addq.l     D7, 1
0000051A  7004                     moveq.l    D0, 0x04
0000051C  B087                     cmp.l      D0, D7
0000051E  6ED0                     bgt        -0x2E /* 000004F0 */
00000520  7E00                     moveq.l    D7, 0x00
label00000522:
00000522  48C6                     ext.l      D6
00000524  2F06                     move.l     -[A7], D6
00000526  7001                     moveq.l    D0, 0x01
00000528  2F00                     move.l     -[A7], D0
0000052A  7212                     moveq.l    D1, 0x12
0000052C  2F01                     move.l     -[A7], D1
0000052E  2407                     move.l     D2, D7
00000530  C5FC 0012                muls.w     D2, 0x12
00000534  204D                     movea.l    A0, A5
00000536  D1FC FFFE 984A           add.l      A0, 0xFFFE984A
0000053C  4870 2000                pea.l      [A0 + D2.w]
00000540  4EAD 141A                jsr        [A5 + 0x141A /* export_639, CODE:27 @ 00002B78 */]
00000544  4FEF 0010                lea.l      A7, [A7 + 0x10]
00000548  2007                     move.l     D0, D7
0000054A  5287                     addq.l     D7, 1
0000054C  7011                     moveq.l    D0, 0x11
0000054E  B087                     cmp.l      D0, D7
00000550  6ED0                     bgt        -0x2E /* 00000522 */
00000552  48C6                     ext.l      D6
00000554  2F06                     move.l     -[A7], D6
00000556  7001                     moveq.l    D0, 0x01
00000558  2F00                     move.l     -[A7], D0
0000055A  2F00                     move.l     -[A7], D0
0000055C  204D                     movea.l    A0, A5
0000055E  D1FC FFFE D2D8           add.l      A0, 0xFFFED2D8
00000564  4850                     pea.l      [A0]
00000566  4EAD 141A                jsr        [A5 + 0x141A /* export_639, CODE:27 @ 00002B78 */]
0000056A  7E00                     moveq.l    D7, 0x00
0000056C  4FEF 0010                lea.l      A7, [A7 + 0x10]
label00000570:
00000570  48C6                     ext.l      D6
00000572  2F06                     move.l     -[A7], D6
00000574  7001                     moveq.l    D0, 0x01
00000576  2F00                     move.l     -[A7], D0
00000578  2F00                     move.l     -[A7], D0
0000057A  2207                     move.l     D1, D7
0000057C  D241                     add.w      D1, D1
0000057E  204D                     movea.l    A0, A5
00000580  D1FC FFFE D2DE           add.l      A0, 0xFFFED2DE
00000586  4870 1000                pea.l      [A0 + D1.w]
0000058A  4EAD 141A                jsr        [A5 + 0x141A /* export_639, CODE:27 @ 00002B78 */]
0000058E  48C6                     ext.l      D6
00000590  2F06                     move.l     -[A7], D6
00000592  7001                     moveq.l    D0, 0x01
00000594  2F00                     move.l     -[A7], D0
00000596  2F00                     move.l     -[A7], D0
00000598  2207                     move.l     D1, D7
0000059A  D241                     add.w      D1, D1
0000059C  204D                     movea.l    A0, A5
0000059E  D1FC FFFE D2DE           add.l      A0, 0xFFFED2DE
000005A4  4870 1001                pea.l      [A0 + D1.w + 0x1]
000005A8  4EAD 141A                jsr        [A5 + 0x141A /* export_639, CODE:27 @ 00002B78 */]
000005AC  48C6                     ext.l      D6
000005AE  2F06                     move.l     -[A7], D6
000005B0  7001                     moveq.l    D0, 0x01
000005B2  2F00                     move.l     -[A7], D0
000005B4  2F00                     move.l     -[A7], D0
000005B6  2207                     move.l     D1, D7
000005B8  D241                     add.w      D1, D1
000005BA  204D                     movea.l    A0, A5
000005BC  D1FC FFFE D2DE           add.l      A0, 0xFFFED2DE
000005C2  4870 1002                pea.l      [A0 + D1.w + 0x2]
000005C6  4EAD 141A                jsr        [A5 + 0x141A /* export_639, CODE:27 @ 00002B78 */]
000005CA  4FEF 0030                lea.l      A7, [A7 + 0x30]
000005CE  2007                     move.l     D0, D7
000005D0  5287                     addq.l     D7, 1
000005D2  7040                     moveq.l    D0, 0x40
000005D4  B087                     cmp.l      D0, D7
000005D6  6E98                     bgt        -0x66 /* 00000570 */
000005D8  7E00                     moveq.l    D7, 0x00
label000005DA:
000005DA  48C6                     ext.l      D6
000005DC  2F06                     move.l     -[A7], D6
000005DE  7018                     moveq.l    D0, 0x18
000005E0  2F00                     move.l     -[A7], D0
000005E2  7201                     moveq.l    D1, 0x01
000005E4  2F01                     move.l     -[A7], D1
000005E6  2407                     move.l     D2, D7
000005E8  C5FC 0018                muls.w     D2, 0x18
000005EC  4874 2000                pea.l      [A4 + D2.w]
000005F0  4EAD 141A                jsr        [A5 + 0x141A /* export_639, CODE:27 @ 00002B78 */]
000005F4  4FEF 0010                lea.l      A7, [A7 + 0x10]
000005F8  2007                     move.l     D0, D7
000005FA  5287                     addq.l     D7, 1
000005FC  7010                     moveq.l    D0, 0x10
000005FE  B087                     cmp.l      D0, D7
00000600  6ED8                     bgt        -0x26 /* 000005DA */
00000602  48C6                     ext.l      D6
00000604  2F06                     move.l     -[A7], D6
00000606  7001                     moveq.l    D0, 0x01
00000608  2F00                     move.l     -[A7], D0
0000060A  4878 0090                push.l     0x90
0000060E  204D                     movea.l    A0, A5
00000610  D1FC FFFF 0394           add.l      A0, 0xFFFF0394
00000616  4850                     pea.l      [A0]
00000618  4EAD 141A                jsr        [A5 + 0x141A /* export_639, CODE:27 @ 00002B78 */]
0000061C  48C6                     ext.l      D6
0000061E  2F06                     move.l     -[A7], D6
00000620  7001                     moveq.l    D0, 0x01
00000622  2F00                     move.l     -[A7], D0
00000624  4878 0090                push.l     0x90
00000628  204D                     movea.l    A0, A5
0000062A  D1FC FFFE 97B2           add.l      A0, 0xFFFE97B2
00000630  4850                     pea.l      [A0]
00000632  4EAD 141A                jsr        [A5 + 0x141A /* export_639, CODE:27 @ 00002B78 */]
00000636  48C6                     ext.l      D6
00000638  2F06                     move.l     -[A7], D6
0000063A  7001                     moveq.l    D0, 0x01
0000063C  2F00                     move.l     -[A7], D0
0000063E  4878 0090                push.l     0x90
00000642  204D                     movea.l    A0, A5
00000644  D1FC FFFE 9722           add.l      A0, 0xFFFE9722
0000064A  4850                     pea.l      [A0]
0000064C  4EAD 141A                jsr        [A5 + 0x141A /* export_639, CODE:27 @ 00002B78 */]
00000650  48C6                     ext.l      D6
00000652  2F06                     move.l     -[A7], D6
00000654  7001                     moveq.l    D0, 0x01
00000656  2F00                     move.l     -[A7], D0
00000658  4878 0090                push.l     0x90
0000065C  204D                     movea.l    A0, A5
0000065E  D1FC FFFE 9692           add.l      A0, 0xFFFE9692
00000664  4850                     pea.l      [A0]
00000666  4EAD 141A                jsr        [A5 + 0x141A /* export_639, CODE:27 @ 00002B78 */]
0000066A  48C6                     ext.l      D6
0000066C  2F06                     move.l     -[A7], D6
0000066E  7001                     moveq.l    D0, 0x01
00000670  2F00                     move.l     -[A7], D0
00000672  4878 0090                push.l     0x90
00000676  204D                     movea.l    A0, A5
00000678  D1FC FFFE 9602           add.l      A0, 0xFFFE9602
0000067E  4850                     pea.l      [A0]
00000680  4EAD 141A                jsr        [A5 + 0x141A /* export_639, CODE:27 @ 00002B78 */]
00000684  48C6                     ext.l      D6
00000686  2F06                     move.l     -[A7], D6
00000688  7001                     moveq.l    D0, 0x01
0000068A  2F00                     move.l     -[A7], D0
0000068C  4878 0090                push.l     0x90
00000690  204D                     movea.l    A0, A5
00000692  D1FC FFFE 9572           add.l      A0, 0xFFFE9572
00000698  4850                     pea.l      [A0]
0000069A  4EAD 141A                jsr        [A5 + 0x141A /* export_639, CODE:27 @ 00002B78 */]
0000069E  48C6                     ext.l      D6
000006A0  2F06                     move.l     -[A7], D6
000006A2  7001                     moveq.l    D0, 0x01
000006A4  2F00                     move.l     -[A7], D0
000006A6  4878 0090                push.l     0x90
000006AA  204D                     movea.l    A0, A5
000006AC  D1FC FFFE 94E2           add.l      A0, 0xFFFE94E2
000006B2  4850                     pea.l      [A0]
000006B4  4EAD 141A                jsr        [A5 + 0x141A /* export_639, CODE:27 @ 00002B78 */]
000006B8  7E00                     moveq.l    D7, 0x00
000006BA  4FEF 0070                lea.l      A7, [A7 + 0x70]
label000006BE:
000006BE  48C6                     ext.l      D6
000006C0  2F06                     move.l     -[A7], D6
000006C2  7001                     moveq.l    D0, 0x01
000006C4  2F00                     move.l     -[A7], D0
000006C6  2F00                     move.l     -[A7], D0
000006C8  204D                     movea.l    A0, A5
000006CA  D1FC FFFE FBFA           add.l      A0, 0xFFFEFBFA
000006D0  4870 7000                pea.l      [A0 + D7.w]
000006D4  4EAD 141A                jsr        [A5 + 0x141A /* export_639, CODE:27 @ 00002B78 */]
000006D8  48C6                     ext.l      D6
000006DA  2F06                     move.l     -[A7], D6
000006DC  7001                     moveq.l    D0, 0x01
000006DE  2F00                     move.l     -[A7], D0
000006E0  2F00                     move.l     -[A7], D0
000006E2  204D                     movea.l    A0, A5
000006E4  D1FC FFFE FBF2           add.l      A0, 0xFFFEFBF2
000006EA  4870 7000                pea.l      [A0 + D7.w]
000006EE  4EAD 141A                jsr        [A5 + 0x141A /* export_639, CODE:27 @ 00002B78 */]
000006F2  4FEF 0020                lea.l      A7, [A7 + 0x20]
000006F6  2007                     move.l     D0, D7
000006F8  5287                     addq.l     D7, 1
000006FA  7008                     moveq.l    D0, 0x08
000006FC  B087                     cmp.l      D0, D7
000006FE  6EBE                     bgt        -0x40 /* 000006BE */
00000700  48C6                     ext.l      D6
00000702  2F06                     move.l     -[A7], D6
00000704  7001                     moveq.l    D0, 0x01
00000706  2F00                     move.l     -[A7], D0
00000708  2F00                     move.l     -[A7], D0
0000070A  204D                     movea.l    A0, A5
0000070C  D1FC FFFE FC02           add.l      A0, 0xFFFEFC02
00000712  4850                     pea.l      [A0]
00000714  4EAD 141A                jsr        [A5 + 0x141A /* export_639, CODE:27 @ 00002B78 */]
00000718  48C6                     ext.l      D6
0000071A  2F06                     move.l     -[A7], D6
0000071C  7001                     moveq.l    D0, 0x01
0000071E  2F00                     move.l     -[A7], D0
00000720  2F00                     move.l     -[A7], D0
00000722  204D                     movea.l    A0, A5
00000724  D1FC FFFE D2C8           add.l      A0, 0xFFFED2C8
0000072A  4850                     pea.l      [A0]
0000072C  4EAD 141A                jsr        [A5 + 0x141A /* export_639, CODE:27 @ 00002B78 */]
00000730  48C6                     ext.l      D6
00000732  2F06                     move.l     -[A7], D6
00000734  7001                     moveq.l    D0, 0x01
00000736  2F00                     move.l     -[A7], D0
00000738  7204                     moveq.l    D1, 0x04
0000073A  2F01                     move.l     -[A7], D1
0000073C  204D                     movea.l    A0, A5
0000073E  D1FC FFFD CE4E           add.l      A0, 0xFFFDCE4E
00000744  4850                     pea.l      [A0]
00000746  4EAD 141A                jsr        [A5 + 0x141A /* export_639, CODE:27 @ 00002B78 */]
0000074A  48C6                     ext.l      D6
0000074C  2F06                     move.l     -[A7], D6
0000074E  7001                     moveq.l    D0, 0x01
00000750  2F00                     move.l     -[A7], D0
00000752  2F00                     move.l     -[A7], D0
00000754  204D                     movea.l    A0, A5
00000756  D1FC FFFE D2C2           add.l      A0, 0xFFFED2C2
0000075C  4850                     pea.l      [A0]
0000075E  4EAD 141A                jsr        [A5 + 0x141A /* export_639, CODE:27 @ 00002B78 */]
00000762  48C6                     ext.l      D6
00000764  2F06                     move.l     -[A7], D6
00000766  7001                     moveq.l    D0, 0x01
00000768  2F00                     move.l     -[A7], D0
0000076A  7202                     moveq.l    D1, 0x02
0000076C  2F01                     move.l     -[A7], D1
0000076E  204D                     movea.l    A0, A5
00000770  D1FC FFFE D2CE           add.l      A0, 0xFFFED2CE
00000776  4850                     pea.l      [A0]
00000778  4EAD 141A                jsr        [A5 + 0x141A /* export_639, CODE:27 @ 00002B78 */]
0000077C  48C6                     ext.l      D6
0000077E  2F06                     move.l     -[A7], D6
00000780  7001                     moveq.l    D0, 0x01
00000782  2F00                     move.l     -[A7], D0
00000784  2F00                     move.l     -[A7], D0
00000786  204D                     movea.l    A0, A5
00000788  D1FC FFFE D2CC           add.l      A0, 0xFFFED2CC
0000078E  4850                     pea.l      [A0]
00000790  4EAD 141A                jsr        [A5 + 0x141A /* export_639, CODE:27 @ 00002B78 */]
00000794  48C6                     ext.l      D6
00000796  2F06                     move.l     -[A7], D6
00000798  7001                     moveq.l    D0, 0x01
0000079A  2F00                     move.l     -[A7], D0
0000079C  2F00                     move.l     -[A7], D0
0000079E  204D                     movea.l    A0, A5
000007A0  D1FC FFFE D2CA           add.l      A0, 0xFFFED2CA
000007A6  4850                     pea.l      [A0]
000007A8  4EAD 141A                jsr        [A5 + 0x141A /* export_639, CODE:27 @ 00002B78 */]
000007AC  48C6                     ext.l      D6
000007AE  2F06                     move.l     -[A7], D6
000007B0  7001                     moveq.l    D0, 0x01
000007B2  2F00                     move.l     -[A7], D0
000007B4  7204                     moveq.l    D1, 0x04
000007B6  2F01                     move.l     -[A7], D1
000007B8  204D                     movea.l    A0, A5
000007BA  D1FC FFFE BD6E           add.l      A0, 0xFFFEBD6E
000007C0  4850                     pea.l      [A0]
000007C2  4EAD 141A                jsr        [A5 + 0x141A /* export_639, CODE:27 @ 00002B78 */]
000007C6  48C6                     ext.l      D6
000007C8  2F06                     move.l     -[A7], D6
000007CA  7001                     moveq.l    D0, 0x01
000007CC  2F00                     move.l     -[A7], D0
000007CE  7204                     moveq.l    D1, 0x04
000007D0  2F01                     move.l     -[A7], D1
000007D2  204D                     movea.l    A0, A5
000007D4  D1FC FFFE BD72           add.l      A0, 0xFFFEBD72
000007DA  4850                     pea.l      [A0]
000007DC  4EAD 141A                jsr        [A5 + 0x141A /* export_639, CODE:27 @ 00002B78 */]
000007E0  48C6                     ext.l      D6
000007E2  2F06                     move.l     -[A7], D6
000007E4  7001                     moveq.l    D0, 0x01
000007E6  2F00                     move.l     -[A7], D0
000007E8  7204                     moveq.l    D1, 0x04
000007EA  2F01                     move.l     -[A7], D1
000007EC  204D                     movea.l    A0, A5
000007EE  D1FC FFFE BD66           add.l      A0, 0xFFFEBD66
000007F4  4850                     pea.l      [A0]
000007F6  4EAD 141A                jsr        [A5 + 0x141A /* export_639, CODE:27 @ 00002B78 */]
000007FA  48C6                     ext.l      D6
000007FC  2F06                     move.l     -[A7], D6
000007FE  7001                     moveq.l    D0, 0x01
00000800  2F00                     move.l     -[A7], D0
00000802  7204                     moveq.l    D1, 0x04
00000804  2F01                     move.l     -[A7], D1
00000806  204D                     movea.l    A0, A5
00000808  D1FC FFFE BD62           add.l      A0, 0xFFFEBD62
0000080E  4850                     pea.l      [A0]
00000810  4EAD 141A                jsr        [A5 + 0x141A /* export_639, CODE:27 @ 00002B78 */]
00000814  48C6                     ext.l      D6
00000816  2F06                     move.l     -[A7], D6
00000818  7001                     moveq.l    D0, 0x01
0000081A  2F00                     move.l     -[A7], D0
0000081C  7204                     moveq.l    D1, 0x04
0000081E  2F01                     move.l     -[A7], D1
00000820  204D                     movea.l    A0, A5
00000822  D1FC FFFE BD0A           add.l      A0, 0xFFFEBD0A
00000828  4850                     pea.l      [A0]
0000082A  4EAD 141A                jsr        [A5 + 0x141A /* export_639, CODE:27 @ 00002B78 */]
0000082E  48C6                     ext.l      D6
00000830  2F06                     move.l     -[A7], D6
00000832  7001                     moveq.l    D0, 0x01
00000834  2F00                     move.l     -[A7], D0
00000836  7204                     moveq.l    D1, 0x04
00000838  2F01                     move.l     -[A7], D1
0000083A  204D                     movea.l    A0, A5
0000083C  D1FC FFFE BD5E           add.l      A0, 0xFFFEBD5E
00000842  4850                     pea.l      [A0]
00000844  4EAD 141A                jsr        [A5 + 0x141A /* export_639, CODE:27 @ 00002B78 */]
00000848  48C6                     ext.l      D6
0000084A  2F06                     move.l     -[A7], D6
0000084C  7001                     moveq.l    D0, 0x01
0000084E  2F00                     move.l     -[A7], D0
00000850  7204                     moveq.l    D1, 0x04
00000852  2F01                     move.l     -[A7], D1
00000854  204D                     movea.l    A0, A5
00000856  D1FC FFFE BD5A           add.l      A0, 0xFFFEBD5A
0000085C  4850                     pea.l      [A0]
0000085E  4EAD 141A                jsr        [A5 + 0x141A /* export_639, CODE:27 @ 00002B78 */]
00000862  48C6                     ext.l      D6
00000864  2F06                     move.l     -[A7], D6
00000866  7001                     moveq.l    D0, 0x01
00000868  2F00                     move.l     -[A7], D0
0000086A  7204                     moveq.l    D1, 0x04
0000086C  2F01                     move.l     -[A7], D1
0000086E  204D                     movea.l    A0, A5
00000870  D1FC FFFE BD56           add.l      A0, 0xFFFEBD56
00000876  4850                     pea.l      [A0]
00000878  4EAD 141A                jsr        [A5 + 0x141A /* export_639, CODE:27 @ 00002B78 */]
0000087C  48C6                     ext.l      D6
0000087E  2F06                     move.l     -[A7], D6
00000880  7001                     moveq.l    D0, 0x01
00000882  2F00                     move.l     -[A7], D0
00000884  7204                     moveq.l    D1, 0x04
00000886  2F01                     move.l     -[A7], D1
00000888  204D                     movea.l    A0, A5
0000088A  D1FC FFFE BD52           add.l      A0, 0xFFFEBD52
00000890  4850                     pea.l      [A0]
00000892  4EAD 141A                jsr        [A5 + 0x141A /* export_639, CODE:27 @ 00002B78 */]
00000896  48C6                     ext.l      D6
00000898  2F06                     move.l     -[A7], D6
0000089A  7001                     moveq.l    D0, 0x01
0000089C  2F00                     move.l     -[A7], D0
0000089E  7204                     moveq.l    D1, 0x04
000008A0  2F01                     move.l     -[A7], D1
000008A2  204D                     movea.l    A0, A5
000008A4  D1FC FFFE BD4A           add.l      A0, 0xFFFEBD4A
000008AA  4850                     pea.l      [A0]
000008AC  4EAD 141A                jsr        [A5 + 0x141A /* export_639, CODE:27 @ 00002B78 */]
000008B0  48C6                     ext.l      D6
000008B2  2F06                     move.l     -[A7], D6
000008B4  7001                     moveq.l    D0, 0x01
000008B6  2F00                     move.l     -[A7], D0
000008B8  7204                     moveq.l    D1, 0x04
000008BA  2F01                     move.l     -[A7], D1
000008BC  204D                     movea.l    A0, A5
000008BE  D1FC FFFE BD46           add.l      A0, 0xFFFEBD46
000008C4  4850                     pea.l      [A0]
000008C6  4EAD 141A                jsr        [A5 + 0x141A /* export_639, CODE:27 @ 00002B78 */]
000008CA  48C6                     ext.l      D6
000008CC  2F06                     move.l     -[A7], D6
000008CE  7001                     moveq.l    D0, 0x01
000008D0  2F00                     move.l     -[A7], D0
000008D2  7204                     moveq.l    D1, 0x04
000008D4  2F01                     move.l     -[A7], D1
000008D6  204D                     movea.l    A0, A5
000008D8  D1FC FFFE BD42           add.l      A0, 0xFFFEBD42
000008DE  4850                     pea.l      [A0]
000008E0  4EAD 141A                jsr        [A5 + 0x141A /* export_639, CODE:27 @ 00002B78 */]
000008E4  48C6                     ext.l      D6
000008E6  2F06                     move.l     -[A7], D6
000008E8  7001                     moveq.l    D0, 0x01
000008EA  2F00                     move.l     -[A7], D0
000008EC  7204                     moveq.l    D1, 0x04
000008EE  2F01                     move.l     -[A7], D1
000008F0  204D                     movea.l    A0, A5
000008F2  D1FC FFFE BD3E           add.l      A0, 0xFFFEBD3E
000008F8  4850                     pea.l      [A0]
000008FA  4EAD 141A                jsr        [A5 + 0x141A /* export_639, CODE:27 @ 00002B78 */]
000008FE  48C6                     ext.l      D6
00000900  2F06                     move.l     -[A7], D6
00000902  7001                     moveq.l    D0, 0x01
00000904  2F00                     move.l     -[A7], D0
00000906  7204                     moveq.l    D1, 0x04
00000908  2F01                     move.l     -[A7], D1
0000090A  204D                     movea.l    A0, A5
0000090C  D1FC FFFE BD3A           add.l      A0, 0xFFFEBD3A
00000912  4850                     pea.l      [A0]
00000914  4EAD 141A                jsr        [A5 + 0x141A /* export_639, CODE:27 @ 00002B78 */]
00000918  48C6                     ext.l      D6
0000091A  2F06                     move.l     -[A7], D6
0000091C  7001                     moveq.l    D0, 0x01
0000091E  2F00                     move.l     -[A7], D0
00000920  7204                     moveq.l    D1, 0x04
00000922  2F01                     move.l     -[A7], D1
00000924  204D                     movea.l    A0, A5
00000926  D1FC FFFE BD3E           add.l      A0, 0xFFFEBD3E
0000092C  4850                     pea.l      [A0]
0000092E  4EAD 141A                jsr        [A5 + 0x141A /* export_639, CODE:27 @ 00002B78 */]
00000932  48C6                     ext.l      D6
00000934  2F06                     move.l     -[A7], D6
00000936  7001                     moveq.l    D0, 0x01
00000938  2F00                     move.l     -[A7], D0
0000093A  7204                     moveq.l    D1, 0x04
0000093C  2F01                     move.l     -[A7], D1
0000093E  204D                     movea.l    A0, A5
00000940  D1FC FFFE BD26           add.l      A0, 0xFFFEBD26
00000946  4850                     pea.l      [A0]
00000948  4EAD 141A                jsr        [A5 + 0x141A /* export_639, CODE:27 @ 00002B78 */]
0000094C  48C6                     ext.l      D6
0000094E  2F06                     move.l     -[A7], D6
00000950  7001                     moveq.l    D0, 0x01
00000952  2F00                     move.l     -[A7], D0
00000954  7204                     moveq.l    D1, 0x04
00000956  2F01                     move.l     -[A7], D1
00000958  204D                     movea.l    A0, A5
0000095A  D1FC FFFE BD1E           add.l      A0, 0xFFFEBD1E
00000960  4850                     pea.l      [A0]
00000962  4EAD 141A                jsr        [A5 + 0x141A /* export_639, CODE:27 @ 00002B78 */]
00000966  48C6                     ext.l      D6
00000968  2F06                     move.l     -[A7], D6
0000096A  7001                     moveq.l    D0, 0x01
0000096C  2F00                     move.l     -[A7], D0
0000096E  7204                     moveq.l    D1, 0x04
00000970  2F01                     move.l     -[A7], D1
00000972  204D                     movea.l    A0, A5
00000974  D1FC FFFE BD1A           add.l      A0, 0xFFFEBD1A
0000097A  4850                     pea.l      [A0]
0000097C  4EAD 141A                jsr        [A5 + 0x141A /* export_639, CODE:27 @ 00002B78 */]
00000980  48C6                     ext.l      D6
00000982  2F06                     move.l     -[A7], D6
00000984  7001                     moveq.l    D0, 0x01
00000986  2F00                     move.l     -[A7], D0
00000988  7204                     moveq.l    D1, 0x04
0000098A  2F01                     move.l     -[A7], D1
0000098C  204D                     movea.l    A0, A5
0000098E  D1FC FFFE BD16           add.l      A0, 0xFFFEBD16
00000994  4850                     pea.l      [A0]
00000996  4EAD 141A                jsr        [A5 + 0x141A /* export_639, CODE:27 @ 00002B78 */]
0000099A  48C6                     ext.l      D6
0000099C  2F06                     move.l     -[A7], D6
0000099E  7001                     moveq.l    D0, 0x01
000009A0  2F00                     move.l     -[A7], D0
000009A2  7204                     moveq.l    D1, 0x04
000009A4  2F01                     move.l     -[A7], D1
000009A6  204D                     movea.l    A0, A5
000009A8  D1FC FFFE BD0E           add.l      A0, 0xFFFEBD0E
000009AE  4850                     pea.l      [A0]
000009B0  4EAD 141A                jsr        [A5 + 0x141A /* export_639, CODE:27 @ 00002B78 */]
000009B4  48C6                     ext.l      D6
000009B6  2F06                     move.l     -[A7], D6
000009B8  7001                     moveq.l    D0, 0x01
000009BA  2F00                     move.l     -[A7], D0
000009BC  7204                     moveq.l    D1, 0x04
000009BE  2F01                     move.l     -[A7], D1
000009C0  204D                     movea.l    A0, A5
000009C2  D1FC FFFE BD12           add.l      A0, 0xFFFEBD12
000009C8  4850                     pea.l      [A0]
000009CA  4EAD 141A                jsr        [A5 + 0x141A /* export_639, CODE:27 @ 00002B78 */]
000009CE  48C6                     ext.l      D6
000009D0  2F06                     move.l     -[A7], D6
000009D2  7001                     moveq.l    D0, 0x01
000009D4  2F00                     move.l     -[A7], D0
000009D6  7204                     moveq.l    D1, 0x04
000009D8  2F01                     move.l     -[A7], D1
000009DA  204D                     movea.l    A0, A5
000009DC  D1FC FFFE BD02           add.l      A0, 0xFFFEBD02
000009E2  4850                     pea.l      [A0]
000009E4  4EAD 141A                jsr        [A5 + 0x141A /* export_639, CODE:27 @ 00002B78 */]
000009E8  48C6                     ext.l      D6
000009EA  2F06                     move.l     -[A7], D6
000009EC  7001                     moveq.l    D0, 0x01
000009EE  2F00                     move.l     -[A7], D0
000009F0  7204                     moveq.l    D1, 0x04
000009F2  2F01                     move.l     -[A7], D1
000009F4  204D                     movea.l    A0, A5
000009F6  D1FC FFFE BD06           add.l      A0, 0xFFFEBD06
000009FC  4850                     pea.l      [A0]
000009FE  4EAD 141A                jsr        [A5 + 0x141A /* export_639, CODE:27 @ 00002B78 */]
00000A02  48C6                     ext.l      D6
00000A04  2F06                     move.l     -[A7], D6
00000A06  7001                     moveq.l    D0, 0x01
00000A08  2F00                     move.l     -[A7], D0
00000A0A  7204                     moveq.l    D1, 0x04
00000A0C  2F01                     move.l     -[A7], D1
00000A0E  204D                     movea.l    A0, A5
00000A10  D1FC FFFE BCFE           add.l      A0, 0xFFFEBCFE
00000A16  4850                     pea.l      [A0]
00000A18  4EAD 141A                jsr        [A5 + 0x141A /* export_639, CODE:27 @ 00002B78 */]
00000A1C  48C6                     ext.l      D6
00000A1E  2F06                     move.l     -[A7], D6
00000A20  7001                     moveq.l    D0, 0x01
00000A22  2F00                     move.l     -[A7], D0
00000A24  7204                     moveq.l    D1, 0x04
00000A26  2F01                     move.l     -[A7], D1
00000A28  204D                     movea.l    A0, A5
00000A2A  D1FC FFFD 93EC           add.l      A0, 0xFFFD93EC
00000A30  4850                     pea.l      [A0]
00000A32  4EAD 141A                jsr        [A5 + 0x141A /* export_639, CODE:27 @ 00002B78 */]
00000A36  48C6                     ext.l      D6
00000A38  2F06                     move.l     -[A7], D6
00000A3A  7001                     moveq.l    D0, 0x01
00000A3C  2F00                     move.l     -[A7], D0
00000A3E  7202                     moveq.l    D1, 0x02
00000A40  2F01                     move.l     -[A7], D1
00000A42  204D                     movea.l    A0, A5
00000A44  D1FC FFFF 781C           add.l      A0, 0xFFFF781C
00000A4A  4850                     pea.l      [A0]
00000A4C  4EAD 141A                jsr        [A5 + 0x141A /* export_639, CODE:27 @ 00002B78 */]
00000A50  48C6                     ext.l      D6
00000A52  2F06                     move.l     -[A7], D6
00000A54  7001                     moveq.l    D0, 0x01
00000A56  2F00                     move.l     -[A7], D0
00000A58  7202                     moveq.l    D1, 0x02
00000A5A  2F01                     move.l     -[A7], D1
00000A5C  204D                     movea.l    A0, A5
00000A5E  D1FC FFFF 781A           add.l      A0, 0xFFFF781A
00000A64  4850                     pea.l      [A0]
00000A66  4EAD 141A                jsr        [A5 + 0x141A /* export_639, CODE:27 @ 00002B78 */]
00000A6A  48C6                     ext.l      D6
00000A6C  2F06                     move.l     -[A7], D6
00000A6E  7001                     moveq.l    D0, 0x01
00000A70  2F00                     move.l     -[A7], D0
00000A72  7204                     moveq.l    D1, 0x04
00000A74  2F01                     move.l     -[A7], D1
00000A76  204D                     movea.l    A0, A5
00000A78  D1FC FFFE BD76           add.l      A0, 0xFFFEBD76
00000A7E  4850                     pea.l      [A0]
00000A80  4EAD 141A                jsr        [A5 + 0x141A /* export_639, CODE:27 @ 00002B78 */]
00000A84  48C6                     ext.l      D6
00000A86  2F06                     move.l     -[A7], D6
00000A88  7001                     moveq.l    D0, 0x01
00000A8A  2F00                     move.l     -[A7], D0
00000A8C  7202                     moveq.l    D1, 0x02
00000A8E  2F01                     move.l     -[A7], D1
00000A90  204D                     movea.l    A0, A5
00000A92  D1FC FFFE D2D4           add.l      A0, 0xFFFED2D4
00000A98  4850                     pea.l      [A0]
00000A9A  4EAD 141A                jsr        [A5 + 0x141A /* export_639, CODE:27 @ 00002B78 */]
00000A9E  48C6                     ext.l      D6
00000AA0  2F06                     move.l     -[A7], D6
00000AA2  7001                     moveq.l    D0, 0x01
00000AA4  2F00                     move.l     -[A7], D0
00000AA6  7202                     moveq.l    D1, 0x02
00000AA8  2F01                     move.l     -[A7], D1
00000AAA  204D                     movea.l    A0, A5
00000AAC  D1FC FFFE D2D6           add.l      A0, 0xFFFED2D6
00000AB2  4850                     pea.l      [A0]
00000AB4  4EAD 141A                jsr        [A5 + 0x141A /* export_639, CODE:27 @ 00002B78 */]
00000AB8  48C6                     ext.l      D6
00000ABA  2F06                     move.l     -[A7], D6
00000ABC  7001                     moveq.l    D0, 0x01
00000ABE  2F00                     move.l     -[A7], D0
00000AC0  2F00                     move.l     -[A7], D0
00000AC2  204D                     movea.l    A0, A5
00000AC4  D1FC FFFE D2D2           add.l      A0, 0xFFFED2D2
00000ACA  4850                     pea.l      [A0]
00000ACC  4EAD 141A                jsr        [A5 + 0x141A /* export_639, CODE:27 @ 00002B78 */]
00000AD0  48C6                     ext.l      D6
00000AD2  2F06                     move.l     -[A7], D6
00000AD4  7001                     moveq.l    D0, 0x01
00000AD6  2F00                     move.l     -[A7], D0
00000AD8  7202                     moveq.l    D1, 0x02
00000ADA  2F01                     move.l     -[A7], D1
00000ADC  204D                     movea.l    A0, A5
00000ADE  D1FC FFFD CECE           add.l      A0, 0xFFFDCECE
00000AE4  4850                     pea.l      [A0]
00000AE6  4EAD 141A                jsr        [A5 + 0x141A /* export_639, CODE:27 @ 00002B78 */]
00000AEA  48C6                     ext.l      D6
00000AEC  2F06                     move.l     -[A7], D6
00000AEE  7001                     moveq.l    D0, 0x01
00000AF0  2F00                     move.l     -[A7], D0
00000AF2  7202                     moveq.l    D1, 0x02
00000AF4  2F01                     move.l     -[A7], D1
00000AF6  204D                     movea.l    A0, A5
00000AF8  D1FC FFFD CECC           add.l      A0, 0xFFFDCECC
00000AFE  4850                     pea.l      [A0]
00000B00  4EAD 141A                jsr        [A5 + 0x141A /* export_639, CODE:27 @ 00002B78 */]
00000B04  48C6                     ext.l      D6
00000B06  2F06                     move.l     -[A7], D6
00000B08  7001                     moveq.l    D0, 0x01
00000B0A  2F00                     move.l     -[A7], D0
00000B0C  7202                     moveq.l    D1, 0x02
00000B0E  2F01                     move.l     -[A7], D1
00000B10  204D                     movea.l    A0, A5
00000B12  D1FC FFFD CECA           add.l      A0, 0xFFFDCECA
00000B18  4850                     pea.l      [A0]
00000B1A  4EAD 141A                jsr        [A5 + 0x141A /* export_639, CODE:27 @ 00002B78 */]
00000B1E  48C6                     ext.l      D6
00000B20  2F06                     move.l     -[A7], D6
00000B22  7001                     moveq.l    D0, 0x01
00000B24  2F00                     move.l     -[A7], D0
00000B26  7202                     moveq.l    D1, 0x02
00000B28  2F01                     move.l     -[A7], D1
00000B2A  204D                     movea.l    A0, A5
00000B2C  D1FC FFFD CEC8           add.l      A0, 0xFFFDCEC8
00000B32  4850                     pea.l      [A0]
00000B34  4EAD 141A                jsr        [A5 + 0x141A /* export_639, CODE:27 @ 00002B78 */]
00000B38  48C6                     ext.l      D6
00000B3A  2F06                     move.l     -[A7], D6
00000B3C  7001                     moveq.l    D0, 0x01
00000B3E  2F00                     move.l     -[A7], D0
00000B40  7202                     moveq.l    D1, 0x02
00000B42  2F01                     move.l     -[A7], D1
00000B44  204D                     movea.l    A0, A5
00000B46  D1FC FFFD CEC6           add.l      A0, 0xFFFDCEC6
00000B4C  4850                     pea.l      [A0]
00000B4E  4EAD 141A                jsr        [A5 + 0x141A /* export_639, CODE:27 @ 00002B78 */]
00000B52  48C6                     ext.l      D6
00000B54  2F06                     move.l     -[A7], D6
00000B56  7001                     moveq.l    D0, 0x01
00000B58  2F00                     move.l     -[A7], D0
00000B5A  7204                     moveq.l    D1, 0x04
00000B5C  2F01                     move.l     -[A7], D1
00000B5E  204D                     movea.l    A0, A5
00000B60  D1FC FFFD CEBE           add.l      A0, 0xFFFDCEBE
00000B66  4850                     pea.l      [A0]
00000B68  4EAD 141A                jsr        [A5 + 0x141A /* export_639, CODE:27 @ 00002B78 */]
00000B6C  48C6                     ext.l      D6
00000B6E  2F06                     move.l     -[A7], D6
00000B70  7001                     moveq.l    D0, 0x01
00000B72  2F00                     move.l     -[A7], D0
00000B74  7204                     moveq.l    D1, 0x04
00000B76  2F01                     move.l     -[A7], D1
00000B78  204D                     movea.l    A0, A5
00000B7A  D1FC FFFD CEC2           add.l      A0, 0xFFFDCEC2
00000B80  4850                     pea.l      [A0]
00000B82  4EAD 141A                jsr        [A5 + 0x141A /* export_639, CODE:27 @ 00002B78 */]
00000B86  48C6                     ext.l      D6
00000B88  2F06                     move.l     -[A7], D6
00000B8A  7001                     moveq.l    D0, 0x01
00000B8C  2F00                     move.l     -[A7], D0
00000B8E  7204                     moveq.l    D1, 0x04
00000B90  2F01                     move.l     -[A7], D1
00000B92  204D                     movea.l    A0, A5
00000B94  D1FC FFFD 93FA           add.l      A0, 0xFFFD93FA
00000B9A  4850                     pea.l      [A0]
00000B9C  4EAD 141A                jsr        [A5 + 0x141A /* export_639, CODE:27 @ 00002B78 */]
00000BA0  48C6                     ext.l      D6
00000BA2  2F06                     move.l     -[A7], D6
00000BA4  7001                     moveq.l    D0, 0x01
00000BA6  2F00                     move.l     -[A7], D0
00000BA8  7204                     moveq.l    D1, 0x04
00000BAA  2F01                     move.l     -[A7], D1
00000BAC  204D                     movea.l    A0, A5
00000BAE  D1FC FFFD 93F6           add.l      A0, 0xFFFD93F6
00000BB4  4850                     pea.l      [A0]
00000BB6  4EAD 141A                jsr        [A5 + 0x141A /* export_639, CODE:27 @ 00002B78 */]
00000BBA  48C6                     ext.l      D6
00000BBC  2F06                     move.l     -[A7], D6
00000BBE  7001                     moveq.l    D0, 0x01
00000BC0  2F00                     move.l     -[A7], D0
00000BC2  7204                     moveq.l    D1, 0x04
00000BC4  2F01                     move.l     -[A7], D1
00000BC6  204D                     movea.l    A0, A5
00000BC8  D1FC FFFD 93F0           add.l      A0, 0xFFFD93F0
00000BCE  4850                     pea.l      [A0]
00000BD0  4EAD 141A                jsr        [A5 + 0x141A /* export_639, CODE:27 @ 00002B78 */]
00000BD4  48C6                     ext.l      D6
00000BD6  2F06                     move.l     -[A7], D6
00000BD8  7001                     moveq.l    D0, 0x01
00000BDA  2F00                     move.l     -[A7], D0
00000BDC  7202                     moveq.l    D1, 0x02
00000BDE  2F01                     move.l     -[A7], D1
00000BE0  204D                     movea.l    A0, A5
00000BE2  D1FC FFFF 7820           add.l      A0, 0xFFFF7820
00000BE8  4850                     pea.l      [A0]
00000BEA  4EAD 141A                jsr        [A5 + 0x141A /* export_639, CODE:27 @ 00002B78 */]
00000BEE  48C6                     ext.l      D6
00000BF0  2F06                     move.l     -[A7], D6
00000BF2  7001                     moveq.l    D0, 0x01
00000BF4  2F00                     move.l     -[A7], D0
00000BF6  7202                     moveq.l    D1, 0x02
00000BF8  2F01                     move.l     -[A7], D1
00000BFA  204D                     movea.l    A0, A5
00000BFC  D1FC FFFF 781E           add.l      A0, 0xFFFF781E
00000C02  4850                     pea.l      [A0]
00000C04  4EAD 141A                jsr        [A5 + 0x141A /* export_639, CODE:27 @ 00002B78 */]
00000C08  48C6                     ext.l      D6
00000C0A  2F06                     move.l     -[A7], D6
00000C0C  7001                     moveq.l    D0, 0x01
00000C0E  2F00                     move.l     -[A7], D0
00000C10  7202                     moveq.l    D1, 0x02
00000C12  2F01                     move.l     -[A7], D1
00000C14  204D                     movea.l    A0, A5
00000C16  D1FC FFFF 0442           add.l      A0, 0xFFFF0442
00000C1C  4850                     pea.l      [A0]
00000C1E  4EAD 141A                jsr        [A5 + 0x141A /* export_639, CODE:27 @ 00002B78 */]
00000C22  48C6                     ext.l      D6
00000C24  2F06                     move.l     -[A7], D6
00000C26  7001                     moveq.l    D0, 0x01
00000C28  2F00                     move.l     -[A7], D0
00000C2A  7202                     moveq.l    D1, 0x02
00000C2C  2F01                     move.l     -[A7], D1
00000C2E  204D                     movea.l    A0, A5
00000C30  D1FC FFFF 0440           add.l      A0, 0xFFFF0440
00000C36  4850                     pea.l      [A0]
00000C38  4EAD 141A                jsr        [A5 + 0x141A /* export_639, CODE:27 @ 00002B78 */]
00000C3C  48C6                     ext.l      D6
00000C3E  2F06                     move.l     -[A7], D6
00000C40  7001                     moveq.l    D0, 0x01
00000C42  2F00                     move.l     -[A7], D0
00000C44  2F00                     move.l     -[A7], D0
00000C46  204D                     movea.l    A0, A5
00000C48  D1FC FFFF 0426           add.l      A0, 0xFFFF0426
00000C4E  4850                     pea.l      [A0]
00000C50  4EAD 141A                jsr        [A5 + 0x141A /* export_639, CODE:27 @ 00002B78 */]
00000C54  48C6                     ext.l      D6
00000C56  2F06                     move.l     -[A7], D6
00000C58  7001                     moveq.l    D0, 0x01
00000C5A  2F00                     move.l     -[A7], D0
00000C5C  2F00                     move.l     -[A7], D0
00000C5E  204D                     movea.l    A0, A5
00000C60  D1FC FFFF 0424           add.l      A0, 0xFFFF0424
00000C66  4850                     pea.l      [A0]
00000C68  4EAD 141A                jsr        [A5 + 0x141A /* export_639, CODE:27 @ 00002B78 */]
00000C6C  48C6                     ext.l      D6
00000C6E  2F06                     move.l     -[A7], D6
00000C70  7001                     moveq.l    D0, 0x01
00000C72  2F00                     move.l     -[A7], D0
00000C74  2F00                     move.l     -[A7], D0
00000C76  204D                     movea.l    A0, A5
00000C78  D1FC FFFE 94E0           add.l      A0, 0xFFFE94E0
00000C7E  4850                     pea.l      [A0]
00000C80  4EAD 141A                jsr        [A5 + 0x141A /* export_639, CODE:27 @ 00002B78 */]
00000C84  48C6                     ext.l      D6
00000C86  2F06                     move.l     -[A7], D6
00000C88  7001                     moveq.l    D0, 0x01
00000C8A  2F00                     move.l     -[A7], D0
00000C8C  2F00                     move.l     -[A7], D0
00000C8E  204D                     movea.l    A0, A5
00000C90  D1FC FFFE 94DE           add.l      A0, 0xFFFE94DE
00000C96  4850                     pea.l      [A0]
00000C98  4EAD 141A                jsr        [A5 + 0x141A /* export_639, CODE:27 @ 00002B78 */]
00000C9C  48C6                     ext.l      D6
00000C9E  2F06                     move.l     -[A7], D6
00000CA0  7001                     moveq.l    D0, 0x01
00000CA2  2F00                     move.l     -[A7], D0
00000CA4  2F00                     move.l     -[A7], D0
00000CA6  204D                     movea.l    A0, A5
00000CA8  D1FC FFFE D874           add.l      A0, 0xFFFED874
00000CAE  4850                     pea.l      [A0]
00000CB0  4EAD 141A                jsr        [A5 + 0x141A /* export_639, CODE:27 @ 00002B78 */]
00000CB4  48C6                     ext.l      D6
00000CB6  2F06                     move.l     -[A7], D6
00000CB8  7001                     moveq.l    D0, 0x01
00000CBA  2F00                     move.l     -[A7], D0
00000CBC  2F00                     move.l     -[A7], D0
00000CBE  204D                     movea.l    A0, A5
00000CC0  D1FC FFFE D87E           add.l      A0, 0xFFFED87E
00000CC6  4850                     pea.l      [A0]
00000CC8  4EAD 141A                jsr        [A5 + 0x141A /* export_639, CODE:27 @ 00002B78 */]
00000CCC  48C6                     ext.l      D6
00000CCE  2F06                     move.l     -[A7], D6
00000CD0  7001                     moveq.l    D0, 0x01
00000CD2  2F00                     move.l     -[A7], D0
00000CD4  2F00                     move.l     -[A7], D0
00000CD6  204D                     movea.l    A0, A5
00000CD8  D1FC FFFE BED0           add.l      A0, 0xFFFEBED0
00000CDE  4850                     pea.l      [A0]
00000CE0  4EAD 141A                jsr        [A5 + 0x141A /* export_639, CODE:27 @ 00002B78 */]
00000CE4  48C6                     ext.l      D6
00000CE6  2F06                     move.l     -[A7], D6
00000CE8  7001                     moveq.l    D0, 0x01
00000CEA  2F00                     move.l     -[A7], D0
00000CEC  2F00                     move.l     -[A7], D0
00000CEE  204D                     movea.l    A0, A5
00000CF0  D1FC FFFE BECC           add.l      A0, 0xFFFEBECC
00000CF6  4850                     pea.l      [A0]
00000CF8  4EAD 141A                jsr        [A5 + 0x141A /* export_639, CODE:27 @ 00002B78 */]
00000CFC  48C6                     ext.l      D6
00000CFE  2F06                     move.l     -[A7], D6
00000D00  7001                     moveq.l    D0, 0x01
00000D02  2F00                     move.l     -[A7], D0
00000D04  2F00                     move.l     -[A7], D0
00000D06  204D                     movea.l    A0, A5
00000D08  D1FC FFFE BECA           add.l      A0, 0xFFFEBECA
00000D0E  4850                     pea.l      [A0]
00000D10  4EAD 141A                jsr        [A5 + 0x141A /* export_639, CODE:27 @ 00002B78 */]
00000D14  48C6                     ext.l      D6
00000D16  2F06                     move.l     -[A7], D6
00000D18  7001                     moveq.l    D0, 0x01
00000D1A  2F00                     move.l     -[A7], D0
00000D1C  2F00                     move.l     -[A7], D0
00000D1E  204D                     movea.l    A0, A5
00000D20  D1FC FFFE BEC8           add.l      A0, 0xFFFEBEC8
00000D26  4850                     pea.l      [A0]
00000D28  4EAD 141A                jsr        [A5 + 0x141A /* export_639, CODE:27 @ 00002B78 */]
00000D2C  48C6                     ext.l      D6
00000D2E  2F06                     move.l     -[A7], D6
00000D30  7001                     moveq.l    D0, 0x01
00000D32  2F00                     move.l     -[A7], D0
00000D34  2F00                     move.l     -[A7], D0
00000D36  204D                     movea.l    A0, A5
00000D38  D1FC FFFE 8AE8           add.l      A0, 0xFFFE8AE8
00000D3E  4850                     pea.l      [A0]
00000D40  4EAD 141A                jsr        [A5 + 0x141A /* export_639, CODE:27 @ 00002B78 */]
00000D44  48C6                     ext.l      D6
00000D46  2F06                     move.l     -[A7], D6
00000D48  7001                     moveq.l    D0, 0x01
00000D4A  2F00                     move.l     -[A7], D0
00000D4C  7204                     moveq.l    D1, 0x04
00000D4E  2F01                     move.l     -[A7], D1
00000D50  204D                     movea.l    A0, A5
00000D52  D1FC FFFD CE4A           add.l      A0, 0xFFFDCE4A
00000D58  4850                     pea.l      [A0]
00000D5A  4EAD 141A                jsr        [A5 + 0x141A /* export_639, CODE:27 @ 00002B78 */]
00000D5E  48C6                     ext.l      D6
00000D60  2F06                     move.l     -[A7], D6
00000D62  7001                     moveq.l    D0, 0x01
00000D64  2F00                     move.l     -[A7], D0
00000D66  7204                     moveq.l    D1, 0x04
00000D68  2F01                     move.l     -[A7], D1
00000D6A  204D                     movea.l    A0, A5
00000D6C  D1FC FFFD CE42           add.l      A0, 0xFFFDCE42
00000D72  4850                     pea.l      [A0]
00000D74  4EAD 141A                jsr        [A5 + 0x141A /* export_639, CODE:27 @ 00002B78 */]
00000D78  48C6                     ext.l      D6
00000D7A  2F06                     move.l     -[A7], D6
00000D7C  7001                     moveq.l    D0, 0x01
00000D7E  2F00                     move.l     -[A7], D0
00000D80  7204                     moveq.l    D1, 0x04
00000D82  2F01                     move.l     -[A7], D1
00000D84  204D                     movea.l    A0, A5
00000D86  D1FC FFFD CE36           add.l      A0, 0xFFFDCE36
00000D8C  4850                     pea.l      [A0]
00000D8E  4EAD 141A                jsr        [A5 + 0x141A /* export_639, CODE:27 @ 00002B78 */]
00000D92  48C6                     ext.l      D6
00000D94  2F06                     move.l     -[A7], D6
00000D96  7001                     moveq.l    D0, 0x01
00000D98  2F00                     move.l     -[A7], D0
00000D9A  7204                     moveq.l    D1, 0x04
00000D9C  2F01                     move.l     -[A7], D1
00000D9E  204D                     movea.l    A0, A5
00000DA0  D1FC FFFD CE5A           add.l      A0, 0xFFFDCE5A
00000DA6  4850                     pea.l      [A0]
00000DA8  4EAD 141A                jsr        [A5 + 0x141A /* export_639, CODE:27 @ 00002B78 */]
00000DAC  48C6                     ext.l      D6
00000DAE  2F06                     move.l     -[A7], D6
00000DB0  7001                     moveq.l    D0, 0x01
00000DB2  2F00                     move.l     -[A7], D0
00000DB4  7204                     moveq.l    D1, 0x04
00000DB6  2F01                     move.l     -[A7], D1
00000DB8  204D                     movea.l    A0, A5
00000DBA  D1FC FFFE BD7A           add.l      A0, 0xFFFEBD7A
00000DC0  4850                     pea.l      [A0]
00000DC2  4EAD 141A                jsr        [A5 + 0x141A /* export_639, CODE:27 @ 00002B78 */]
00000DC6  48C6                     ext.l      D6
00000DC8  2F06                     move.l     -[A7], D6
00000DCA  7001                     moveq.l    D0, 0x01
00000DCC  2F00                     move.l     -[A7], D0
00000DCE  7204                     moveq.l    D1, 0x04
00000DD0  2F01                     move.l     -[A7], D1
00000DD2  204D                     movea.l    A0, A5
00000DD4  D1FC FFFF 044C           add.l      A0, 0xFFFF044C
00000DDA  4850                     pea.l      [A0]
00000DDC  4EAD 141A                jsr        [A5 + 0x141A /* export_639, CODE:27 @ 00002B78 */]
00000DE0  48C6                     ext.l      D6
00000DE2  2F06                     move.l     -[A7], D6
00000DE4  7001                     moveq.l    D0, 0x01
00000DE6  2F00                     move.l     -[A7], D0
00000DE8  2F00                     move.l     -[A7], D0
00000DEA  204D                     movea.l    A0, A5
00000DEC  D1FC FFFE BD7E           add.l      A0, 0xFFFEBD7E
00000DF2  4850                     pea.l      [A0]
00000DF4  4EAD 141A                jsr        [A5 + 0x141A /* export_639, CODE:27 @ 00002B78 */]
00000DF8  48C6                     ext.l      D6
00000DFA  2F06                     move.l     -[A7], D6
00000DFC  7001                     moveq.l    D0, 0x01
00000DFE  2F00                     move.l     -[A7], D0
00000E00  2F00                     move.l     -[A7], D0
00000E02  204D                     movea.l    A0, A5
00000E04  D1FC FFFE BECE           add.l      A0, 0xFFFEBECE
00000E0A  4850                     pea.l      [A0]
00000E0C  4EAD 141A                jsr        [A5 + 0x141A /* export_639, CODE:27 @ 00002B78 */]
00000E10  48C6                     ext.l      D6
00000E12  2F06                     move.l     -[A7], D6
00000E14  7001                     moveq.l    D0, 0x01
00000E16  2F00                     move.l     -[A7], D0
00000E18  2F00                     move.l     -[A7], D0
00000E1A  204D                     movea.l    A0, A5
00000E1C  D1FC FFFE BED6           add.l      A0, 0xFFFEBED6
00000E22  4850                     pea.l      [A0]
00000E24  4EAD 141A                jsr        [A5 + 0x141A /* export_639, CODE:27 @ 00002B78 */]
00000E28  48C6                     ext.l      D6
00000E2A  2F06                     move.l     -[A7], D6
00000E2C  7001                     moveq.l    D0, 0x01
00000E2E  2F00                     move.l     -[A7], D0
00000E30  2F00                     move.l     -[A7], D0
00000E32  204D                     movea.l    A0, A5
00000E34  D1FC FFFE 8AE4           add.l      A0, 0xFFFE8AE4
00000E3A  4850                     pea.l      [A0]
00000E3C  4EAD 141A                jsr        [A5 + 0x141A /* export_639, CODE:27 @ 00002B78 */]
00000E40  48C6                     ext.l      D6
00000E42  2F06                     move.l     -[A7], D6
00000E44  7001                     moveq.l    D0, 0x01
00000E46  2F00                     move.l     -[A7], D0
00000E48  2F00                     move.l     -[A7], D0
00000E4A  204D                     movea.l    A0, A5
00000E4C  D1FC FFFE BECA           add.l      A0, 0xFFFEBECA
00000E52  4850                     pea.l      [A0]
00000E54  4EAD 141A                jsr        [A5 + 0x141A /* export_639, CODE:27 @ 00002B78 */]
00000E58  48C6                     ext.l      D6
00000E5A  2F06                     move.l     -[A7], D6
00000E5C  7001                     moveq.l    D0, 0x01
00000E5E  2F00                     move.l     -[A7], D0
00000E60  2F00                     move.l     -[A7], D0
00000E62  204D                     movea.l    A0, A5
00000E64  D1FC FFFE BECC           add.l      A0, 0xFFFEBECC
00000E6A  4850                     pea.l      [A0]
00000E6C  4EAD 141A                jsr        [A5 + 0x141A /* export_639, CODE:27 @ 00002B78 */]
00000E70  48C6                     ext.l      D6
00000E72  2F06                     move.l     -[A7], D6
00000E74  7001                     moveq.l    D0, 0x01
00000E76  2F00                     move.l     -[A7], D0
00000E78  2F00                     move.l     -[A7], D0
00000E7A  204D                     movea.l    A0, A5
00000E7C  D1FC FFFE BED0           add.l      A0, 0xFFFEBED0
00000E82  4850                     pea.l      [A0]
00000E84  4EAD 141A                jsr        [A5 + 0x141A /* export_639, CODE:27 @ 00002B78 */]
00000E88  48C6                     ext.l      D6
00000E8A  2F06                     move.l     -[A7], D6
00000E8C  7001                     moveq.l    D0, 0x01
00000E8E  2F00                     move.l     -[A7], D0
00000E90  7204                     moveq.l    D1, 0x04
00000E92  2F01                     move.l     -[A7], D1
00000E94  204D                     movea.l    A0, A5
00000E96  D1FC FFFF 0448           add.l      A0, 0xFFFF0448
00000E9C  4850                     pea.l      [A0]
00000E9E  4EAD 141A                jsr        [A5 + 0x141A /* export_639, CODE:27 @ 00002B78 */]
00000EA2  7001                     moveq.l    D0, 0x01
00000EA4  4FEF 04D0                lea.l      A7, [A7 + 0x4D0]
label00000EA8:
00000EA8  4CEE 18E8 FFE2           movem.l    D3,D5,D6,D7,A3,A4, [A6 - 0x1E]
00000EAE  4E5E                     unlink     A6
00000EB0  4E75                     rts
00000EB2  8C73 6176 6567 616D 6... dc.b       "savegame__Fs"
export_209:
00000EC2  4E56 FFE2                link       A6, -0x001E
00000EC6  48E7 1718                movem.l    -[A7], D3,D5,D6,D7,A3,A4
00000ECA  49EE FFE4                lea.l      A4, [A6 - 0x1C]
00000ECE  3C2E 000A                move.w     D6, [A6 + 0xA]
00000ED2  7E18                     moveq.l    D7, 0x18
00000ED4  48C6                     ext.l      D6
00000ED6  2F06                     move.l     -[A7], D6
00000ED8  7001                     moveq.l    D0, 0x01
00000EDA  2F00                     move.l     -[A7], D0
00000EDC  2F00                     move.l     -[A7], D0
00000EDE  486E FFFD                pea.l      [A6 - 0x3]
00000EE2  4EAD 1412                jsr        [A5 + 0x1412 /* export_638, CODE:27 @ 00002B38 */]
00000EE6  BE2E FFFD                cmp.b      D7, [A6 - 0x3]
00000EEA  4FEF 0010                lea.l      A7, [A7 + 0x10]
00000EEE  6730                     beq        +0x32 /* 00000F20 */
00000EF0  7001                     moveq.l    D0, 0x01
00000EF2  2F00                     move.l     -[A7], D0
00000EF4  7200                     moveq.l    D1, 0x00
00000EF6  2F01                     move.l     -[A7], D1
00000EF8  4878 0096                push.l     0x96
00000EFC  4878 00C0                push.l     0xC0
00000F00  2F01                     move.l     -[A7], D1
00000F02  2F00                     move.l     -[A7], D0
00000F04  704A                     moveq.l    D0, 0x4A
00000F06  2F00                     move.l     -[A7], D0
00000F08  204D                     movea.l    A0, A5
00000F0A  D1FC FFFE BED8           add.l      A0, 0xFFFEBED8
00000F10  4850                     pea.l      [A0]
00000F12  4EAD 0862                jsr        [A5 + 0x862 /* export_264, CODE:14 @ 000059C4 */]
00000F16  7000                     moveq.l    D0, 0x00
00000F18  4FEF 0020                lea.l      A7, [A7 + 0x20]
00000F1C  6000 0E98                bra        +0xE9A /* 00001DB6 */
label00000F20:
00000F20  48C6                     ext.l      D6
00000F22  2F06                     move.l     -[A7], D6
00000F24  7001                     moveq.l    D0, 0x01
00000F26  2F00                     move.l     -[A7], D0
00000F28  7202                     moveq.l    D1, 0x02
00000F2A  2F01                     move.l     -[A7], D1
00000F2C  204D                     movea.l    A0, A5
00000F2E  D1FC FFFD 71EA           add.l      A0, 0xFFFD71EA
00000F34  4850                     pea.l      [A0]
00000F36  4EAD 1412                jsr        [A5 + 0x1412 /* export_638, CODE:27 @ 00002B38 */]
00000F3A  7E00                     moveq.l    D7, 0x00
00000F3C  4FEF 0010                lea.l      A7, [A7 + 0x10]
label00000F40:
00000F40  48C6                     ext.l      D6
00000F42  2F06                     move.l     -[A7], D6
00000F44  7001                     moveq.l    D0, 0x01
00000F46  2F00                     move.l     -[A7], D0
00000F48  7222                     moveq.l    D1, 0x22
00000F4A  2F01                     move.l     -[A7], D1
00000F4C  2407                     move.l     D2, D7
00000F4E  C5FC 0022                muls.w     D2, 0x22 /* '\"' */
00000F52  204D                     movea.l    A0, A5
00000F54  D1FC FFFD 71EC           add.l      A0, 0xFFFD71EC
00000F5A  4870 2000                pea.l      [A0 + D2.w]
00000F5E  4EAD 1412                jsr        [A5 + 0x1412 /* export_638, CODE:27 @ 00002B38 */]
00000F62  4FEF 0010                lea.l      A7, [A7 + 0x10]
00000F66  2007                     move.l     D0, D7
00000F68  5287                     addq.l     D7, 1
00000F6A  0C87 0000 0100           cmpi.l     D7, 0x100
00000F70  6DCE                     blt        -0x30 /* 00000F40 */
00000F72  48C6                     ext.l      D6
00000F74  2F06                     move.l     -[A7], D6
00000F76  7001                     moveq.l    D0, 0x01
00000F78  2F00                     move.l     -[A7], D0
00000F7A  7202                     moveq.l    D1, 0x02
00000F7C  2F01                     move.l     -[A7], D1
00000F7E  204D                     movea.l    A0, A5
00000F80  D1FC FFFE 8AEE           add.l      A0, 0xFFFE8AEE
00000F86  4850                     pea.l      [A0]
00000F88  4EAD 1412                jsr        [A5 + 0x1412 /* export_638, CODE:27 @ 00002B38 */]
00000F8C  7E00                     moveq.l    D7, 0x00
00000F8E  4FEF 0010                lea.l      A7, [A7 + 0x10]
label00000F92:
00000F92  48C6                     ext.l      D6
00000F94  2F06                     move.l     -[A7], D6
00000F96  7001                     moveq.l    D0, 0x01
00000F98  2F00                     move.l     -[A7], D0
00000F9A  7214                     moveq.l    D1, 0x14
00000F9C  2F01                     move.l     -[A7], D1
00000F9E  2407                     move.l     D2, D7
00000FA0  48C2                     ext.l      D2
00000FA2  E58A                     lsl        D2, 2
00000FA4  2602                     move.l     D3, D2
00000FA6  E58A                     lsl        D2, 2
00000FA8  D483                     add.l      D2, D3
00000FAA  204D                     movea.l    A0, A5
00000FAC  D1FC FFFE 8AF0           add.l      A0, 0xFFFE8AF0
00000FB2  4870 2000                pea.l      [A0 + D2.w]
00000FB6  4EAD 1412                jsr        [A5 + 0x1412 /* export_638, CODE:27 @ 00002B38 */]
00000FBA  4FEF 0010                lea.l      A7, [A7 + 0x10]
00000FBE  2007                     move.l     D0, D7
00000FC0  5287                     addq.l     D7, 1
00000FC2  707F                     moveq.l    D0, 0x7F
00000FC4  B087                     cmp.l      D0, D7
00000FC6  6ECA                     bgt        -0x34 /* 00000F92 */
00000FC8  48C6                     ext.l      D6
00000FCA  2F06                     move.l     -[A7], D6
00000FCC  7001                     moveq.l    D0, 0x01
00000FCE  2F00                     move.l     -[A7], D0
00000FD0  7202                     moveq.l    D1, 0x02
00000FD2  2F01                     move.l     -[A7], D1
00000FD4  204D                     movea.l    A0, A5
00000FD6  D1FC FFFE 9F9A           add.l      A0, 0xFFFE9F9A
00000FDC  4850                     pea.l      [A0]
00000FDE  4EAD 1412                jsr        [A5 + 0x1412 /* export_638, CODE:27 @ 00002B38 */]
00000FE2  7E00                     moveq.l    D7, 0x00
00000FE4  4FEF 0010                lea.l      A7, [A7 + 0x10]
label00000FE8:
00000FE8  48C6                     ext.l      D6
00000FEA  2F06                     move.l     -[A7], D6
00000FEC  7001                     moveq.l    D0, 0x01
00000FEE  2F00                     move.l     -[A7], D0
00000FF0  723A                     moveq.l    D1, 0x3A
00000FF2  2F01                     move.l     -[A7], D1
00000FF4  2407                     move.l     D2, D7
00000FF6  C5FC 003A                muls.w     D2, 0x3A /* ':' */
00000FFA  204D                     movea.l    A0, A5
00000FFC  D1FC FFFE 9F9C           add.l      A0, 0xFFFE9F9C
00001002  4870 2000                pea.l      [A0 + D2.w]
00001006  4EAD 1412                jsr        [A5 + 0x1412 /* export_638, CODE:27 @ 00002B38 */]
0000100A  4FEF 0010                lea.l      A7, [A7 + 0x10]
0000100E  2007                     move.l     D0, D7
00001010  5287                     addq.l     D7, 1
00001012  707F                     moveq.l    D0, 0x7F
00001014  B087                     cmp.l      D0, D7
00001016  6ED0                     bgt        -0x2E /* 00000FE8 */
00001018  48C6                     ext.l      D6
0000101A  2F06                     move.l     -[A7], D6
0000101C  7001                     moveq.l    D0, 0x01
0000101E  2F00                     move.l     -[A7], D0
00001020  7202                     moveq.l    D1, 0x02
00001022  2F01                     move.l     -[A7], D1
00001024  204D                     movea.l    A0, A5
00001026  D1FC FFFD AFAC           add.l      A0, 0xFFFDAFAC
0000102C  4850                     pea.l      [A0]
0000102E  4EAD 1412                jsr        [A5 + 0x1412 /* export_638, CODE:27 @ 00002B38 */]
00001032  7E00                     moveq.l    D7, 0x00
00001034  4FEF 0010                lea.l      A7, [A7 + 0x10]
label00001038:
00001038  48C6                     ext.l      D6
0000103A  2F06                     move.l     -[A7], D6
0000103C  7001                     moveq.l    D0, 0x01
0000103E  2F00                     move.l     -[A7], D0
00001040  7244                     moveq.l    D1, 0x44
00001042  2F01                     move.l     -[A7], D1
00001044  2407                     move.l     D2, D7
00001046  C5FC 0044                muls.w     D2, 0x44 /* 'D' */
0000104A  204D                     movea.l    A0, A5
0000104C  D1FC FFFD AFAE           add.l      A0, 0xFFFDAFAE
00001052  4870 2000                pea.l      [A0 + D2.w]
00001056  4EAD 1412                jsr        [A5 + 0x1412 /* export_638, CODE:27 @ 00002B38 */]
0000105A  4FEF 0010                lea.l      A7, [A7 + 0x10]
0000105E  2007                     move.l     D0, D7
00001060  5287                     addq.l     D7, 1
00001062  7062                     moveq.l    D0, 0x62
00001064  B087                     cmp.l      D0, D7
00001066  6ED0                     bgt        -0x2E /* 00001038 */
00001068  48C6                     ext.l      D6
0000106A  2F06                     move.l     -[A7], D6
0000106C  7001                     moveq.l    D0, 0x01
0000106E  2F00                     move.l     -[A7], D0
00001070  7202                     moveq.l    D1, 0x02
00001072  2F01                     move.l     -[A7], D1
00001074  204D                     movea.l    A0, A5
00001076  D1FC FFFE 94DC           add.l      A0, 0xFFFE94DC
0000107C  4850                     pea.l      [A0]
0000107E  4EAD 1412                jsr        [A5 + 0x1412 /* export_638, CODE:27 @ 00002B38 */]
00001082  7E00                     moveq.l    D7, 0x00
00001084  4FEF 0010                lea.l      A7, [A7 + 0x10]
label00001088:
00001088  48C6                     ext.l      D6
0000108A  2F06                     move.l     -[A7], D6
0000108C  7001                     moveq.l    D0, 0x01
0000108E  2F00                     move.l     -[A7], D0
00001090  7246                     moveq.l    D1, 0x46
00001092  2F01                     move.l     -[A7], D1
00001094  2407                     move.l     D2, D7
00001096  C5FC 0046                muls.w     D2, 0x46 /* 'F' */
0000109A  204D                     movea.l    A0, A5
0000109C  D1FC FFFE D880           add.l      A0, 0xFFFED880
000010A2  4870 2000                pea.l      [A0 + D2.w]
000010A6  4EAD 1412                jsr        [A5 + 0x1412 /* export_638, CODE:27 @ 00002B38 */]
000010AA  4FEF 0010                lea.l      A7, [A7 + 0x10]
000010AE  2007                     move.l     D0, D7
000010B0  5287                     addq.l     D7, 1
000010B2  707F                     moveq.l    D0, 0x7F
000010B4  B087                     cmp.l      D0, D7
000010B6  6ED0                     bgt        -0x2E /* 00001088 */
000010B8  48C6                     ext.l      D6
000010BA  2F06                     move.l     -[A7], D6
000010BC  7001                     moveq.l    D0, 0x01
000010BE  2F00                     move.l     -[A7], D0
000010C0  7202                     moveq.l    D1, 0x02
000010C2  2F01                     move.l     -[A7], D1
000010C4  204D                     movea.l    A0, A5
000010C6  D1FC FFFD 93FE           add.l      A0, 0xFFFD93FE
000010CC  4850                     pea.l      [A0]
000010CE  4EAD 1412                jsr        [A5 + 0x1412 /* export_638, CODE:27 @ 00002B38 */]
000010D2  7E00                     moveq.l    D7, 0x00
000010D4  4FEF 0010                lea.l      A7, [A7 + 0x10]
label000010D8:
000010D8  48C6                     ext.l      D6
000010DA  2F06                     move.l     -[A7], D6
000010DC  7001                     moveq.l    D0, 0x01
000010DE  2F00                     move.l     -[A7], D0
000010E0  720C                     moveq.l    D1, 0x0C
000010E2  2F01                     move.l     -[A7], D1
000010E4  2407                     move.l     D2, D7
000010E6  C5FC 000C                muls.w     D2, 0xC
000010EA  204D                     movea.l    A0, A5
000010EC  D1FC FFFD 9400           add.l      A0, 0xFFFD9400
000010F2  4870 2000                pea.l      [A0 + D2.w]
000010F6  4EAD 1412                jsr        [A5 + 0x1412 /* export_638, CODE:27 @ 00002B38 */]
000010FA  4FEF 0010                lea.l      A7, [A7 + 0x10]
000010FE  2007                     move.l     D0, D7
00001100  5287                     addq.l     D7, 1
00001102  0C87 0000 0200           cmpi.l     D7, 0x200
00001108  6DCE                     blt        -0x30 /* 000010D8 */
0000110A  48C6                     ext.l      D6
0000110C  2F06                     move.l     -[A7], D6
0000110E  7001                     moveq.l    D0, 0x01
00001110  2F00                     move.l     -[A7], D0
00001112  2F00                     move.l     -[A7], D0
00001114  204D                     movea.l    A0, A5
00001116  D1FC FFFE D29A           add.l      A0, 0xFFFED29A
0000111C  4850                     pea.l      [A0]
0000111E  4EAD 1412                jsr        [A5 + 0x1412 /* export_638, CODE:27 @ 00002B38 */]
00001122  7E00                     moveq.l    D7, 0x00
00001124  4FEF 0010                lea.l      A7, [A7 + 0x10]
label00001128:
00001128  48C6                     ext.l      D6
0000112A  2F06                     move.l     -[A7], D6
0000112C  7001                     moveq.l    D0, 0x01
0000112E  2F00                     move.l     -[A7], D0
00001130  7208                     moveq.l    D1, 0x08
00001132  2F01                     move.l     -[A7], D1
00001134  2407                     move.l     D2, D7
00001136  E742                     asl        D2.w, 3
00001138  204D                     movea.l    A0, A5
0000113A  D1FC FFFE D21A           add.l      A0, 0xFFFED21A
00001140  4870 2000                pea.l      [A0 + D2.w]
00001144  4EAD 1412                jsr        [A5 + 0x1412 /* export_638, CODE:27 @ 00002B38 */]
00001148  4FEF 0010                lea.l      A7, [A7 + 0x10]
0000114C  2007                     move.l     D0, D7
0000114E  5287                     addq.l     D7, 1
00001150  7010                     moveq.l    D0, 0x10
00001152  B087                     cmp.l      D0, D7
00001154  6ED2                     bgt        -0x2C /* 00001128 */
00001156  558F                     subq.l     A7, 2
00001158  204D                     movea.l    A0, A5
0000115A  D1FC FFFF 7822           add.l      A0, 0xFFFF7822
00001160  4850                     pea.l      [A0]
00001162  7000                     moveq.l    D0, 0x00
00001164  1F00                     move.b     -[A7], D0
00001166  486E FFFE                pea.l      [A6 - 0x2]
0000116A  303C 0002                move.w     D0, 0x2
0000116E  AA52                     syscall    HFSPinaforeDispatch/HighLevelFSDispatch
00001170  3A1F                     move.w     D5, [A7]+
00001172  6706                     beq        +0x8 /* 0000117A */
00001174  7000                     moveq.l    D0, 0x00
00001176  6000 0C3E                bra        +0xC40 /* 00001DB6 */
label0000117A:
0000117A  558F                     subq.l     A7, 2
0000117C  3F2E FFFE                move.w     -[A7], [A6 - 0x2]
00001180  7000                     moveq.l    D0, 0x00
00001182  2F00                     move.l     -[A7], D0
00001184  4EAD 00BA                jsr        [A5 + 0xBA /* export_19, CODE:1 @ 000012CA */]
00001188  203C 0000 B7C0           move.l     D0, 0xB7C0
0000118E  A11E                     syscall    NewPtr, flags=1
00001190  2648                     movea.l    A3, A0
00001192  200B                     move.l     D0, A3
00001194  544F                     addq.w     A7, 2
00001196  6640                     bne        +0x42 /* 000011D8 */
00001198  7E00                     moveq.l    D7, 0x00
label0000119A:
0000119A  48C6                     ext.l      D6
0000119C  2F06                     move.l     -[A7], D6
0000119E  7001                     moveq.l    D0, 0x01
000011A0  2F00                     move.l     -[A7], D0
000011A2  7202                     moveq.l    D1, 0x02
000011A4  2F01                     move.l     -[A7], D1
000011A6  486E FFE2                pea.l      [A6 - 0x1E]
000011AA  4EAD 1412                jsr        [A5 + 0x1412 /* export_638, CODE:27 @ 00002B38 */]
000011AE  302E FFFE                move.w     D0, [A6 - 0x2]
000011B2  48C0                     ext.l      D0
000011B4  2F00                     move.l     -[A7], D0
000011B6  7001                     moveq.l    D0, 0x01
000011B8  2F00                     move.l     -[A7], D0
000011BA  7202                     moveq.l    D1, 0x02
000011BC  2F01                     move.l     -[A7], D1
000011BE  486E FFE2                pea.l      [A6 - 0x1E]
000011C2  4EAD 141A                jsr        [A5 + 0x141A /* export_639, CODE:27 @ 00002B78 */]
000011C6  4FEF 0020                lea.l      A7, [A7 + 0x20]
000011CA  2007                     move.l     D0, D7
000011CC  5287                     addq.l     D7, 1
000011CE  0C87 0000 5BE0           cmpi.l     D7, 0x5BE0
000011D4  6DC4                     blt        -0x3A /* 0000119A */
000011D6  6030                     bra        +0x32 /* 00001208 */
label000011D8:
000011D8  48C6                     ext.l      D6
000011DA  2F06                     move.l     -[A7], D6
000011DC  4878 5BE0                push.l     0x5BE0
000011E0  7002                     moveq.l    D0, 0x02
000011E2  2F00                     move.l     -[A7], D0
000011E4  2F0B                     move.l     -[A7], A3
000011E6  4EAD 1412                jsr        [A5 + 0x1412 /* export_638, CODE:27 @ 00002B38 */]
000011EA  302E FFFE                move.w     D0, [A6 - 0x2]
000011EE  48C0                     ext.l      D0
000011F0  2F00                     move.l     -[A7], D0
000011F2  4878 5BE0                push.l     0x5BE0
000011F6  7002                     moveq.l    D0, 0x02
000011F8  2F00                     move.l     -[A7], D0
000011FA  2F0B                     move.l     -[A7], A3
000011FC  4EAD 141A                jsr        [A5 + 0x141A /* export_639, CODE:27 @ 00002B78 */]
00001200  204B                     movea.l    A0, A3
00001202  A01F                     syscall    DisposPtr/DisposePtr
00001204  4FEF 0020                lea.l      A7, [A7 + 0x20]
label00001208:
00001208  558F                     subq.l     A7, 2
0000120A  3F2E FFFE                move.w     -[A7], [A6 - 0x2]
0000120E  4EAD 007A                jsr        [A5 + 0x7A /* export_11, CODE:1 @ 0000118E */]
00001212  48C6                     ext.l      D6
00001214  2F06                     move.l     -[A7], D6
00001216  7001                     moveq.l    D0, 0x01
00001218  2F00                     move.l     -[A7], D0
0000121A  4878 4800                push.l     0x4800 /* 'H\0' */
0000121E  204D                     movea.l    A0, A5
00001220  D1FC FFFE 42D4           add.l      A0, 0xFFFE42D4
00001226  4850                     pea.l      [A0]
00001228  4EAD 1412                jsr        [A5 + 0x1412 /* export_638, CODE:27 @ 00002B38 */]
0000122C  48C6                     ext.l      D6
0000122E  2F06                     move.l     -[A7], D6
00001230  7001                     moveq.l    D0, 0x01
00001232  2F00                     move.l     -[A7], D0
00001234  4878 4800                push.l     0x4800 /* 'H\0' */
00001238  204D                     movea.l    A0, A5
0000123A  D1FC FFFD FAD4           add.l      A0, 0xFFFDFAD4
00001240  4850                     pea.l      [A0]
00001242  4EAD 1412                jsr        [A5 + 0x1412 /* export_638, CODE:27 @ 00002B38 */]
00001246  48C6                     ext.l      D6
00001248  2F06                     move.l     -[A7], D6
0000124A  7001                     moveq.l    D0, 0x01
0000124C  2F00                     move.l     -[A7], D0
0000124E  4878 2400                push.l     0x2400 /* '$\0' */
00001252  204D                     movea.l    A0, A5
00001254  D1FC FFFD D6D4           add.l      A0, 0xFFFDD6D4
0000125A  4850                     pea.l      [A0]
0000125C  4EAD 1412                jsr        [A5 + 0x1412 /* export_638, CODE:27 @ 00002B38 */]
00001260  7E00                     moveq.l    D7, 0x00
00001262  4FEF 0032                lea.l      A7, [A7 + 0x32]
label00001266:
00001266  48C6                     ext.l      D6
00001268  2F06                     move.l     -[A7], D6
0000126A  7001                     moveq.l    D0, 0x01
0000126C  2F00                     move.l     -[A7], D0
0000126E  2F00                     move.l     -[A7], D0
00001270  204D                     movea.l    A0, A5
00001272  D1FC FFFE D734           add.l      A0, 0xFFFED734
00001278  4870 7000                pea.l      [A0 + D7.w]
0000127C  4EAD 1412                jsr        [A5 + 0x1412 /* export_638, CODE:27 @ 00002B38 */]
00001280  48C6                     ext.l      D6
00001282  2F06                     move.l     -[A7], D6
00001284  7001                     moveq.l    D0, 0x01
00001286  2F00                     move.l     -[A7], D0
00001288  2F00                     move.l     -[A7], D0
0000128A  204D                     movea.l    A0, A5
0000128C  D1FC FFFE D642           add.l      A0, 0xFFFED642
00001292  4870 7000                pea.l      [A0 + D7.w]
00001296  4EAD 1412                jsr        [A5 + 0x1412 /* export_638, CODE:27 @ 00002B38 */]
0000129A  48C6                     ext.l      D6
0000129C  2F06                     move.l     -[A7], D6
0000129E  7001                     moveq.l    D0, 0x01
000012A0  2F00                     move.l     -[A7], D0
000012A2  2F00                     move.l     -[A7], D0
000012A4  204D                     movea.l    A0, A5
000012A6  D1FC FFFE D54E           add.l      A0, 0xFFFED54E
000012AC  4870 7000                pea.l      [A0 + D7.w]
000012B0  4EAD 1412                jsr        [A5 + 0x1412 /* export_638, CODE:27 @ 00002B38 */]
000012B4  4FEF 0030                lea.l      A7, [A7 + 0x30]
000012B8  2007                     move.l     D0, D7
000012BA  5287                     addq.l     D7, 1
000012BC  0C87 0000 00F0           cmpi.l     D7, 0xF0
000012C2  6DA2                     blt        -0x5C /* 00001266 */
000012C4  7E00                     moveq.l    D7, 0x00
label000012C6:
000012C6  48C6                     ext.l      D6
000012C8  2F06                     move.l     -[A7], D6
000012CA  7001                     moveq.l    D0, 0x01
000012CC  2F00                     move.l     -[A7], D0
000012CE  7212                     moveq.l    D1, 0x12
000012D0  2F01                     move.l     -[A7], D1
000012D2  2407                     move.l     D2, D7
000012D4  C5FC 0012                muls.w     D2, 0x12
000012D8  204D                     movea.l    A0, A5
000012DA  D1FC FFFE 9EB0           add.l      A0, 0xFFFE9EB0
000012E0  4870 2000                pea.l      [A0 + D2.w]
000012E4  4EAD 1412                jsr        [A5 + 0x1412 /* export_638, CODE:27 @ 00002B38 */]
000012E8  4FEF 0010                lea.l      A7, [A7 + 0x10]
000012EC  2007                     move.l     D0, D7
000012EE  5287                     addq.l     D7, 1
000012F0  700C                     moveq.l    D0, 0x0C
000012F2  B087                     cmp.l      D0, D7
000012F4  6ED0                     bgt        -0x2E /* 000012C6 */
000012F6  7E00                     moveq.l    D7, 0x00
label000012F8:
000012F8  48C6                     ext.l      D6
000012FA  2F06                     move.l     -[A7], D6
000012FC  7001                     moveq.l    D0, 0x01
000012FE  2F00                     move.l     -[A7], D0
00001300  7212                     moveq.l    D1, 0x12
00001302  2F01                     move.l     -[A7], D1
00001304  2407                     move.l     D2, D7
00001306  C5FC 0012                muls.w     D2, 0x12
0000130A  204D                     movea.l    A0, A5
0000130C  D1FC FFFE 9E0E           add.l      A0, 0xFFFE9E0E
00001312  4870 2000                pea.l      [A0 + D2.w]
00001316  4EAD 1412                jsr        [A5 + 0x1412 /* export_638, CODE:27 @ 00002B38 */]
0000131A  4FEF 0010                lea.l      A7, [A7 + 0x10]
0000131E  2007                     move.l     D0, D7
00001320  5287                     addq.l     D7, 1
00001322  7009                     moveq.l    D0, 0x09
00001324  B087                     cmp.l      D0, D7
00001326  6ED0                     bgt        -0x2E /* 000012F8 */
00001328  7E00                     moveq.l    D7, 0x00
label0000132A:
0000132A  48C6                     ext.l      D6
0000132C  2F06                     move.l     -[A7], D6
0000132E  7001                     moveq.l    D0, 0x01
00001330  2F00                     move.l     -[A7], D0
00001332  7212                     moveq.l    D1, 0x12
00001334  2F01                     move.l     -[A7], D1
00001336  2407                     move.l     D2, D7
00001338  C5FC 0012                muls.w     D2, 0x12
0000133C  204D                     movea.l    A0, A5
0000133E  D1FC FFFE 9C5E           add.l      A0, 0xFFFE9C5E
00001344  4870 2000                pea.l      [A0 + D2.w]
00001348  4EAD 1412                jsr        [A5 + 0x1412 /* export_638, CODE:27 @ 00002B38 */]
0000134C  4FEF 0010                lea.l      A7, [A7 + 0x10]
00001350  2007                     move.l     D0, D7
00001352  5287                     addq.l     D7, 1
00001354  7018                     moveq.l    D0, 0x18
00001356  B087                     cmp.l      D0, D7
00001358  6ED0                     bgt        -0x2E /* 0000132A */
0000135A  7E00                     moveq.l    D7, 0x00
label0000135C:
0000135C  48C6                     ext.l      D6
0000135E  2F06                     move.l     -[A7], D6
00001360  7001                     moveq.l    D0, 0x01
00001362  2F00                     move.l     -[A7], D0
00001364  7212                     moveq.l    D1, 0x12
00001366  2F01                     move.l     -[A7], D1
00001368  2407                     move.l     D2, D7
0000136A  C5FC 0012                muls.w     D2, 0x12
0000136E  204D                     movea.l    A0, A5
00001370  D1FC FFFE 9C04           add.l      A0, 0xFFFE9C04
00001376  4870 2000                pea.l      [A0 + D2.w]
0000137A  4EAD 1412                jsr        [A5 + 0x1412 /* export_638, CODE:27 @ 00002B38 */]
0000137E  4FEF 0010                lea.l      A7, [A7 + 0x10]
00001382  2007                     move.l     D0, D7
00001384  5287                     addq.l     D7, 1
00001386  7005                     moveq.l    D0, 0x05
00001388  B087                     cmp.l      D0, D7
0000138A  6ED0                     bgt        -0x2E /* 0000135C */
0000138C  7E00                     moveq.l    D7, 0x00
label0000138E:
0000138E  48C6                     ext.l      D6
00001390  2F06                     move.l     -[A7], D6
00001392  7001                     moveq.l    D0, 0x01
00001394  2F00                     move.l     -[A7], D0
00001396  7212                     moveq.l    D1, 0x12
00001398  2F01                     move.l     -[A7], D1
0000139A  2407                     move.l     D2, D7
0000139C  C5FC 0012                muls.w     D2, 0x12
000013A0  204D                     movea.l    A0, A5
000013A2  D1FC FFFE 9AE4           add.l      A0, 0xFFFE9AE4
000013A8  4870 2000                pea.l      [A0 + D2.w]
000013AC  4EAD 1412                jsr        [A5 + 0x1412 /* export_638, CODE:27 @ 00002B38 */]
000013B0  4FEF 0010                lea.l      A7, [A7 + 0x10]
000013B4  2007                     move.l     D0, D7
000013B6  5287                     addq.l     D7, 1
000013B8  7010                     moveq.l    D0, 0x10
000013BA  B087                     cmp.l      D0, D7
000013BC  6ED0                     bgt        -0x2E /* 0000138E */
000013BE  7E00                     moveq.l    D7, 0x00
label000013C0:
000013C0  48C6                     ext.l      D6
000013C2  2F06                     move.l     -[A7], D6
000013C4  7001                     moveq.l    D0, 0x01
000013C6  2F00                     move.l     -[A7], D0
000013C8  7212                     moveq.l    D1, 0x12
000013CA  2F01                     move.l     -[A7], D1
000013CC  2407                     move.l     D2, D7
000013CE  C5FC 0012                muls.w     D2, 0x12
000013D2  204D                     movea.l    A0, A5
000013D4  D1FC FFFE 99C4           add.l      A0, 0xFFFE99C4
000013DA  4870 2000                pea.l      [A0 + D2.w]
000013DE  4EAD 1412                jsr        [A5 + 0x1412 /* export_638, CODE:27 @ 00002B38 */]
000013E2  4FEF 0010                lea.l      A7, [A7 + 0x10]
000013E6  2007                     move.l     D0, D7
000013E8  5287                     addq.l     D7, 1
000013EA  7010                     moveq.l    D0, 0x10
000013EC  B087                     cmp.l      D0, D7
000013EE  6ED0                     bgt        -0x2E /* 000013C0 */
000013F0  7E00                     moveq.l    D7, 0x00
label000013F2:
000013F2  48C6                     ext.l      D6
000013F4  2F06                     move.l     -[A7], D6
000013F6  7001                     moveq.l    D0, 0x01
000013F8  2F00                     move.l     -[A7], D0
000013FA  7212                     moveq.l    D1, 0x12
000013FC  2F01                     move.l     -[A7], D1
000013FE  2407                     move.l     D2, D7
00001400  C5FC 0012                muls.w     D2, 0x12
00001404  204D                     movea.l    A0, A5
00001406  D1FC FFFE 997C           add.l      A0, 0xFFFE997C
0000140C  4870 2000                pea.l      [A0 + D2.w]
00001410  4EAD 1412                jsr        [A5 + 0x1412 /* export_638, CODE:27 @ 00002B38 */]
00001414  4FEF 0010                lea.l      A7, [A7 + 0x10]
00001418  2007                     move.l     D0, D7
0000141A  5287                     addq.l     D7, 1
0000141C  7004                     moveq.l    D0, 0x04
0000141E  B087                     cmp.l      D0, D7
00001420  6ED0                     bgt        -0x2E /* 000013F2 */
00001422  7E00                     moveq.l    D7, 0x00
label00001424:
00001424  48C6                     ext.l      D6
00001426  2F06                     move.l     -[A7], D6
00001428  7001                     moveq.l    D0, 0x01
0000142A  2F00                     move.l     -[A7], D0
0000142C  7212                     moveq.l    D1, 0x12
0000142E  2F01                     move.l     -[A7], D1
00001430  2407                     move.l     D2, D7
00001432  C5FC 0012                muls.w     D2, 0x12
00001436  204D                     movea.l    A0, A5
00001438  D1FC FFFE 984A           add.l      A0, 0xFFFE984A
0000143E  4870 2000                pea.l      [A0 + D2.w]
00001442  4EAD 1412                jsr        [A5 + 0x1412 /* export_638, CODE:27 @ 00002B38 */]
00001446  4FEF 0010                lea.l      A7, [A7 + 0x10]
0000144A  2007                     move.l     D0, D7
0000144C  5287                     addq.l     D7, 1
0000144E  7011                     moveq.l    D0, 0x11
00001450  B087                     cmp.l      D0, D7
00001452  6ED0                     bgt        -0x2E /* 00001424 */
00001454  48C6                     ext.l      D6
00001456  2F06                     move.l     -[A7], D6
00001458  7001                     moveq.l    D0, 0x01
0000145A  2F00                     move.l     -[A7], D0
0000145C  2F00                     move.l     -[A7], D0
0000145E  204D                     movea.l    A0, A5
00001460  D1FC FFFE D2D8           add.l      A0, 0xFFFED2D8
00001466  4850                     pea.l      [A0]
00001468  4EAD 1412                jsr        [A5 + 0x1412 /* export_638, CODE:27 @ 00002B38 */]
0000146C  7E00                     moveq.l    D7, 0x00
0000146E  4FEF 0010                lea.l      A7, [A7 + 0x10]
label00001472:
00001472  48C6                     ext.l      D6
00001474  2F06                     move.l     -[A7], D6
00001476  7001                     moveq.l    D0, 0x01
00001478  2F00                     move.l     -[A7], D0
0000147A  2F00                     move.l     -[A7], D0
0000147C  2207                     move.l     D1, D7
0000147E  D241                     add.w      D1, D1
00001480  204D                     movea.l    A0, A5
00001482  D1FC FFFE D2DE           add.l      A0, 0xFFFED2DE
00001488  4870 1000                pea.l      [A0 + D1.w]
0000148C  4EAD 1412                jsr        [A5 + 0x1412 /* export_638, CODE:27 @ 00002B38 */]
00001490  48C6                     ext.l      D6
00001492  2F06                     move.l     -[A7], D6
00001494  7001                     moveq.l    D0, 0x01
00001496  2F00                     move.l     -[A7], D0
00001498  2F00                     move.l     -[A7], D0
0000149A  2207                     move.l     D1, D7
0000149C  D241                     add.w      D1, D1
0000149E  204D                     movea.l    A0, A5
000014A0  D1FC FFFE D2DE           add.l      A0, 0xFFFED2DE
000014A6  4870 1001                pea.l      [A0 + D1.w + 0x1]
000014AA  4EAD 1412                jsr        [A5 + 0x1412 /* export_638, CODE:27 @ 00002B38 */]
000014AE  48C6                     ext.l      D6
000014B0  2F06                     move.l     -[A7], D6
000014B2  7001                     moveq.l    D0, 0x01
000014B4  2F00                     move.l     -[A7], D0
000014B6  2F00                     move.l     -[A7], D0
000014B8  2207                     move.l     D1, D7
000014BA  D241                     add.w      D1, D1
000014BC  204D                     movea.l    A0, A5
000014BE  D1FC FFFE D2DE           add.l      A0, 0xFFFED2DE
000014C4  4870 1002                pea.l      [A0 + D1.w + 0x2]
000014C8  4EAD 1412                jsr        [A5 + 0x1412 /* export_638, CODE:27 @ 00002B38 */]
000014CC  4FEF 0030                lea.l      A7, [A7 + 0x30]
000014D0  2007                     move.l     D0, D7
000014D2  5287                     addq.l     D7, 1
000014D4  7040                     moveq.l    D0, 0x40
000014D6  B087                     cmp.l      D0, D7
000014D8  6E98                     bgt        -0x66 /* 00001472 */
000014DA  7E00                     moveq.l    D7, 0x00
label000014DC:
000014DC  48C6                     ext.l      D6
000014DE  2F06                     move.l     -[A7], D6
000014E0  7018                     moveq.l    D0, 0x18
000014E2  2F00                     move.l     -[A7], D0
000014E4  7201                     moveq.l    D1, 0x01
000014E6  2F01                     move.l     -[A7], D1
000014E8  2F0C                     move.l     -[A7], A4
000014EA  4EAD 1412                jsr        [A5 + 0x1412 /* export_638, CODE:27 @ 00002B38 */]
000014EE  422C 0018                clr.b      [A4 + 0x18]
000014F2  7000                     moveq.l    D0, 0x00
000014F4  2F00                     move.l     -[A7], D0
000014F6  1207                     move.b     D1, D7
000014F8  49C1                     lea.l      A4, D1
000014FA  2F01                     move.l     -[A7], D1
000014FC  2F0C                     move.l     -[A7], A4
000014FE  4EAD 002A                jsr        [A5 + 0x2A /* export_1, CODE:1 @ 00000000 */]
00001502  4FEF 001C                lea.l      A7, [A7 + 0x1C]
00001506  2007                     move.l     D0, D7
00001508  5287                     addq.l     D7, 1
0000150A  7010                     moveq.l    D0, 0x10
0000150C  B087                     cmp.l      D0, D7
0000150E  6ECC                     bgt        -0x32 /* 000014DC */
00001510  48C6                     ext.l      D6
00001512  2F06                     move.l     -[A7], D6
00001514  7001                     moveq.l    D0, 0x01
00001516  2F00                     move.l     -[A7], D0
00001518  4878 0090                push.l     0x90
0000151C  204D                     movea.l    A0, A5
0000151E  D1FC FFFF 0394           add.l      A0, 0xFFFF0394
00001524  4850                     pea.l      [A0]
00001526  4EAD 1412                jsr        [A5 + 0x1412 /* export_638, CODE:27 @ 00002B38 */]
0000152A  48C6                     ext.l      D6
0000152C  2F06                     move.l     -[A7], D6
0000152E  7001                     moveq.l    D0, 0x01
00001530  2F00                     move.l     -[A7], D0
00001532  4878 0090                push.l     0x90
00001536  204D                     movea.l    A0, A5
00001538  D1FC FFFE 97B2           add.l      A0, 0xFFFE97B2
0000153E  4850                     pea.l      [A0]
00001540  4EAD 1412                jsr        [A5 + 0x1412 /* export_638, CODE:27 @ 00002B38 */]
00001544  48C6                     ext.l      D6
00001546  2F06                     move.l     -[A7], D6
00001548  7001                     moveq.l    D0, 0x01
0000154A  2F00                     move.l     -[A7], D0
0000154C  4878 0090                push.l     0x90
00001550  204D                     movea.l    A0, A5
00001552  D1FC FFFE 9722           add.l      A0, 0xFFFE9722
00001558  4850                     pea.l      [A0]
0000155A  4EAD 1412                jsr        [A5 + 0x1412 /* export_638, CODE:27 @ 00002B38 */]
0000155E  48C6                     ext.l      D6
00001560  2F06                     move.l     -[A7], D6
00001562  7001                     moveq.l    D0, 0x01
00001564  2F00                     move.l     -[A7], D0
00001566  4878 0090                push.l     0x90
0000156A  204D                     movea.l    A0, A5
0000156C  D1FC FFFE 9692           add.l      A0, 0xFFFE9692
00001572  4850                     pea.l      [A0]
00001574  4EAD 1412                jsr        [A5 + 0x1412 /* export_638, CODE:27 @ 00002B38 */]
00001578  48C6                     ext.l      D6
0000157A  2F06                     move.l     -[A7], D6
0000157C  7001                     moveq.l    D0, 0x01
0000157E  2F00                     move.l     -[A7], D0
00001580  4878 0090                push.l     0x90
00001584  204D                     movea.l    A0, A5
00001586  D1FC FFFE 9602           add.l      A0, 0xFFFE9602
0000158C  4850                     pea.l      [A0]
0000158E  4EAD 1412                jsr        [A5 + 0x1412 /* export_638, CODE:27 @ 00002B38 */]
00001592  48C6                     ext.l      D6
00001594  2F06                     move.l     -[A7], D6
00001596  7001                     moveq.l    D0, 0x01
00001598  2F00                     move.l     -[A7], D0
0000159A  4878 0090                push.l     0x90
0000159E  204D                     movea.l    A0, A5
000015A0  D1FC FFFE 9572           add.l      A0, 0xFFFE9572
000015A6  4850                     pea.l      [A0]
000015A8  4EAD 1412                jsr        [A5 + 0x1412 /* export_638, CODE:27 @ 00002B38 */]
000015AC  48C6                     ext.l      D6
000015AE  2F06                     move.l     -[A7], D6
000015B0  7001                     moveq.l    D0, 0x01
000015B2  2F00                     move.l     -[A7], D0
000015B4  4878 0090                push.l     0x90
000015B8  204D                     movea.l    A0, A5
000015BA  D1FC FFFE 94E2           add.l      A0, 0xFFFE94E2
000015C0  4850                     pea.l      [A0]
000015C2  4EAD 1412                jsr        [A5 + 0x1412 /* export_638, CODE:27 @ 00002B38 */]
000015C6  7E00                     moveq.l    D7, 0x00
000015C8  4FEF 0070                lea.l      A7, [A7 + 0x70]
label000015CC:
000015CC  48C6                     ext.l      D6
000015CE  2F06                     move.l     -[A7], D6
000015D0  7001                     moveq.l    D0, 0x01
000015D2  2F00                     move.l     -[A7], D0
000015D4  2F00                     move.l     -[A7], D0
000015D6  204D                     movea.l    A0, A5
000015D8  D1FC FFFE FBFA           add.l      A0, 0xFFFEFBFA
000015DE  4870 7000                pea.l      [A0 + D7.w]
000015E2  4EAD 1412                jsr        [A5 + 0x1412 /* export_638, CODE:27 @ 00002B38 */]
000015E6  48C6                     ext.l      D6
000015E8  2F06                     move.l     -[A7], D6
000015EA  7001                     moveq.l    D0, 0x01
000015EC  2F00                     move.l     -[A7], D0
000015EE  2F00                     move.l     -[A7], D0
000015F0  204D                     movea.l    A0, A5
000015F2  D1FC FFFE FBF2           add.l      A0, 0xFFFEFBF2
000015F8  4870 7000                pea.l      [A0 + D7.w]
000015FC  4EAD 1412                jsr        [A5 + 0x1412 /* export_638, CODE:27 @ 00002B38 */]
00001600  4FEF 0020                lea.l      A7, [A7 + 0x20]
00001604  2007                     move.l     D0, D7
00001606  5287                     addq.l     D7, 1
00001608  7008                     moveq.l    D0, 0x08
0000160A  B087                     cmp.l      D0, D7
0000160C  6EBE                     bgt        -0x40 /* 000015CC */
0000160E  48C6                     ext.l      D6
00001610  2F06                     move.l     -[A7], D6
00001612  7001                     moveq.l    D0, 0x01
00001614  2F00                     move.l     -[A7], D0
00001616  2F00                     move.l     -[A7], D0
00001618  204D                     movea.l    A0, A5
0000161A  D1FC FFFE FC02           add.l      A0, 0xFFFEFC02
00001620  4850                     pea.l      [A0]
00001622  4EAD 1412                jsr        [A5 + 0x1412 /* export_638, CODE:27 @ 00002B38 */]
00001626  48C6                     ext.l      D6
00001628  2F06                     move.l     -[A7], D6
0000162A  7001                     moveq.l    D0, 0x01
0000162C  2F00                     move.l     -[A7], D0
0000162E  2F00                     move.l     -[A7], D0
00001630  204D                     movea.l    A0, A5
00001632  D1FC FFFE D2C8           add.l      A0, 0xFFFED2C8
00001638  4850                     pea.l      [A0]
0000163A  4EAD 1412                jsr        [A5 + 0x1412 /* export_638, CODE:27 @ 00002B38 */]
0000163E  48C6                     ext.l      D6
00001640  2F06                     move.l     -[A7], D6
00001642  7001                     moveq.l    D0, 0x01
00001644  2F00                     move.l     -[A7], D0
00001646  7204                     moveq.l    D1, 0x04
00001648  2F01                     move.l     -[A7], D1
0000164A  204D                     movea.l    A0, A5
0000164C  D1FC FFFD CE4E           add.l      A0, 0xFFFDCE4E
00001652  4850                     pea.l      [A0]
00001654  4EAD 1412                jsr        [A5 + 0x1412 /* export_638, CODE:27 @ 00002B38 */]
00001658  48C6                     ext.l      D6
0000165A  2F06                     move.l     -[A7], D6
0000165C  7001                     moveq.l    D0, 0x01
0000165E  2F00                     move.l     -[A7], D0
00001660  2F00                     move.l     -[A7], D0
00001662  204D                     movea.l    A0, A5
00001664  D1FC FFFE D2C2           add.l      A0, 0xFFFED2C2
0000166A  4850                     pea.l      [A0]
0000166C  4EAD 1412                jsr        [A5 + 0x1412 /* export_638, CODE:27 @ 00002B38 */]
00001670  48C6                     ext.l      D6
00001672  2F06                     move.l     -[A7], D6
00001674  7001                     moveq.l    D0, 0x01
00001676  2F00                     move.l     -[A7], D0
00001678  7202                     moveq.l    D1, 0x02
0000167A  2F01                     move.l     -[A7], D1
0000167C  204D                     movea.l    A0, A5
0000167E  D1FC FFFE D2CE           add.l      A0, 0xFFFED2CE
00001684  4850                     pea.l      [A0]
00001686  4EAD 1412                jsr        [A5 + 0x1412 /* export_638, CODE:27 @ 00002B38 */]
0000168A  48C6                     ext.l      D6
0000168C  2F06                     move.l     -[A7], D6
0000168E  7001                     moveq.l    D0, 0x01
00001690  2F00                     move.l     -[A7], D0
00001692  2F00                     move.l     -[A7], D0
00001694  204D                     movea.l    A0, A5
00001696  D1FC FFFE D2CC           add.l      A0, 0xFFFED2CC
0000169C  4850                     pea.l      [A0]
0000169E  4EAD 1412                jsr        [A5 + 0x1412 /* export_638, CODE:27 @ 00002B38 */]
000016A2  48C6                     ext.l      D6
000016A4  2F06                     move.l     -[A7], D6
000016A6  7001                     moveq.l    D0, 0x01
000016A8  2F00                     move.l     -[A7], D0
000016AA  2F00                     move.l     -[A7], D0
000016AC  204D                     movea.l    A0, A5
000016AE  D1FC FFFE D2CA           add.l      A0, 0xFFFED2CA
000016B4  4850                     pea.l      [A0]
000016B6  4EAD 1412                jsr        [A5 + 0x1412 /* export_638, CODE:27 @ 00002B38 */]
000016BA  48C6                     ext.l      D6
000016BC  2F06                     move.l     -[A7], D6
000016BE  7001                     moveq.l    D0, 0x01
000016C0  2F00                     move.l     -[A7], D0
000016C2  7204                     moveq.l    D1, 0x04
000016C4  2F01                     move.l     -[A7], D1
000016C6  204D                     movea.l    A0, A5
000016C8  D1FC FFFE BD6E           add.l      A0, 0xFFFEBD6E
000016CE  4850                     pea.l      [A0]
000016D0  4EAD 1412                jsr        [A5 + 0x1412 /* export_638, CODE:27 @ 00002B38 */]
000016D4  48C6                     ext.l      D6
000016D6  2F06                     move.l     -[A7], D6
000016D8  7001                     moveq.l    D0, 0x01
000016DA  2F00                     move.l     -[A7], D0
000016DC  7204                     moveq.l    D1, 0x04
000016DE  2F01                     move.l     -[A7], D1
000016E0  204D                     movea.l    A0, A5
000016E2  D1FC FFFE BD72           add.l      A0, 0xFFFEBD72
000016E8  4850                     pea.l      [A0]
000016EA  4EAD 1412                jsr        [A5 + 0x1412 /* export_638, CODE:27 @ 00002B38 */]
000016EE  48C6                     ext.l      D6
000016F0  2F06                     move.l     -[A7], D6
000016F2  7001                     moveq.l    D0, 0x01
000016F4  2F00                     move.l     -[A7], D0
000016F6  7204                     moveq.l    D1, 0x04
000016F8  2F01                     move.l     -[A7], D1
000016FA  204D                     movea.l    A0, A5
000016FC  D1FC FFFE BD66           add.l      A0, 0xFFFEBD66
00001702  4850                     pea.l      [A0]
00001704  4EAD 1412                jsr        [A5 + 0x1412 /* export_638, CODE:27 @ 00002B38 */]
00001708  48C6                     ext.l      D6
0000170A  2F06                     move.l     -[A7], D6
0000170C  7001                     moveq.l    D0, 0x01
0000170E  2F00                     move.l     -[A7], D0
00001710  7204                     moveq.l    D1, 0x04
00001712  2F01                     move.l     -[A7], D1
00001714  204D                     movea.l    A0, A5
00001716  D1FC FFFE BD62           add.l      A0, 0xFFFEBD62
0000171C  4850                     pea.l      [A0]
0000171E  4EAD 1412                jsr        [A5 + 0x1412 /* export_638, CODE:27 @ 00002B38 */]
00001722  48C6                     ext.l      D6
00001724  2F06                     move.l     -[A7], D6
00001726  7001                     moveq.l    D0, 0x01
00001728  2F00                     move.l     -[A7], D0
0000172A  7204                     moveq.l    D1, 0x04
0000172C  2F01                     move.l     -[A7], D1
0000172E  204D                     movea.l    A0, A5
00001730  D1FC FFFE BD0A           add.l      A0, 0xFFFEBD0A
00001736  4850                     pea.l      [A0]
00001738  4EAD 1412                jsr        [A5 + 0x1412 /* export_638, CODE:27 @ 00002B38 */]
0000173C  48C6                     ext.l      D6
0000173E  2F06                     move.l     -[A7], D6
00001740  7001                     moveq.l    D0, 0x01
00001742  2F00                     move.l     -[A7], D0
00001744  7204                     moveq.l    D1, 0x04
00001746  2F01                     move.l     -[A7], D1
00001748  204D                     movea.l    A0, A5
0000174A  D1FC FFFE BD5E           add.l      A0, 0xFFFEBD5E
00001750  4850                     pea.l      [A0]
00001752  4EAD 1412                jsr        [A5 + 0x1412 /* export_638, CODE:27 @ 00002B38 */]
00001756  48C6                     ext.l      D6
00001758  2F06                     move.l     -[A7], D6
0000175A  7001                     moveq.l    D0, 0x01
0000175C  2F00                     move.l     -[A7], D0
0000175E  7204                     moveq.l    D1, 0x04
00001760  2F01                     move.l     -[A7], D1
00001762  204D                     movea.l    A0, A5
00001764  D1FC FFFE BD5A           add.l      A0, 0xFFFEBD5A
0000176A  4850                     pea.l      [A0]
0000176C  4EAD 1412                jsr        [A5 + 0x1412 /* export_638, CODE:27 @ 00002B38 */]
00001770  48C6                     ext.l      D6
00001772  2F06                     move.l     -[A7], D6
00001774  7001                     moveq.l    D0, 0x01
00001776  2F00                     move.l     -[A7], D0
00001778  7204                     moveq.l    D1, 0x04
0000177A  2F01                     move.l     -[A7], D1
0000177C  204D                     movea.l    A0, A5
0000177E  D1FC FFFE BD56           add.l      A0, 0xFFFEBD56
00001784  4850                     pea.l      [A0]
00001786  4EAD 1412                jsr        [A5 + 0x1412 /* export_638, CODE:27 @ 00002B38 */]
0000178A  48C6                     ext.l      D6
0000178C  2F06                     move.l     -[A7], D6
0000178E  7001                     moveq.l    D0, 0x01
00001790  2F00                     move.l     -[A7], D0
00001792  7204                     moveq.l    D1, 0x04
00001794  2F01                     move.l     -[A7], D1
00001796  204D                     movea.l    A0, A5
00001798  D1FC FFFE BD52           add.l      A0, 0xFFFEBD52
0000179E  4850                     pea.l      [A0]
000017A0  4EAD 1412                jsr        [A5 + 0x1412 /* export_638, CODE:27 @ 00002B38 */]
000017A4  48C6                     ext.l      D6
000017A6  2F06                     move.l     -[A7], D6
000017A8  7001                     moveq.l    D0, 0x01
000017AA  2F00                     move.l     -[A7], D0
000017AC  7204                     moveq.l    D1, 0x04
000017AE  2F01                     move.l     -[A7], D1
000017B0  204D                     movea.l    A0, A5
000017B2  D1FC FFFE BD4A           add.l      A0, 0xFFFEBD4A
000017B8  4850                     pea.l      [A0]
000017BA  4EAD 1412                jsr        [A5 + 0x1412 /* export_638, CODE:27 @ 00002B38 */]
000017BE  48C6                     ext.l      D6
000017C0  2F06                     move.l     -[A7], D6
000017C2  7001                     moveq.l    D0, 0x01
000017C4  2F00                     move.l     -[A7], D0
000017C6  7204                     moveq.l    D1, 0x04
000017C8  2F01                     move.l     -[A7], D1
000017CA  204D                     movea.l    A0, A5
000017CC  D1FC FFFE BD46           add.l      A0, 0xFFFEBD46
000017D2  4850                     pea.l      [A0]
000017D4  4EAD 1412                jsr        [A5 + 0x1412 /* export_638, CODE:27 @ 00002B38 */]
000017D8  48C6                     ext.l      D6
000017DA  2F06                     move.l     -[A7], D6
000017DC  7001                     moveq.l    D0, 0x01
000017DE  2F00                     move.l     -[A7], D0
000017E0  7204                     moveq.l    D1, 0x04
000017E2  2F01                     move.l     -[A7], D1
000017E4  204D                     movea.l    A0, A5
000017E6  D1FC FFFE BD42           add.l      A0, 0xFFFEBD42
000017EC  4850                     pea.l      [A0]
000017EE  4EAD 1412                jsr        [A5 + 0x1412 /* export_638, CODE:27 @ 00002B38 */]
000017F2  48C6                     ext.l      D6
000017F4  2F06                     move.l     -[A7], D6
000017F6  7001                     moveq.l    D0, 0x01
000017F8  2F00                     move.l     -[A7], D0
000017FA  7204                     moveq.l    D1, 0x04
000017FC  2F01                     move.l     -[A7], D1
000017FE  204D                     movea.l    A0, A5
00001800  D1FC FFFE BD3E           add.l      A0, 0xFFFEBD3E
00001806  4850                     pea.l      [A0]
00001808  4EAD 1412                jsr        [A5 + 0x1412 /* export_638, CODE:27 @ 00002B38 */]
0000180C  48C6                     ext.l      D6
0000180E  2F06                     move.l     -[A7], D6
00001810  7001                     moveq.l    D0, 0x01
00001812  2F00                     move.l     -[A7], D0
00001814  7204                     moveq.l    D1, 0x04
00001816  2F01                     move.l     -[A7], D1
00001818  204D                     movea.l    A0, A5
0000181A  D1FC FFFE BD3A           add.l      A0, 0xFFFEBD3A
00001820  4850                     pea.l      [A0]
00001822  4EAD 1412                jsr        [A5 + 0x1412 /* export_638, CODE:27 @ 00002B38 */]
00001826  48C6                     ext.l      D6
00001828  2F06                     move.l     -[A7], D6
0000182A  7001                     moveq.l    D0, 0x01
0000182C  2F00                     move.l     -[A7], D0
0000182E  7204                     moveq.l    D1, 0x04
00001830  2F01                     move.l     -[A7], D1
00001832  204D                     movea.l    A0, A5
00001834  D1FC FFFE BD3E           add.l      A0, 0xFFFEBD3E
0000183A  4850                     pea.l      [A0]
0000183C  4EAD 1412                jsr        [A5 + 0x1412 /* export_638, CODE:27 @ 00002B38 */]
00001840  48C6                     ext.l      D6
00001842  2F06                     move.l     -[A7], D6
00001844  7001                     moveq.l    D0, 0x01
00001846  2F00                     move.l     -[A7], D0
00001848  7204                     moveq.l    D1, 0x04
0000184A  2F01                     move.l     -[A7], D1
0000184C  204D                     movea.l    A0, A5
0000184E  D1FC FFFE BD26           add.l      A0, 0xFFFEBD26
00001854  4850                     pea.l      [A0]
00001856  4EAD 1412                jsr        [A5 + 0x1412 /* export_638, CODE:27 @ 00002B38 */]
0000185A  48C6                     ext.l      D6
0000185C  2F06                     move.l     -[A7], D6
0000185E  7001                     moveq.l    D0, 0x01
00001860  2F00                     move.l     -[A7], D0
00001862  7204                     moveq.l    D1, 0x04
00001864  2F01                     move.l     -[A7], D1
00001866  204D                     movea.l    A0, A5
00001868  D1FC FFFE BD1E           add.l      A0, 0xFFFEBD1E
0000186E  4850                     pea.l      [A0]
00001870  4EAD 1412                jsr        [A5 + 0x1412 /* export_638, CODE:27 @ 00002B38 */]
00001874  48C6                     ext.l      D6
00001876  2F06                     move.l     -[A7], D6
00001878  7001                     moveq.l    D0, 0x01
0000187A  2F00                     move.l     -[A7], D0
0000187C  7204                     moveq.l    D1, 0x04
0000187E  2F01                     move.l     -[A7], D1
00001880  204D                     movea.l    A0, A5
00001882  D1FC FFFE BD1A           add.l      A0, 0xFFFEBD1A
00001888  4850                     pea.l      [A0]
0000188A  4EAD 1412                jsr        [A5 + 0x1412 /* export_638, CODE:27 @ 00002B38 */]
0000188E  48C6                     ext.l      D6
00001890  2F06                     move.l     -[A7], D6
00001892  7001                     moveq.l    D0, 0x01
00001894  2F00                     move.l     -[A7], D0
00001896  7204                     moveq.l    D1, 0x04
00001898  2F01                     move.l     -[A7], D1
0000189A  204D                     movea.l    A0, A5
0000189C  D1FC FFFE BD16           add.l      A0, 0xFFFEBD16
000018A2  4850                     pea.l      [A0]
000018A4  4EAD 1412                jsr        [A5 + 0x1412 /* export_638, CODE:27 @ 00002B38 */]
000018A8  48C6                     ext.l      D6
000018AA  2F06                     move.l     -[A7], D6
000018AC  7001                     moveq.l    D0, 0x01
000018AE  2F00                     move.l     -[A7], D0
000018B0  7204                     moveq.l    D1, 0x04
000018B2  2F01                     move.l     -[A7], D1
000018B4  204D                     movea.l    A0, A5
000018B6  D1FC FFFE BD0E           add.l      A0, 0xFFFEBD0E
000018BC  4850                     pea.l      [A0]
000018BE  4EAD 1412                jsr        [A5 + 0x1412 /* export_638, CODE:27 @ 00002B38 */]
000018C2  48C6                     ext.l      D6
000018C4  2F06                     move.l     -[A7], D6
000018C6  7001                     moveq.l    D0, 0x01
000018C8  2F00                     move.l     -[A7], D0
000018CA  7204                     moveq.l    D1, 0x04
000018CC  2F01                     move.l     -[A7], D1
000018CE  204D                     movea.l    A0, A5
000018D0  D1FC FFFE BD12           add.l      A0, 0xFFFEBD12
000018D6  4850                     pea.l      [A0]
000018D8  4EAD 1412                jsr        [A5 + 0x1412 /* export_638, CODE:27 @ 00002B38 */]
000018DC  48C6                     ext.l      D6
000018DE  2F06                     move.l     -[A7], D6
000018E0  7001                     moveq.l    D0, 0x01
000018E2  2F00                     move.l     -[A7], D0
000018E4  7204                     moveq.l    D1, 0x04
000018E6  2F01                     move.l     -[A7], D1
000018E8  204D                     movea.l    A0, A5
000018EA  D1FC FFFE BD02           add.l      A0, 0xFFFEBD02
000018F0  4850                     pea.l      [A0]
000018F2  4EAD 1412                jsr        [A5 + 0x1412 /* export_638, CODE:27 @ 00002B38 */]
000018F6  48C6                     ext.l      D6
000018F8  2F06                     move.l     -[A7], D6
000018FA  7001                     moveq.l    D0, 0x01
000018FC  2F00                     move.l     -[A7], D0
000018FE  7204                     moveq.l    D1, 0x04
00001900  2F01                     move.l     -[A7], D1
00001902  204D                     movea.l    A0, A5
00001904  D1FC FFFE BD06           add.l      A0, 0xFFFEBD06
0000190A  4850                     pea.l      [A0]
0000190C  4EAD 1412                jsr        [A5 + 0x1412 /* export_638, CODE:27 @ 00002B38 */]
00001910  48C6                     ext.l      D6
00001912  2F06                     move.l     -[A7], D6
00001914  7001                     moveq.l    D0, 0x01
00001916  2F00                     move.l     -[A7], D0
00001918  7204                     moveq.l    D1, 0x04
0000191A  2F01                     move.l     -[A7], D1
0000191C  204D                     movea.l    A0, A5
0000191E  D1FC FFFE BCFE           add.l      A0, 0xFFFEBCFE
00001924  4850                     pea.l      [A0]
00001926  4EAD 1412                jsr        [A5 + 0x1412 /* export_638, CODE:27 @ 00002B38 */]
0000192A  48C6                     ext.l      D6
0000192C  2F06                     move.l     -[A7], D6
0000192E  7001                     moveq.l    D0, 0x01
00001930  2F00                     move.l     -[A7], D0
00001932  7204                     moveq.l    D1, 0x04
00001934  2F01                     move.l     -[A7], D1
00001936  204D                     movea.l    A0, A5
00001938  D1FC FFFD 93EC           add.l      A0, 0xFFFD93EC
0000193E  4850                     pea.l      [A0]
00001940  4EAD 1412                jsr        [A5 + 0x1412 /* export_638, CODE:27 @ 00002B38 */]
00001944  48C6                     ext.l      D6
00001946  2F06                     move.l     -[A7], D6
00001948  7001                     moveq.l    D0, 0x01
0000194A  2F00                     move.l     -[A7], D0
0000194C  7202                     moveq.l    D1, 0x02
0000194E  2F01                     move.l     -[A7], D1
00001950  204D                     movea.l    A0, A5
00001952  D1FC FFFF 781C           add.l      A0, 0xFFFF781C
00001958  4850                     pea.l      [A0]
0000195A  4EAD 1412                jsr        [A5 + 0x1412 /* export_638, CODE:27 @ 00002B38 */]
0000195E  48C6                     ext.l      D6
00001960  2F06                     move.l     -[A7], D6
00001962  7001                     moveq.l    D0, 0x01
00001964  2F00                     move.l     -[A7], D0
00001966  7202                     moveq.l    D1, 0x02
00001968  2F01                     move.l     -[A7], D1
0000196A  204D                     movea.l    A0, A5
0000196C  D1FC FFFF 781A           add.l      A0, 0xFFFF781A
00001972  4850                     pea.l      [A0]
00001974  4EAD 1412                jsr        [A5 + 0x1412 /* export_638, CODE:27 @ 00002B38 */]
00001978  48C6                     ext.l      D6
0000197A  2F06                     move.l     -[A7], D6
0000197C  7001                     moveq.l    D0, 0x01
0000197E  2F00                     move.l     -[A7], D0
00001980  7204                     moveq.l    D1, 0x04
00001982  2F01                     move.l     -[A7], D1
00001984  204D                     movea.l    A0, A5
00001986  D1FC FFFE BD76           add.l      A0, 0xFFFEBD76
0000198C  4850                     pea.l      [A0]
0000198E  4EAD 1412                jsr        [A5 + 0x1412 /* export_638, CODE:27 @ 00002B38 */]
00001992  48C6                     ext.l      D6
00001994  2F06                     move.l     -[A7], D6
00001996  7001                     moveq.l    D0, 0x01
00001998  2F00                     move.l     -[A7], D0
0000199A  7202                     moveq.l    D1, 0x02
0000199C  2F01                     move.l     -[A7], D1
0000199E  204D                     movea.l    A0, A5
000019A0  D1FC FFFE D2D4           add.l      A0, 0xFFFED2D4
000019A6  4850                     pea.l      [A0]
000019A8  4EAD 1412                jsr        [A5 + 0x1412 /* export_638, CODE:27 @ 00002B38 */]
000019AC  48C6                     ext.l      D6
000019AE  2F06                     move.l     -[A7], D6
000019B0  7001                     moveq.l    D0, 0x01
000019B2  2F00                     move.l     -[A7], D0
000019B4  7202                     moveq.l    D1, 0x02
000019B6  2F01                     move.l     -[A7], D1
000019B8  204D                     movea.l    A0, A5
000019BA  D1FC FFFE D2D6           add.l      A0, 0xFFFED2D6
000019C0  4850                     pea.l      [A0]
000019C2  4EAD 1412                jsr        [A5 + 0x1412 /* export_638, CODE:27 @ 00002B38 */]
000019C6  48C6                     ext.l      D6
000019C8  2F06                     move.l     -[A7], D6
000019CA  7001                     moveq.l    D0, 0x01
000019CC  2F00                     move.l     -[A7], D0
000019CE  2F00                     move.l     -[A7], D0
000019D0  204D                     movea.l    A0, A5
000019D2  D1FC FFFE D2D2           add.l      A0, 0xFFFED2D2
000019D8  4850                     pea.l      [A0]
000019DA  4EAD 1412                jsr        [A5 + 0x1412 /* export_638, CODE:27 @ 00002B38 */]
000019DE  48C6                     ext.l      D6
000019E0  2F06                     move.l     -[A7], D6
000019E2  7001                     moveq.l    D0, 0x01
000019E4  2F00                     move.l     -[A7], D0
000019E6  7202                     moveq.l    D1, 0x02
000019E8  2F01                     move.l     -[A7], D1
000019EA  204D                     movea.l    A0, A5
000019EC  D1FC FFFD CECE           add.l      A0, 0xFFFDCECE
000019F2  4850                     pea.l      [A0]
000019F4  4EAD 1412                jsr        [A5 + 0x1412 /* export_638, CODE:27 @ 00002B38 */]
000019F8  48C6                     ext.l      D6
000019FA  2F06                     move.l     -[A7], D6
000019FC  7001                     moveq.l    D0, 0x01
000019FE  2F00                     move.l     -[A7], D0
00001A00  7202                     moveq.l    D1, 0x02
00001A02  2F01                     move.l     -[A7], D1
00001A04  204D                     movea.l    A0, A5
00001A06  D1FC FFFD CECC           add.l      A0, 0xFFFDCECC
00001A0C  4850                     pea.l      [A0]
00001A0E  4EAD 1412                jsr        [A5 + 0x1412 /* export_638, CODE:27 @ 00002B38 */]
00001A12  48C6                     ext.l      D6
00001A14  2F06                     move.l     -[A7], D6
00001A16  7001                     moveq.l    D0, 0x01
00001A18  2F00                     move.l     -[A7], D0
00001A1A  7202                     moveq.l    D1, 0x02
00001A1C  2F01                     move.l     -[A7], D1
00001A1E  204D                     movea.l    A0, A5
00001A20  D1FC FFFD CECA           add.l      A0, 0xFFFDCECA
00001A26  4850                     pea.l      [A0]
00001A28  4EAD 1412                jsr        [A5 + 0x1412 /* export_638, CODE:27 @ 00002B38 */]
00001A2C  48C6                     ext.l      D6
00001A2E  2F06                     move.l     -[A7], D6
00001A30  7001                     moveq.l    D0, 0x01
00001A32  2F00                     move.l     -[A7], D0
00001A34  7202                     moveq.l    D1, 0x02
00001A36  2F01                     move.l     -[A7], D1
00001A38  204D                     movea.l    A0, A5
00001A3A  D1FC FFFD CEC8           add.l      A0, 0xFFFDCEC8
00001A40  4850                     pea.l      [A0]
00001A42  4EAD 1412                jsr        [A5 + 0x1412 /* export_638, CODE:27 @ 00002B38 */]
00001A46  48C6                     ext.l      D6
00001A48  2F06                     move.l     -[A7], D6
00001A4A  7001                     moveq.l    D0, 0x01
00001A4C  2F00                     move.l     -[A7], D0
00001A4E  7202                     moveq.l    D1, 0x02
00001A50  2F01                     move.l     -[A7], D1
00001A52  204D                     movea.l    A0, A5
00001A54  D1FC FFFD CEC6           add.l      A0, 0xFFFDCEC6
00001A5A  4850                     pea.l      [A0]
00001A5C  4EAD 1412                jsr        [A5 + 0x1412 /* export_638, CODE:27 @ 00002B38 */]
00001A60  48C6                     ext.l      D6
00001A62  2F06                     move.l     -[A7], D6
00001A64  7001                     moveq.l    D0, 0x01
00001A66  2F00                     move.l     -[A7], D0
00001A68  7204                     moveq.l    D1, 0x04
00001A6A  2F01                     move.l     -[A7], D1
00001A6C  204D                     movea.l    A0, A5
00001A6E  D1FC FFFD CEBE           add.l      A0, 0xFFFDCEBE
00001A74  4850                     pea.l      [A0]
00001A76  4EAD 1412                jsr        [A5 + 0x1412 /* export_638, CODE:27 @ 00002B38 */]
00001A7A  48C6                     ext.l      D6
00001A7C  2F06                     move.l     -[A7], D6
00001A7E  7001                     moveq.l    D0, 0x01
00001A80  2F00                     move.l     -[A7], D0
00001A82  7204                     moveq.l    D1, 0x04
00001A84  2F01                     move.l     -[A7], D1
00001A86  204D                     movea.l    A0, A5
00001A88  D1FC FFFD CEC2           add.l      A0, 0xFFFDCEC2
00001A8E  4850                     pea.l      [A0]
00001A90  4EAD 1412                jsr        [A5 + 0x1412 /* export_638, CODE:27 @ 00002B38 */]
00001A94  48C6                     ext.l      D6
00001A96  2F06                     move.l     -[A7], D6
00001A98  7001                     moveq.l    D0, 0x01
00001A9A  2F00                     move.l     -[A7], D0
00001A9C  7204                     moveq.l    D1, 0x04
00001A9E  2F01                     move.l     -[A7], D1
00001AA0  204D                     movea.l    A0, A5
00001AA2  D1FC FFFD 93FA           add.l      A0, 0xFFFD93FA
00001AA8  4850                     pea.l      [A0]
00001AAA  4EAD 1412                jsr        [A5 + 0x1412 /* export_638, CODE:27 @ 00002B38 */]
00001AAE  48C6                     ext.l      D6
00001AB0  2F06                     move.l     -[A7], D6
00001AB2  7001                     moveq.l    D0, 0x01
00001AB4  2F00                     move.l     -[A7], D0
00001AB6  7204                     moveq.l    D1, 0x04
00001AB8  2F01                     move.l     -[A7], D1
00001ABA  204D                     movea.l    A0, A5
00001ABC  D1FC FFFD 93F6           add.l      A0, 0xFFFD93F6
00001AC2  4850                     pea.l      [A0]
00001AC4  4EAD 1412                jsr        [A5 + 0x1412 /* export_638, CODE:27 @ 00002B38 */]
00001AC8  48C6                     ext.l      D6
00001ACA  2F06                     move.l     -[A7], D6
00001ACC  7001                     moveq.l    D0, 0x01
00001ACE  2F00                     move.l     -[A7], D0
00001AD0  7204                     moveq.l    D1, 0x04
00001AD2  2F01                     move.l     -[A7], D1
00001AD4  204D                     movea.l    A0, A5
00001AD6  D1FC FFFD 93F0           add.l      A0, 0xFFFD93F0
00001ADC  4850                     pea.l      [A0]
00001ADE  4EAD 1412                jsr        [A5 + 0x1412 /* export_638, CODE:27 @ 00002B38 */]
00001AE2  48C6                     ext.l      D6
00001AE4  2F06                     move.l     -[A7], D6
00001AE6  7001                     moveq.l    D0, 0x01
00001AE8  2F00                     move.l     -[A7], D0
00001AEA  7202                     moveq.l    D1, 0x02
00001AEC  2F01                     move.l     -[A7], D1
00001AEE  204D                     movea.l    A0, A5
00001AF0  D1FC FFFF 7820           add.l      A0, 0xFFFF7820
00001AF6  4850                     pea.l      [A0]
00001AF8  4EAD 1412                jsr        [A5 + 0x1412 /* export_638, CODE:27 @ 00002B38 */]
00001AFC  48C6                     ext.l      D6
00001AFE  2F06                     move.l     -[A7], D6
00001B00  7001                     moveq.l    D0, 0x01
00001B02  2F00                     move.l     -[A7], D0
00001B04  7202                     moveq.l    D1, 0x02
00001B06  2F01                     move.l     -[A7], D1
00001B08  204D                     movea.l    A0, A5
00001B0A  D1FC FFFF 781E           add.l      A0, 0xFFFF781E
00001B10  4850                     pea.l      [A0]
00001B12  4EAD 1412                jsr        [A5 + 0x1412 /* export_638, CODE:27 @ 00002B38 */]
00001B16  48C6                     ext.l      D6
00001B18  2F06                     move.l     -[A7], D6
00001B1A  7001                     moveq.l    D0, 0x01
00001B1C  2F00                     move.l     -[A7], D0
00001B1E  7202                     moveq.l    D1, 0x02
00001B20  2F01                     move.l     -[A7], D1
00001B22  204D                     movea.l    A0, A5
00001B24  D1FC FFFF 0442           add.l      A0, 0xFFFF0442
00001B2A  4850                     pea.l      [A0]
00001B2C  4EAD 1412                jsr        [A5 + 0x1412 /* export_638, CODE:27 @ 00002B38 */]
00001B30  48C6                     ext.l      D6
00001B32  2F06                     move.l     -[A7], D6
00001B34  7001                     moveq.l    D0, 0x01
00001B36  2F00                     move.l     -[A7], D0
00001B38  7202                     moveq.l    D1, 0x02
00001B3A  2F01                     move.l     -[A7], D1
00001B3C  204D                     movea.l    A0, A5
00001B3E  D1FC FFFF 0440           add.l      A0, 0xFFFF0440
00001B44  4850                     pea.l      [A0]
00001B46  4EAD 1412                jsr        [A5 + 0x1412 /* export_638, CODE:27 @ 00002B38 */]
00001B4A  48C6                     ext.l      D6
00001B4C  2F06                     move.l     -[A7], D6
00001B4E  7001                     moveq.l    D0, 0x01
00001B50  2F00                     move.l     -[A7], D0
00001B52  2F00                     move.l     -[A7], D0
00001B54  204D                     movea.l    A0, A5
00001B56  D1FC FFFF 0426           add.l      A0, 0xFFFF0426
00001B5C  4850                     pea.l      [A0]
00001B5E  4EAD 1412                jsr        [A5 + 0x1412 /* export_638, CODE:27 @ 00002B38 */]
00001B62  48C6                     ext.l      D6
00001B64  2F06                     move.l     -[A7], D6
00001B66  7001                     moveq.l    D0, 0x01
00001B68  2F00                     move.l     -[A7], D0
00001B6A  2F00                     move.l     -[A7], D0
00001B6C  204D                     movea.l    A0, A5
00001B6E  D1FC FFFF 0424           add.l      A0, 0xFFFF0424
00001B74  4850                     pea.l      [A0]
00001B76  4EAD 1412                jsr        [A5 + 0x1412 /* export_638, CODE:27 @ 00002B38 */]
00001B7A  48C6                     ext.l      D6
00001B7C  2F06                     move.l     -[A7], D6
00001B7E  7001                     moveq.l    D0, 0x01
00001B80  2F00                     move.l     -[A7], D0
00001B82  2F00                     move.l     -[A7], D0
00001B84  204D                     movea.l    A0, A5
00001B86  D1FC FFFE 94E0           add.l      A0, 0xFFFE94E0
00001B8C  4850                     pea.l      [A0]
00001B8E  4EAD 1412                jsr        [A5 + 0x1412 /* export_638, CODE:27 @ 00002B38 */]
00001B92  48C6                     ext.l      D6
00001B94  2F06                     move.l     -[A7], D6
00001B96  7001                     moveq.l    D0, 0x01
00001B98  2F00                     move.l     -[A7], D0
00001B9A  2F00                     move.l     -[A7], D0
00001B9C  204D                     movea.l    A0, A5
00001B9E  D1FC FFFE 94DE           add.l      A0, 0xFFFE94DE
00001BA4  4850                     pea.l      [A0]
00001BA6  4EAD 1412                jsr        [A5 + 0x1412 /* export_638, CODE:27 @ 00002B38 */]
00001BAA  48C6                     ext.l      D6
00001BAC  2F06                     move.l     -[A7], D6
00001BAE  7001                     moveq.l    D0, 0x01
00001BB0  2F00                     move.l     -[A7], D0
00001BB2  2F00                     move.l     -[A7], D0
00001BB4  204D                     movea.l    A0, A5
00001BB6  D1FC FFFE D874           add.l      A0, 0xFFFED874
00001BBC  4850                     pea.l      [A0]
00001BBE  4EAD 1412                jsr        [A5 + 0x1412 /* export_638, CODE:27 @ 00002B38 */]
00001BC2  48C6                     ext.l      D6
00001BC4  2F06                     move.l     -[A7], D6
00001BC6  7001                     moveq.l    D0, 0x01
00001BC8  2F00                     move.l     -[A7], D0
00001BCA  2F00                     move.l     -[A7], D0
00001BCC  204D                     movea.l    A0, A5
00001BCE  D1FC FFFE D87E           add.l      A0, 0xFFFED87E
00001BD4  4850                     pea.l      [A0]
00001BD6  4EAD 1412                jsr        [A5 + 0x1412 /* export_638, CODE:27 @ 00002B38 */]
00001BDA  48C6                     ext.l      D6
00001BDC  2F06                     move.l     -[A7], D6
00001BDE  7001                     moveq.l    D0, 0x01
00001BE0  2F00                     move.l     -[A7], D0
00001BE2  2F00                     move.l     -[A7], D0
00001BE4  204D                     movea.l    A0, A5
00001BE6  D1FC FFFE BED0           add.l      A0, 0xFFFEBED0
00001BEC  4850                     pea.l      [A0]
00001BEE  4EAD 1412                jsr        [A5 + 0x1412 /* export_638, CODE:27 @ 00002B38 */]
00001BF2  48C6                     ext.l      D6
00001BF4  2F06                     move.l     -[A7], D6
00001BF6  7001                     moveq.l    D0, 0x01
00001BF8  2F00                     move.l     -[A7], D0
00001BFA  2F00                     move.l     -[A7], D0
00001BFC  204D                     movea.l    A0, A5
00001BFE  D1FC FFFE BECC           add.l      A0, 0xFFFEBECC
00001C04  4850                     pea.l      [A0]
00001C06  4EAD 1412                jsr        [A5 + 0x1412 /* export_638, CODE:27 @ 00002B38 */]
00001C0A  48C6                     ext.l      D6
00001C0C  2F06                     move.l     -[A7], D6
00001C0E  7001                     moveq.l    D0, 0x01
00001C10  2F00                     move.l     -[A7], D0
00001C12  2F00                     move.l     -[A7], D0
00001C14  204D                     movea.l    A0, A5
00001C16  D1FC FFFE BECA           add.l      A0, 0xFFFEBECA
00001C1C  4850                     pea.l      [A0]
00001C1E  4EAD 1412                jsr        [A5 + 0x1412 /* export_638, CODE:27 @ 00002B38 */]
00001C22  48C6                     ext.l      D6
00001C24  2F06                     move.l     -[A7], D6
00001C26  7001                     moveq.l    D0, 0x01
00001C28  2F00                     move.l     -[A7], D0
00001C2A  2F00                     move.l     -[A7], D0
00001C2C  204D                     movea.l    A0, A5
00001C2E  D1FC FFFE BEC8           add.l      A0, 0xFFFEBEC8
00001C34  4850                     pea.l      [A0]
00001C36  4EAD 1412                jsr        [A5 + 0x1412 /* export_638, CODE:27 @ 00002B38 */]
00001C3A  48C6                     ext.l      D6
00001C3C  2F06                     move.l     -[A7], D6
00001C3E  7001                     moveq.l    D0, 0x01
00001C40  2F00                     move.l     -[A7], D0
00001C42  2F00                     move.l     -[A7], D0
00001C44  204D                     movea.l    A0, A5
00001C46  D1FC FFFE 8AE8           add.l      A0, 0xFFFE8AE8
00001C4C  4850                     pea.l      [A0]
00001C4E  4EAD 1412                jsr        [A5 + 0x1412 /* export_638, CODE:27 @ 00002B38 */]
00001C52  48C6                     ext.l      D6
00001C54  2F06                     move.l     -[A7], D6
00001C56  7001                     moveq.l    D0, 0x01
00001C58  2F00                     move.l     -[A7], D0
00001C5A  7204                     moveq.l    D1, 0x04
00001C5C  2F01                     move.l     -[A7], D1
00001C5E  204D                     movea.l    A0, A5
00001C60  D1FC FFFD CE4A           add.l      A0, 0xFFFDCE4A
00001C66  4850                     pea.l      [A0]
00001C68  4EAD 1412                jsr        [A5 + 0x1412 /* export_638, CODE:27 @ 00002B38 */]
00001C6C  48C6                     ext.l      D6
00001C6E  2F06                     move.l     -[A7], D6
00001C70  7001                     moveq.l    D0, 0x01
00001C72  2F00                     move.l     -[A7], D0
00001C74  7204                     moveq.l    D1, 0x04
00001C76  2F01                     move.l     -[A7], D1
00001C78  204D                     movea.l    A0, A5
00001C7A  D1FC FFFD CE42           add.l      A0, 0xFFFDCE42
00001C80  4850                     pea.l      [A0]
00001C82  4EAD 1412                jsr        [A5 + 0x1412 /* export_638, CODE:27 @ 00002B38 */]
00001C86  48C6                     ext.l      D6
00001C88  2F06                     move.l     -[A7], D6
00001C8A  7001                     moveq.l    D0, 0x01
00001C8C  2F00                     move.l     -[A7], D0
00001C8E  7204                     moveq.l    D1, 0x04
00001C90  2F01                     move.l     -[A7], D1
00001C92  204D                     movea.l    A0, A5
00001C94  D1FC FFFD CE36           add.l      A0, 0xFFFDCE36
00001C9A  4850                     pea.l      [A0]
00001C9C  4EAD 1412                jsr        [A5 + 0x1412 /* export_638, CODE:27 @ 00002B38 */]
00001CA0  48C6                     ext.l      D6
00001CA2  2F06                     move.l     -[A7], D6
00001CA4  7001                     moveq.l    D0, 0x01
00001CA6  2F00                     move.l     -[A7], D0
00001CA8  7204                     moveq.l    D1, 0x04
00001CAA  2F01                     move.l     -[A7], D1
00001CAC  204D                     movea.l    A0, A5
00001CAE  D1FC FFFD CE5A           add.l      A0, 0xFFFDCE5A
00001CB4  4850                     pea.l      [A0]
00001CB6  4EAD 1412                jsr        [A5 + 0x1412 /* export_638, CODE:27 @ 00002B38 */]
00001CBA  48C6                     ext.l      D6
00001CBC  2F06                     move.l     -[A7], D6
00001CBE  7001                     moveq.l    D0, 0x01
00001CC0  2F00                     move.l     -[A7], D0
00001CC2  7204                     moveq.l    D1, 0x04
00001CC4  2F01                     move.l     -[A7], D1
00001CC6  204D                     movea.l    A0, A5
00001CC8  D1FC FFFE BD7A           add.l      A0, 0xFFFEBD7A
00001CCE  4850                     pea.l      [A0]
00001CD0  4EAD 1412                jsr        [A5 + 0x1412 /* export_638, CODE:27 @ 00002B38 */]
00001CD4  48C6                     ext.l      D6
00001CD6  2F06                     move.l     -[A7], D6
00001CD8  7001                     moveq.l    D0, 0x01
00001CDA  2F00                     move.l     -[A7], D0
00001CDC  7204                     moveq.l    D1, 0x04
00001CDE  2F01                     move.l     -[A7], D1
00001CE0  204D                     movea.l    A0, A5
00001CE2  D1FC FFFF 044C           add.l      A0, 0xFFFF044C
00001CE8  4850                     pea.l      [A0]
00001CEA  4EAD 1412                jsr        [A5 + 0x1412 /* export_638, CODE:27 @ 00002B38 */]
00001CEE  48C6                     ext.l      D6
00001CF0  2F06                     move.l     -[A7], D6
00001CF2  7001                     moveq.l    D0, 0x01
00001CF4  2F00                     move.l     -[A7], D0
00001CF6  2F00                     move.l     -[A7], D0
00001CF8  204D                     movea.l    A0, A5
00001CFA  D1FC FFFE BD7E           add.l      A0, 0xFFFEBD7E
00001D00  4850                     pea.l      [A0]
00001D02  4EAD 1412                jsr        [A5 + 0x1412 /* export_638, CODE:27 @ 00002B38 */]
00001D06  48C6                     ext.l      D6
00001D08  2F06                     move.l     -[A7], D6
00001D0A  7001                     moveq.l    D0, 0x01
00001D0C  2F00                     move.l     -[A7], D0
00001D0E  2F00                     move.l     -[A7], D0
00001D10  204D                     movea.l    A0, A5
00001D12  D1FC FFFE BECE           add.l      A0, 0xFFFEBECE
00001D18  4850                     pea.l      [A0]
00001D1A  4EAD 1412                jsr        [A5 + 0x1412 /* export_638, CODE:27 @ 00002B38 */]
00001D1E  48C6                     ext.l      D6
00001D20  2F06                     move.l     -[A7], D6
00001D22  7001                     moveq.l    D0, 0x01
00001D24  2F00                     move.l     -[A7], D0
00001D26  2F00                     move.l     -[A7], D0
00001D28  204D                     movea.l    A0, A5
00001D2A  D1FC FFFE BED6           add.l      A0, 0xFFFEBED6
00001D30  4850                     pea.l      [A0]
00001D32  4EAD 1412                jsr        [A5 + 0x1412 /* export_638, CODE:27 @ 00002B38 */]
00001D36  48C6                     ext.l      D6
00001D38  2F06                     move.l     -[A7], D6
00001D3A  7001                     moveq.l    D0, 0x01
00001D3C  2F00                     move.l     -[A7], D0
00001D3E  2F00                     move.l     -[A7], D0
00001D40  204D                     movea.l    A0, A5
00001D42  D1FC FFFE 8AE4           add.l      A0, 0xFFFE8AE4
00001D48  4850                     pea.l      [A0]
00001D4A  4EAD 1412                jsr        [A5 + 0x1412 /* export_638, CODE:27 @ 00002B38 */]
00001D4E  48C6                     ext.l      D6
00001D50  2F06                     move.l     -[A7], D6
00001D52  7001                     moveq.l    D0, 0x01
00001D54  2F00                     move.l     -[A7], D0
00001D56  2F00                     move.l     -[A7], D0
00001D58  204D                     movea.l    A0, A5
00001D5A  D1FC FFFE BECA           add.l      A0, 0xFFFEBECA
00001D60  4850                     pea.l      [A0]
00001D62  4EAD 1412                jsr        [A5 + 0x1412 /* export_638, CODE:27 @ 00002B38 */]
00001D66  48C6                     ext.l      D6
00001D68  2F06                     move.l     -[A7], D6
00001D6A  7001                     moveq.l    D0, 0x01
00001D6C  2F00                     move.l     -[A7], D0
00001D6E  2F00                     move.l     -[A7], D0
00001D70  204D                     movea.l    A0, A5
00001D72  D1FC FFFE BECC           add.l      A0, 0xFFFEBECC
00001D78  4850                     pea.l      [A0]
00001D7A  4EAD 1412                jsr        [A5 + 0x1412 /* export_638, CODE:27 @ 00002B38 */]
00001D7E  48C6                     ext.l      D6
00001D80  2F06                     move.l     -[A7], D6
00001D82  7001                     moveq.l    D0, 0x01
00001D84  2F00                     move.l     -[A7], D0
00001D86  2F00                     move.l     -[A7], D0
00001D88  204D                     movea.l    A0, A5
00001D8A  D1FC FFFE BED0           add.l      A0, 0xFFFEBED0
00001D90  4850                     pea.l      [A0]
00001D92  4EAD 1412                jsr        [A5 + 0x1412 /* export_638, CODE:27 @ 00002B38 */]
00001D96  48C6                     ext.l      D6
00001D98  2F06                     move.l     -[A7], D6
00001D9A  7001                     moveq.l    D0, 0x01
00001D9C  2F00                     move.l     -[A7], D0
00001D9E  7204                     moveq.l    D1, 0x04
00001DA0  2F01                     move.l     -[A7], D1
00001DA2  204D                     movea.l    A0, A5
00001DA4  D1FC FFFF 0448           add.l      A0, 0xFFFF0448
00001DAA  4850                     pea.l      [A0]
00001DAC  4EAD 1412                jsr        [A5 + 0x1412 /* export_638, CODE:27 @ 00002B38 */]
00001DB0  7001                     moveq.l    D0, 0x01
00001DB2  4FEF 04D0                lea.l      A7, [A7 + 0x4D0]
label00001DB6:
00001DB6  4CEE 18E8 FFCA           movem.l    D3,D5,D6,D7,A3,A4, [A6 - 0x36]
00001DBC  4E5E                     unlink     A6
00001DBE  4E75                     rts
00001DC0  8C6C 6F61 6467 616D 6... dc.b       "loadgame__Fs"
export_210:
00001DD0  4E56 FEBA                link       A6, -0x0146
00001DD4  48E7 1718                movem.l    -[A7], D3,D5,D6,D7,A3,A4
00001DD8  266E 0008                movea.l    A3, [A6 + 0x8]
00001DDC  49EE FEF6                lea.l      A4, [A6 - 0x10A]
00001DE0  7000                     moveq.l    D0, 0x00
00001DE2  2F00                     move.l     -[A7], D0
00001DE4  2F00                     move.l     -[A7], D0
00001DE6  486E FED8                pea.l      [A6 - 0x128]
00001DEA  4EAD 1772                jsr        [A5 + 0x1772 /* export_746, CODE:32 @ 00004CE0 */]
00001DEE  4246                     clr.w      D6
00001DF0  102E 000F                move.b     D0, [A6 + 0xF]
00001DF4  4880                     ext.w      D0
00001DF6  C1FC 0018                muls.w     D0, 0x18
00001DFA  204D                     movea.l    A0, A5
00001DFC  D1FC FFFE BF82           add.l      A0, 0xFFFEBF82
00001E02  D0C0                     add.w      A0, D0
00001E04  2D48 FFFC                move.l     [A6 - 0x4], A0
00001E08  7A01                     moveq.l    D5, 0x01
00001E0A  486E FED8                pea.l      [A6 - 0x128]
00001E0E  4EAD 1782                jsr        [A5 + 0x1782 /* export_748, CODE:32 @ 00004E1E */]
00001E12  1E05                     move.b     D7, D5
00001E14  7000                     moveq.l    D0, 0x00
00001E16  1007                     move.b     D0, D7
00001E18  2F00                     move.l     -[A7], D0
00001E1A  2F2E FEEC                move.l     -[A7], [A6 - 0x114]
00001E1E  2F2E FFFC                move.l     -[A7], [A6 - 0x4]
00001E22  486E FED8                pea.l      [A6 - 0x128]
00001E26  4EAD 178A                jsr        [A5 + 0x178A /* export_749, CODE:32 @ 00004E80 */]
00001E2A  422E FEF5                clr.b      [A6 - 0x10B]
00001E2E  204D                     movea.l    A0, A5
00001E30  D1FC FFFE BF08           add.l      A0, 0xFFFEBF08
00001E36  4850                     pea.l      [A0]
00001E38  486E FED8                pea.l      [A6 - 0x128]
00001E3C  4EAD 17C2                jsr        [A5 + 0x17C2 /* export_756, CODE:32 @ 000053D8 */]
00001E40  4A00                     tst.b      D0
00001E42  4FEF 0028                lea.l      A7, [A7 + 0x28]
00001E46  672A                     beq        +0x2C /* 00001E72 */
00001E48  486E FED8                pea.l      [A6 - 0x128]
00001E4C  4EAD 1782                jsr        [A5 + 0x1782 /* export_748, CODE:32 @ 00004E1E */]
00001E50  4207                     clr.b      D7
00001E52  7000                     moveq.l    D0, 0x00
00001E54  1007                     move.b     D0, D7
00001E56  2F00                     move.l     -[A7], D0
00001E58  2F2E FEEC                move.l     -[A7], [A6 - 0x114]
00001E5C  204D                     movea.l    A0, A5
00001E5E  D1FC FFFE BF10           add.l      A0, 0xFFFEBF10
00001E64  4850                     pea.l      [A0]
00001E66  486E FED8                pea.l      [A6 - 0x128]
00001E6A  4EAD 178A                jsr        [A5 + 0x178A /* export_749, CODE:32 @ 00004E80 */]
00001E6E  4FEF 0014                lea.l      A7, [A7 + 0x14]
label00001E72:
00001E72  598F                     subq.l     A7, 4
00001E74  2F3C 4372 7044           move.l     -[A7], 0x43727044 /* 'CrpD' */
00001E7A  486E FED8                pea.l      [A6 - 0x128]
00001E7E  4EAD 1792                jsr        [A5 + 0x1792 /* export_750, CODE:32 @ 000050C2 */]
00001E82  224D                     movea.l    A1, A5
00001E84  D3FC FFFF FB4A           add.l      A1, 0xFFFFFB4A
00001E8A  41D1                     lea.l      A0, [A1]
00001E8C  588F                     addq.l     A7, 4
00001E8E  2F08                     move.l     -[A7], A0
00001E90  A9A1                     syscall    GetNamedResource
00001E92  2D5F FFF8                move.l     [A6 - 0x8], [A7]+
00001E96  6644                     bne        +0x46 /* 00001EDC */
00001E98  7000                     moveq.l    D0, 0x00
00001E9A  2F00                     move.l     -[A7], D0
00001E9C  204D                     movea.l    A0, A5
00001E9E  D1FC FFFE BF1E           add.l      A0, 0xFFFEBF1E
00001EA4  4850                     pea.l      [A0]
00001EA6  486E FEBA                pea.l      [A6 - 0x146]
00001EAA  4EAD 1772                jsr        [A5 + 0x1772 /* export_746, CODE:32 @ 00004CE0 */]
00001EAE  486E FED8                pea.l      [A6 - 0x128]
00001EB2  486E FEBA                pea.l      [A6 - 0x146]
00001EB6  4EAD 17BA                jsr        [A5 + 0x17BA /* export_755, CODE:32 @ 00005320 */]
00001EBA  7002                     moveq.l    D0, 0x02
00001EBC  2F00                     move.l     -[A7], D0
00001EBE  486E FEBA                pea.l      [A6 - 0x146]
00001EC2  4EAD 177A                jsr        [A5 + 0x177A /* export_747, CODE:32 @ 00004DBC */]
00001EC6  7002                     moveq.l    D0, 0x02
00001EC8  2F00                     move.l     -[A7], D0
00001ECA  486E FED8                pea.l      [A6 - 0x128]
00001ECE  4EAD 177A                jsr        [A5 + 0x177A /* export_747, CODE:32 @ 00004DBC */]
00001ED2  7000                     moveq.l    D0, 0x00
00001ED4  4FEF 0024                lea.l      A7, [A7 + 0x24]
00001ED8  6000 008E                bra        +0x90 /* 00001F68 */
label00001EDC:
00001EDC  206E FFF8                movea.l    A0, [A6 - 0x8]
00001EE0  2010                     move.l     D0, [A0]
00001EE2  D0BC 0000 1600           add.l      D0, 0x1600
00001EE8  2040                     movea.l    A0, D0
00001EEA  224C                     movea.l    A1, A4
00001EEC  203C 0000 0100           move.l     D0, 0x100
00001EF2  A02E                     syscall    BlockMove/BlockMoveData
00001EF4  4247                     clr.w      D7
00001EF6  363C 0100                move.w     D3, 0x100
00001EFA  604A                     bra        +0x4C /* 00001F46 */
label00001EFC:
00001EFC  7000                     moveq.l    D0, 0x00
00001EFE  1034 7000                move.b     D0, [A4 + D7.w]
00001F02  224D                     movea.l    A1, A5
00001F04  D3FC FFFF F088           add.l      A1, 0xFFFFF088
00001F0A  2051                     movea.l    A0, [A1]
00001F0C  7257                     moveq.l    D1, 0x57
00001F0E  C230 0000                and.b      D1, [A0 + D0.w]
00001F12  671C                     beq        +0x1E /* 00001F30 */
00001F14  7040                     moveq.l    D0, 0x40
00001F16  B034 7000                cmp.b      D0, [A4 + D7.w]
00001F1A  6714                     beq        +0x16 /* 00001F30 */
00001F1C  707E                     moveq.l    D0, 0x7E
00001F1E  B034 7000                cmp.b      D0, [A4 + D7.w]
00001F22  670C                     beq        +0xE /* 00001F30 */
00001F24  3006                     move.w     D0, D6
00001F26  5246                     addq.w     D6, 1
00001F28  17B4 7000 0000           move.b     [A3 + D0.w], [A4 + D7.w]
00001F2E  6012                     bra        +0x14 /* 00001F42 */
label00001F30:
00001F30  700A                     moveq.l    D0, 0x0A
00001F32  B034 7000                cmp.b      D0, [A4 + D7.w]
00001F36  660A                     bne        +0xC /* 00001F42 */
00001F38  3006                     move.w     D0, D6
00001F3A  5246                     addq.w     D6, 1
00001F3C  17BC 000A 0000           move.b     [A3 + D0.w], 0xA /* '\n' */
label00001F42:
00001F42  3007                     move.w     D0, D7
00001F44  5247                     addq.w     D7, 1
label00001F46:
00001F46  B647                     cmp.w      D3, D7
00001F48  6EB2                     bgt        -0x4C /* 00001EFC */
00001F4A  48C6                     ext.l      D6
00001F4C  2006                     move.l     D0, D6
00001F4E  5380                     subq.l     D0, 1
00001F50  4233 0800                clr.b      [A3 + D0]
00001F54  2F2E FFF8                move.l     -[A7], [A6 - 0x8]
00001F58  A9A3                     syscall    ReleaseResource
00001F5A  7002                     moveq.l    D0, 0x02
00001F5C  2F00                     move.l     -[A7], D0
00001F5E  486E FED8                pea.l      [A6 - 0x128]
00001F62  4EAD 177A                jsr        [A5 + 0x177A /* export_747, CODE:32 @ 00004DBC */]
00001F66  504F                     addq.w     A7, 8
label00001F68:
00001F68  4CEE 18E8 FEA2           movem.l    D3,D5,D6,D7,A3,A4, [A6 - 0x15E]
00001F6E  4E5E                     unlink     A6
00001F70  4E75                     rts
00001F72  9772 6561 645F 6372 6... dc.b       "read_crop_bigdesc__FPcc"
export_211:
00001F8C  4E56 FFBC                link       A6, -0x0044
00001F90  48E7 1118                movem.l    -[A7], D3,D7,A3,A4
00001F94  286E 0008                movea.l    A4, [A6 + 0x8]
00001F98  200C                     move.l     D0, A4
00001F9A  6612                     bne        +0x14 /* 00001FAE */
00001F9C  4878 0334                push.l     0x334
00001FA0  4EAD 010A                jsr        [A5 + 0x10A /* export_29, CODE:1 @ 00001C0A */]
00001FA4  2840                     movea.l    A4, D0
00001FA6  200C                     move.l     D0, A4
00001FA8  584F                     addq.w     A7, 4
00001FAA  6700 0D02                beq        +0xD04 /* 00002CAE */
label00001FAE:
00001FAE  4AAE 000C                tst.l      [A6 + 0xC]
00001FB2  57C3                     seq        D3
00001FB4  4403                     neg.b      D3
00001FB6  6754                     beq        +0x56 /* 0000200C */
00001FB8  200C                     move.l     D0, A4
00001FBA  D0BC 0000 0328           add.l      D0, 0x328
00001FC0  2D40 000C                move.l     [A6 + 0xC], D0
00001FC4  7601                     moveq.l    D3, 0x01
00001FC6  200C                     move.l     D0, A4
00001FC8  D0BC 0000 0328           add.l      D0, 0x328
00001FCE  6614                     bne        +0x16 /* 00001FE4 */
00001FD0  2F03                     move.l     -[A7], D3
00001FD2  700C                     moveq.l    D0, 0x0C
00001FD4  2F00                     move.l     -[A7], D0
00001FD6  4EAD 010A                jsr        [A5 + 0x10A /* export_29, CODE:1 @ 00001C0A */]
00001FDA  588F                     addq.l     A7, 4
00001FDC  261F                     move.l     D3, [A7]+
00001FDE  4A80                     tst.l      D0
00001FE0  6602                     bne        +0x4 /* 00001FE4 */
00001FE2  7600                     moveq.l    D3, 0x00
label00001FE4:
00001FE4  4A03                     tst.b      D3
00001FE6  6718                     beq        +0x1A /* 00002000 */
00001FE8  204D                     movea.l    A0, A5
00001FEA  D1FC FFFF 3696           add.l      A0, 0xFFFF3696
00001FF0  2950 0330                move.l     [A4 + 0x330], [A0]
00001FF4  7000                     moveq.l    D0, 0x00
00001FF6  2940 0328                move.l     [A4 + 0x328], D0
00001FFA  2940 032C                move.l     [A4 + 0x32C], D0
00001FFE  6002                     bra        +0x4 /* 00002002 */
label00002000:
00002000  7000                     moveq.l    D0, 0x00
label00002002:
00002002  200C                     move.l     D0, A4
00002004  D0BC 0000 0328           add.l      D0, 0x328
0000200A  6004                     bra        +0x6 /* 00002010 */
label0000200C:
0000200C  202E 000C                move.l     D0, [A6 + 0xC]
label00002010:
00002010  2F2E 001C                move.l     -[A7], [A6 + 0x1C]
00002014  7001                     moveq.l    D0, 0x01
00002016  2F00                     move.l     -[A7], D0
00002018  322E 002A                move.w     D1, [A6 + 0x2A]
0000201C  48C1                     ext.l      D1
0000201E  2F01                     move.l     -[A7], D1
00002020  322E 002A                move.w     D1, [A6 + 0x2A]
00002024  48C1                     ext.l      D1
00002026  2F01                     move.l     -[A7], D1
00002028  322E 002E                move.w     D1, [A6 + 0x2E]
0000202C  48C1                     ext.l      D1
0000202E  2F01                     move.l     -[A7], D1
00002030  7210                     moveq.l    D1, 0x10
00002032  2F01                     move.l     -[A7], D1
00002034  2F01                     move.l     -[A7], D1
00002036  2F2E 0018                move.l     -[A7], [A6 + 0x18]
0000203A  2F2E 0014                move.l     -[A7], [A6 + 0x14]
0000203E  2F2E 0010                move.l     -[A7], [A6 + 0x10]
00002042  2F2E 000C                move.l     -[A7], [A6 + 0xC]
00002046  2F0C                     move.l     -[A7], A4
00002048  4EAD 1AB2                jsr        [A5 + 0x1AB2 /* export_850, CODE:34 @ 0000274A */]
0000204C  204D                     movea.l    A0, A5
0000204E  D1FC FFFF 369A           add.l      A0, 0xFFFF369A
00002054  2950 0060                move.l     [A4 + 0x60], [A0]
00002058  204D                     movea.l    A0, A5
0000205A  D1FC FFFF 369E           add.l      A0, 0xFFFF369E
00002060  2950 0088                move.l     [A4 + 0x88], [A0]
00002064  204D                     movea.l    A0, A5
00002066  D1FC FFFF 36A2           add.l      A0, 0xFFFF36A2
0000206C  2950 0070                move.l     [A4 + 0x70], [A0]
00002070  206C 0064                movea.l    A0, [A4 + 0x64]
00002074  224D                     movea.l    A1, A5
00002076  D3FC FFFF 36A6           add.l      A1, 0xFFFF36A6
0000207C  2151 0008                move.l     [A0 + 0x8], [A1]
00002080  296E 0020 0224           move.l     [A4 + 0x224], [A6 + 0x20]
00002086  296E 0024 0228           move.l     [A4 + 0x228], [A6 + 0x24]
0000208C  43EC 0080                lea.l      A1, [A4 + 0x80]
00002090  2049                     movea.l    A0, A1
00002092  226C 0088                movea.l    A1, [A4 + 0x88]
00002096  D0E9 00D0                add.w      A0, [A1 + 0xD0]
0000209A  2F08                     move.l     -[A7], A0
0000209C  2049                     movea.l    A0, A1
0000209E  2268 00D4                movea.l    A1, [A0 + 0xD4]
000020A2  4E91                     jsr        [A1]
000020A4  598F                     subq.l     A7, 4
000020A6  3F2E 0032                move.w     -[A7], [A6 + 0x32]
000020AA  A9BC                     syscall    GetPicture
000020AC  205F                     movea.l    A0, [A7]+
000020AE  2D48 FFFC                move.l     [A6 - 0x4], A0
000020B2  A064                     syscall    MoveHHi
000020B4  A029                     syscall    HLock
000020B6  4AAE FFFC                tst.l      [A6 - 0x4]
000020BA  4FEF 0034                lea.l      A7, [A7 + 0x34]
000020BE  661E                     bne        +0x20 /* 000020DE */
000020C0  7000                     moveq.l    D0, 0x00
000020C2  2940 0230                move.l     [A4 + 0x230], D0
000020C6  204D                     movea.l    A0, A5
000020C8  D1FC FFFF 34D6           add.l      A0, 0xFFFF34D6
000020CE  4850                     pea.l      [A0]
000020D0  2F2C 0064                move.l     -[A7], [A4 + 0x64]
000020D4  4EAD 162A                jsr        [A5 + 0x162A /* export_705, CODE:32 @ 00003696 */]
000020D8  504F                     addq.w     A7, 8
000020DA  6000 028A                bra        +0x28C /* 00002366 */
label000020DE:
000020DE  206E FFFC                movea.l    A0, [A6 - 0x4]
000020E2  2050                     movea.l    A0, [A0]
000020E4  226E FFFC                movea.l    A1, [A6 - 0x4]
000020E8  2251                     movea.l    A1, [A1]
000020EA  3028 0008                move.w     D0, [A0 + 0x8]
000020EE  9069 0004                sub.w      D0, [A1 + 0x4]
000020F2  3940 022C                move.w     [A4 + 0x22C], D0
000020F6  48C0                     ext.l      D0
000020F8  81EC 01FC                divs.w     D0, [A4 + 0x1FC]
000020FC  3940 022C                move.w     [A4 + 0x22C], D0
00002100  206E FFFC                movea.l    A0, [A6 - 0x4]
00002104  2050                     movea.l    A0, [A0]
00002106  226E FFFC                movea.l    A1, [A6 - 0x4]
0000210A  2251                     movea.l    A1, [A1]
0000210C  3028 0006                move.w     D0, [A0 + 0x6]
00002110  9069 0002                sub.w      D0, [A1 + 0x2]
00002114  3940 022E                move.w     [A4 + 0x22E], D0
00002118  48C0                     ext.l      D0
0000211A  81EC 01FE                divs.w     D0, [A4 + 0x1FE]
0000211E  3940 022E                move.w     [A4 + 0x22E], D0
00002122  4A6C 022C                tst.w      [A4 + 0x22C]
00002126  6706                     beq        +0x8 /* 0000212E */
00002128  4A6C 022E                tst.w      [A4 + 0x22E]
0000212C  661E                     bne        +0x20 /* 0000214C */
label0000212E:
0000212E  204D                     movea.l    A0, A5
00002130  D1FC FFFF 34EE           add.l      A0, 0xFFFF34EE
00002136  4850                     pea.l      [A0]
00002138  2F2C 0064                move.l     -[A7], [A4 + 0x64]
0000213C  4EAD 162A                jsr        [A5 + 0x162A /* export_705, CODE:32 @ 00003696 */]
00002140  7000                     moveq.l    D0, 0x00
00002142  2940 0230                move.l     [A4 + 0x230], D0
00002146  504F                     addq.w     A7, 8
00002148  6000 0216                bra        +0x218 /* 00002360 */
label0000214C:
0000214C  426E FFCA                clr.w      [A6 - 0x36]
00002150  302C 01FC                move.w     D0, [A4 + 0x1FC]
00002154  C1EC 022C                muls.w     D0, [A4 + 0x22C]
00002158  3D40 FFCE                move.w     [A6 - 0x32], D0
0000215C  426E FFC8                clr.w      [A6 - 0x38]
00002160  302C 01FE                move.w     D0, [A4 + 0x1FE]
00002164  C1EC 022E                muls.w     D0, [A4 + 0x22E]
00002168  3D40 FFCC                move.w     [A6 - 0x34], D0
0000216C  7000                     moveq.l    D0, 0x00
0000216E  2F00                     move.l     -[A7], D0
00002170  2F2E 001C                move.l     -[A7], [A6 + 0x1C]
00002174  2F00                     move.l     -[A7], D0
00002176  7208                     moveq.l    D1, 0x08
00002178  2F01                     move.l     -[A7], D1
0000217A  486E FFC8                pea.l      [A6 - 0x38]
0000217E  2F00                     move.l     -[A7], D0
00002180  4EAD 1722                jsr        [A5 + 0x1722 /* export_736, CODE:32 @ 00004320 */]
00002184  2940 0230                move.l     [A4 + 0x230], D0
00002188  4FEF 0018                lea.l      A7, [A7 + 0x18]
0000218C  6616                     bne        +0x18 /* 000021A4 */
0000218E  204D                     movea.l    A0, A5
00002190  D1FC FFFF 3508           add.l      A0, 0xFFFF3508
00002196  4850                     pea.l      [A0]
00002198  2F2C 0064                move.l     -[A7], [A4 + 0x64]
0000219C  4EAD 162A                jsr        [A5 + 0x162A /* export_705, CODE:32 @ 00003696 */]
000021A0  504F                     addq.w     A7, 8
000021A2  6076                     bra        +0x78 /* 0000221A */
label000021A4:
000021A4  266C 0230                movea.l    A3, [A4 + 0x230]
000021A8  486B 001C                pea.l      [A3 + 0x1C]
000021AC  486B 0020                pea.l      [A3 + 0x20]
000021B0  203C 0008 0005           move.l     D0, 0x80005
000021B6  AB1D                     syscall    QDExtensions
000021B8  2F2B 0018                move.l     -[A7], [A3 + 0x18]
000021BC  7000                     moveq.l    D0, 0x00
000021BE  2F00                     move.l     -[A7], D0
000021C0  203C 0008 0006           move.l     D0, 0x80006
000021C6  AB1D                     syscall    QDExtensions
000021C8  206E FFFC                movea.l    A0, [A6 - 0x4]
000021CC  2050                     movea.l    A0, [A0]
000021CE  226E FFFC                movea.l    A1, [A6 - 0x4]
000021D2  2251                     movea.l    A1, [A1]
000021D4  3028 0008                move.w     D0, [A0 + 0x8]
000021D8  9069 0004                sub.w      D0, [A1 + 0x4]
000021DC  3D40 FFCE                move.w     [A6 - 0x32], D0
000021E0  206E FFFC                movea.l    A0, [A6 - 0x4]
000021E4  2050                     movea.l    A0, [A0]
000021E6  226E FFFC                movea.l    A1, [A6 - 0x4]
000021EA  2251                     movea.l    A1, [A1]
000021EC  3028 0006                move.w     D0, [A0 + 0x6]
000021F0  9069 0002                sub.w      D0, [A1 + 0x2]
000021F4  3D40 FFCC                move.w     [A6 - 0x34], D0
000021F8  2F2E FFFC                move.l     -[A7], [A6 - 0x4]
000021FC  486E FFC8                pea.l      [A6 - 0x38]
00002200  A8F6                     syscall    DrawPicture
00002202  206C 0230                movea.l    A0, [A4 + 0x230]
00002206  2D48 FFC4                move.l     [A6 - 0x3C], A0
0000220A  2F28 001C                move.l     -[A7], [A0 + 0x1C]
0000220E  2F28 0020                move.l     -[A7], [A0 + 0x20]
00002212  203C 0008 0006           move.l     D0, 0x80006
00002218  AB1D                     syscall    QDExtensions
label0000221A:
0000221A  426E FFCA                clr.w      [A6 - 0x36]
0000221E  302C 01FC                move.w     D0, [A4 + 0x1FC]
00002222  C1EC 022C                muls.w     D0, [A4 + 0x22C]
00002226  3D40 FFCE                move.w     [A6 - 0x32], D0
0000222A  426E FFC8                clr.w      [A6 - 0x38]
0000222E  302C 01FE                move.w     D0, [A4 + 0x1FE]
00002232  C1EC 022E                muls.w     D0, [A4 + 0x22E]
00002236  3D40 FFCC                move.w     [A6 - 0x34], D0
0000223A  C1EE FFCE                muls.w     D0, [A6 - 0x32]
0000223E  2D40 FFD0                move.l     [A6 - 0x30], D0
00002242  7000                     moveq.l    D0, 0x00
00002244  2F00                     move.l     -[A7], D0
00002246  2F2E 001C                move.l     -[A7], [A6 + 0x1C]
0000224A  2F00                     move.l     -[A7], D0
0000224C  7208                     moveq.l    D1, 0x08
0000224E  2F01                     move.l     -[A7], D1
00002250  486E FFC8                pea.l      [A6 - 0x38]
00002254  2F00                     move.l     -[A7], D0
00002256  4EAD 1722                jsr        [A5 + 0x1722 /* export_736, CODE:32 @ 00004320 */]
0000225A  2940 0234                move.l     [A4 + 0x234], D0
0000225E  4FEF 0018                lea.l      A7, [A7 + 0x18]
00002262  6618                     bne        +0x1A /* 0000227C */
00002264  204D                     movea.l    A0, A5
00002266  D1FC FFFF 3534           add.l      A0, 0xFFFF3534
0000226C  4850                     pea.l      [A0]
0000226E  2F2C 0064                move.l     -[A7], [A4 + 0x64]
00002272  4EAD 162A                jsr        [A5 + 0x162A /* export_705, CODE:32 @ 00003696 */]
00002276  504F                     addq.w     A7, 8
00002278  6000 00E6                bra        +0xE8 /* 00002360 */
label0000227C:
0000227C  598F                     subq.l     A7, 4
0000227E  302E 0032                move.w     D0, [A6 + 0x32]
00002282  5240                     addq.w     D0, 1
00002284  3F00                     move.w     -[A7], D0
00002286  A9BC                     syscall    GetPicture
00002288  205F                     movea.l    A0, [A7]+
0000228A  2D48 FFC4                move.l     [A6 - 0x3C], A0
0000228E  A064                     syscall    MoveHHi
00002290  A029                     syscall    HLock
00002292  4AAE FFC4                tst.l      [A6 - 0x3C]
00002296  6618                     bne        +0x1A /* 000022B0 */
00002298  204D                     movea.l    A0, A5
0000229A  D1FC FFFF 3564           add.l      A0, 0xFFFF3564
000022A0  4850                     pea.l      [A0]
000022A2  2F2C 0064                move.l     -[A7], [A4 + 0x64]
000022A6  4EAD 162A                jsr        [A5 + 0x162A /* export_705, CODE:32 @ 00003696 */]
000022AA  504F                     addq.w     A7, 8
000022AC  6000 00B2                bra        +0xB4 /* 00002360 */
label000022B0:
000022B0  266C 0234                movea.l    A3, [A4 + 0x234]
000022B4  486B 001C                pea.l      [A3 + 0x1C]
000022B8  486B 0020                pea.l      [A3 + 0x20]
000022BC  203C 0008 0005           move.l     D0, 0x80005
000022C2  AB1D                     syscall    QDExtensions
000022C4  2F2B 0018                move.l     -[A7], [A3 + 0x18]
000022C8  7000                     moveq.l    D0, 0x00
000022CA  2F00                     move.l     -[A7], D0
000022CC  203C 0008 0006           move.l     D0, 0x80006
000022D2  AB1D                     syscall    QDExtensions
000022D4  206E FFC4                movea.l    A0, [A6 - 0x3C]
000022D8  2050                     movea.l    A0, [A0]
000022DA  226E FFC4                movea.l    A1, [A6 - 0x3C]
000022DE  2251                     movea.l    A1, [A1]
000022E0  3028 0008                move.w     D0, [A0 + 0x8]
000022E4  9069 0004                sub.w      D0, [A1 + 0x4]
000022E8  3D40 FFCE                move.w     [A6 - 0x32], D0
000022EC  206E FFC4                movea.l    A0, [A6 - 0x3C]
000022F0  2050                     movea.l    A0, [A0]
000022F2  226E FFC4                movea.l    A1, [A6 - 0x3C]
000022F6  2251                     movea.l    A1, [A1]
000022F8  3028 0006                move.w     D0, [A0 + 0x6]
000022FC  9069 0002                sub.w      D0, [A1 + 0x2]
00002300  3D40 FFCC                move.w     [A6 - 0x34], D0
00002304  2F2E FFFC                move.l     -[A7], [A6 - 0x4]
00002308  486E FFC8                pea.l      [A6 - 0x38]
0000230C  A8F6                     syscall    DrawPicture
0000230E  206C 0234                movea.l    A0, [A4 + 0x234]
00002312  2D48 FFBC                move.l     [A6 - 0x44], A0
00002316  2F28 001C                move.l     -[A7], [A0 + 0x1C]
0000231A  2F28 0020                move.l     -[A7], [A0 + 0x20]
0000231E  203C 0008 0006           move.l     D0, 0x80006
00002324  AB1D                     syscall    QDExtensions
00002326  2D6C 0234 FFC0           move.l     [A6 - 0x40], [A4 + 0x234]
0000232C  598F                     subq.l     A7, 4
0000232E  206E FFC0                movea.l    A0, [A6 - 0x40]
00002332  2068 0018                movea.l    A0, [A0 + 0x18]
00002336  2F28 0002                move.l     -[A7], [A0 + 0x2]
0000233A  203C 0004 000F           move.l     D0, 0x4000F
00002340  AB1D                     syscall    QDExtensions
00002342  265F                     movea.l    A3, [A7]+
00002344  600E                     bra        +0x10 /* 00002354 */
label00002346:
00002346  4A13                     tst.b      [A3]
00002348  6704                     beq        +0x6 /* 0000234E */
0000234A  16BC FFFF                move.b     [A3], 0xFF
label0000234E:
0000234E  524B                     addq.w     A3, 1
00002350  53AE FFD0                subq.l     [A6 - 0x30], 1
label00002354:
00002354  4AAE FFD0                tst.l      [A6 - 0x30]
00002358  6EEC                     bgt        -0x12 /* 00002346 */
0000235A  2F2E FFC4                move.l     -[A7], [A6 - 0x3C]
0000235E  A9A3                     syscall    ReleaseResource
label00002360:
00002360  2F2E FFFC                move.l     -[A7], [A6 - 0x4]
00002364  A9A3                     syscall    ReleaseResource
label00002366:
00002366  4247                     clr.w      D7
label00002368:
00002368  426E FFE2                clr.w      [A6 - 0x1E]
0000236C  3D7C 0030 FFE6           move.w     [A6 - 0x1A], 0x30 /* '0' */
00002372  426E FFE0                clr.w      [A6 - 0x20]
00002376  3D7C 0030 FFE4           move.w     [A6 - 0x1C], 0x30 /* '0' */
0000237C  7000                     moveq.l    D0, 0x00
0000237E  2F00                     move.l     -[A7], D0
00002380  2F2E 001C                move.l     -[A7], [A6 + 0x1C]
00002384  2F00                     move.l     -[A7], D0
00002386  7204                     moveq.l    D1, 0x04
00002388  2F01                     move.l     -[A7], D1
0000238A  486E FFE0                pea.l      [A6 - 0x20]
0000238E  2F00                     move.l     -[A7], D0
00002390  4EAD 1722                jsr        [A5 + 0x1722 /* export_736, CODE:32 @ 00004320 */]
00002394  48C7                     ext.l      D7
00002396  41EC 0238                lea.l      A0, [A4 + 0x238]
0000239A  2180 7C00                move.l     [A0 + D7 * 4], D0
0000239E  7000                     moveq.l    D0, 0x00
000023A0  2F00                     move.l     -[A7], D0
000023A2  2F2E 001C                move.l     -[A7], [A6 + 0x1C]
000023A6  2F00                     move.l     -[A7], D0
000023A8  7201                     moveq.l    D1, 0x01
000023AA  2F01                     move.l     -[A7], D1
000023AC  486E FFE0                pea.l      [A6 - 0x20]
000023B0  2F00                     move.l     -[A7], D0
000023B2  4EAD 1722                jsr        [A5 + 0x1722 /* export_736, CODE:32 @ 00004320 */]
000023B6  48C7                     ext.l      D7
000023B8  41EC 0248                lea.l      A0, [A4 + 0x248]
000023BC  2180 7C00                move.l     [A0 + D7 * 4], D0
000023C0  48C7                     ext.l      D7
000023C2  41EC 0238                lea.l      A0, [A4 + 0x238]
000023C6  4AB0 7C00                tst.l      [A0 + D7 * 4]
000023CA  4FEF 0030                lea.l      A7, [A7 + 0x30]
000023CE  670C                     beq        +0xE /* 000023DC */
000023D0  48C7                     ext.l      D7
000023D2  41EC 0248                lea.l      A0, [A4 + 0x248]
000023D6  4AB0 7C00                tst.l      [A0 + D7 * 4]
000023DA  6614                     bne        +0x16 /* 000023F0 */
label000023DC:
000023DC  204D                     movea.l    A0, A5
000023DE  D1FC FFFF 357E           add.l      A0, 0xFFFF357E
000023E4  4850                     pea.l      [A0]
000023E6  2F2C 0064                move.l     -[A7], [A4 + 0x64]
000023EA  4EAD 162A                jsr        [A5 + 0x162A /* export_705, CODE:32 @ 00003696 */]
000023EE  504F                     addq.w     A7, 8
label000023F0:
000023F0  598F                     subq.l     A7, 4
000023F2  3007                     move.w     D0, D7
000023F4  48C0                     ext.l      D0
000023F6  D080                     add.l      D0, D0
000023F8  D07C 0450                add.w      D0, 0x450
000023FC  3F00                     move.w     -[A7], D0
000023FE  A9BC                     syscall    GetPicture
00002400  205F                     movea.l    A0, [A7]+
00002402  2D48 FFE8                move.l     [A6 - 0x18], A0
00002406  A064                     syscall    MoveHHi
00002408  A029                     syscall    HLock
0000240A  598F                     subq.l     A7, 4
0000240C  3007                     move.w     D0, D7
0000240E  48C0                     ext.l      D0
00002410  D080                     add.l      D0, D0
00002412  D07C 0451                add.w      D0, 0x451
00002416  3F00                     move.w     -[A7], D0
00002418  A9BC                     syscall    GetPicture
0000241A  205F                     movea.l    A0, [A7]+
0000241C  2D48 FFEC                move.l     [A6 - 0x14], A0
00002420  A064                     syscall    MoveHHi
00002422  A029                     syscall    HLock
00002424  4AAE FFE8                tst.l      [A6 - 0x18]
00002428  6706                     beq        +0x8 /* 00002430 */
0000242A  4AAE FFEC                tst.l      [A6 - 0x14]
0000242E  6614                     bne        +0x16 /* 00002444 */
label00002430:
00002430  204D                     movea.l    A0, A5
00002432  D1FC FFFF 35AA           add.l      A0, 0xFFFF35AA
00002438  4850                     pea.l      [A0]
0000243A  2F2C 0064                move.l     -[A7], [A4 + 0x64]
0000243E  4EAD 162A                jsr        [A5 + 0x162A /* export_705, CODE:32 @ 00003696 */]
00002442  504F                     addq.w     A7, 8
label00002444:
00002444  48C7                     ext.l      D7
00002446  41EC 0238                lea.l      A0, [A4 + 0x238]
0000244A  2D70 7C00 FFF0           move.l     [A6 - 0x10], [A0 + D7 * 4]
00002450  206E FFF0                movea.l    A0, [A6 - 0x10]
00002454  4868 001C                pea.l      [A0 + 0x1C]
00002458  4868 0020                pea.l      [A0 + 0x20]
0000245C  203C 0008 0005           move.l     D0, 0x80005
00002462  AB1D                     syscall    QDExtensions
00002464  206E FFF0                movea.l    A0, [A6 - 0x10]
00002468  2F28 0018                move.l     -[A7], [A0 + 0x18]
0000246C  7000                     moveq.l    D0, 0x00
0000246E  2F00                     move.l     -[A7], D0
00002470  203C 0008 0006           move.l     D0, 0x80006
00002476  AB1D                     syscall    QDExtensions
00002478  206E FFE8                movea.l    A0, [A6 - 0x18]
0000247C  2050                     movea.l    A0, [A0]
0000247E  226E FFE8                movea.l    A1, [A6 - 0x18]
00002482  2251                     movea.l    A1, [A1]
00002484  3028 0008                move.w     D0, [A0 + 0x8]
00002488  9069 0004                sub.w      D0, [A1 + 0x4]
0000248C  3D40 FFE6                move.w     [A6 - 0x1A], D0
00002490  206E FFE8                movea.l    A0, [A6 - 0x18]
00002494  2050                     movea.l    A0, [A0]
00002496  226E FFE8                movea.l    A1, [A6 - 0x18]
0000249A  2251                     movea.l    A1, [A1]
0000249C  3028 0006                move.w     D0, [A0 + 0x6]
000024A0  9069 0002                sub.w      D0, [A1 + 0x2]
000024A4  3D40 FFE4                move.w     [A6 - 0x1C], D0
000024A8  486E FFE0                pea.l      [A6 - 0x20]
000024AC  A8A3                     syscall    EraseRect
000024AE  2F2E FFE8                move.l     -[A7], [A6 - 0x18]
000024B2  486E FFE0                pea.l      [A6 - 0x20]
000024B6  A8F6                     syscall    DrawPicture
000024B8  48C7                     ext.l      D7
000024BA  41EC 0238                lea.l      A0, [A4 + 0x238]
000024BE  2D70 7C00 FFF4           move.l     [A6 - 0xC], [A0 + D7 * 4]
000024C4  206E FFF4                movea.l    A0, [A6 - 0xC]
000024C8  2F28 001C                move.l     -[A7], [A0 + 0x1C]
000024CC  2F28 0020                move.l     -[A7], [A0 + 0x20]
000024D0  203C 0008 0006           move.l     D0, 0x80006
000024D6  AB1D                     syscall    QDExtensions
000024D8  2F2E FFE8                move.l     -[A7], [A6 - 0x18]
000024DC  A9A3                     syscall    ReleaseResource
000024DE  48C7                     ext.l      D7
000024E0  41EC 0248                lea.l      A0, [A4 + 0x248]
000024E4  2670 7C00                movea.l    A3, [A0 + D7 * 4]
000024E8  486B 001C                pea.l      [A3 + 0x1C]
000024EC  486B 0020                pea.l      [A3 + 0x20]
000024F0  203C 0008 0005           move.l     D0, 0x80005
000024F6  AB1D                     syscall    QDExtensions
000024F8  2F2B 0018                move.l     -[A7], [A3 + 0x18]
000024FC  7000                     moveq.l    D0, 0x00
000024FE  2F00                     move.l     -[A7], D0
00002500  203C 0008 0006           move.l     D0, 0x80006
00002506  AB1D                     syscall    QDExtensions
00002508  206E FFEC                movea.l    A0, [A6 - 0x14]
0000250C  2050                     movea.l    A0, [A0]
0000250E  226E FFEC                movea.l    A1, [A6 - 0x14]
00002512  2251                     movea.l    A1, [A1]
00002514  3028 0008                move.w     D0, [A0 + 0x8]
00002518  9069 0004                sub.w      D0, [A1 + 0x4]
0000251C  3D40 FFE6                move.w     [A6 - 0x1A], D0
00002520  206E FFEC                movea.l    A0, [A6 - 0x14]
00002524  2050                     movea.l    A0, [A0]
00002526  226E FFEC                movea.l    A1, [A6 - 0x14]
0000252A  2251                     movea.l    A1, [A1]
0000252C  3028 0006                move.w     D0, [A0 + 0x6]
00002530  9069 0002                sub.w      D0, [A1 + 0x2]
00002534  3D40 FFE4                move.w     [A6 - 0x1C], D0
00002538  486E FFE0                pea.l      [A6 - 0x20]
0000253C  A8A3                     syscall    EraseRect
0000253E  2F2E FFEC                move.l     -[A7], [A6 - 0x14]
00002542  486E FFE0                pea.l      [A6 - 0x20]
00002546  A8F6                     syscall    DrawPicture
00002548  48C7                     ext.l      D7
0000254A  41EC 0248                lea.l      A0, [A4 + 0x248]
0000254E  2D70 7C00 FFF8           move.l     [A6 - 0x8], [A0 + D7 * 4]
00002554  206E FFF8                movea.l    A0, [A6 - 0x8]
00002558  2F28 001C                move.l     -[A7], [A0 + 0x1C]
0000255C  2F28 0020                move.l     -[A7], [A0 + 0x20]
00002560  203C 0008 0006           move.l     D0, 0x80006
00002566  AB1D                     syscall    QDExtensions
00002568  2F2E FFEC                move.l     -[A7], [A6 - 0x14]
0000256C  A9A3                     syscall    ReleaseResource
0000256E  3007                     move.w     D0, D7
00002570  5247                     addq.w     D7, 1
00002572  0C47 0004                cmpi.w     D7, 0x4
00002576  6D00 FDF0                blt        -0x20E /* 00002368 */
0000257A  4247                     clr.w      D7
label0000257C:
0000257C  426E FFE2                clr.w      [A6 - 0x1E]
00002580  3D7C 0038 FFE6           move.w     [A6 - 0x1A], 0x38 /* '8' */
00002586  426E FFE0                clr.w      [A6 - 0x20]
0000258A  3D7C 0028 FFE4           move.w     [A6 - 0x1C], 0x28 /* '(' */
00002590  7000                     moveq.l    D0, 0x00
00002592  2F00                     move.l     -[A7], D0
00002594  2F2E 001C                move.l     -[A7], [A6 + 0x1C]
00002598  2F00                     move.l     -[A7], D0
0000259A  7204                     moveq.l    D1, 0x04
0000259C  2F01                     move.l     -[A7], D1
0000259E  486E FFE0                pea.l      [A6 - 0x20]
000025A2  2F00                     move.l     -[A7], D0
000025A4  4EAD 1722                jsr        [A5 + 0x1722 /* export_736, CODE:32 @ 00004320 */]
000025A8  48C7                     ext.l      D7
000025AA  41EC 0258                lea.l      A0, [A4 + 0x258]
000025AE  2180 7C00                move.l     [A0 + D7 * 4], D0
000025B2  7000                     moveq.l    D0, 0x00
000025B4  2F00                     move.l     -[A7], D0
000025B6  2F2E 001C                move.l     -[A7], [A6 + 0x1C]
000025BA  2F00                     move.l     -[A7], D0
000025BC  7201                     moveq.l    D1, 0x01
000025BE  2F01                     move.l     -[A7], D1
000025C0  486E FFE0                pea.l      [A6 - 0x20]
000025C4  2F00                     move.l     -[A7], D0
000025C6  4EAD 1722                jsr        [A5 + 0x1722 /* export_736, CODE:32 @ 00004320 */]
000025CA  48C7                     ext.l      D7
000025CC  41EC 0270                lea.l      A0, [A4 + 0x270]
000025D0  2180 7C00                move.l     [A0 + D7 * 4], D0
000025D4  48C7                     ext.l      D7
000025D6  41EC 0258                lea.l      A0, [A4 + 0x258]
000025DA  4AB0 7C00                tst.l      [A0 + D7 * 4]
000025DE  4FEF 0030                lea.l      A7, [A7 + 0x30]
000025E2  670C                     beq        +0xE /* 000025F0 */
000025E4  48C7                     ext.l      D7
000025E6  41EC 0270                lea.l      A0, [A4 + 0x270]
000025EA  4AB0 7C00                tst.l      [A0 + D7 * 4]
000025EE  6614                     bne        +0x16 /* 00002604 */
label000025F0:
000025F0  204D                     movea.l    A0, A5
000025F2  D1FC FFFF 35C4           add.l      A0, 0xFFFF35C4
000025F8  4850                     pea.l      [A0]
000025FA  2F2C 0064                move.l     -[A7], [A4 + 0x64]
000025FE  4EAD 162A                jsr        [A5 + 0x162A /* export_705, CODE:32 @ 00003696 */]
00002602  504F                     addq.w     A7, 8
label00002604:
00002604  598F                     subq.l     A7, 4
00002606  3007                     move.w     D0, D7
00002608  48C0                     ext.l      D0
0000260A  D080                     add.l      D0, D0
0000260C  D07C 0458                add.w      D0, 0x458
00002610  3F00                     move.w     -[A7], D0
00002612  A9BC                     syscall    GetPicture
00002614  205F                     movea.l    A0, [A7]+
00002616  2D48 FFE8                move.l     [A6 - 0x18], A0
0000261A  A064                     syscall    MoveHHi
0000261C  A029                     syscall    HLock
0000261E  598F                     subq.l     A7, 4
00002620  3007                     move.w     D0, D7
00002622  48C0                     ext.l      D0
00002624  D080                     add.l      D0, D0
00002626  D07C 0459                add.w      D0, 0x459
0000262A  3F00                     move.w     -[A7], D0
0000262C  A9BC                     syscall    GetPicture
0000262E  205F                     movea.l    A0, [A7]+
00002630  2D48 FFEC                move.l     [A6 - 0x14], A0
00002634  A064                     syscall    MoveHHi
00002636  A029                     syscall    HLock
00002638  4AAE FFE8                tst.l      [A6 - 0x18]
0000263C  6706                     beq        +0x8 /* 00002644 */
0000263E  4AAE FFEC                tst.l      [A6 - 0x14]
00002642  6614                     bne        +0x16 /* 00002658 */
label00002644:
00002644  204D                     movea.l    A0, A5
00002646  D1FC FFFF 35F0           add.l      A0, 0xFFFF35F0
0000264C  4850                     pea.l      [A0]
0000264E  2F2C 0064                move.l     -[A7], [A4 + 0x64]
00002652  4EAD 162A                jsr        [A5 + 0x162A /* export_705, CODE:32 @ 00003696 */]
00002656  504F                     addq.w     A7, 8
label00002658:
00002658  48C7                     ext.l      D7
0000265A  41EC 0258                lea.l      A0, [A4 + 0x258]
0000265E  2D70 7C00 FFF0           move.l     [A6 - 0x10], [A0 + D7 * 4]
00002664  206E FFF0                movea.l    A0, [A6 - 0x10]
00002668  4868 001C                pea.l      [A0 + 0x1C]
0000266C  4868 0020                pea.l      [A0 + 0x20]
00002670  203C 0008 0005           move.l     D0, 0x80005
00002676  AB1D                     syscall    QDExtensions
00002678  206E FFF0                movea.l    A0, [A6 - 0x10]
0000267C  2F28 0018                move.l     -[A7], [A0 + 0x18]
00002680  7000                     moveq.l    D0, 0x00
00002682  2F00                     move.l     -[A7], D0
00002684  203C 0008 0006           move.l     D0, 0x80006
0000268A  AB1D                     syscall    QDExtensions
0000268C  206E FFE8                movea.l    A0, [A6 - 0x18]
00002690  2050                     movea.l    A0, [A0]
00002692  226E FFE8                movea.l    A1, [A6 - 0x18]
00002696  2251                     movea.l    A1, [A1]
00002698  3028 0008                move.w     D0, [A0 + 0x8]
0000269C  9069 0004                sub.w      D0, [A1 + 0x4]
000026A0  3D40 FFE6                move.w     [A6 - 0x1A], D0
000026A4  206E FFE8                movea.l    A0, [A6 - 0x18]
000026A8  2050                     movea.l    A0, [A0]
000026AA  226E FFE8                movea.l    A1, [A6 - 0x18]
000026AE  2251                     movea.l    A1, [A1]
000026B0  3028 0006                move.w     D0, [A0 + 0x6]
000026B4  9069 0002                sub.w      D0, [A1 + 0x2]
000026B8  3D40 FFE4                move.w     [A6 - 0x1C], D0
000026BC  486E FFE0                pea.l      [A6 - 0x20]
000026C0  A8A3                     syscall    EraseRect
000026C2  2F2E FFE8                move.l     -[A7], [A6 - 0x18]
000026C6  486E FFE0                pea.l      [A6 - 0x20]
000026CA  A8F6                     syscall    DrawPicture
000026CC  48C7                     ext.l      D7
000026CE  41EC 0258                lea.l      A0, [A4 + 0x258]
000026D2  2D70 7C00 FFF4           move.l     [A6 - 0xC], [A0 + D7 * 4]
000026D8  206E FFF4                movea.l    A0, [A6 - 0xC]
000026DC  2F28 001C                move.l     -[A7], [A0 + 0x1C]
000026E0  2F28 0020                move.l     -[A7], [A0 + 0x20]
000026E4  203C 0008 0006           move.l     D0, 0x80006
000026EA  AB1D                     syscall    QDExtensions
000026EC  2F2E FFE8                move.l     -[A7], [A6 - 0x18]
000026F0  A9A3                     syscall    ReleaseResource
000026F2  48C7                     ext.l      D7
000026F4  41EC 0270                lea.l      A0, [A4 + 0x270]
000026F8  2670 7C00                movea.l    A3, [A0 + D7 * 4]
000026FC  486B 001C                pea.l      [A3 + 0x1C]
00002700  486B 0020                pea.l      [A3 + 0x20]
00002704  203C 0008 0005           move.l     D0, 0x80005
0000270A  AB1D                     syscall    QDExtensions
0000270C  2F2B 0018                move.l     -[A7], [A3 + 0x18]
00002710  7000                     moveq.l    D0, 0x00
00002712  2F00                     move.l     -[A7], D0
00002714  203C 0008 0006           move.l     D0, 0x80006
0000271A  AB1D                     syscall    QDExtensions
0000271C  206E FFEC                movea.l    A0, [A6 - 0x14]
00002720  2050                     movea.l    A0, [A0]
00002722  226E FFEC                movea.l    A1, [A6 - 0x14]
00002726  2251                     movea.l    A1, [A1]
00002728  3028 0008                move.w     D0, [A0 + 0x8]
0000272C  9069 0004                sub.w      D0, [A1 + 0x4]
00002730  3D40 FFE6                move.w     [A6 - 0x1A], D0
00002734  206E FFEC                movea.l    A0, [A6 - 0x14]
00002738  2050                     movea.l    A0, [A0]
0000273A  226E FFEC                movea.l    A1, [A6 - 0x14]
0000273E  2251                     movea.l    A1, [A1]
00002740  3028 0006                move.w     D0, [A0 + 0x6]
00002744  9069 0002                sub.w      D0, [A1 + 0x2]
00002748  3D40 FFE4                move.w     [A6 - 0x1C], D0
0000274C  486E FFE0                pea.l      [A6 - 0x20]
00002750  A8A3                     syscall    EraseRect
00002752  2F2E FFEC                move.l     -[A7], [A6 - 0x14]
00002756  486E FFE0                pea.l      [A6 - 0x20]
0000275A  A8F6                     syscall    DrawPicture
0000275C  48C7                     ext.l      D7
0000275E  41EC 0270                lea.l      A0, [A4 + 0x270]
00002762  2D70 7C00 FFF8           move.l     [A6 - 0x8], [A0 + D7 * 4]
00002768  206E FFF8                movea.l    A0, [A6 - 0x8]
0000276C  2F28 001C                move.l     -[A7], [A0 + 0x1C]
00002770  2F28 0020                move.l     -[A7], [A0 + 0x20]
00002774  203C 0008 0006           move.l     D0, 0x80006
0000277A  AB1D                     syscall    QDExtensions
0000277C  2F2E FFEC                move.l     -[A7], [A6 - 0x14]
00002780  A9A3                     syscall    ReleaseResource
00002782  3007                     move.w     D0, D7
00002784  5247                     addq.w     D7, 1
00002786  0C47 0006                cmpi.w     D7, 0x6
0000278A  6D00 FDF0                blt        -0x20E /* 0000257C */
0000278E  4247                     clr.w      D7
label00002790:
00002790  426E FFD6                clr.w      [A6 - 0x2A]
00002794  3D7C 0020 FFDA           move.w     [A6 - 0x26], 0x20 /* ' ' */
0000279A  426E FFD4                clr.w      [A6 - 0x2C]
0000279E  3D7C 0020 FFD8           move.w     [A6 - 0x28], 0x20 /* ' ' */
000027A4  7000                     moveq.l    D0, 0x00
000027A6  2F00                     move.l     -[A7], D0
000027A8  2F2E 001C                move.l     -[A7], [A6 + 0x1C]
000027AC  2F00                     move.l     -[A7], D0
000027AE  7204                     moveq.l    D1, 0x04
000027B0  2F01                     move.l     -[A7], D1
000027B2  486E FFD4                pea.l      [A6 - 0x2C]
000027B6  2F00                     move.l     -[A7], D0
000027B8  4EAD 1722                jsr        [A5 + 0x1722 /* export_736, CODE:32 @ 00004320 */]
000027BC  48C7                     ext.l      D7
000027BE  41EC 0288                lea.l      A0, [A4 + 0x288]
000027C2  2180 7C00                move.l     [A0 + D7 * 4], D0
000027C6  7000                     moveq.l    D0, 0x00
000027C8  2F00                     move.l     -[A7], D0
000027CA  2F2E 001C                move.l     -[A7], [A6 + 0x1C]
000027CE  2F00                     move.l     -[A7], D0
000027D0  7204                     moveq.l    D1, 0x04
000027D2  2F01                     move.l     -[A7], D1
000027D4  486E FFD4                pea.l      [A6 - 0x2C]
000027D8  2F00                     move.l     -[A7], D0
000027DA  4EAD 1722                jsr        [A5 + 0x1722 /* export_736, CODE:32 @ 00004320 */]
000027DE  48C7                     ext.l      D7
000027E0  41EC 02C8                lea.l      A0, [A4 + 0x2C8]
000027E4  2180 7C00                move.l     [A0 + D7 * 4], D0
000027E8  7000                     moveq.l    D0, 0x00
000027EA  2F00                     move.l     -[A7], D0
000027EC  2F2E 001C                move.l     -[A7], [A6 + 0x1C]
000027F0  2F00                     move.l     -[A7], D0
000027F2  7201                     moveq.l    D1, 0x01
000027F4  2F01                     move.l     -[A7], D1
000027F6  486E FFD4                pea.l      [A6 - 0x2C]
000027FA  2F00                     move.l     -[A7], D0
000027FC  4EAD 1722                jsr        [A5 + 0x1722 /* export_736, CODE:32 @ 00004320 */]
00002800  48C7                     ext.l      D7
00002802  41EC 02A8                lea.l      A0, [A4 + 0x2A8]
00002806  2180 7C00                move.l     [A0 + D7 * 4], D0
0000280A  48C7                     ext.l      D7
0000280C  41EC 0288                lea.l      A0, [A4 + 0x288]
00002810  4AB0 7C00                tst.l      [A0 + D7 * 4]
00002814  4FEF 0048                lea.l      A7, [A7 + 0x48]
00002818  6718                     beq        +0x1A /* 00002832 */
0000281A  48C7                     ext.l      D7
0000281C  41EC 02A8                lea.l      A0, [A4 + 0x2A8]
00002820  4AB0 7C00                tst.l      [A0 + D7 * 4]
00002824  670C                     beq        +0xE /* 00002832 */
00002826  48C7                     ext.l      D7
00002828  41EC 02C8                lea.l      A0, [A4 + 0x2C8]
0000282C  4AB0 7C00                tst.l      [A0 + D7 * 4]
00002830  6614                     bne        +0x16 /* 00002846 */
label00002832:
00002832  204D                     movea.l    A0, A5
00002834  D1FC FFFF 360A           add.l      A0, 0xFFFF360A
0000283A  4850                     pea.l      [A0]
0000283C  2F2C 0064                move.l     -[A7], [A4 + 0x64]
00002840  4EAD 162A                jsr        [A5 + 0x162A /* export_705, CODE:32 @ 00003696 */]
00002844  504F                     addq.w     A7, 8
label00002846:
00002846  598F                     subq.l     A7, 4
00002848  3007                     move.w     D0, D7
0000284A  48C0                     ext.l      D0
0000284C  D080                     add.l      D0, D0
0000284E  D07C 047E                add.w      D0, 0x47E
00002852  3F00                     move.w     -[A7], D0
00002854  A9BC                     syscall    GetPicture
00002856  205F                     movea.l    A0, [A7]+
00002858  2D48 FFDC                move.l     [A6 - 0x24], A0
0000285C  A064                     syscall    MoveHHi
0000285E  A029                     syscall    HLock
00002860  598F                     subq.l     A7, 4
00002862  3007                     move.w     D0, D7
00002864  48C0                     ext.l      D0
00002866  D080                     add.l      D0, D0
00002868  D07C 047F                add.w      D0, 0x47F
0000286C  3F00                     move.w     -[A7], D0
0000286E  A9BC                     syscall    GetPicture
00002870  205F                     movea.l    A0, [A7]+
00002872  2D48 FFE0                move.l     [A6 - 0x20], A0
00002876  A064                     syscall    MoveHHi
00002878  A029                     syscall    HLock
0000287A  598F                     subq.l     A7, 4
0000287C  3007                     move.w     D0, D7
0000287E  D07C 049C                add.w      D0, 0x49C
00002882  3F00                     move.w     -[A7], D0
00002884  A9BC                     syscall    GetPicture
00002886  205F                     movea.l    A0, [A7]+
00002888  2D48 FFE4                move.l     [A6 - 0x1C], A0
0000288C  A064                     syscall    MoveHHi
0000288E  A029                     syscall    HLock
00002890  4AAE FFDC                tst.l      [A6 - 0x24]
00002894  670C                     beq        +0xE /* 000028A2 */
00002896  4AAE FFE0                tst.l      [A6 - 0x20]
0000289A  6706                     beq        +0x8 /* 000028A2 */
0000289C  4AAE FFE4                tst.l      [A6 - 0x1C]
000028A0  6614                     bne        +0x16 /* 000028B6 */
label000028A2:
000028A2  204D                     movea.l    A0, A5
000028A4  D1FC FFFF 3638           add.l      A0, 0xFFFF3638
000028AA  4850                     pea.l      [A0]
000028AC  2F2C 0064                move.l     -[A7], [A4 + 0x64]
000028B0  4EAD 162A                jsr        [A5 + 0x162A /* export_705, CODE:32 @ 00003696 */]
000028B4  504F                     addq.w     A7, 8
label000028B6:
000028B6  48C7                     ext.l      D7
000028B8  41EC 0288                lea.l      A0, [A4 + 0x288]
000028BC  2D70 7C00 FFE8           move.l     [A6 - 0x18], [A0 + D7 * 4]
000028C2  206E FFE8                movea.l    A0, [A6 - 0x18]
000028C6  4868 001C                pea.l      [A0 + 0x1C]
000028CA  4868 0020                pea.l      [A0 + 0x20]
000028CE  203C 0008 0005           move.l     D0, 0x80005
000028D4  AB1D                     syscall    QDExtensions
000028D6  206E FFE8                movea.l    A0, [A6 - 0x18]
000028DA  2F28 0018                move.l     -[A7], [A0 + 0x18]
000028DE  7000                     moveq.l    D0, 0x00
000028E0  2F00                     move.l     -[A7], D0
000028E2  203C 0008 0006           move.l     D0, 0x80006
000028E8  AB1D                     syscall    QDExtensions
000028EA  42AE FFD4                clr.l      [A6 - 0x2C]
000028EE  206E FFDC                movea.l    A0, [A6 - 0x24]
000028F2  2050                     movea.l    A0, [A0]
000028F4  226E FFDC                movea.l    A1, [A6 - 0x24]
000028F8  2251                     movea.l    A1, [A1]
000028FA  3028 0008                move.w     D0, [A0 + 0x8]
000028FE  9069 0004                sub.w      D0, [A1 + 0x4]
00002902  3D40 FFDA                move.w     [A6 - 0x26], D0
00002906  206E FFDC                movea.l    A0, [A6 - 0x24]
0000290A  2050                     movea.l    A0, [A0]
0000290C  226E FFDC                movea.l    A1, [A6 - 0x24]
00002910  2251                     movea.l    A1, [A1]
00002912  3028 0006                move.w     D0, [A0 + 0x6]
00002916  9069 0002                sub.w      D0, [A1 + 0x2]
0000291A  3D40 FFD8                move.w     [A6 - 0x28], D0
0000291E  486E FFD4                pea.l      [A6 - 0x2C]
00002922  A8A3                     syscall    EraseRect
00002924  2F2E FFDC                move.l     -[A7], [A6 - 0x24]
00002928  486E FFD4                pea.l      [A6 - 0x2C]
0000292C  A8F6                     syscall    DrawPicture
0000292E  48C7                     ext.l      D7
00002930  41EC 0288                lea.l      A0, [A4 + 0x288]
00002934  2D70 7C00 FFEC           move.l     [A6 - 0x14], [A0 + D7 * 4]
0000293A  206E FFEC                movea.l    A0, [A6 - 0x14]
0000293E  2F28 001C                move.l     -[A7], [A0 + 0x1C]
00002942  2F28 0020                move.l     -[A7], [A0 + 0x20]
00002946  203C 0008 0006           move.l     D0, 0x80006
0000294C  AB1D                     syscall    QDExtensions
0000294E  2F2E FFDC                move.l     -[A7], [A6 - 0x24]
00002952  A9A3                     syscall    ReleaseResource
00002954  48C7                     ext.l      D7
00002956  41EC 02A8                lea.l      A0, [A4 + 0x2A8]
0000295A  2D70 7C00 FFF0           move.l     [A6 - 0x10], [A0 + D7 * 4]
00002960  206E FFF0                movea.l    A0, [A6 - 0x10]
00002964  4868 001C                pea.l      [A0 + 0x1C]
00002968  4868 0020                pea.l      [A0 + 0x20]
0000296C  203C 0008 0005           move.l     D0, 0x80005
00002972  AB1D                     syscall    QDExtensions
00002974  206E FFF0                movea.l    A0, [A6 - 0x10]
00002978  2F28 0018                move.l     -[A7], [A0 + 0x18]
0000297C  7000                     moveq.l    D0, 0x00
0000297E  2F00                     move.l     -[A7], D0
00002980  203C 0008 0006           move.l     D0, 0x80006
00002986  AB1D                     syscall    QDExtensions
00002988  42AE FFD4                clr.l      [A6 - 0x2C]
0000298C  206E FFE0                movea.l    A0, [A6 - 0x20]
00002990  2050                     movea.l    A0, [A0]
00002992  226E FFE0                movea.l    A1, [A6 - 0x20]
00002996  2251                     movea.l    A1, [A1]
00002998  3028 0008                move.w     D0, [A0 + 0x8]
0000299C  9069 0004                sub.w      D0, [A1 + 0x4]
000029A0  3D40 FFDA                move.w     [A6 - 0x26], D0
000029A4  206E FFE0                movea.l    A0, [A6 - 0x20]
000029A8  2050                     movea.l    A0, [A0]
000029AA  226E FFE0                movea.l    A1, [A6 - 0x20]
000029AE  2251                     movea.l    A1, [A1]
000029B0  3028 0006                move.w     D0, [A0 + 0x6]
000029B4  9069 0002                sub.w      D0, [A1 + 0x2]
000029B8  3D40 FFD8                move.w     [A6 - 0x28], D0
000029BC  486E FFD4                pea.l      [A6 - 0x2C]
000029C0  A8A3                     syscall    EraseRect
000029C2  2F2E FFE0                move.l     -[A7], [A6 - 0x20]
000029C6  486E FFD4                pea.l      [A6 - 0x2C]
000029CA  A8F6                     syscall    DrawPicture
000029CC  48C7                     ext.l      D7
000029CE  41EC 02A8                lea.l      A0, [A4 + 0x2A8]
000029D2  2D70 7C00 FFF4           move.l     [A6 - 0xC], [A0 + D7 * 4]
000029D8  206E FFF4                movea.l    A0, [A6 - 0xC]
000029DC  2F28 001C                move.l     -[A7], [A0 + 0x1C]
000029E0  2F28 0020                move.l     -[A7], [A0 + 0x20]
000029E4  203C 0008 0006           move.l     D0, 0x80006
000029EA  AB1D                     syscall    QDExtensions
000029EC  2F2E FFE0                move.l     -[A7], [A6 - 0x20]
000029F0  A9A3                     syscall    ReleaseResource
000029F2  48C7                     ext.l      D7
000029F4  41EC 02C8                lea.l      A0, [A4 + 0x2C8]
000029F8  2670 7C00                movea.l    A3, [A0 + D7 * 4]
000029FC  486B 001C                pea.l      [A3 + 0x1C]
00002A00  486B 0020                pea.l      [A3 + 0x20]
00002A04  203C 0008 0005           move.l     D0, 0x80005
00002A0A  AB1D                     syscall    QDExtensions
00002A0C  2F2B 0018                move.l     -[A7], [A3 + 0x18]
00002A10  7000                     moveq.l    D0, 0x00
00002A12  2F00                     move.l     -[A7], D0
00002A14  203C 0008 0006           move.l     D0, 0x80006
00002A1A  AB1D                     syscall    QDExtensions
00002A1C  42AE FFD4                clr.l      [A6 - 0x2C]
00002A20  206E FFE4                movea.l    A0, [A6 - 0x1C]
00002A24  2050                     movea.l    A0, [A0]
00002A26  226E FFE4                movea.l    A1, [A6 - 0x1C]
00002A2A  2251                     movea.l    A1, [A1]
00002A2C  3028 0008                move.w     D0, [A0 + 0x8]
00002A30  9069 0004                sub.w      D0, [A1 + 0x4]
00002A34  3D40 FFDA                move.w     [A6 - 0x26], D0
00002A38  206E FFE4                movea.l    A0, [A6 - 0x1C]
00002A3C  2050                     movea.l    A0, [A0]
00002A3E  226E FFE4                movea.l    A1, [A6 - 0x1C]
00002A42  2251                     movea.l    A1, [A1]
00002A44  3028 0006                move.w     D0, [A0 + 0x6]
00002A48  9069 0002                sub.w      D0, [A1 + 0x2]
00002A4C  3D40 FFD8                move.w     [A6 - 0x28], D0
00002A50  486E FFD4                pea.l      [A6 - 0x2C]
00002A54  A8A3                     syscall    EraseRect
00002A56  2F2E FFE4                move.l     -[A7], [A6 - 0x1C]
00002A5A  486E FFD4                pea.l      [A6 - 0x2C]
00002A5E  A8F6                     syscall    DrawPicture
00002A60  48C7                     ext.l      D7
00002A62  41EC 02C8                lea.l      A0, [A4 + 0x2C8]
00002A66  2D70 7C00 FFF8           move.l     [A6 - 0x8], [A0 + D7 * 4]
00002A6C  206E FFF8                movea.l    A0, [A6 - 0x8]
00002A70  2F28 001C                move.l     -[A7], [A0 + 0x1C]
00002A74  2F28 0020                move.l     -[A7], [A0 + 0x20]
00002A78  203C 0008 0006           move.l     D0, 0x80006
00002A7E  AB1D                     syscall    QDExtensions
00002A80  2F2E FFE4                move.l     -[A7], [A6 - 0x1C]
00002A84  A9A3                     syscall    ReleaseResource
00002A86  3007                     move.w     D0, D7
00002A88  5247                     addq.w     D7, 1
00002A8A  0C47 0008                cmpi.w     D7, 0x8
00002A8E  6D00 FD00                blt        -0x2FE /* 00002790 */
00002A92  4247                     clr.w      D7
label00002A94:
00002A94  426E FFE2                clr.w      [A6 - 0x1E]
00002A98  3D7C 0020 FFE6           move.w     [A6 - 0x1A], 0x20 /* ' ' */
00002A9E  426E FFE0                clr.w      [A6 - 0x20]
00002AA2  3D7C 0020 FFE4           move.w     [A6 - 0x1C], 0x20 /* ' ' */
00002AA8  7000                     moveq.l    D0, 0x00
00002AAA  2F00                     move.l     -[A7], D0
00002AAC  2F2E 001C                move.l     -[A7], [A6 + 0x1C]
00002AB0  2F00                     move.l     -[A7], D0
00002AB2  7204                     moveq.l    D1, 0x04
00002AB4  2F01                     move.l     -[A7], D1
00002AB6  486E FFE0                pea.l      [A6 - 0x20]
00002ABA  2F00                     move.l     -[A7], D0
00002ABC  4EAD 1722                jsr        [A5 + 0x1722 /* export_736, CODE:32 @ 00004320 */]
00002AC0  48C7                     ext.l      D7
00002AC2  41EC 02E8                lea.l      A0, [A4 + 0x2E8]
00002AC6  2180 7C00                move.l     [A0 + D7 * 4], D0
00002ACA  7000                     moveq.l    D0, 0x00
00002ACC  2F00                     move.l     -[A7], D0
00002ACE  2F2E 001C                move.l     -[A7], [A6 + 0x1C]
00002AD2  2F00                     move.l     -[A7], D0
00002AD4  7201                     moveq.l    D1, 0x01
00002AD6  2F01                     move.l     -[A7], D1
00002AD8  486E FFE0                pea.l      [A6 - 0x20]
00002ADC  2F00                     move.l     -[A7], D0
00002ADE  4EAD 1722                jsr        [A5 + 0x1722 /* export_736, CODE:32 @ 00004320 */]
00002AE2  48C7                     ext.l      D7
00002AE4  41EC 0308                lea.l      A0, [A4 + 0x308]
00002AE8  2180 7C00                move.l     [A0 + D7 * 4], D0
00002AEC  48C7                     ext.l      D7
00002AEE  41EC 02E8                lea.l      A0, [A4 + 0x2E8]
00002AF2  4AB0 7C00                tst.l      [A0 + D7 * 4]
00002AF6  4FEF 0030                lea.l      A7, [A7 + 0x30]
00002AFA  670C                     beq        +0xE /* 00002B08 */
00002AFC  48C7                     ext.l      D7
00002AFE  41EC 0308                lea.l      A0, [A4 + 0x308]
00002B02  4AB0 7C00                tst.l      [A0 + D7 * 4]
00002B06  6614                     bne        +0x16 /* 00002B1C */
label00002B08:
00002B08  204D                     movea.l    A0, A5
00002B0A  D1FC FFFF 3652           add.l      A0, 0xFFFF3652
00002B10  4850                     pea.l      [A0]
00002B12  2F2C 0064                move.l     -[A7], [A4 + 0x64]
00002B16  4EAD 162A                jsr        [A5 + 0x162A /* export_705, CODE:32 @ 00003696 */]
00002B1A  504F                     addq.w     A7, 8
label00002B1C:
00002B1C  598F                     subq.l     A7, 4
00002B1E  3007                     move.w     D0, D7
00002B20  48C0                     ext.l      D0
00002B22  D080                     add.l      D0, D0
00002B24  D07C 0492                add.w      D0, 0x492
00002B28  3F00                     move.w     -[A7], D0
00002B2A  A9BC                     syscall    GetPicture
00002B2C  205F                     movea.l    A0, [A7]+
00002B2E  2D48 FFE8                move.l     [A6 - 0x18], A0
00002B32  A064                     syscall    MoveHHi
00002B34  A029                     syscall    HLock
00002B36  598F                     subq.l     A7, 4
00002B38  3007                     move.w     D0, D7
00002B3A  48C0                     ext.l      D0
00002B3C  D080                     add.l      D0, D0
00002B3E  D07C 0493                add.w      D0, 0x493
00002B42  3F00                     move.w     -[A7], D0
00002B44  A9BC                     syscall    GetPicture
00002B46  205F                     movea.l    A0, [A7]+
00002B48  2D48 FFEC                move.l     [A6 - 0x14], A0
00002B4C  A064                     syscall    MoveHHi
00002B4E  A029                     syscall    HLock
00002B50  4AAE FFE8                tst.l      [A6 - 0x18]
00002B54  6706                     beq        +0x8 /* 00002B5C */
00002B56  4AAE FFEC                tst.l      [A6 - 0x14]
00002B5A  6614                     bne        +0x16 /* 00002B70 */
label00002B5C:
00002B5C  204D                     movea.l    A0, A5
00002B5E  D1FC FFFF 367C           add.l      A0, 0xFFFF367C
00002B64  4850                     pea.l      [A0]
00002B66  2F2C 0064                move.l     -[A7], [A4 + 0x64]
00002B6A  4EAD 162A                jsr        [A5 + 0x162A /* export_705, CODE:32 @ 00003696 */]
00002B6E  504F                     addq.w     A7, 8
label00002B70:
00002B70  48C7                     ext.l      D7
00002B72  41EC 02E8                lea.l      A0, [A4 + 0x2E8]
00002B76  2D70 7C00 FFF0           move.l     [A6 - 0x10], [A0 + D7 * 4]
00002B7C  206E FFF0                movea.l    A0, [A6 - 0x10]
00002B80  4868 001C                pea.l      [A0 + 0x1C]
00002B84  4868 0020                pea.l      [A0 + 0x20]
00002B88  203C 0008 0005           move.l     D0, 0x80005
00002B8E  AB1D                     syscall    QDExtensions
00002B90  206E FFF0                movea.l    A0, [A6 - 0x10]
00002B94  2F28 0018                move.l     -[A7], [A0 + 0x18]
00002B98  7000                     moveq.l    D0, 0x00
00002B9A  2F00                     move.l     -[A7], D0
00002B9C  203C 0008 0006           move.l     D0, 0x80006
00002BA2  AB1D                     syscall    QDExtensions
00002BA4  42AE FFE0                clr.l      [A6 - 0x20]
00002BA8  206E FFE8                movea.l    A0, [A6 - 0x18]
00002BAC  2050                     movea.l    A0, [A0]
00002BAE  226E FFE8                movea.l    A1, [A6 - 0x18]
00002BB2  2251                     movea.l    A1, [A1]
00002BB4  3028 0008                move.w     D0, [A0 + 0x8]
00002BB8  9069 0004                sub.w      D0, [A1 + 0x4]
00002BBC  3D40 FFE6                move.w     [A6 - 0x1A], D0
00002BC0  206E FFE8                movea.l    A0, [A6 - 0x18]
00002BC4  2050                     movea.l    A0, [A0]
00002BC6  226E FFE8                movea.l    A1, [A6 - 0x18]
00002BCA  2251                     movea.l    A1, [A1]
00002BCC  3028 0006                move.w     D0, [A0 + 0x6]
00002BD0  9069 0002                sub.w      D0, [A1 + 0x2]
00002BD4  3D40 FFE4                move.w     [A6 - 0x1C], D0
00002BD8  486E FFE0                pea.l      [A6 - 0x20]
00002BDC  A8A3                     syscall    EraseRect
00002BDE  2F2E FFE8                move.l     -[A7], [A6 - 0x18]
00002BE2  486E FFE0                pea.l      [A6 - 0x20]
00002BE6  A8F6                     syscall    DrawPicture
00002BE8  48C7                     ext.l      D7
00002BEA  41EC 02E8                lea.l      A0, [A4 + 0x2E8]
00002BEE  2D70 7C00 FFF4           move.l     [A6 - 0xC], [A0 + D7 * 4]
00002BF4  206E FFF4                movea.l    A0, [A6 - 0xC]
00002BF8  2F28 001C                move.l     -[A7], [A0 + 0x1C]
00002BFC  2F28 0020                move.l     -[A7], [A0 + 0x20]
00002C00  203C 0008 0006           move.l     D0, 0x80006
00002C06  AB1D                     syscall    QDExtensions
00002C08  2F2E FFE8                move.l     -[A7], [A6 - 0x18]
00002C0C  A9A3                     syscall    ReleaseResource
00002C0E  48C7                     ext.l      D7
00002C10  41EC 0308                lea.l      A0, [A4 + 0x308]
00002C14  2670 7C00                movea.l    A3, [A0 + D7 * 4]
00002C18  486B 001C                pea.l      [A3 + 0x1C]
00002C1C  486B 0020                pea.l      [A3 + 0x20]
00002C20  203C 0008 0005           move.l     D0, 0x80005
00002C26  AB1D                     syscall    QDExtensions
00002C28  2F2B 0018                move.l     -[A7], [A3 + 0x18]
00002C2C  7000                     moveq.l    D0, 0x00
00002C2E  2F00                     move.l     -[A7], D0
00002C30  203C 0008 0006           move.l     D0, 0x80006
00002C36  AB1D                     syscall    QDExtensions
00002C38  42AE FFE0                clr.l      [A6 - 0x20]
00002C3C  206E FFEC                movea.l    A0, [A6 - 0x14]
00002C40  2050                     movea.l    A0, [A0]
00002C42  226E FFEC                movea.l    A1, [A6 - 0x14]
00002C46  2251                     movea.l    A1, [A1]
00002C48  3028 0008                move.w     D0, [A0 + 0x8]
00002C4C  9069 0004                sub.w      D0, [A1 + 0x4]
00002C50  3D40 FFE6                move.w     [A6 - 0x1A], D0
00002C54  206E FFEC                movea.l    A0, [A6 - 0x14]
00002C58  2050                     movea.l    A0, [A0]
00002C5A  226E FFEC                movea.l    A1, [A6 - 0x14]
00002C5E  2251                     movea.l    A1, [A1]
00002C60  3028 0006                move.w     D0, [A0 + 0x6]
00002C64  9069 0002                sub.w      D0, [A1 + 0x2]
00002C68  3D40 FFE4                move.w     [A6 - 0x1C], D0
00002C6C  486E FFE0                pea.l      [A6 - 0x20]
00002C70  A8A3                     syscall    EraseRect
00002C72  2F2E FFEC                move.l     -[A7], [A6 - 0x14]
00002C76  486E FFE0                pea.l      [A6 - 0x20]
00002C7A  A8F6                     syscall    DrawPicture
00002C7C  48C7                     ext.l      D7
00002C7E  41EC 0308                lea.l      A0, [A4 + 0x308]
00002C82  2D70 7C00 FFF8           move.l     [A6 - 0x8], [A0 + D7 * 4]
00002C88  206E FFF8                movea.l    A0, [A6 - 0x8]
00002C8C  2F28 001C                move.l     -[A7], [A0 + 0x1C]
00002C90  2F28 0020                move.l     -[A7], [A0 + 0x20]
00002C94  203C 0008 0006           move.l     D0, 0x80006
00002C9A  AB1D                     syscall    QDExtensions
00002C9C  2F2E FFEC                move.l     -[A7], [A6 - 0x14]
00002CA0  A9A3                     syscall    ReleaseResource
00002CA2  3007                     move.w     D0, D7
00002CA4  5247                     addq.w     D7, 1
00002CA6  0C47 0001                cmpi.w     D7, 0x1
00002CAA  6D00 FDE8                blt        -0x216 /* 00002A94 */
label00002CAE:
00002CAE  200C                     move.l     D0, A4
00002CB0  4CEE 1888 FFAC           movem.l    D3,D7,A3,A4, [A6 - 0x54]
00002CB6  4E5E                     unlink     A6
00002CB8  4E75                     rts
00002CBA  8045 5F5F 6374 5F5F 3... dc.b       "__ct__14cFarmEditTilesFP6cAgentP7cWindowR4RectPP10ColorTablePUsT5sN27"
export_212:
00002D04  4E56 0000                link       A6, 0
00002D08  2F0C                     move.l     -[A7], A4
00002D0A  286E 0008                movea.l    A4, [A6 + 0x8]
00002D0E  206E 0010                movea.l    A0, [A6 + 0x10]
00002D12  30AC 0204                move.w     [A0], [A4 + 0x204]
00002D16  302E 000E                move.w     D0, [A6 + 0xE]
00002D1A  48C0                     ext.l      D0
00002D1C  D080                     add.l      D0, D0
00002D1E  D0AC 0224                add.l      D0, [A4 + 0x224]
00002D22  286E FFFC                movea.l    A4, [A6 - 0x4]
00002D26  4E5E                     unlink     A6
00002D28  4E75                     rts
00002D2A  8021 4765 7454 696C 6... dc.b       "GetTileLine__14cFarmEditTilesFsRs"
export_213:
00002D50  4E56 FFEC                link       A6, -0x0014
00002D54  48E7 1F18                movem.l    -[A7], D3,D4,D5,D6,D7,A3,A4
00002D58  3C2E 000E                move.w     D6, [A6 + 0xE]
00002D5C  286E 0008                movea.l    A4, [A6 + 0x8]
00002D60  7000                     moveq.l    D0, 0x00
00002D62  3006                     move.w     D0, D6
00002D64  0C40 0350                cmpi.w     D0, 0x350
00002D68  6500 018E                bcs        +0x190 /* 00002EF8 */
00002D6C  7000                     moveq.l    D0, 0x00
00002D6E  3006                     move.w     D0, D6
00002D70  90BC 0000 0350           sub.l      D0, 0x350
00002D76  7200                     moveq.l    D1, 0x00
00002D78  322C 0212                move.w     D1, [A4 + 0x212]
00002D7C  2A01                     move.l     D5, D1
00002D7E  CA80                     and.l      D5, D0
00002D80  206E 0010                movea.l    A0, [A6 + 0x10]
00002D84  2068 0018                movea.l    A0, [A0 + 0x18]
00002D88  2068 0002                movea.l    A0, [A0 + 0x2]
00002D8C  2050                     movea.l    A0, [A0]
00002D8E  3028 0004                move.w     D0, [A0 + 0x4]
00002D92  48C0                     ext.l      D0
00002D94  3C3C 7FFF                move.w     D6, 0x7FFF
00002D98  CC40                     and.w      D6, D0
00002D9A  7000                     moveq.l    D0, 0x00
00002D9C  3005                     move.w     D0, D5
00002D9E  322C 0200                move.w     D1, [A4 + 0x200]
00002DA2  48C1                     ext.l      D1
00002DA4  4C41 0802                divs.l     D2:D0, D1
00002DA8  E982                     asl        D2, 4
00002DAA  2E02                     move.l     D7, D2
00002DAC  7000                     moveq.l    D0, 0x00
00002DAE  3005                     move.w     D0, D5
00002DB0  322C 0200                move.w     D1, [A4 + 0x200]
00002DB4  48C1                     ext.l      D1
00002DB6  4C41 0800                divs.l     D0:D0, D1
00002DBA  E980                     asl        D0, 4
00002DBC  266C 0234                movea.l    A3, [A4 + 0x234]
00002DC0  206B 0018                movea.l    A0, [A3 + 0x18]
00002DC4  2068 0002                movea.l    A0, [A0 + 0x2]
00002DC8  2050                     movea.l    A0, [A0]
00002DCA  3228 0004                move.w     D1, [A0 + 0x4]
00002DCE  48C1                     ext.l      D1
00002DD0  343C 7FFF                move.w     D2, 0x7FFF
00002DD4  C441                     and.w      D2, D1
00002DD6  7200                     moveq.l    D1, 0x00
00002DD8  3202                     move.w     D1, D2
00002DDA  4A81                     tst.l      D1
00002DDC  4C00 1800                muls.l     D1, D0
00002DE0  2801                     move.l     D4, D1
00002DE2  D887                     add.l      D4, D7
00002DE4  7000                     moveq.l    D0, 0x00
00002DE6  3005                     move.w     D0, D5
00002DE8  322C 0200                move.w     D1, [A4 + 0x200]
00002DEC  48C1                     ext.l      D1
00002DEE  4C41 0800                divs.l     D0:D0, D1
00002DF2  E980                     asl        D0, 4
00002DF4  266C 0230                movea.l    A3, [A4 + 0x230]
00002DF8  206B 0018                movea.l    A0, [A3 + 0x18]
00002DFC  2068 0002                movea.l    A0, [A0 + 0x2]
00002E00  2050                     movea.l    A0, [A0]
00002E02  3228 0004                move.w     D1, [A0 + 0x4]
00002E06  48C1                     ext.l      D1
00002E08  343C 7FFF                move.w     D2, 0x7FFF
00002E0C  C441                     and.w      D2, D1
00002E0E  7200                     moveq.l    D1, 0x00
00002E10  3202                     move.w     D1, D2
00002E12  4A81                     tst.l      D1
00002E14  4C00 1800                muls.l     D1, D0
00002E18  DE81                     add.l      D7, D1
00002E1A  266C 0230                movea.l    A3, [A4 + 0x230]
00002E1E  598F                     subq.l     A7, 4
00002E20  206B 0018                movea.l    A0, [A3 + 0x18]
00002E24  2F28 0002                move.l     -[A7], [A0 + 0x2]
00002E28  203C 0004 000F           move.l     D0, 0x4000F
00002E2E  AB1D                     syscall    QDExtensions
00002E30  2007                     move.l     D0, D7
00002E32  D09F                     add.l      D0, [A7]+
00002E34  2D40 FFF4                move.l     [A6 - 0xC], D0
00002E38  266C 0234                movea.l    A3, [A4 + 0x234]
00002E3C  598F                     subq.l     A7, 4
00002E3E  206B 0018                movea.l    A0, [A3 + 0x18]
00002E42  2F28 0002                move.l     -[A7], [A0 + 0x2]
00002E46  203C 0004 000F           move.l     D0, 0x4000F
00002E4C  AB1D                     syscall    QDExtensions
00002E4E  2004                     move.l     D0, D4
00002E50  D09F                     add.l      D0, [A7]+
00002E52  2D40 FFF8                move.l     [A6 - 0x8], D0
00002E56  598F                     subq.l     A7, 4
00002E58  206E 0010                movea.l    A0, [A6 + 0x10]
00002E5C  2068 0018                movea.l    A0, [A0 + 0x18]
00002E60  2F28 0002                move.l     -[A7], [A0 + 0x2]
00002E64  203C 0004 000F           move.l     D0, 0x4000F
00002E6A  AB1D                     syscall    QDExtensions
00002E6C  2D5F FFFC                move.l     [A6 - 0x4], [A7]+
00002E70  4247                     clr.w      D7
00002E72  7610                     moveq.l    D3, 0x10
00002E74  6000 007C                bra        +0x7E /* 00002EF2 */
label00002E78:
00002E78  2D6E FFF8 FFEC           move.l     [A6 - 0x14], [A6 - 0x8]
00002E7E  2D6E FFFC FFF0           move.l     [A6 - 0x10], [A6 - 0x4]
00002E84  206E FFEC                movea.l    A0, [A6 - 0x14]
00002E88  58AE FFEC                addq.l     [A6 - 0x14], 4
00002E8C  226E FFF0                movea.l    A1, [A6 - 0x10]
00002E90  58AE FFF0                addq.l     [A6 - 0x10], 4
00002E94  2290                     move.l     [A1], [A0]
00002E96  206E FFEC                movea.l    A0, [A6 - 0x14]
00002E9A  58AE FFEC                addq.l     [A6 - 0x14], 4
00002E9E  226E FFF0                movea.l    A1, [A6 - 0x10]
00002EA2  58AE FFF0                addq.l     [A6 - 0x10], 4
00002EA6  2290                     move.l     [A1], [A0]
00002EA8  206E FFEC                movea.l    A0, [A6 - 0x14]
00002EAC  58AE FFEC                addq.l     [A6 - 0x14], 4
00002EB0  226E FFF0                movea.l    A1, [A6 - 0x10]
00002EB4  58AE FFF0                addq.l     [A6 - 0x10], 4
00002EB8  2290                     move.l     [A1], [A0]
00002EBA  206E FFEC                movea.l    A0, [A6 - 0x14]
00002EBE  226E FFF0                movea.l    A1, [A6 - 0x10]
00002EC2  2290                     move.l     [A1], [A0]
00002EC4  266C 0234                movea.l    A3, [A4 + 0x234]
00002EC8  206B 0018                movea.l    A0, [A3 + 0x18]
00002ECC  2068 0002                movea.l    A0, [A0 + 0x2]
00002ED0  2050                     movea.l    A0, [A0]
00002ED2  3028 0004                move.w     D0, [A0 + 0x4]
00002ED6  48C0                     ext.l      D0
00002ED8  323C 7FFF                move.w     D1, 0x7FFF
00002EDC  C240                     and.w      D1, D0
00002EDE  7000                     moveq.l    D0, 0x00
00002EE0  3001                     move.w     D0, D1
00002EE2  D1AE FFF8                add.l      [A6 - 0x8], D0
00002EE6  7000                     moveq.l    D0, 0x00
00002EE8  3006                     move.w     D0, D6
00002EEA  D1AE FFFC                add.l      [A6 - 0x4], D0
00002EEE  3007                     move.w     D0, D7
00002EF0  5247                     addq.w     D7, 1
label00002EF2:
00002EF2  B647                     cmp.w      D3, D7
00002EF4  6E00 FF82                bgt        -0x7C /* 00002E78 */
label00002EF8:
00002EF8  4CEE 18F8 FFD0           movem.l    D3,D4,D5,D6,D7,A3,A4, [A6 - 0x30]
00002EFE  4E5E                     unlink     A6
00002F00  4E75                     rts
00002F02  802E 4472 6177 4D61 7... dc.b       "DrawMask__14cFarmEditTilesFUsP14cOffscreenPort"
export_214:
00002F34  4E56 FFE8                link       A6, -0x0018
00002F38  48E7 1718                movem.l    -[A7], D3,D5,D6,D7,A3,A4
00002F3C  286E 0010                movea.l    A4, [A6 + 0x10]
00002F40  266E 0008                movea.l    A3, [A6 + 0x8]
00002F44  3D7C 0010 FFFE           move.w     [A6 - 0x2], 0x10
00002F4A  3D7C 0010 FFFC           move.w     [A6 - 0x4], 0x10
00002F50  42AE FFF8                clr.l      [A6 - 0x8]
00002F54  7000                     moveq.l    D0, 0x00
00002F56  302E 000E                move.w     D0, [A6 + 0xE]
00002F5A  0C40 0350                cmpi.w     D0, 0x350
00002F5E  6444                     bcc        +0x46 /* 00002FA4 */
00002F60  206C 0018                movea.l    A0, [A4 + 0x18]
00002F64  2068 0002                movea.l    A0, [A0 + 0x2]
00002F68  2050                     movea.l    A0, [A0]
00002F6A  3028 0004                move.w     D0, [A0 + 0x4]
00002F6E  48C0                     ext.l      D0
00002F70  323C 7FFF                move.w     D1, 0x7FFF
00002F74  C240                     and.w      D1, D0
00002F76  7000                     moveq.l    D0, 0x00
00002F78  3001                     move.w     D0, D1
00002F7A  2F00                     move.l     -[A7], D0
00002F7C  598F                     subq.l     A7, 4
00002F7E  206C 0018                movea.l    A0, [A4 + 0x18]
00002F82  2F28 0002                move.l     -[A7], [A0 + 0x2]
00002F86  203C 0004 000F           move.l     D0, 0x4000F
00002F8C  AB1D                     syscall    QDExtensions
00002F8E  7001                     moveq.l    D0, 0x01
00002F90  2F00                     move.l     -[A7], D0
00002F92  486E 000E                pea.l      [A6 + 0xE]
00002F96  2F0B                     move.l     -[A7], A3
00002F98  4EAD 1B02                jsr        [A5 + 0x1B02 /* export_860, CODE:34 @ 00003528 */]
00002F9C  4FEF 0014                lea.l      A7, [A7 + 0x14]
00002FA0  6000 012E                bra        +0x130 /* 000030D0 */
label00002FA4:
00002FA4  598F                     subq.l     A7, 4
00002FA6  206C 0018                movea.l    A0, [A4 + 0x18]
00002FAA  2F28 0002                move.l     -[A7], [A0 + 0x2]
00002FAE  203C 0004 000F           move.l     D0, 0x4000F
00002FB4  AB1D                     syscall    QDExtensions
00002FB6  2D5F FFF0                move.l     [A6 - 0x10], [A7]+
00002FBA  7000                     moveq.l    D0, 0x00
00002FBC  302E 000E                move.w     D0, [A6 + 0xE]
00002FC0  90BC 0000 0350           sub.l      D0, 0x350
00002FC6  7200                     moveq.l    D1, 0x00
00002FC8  322B 0212                move.w     D1, [A3 + 0x212]
00002FCC  2A01                     move.l     D5, D1
00002FCE  CA80                     and.l      D5, D0
00002FD0  206C 0018                movea.l    A0, [A4 + 0x18]
00002FD4  2068 0002                movea.l    A0, [A0 + 0x2]
00002FD8  2050                     movea.l    A0, [A0]
00002FDA  3028 0004                move.w     D0, [A0 + 0x4]
00002FDE  48C0                     ext.l      D0
00002FE0  3C3C 7FFF                move.w     D6, 0x7FFF
00002FE4  CC40                     and.w      D6, D0
00002FE6  7000                     moveq.l    D0, 0x00
00002FE8  3005                     move.w     D0, D5
00002FEA  322B 0200                move.w     D1, [A3 + 0x200]
00002FEE  48C1                     ext.l      D1
00002FF0  4C41 0802                divs.l     D2:D0, D1
00002FF4  E982                     asl        D2, 4
00002FF6  2E02                     move.l     D7, D2
00002FF8  7000                     moveq.l    D0, 0x00
00002FFA  3005                     move.w     D0, D5
00002FFC  322B 0200                move.w     D1, [A3 + 0x200]
00003000  48C1                     ext.l      D1
00003002  4C41 0800                divs.l     D0:D0, D1
00003006  E980                     asl        D0, 4
00003008  286B 0230                movea.l    A4, [A3 + 0x230]
0000300C  206C 0018                movea.l    A0, [A4 + 0x18]
00003010  2068 0002                movea.l    A0, [A0 + 0x2]
00003014  2050                     movea.l    A0, [A0]
00003016  3228 0004                move.w     D1, [A0 + 0x4]
0000301A  48C1                     ext.l      D1
0000301C  343C 7FFF                move.w     D2, 0x7FFF
00003020  C441                     and.w      D2, D1
00003022  7200                     moveq.l    D1, 0x00
00003024  3202                     move.w     D1, D2
00003026  4A81                     tst.l      D1
00003028  4C00 1800                muls.l     D1, D0
0000302C  DE81                     add.l      D7, D1
0000302E  286B 0230                movea.l    A4, [A3 + 0x230]
00003032  598F                     subq.l     A7, 4
00003034  206C 0018                movea.l    A0, [A4 + 0x18]
00003038  2F28 0002                move.l     -[A7], [A0 + 0x2]
0000303C  203C 0004 000F           move.l     D0, 0x4000F
00003042  AB1D                     syscall    QDExtensions
00003044  2007                     move.l     D0, D7
00003046  D09F                     add.l      D0, [A7]+
00003048  2D40 FFF4                move.l     [A6 - 0xC], D0
0000304C  4247                     clr.w      D7
0000304E  7610                     moveq.l    D3, 0x10
00003050  607A                     bra        +0x7C /* 000030CC */
label00003052:
00003052  2D6E FFF4 FFE8           move.l     [A6 - 0x18], [A6 - 0xC]
00003058  2D6E FFF0 FFEC           move.l     [A6 - 0x14], [A6 - 0x10]
0000305E  206E FFE8                movea.l    A0, [A6 - 0x18]
00003062  58AE FFE8                addq.l     [A6 - 0x18], 4
00003066  226E FFEC                movea.l    A1, [A6 - 0x14]
0000306A  58AE FFEC                addq.l     [A6 - 0x14], 4
0000306E  2290                     move.l     [A1], [A0]
00003070  206E FFE8                movea.l    A0, [A6 - 0x18]
00003074  58AE FFE8                addq.l     [A6 - 0x18], 4
00003078  226E FFEC                movea.l    A1, [A6 - 0x14]
0000307C  58AE FFEC                addq.l     [A6 - 0x14], 4
00003080  2290                     move.l     [A1], [A0]
00003082  206E FFE8                movea.l    A0, [A6 - 0x18]
00003086  58AE FFE8                addq.l     [A6 - 0x18], 4
0000308A  226E FFEC                movea.l    A1, [A6 - 0x14]
0000308E  58AE FFEC                addq.l     [A6 - 0x14], 4
00003092  2290                     move.l     [A1], [A0]
00003094  206E FFE8                movea.l    A0, [A6 - 0x18]
00003098  226E FFEC                movea.l    A1, [A6 - 0x14]
0000309C  2290                     move.l     [A1], [A0]
0000309E  286B 0230                movea.l    A4, [A3 + 0x230]
000030A2  206C 0018                movea.l    A0, [A4 + 0x18]
000030A6  2068 0002                movea.l    A0, [A0 + 0x2]
000030AA  2050                     movea.l    A0, [A0]
000030AC  3028 0004                move.w     D0, [A0 + 0x4]
000030B0  48C0                     ext.l      D0
000030B2  323C 7FFF                move.w     D1, 0x7FFF
000030B6  C240                     and.w      D1, D0
000030B8  7000                     moveq.l    D0, 0x00
000030BA  3001                     move.w     D0, D1
000030BC  D1AE FFF4                add.l      [A6 - 0xC], D0
000030C0  7000                     moveq.l    D0, 0x00
000030C2  3006                     move.w     D0, D6
000030C4  D1AE FFF0                add.l      [A6 - 0x10], D0
000030C8  3007                     move.w     D0, D7
000030CA  5247                     addq.w     D7, 1
label000030CC:
000030CC  B647                     cmp.w      D3, D7
000030CE  6E82                     bgt        -0x7C /* 00003052 */
label000030D0:
000030D0  4CEE 18E8 FFD0           movem.l    D3,D5,D6,D7,A3,A4, [A6 - 0x30]
000030D6  4E5E                     unlink     A6
000030D8  4E75                     rts
000030DA  802E 4472 6177 5469 6... dc.b       "DrawTile__14cFarmEditTilesFUsP14cOffscreenPort"
export_215:
0000310C  4E56 FFEE                link       A6, -0x0012
00003110  48E7 0F18                movem.l    -[A7], D4,D5,D6,D7,A3,A4
00003114  286E 0008                movea.l    A4, [A6 + 0x8]
00003118  4EAD 011A                jsr        [A5 + 0x11A /* export_31, CODE:1 @ 00001C7C */]
0000311C  204D                     movea.l    A0, A5
0000311E  D1FC FFFF F29A           add.l      A0, 0xFFFFF29A
00003124  0C90 0000 0200           cmpi.l     [A0], 0x200
0000312A  6D06                     blt        +0x8 /* 00003132 */
0000312C  486C 00CC                pea.l      [A4 + 0xCC]
00003130  AA15                     syscall    RGBBackColor
label00003132:
00003132  2F2C 0112                move.l     -[A7], [A4 + 0x112]
00003136  4EAD 11E2                jsr        [A5 + 0x11E2 /* export_568, CODE:26 @ 000031FA */]
0000313A  2F2C 01DC                move.l     -[A7], [A4 + 0x1DC]
0000313E  2F0C                     move.l     -[A7], A4
00003140  4EAD 1F6A                jsr        [A5 + 0x1F6A /* export_1001, CODE:37 @ 00001590 */]
00003144  206C 01DC                movea.l    A0, [A4 + 0x1DC]
00003148  2050                     movea.l    A0, [A0]
0000314A  3028 0002                move.w     D0, [A0 + 0x2]
0000314E  48C0                     ext.l      D0
00003150  4480                     neg.l      D0
00003152  322C 01D4                move.w     D1, [A4 + 0x1D4]
00003156  D240                     add.w      D1, D0
00003158  48C1                     ext.l      D1
0000315A  2F01                     move.l     -[A7], D1
0000315C  206C 01DC                movea.l    A0, [A4 + 0x1DC]
00003160  2050                     movea.l    A0, [A0]
00003162  3028 0004                move.w     D0, [A0 + 0x4]
00003166  48C0                     ext.l      D0
00003168  4480                     neg.l      D0
0000316A  322C 01D6                move.w     D1, [A4 + 0x1D6]
0000316E  D240                     add.w      D1, D0
00003170  48C1                     ext.l      D1
00003172  2F01                     move.l     -[A7], D1
00003174  2F2C 0112                move.l     -[A7], [A4 + 0x112]
00003178  4EAD 1202                jsr        [A5 + 0x1202 /* export_572, CODE:26 @ 000033B8 */]
0000317C  2F0C                     move.l     -[A7], A4
0000317E  4EAD 1AFA                jsr        [A5 + 0x1AFA /* export_859, CODE:34 @ 000033A8 */]
00003182  302C 01D6                move.w     D0, [A4 + 0x1D6]
00003186  48C0                     ext.l      D0
00003188  206C 01DC                movea.l    A0, [A4 + 0x1DC]
0000318C  2050                     movea.l    A0, [A0]
0000318E  3228 0008                move.w     D1, [A0 + 0x8]
00003192  48C1                     ext.l      D1
00003194  D280                     add.l      D1, D0
00003196  206C 01DC                movea.l    A0, [A4 + 0x1DC]
0000319A  2050                     movea.l    A0, [A0]
0000319C  3028 0004                move.w     D0, [A0 + 0x4]
000031A0  48C0                     ext.l      D0
000031A2  9280                     sub.l      D1, D0
000031A4  302C 01FC                move.w     D0, [A4 + 0x1FC]
000031A8  48C0                     ext.l      D0
000031AA  4C40 1801                divs.l     D1:D1, D0
000031AE  3C01                     move.w     D6, D1
000031B0  302C 01D4                move.w     D0, [A4 + 0x1D4]
000031B4  48C0                     ext.l      D0
000031B6  206C 01DC                movea.l    A0, [A4 + 0x1DC]
000031BA  2050                     movea.l    A0, [A0]
000031BC  3228 0006                move.w     D1, [A0 + 0x6]
000031C0  48C1                     ext.l      D1
000031C2  D280                     add.l      D1, D0
000031C4  206C 01DC                movea.l    A0, [A4 + 0x1DC]
000031C8  2050                     movea.l    A0, [A0]
000031CA  3028 0002                move.w     D0, [A0 + 0x2]
000031CE  48C0                     ext.l      D0
000031D0  9280                     sub.l      D1, D0
000031D2  302C 01FE                move.w     D0, [A4 + 0x1FE]
000031D6  48C0                     ext.l      D0
000031D8  4C40 1801                divs.l     D1:D1, D0
000031DC  3E01                     move.w     D7, D1
000031DE  302C 01D6                move.w     D0, [A4 + 0x1D6]
000031E2  48C0                     ext.l      D0
000031E4  81EC 01FC                divs.w     D0, [A4 + 0x1FC]
000031E8  3D40 FFEE                move.w     [A6 - 0x12], D0
000031EC  302C 01D4                move.w     D0, [A4 + 0x1D4]
000031F0  48C0                     ext.l      D0
000031F2  81EC 01FE                divs.w     D0, [A4 + 0x1FE]
000031F6  3A00                     move.w     D5, D0
000031F8  3807                     move.w     D4, D7
000031FA  9845                     sub.w      D4, D5
000031FC  0C46 005F                cmpi.w     D6, 0x5F /* '_' */
00003200  4FEF 001C                lea.l      A7, [A7 + 0x1C]
00003204  6F02                     ble        +0x4 /* 00003208 */
00003206  7C5F                     moveq.l    D6, 0x5F
label00003208:
00003208  0C47 005F                cmpi.w     D7, 0x5F /* '_' */
0000320C  6F02                     ble        +0x4 /* 00003210 */
0000320E  7E5F                     moveq.l    D7, 0x5F
label00003210:
00003210  486E FFF0                pea.l      [A6 - 0x10]
00003214  48C5                     ext.l      D5
00003216  2F05                     move.l     -[A7], D5
00003218  204C                     movea.l    A0, A4
0000321A  226C 0060                movea.l    A1, [A4 + 0x60]
0000321E  D0E9 0188                add.w      A0, [A1 + 0x188]
00003222  2F08                     move.l     -[A7], A0
00003224  2049                     movea.l    A0, A1
00003226  2268 018C                movea.l    A1, [A0 + 0x18C]
0000322A  4E91                     jsr        [A1]
0000322C  2D40 FFF4                move.l     [A6 - 0xC], D0
00003230  486E FFF2                pea.l      [A6 - 0xE]
00003234  48C5                     ext.l      D5
00003236  2F05                     move.l     -[A7], D5
00003238  2F0C                     move.l     -[A7], A4
0000323A  4EBA 00FE                jsr        [PC + 0xFE /* 0000333A */]
0000323E  2D40 FFF8                move.l     [A6 - 0x8], D0
00003242  266C 020C                movea.l    A3, [A4 + 0x20C]
00003246  598F                     subq.l     A7, 4
00003248  206B 0018                movea.l    A0, [A3 + 0x18]
0000324C  2F28 0002                move.l     -[A7], [A0 + 0x2]
00003250  203C 0004 000F           move.l     D0, 0x4000F
00003256  AB1D                     syscall    QDExtensions
00003258  2D5F FFFC                move.l     [A6 - 0x4], [A7]+
0000325C  266C 020C                movea.l    A3, [A4 + 0x20C]
00003260  206B 0018                movea.l    A0, [A3 + 0x18]
00003264  2068 0002                movea.l    A0, [A0 + 0x2]
00003268  2050                     movea.l    A0, [A0]
0000326A  3028 0004                move.w     D0, [A0 + 0x4]
0000326E  48C0                     ext.l      D0
00003270  323C 7FFF                move.w     D1, 0x7FFF
00003274  C240                     and.w      D1, D0
00003276  3A01                     move.w     D5, D1
00003278  302E FFEE                move.w     D0, [A6 - 0x12]
0000327C  C1EE FFF0                muls.w     D0, [A6 - 0x10]
00003280  D080                     add.l      D0, D0
00003282  D1AE FFF4                add.l      [A6 - 0xC], D0
00003286  302E FFEE                move.w     D0, [A6 - 0x12]
0000328A  C1EE FFF2                muls.w     D0, [A6 - 0xE]
0000328E  D080                     add.l      D0, D0
00003290  D1AE FFF8                add.l      [A6 - 0x8], D0
00003294  3E2E FFEE                move.w     D7, [A6 - 0x12]
00003298  4FEF 0018                lea.l      A7, [A7 + 0x18]
0000329C  6044                     bra        +0x46 /* 000032E2 */
label0000329E:
0000329E  7000                     moveq.l    D0, 0x00
000032A0  3005                     move.w     D0, D5
000032A2  2F00                     move.l     -[A7], D0
000032A4  2F2E FFFC                move.l     -[A7], [A6 - 0x4]
000032A8  48C4                     ext.l      D4
000032AA  2F04                     move.l     -[A7], D4
000032AC  2F2E FFF8                move.l     -[A7], [A6 - 0x8]
000032B0  2F2E FFF4                move.l     -[A7], [A6 - 0xC]
000032B4  2F0C                     move.l     -[A7], A4
000032B6  4EBA 0A80                jsr        [PC + 0xA80 /* 00003D38 */]
000032BA  06AE 0000 0010 FFFC      addi.l     [A6 - 0x4], 0x10
000032C2  302E FFF0                move.w     D0, [A6 - 0x10]
000032C6  48C0                     ext.l      D0
000032C8  D080                     add.l      D0, D0
000032CA  D1AE FFF4                add.l      [A6 - 0xC], D0
000032CE  302E FFF2                move.w     D0, [A6 - 0xE]
000032D2  48C0                     ext.l      D0
000032D4  D080                     add.l      D0, D0
000032D6  D1AE FFF8                add.l      [A6 - 0x8], D0
000032DA  4FEF 0018                lea.l      A7, [A7 + 0x18]
000032DE  3007                     move.w     D0, D7
000032E0  5247                     addq.w     D7, 1
label000032E2:
000032E2  BC47                     cmp.w      D6, D7
000032E4  6CB8                     bge        -0x46 /* 0000329E */
000032E6  2F0C                     move.l     -[A7], A4
000032E8  4EBA 009E                jsr        [PC + 0x9E /* 00003388 */]
000032EC  2F0C                     move.l     -[A7], A4
000032EE  4EAD 1AF2                jsr        [A5 + 0x1AF2 /* export_858, CODE:34 @ 00003228 */]
000032F2  2F2C 0112                move.l     -[A7], [A4 + 0x112]
000032F6  4EAD 120A                jsr        [A5 + 0x120A /* export_573, CODE:26 @ 00003404 */]
000032FA  7000                     moveq.l    D0, 0x00
000032FC  2F00                     move.l     -[A7], D0
000032FE  2F0C                     move.l     -[A7], A4
00003300  4EAD 1F7A                jsr        [A5 + 0x1F7A /* export_1003, CODE:37 @ 00001612 */]
00003304  2F2C 0112                move.l     -[A7], [A4 + 0x112]
00003308  4EAD 11EA                jsr        [A5 + 0x11EA /* export_569, CODE:26 @ 00003268 */]
0000330C  4FEF 0018                lea.l      A7, [A7 + 0x18]
00003310  4CEE 18F0 FFD6           movem.l    D4,D5,D6,D7,A3,A4, [A6 - 0x2A]
00003316  4E5E                     unlink     A6
00003318  4E75                     rts
0000331A  9C44 7261 7748 6F6F 6... dc.b       "DrawHook__14cFarmEditTilesFv"
fn0000333A:
0000333A  4E56 0000                link       A6, 0
0000333E  2F0C                     move.l     -[A7], A4
00003340  286E 0008                movea.l    A4, [A6 + 0x8]
00003344  206E 0010                movea.l    A0, [A6 + 0x10]
00003348  30AC 0204                move.w     [A0], [A4 + 0x204]
0000334C  302E 000E                move.w     D0, [A6 + 0xE]
00003350  48C0                     ext.l      D0
00003352  D080                     add.l      D0, D0
00003354  D0AC 0228                add.l      D0, [A4 + 0x228]
00003358  286E FFFC                movea.l    A4, [A6 - 0x4]
0000335C  4E5E                     unlink     A6
0000335E  4E75                     rts
00003360  8024 4765 7454 696C 6... dc.b       "GetTileLineObj__14cFarmEditTilesFsRs"
fn00003388:
00003388  4E56 FF7A                link       A6, -0x0086
0000338C  48E7 0718                movem.l    -[A7], D5,D6,D7,A3,A4
00003390  286E 0008                movea.l    A4, [A6 + 0x8]
00003394  302C 01D6                move.w     D0, [A4 + 0x1D6]
00003398  48C0                     ext.l      D0
0000339A  81EC 01FC                divs.w     D0, [A4 + 0x1FC]
0000339E  3C00                     move.w     D6, D0
000033A0  302C 01D4                move.w     D0, [A4 + 0x1D4]
000033A4  48C0                     ext.l      D0
000033A6  81EC 01FE                divs.w     D0, [A4 + 0x1FE]
000033AA  3E00                     move.w     D7, D0
000033AC  7000                     moveq.l    D0, 0x00
000033AE  204D                     movea.l    A0, A5
000033B0  D1FC FFFD AD20           add.l      A0, 0xFFFDAD20
000033B6  1010                     move.b     D0, [A0]
000033B8  4A80                     tst.l      D0
000033BA  0800 0000                btst.b     D0, 0x0
000033BE  6700 00FA                beq        +0xFC /* 000034BA */
000033C2  2F3C 00FF FFFF           move.l     -[A7], 0xFFFFFF
000033C8  7000                     moveq.l    D0, 0x00
000033CA  2F00                     move.l     -[A7], D0
000033CC  486E FF8A                pea.l      [A6 - 0x76]
000033D0  4EAD 15AA                jsr        [A5 + 0x15AA /* export_689, CODE:32 @ 0000234A */]
000033D4  7000                     moveq.l    D0, 0x00
000033D6  2F00                     move.l     -[A7], D0
000033D8  2F00                     move.l     -[A7], D0
000033DA  486E FFBC                pea.l      [A6 - 0x44]
000033DE  4EAD 15AA                jsr        [A5 + 0x15AA /* export_689, CODE:32 @ 0000234A */]
000033E2  486E FF8A                pea.l      [A6 - 0x76]
000033E6  AA15                     syscall    RGBBackColor
000033E8  486E FFBC                pea.l      [A6 - 0x44]
000033EC  AA14                     syscall    RGBForeColor
000033EE  426E FFF0                clr.w      [A6 - 0x10]
000033F2  302E FFF0                move.w     D0, [A6 - 0x10]
000033F6  D07C 0030                add.w      D0, 0x30 /* '0' */
000033FA  3D40 FFF4                move.w     [A6 - 0xC], D0
000033FE  426E FFEE                clr.w      [A6 - 0x12]
00003402  3D7C 0030 FFF2           move.w     [A6 - 0xE], 0x30 /* '0' */
00003408  204D                     movea.l    A0, A5
0000340A  D1FC FFFD AD1A           add.l      A0, 0xFFFDAD1A
00003410  3010                     move.w     D0, [A0]
00003412  48C0                     ext.l      D0
00003414  48C6                     ext.l      D6
00003416  9086                     sub.l      D0, D6
00003418  5280                     addq.l     D0, 1
0000341A  E980                     asl        D0, 4
0000341C  3D40 FFF8                move.w     [A6 - 0x8], D0
00003420  D07C 0030                add.w      D0, 0x30 /* '0' */
00003424  3D40 FFFC                move.w     [A6 - 0x4], D0
00003428  204D                     movea.l    A0, A5
0000342A  D1FC FFFD AD18           add.l      A0, 0xFFFDAD18
00003430  3010                     move.w     D0, [A0]
00003432  48C0                     ext.l      D0
00003434  48C7                     ext.l      D7
00003436  9087                     sub.l      D0, D7
00003438  5A80                     addq.l     D0, 5
0000343A  E980                     asl        D0, 4
0000343C  3D40 FFF6                move.w     [A6 - 0xA], D0
00003440  D07C 0030                add.w      D0, 0x30 /* '0' */
00003444  3D40 FFFA                move.w     [A6 - 0x6], D0
00003448  204D                     movea.l    A0, A5
0000344A  D1FC FFFD AD1C           add.l      A0, 0xFFFDAD1C
00003450  1010                     move.b     D0, [A0]
00003452  49C0                     lea.l      A4, D0
00003454  41EC 0238                lea.l      A0, [A4 + 0x238]
00003458  2670 0C00                movea.l    A3, [A0 + D0 * 4]
0000345C  206B 0018                movea.l    A0, [A3 + 0x18]
00003460  5488                     addq.l     A0, 2
00003462  2F08                     move.l     -[A7], A0
00003464  204D                     movea.l    A0, A5
00003466  D1FC FFFD AD1C           add.l      A0, 0xFFFDAD1C
0000346C  1010                     move.b     D0, [A0]
0000346E  49C0                     lea.l      A4, D0
00003470  41EC 0248                lea.l      A0, [A4 + 0x248]
00003474  2F30 0C00                move.l     -[A7], [A0 + D0 * 4]
00003478  4EBA 0F24                jsr        [PC + 0xF24 /* 0000439E */]
0000347C  588F                     addq.l     A7, 4
0000347E  2F00                     move.l     -[A7], D0
00003480  2F2C 020C                move.l     -[A7], [A4 + 0x20C]
00003484  4EBA 0F18                jsr        [PC + 0xF18 /* 0000439E */]
00003488  588F                     addq.l     A7, 4
0000348A  2F00                     move.l     -[A7], D0
0000348C  486E FFEE                pea.l      [A6 - 0x12]
00003490  486E FFEE                pea.l      [A6 - 0x12]
00003494  486E FFF6                pea.l      [A6 - 0xA]
00003498  A817                     syscall    CopyMask
0000349A  7002                     moveq.l    D0, 0x02
0000349C  2F00                     move.l     -[A7], D0
0000349E  486E FFBC                pea.l      [A6 - 0x44]
000034A2  4EAD 15D2                jsr        [A5 + 0x15D2 /* export_694, CODE:32 @ 000029D6 */]
000034A6  7002                     moveq.l    D0, 0x02
000034A8  2F00                     move.l     -[A7], D0
000034AA  486E FF8A                pea.l      [A6 - 0x76]
000034AE  4EAD 15D2                jsr        [A5 + 0x15D2 /* export_694, CODE:32 @ 000029D6 */]
000034B2  4FEF 0028                lea.l      A7, [A7 + 0x28]
000034B6  6000 00C2                bra        +0xC4 /* 0000357A */
label000034BA:
000034BA  7000                     moveq.l    D0, 0x00
000034BC  204D                     movea.l    A0, A5
000034BE  D1FC FFFD AD20           add.l      A0, 0xFFFDAD20
000034C4  1010                     move.b     D0, [A0]
000034C6  7220                     moveq.l    D1, 0x20
000034C8  C200                     and.b      D1, D0
000034CA  6700 00AE                beq        +0xB0 /* 0000357A */
000034CE  426E FFF0                clr.w      [A6 - 0x10]
000034D2  302E FFF0                move.w     D0, [A6 - 0x10]
000034D6  D07C 0038                add.w      D0, 0x38 /* '8' */
000034DA  3D40 FFF4                move.w     [A6 - 0xC], D0
000034DE  426E FFEE                clr.w      [A6 - 0x12]
000034E2  3D7C 0028 FFF2           move.w     [A6 - 0xE], 0x28 /* '(' */
000034E8  204D                     movea.l    A0, A5
000034EA  D1FC FFFD AD0A           add.l      A0, 0xFFFDAD0A
000034F0  3010                     move.w     D0, [A0]
000034F2  48C0                     ext.l      D0
000034F4  48C6                     ext.l      D6
000034F6  9086                     sub.l      D0, D6
000034F8  5280                     addq.l     D0, 1
000034FA  E980                     asl        D0, 4
000034FC  3D40 FFF8                move.w     [A6 - 0x8], D0
00003500  D07C 0038                add.w      D0, 0x38 /* '8' */
00003504  3D40 FFFC                move.w     [A6 - 0x4], D0
00003508  204D                     movea.l    A0, A5
0000350A  D1FC FFFD AD08           add.l      A0, 0xFFFDAD08
00003510  3010                     move.w     D0, [A0]
00003512  48C0                     ext.l      D0
00003514  48C7                     ext.l      D7
00003516  9087                     sub.l      D0, D7
00003518  5A80                     addq.l     D0, 5
0000351A  E980                     asl        D0, 4
0000351C  3D40 FFF6                move.w     [A6 - 0xA], D0
00003520  D07C 0028                add.w      D0, 0x28 /* '(' */
00003524  3D40 FFFA                move.w     [A6 - 0x6], D0
00003528  204D                     movea.l    A0, A5
0000352A  D1FC FFFD AD0C           add.l      A0, 0xFFFDAD0C
00003530  1010                     move.b     D0, [A0]
00003532  49C0                     lea.l      A4, D0
00003534  41EC 0258                lea.l      A0, [A4 + 0x258]
00003538  2670 0C00                movea.l    A3, [A0 + D0 * 4]
0000353C  206B 0018                movea.l    A0, [A3 + 0x18]
00003540  5488                     addq.l     A0, 2
00003542  2F08                     move.l     -[A7], A0
00003544  204D                     movea.l    A0, A5
00003546  D1FC FFFD AD0C           add.l      A0, 0xFFFDAD0C
0000354C  1010                     move.b     D0, [A0]
0000354E  49C0                     lea.l      A4, D0
00003550  41EC 0270                lea.l      A0, [A4 + 0x270]
00003554  2F30 0C00                move.l     -[A7], [A0 + D0 * 4]
00003558  4EBA 0E44                jsr        [PC + 0xE44 /* 0000439E */]
0000355C  588F                     addq.l     A7, 4
0000355E  2F00                     move.l     -[A7], D0
00003560  2F2C 020C                move.l     -[A7], [A4 + 0x20C]
00003564  4EBA 0E38                jsr        [PC + 0xE38 /* 0000439E */]
00003568  588F                     addq.l     A7, 4
0000356A  2F00                     move.l     -[A7], D0
0000356C  486E FFEE                pea.l      [A6 - 0x12]
00003570  486E FFEE                pea.l      [A6 - 0x12]
00003574  486E FFF6                pea.l      [A6 - 0xA]
00003578  A817                     syscall    CopyMask
label0000357A:
0000357A  224D                     movea.l    A1, A5
0000357C  D3FC FFFF 7868           add.l      A1, 0xFFFF7868
00003582  2051                     movea.l    A0, [A1]
00003584  2668 0180                movea.l    A3, [A0 + 0x180]
00003588  3D6B 01AA FFFE           move.w     [A6 - 0x2], [A3 + 0x1AA]
0000358E  4A2B 01A6                tst.b      [A3 + 0x1A6]
00003592  6700 0206                beq        +0x208 /* 0000379A */
00003596  7000                     moveq.l    D0, 0x00
00003598  2F00                     move.l     -[A7], D0
0000359A  2F00                     move.l     -[A7], D0
0000359C  486E FF7A                pea.l      [A6 - 0x86]
000035A0  4EAD 15AA                jsr        [A5 + 0x15AA /* export_689, CODE:32 @ 0000234A */]
000035A4  2F3C 00FF FFFF           move.l     -[A7], 0xFFFFFF
000035AA  7000                     moveq.l    D0, 0x00
000035AC  2F00                     move.l     -[A7], D0
000035AE  486E FFAC                pea.l      [A6 - 0x54]
000035B2  4EAD 15AA                jsr        [A5 + 0x15AA /* export_689, CODE:32 @ 0000234A */]
000035B6  486E FF7A                pea.l      [A6 - 0x86]
000035BA  AA14                     syscall    RGBForeColor
000035BC  486E FFAC                pea.l      [A6 - 0x54]
000035C0  AA15                     syscall    RGBBackColor
000035C2  426E FFF0                clr.w      [A6 - 0x10]
000035C6  302E FFF0                move.w     D0, [A6 - 0x10]
000035CA  D07C 0020                add.w      D0, 0x20 /* ' ' */
000035CE  3D40 FFF4                move.w     [A6 - 0xC], D0
000035D2  426E FFEE                clr.w      [A6 - 0x12]
000035D6  3D7C 0020 FFF2           move.w     [A6 - 0xE], 0x20 /* ' ' */
000035DC  204D                     movea.l    A0, A5
000035DE  D1FC FFFF 8820           add.l      A0, 0xFFFF8820
000035E4  3010                     move.w     D0, [A0]
000035E6  48C0                     ext.l      D0
000035E8  48C6                     ext.l      D6
000035EA  9086                     sub.l      D0, D6
000035EC  E980                     asl        D0, 4
000035EE  3D40 FFF8                move.w     [A6 - 0x8], D0
000035F2  D07C 0020                add.w      D0, 0x20 /* ' ' */
000035F6  3D40 FFFC                move.w     [A6 - 0x4], D0
000035FA  204D                     movea.l    A0, A5
000035FC  D1FC FFFF 881E           add.l      A0, 0xFFFF881E
00003602  3010                     move.w     D0, [A0]
00003604  48C0                     ext.l      D0
00003606  48C7                     ext.l      D7
00003608  9087                     sub.l      D0, D7
0000360A  5A80                     addq.l     D0, 5
0000360C  E980                     asl        D0, 4
0000360E  3D40 FFF6                move.w     [A6 - 0xA], D0
00003612  D07C 0020                add.w      D0, 0x20 /* ' ' */
00003616  3D40 FFFA                move.w     [A6 - 0x6], D0
0000361A  41EE FFE6                lea.l      A0, [A6 - 0x1A]
0000361E  43EE FFF6                lea.l      A1, [A6 - 0xA]
00003622  20D9                     move.l     [A0]+, [A1]+
00003624  20D9                     move.l     [A0]+, [A1]+
00003626  486E FFE6                pea.l      [A6 - 0x1A]
0000362A  302E FFFE                move.w     D0, [A6 - 0x2]
0000362E  48C0                     ext.l      D0
00003630  E388                     lsl        D0, 1
00003632  3F00                     move.w     -[A7], D0
00003634  302E FFFE                move.w     D0, [A6 - 0x2]
00003638  48C0                     ext.l      D0
0000363A  E388                     lsl        D0, 1
0000363C  3F00                     move.w     -[A7], D0
0000363E  A8A8                     syscall    OffsetRect
00003640  204D                     movea.l    A0, A5
00003642  D1FC FFFF 881C           add.l      A0, 0xFFFF881C
00003648  3010                     move.w     D0, [A0]
0000364A  48C0                     ext.l      D0
0000364C  204D                     movea.l    A0, A5
0000364E  D1FC FFFF 881A           add.l      A0, 0xFFFF881A
00003654  3210                     move.w     D1, [A0]
00003656  48C1                     ext.l      D1
00003658  D280                     add.l      D1, D0
0000365A  7A07                     moveq.l    D5, 0x07
0000365C  CA81                     and.l      D5, D1
0000365E  48C5                     ext.l      D5
00003660  41EC 02C8                lea.l      A0, [A4 + 0x2C8]
00003664  2670 5C00                movea.l    A3, [A0 + D5 * 4]
00003668  206B 0018                movea.l    A0, [A3 + 0x18]
0000366C  5488                     addq.l     A0, 2
0000366E  2F08                     move.l     -[A7], A0
00003670  48C5                     ext.l      D5
00003672  41EC 02A8                lea.l      A0, [A4 + 0x2A8]
00003676  2F30 5C00                move.l     -[A7], [A0 + D5 * 4]
0000367A  4EBA 0D22                jsr        [PC + 0xD22 /* 0000439E */]
0000367E  588F                     addq.l     A7, 4
00003680  2F00                     move.l     -[A7], D0
00003682  2F2C 020C                move.l     -[A7], [A4 + 0x20C]
00003686  4EBA 0D16                jsr        [PC + 0xD16 /* 0000439E */]
0000368A  588F                     addq.l     A7, 4
0000368C  2F00                     move.l     -[A7], D0
0000368E  486E FFEE                pea.l      [A6 - 0x12]
00003692  486E FFEE                pea.l      [A6 - 0x12]
00003696  486E FFE6                pea.l      [A6 - 0x1A]
0000369A  7001                     moveq.l    D0, 0x01
0000369C  3F00                     move.w     -[A7], D0
0000369E  7200                     moveq.l    D1, 0x00
000036A0  2F01                     move.l     -[A7], D1
000036A2  AA51                     syscall    CopyDeepMask
000036A4  48C5                     ext.l      D5
000036A6  41EC 0288                lea.l      A0, [A4 + 0x288]
000036AA  2670 5C00                movea.l    A3, [A0 + D5 * 4]
000036AE  206B 0018                movea.l    A0, [A3 + 0x18]
000036B2  5488                     addq.l     A0, 2
000036B4  2F08                     move.l     -[A7], A0
000036B6  48C5                     ext.l      D5
000036B8  41EC 02A8                lea.l      A0, [A4 + 0x2A8]
000036BC  2F30 5C00                move.l     -[A7], [A0 + D5 * 4]
000036C0  4EBA 0CDC                jsr        [PC + 0xCDC /* 0000439E */]
000036C4  588F                     addq.l     A7, 4
000036C6  2F00                     move.l     -[A7], D0
000036C8  2F2C 020C                move.l     -[A7], [A4 + 0x20C]
000036CC  4EBA 0CD0                jsr        [PC + 0xCD0 /* 0000439E */]
000036D0  588F                     addq.l     A7, 4
000036D2  2F00                     move.l     -[A7], D0
000036D4  486E FFEE                pea.l      [A6 - 0x12]
000036D8  486E FFEE                pea.l      [A6 - 0x12]
000036DC  486E FFF6                pea.l      [A6 - 0xA]
000036E0  A817                     syscall    CopyMask
000036E2  204D                     movea.l    A0, A5
000036E4  D1FC FFFF 8812           add.l      A0, 0xFFFF8812
000036EA  4A10                     tst.b      [A0]
000036EC  4FEF 0018                lea.l      A7, [A7 + 0x18]
000036F0  6700 008C                beq        +0x8E /* 0000377E */
000036F4  204D                     movea.l    A0, A5
000036F6  D1FC FFFF 8818           add.l      A0, 0xFFFF8818
000036FC  3010                     move.w     D0, [A0]
000036FE  48C0                     ext.l      D0
00003700  48C6                     ext.l      D6
00003702  9086                     sub.l      D0, D6
00003704  E980                     asl        D0, 4
00003706  3D40 FFE0                move.w     [A6 - 0x20], D0
0000370A  D07C 0020                add.w      D0, 0x20 /* ' ' */
0000370E  3D40 FFE4                move.w     [A6 - 0x1C], D0
00003712  204D                     movea.l    A0, A5
00003714  D1FC FFFF 8816           add.l      A0, 0xFFFF8816
0000371A  3010                     move.w     D0, [A0]
0000371C  48C0                     ext.l      D0
0000371E  48C7                     ext.l      D7
00003720  9087                     sub.l      D0, D7
00003722  5A80                     addq.l     D0, 5
00003724  E980                     asl        D0, 4
00003726  3D40 FFDE                move.w     [A6 - 0x22], D0
0000372A  D07C 0020                add.w      D0, 0x20 /* ' ' */
0000372E  3D40 FFE2                move.w     [A6 - 0x1E], D0
00003732  426E FFF0                clr.w      [A6 - 0x10]
00003736  302E FFF0                move.w     D0, [A6 - 0x10]
0000373A  D07C 0020                add.w      D0, 0x20 /* ' ' */
0000373E  3D40 FFF4                move.w     [A6 - 0xC], D0
00003742  426E FFEE                clr.w      [A6 - 0x12]
00003746  3D7C 0020 FFF2           move.w     [A6 - 0xE], 0x20 /* ' ' */
0000374C  266C 02E8                movea.l    A3, [A4 + 0x2E8]
00003750  206B 0018                movea.l    A0, [A3 + 0x18]
00003754  5488                     addq.l     A0, 2
00003756  2F08                     move.l     -[A7], A0
00003758  2F2C 0308                move.l     -[A7], [A4 + 0x308]
0000375C  4EBA 0C40                jsr        [PC + 0xC40 /* 0000439E */]
00003760  588F                     addq.l     A7, 4
00003762  2F00                     move.l     -[A7], D0
00003764  2F2C 020C                move.l     -[A7], [A4 + 0x20C]
00003768  4EBA 0C34                jsr        [PC + 0xC34 /* 0000439E */]
0000376C  588F                     addq.l     A7, 4
0000376E  2F00                     move.l     -[A7], D0
00003770  486E FFEE                pea.l      [A6 - 0x12]
00003774  486E FFEE                pea.l      [A6 - 0x12]
00003778  486E FFDE                pea.l      [A6 - 0x22]
0000377C  A817                     syscall    CopyMask
label0000377E:
0000377E  7002                     moveq.l    D0, 0x02
00003780  2F00                     move.l     -[A7], D0
00003782  486E FFAC                pea.l      [A6 - 0x54]
00003786  4EAD 15D2                jsr        [A5 + 0x15D2 /* export_694, CODE:32 @ 000029D6 */]
0000378A  7002                     moveq.l    D0, 0x02
0000378C  2F00                     move.l     -[A7], D0
0000378E  486E FF7A                pea.l      [A6 - 0x86]
00003792  4EAD 15D2                jsr        [A5 + 0x15D2 /* export_694, CODE:32 @ 000029D6 */]
00003796  4FEF 0010                lea.l      A7, [A7 + 0x10]
label0000379A:
0000379A  4CEE 18E0 FF66           movem.l    D5,D6,D7,A3,A4, [A6 - 0x9A]
000037A0  4E5E                     unlink     A6
000037A2  4E75                     rts
000037A4  8021 4472 6177 4469 7... dc.b       "DrawDisasters__14cFarmEditTilesFv"
export_216:
000037CA  4E56 0000                link       A6, 0
000037CE  48E7 0F08                movem.l    -[A7], D4,D5,D6,D7,A4
000037D2  382E 0012                move.w     D4, [A6 + 0x12]
000037D6  3A2E 000E                move.w     D5, [A6 + 0xE]
000037DA  286E 0008                movea.l    A4, [A6 + 0x8]
000037DE  4EAD 011A                jsr        [A5 + 0x11A /* export_31, CODE:1 @ 00001C7C */]
000037E2  2F2C 0112                move.l     -[A7], [A4 + 0x112]
000037E6  4EAD 11E2                jsr        [A5 + 0x11E2 /* export_568, CODE:26 @ 000031FA */]
000037EA  7000                     moveq.l    D0, 0x00
000037EC  2F00                     move.l     -[A7], D0
000037EE  2F00                     move.l     -[A7], D0
000037F0  2F2C 0112                move.l     -[A7], [A4 + 0x112]
000037F4  4EAD 1202                jsr        [A5 + 0x1202 /* export_572, CODE:26 @ 000033B8 */]
000037F8  2F2C 01DC                move.l     -[A7], [A4 + 0x1DC]
000037FC  2F2C 0112                move.l     -[A7], [A4 + 0x112]
00003800  4EAD 1272                jsr        [A5 + 0x1272 /* export_586, CODE:26 @ 00003912 */]
00003804  4246                     clr.w      D6
00003806  4FEF 0018                lea.l      A7, [A7 + 0x18]
0000380A  603E                     bra        +0x40 /* 0000384A */
label0000380C:
0000380C  4247                     clr.w      D7
0000380E  6030                     bra        +0x32 /* 00003840 */
label00003810:
00003810  7000                     moveq.l    D0, 0x00
00003812  2F00                     move.l     -[A7], D0
00003814  3204                     move.w     D1, D4
00003816  D247                     add.w      D1, D7
00003818  48C1                     ext.l      D1
0000381A  2F01                     move.l     -[A7], D1
0000381C  3205                     move.w     D1, D5
0000381E  D246                     add.w      D1, D6
00003820  48C1                     ext.l      D1
00003822  2F01                     move.l     -[A7], D1
00003824  204C                     movea.l    A0, A4
00003826  226C 0060                movea.l    A1, [A4 + 0x60]
0000382A  D0E9 0190                add.w      A0, [A1 + 0x190]
0000382E  2F08                     move.l     -[A7], A0
00003830  2049                     movea.l    A0, A1
00003832  2268 0194                movea.l    A1, [A0 + 0x194]
00003836  4E91                     jsr        [A1]
00003838  4FEF 0010                lea.l      A7, [A7 + 0x10]
0000383C  3007                     move.w     D0, D7
0000383E  5247                     addq.w     D7, 1
label00003840:
00003840  BE6E 001A                cmp.w      D7, [A6 + 0x1A]
00003844  6DCA                     blt        -0x34 /* 00003810 */
00003846  3006                     move.w     D0, D6
00003848  5246                     addq.w     D6, 1
label0000384A:
0000384A  BC6E 0016                cmp.w      D6, [A6 + 0x16]
0000384E  6DBC                     blt        -0x42 /* 0000380C */
00003850  7000                     moveq.l    D0, 0x00
00003852  2F00                     move.l     -[A7], D0
00003854  2F2C 0112                move.l     -[A7], [A4 + 0x112]
00003858  4EAD 1282                jsr        [A5 + 0x1282 /* export_588, CODE:26 @ 00003A24 */]
0000385C  2F2C 0112                move.l     -[A7], [A4 + 0x112]
00003860  4EAD 120A                jsr        [A5 + 0x120A /* export_573, CODE:26 @ 00003404 */]
00003864  2F2C 0112                move.l     -[A7], [A4 + 0x112]
00003868  4EAD 11EA                jsr        [A5 + 0x11EA /* export_569, CODE:26 @ 00003268 */]
0000386C  4EAD 011A                jsr        [A5 + 0x11A /* export_31, CODE:1 @ 00001C7C */]
00003870  4FEF 0010                lea.l      A7, [A7 + 0x10]
00003874  4CEE 10F0 FFEC           movem.l    D4,D5,D6,D7,A4, [A6 - 0x14]
0000387A  4E5E                     unlink     A6
0000387C  4E75                     rts
0000387E  8024 4472 6177 5469 6... dc.b       "DrawTileGroup__14cFarmEditTilesFsN31"
export_217:
fn000038A6:
000038A6  4E56 0000                link       A6, 0
000038AA  48E7 1300                movem.l    -[A7], D3,D6,D7
000038AE  4246                     clr.w      D6
000038B0  7660                     moveq.l    D3, 0x60
000038B2  602A                     bra        +0x2C /* 000038DE */
label000038B4:
000038B4  4247                     clr.w      D7
000038B6  601E                     bra        +0x20 /* 000038D6 */
label000038B8:
000038B8  2006                     move.l     D0, D6
000038BA  C1FC 00C0                muls.w     D0, 0xC0
000038BE  204D                     movea.l    A0, A5
000038C0  D1FC FFFE 42D4           add.l      A0, 0xFFFE42D4
000038C6  2207                     move.l     D1, D7
000038C8  D241                     add.w      D1, D1
000038CA  D240                     add.w      D1, D0
000038CC  0270 BFFF 1000           andi.w     [A0 + D1.w], 0xBFFF
000038D2  3007                     move.w     D0, D7
000038D4  5247                     addq.w     D7, 1
label000038D6:
000038D6  B647                     cmp.w      D3, D7
000038D8  6EDE                     bgt        -0x20 /* 000038B8 */
000038DA  3006                     move.w     D0, D6
000038DC  5246                     addq.w     D6, 1
label000038DE:
000038DE  B646                     cmp.w      D3, D6
000038E0  6ED2                     bgt        -0x2C /* 000038B4 */
000038E2  7000                     moveq.l    D0, 0x00
000038E4  2F00                     move.l     -[A7], D0
000038E6  2F2E 0008                move.l     -[A7], [A6 + 0x8]
000038EA  2F3C 434D 6170           move.l     -[A7], 0x434D6170 /* 'CMap' */
000038F0  4EAD 189A                jsr        [A5 + 0x189A /* export_783, CODE:32 @ 000062EE */]
000038F4  4FEF 000C                lea.l      A7, [A7 + 0xC]
000038F8  4CEE 00C8 FFF4           movem.l    D3,D6,D7, [A6 - 0xC]
000038FE  4E5E                     unlink     A6
00003900  4E75                     rts
00003902  8028 4164 6A75 7374 6... dc.b       "AdjustedTheView__14cFarmEditTilesF5Point"
export_218:
0000392E  4E56 FFFC                link       A6, -0x0004
00003932  2F0C                     move.l     -[A7], A4
00003934  286E 0008                movea.l    A4, [A6 + 0x8]
00003938  2D6E 000C FFFC           move.l     [A6 - 0x4], [A6 + 0xC]
0000393E  302C 01D0                move.w     D0, [A4 + 0x1D0]
00003942  48C0                     ext.l      D0
00003944  322C 01D8                move.w     D1, [A4 + 0x1D8]
00003948  48C1                     ext.l      D1
0000394A  9081                     sub.l      D0, D1
0000394C  322E FFFC                move.w     D1, [A6 - 0x4]
00003950  48C1                     ext.l      D1
00003952  B081                     cmp.l      D0, D1
00003954  6C0C                     bge        +0xE /* 00003962 */
00003956  302C 01D0                move.w     D0, [A4 + 0x1D0]
0000395A  906C 01D8                sub.w      D0, [A4 + 0x1D8]
0000395E  3D40 FFFC                move.w     [A6 - 0x4], D0
label00003962:
00003962  4A6E FFFC                tst.w      [A6 - 0x4]
00003966  6C04                     bge        +0x6 /* 0000396C */
00003968  426E FFFC                clr.w      [A6 - 0x4]
label0000396C:
0000396C  302C 01D2                move.w     D0, [A4 + 0x1D2]
00003970  48C0                     ext.l      D0
00003972  322C 01DA                move.w     D1, [A4 + 0x1DA]
00003976  48C1                     ext.l      D1
00003978  9081                     sub.l      D0, D1
0000397A  322E FFFE                move.w     D1, [A6 - 0x2]
0000397E  48C1                     ext.l      D1
00003980  B081                     cmp.l      D0, D1
00003982  6C0C                     bge        +0xE /* 00003990 */
00003984  302C 01D2                move.w     D0, [A4 + 0x1D2]
00003988  906C 01DA                sub.w      D0, [A4 + 0x1DA]
0000398C  3D40 FFFE                move.w     [A6 - 0x2], D0
label00003990:
00003990  4A6E FFFE                tst.w      [A6 - 0x2]
00003994  6C04                     bge        +0x6 /* 0000399A */
00003996  426E FFFE                clr.w      [A6 - 0x2]
label0000399A:
0000399A  302C 01D6                move.w     D0, [A4 + 0x1D6]
0000399E  916E FFFE                sub.w      [A6 - 0x2], D0
000039A2  302C 01D6                move.w     D0, [A4 + 0x1D6]
000039A6  916E FFFC                sub.w      [A6 - 0x4], D0
000039AA  2F2E FFFC                move.l     -[A7], [A6 - 0x4]
000039AE  2F0C                     move.l     -[A7], A4
000039B0  4EBA FEF4                jsr        [PC - 0x10C /* 000038A6 */]
000039B4  2F2E 000C                move.l     -[A7], [A6 + 0xC]
000039B8  2F0C                     move.l     -[A7], A4
000039BA  4EAD 21E2                jsr        [A5 + 0x21E2 /* export_1080, CODE:40 @ 0000235A */]
000039BE  286E FFF8                movea.l    A4, [A6 - 0x8]
000039C2  4E5E                     unlink     A6
000039C4  4E75                     rts
000039C6  8026 5363 726F 6C6C 4... dc.b       "ScrollContent__14cFarmEditTilesF5Point"
export_219:
000039F0  4E56 FFF8                link       A6, -0x0008
000039F4  2F0C                     move.l     -[A7], A4
000039F6  286E 0008                movea.l    A4, [A6 + 0x8]
000039FA  2F2C 0112                move.l     -[A7], [A4 + 0x112]
000039FE  4EAD 11E2                jsr        [A5 + 0x11E2 /* export_568, CODE:26 @ 000031FA */]
00003A02  7000                     moveq.l    D0, 0x00
00003A04  2F00                     move.l     -[A7], D0
00003A06  2F00                     move.l     -[A7], D0
00003A08  2F2C 0112                move.l     -[A7], [A4 + 0x112]
00003A0C  4EAD 1202                jsr        [A5 + 0x1202 /* export_572, CODE:26 @ 000033B8 */]
00003A10  2F2C 01DC                move.l     -[A7], [A4 + 0x1DC]
00003A14  2F2C 0112                move.l     -[A7], [A4 + 0x112]
00003A18  4EAD 1272                jsr        [A5 + 0x1272 /* export_586, CODE:26 @ 00003912 */]
00003A1C  302E 000E                move.w     D0, [A6 + 0xE]
00003A20  48C0                     ext.l      D0
00003A22  E988                     lsl        D0, 4
00003A24  3940 0216                move.w     [A4 + 0x216], D0
00003A28  302E 0016                move.w     D0, [A6 + 0x16]
00003A2C  48C0                     ext.l      D0
00003A2E  E988                     lsl        D0, 4
00003A30  D06C 0216                add.w      D0, [A4 + 0x216]
00003A34  3940 021A                move.w     [A4 + 0x21A], D0
00003A38  302E 0012                move.w     D0, [A6 + 0x12]
00003A3C  48C0                     ext.l      D0
00003A3E  E988                     lsl        D0, 4
00003A40  3940 0214                move.w     [A4 + 0x214], D0
00003A44  302E 001A                move.w     D0, [A6 + 0x1A]
00003A48  48C0                     ext.l      D0
00003A4A  E988                     lsl        D0, 4
00003A4C  D06C 0214                add.w      D0, [A4 + 0x214]
00003A50  3940 0218                move.w     [A4 + 0x218], D0
00003A54  41EE FFF8                lea.l      A0, [A6 - 0x8]
00003A58  43EC 0214                lea.l      A1, [A4 + 0x214]
00003A5C  20D9                     move.l     [A0]+, [A1]+
00003A5E  20D9                     move.l     [A0]+, [A1]+
00003A60  486E FFF8                pea.l      [A6 - 0x8]
00003A64  206C 01DC                movea.l    A0, [A4 + 0x1DC]
00003A68  2050                     movea.l    A0, [A0]
00003A6A  3028 0004                move.w     D0, [A0 + 0x4]
00003A6E  906C 01D6                sub.w      D0, [A4 + 0x1D6]
00003A72  3F00                     move.w     -[A7], D0
00003A74  206C 01DC                movea.l    A0, [A4 + 0x1DC]
00003A78  2050                     movea.l    A0, [A0]
00003A7A  3028 0002                move.w     D0, [A0 + 0x2]
00003A7E  906C 01D4                sub.w      D0, [A4 + 0x1D4]
00003A82  3F00                     move.w     -[A7], D0
00003A84  A8A8                     syscall    OffsetRect
00003A86  486E FFF8                pea.l      [A6 - 0x8]
00003A8A  2F0C                     move.l     -[A7], A4
00003A8C  4EAD 1B0A                jsr        [A5 + 0x1B0A /* export_861, CODE:34 @ 000036C4 */]
00003A90  7000                     moveq.l    D0, 0x00
00003A92  2F00                     move.l     -[A7], D0
00003A94  2F2C 0112                move.l     -[A7], [A4 + 0x112]
00003A98  4EAD 1282                jsr        [A5 + 0x1282 /* export_588, CODE:26 @ 00003A24 */]
00003A9C  2F2C 0112                move.l     -[A7], [A4 + 0x112]
00003AA0  4EAD 120A                jsr        [A5 + 0x120A /* export_573, CODE:26 @ 00003404 */]
00003AA4  2F2C 0112                move.l     -[A7], [A4 + 0x112]
00003AA8  4EAD 11EA                jsr        [A5 + 0x11EA /* export_569, CODE:26 @ 00003268 */]
00003AAC  286E FFF4                movea.l    A4, [A6 - 0xC]
00003AB0  4E5E                     unlink     A6
00003AB2  4E75                     rts
00003AB4  8026 4869 4C69 7465 5... dc.b       "HiLiteTileGroup__14cFarmEditTilesFsN31"
export_220:
00003ADE  4E56 FFF8                link       A6, -0x0008
00003AE2  2F0C                     move.l     -[A7], A4
00003AE4  286E 0008                movea.l    A4, [A6 + 0x8]
00003AE8  2F2C 0112                move.l     -[A7], [A4 + 0x112]
00003AEC  4EAD 11E2                jsr        [A5 + 0x11E2 /* export_568, CODE:26 @ 000031FA */]
00003AF0  7000                     moveq.l    D0, 0x00
00003AF2  2F00                     move.l     -[A7], D0
00003AF4  2F00                     move.l     -[A7], D0
00003AF6  2F2C 0112                move.l     -[A7], [A4 + 0x112]
00003AFA  4EAD 1202                jsr        [A5 + 0x1202 /* export_572, CODE:26 @ 000033B8 */]
00003AFE  2F2C 01DC                move.l     -[A7], [A4 + 0x1DC]
00003B02  2F2C 0112                move.l     -[A7], [A4 + 0x112]
00003B06  4EAD 1272                jsr        [A5 + 0x1272 /* export_586, CODE:26 @ 00003912 */]
00003B0A  302E 000E                move.w     D0, [A6 + 0xE]
00003B0E  48C0                     ext.l      D0
00003B10  E988                     lsl        D0, 4
00003B12  3D40 FFFA                move.w     [A6 - 0x6], D0
00003B16  302E 0012                move.w     D0, [A6 + 0x12]
00003B1A  48C0                     ext.l      D0
00003B1C  E988                     lsl        D0, 4
00003B1E  3D40 FFF8                move.w     [A6 - 0x8], D0
00003B22  302E 0016                move.w     D0, [A6 + 0x16]
00003B26  48C0                     ext.l      D0
00003B28  E988                     lsl        D0, 4
00003B2A  D06E FFFA                add.w      D0, [A6 - 0x6]
00003B2E  3D40 FFFE                move.w     [A6 - 0x2], D0
00003B32  302E 001A                move.w     D0, [A6 + 0x1A]
00003B36  48C0                     ext.l      D0
00003B38  E988                     lsl        D0, 4
00003B3A  D06E FFF8                add.w      D0, [A6 - 0x8]
00003B3E  3D40 FFFC                move.w     [A6 - 0x4], D0
00003B42  397C FFFF 0216           move.w     [A4 + 0x216], 0xFFFF
00003B48  486E FFF8                pea.l      [A6 - 0x8]
00003B4C  206C 01DC                movea.l    A0, [A4 + 0x1DC]
00003B50  2050                     movea.l    A0, [A0]
00003B52  3028 0004                move.w     D0, [A0 + 0x4]
00003B56  906C 01D6                sub.w      D0, [A4 + 0x1D6]
00003B5A  3F00                     move.w     -[A7], D0
00003B5C  206C 01DC                movea.l    A0, [A4 + 0x1DC]
00003B60  2050                     movea.l    A0, [A0]
00003B62  3028 0002                move.w     D0, [A0 + 0x2]
00003B66  906C 01D4                sub.w      D0, [A4 + 0x1D4]
00003B6A  3F00                     move.w     -[A7], D0
00003B6C  A8A8                     syscall    OffsetRect
00003B6E  486E FFF8                pea.l      [A6 - 0x8]
00003B72  2F0C                     move.l     -[A7], A4
00003B74  4EAD 1B0A                jsr        [A5 + 0x1B0A /* export_861, CODE:34 @ 000036C4 */]
00003B78  7000                     moveq.l    D0, 0x00
00003B7A  2F00                     move.l     -[A7], D0
00003B7C  2F2C 0112                move.l     -[A7], [A4 + 0x112]
00003B80  4EAD 1282                jsr        [A5 + 0x1282 /* export_588, CODE:26 @ 00003A24 */]
00003B84  2F2C 0112                move.l     -[A7], [A4 + 0x112]
00003B88  4EAD 120A                jsr        [A5 + 0x120A /* export_573, CODE:26 @ 00003404 */]
00003B8C  2F2C 0112                move.l     -[A7], [A4 + 0x112]
00003B90  4EAD 11EA                jsr        [A5 + 0x11EA /* export_569, CODE:26 @ 00003268 */]
00003B94  286E FFF4                movea.l    A4, [A6 - 0xC]
00003B98  4E5E                     unlink     A6
00003B9A  4E75                     rts
00003B9C  8028 556E 4869 4C69 7... dc.b       "UnHiLiteTileGroup__14cFarmEditTilesFsN31"
export_221:
00003BC8  4E56 0000                link       A6, 0
00003BCC  48E7 0108                movem.l    -[A7], D7,A4
00003BD0  2E2E 000C                move.l     D7, [A6 + 0xC]
00003BD4  286E 0008                movea.l    A4, [A6 + 0x8]
00003BD8  200C                     move.l     D0, A4
00003BDA  6700 00E0                beq        +0xE2 /* 00003CBC */
00003BDE  206C 0064                movea.l    A0, [A4 + 0x64]
00003BE2  224D                     movea.l    A1, A5
00003BE4  D3FC FFFF 36A6           add.l      A1, 0xFFFF36A6
00003BEA  2151 0008                move.l     [A0 + 0x8], [A1]
00003BEE  204D                     movea.l    A0, A5
00003BF0  D1FC FFFF 36A2           add.l      A0, 0xFFFF36A2
00003BF6  2950 0070                move.l     [A4 + 0x70], [A0]
00003BFA  204D                     movea.l    A0, A5
00003BFC  D1FC FFFF 369E           add.l      A0, 0xFFFF369E
00003C02  2950 0088                move.l     [A4 + 0x88], [A0]
00003C06  204D                     movea.l    A0, A5
00003C08  D1FC FFFF 369A           add.l      A0, 0xFFFF369A
00003C0E  2950 0060                move.l     [A4 + 0x60], [A0]
00003C12  4AAC 0230                tst.l      [A4 + 0x230]
00003C16  6730                     beq        +0x32 /* 00003C48 */
00003C18  4AAC 0230                tst.l      [A4 + 0x230]
00003C1C  6728                     beq        +0x2A /* 00003C46 */
00003C1E  7003                     moveq.l    D0, 0x03
00003C20  2F00                     move.l     -[A7], D0
00003C22  206C 0230                movea.l    A0, [A4 + 0x230]
00003C26  2248                     movea.l    A1, A0
00003C28  2269 0008                movea.l    A1, [A1 + 0x8]
00003C2C  D0E9 0030                add.w      A0, [A1 + 0x30]
00003C30  2F08                     move.l     -[A7], A0
00003C32  206C 0230                movea.l    A0, [A4 + 0x230]
00003C36  2068 0008                movea.l    A0, [A0 + 0x8]
00003C3A  2268 0034                movea.l    A1, [A0 + 0x34]
00003C3E  4E91                     jsr        [A1]
00003C40  7000                     moveq.l    D0, 0x00
00003C42  504F                     addq.w     A7, 8
00003C44  6002                     bra        +0x4 /* 00003C48 */
label00003C46:
00003C46  7000                     moveq.l    D0, 0x00
label00003C48:
00003C48  4AAC 0234                tst.l      [A4 + 0x234]
00003C4C  6730                     beq        +0x32 /* 00003C7E */
00003C4E  4AAC 0234                tst.l      [A4 + 0x234]
00003C52  6728                     beq        +0x2A /* 00003C7C */
00003C54  7003                     moveq.l    D0, 0x03
00003C56  2F00                     move.l     -[A7], D0
00003C58  206C 0234                movea.l    A0, [A4 + 0x234]
00003C5C  2248                     movea.l    A1, A0
00003C5E  2269 0008                movea.l    A1, [A1 + 0x8]
00003C62  D0E9 0030                add.w      A0, [A1 + 0x30]
00003C66  2F08                     move.l     -[A7], A0
00003C68  206C 0234                movea.l    A0, [A4 + 0x234]
00003C6C  2068 0008                movea.l    A0, [A0 + 0x8]
00003C70  2268 0034                movea.l    A1, [A0 + 0x34]
00003C74  4E91                     jsr        [A1]
00003C76  7000                     moveq.l    D0, 0x00
00003C78  504F                     addq.w     A7, 8
00003C7A  6002                     bra        +0x4 /* 00003C7E */
label00003C7C:
00003C7C  7000                     moveq.l    D0, 0x00
label00003C7E:
00003C7E  200C                     move.l     D0, A4
00003C80  673A                     beq        +0x3C /* 00003CBC */
00003C82  7000                     moveq.l    D0, 0x00
00003C84  2F00                     move.l     -[A7], D0
00003C86  2F0C                     move.l     -[A7], A4
00003C88  4EAD 1ABA                jsr        [A5 + 0x1ABA /* export_851, CODE:34 @ 00002AA4 */]
00003C8C  7002                     moveq.l    D0, 0x02
00003C8E  C087                     and.l      D0, D7
00003C90  6718                     beq        +0x1A /* 00003CAA */
00003C92  7000                     moveq.l    D0, 0x00
00003C94  2F00                     move.l     -[A7], D0
00003C96  220C                     move.l     D1, A4
00003C98  D2BC 0000 0328           add.l      D1, 0x328
00003C9E  2F01                     move.l     -[A7], D1
00003CA0  4EAD 1632                jsr        [A5 + 0x1632 /* export_706, CODE:32 @ 000036CC */]
00003CA4  7000                     moveq.l    D0, 0x00
00003CA6  504F                     addq.w     A7, 8
00003CA8  6002                     bra        +0x4 /* 00003CAC */
label00003CAA:
00003CAA  7000                     moveq.l    D0, 0x00
label00003CAC:
00003CAC  0807 0000                btst.b     D7, 0x0
00003CB0  504F                     addq.w     A7, 8
00003CB2  6708                     beq        +0xA /* 00003CBC */
00003CB4  2F0C                     move.l     -[A7], A4
00003CB6  4EAD 0102                jsr        [A5 + 0x102 /* export_28, CODE:1 @ 00001BE0 */]
00003CBA  584F                     addq.w     A7, 4
label00003CBC:
00003CBC  4CEE 1080 FFF8           movem.l    D7,A4, [A6 - 0x8]
00003CC2  4E5E                     unlink     A6
00003CC4  4E75                     rts
00003CC6  985F 5F64 745F 5F31 3... dc.b       "__dt__14cFarmEditTilesFv"
export_222:
00003CE2  4E56 FFFC                link       A6, -0x0004
00003CE6  2F0C                     move.l     -[A7], A4
00003CE8  286E 0008                movea.l    A4, [A6 + 0x8]
00003CEC  42AE FFFC                clr.l      [A6 - 0x4]
00003CF0  2F2E FFFC                move.l     -[A7], [A6 - 0x4]
00003CF4  2F0C                     move.l     -[A7], A4
00003CF6  4EBA FBAE                jsr        [PC - 0x452 /* 000038A6 */]
00003CFA  302E 0012                move.w     D0, [A6 + 0x12]
00003CFE  48C0                     ext.l      D0
00003D00  2F00                     move.l     -[A7], D0
00003D02  302E 000E                move.w     D0, [A6 + 0xE]
00003D06  48C0                     ext.l      D0
00003D08  2F00                     move.l     -[A7], D0
00003D0A  2F0C                     move.l     -[A7], A4
00003D0C  4EAD 1AC2                jsr        [A5 + 0x1AC2 /* export_852, CODE:34 @ 00002BA4 */]
00003D10  286E FFF8                movea.l    A4, [A6 - 0x8]
00003D14  4E5E                     unlink     A6
00003D16  4E75                     rts
00003D18  9C52 6573 697A 655F 5... dc.b       "Resize__14cFarmEditTilesFsT1"
fn00003D38:
00003D38  4E56 FFD4                link       A6, -0x002C
00003D3C  48E7 1F18                movem.l    -[A7], D3,D4,D5,D6,D7,A3,A4
00003D40  3C2E 001E                move.w     D6, [A6 + 0x1E]
00003D44  286E 0008                movea.l    A4, [A6 + 0x8]
00003D48  266E 0018                movea.l    A3, [A6 + 0x18]
00003D4C  6000 0256                bra        +0x258 /* 00003FA4 */
label00003D50:
00003D50  206E 000C                movea.l    A0, [A6 + 0xC]
00003D54  7000                     moveq.l    D0, 0x00
00003D56  3010                     move.w     D0, [A0]
00003D58  323C 4000                move.w     D1, 0x4000 /* '@\0' */
00003D5C  C240                     and.w      D1, D0
00003D5E  7000                     moveq.l    D0, 0x00
00003D60  3001                     move.w     D0, D1
00003D62  4A80                     tst.l      D0
00003D64  6600 0228                bne        +0x22A /* 00003F8E */
00003D68  0050 4000                ori.w      [A0], 0x4000 /* '@\0' */
00003D6C  206E 000C                movea.l    A0, [A6 + 0xC]
00003D70  7000                     moveq.l    D0, 0x00
00003D72  3010                     move.w     D0, [A0]
00003D74  323C 0800                move.w     D1, 0x800
00003D78  C240                     and.w      D1, D0
00003D7A  6700 0206                beq        +0x208 /* 00003F82 */
00003D7E  206E 0010                movea.l    A0, [A6 + 0x10]
00003D82  7000                     moveq.l    D0, 0x00
00003D84  3010                     move.w     D0, [A0]
00003D86  0C40 0350                cmpi.w     D0, 0x350
00003D8A  6500 01F6                bcs        +0x1F8 /* 00003F82 */
00003D8E  206E 0010                movea.l    A0, [A6 + 0x10]
00003D92  7000                     moveq.l    D0, 0x00
00003D94  3010                     move.w     D0, [A0]
00003D96  90BC 0000 0350           sub.l      D0, 0x350
00003D9C  7200                     moveq.l    D1, 0x00
00003D9E  322C 0212                move.w     D1, [A4 + 0x212]
00003DA2  2801                     move.l     D4, D1
00003DA4  C880                     and.l      D4, D0
00003DA6  52AC 021C                addq.l     [A4 + 0x21C], 1
00003DAA  7000                     moveq.l    D0, 0x00
00003DAC  3004                     move.w     D0, D4
00003DAE  322C 0200                move.w     D1, [A4 + 0x200]
00003DB2  48C1                     ext.l      D1
00003DB4  4C41 0802                divs.l     D2:D0, D1
00003DB8  E982                     asl        D2, 4
00003DBA  2A02                     move.l     D5, D2
00003DBC  7000                     moveq.l    D0, 0x00
00003DBE  3004                     move.w     D0, D4
00003DC0  322C 0200                move.w     D1, [A4 + 0x200]
00003DC4  48C1                     ext.l      D1
00003DC6  4C41 0800                divs.l     D0:D0, D1
00003DCA  E980                     asl        D0, 4
00003DCC  206C 0234                movea.l    A0, [A4 + 0x234]
00003DD0  2D48 FFF0                move.l     [A6 - 0x10], A0
00003DD4  2068 0018                movea.l    A0, [A0 + 0x18]
00003DD8  2068 0002                movea.l    A0, [A0 + 0x2]
00003DDC  2050                     movea.l    A0, [A0]
00003DDE  3228 0004                move.w     D1, [A0 + 0x4]
00003DE2  48C1                     ext.l      D1
00003DE4  343C 7FFF                move.w     D2, 0x7FFF
00003DE8  C441                     and.w      D2, D1
00003DEA  7200                     moveq.l    D1, 0x00
00003DEC  3202                     move.w     D1, D2
00003DEE  4A81                     tst.l      D1
00003DF0  4C00 1800                muls.l     D1, D0
00003DF4  D285                     add.l      D1, D5
00003DF6  2D41 FFE4                move.l     [A6 - 0x1C], D1
00003DFA  7000                     moveq.l    D0, 0x00
00003DFC  3004                     move.w     D0, D4
00003DFE  322C 0200                move.w     D1, [A4 + 0x200]
00003E02  48C1                     ext.l      D1
00003E04  4C41 0800                divs.l     D0:D0, D1
00003E08  E980                     asl        D0, 4
00003E0A  206C 0230                movea.l    A0, [A4 + 0x230]
00003E0E  2D48 FFF4                move.l     [A6 - 0xC], A0
00003E12  2068 0018                movea.l    A0, [A0 + 0x18]
00003E16  2068 0002                movea.l    A0, [A0 + 0x2]
00003E1A  2050                     movea.l    A0, [A0]
00003E1C  3228 0004                move.w     D1, [A0 + 0x4]
00003E20  48C1                     ext.l      D1
00003E22  343C 7FFF                move.w     D2, 0x7FFF
00003E26  C441                     and.w      D2, D1
00003E28  7200                     moveq.l    D1, 0x00
00003E2A  3202                     move.w     D1, D2
00003E2C  4A81                     tst.l      D1
00003E2E  4C00 1800                muls.l     D1, D0
00003E32  DA81                     add.l      D5, D1
00003E34  2D6C 0230 FFF8           move.l     [A6 - 0x8], [A4 + 0x230]
00003E3A  598F                     subq.l     A7, 4
00003E3C  206E FFF8                movea.l    A0, [A6 - 0x8]
00003E40  2068 0018                movea.l    A0, [A0 + 0x18]
00003E44  2F28 0002                move.l     -[A7], [A0 + 0x2]
00003E48  203C 0004 000F           move.l     D0, 0x4000F
00003E4E  AB1D                     syscall    QDExtensions
00003E50  2005                     move.l     D0, D5
00003E52  D09F                     add.l      D0, [A7]+
00003E54  2D40 FFE8                move.l     [A6 - 0x18], D0
00003E58  2D6C 0234 FFFC           move.l     [A6 - 0x4], [A4 + 0x234]
00003E5E  598F                     subq.l     A7, 4
00003E60  206E FFFC                movea.l    A0, [A6 - 0x4]
00003E64  2068 0018                movea.l    A0, [A0 + 0x18]
00003E68  2F28 0002                move.l     -[A7], [A0 + 0x2]
00003E6C  203C 0004 000F           move.l     D0, 0x4000F
00003E72  AB1D                     syscall    QDExtensions
00003E74  202E FFE4                move.l     D0, [A6 - 0x1C]
00003E78  D09F                     add.l      D0, [A7]+
00003E7A  2D40 FFEC                move.l     [A6 - 0x14], D0
00003E7E  4247                     clr.w      D7
00003E80  7610                     moveq.l    D3, 0x10
00003E82  6000 00F6                bra        +0xF8 /* 00003F7A */
label00003E86:
00003E86  2D6E FFE8 FFD4           move.l     [A6 - 0x2C], [A6 - 0x18]
00003E8C  2D6E FFEC FFD8           move.l     [A6 - 0x28], [A6 - 0x14]
00003E92  206E 0018                movea.l    A0, [A6 + 0x18]
00003E96  2D48 FFDC                move.l     [A6 - 0x24], A0
00003E9A  226E FFD8                movea.l    A1, [A6 - 0x28]
00003E9E  58AE FFD8                addq.l     [A6 - 0x28], 4
00003EA2  2011                     move.l     D0, [A1]
00003EA4  4680                     not.l      D0
00003EA6  C190                     and.l      [A0], D0
00003EA8  206E FFDC                movea.l    A0, [A6 - 0x24]
00003EAC  58AE FFDC                addq.l     [A6 - 0x24], 4
00003EB0  226E FFD4                movea.l    A1, [A6 - 0x2C]
00003EB4  58AE FFD4                addq.l     [A6 - 0x2C], 4
00003EB8  2011                     move.l     D0, [A1]
00003EBA  8190                     or.l       [A0], D0
00003EBC  206E FFDC                movea.l    A0, [A6 - 0x24]
00003EC0  226E FFD8                movea.l    A1, [A6 - 0x28]
00003EC4  58AE FFD8                addq.l     [A6 - 0x28], 4
00003EC8  2011                     move.l     D0, [A1]
00003ECA  4680                     not.l      D0
00003ECC  C190                     and.l      [A0], D0
00003ECE  206E FFDC                movea.l    A0, [A6 - 0x24]
00003ED2  58AE FFDC                addq.l     [A6 - 0x24], 4
00003ED6  226E FFD4                movea.l    A1, [A6 - 0x2C]
00003EDA  58AE FFD4                addq.l     [A6 - 0x2C], 4
00003EDE  2011                     move.l     D0, [A1]
00003EE0  8190                     or.l       [A0], D0
00003EE2  206E FFDC                movea.l    A0, [A6 - 0x24]
00003EE6  226E FFD8                movea.l    A1, [A6 - 0x28]
00003EEA  58AE FFD8                addq.l     [A6 - 0x28], 4
00003EEE  2011                     move.l     D0, [A1]
00003EF0  4680                     not.l      D0
00003EF2  C190                     and.l      [A0], D0
00003EF4  206E FFDC                movea.l    A0, [A6 - 0x24]
00003EF8  58AE FFDC                addq.l     [A6 - 0x24], 4
00003EFC  226E FFD4                movea.l    A1, [A6 - 0x2C]
00003F00  58AE FFD4                addq.l     [A6 - 0x2C], 4
00003F04  2011                     move.l     D0, [A1]
00003F06  8190                     or.l       [A0], D0
00003F08  206E FFDC                movea.l    A0, [A6 - 0x24]
00003F0C  226E FFD8                movea.l    A1, [A6 - 0x28]
00003F10  58AE FFD8                addq.l     [A6 - 0x28], 4
00003F14  2011                     move.l     D0, [A1]
00003F16  4680                     not.l      D0
00003F18  C190                     and.l      [A0], D0
00003F1A  206E FFDC                movea.l    A0, [A6 - 0x24]
00003F1E  226E FFD4                movea.l    A1, [A6 - 0x2C]
00003F22  2011                     move.l     D0, [A1]
00003F24  8190                     or.l       [A0], D0
00003F26  206C 0230                movea.l    A0, [A4 + 0x230]
00003F2A  2D48 FFE0                move.l     [A6 - 0x20], A0
00003F2E  2068 0018                movea.l    A0, [A0 + 0x18]
00003F32  2068 0002                movea.l    A0, [A0 + 0x2]
00003F36  2050                     movea.l    A0, [A0]
00003F38  3028 0004                move.w     D0, [A0 + 0x4]
00003F3C  48C0                     ext.l      D0
00003F3E  323C 7FFF                move.w     D1, 0x7FFF
00003F42  C240                     and.w      D1, D0
00003F44  7000                     moveq.l    D0, 0x00
00003F46  3001                     move.w     D0, D1
00003F48  D1AE FFE8                add.l      [A6 - 0x18], D0
00003F4C  266C 0234                movea.l    A3, [A4 + 0x234]
00003F50  206B 0018                movea.l    A0, [A3 + 0x18]
00003F54  2068 0002                movea.l    A0, [A0 + 0x2]
00003F58  2050                     movea.l    A0, [A0]
00003F5A  3028 0004                move.w     D0, [A0 + 0x4]
00003F5E  48C0                     ext.l      D0
00003F60  323C 7FFF                move.w     D1, 0x7FFF
00003F64  C240                     and.w      D1, D0
00003F66  7000                     moveq.l    D0, 0x00
00003F68  3001                     move.w     D0, D1
00003F6A  D1AE FFEC                add.l      [A6 - 0x14], D0
00003F6E  7000                     moveq.l    D0, 0x00
00003F70  3006                     move.w     D0, D6
00003F72  D1AE 0018                add.l      [A6 + 0x18], D0
00003F76  3007                     move.w     D0, D7
00003F78  5247                     addq.w     D7, 1
label00003F7A:
00003F7A  B647                     cmp.w      D3, D7
00003F7C  6E00 FF08                bgt        -0xF6 /* 00003E86 */
00003F80  6016                     bra        +0x18 /* 00003F98 */
label00003F82:
00003F82  7000                     moveq.l    D0, 0x00
00003F84  3006                     move.w     D0, D6
00003F86  E988                     lsl        D0, 4
00003F88  D1AE 0018                add.l      [A6 + 0x18], D0
00003F8C  600A                     bra        +0xC /* 00003F98 */
label00003F8E:
00003F8E  7000                     moveq.l    D0, 0x00
00003F90  3006                     move.w     D0, D6
00003F92  E988                     lsl        D0, 4
00003F94  D1AE 0018                add.l      [A6 + 0x18], D0
label00003F98:
00003F98  54AE 000C                addq.l     [A6 + 0xC], 2
00003F9C  54AE 0010                addq.l     [A6 + 0x10], 2
00003FA0  536E 0016                subq.w     [A6 + 0x16], 1
label00003FA4:
00003FA4  4A6E 0016                tst.w      [A6 + 0x16]
00003FA8  6E00 FDA6                bgt        -0x258 /* 00003D50 */
00003FAC  4CEE 18F8 FFB8           movem.l    D3,D4,D5,D6,D7,A3,A4, [A6 - 0x48]
00003FB2  4E5E                     unlink     A6
00003FB4  4E75                     rts
00003FB6  802D 4472 6177 4F62 6... dc.b       "DrawObjTileStrip__14cFarmEditTilesFPUsT1sPcUs"
export_223:
00003FE8  4E56 FFDA                link       A6, -0x0026
00003FEC  48E7 0F18                movem.l    -[A7], D4,D5,D6,D7,A3,A4
00003FF0  3C2E 0012                move.w     D6, [A6 + 0x12]
00003FF4  3E2E 000E                move.w     D7, [A6 + 0xE]
00003FF8  286E 0008                movea.l    A4, [A6 + 0x8]
00003FFC  7000                     moveq.l    D0, 0x00
00003FFE  102E 0017                move.b     D0, [A6 + 0x17]
00004002  2F00                     move.l     -[A7], D0
00004004  48C6                     ext.l      D6
00004006  2F06                     move.l     -[A7], D6
00004008  48C7                     ext.l      D7
0000400A  2F07                     move.l     -[A7], D7
0000400C  2F0C                     move.l     -[A7], A4
0000400E  4EAD 1AEA                jsr        [A5 + 0x1AEA /* export_857, CODE:34 @ 00002F98 */]
00004012  302C 01D6                move.w     D0, [A4 + 0x1D6]
00004016  48C0                     ext.l      D0
00004018  206C 01DC                movea.l    A0, [A4 + 0x1DC]
0000401C  2050                     movea.l    A0, [A0]
0000401E  3228 0008                move.w     D1, [A0 + 0x8]
00004022  48C1                     ext.l      D1
00004024  D280                     add.l      D1, D0
00004026  206C 01DC                movea.l    A0, [A4 + 0x1DC]
0000402A  2050                     movea.l    A0, [A0]
0000402C  3028 0004                move.w     D0, [A0 + 0x4]
00004030  48C0                     ext.l      D0
00004032  9280                     sub.l      D1, D0
00004034  302C 01FC                move.w     D0, [A4 + 0x1FC]
00004038  48C0                     ext.l      D0
0000403A  4C40 1801                divs.l     D1:D1, D0
0000403E  3D41 FFF8                move.w     [A6 - 0x8], D1
00004042  302C 01D4                move.w     D0, [A4 + 0x1D4]
00004046  48C0                     ext.l      D0
00004048  206C 01DC                movea.l    A0, [A4 + 0x1DC]
0000404C  2050                     movea.l    A0, [A0]
0000404E  3228 0006                move.w     D1, [A0 + 0x6]
00004052  48C1                     ext.l      D1
00004054  D280                     add.l      D1, D0
00004056  206C 01DC                movea.l    A0, [A4 + 0x1DC]
0000405A  2050                     movea.l    A0, [A0]
0000405C  3028 0002                move.w     D0, [A0 + 0x2]
00004060  48C0                     ext.l      D0
00004062  9280                     sub.l      D1, D0
00004064  302C 01FE                move.w     D0, [A4 + 0x1FE]
00004068  48C0                     ext.l      D0
0000406A  4C40 1801                divs.l     D1:D1, D0
0000406E  3D41 FFFA                move.w     [A6 - 0x6], D1
00004072  302C 01D6                move.w     D0, [A4 + 0x1D6]
00004076  48C0                     ext.l      D0
00004078  81EC 01FC                divs.w     D0, [A4 + 0x1FC]
0000407C  3800                     move.w     D4, D0
0000407E  302C 01D4                move.w     D0, [A4 + 0x1D4]
00004082  48C0                     ext.l      D0
00004084  81EC 01FE                divs.w     D0, [A4 + 0x1FE]
00004088  3A00                     move.w     D5, D0
0000408A  705F                     moveq.l    D0, 0x5F
0000408C  B06E FFF8                cmp.w      D0, [A6 - 0x8]
00004090  4FEF 0010                lea.l      A7, [A7 + 0x10]
00004094  6C06                     bge        +0x8 /* 0000409C */
00004096  3D7C 005F FFF8           move.w     [A6 - 0x8], 0x5F /* '_' */
label0000409C:
0000409C  705F                     moveq.l    D0, 0x5F
0000409E  B06E FFFA                cmp.w      D0, [A6 - 0x6]
000040A2  6C06                     bge        +0x8 /* 000040AA */
000040A4  3D7C 005F FFFA           move.w     [A6 - 0x6], 0x5F /* '_' */
label000040AA:
000040AA  B847                     cmp.w      D4, D7
000040AC  6E00 01F0                bgt        +0x1F2 /* 0000429E */
000040B0  BE6E FFF8                cmp.w      D7, [A6 - 0x8]
000040B4  6E00 01E8                bgt        +0x1EA /* 0000429E */
000040B8  BA46                     cmp.w      D5, D6
000040BA  6E00 01E2                bgt        +0x1E4 /* 0000429E */
000040BE  BC6E FFFA                cmp.w      D6, [A6 - 0x6]
000040C2  6E00 01DA                bgt        +0x1DC /* 0000429E */
000040C6  2F2C 0112                move.l     -[A7], [A4 + 0x112]
000040CA  4EAD 11E2                jsr        [A5 + 0x11E2 /* export_568, CODE:26 @ 000031FA */]
000040CE  486E FFFC                pea.l      [A6 - 0x4]
000040D2  48C6                     ext.l      D6
000040D4  2F06                     move.l     -[A7], D6
000040D6  204C                     movea.l    A0, A4
000040D8  226C 0060                movea.l    A1, [A4 + 0x60]
000040DC  D0E9 0188                add.w      A0, [A1 + 0x188]
000040E0  2F08                     move.l     -[A7], A0
000040E2  2049                     movea.l    A0, A1
000040E4  2268 018C                movea.l    A1, [A0 + 0x18C]
000040E8  4E91                     jsr        [A1]
000040EA  2D40 FFDA                move.l     [A6 - 0x26], D0
000040EE  486E FFFE                pea.l      [A6 - 0x2]
000040F2  48C6                     ext.l      D6
000040F4  2F06                     move.l     -[A7], D6
000040F6  2F0C                     move.l     -[A7], A4
000040F8  4EBA F240                jsr        [PC - 0xDC0 /* 0000333A */]
000040FC  2D40 FFDE                move.l     [A6 - 0x22], D0
00004100  266C 020C                movea.l    A3, [A4 + 0x20C]
00004104  598F                     subq.l     A7, 4
00004106  206B 0018                movea.l    A0, [A3 + 0x18]
0000410A  2F28 0002                move.l     -[A7], [A0 + 0x2]
0000410E  203C 0004 000F           move.l     D0, 0x4000F
00004114  AB1D                     syscall    QDExtensions
00004116  2D5F FFE2                move.l     [A6 - 0x1E], [A7]+
0000411A  266C 020C                movea.l    A3, [A4 + 0x20C]
0000411E  206B 0018                movea.l    A0, [A3 + 0x18]
00004122  2068 0002                movea.l    A0, [A0 + 0x2]
00004126  2050                     movea.l    A0, [A0]
00004128  3028 0004                move.w     D0, [A0 + 0x4]
0000412C  48C0                     ext.l      D0
0000412E  323C 7FFF                move.w     D1, 0x7FFF
00004132  C240                     and.w      D1, D0
00004134  3D41 FFE6                move.w     [A6 - 0x1A], D1
00004138  3007                     move.w     D0, D7
0000413A  C1EE FFFC                muls.w     D0, [A6 - 0x4]
0000413E  D080                     add.l      D0, D0
00004140  D1AE FFDA                add.l      [A6 - 0x26], D0
00004144  3007                     move.w     D0, D7
00004146  C1EE FFFE                muls.w     D0, [A6 - 0x2]
0000414A  D080                     add.l      D0, D0
0000414C  D1AE FFDE                add.l      [A6 - 0x22], D0
00004150  48C7                     ext.l      D7
00004152  48C4                     ext.l      D4
00004154  2007                     move.l     D0, D7
00004156  9084                     sub.l      D0, D4
00004158  E988                     lsl        D0, 4
0000415A  D1AE FFE2                add.l      [A6 - 0x1E], D0
0000415E  48C6                     ext.l      D6
00004160  48C5                     ext.l      D5
00004162  2006                     move.l     D0, D6
00004164  9085                     sub.l      D0, D5
00004166  E988                     lsl        D0, 4
00004168  322E FFE6                move.w     D1, [A6 - 0x1A]
0000416C  48C1                     ext.l      D1
0000416E  4C00 1800                muls.l     D1, D0
00004172  D3AE FFE2                add.l      [A6 - 0x1E], D1
00004176  7000                     moveq.l    D0, 0x00
00004178  302E FFE6                move.w     D0, [A6 - 0x1A]
0000417C  2F00                     move.l     -[A7], D0
0000417E  2F2E FFE2                move.l     -[A7], [A6 - 0x1E]
00004182  7001                     moveq.l    D0, 0x01
00004184  2F00                     move.l     -[A7], D0
00004186  2F2E FFDE                move.l     -[A7], [A6 - 0x22]
0000418A  2F2E FFDA                move.l     -[A7], [A6 - 0x26]
0000418E  2F0C                     move.l     -[A7], A4
00004190  4EBA FBA6                jsr        [PC - 0x45A /* 00003D38 */]
00004194  7000                     moveq.l    D0, 0x00
00004196  2F00                     move.l     -[A7], D0
00004198  2F00                     move.l     -[A7], D0
0000419A  2F2C 0112                move.l     -[A7], [A4 + 0x112]
0000419E  4EAD 1202                jsr        [A5 + 0x1202 /* export_572, CODE:26 @ 000033B8 */]
000041A2  2F2C 01DC                move.l     -[A7], [A4 + 0x1DC]
000041A6  2F2C 0112                move.l     -[A7], [A4 + 0x112]
000041AA  4EAD 1272                jsr        [A5 + 0x1272 /* export_586, CODE:26 @ 00003912 */]
000041AE  206C 01DC                movea.l    A0, [A4 + 0x1DC]
000041B2  2050                     movea.l    A0, [A0]
000041B4  43EE FFE8                lea.l      A1, [A6 - 0x18]
000041B8  5488                     addq.l     A0, 2
000041BA  22D8                     move.l     [A1]+, [A0]+
000041BC  22D8                     move.l     [A1]+, [A0]+
000041BE  266C 020C                movea.l    A3, [A4 + 0x20C]
000041C2  206B 0018                movea.l    A0, [A3 + 0x18]
000041C6  41E8 0010                lea.l      A0, [A0 + 0x10]
000041CA  43EE FFF0                lea.l      A1, [A6 - 0x10]
000041CE  22D8                     move.l     [A1]+, [A0]+
000041D0  22D8                     move.l     [A1]+, [A0]+
000041D2  486E FFF0                pea.l      [A6 - 0x10]
000041D6  48C7                     ext.l      D7
000041D8  48C4                     ext.l      D4
000041DA  2007                     move.l     D0, D7
000041DC  9084                     sub.l      D0, D4
000041DE  E988                     lsl        D0, 4
000041E0  3F00                     move.w     -[A7], D0
000041E2  48C6                     ext.l      D6
000041E4  48C5                     ext.l      D5
000041E6  2006                     move.l     D0, D6
000041E8  9085                     sub.l      D0, D5
000041EA  E988                     lsl        D0, 4
000041EC  3F00                     move.w     -[A7], D0
000041EE  A8A8                     syscall    OffsetRect
000041F0  302E FFF2                move.w     D0, [A6 - 0xE]
000041F4  D07C 0010                add.w      D0, 0x10
000041F8  3D40 FFF6                move.w     [A6 - 0xA], D0
000041FC  302E FFF0                move.w     D0, [A6 - 0x10]
00004200  D07C 0010                add.w      D0, 0x10
00004204  3D40 FFF4                move.w     [A6 - 0xC], D0
00004208  486E FFE8                pea.l      [A6 - 0x18]
0000420C  48C7                     ext.l      D7
0000420E  2007                     move.l     D0, D7
00004210  E988                     lsl        D0, 4
00004212  906C 01D6                sub.w      D0, [A4 + 0x1D6]
00004216  3F00                     move.w     -[A7], D0
00004218  48C6                     ext.l      D6
0000421A  2006                     move.l     D0, D6
0000421C  E988                     lsl        D0, 4
0000421E  906C 01D4                sub.w      D0, [A4 + 0x1D4]
00004222  3F00                     move.w     -[A7], D0
00004224  A8A8                     syscall    OffsetRect
00004226  302E FFEA                move.w     D0, [A6 - 0x16]
0000422A  D07C 0010                add.w      D0, 0x10
0000422E  3D40 FFEE                move.w     [A6 - 0x12], D0
00004232  302E FFE8                move.w     D0, [A6 - 0x18]
00004236  D07C 0010                add.w      D0, 0x10
0000423A  3D40 FFEC                move.w     [A6 - 0x14], D0
0000423E  266C 020C                movea.l    A3, [A4 + 0x20C]
00004242  206B 0018                movea.l    A0, [A3 + 0x18]
00004246  5488                     addq.l     A0, 2
00004248  2F08                     move.l     -[A7], A0
0000424A  206C 0112                movea.l    A0, [A4 + 0x112]
0000424E  2068 0084                movea.l    A0, [A0 + 0x84]
00004252  4868 0002                pea.l      [A0 + 0x2]
00004256  486E FFF0                pea.l      [A6 - 0x10]
0000425A  486E FFE8                pea.l      [A6 - 0x18]
0000425E  7000                     moveq.l    D0, 0x00
00004260  3F00                     move.w     -[A7], D0
00004262  7200                     moveq.l    D1, 0x00
00004264  2F01                     move.l     -[A7], D1
00004266  A8EC                     syscall    CopyBits
00004268  4A2E 0017                tst.b      [A6 + 0x17]
0000426C  4FEF 0048                lea.l      A7, [A7 + 0x48]
00004270  670C                     beq        +0xE /* 0000427E */
00004272  486E FFE8                pea.l      [A6 - 0x18]
00004276  2F0C                     move.l     -[A7], A4
00004278  4EAD 1B0A                jsr        [A5 + 0x1B0A /* export_861, CODE:34 @ 000036C4 */]
0000427C  504F                     addq.w     A7, 8
label0000427E:
0000427E  7000                     moveq.l    D0, 0x00
00004280  2F00                     move.l     -[A7], D0
00004282  2F2C 0112                move.l     -[A7], [A4 + 0x112]
00004286  4EAD 1282                jsr        [A5 + 0x1282 /* export_588, CODE:26 @ 00003A24 */]
0000428A  2F2C 0112                move.l     -[A7], [A4 + 0x112]
0000428E  4EAD 120A                jsr        [A5 + 0x120A /* export_573, CODE:26 @ 00003404 */]
00004292  2F2C 0112                move.l     -[A7], [A4 + 0x112]
00004296  4EAD 11EA                jsr        [A5 + 0x11EA /* export_569, CODE:26 @ 00003268 */]
0000429A  4FEF 0010                lea.l      A7, [A7 + 0x10]
label0000429E:
0000429E  4CEE 18F0 FFC2           movem.l    D4,D5,D6,D7,A3,A4, [A6 - 0x3E]
000042A4  4E5E                     unlink     A6
000042A6  4E75                     rts
000042A8  8025 466F 7263 6544 7... dc.b       "ForceDrawTile__14cFarmEditTilesFsT1Uc"
export_224:
000042D2  4E56 0000                link       A6, 0
000042D6  2F0C                     move.l     -[A7], A4
000042D8  286E 0008                movea.l    A4, [A6 + 0x8]
000042DC  302C 01D6                move.w     D0, [A4 + 0x1D6]
000042E0  48C0                     ext.l      D0
000042E2  206C 01DC                movea.l    A0, [A4 + 0x1DC]
000042E6  2050                     movea.l    A0, [A0]
000042E8  3228 0008                move.w     D1, [A0 + 0x8]
000042EC  48C1                     ext.l      D1
000042EE  D280                     add.l      D1, D0
000042F0  206C 01DC                movea.l    A0, [A4 + 0x1DC]
000042F4  2050                     movea.l    A0, [A0]
000042F6  3028 0004                move.w     D0, [A0 + 0x4]
000042FA  48C0                     ext.l      D0
000042FC  9280                     sub.l      D1, D0
000042FE  302C 01FC                move.w     D0, [A4 + 0x1FC]
00004302  48C0                     ext.l      D0
00004304  4C40 1801                divs.l     D1:D1, D0
00004308  206E 0014                movea.l    A0, [A6 + 0x14]
0000430C  3081                     move.w     [A0], D1
0000430E  302C 01D4                move.w     D0, [A4 + 0x1D4]
00004312  48C0                     ext.l      D0
00004314  206C 01DC                movea.l    A0, [A4 + 0x1DC]
00004318  2050                     movea.l    A0, [A0]
0000431A  3228 0006                move.w     D1, [A0 + 0x6]
0000431E  48C1                     ext.l      D1
00004320  D280                     add.l      D1, D0
00004322  206C 01DC                movea.l    A0, [A4 + 0x1DC]
00004326  2050                     movea.l    A0, [A0]
00004328  3028 0002                move.w     D0, [A0 + 0x2]
0000432C  48C0                     ext.l      D0
0000432E  9280                     sub.l      D1, D0
00004330  302C 01FE                move.w     D0, [A4 + 0x1FE]
00004334  48C0                     ext.l      D0
00004336  4C40 1801                divs.l     D1:D1, D0
0000433A  206E 0018                movea.l    A0, [A6 + 0x18]
0000433E  3081                     move.w     [A0], D1
00004340  302C 01D6                move.w     D0, [A4 + 0x1D6]
00004344  48C0                     ext.l      D0
00004346  81EC 01FC                divs.w     D0, [A4 + 0x1FC]
0000434A  206E 000C                movea.l    A0, [A6 + 0xC]
0000434E  3080                     move.w     [A0], D0
00004350  302C 01D4                move.w     D0, [A4 + 0x1D4]
00004354  48C0                     ext.l      D0
00004356  81EC 01FE                divs.w     D0, [A4 + 0x1FE]
0000435A  206E 0010                movea.l    A0, [A6 + 0x10]
0000435E  3080                     move.w     [A0], D0
00004360  286E FFFC                movea.l    A4, [A6 - 0x4]
00004364  4E5E                     unlink     A6
00004366  4E75                     rts
00004368  8031 4765 7456 6973 6... dc.b       "GetVisibleTileCoordinates__14cFarmEditTilesFPsN31"
export_225:
fn0000439E:
0000439E  4E56 0000                link       A6, 0
000043A2  206E 0008                movea.l    A0, [A6 + 0x8]
000043A6  2068 0018                movea.l    A0, [A0 + 0x18]
000043AA  5488                     addq.l     A0, 2
000043AC  2008                     move.l     D0, A0
000043AE  4E5E                     unlink     A6
000043B0  4E75                     rts
000043B2  8020 5F5F 6F70 5036 4... dc.b       "__opP6BitMap__14cOffscreenPortFv"
export_226:
000043D6  4E56 0000                link       A6, 0
000043DA  2F0A                     move.l     -[A7], A2
000043DC  204D                     movea.l    A0, A5
000043DE  D1FC FFFD FAD4           add.l      A0, 0xFFFDFAD4
000043E4  4850                     pea.l      [A0]
000043E6  204D                     movea.l    A0, A5
000043E8  D1FC FFFE 42D4           add.l      A0, 0xFFFE42D4
000043EE  4850                     pea.l      [A0]
000043F0  7000                     moveq.l    D0, 0x00
000043F2  2F00                     move.l     -[A7], D0
000043F4  2F00                     move.l     -[A7], D0
000043F6  4EAD 1382                jsr        [A5 + 0x1382 /* export_620, CODE:27 @ 00000A42 */]
000043FA  204D                     movea.l    A0, A5
000043FC  D1FC FFFF 7868           add.l      A0, 0xFFFF7868
00004402  2F10                     move.l     -[A7], [A0]
00004404  4EAD 1522                jsr        [A5 + 0x1522 /* export_672, CODE:32 @ 00000E82 */]
00004408  4EAD 01FA                jsr        [A5 + 0x1FA /* export_59, CODE:1 @ 0000453A */]
0000440C  4EAD 01E2                jsr        [A5 + 0x1E2 /* export_56, CODE:1 @ 000041AC */]
00004410  4EAD 022A                jsr        [A5 + 0x22A /* export_65, CODE:1 @ 000057CA */]
00004414  204D                     movea.l    A0, A5
00004416  D1FC FFFF 7868           add.l      A0, 0xFFFF7868
0000441C  4A90                     tst.l      [A0]
0000441E  673C                     beq        +0x3E /* 0000445C */
00004420  7003                     moveq.l    D0, 0x03
00004422  2F00                     move.l     -[A7], D0
00004424  224D                     movea.l    A1, A5
00004426  D3FC FFFF 7868           add.l      A1, 0xFFFF7868
0000442C  2051                     movea.l    A0, [A1]
0000442E  244D                     movea.l    A2, A5
00004430  D5FC FFFF 7868           add.l      A2, 0xFFFF7868
00004436  2252                     movea.l    A1, [A2]
00004438  2269 0060                movea.l    A1, [A1 + 0x60]
0000443C  D0E9 0008                add.w      A0, [A1 + 0x8]
00004440  2F08                     move.l     -[A7], A0
00004442  224D                     movea.l    A1, A5
00004444  D3FC FFFF 7868           add.l      A1, 0xFFFF7868
0000444A  2051                     movea.l    A0, [A1]
0000444C  2068 0060                movea.l    A0, [A0 + 0x60]
00004450  2268 000C                movea.l    A1, [A0 + 0xC]
00004454  4E91                     jsr        [A1]
00004456  7000                     moveq.l    D0, 0x00
00004458  504F                     addq.w     A7, 8
0000445A  6002                     bra        +0x4 /* 0000445E */
label0000445C:
0000445C  7000                     moveq.l    D0, 0x00
label0000445E:
0000445E  7000                     moveq.l    D0, 0x00
00004460  4FEF 0014                lea.l      A7, [A7 + 0x14]
00004464  246E FFFC                movea.l    A2, [A6 - 0x4]
00004468  4E5E                     unlink     A6
0000446A  4E75                     rts
0000446C  846D 6169 6E00 0000      dc.b       "main"
export_227:
00004474  4E56 FEFA                link       A6, -0x0106
00004478  48E7 0118                movem.l    -[A7], D7,A3,A4
0000447C  266E 0008                movea.l    A3, [A6 + 0x8]
00004480  204D                     movea.l    A0, A5
00004482  D1FC FFFF 77AC           add.l      A0, 0xFFFF77AC
00004488  4A90                     tst.l      [A0]
0000448A  6704                     beq        +0x6 /* 00004490 */
0000448C  7000                     moveq.l    D0, 0x00
0000448E  602E                     bra        +0x30 /* 000044BE */
label00004490:
00004490  7000                     moveq.l    D0, 0x00
00004492  2F00                     move.l     -[A7], D0
00004494  2F00                     move.l     -[A7], D0
00004496  204D                     movea.l    A0, A5
00004498  D1FC FFFF 778E           add.l      A0, 0xFFFF778E
0000449E  4850                     pea.l      [A0]
000044A0  4EAD 1772                jsr        [A5 + 0x1772 /* export_746, CODE:32 @ 00004CE0 */]
000044A4  224D                     movea.l    A1, A5
000044A6  D3FC FFFF 778E           add.l      A1, 0xFFFF778E
000044AC  41D1                     lea.l      A0, [A1]
000044AE  224D                     movea.l    A1, A5
000044B0  D3FC FFFF 77AC           add.l      A1, 0xFFFF77AC
000044B6  2288                     move.l     [A1], A0
000044B8  2008                     move.l     D0, A0
000044BA  4FEF 000C                lea.l      A7, [A7 + 0xC]
label000044BE:
000044BE  204D                     movea.l    A0, A5
000044C0  D1FC FFFE BED4           add.l      A0, 0xFFFEBED4
000044C6  4A10                     tst.b      [A0]
000044C8  6700 00D2                beq        +0xD4 /* 0000459C */
000044CC  598F                     subq.l     A7, 4
000044CE  7003                     moveq.l    D0, 0x03
000044D0  3F00                     move.w     -[A7], D0
000044D2  7200                     moveq.l    D1, 0x00
000044D4  2F01                     move.l     -[A7], D1
000044D6  4EAD 021A                jsr        [A5 + 0x21A /* export_63, CODE:1 @ 0000530A */]
000044DA  4A9F                     tst.l      [A7]+
000044DC  664C                     bne        +0x4E /* 0000452A */
000044DE  2F0B                     move.l     -[A7], A3
000044E0  204D                     movea.l    A0, A5
000044E2  D1FC FFFF 778E           add.l      A0, 0xFFFF778E
000044E8  4850                     pea.l      [A0]
000044EA  4EAD 17C2                jsr        [A5 + 0x17C2 /* export_756, CODE:32 @ 000053D8 */]
000044EE  4A00                     tst.b      D0
000044F0  504F                     addq.w     A7, 8
000044F2  6600 00A8                bne        +0xAA /* 0000459C */
000044F6  204D                     movea.l    A0, A5
000044F8  D1FC FFFF 778E           add.l      A0, 0xFFFF778E
000044FE  4850                     pea.l      [A0]
00004500  4EAD 1782                jsr        [A5 + 0x1782 /* export_748, CODE:32 @ 00004E1E */]
00004504  4207                     clr.b      D7
00004506  7000                     moveq.l    D0, 0x00
00004508  1007                     move.b     D0, D7
0000450A  2F00                     move.l     -[A7], D0
0000450C  204D                     movea.l    A0, A5
0000450E  D1FC FFFF 77A2           add.l      A0, 0xFFFF77A2
00004514  2F10                     move.l     -[A7], [A0]
00004516  2F0B                     move.l     -[A7], A3
00004518  204D                     movea.l    A0, A5
0000451A  D1FC FFFF 778E           add.l      A0, 0xFFFF778E
00004520  4850                     pea.l      [A0]
00004522  4EAD 178A                jsr        [A5 + 0x178A /* export_749, CODE:32 @ 00004E80 */]
00004526  4FEF 0014                lea.l      A7, [A7 + 0x14]
label0000452A:
0000452A  7000                     moveq.l    D0, 0x00
0000452C  1F00                     move.b     -[A7], D0
0000452E  A99B                     syscall    SetResLoad
00004530  598F                     subq.l     A7, 4
00004532  2F3C 534F 4E47           move.l     -[A7], 0x534F4E47 /* 'SONG' */
00004538  2F0B                     move.l     -[A7], A3
0000453A  A9A1                     syscall    GetNamedResource
0000453C  285F                     movea.l    A4, [A7]+
0000453E  7001                     moveq.l    D0, 0x01
00004540  1F00                     move.b     -[A7], D0
00004542  A99B                     syscall    SetResLoad
00004544  200C                     move.l     D0, A4
00004546  6754                     beq        +0x56 /* 0000459C */
00004548  2F0C                     move.l     -[A7], A4
0000454A  486E FEFA                pea.l      [A6 - 0x106]
0000454E  486E FEFC                pea.l      [A6 - 0x104]
00004552  486E FF00                pea.l      [A6 - 0x100]
00004556  A9A8                     syscall    GetResInfo
00004558  2F0C                     move.l     -[A7], A4
0000455A  A9A3                     syscall    ReleaseResource
0000455C  4A2E 000F                tst.b      [A6 + 0xF]
00004560  6716                     beq        +0x18 /* 00004578 */
00004562  598F                     subq.l     A7, 4
00004564  7001                     moveq.l    D0, 0x01
00004566  3F00                     move.w     -[A7], D0
00004568  322E FEFA                move.w     D1, [A6 - 0x106]
0000456C  48C1                     ext.l      D1
0000456E  2F01                     move.l     -[A7], D1
00004570  4EAD 021A                jsr        [A5 + 0x21A /* export_63, CODE:1 @ 0000530A */]
00004574  584F                     addq.w     A7, 4
00004576  6014                     bra        +0x16 /* 0000458C */
label00004578:
00004578  598F                     subq.l     A7, 4
0000457A  7000                     moveq.l    D0, 0x00
0000457C  3F00                     move.w     -[A7], D0
0000457E  322E FEFA                move.w     D1, [A6 - 0x106]
00004582  48C1                     ext.l      D1
00004584  2F01                     move.l     -[A7], D1
00004586  4EAD 021A                jsr        [A5 + 0x21A /* export_63, CODE:1 @ 0000530A */]
0000458A  584F                     addq.w     A7, 4
label0000458C:
0000458C  598F                     subq.l     A7, 4
0000458E  7005                     moveq.l    D0, 0x05
00004590  3F00                     move.w     -[A7], D0
00004592  7201                     moveq.l    D1, 0x01
00004594  2F01                     move.l     -[A7], D1
00004596  4EAD 021A                jsr        [A5 + 0x21A /* export_63, CODE:1 @ 0000530A */]
0000459A  584F                     addq.w     A7, 4
label0000459C:
0000459C  4CEE 1880 FEEE           movem.l    D7,A3,A4, [A6 - 0x112]
000045A2  4E5E                     unlink     A6
000045A4  4E75                     rts
000045A6  9146 6F72 6365 506C 6... dc.b       "ForcePlay__FPUcUc"
export_228:
000045BA  4E56 FEDC                link       A6, -0x0124
000045BE  48E7 0018                movem.l    -[A7], A3,A4
000045C2  47EE FEE2                lea.l      A3, [A6 - 0x11E]
000045C6  7001                     moveq.l    D0, 0x01
000045C8  2F00                     move.l     -[A7], D0
000045CA  2F2E 0008                move.l     -[A7], [A6 + 0x8]
000045CE  486E FFE2                pea.l      [A6 - 0x1E]
000045D2  4EAD 1772                jsr        [A5 + 0x1772 /* export_746, CODE:32 @ 00004CE0 */]
000045D6  204D                     movea.l    A0, A5
000045D8  D1FC FFFE BED2           add.l      A0, 0xFFFEBED2
000045DE  4A10                     tst.b      [A0]
000045E0  4FEF 000C                lea.l      A7, [A7 + 0xC]
000045E4  6612                     bne        +0x14 /* 000045F8 */
000045E6  7002                     moveq.l    D0, 0x02
000045E8  2F00                     move.l     -[A7], D0
000045EA  486E FFE2                pea.l      [A6 - 0x1E]
000045EE  4EAD 177A                jsr        [A5 + 0x177A /* export_747, CODE:32 @ 00004DBC */]
000045F2  504F                     addq.w     A7, 8
000045F4  6000 0090                bra        +0x92 /* 00004686 */
label000045F8:
000045F8  2F2E FFF6                move.l     -[A7], [A6 - 0xA]
000045FC  7000                     moveq.l    D0, 0x00
000045FE  2F00                     move.l     -[A7], D0
00004600  2F00                     move.l     -[A7], D0
00004602  204D                     movea.l    A0, A5
00004604  D1FC FFFF 7210           add.l      A0, 0xFFFF7210
0000460A  4850                     pea.l      [A0]
0000460C  486E FFE2                pea.l      [A6 - 0x1E]
00004610  4EAD 1802                jsr        [A5 + 0x1802 /* export_764, CODE:32 @ 00005808 */]
00004614  4FEF 0010                lea.l      A7, [A7 + 0x10]
00004618  2F00                     move.l     -[A7], D0
0000461A  486E FFE2                pea.l      [A6 - 0x1E]
0000461E  4EAD 17A2                jsr        [A5 + 0x17A2 /* export_752, CODE:32 @ 000051AC */]
00004622  598F                     subq.l     A7, 4
00004624  2F3C 736E 6420           move.l     -[A7], 0x736E6420 /* 'snd ' */
0000462A  486E FFE2                pea.l      [A6 - 0x1E]
0000462E  4EAD 1792                jsr        [A5 + 0x1792 /* export_750, CODE:32 @ 000050C2 */]
00004632  224D                     movea.l    A1, A5
00004634  D3FC FFFF FB4A           add.l      A1, 0xFFFFFB4A
0000463A  41D1                     lea.l      A0, [A1]
0000463C  588F                     addq.l     A7, 4
0000463E  2F08                     move.l     -[A7], A0
00004640  A9A1                     syscall    GetNamedResource
00004642  285F                     movea.l    A4, [A7]+
00004644  200C                     move.l     D0, A4
00004646  4FEF 000C                lea.l      A7, [A7 + 0xC]
0000464A  672C                     beq        +0x2E /* 00004678 */
0000464C  2F0C                     move.l     -[A7], A4
0000464E  486E FEDC                pea.l      [A6 - 0x124]
00004652  486E FEDE                pea.l      [A6 - 0x122]
00004656  2F0B                     move.l     -[A7], A3
00004658  A9A8                     syscall    GetResInfo
0000465A  2F3C 0008 0000           move.l     -[A7], 0x80000
00004660  4EAD 020A                jsr        [A5 + 0x20A /* export_61, CODE:1 @ 00004696 */]
00004664  7000                     moveq.l    D0, 0x00
00004666  2F00                     move.l     -[A7], D0
00004668  322E FEDC                move.w     D1, [A6 - 0x124]
0000466C  48C1                     ext.l      D1
0000466E  2F01                     move.l     -[A7], D1
00004670  4EAD 01EA                jsr        [A5 + 0x1EA /* export_57, CODE:1 @ 00004414 */]
00004674  4FEF 000C                lea.l      A7, [A7 + 0xC]
label00004678:
00004678  7002                     moveq.l    D0, 0x02
0000467A  2F00                     move.l     -[A7], D0
0000467C  486E FFE2                pea.l      [A6 - 0x1E]
00004680  4EAD 177A                jsr        [A5 + 0x177A /* export_747, CODE:32 @ 00004DBC */]
00004684  504F                     addq.w     A7, 8
label00004686:
00004686  4CEE 1800 FED4           movem.l    A3,A4, [A6 - 0x12C]
0000468C  4E5E                     unlink     A6
0000468E  4E75                     rts
00004690  9670 6C61 795F 7361 6... dc.b       "play_sample_again__FPc"
