# near model CODE resource
# jump table entries: 1312-1344 (33 of them)
export_164:
00000000  4E56 FFFC                link       A6, -0x0004
00000004  48E7 0F08                movem.l    -[A7], D4,D5,D6,D7,A4
00000008  382E 000E                move.w     D4, [A6 + 0xE]
0000000C  3A2E 000A                move.w     D5, [A6 + 0xA]
00000010  204D                     movea.l    A0, A5
00000012  D1FC FFFE 9F9C           add.l      A0, 0xFFFE9F9C
00000018  49D0                     lea.l      A4, [A0]
0000001A  4246                     clr.w      D6
0000001C  7E01                     moveq.l    D7, 0x01
0000001E  6000 009A                bra        +0x9C /* 000000BA */
label00000022:
00000022  2007                     move.l     D0, D7
00000024  C1FC 003A                muls.w     D0, 0x3A /* ':' */
00000028  7200                     moveq.l    D1, 0x00
0000002A  3234 0002                move.w     D1, [A4 + D0.w + 0x2]
0000002E  7020                     moveq.l    D0, 0x20
00000030  C041                     and.w      D0, D1
00000032  6700 0082                beq        +0x84 /* 000000B6 */
00000036  486E FFFE                pea.l      [A6 - 0x2]
0000003A  486E FFFC                pea.l      [A6 - 0x4]
0000003E  48C7                     ext.l      D7
00000040  2F07                     move.l     -[A7], D7
00000042  4EBA 1FB4                jsr        [PC + 0x1FB4 /* 00001FF8 */]
00000046  302E FFFC                move.w     D0, [A6 - 0x4]
0000004A  536E FFFC                subq.w     [A6 - 0x4], 1
0000004E  302E FFFE                move.w     D0, [A6 - 0x2]
00000052  536E FFFE                subq.w     [A6 - 0x2], 1
00000056  2007                     move.l     D0, D7
00000058  C1FC 003A                muls.w     D0, 0x3A /* ':' */
0000005C  7200                     moveq.l    D1, 0x00
0000005E  1234 0005                move.b     D1, [A4 + D0.w + 0x5]
00000062  B245                     cmp.w      D1, D5
00000064  4FEF 000C                lea.l      A7, [A7 + 0xC]
00000068  6E48                     bgt        +0x4A /* 000000B2 */
0000006A  48C5                     ext.l      D5
0000006C  2007                     move.l     D0, D7
0000006E  C1FC 003A                muls.w     D0, 0x3A /* ':' */
00000072  7200                     moveq.l    D1, 0x00
00000074  1234 0005                move.b     D1, [A4 + D0.w + 0x5]
00000078  302E FFFC                move.w     D0, [A6 - 0x4]
0000007C  48C0                     ext.l      D0
0000007E  D081                     add.l      D0, D1
00000080  B085                     cmp.l      D0, D5
00000082  6D2E                     blt        +0x30 /* 000000B2 */
00000084  2007                     move.l     D0, D7
00000086  C1FC 003A                muls.w     D0, 0x3A /* ':' */
0000008A  7200                     moveq.l    D1, 0x00
0000008C  1234 0006                move.b     D1, [A4 + D0.w + 0x6]
00000090  B244                     cmp.w      D1, D4
00000092  6E1E                     bgt        +0x20 /* 000000B2 */
00000094  48C4                     ext.l      D4
00000096  2007                     move.l     D0, D7
00000098  C1FC 003A                muls.w     D0, 0x3A /* ':' */
0000009C  7200                     moveq.l    D1, 0x00
0000009E  1234 0006                move.b     D1, [A4 + D0.w + 0x6]
000000A2  302E FFFE                move.w     D0, [A6 - 0x2]
000000A6  48C0                     ext.l      D0
000000A8  D081                     add.l      D0, D1
000000AA  B084                     cmp.l      D0, D4
000000AC  6D04                     blt        +0x6 /* 000000B2 */
000000AE  3007                     move.w     D0, D7
000000B0  6018                     bra        +0x1A /* 000000CA */
label000000B2:
000000B2  3006                     move.w     D0, D6
000000B4  5246                     addq.w     D6, 1
label000000B6:
000000B6  3007                     move.w     D0, D7
000000B8  5247                     addq.w     D7, 1
label000000BA:
000000BA  204D                     movea.l    A0, A5
000000BC  D1FC FFFE 9F9A           add.l      A0, 0xFFFE9F9A
000000C2  BC50                     cmp.w      D6, [A0]
000000C4  6D00 FF5C                blt        -0xA2 /* 00000022 */
000000C8  7000                     moveq.l    D0, 0x00
label000000CA:
000000CA  4CEE 10F0 FFE8           movem.l    D4,D5,D6,D7,A4, [A6 - 0x18]
000000D0  4E5E                     unlink     A6
000000D2  4E75                     rts
000000D4  9266 696E 646D 6163 6... dc.b       "findmachatxy__FsT1"
export_165:
fn000000EA:
000000EA  4E56 0000                link       A6, 0
000000EE  48E7 0108                movem.l    -[A7], D7,A4
000000F2  204D                     movea.l    A0, A5
000000F4  D1FC FFFE 9F9C           add.l      A0, 0xFFFE9F9C
000000FA  49D0                     lea.l      A4, [A0]
000000FC  3E2E 000A                move.w     D7, [A6 + 0xA]
00000100  2007                     move.l     D0, D7
00000102  C1FC 003A                muls.w     D0, 0x3A /* ':' */
00000106  7208                     moveq.l    D1, 0x08
00000108  B274 0000                cmp.w      D1, [A4 + D0.w]
0000010C  662A                     bne        +0x2C /* 00000138 */
0000010E  204D                     movea.l    A0, A5
00000110  D1FC FFFE 94E0           add.l      A0, 0xFFFE94E0
00000116  5310                     subq.b     [A0], 1
00000118  204D                     movea.l    A0, A5
0000011A  D1FC FFFE 94E0           add.l      A0, 0xFFFE94E0
00000120  4A10                     tst.b      [A0]
00000122  6C0A                     bge        +0xC /* 0000012E */
00000124  204D                     movea.l    A0, A5
00000126  D1FC FFFE 94E0           add.l      A0, 0xFFFE94E0
0000012C  4210                     clr.b      [A0]
label0000012E:
0000012E  48C7                     ext.l      D7
00000130  2F07                     move.l     -[A7], D7
00000132  4EAD 08EA                jsr        [A5 + 0x8EA /* export_281, CODE:15 @ 000032F0 */]
00000136  584F                     addq.w     A7, 4
label00000138:
00000138  2007                     move.l     D0, D7
0000013A  C1FC 003A                muls.w     D0, 0x3A /* ':' */
0000013E  0274 FFDF 0002           andi.w     [A4 + D0.w + 0x2], 0xFFDF
00000144  204D                     movea.l    A0, A5
00000146  D1FC FFFE 9F9A           add.l      A0, 0xFFFE9F9A
0000014C  3010                     move.w     D0, [A0]
0000014E  5350                     subq.w     [A0], 1
00000150  4CEE 1080 FFF8           movem.l    D7,A4, [A6 - 0x8]
00000156  4E5E                     unlink     A6
00000158  4E75                     rts
0000015A  8F66 7265 656D 6163 6... dc.b       "freemachine__Fs"
export_166:
fn0000016C:
0000016C  4E56 FFFA                link       A6, -0x0006
00000170  48E7 1F08                movem.l    -[A7], D3,D4,D5,D6,D7,A4
00000174  382E 000E                move.w     D4, [A6 + 0xE]
00000178  3A2E 000A                move.w     D5, [A6 + 0xA]
0000017C  3C2E 0012                move.w     D6, [A6 + 0x12]
00000180  204D                     movea.l    A0, A5
00000182  D1FC FFFE 9F9C           add.l      A0, 0xFFFE9F9C
00000188  49D0                     lea.l      A4, [A0]
0000018A  426E FFFE                clr.w      [A6 - 0x2]
0000018E  7E01                     moveq.l    D7, 0x01
label00000190:
00000190  2007                     move.l     D0, D7
00000192  C1FC 003A                muls.w     D0, 0x3A /* ':' */
00000196  7200                     moveq.l    D1, 0x00
00000198  3234 0002                move.w     D1, [A4 + D0.w + 0x2]
0000019C  7020                     moveq.l    D0, 0x20
0000019E  C041                     and.w      D0, D1
000001A0  6600 0176                bne        +0x178 /* 00000318 */
000001A4  204D                     movea.l    A0, A5
000001A6  D1FC FFFE 9F9A           add.l      A0, 0xFFFE9F9A
000001AC  5250                     addq.w     [A0], 1
000001AE  2007                     move.l     D0, D7
000001B0  C1FC 003A                muls.w     D0, 0x3A /* ':' */
000001B4  3986 0000                move.w     [A4 + D0.w], D6
000001B8  2007                     move.l     D0, D7
000001BA  C1FC 003A                muls.w     D0, 0x3A /* ':' */
000001BE  1985 0005                move.b     [A4 + D0.w + 0x5], D5
000001C2  2007                     move.l     D0, D7
000001C4  C1FC 003A                muls.w     D0, 0x3A /* ':' */
000001C8  1984 0006                move.b     [A4 + D0.w + 0x6], D4
000001CC  2007                     move.l     D0, D7
000001CE  C1FC 003A                muls.w     D0, 0x3A /* ':' */
000001D2  1985 0034                move.b     [A4 + D0.w + 0x34], D5
000001D6  2007                     move.l     D0, D7
000001D8  C1FC 003A                muls.w     D0, 0x3A /* ':' */
000001DC  1984 0035                move.b     [A4 + D0.w + 0x35], D4
000001E0  2006                     move.l     D0, D6
000001E2  C1FC 0012                muls.w     D0, 0x12
000001E6  204D                     movea.l    A0, A5
000001E8  D1FC FFFE 9EB0           add.l      A0, 0xFFFE9EB0
000001EE  2207                     move.l     D1, D7
000001F0  C3FC 003A                muls.w     D1, 0x3A /* ':' */
000001F4  19B0 0008 1037           move.b     [A4 + D1.w + 0x37], [A0 + D0.w + 0x8]
000001FA  2006                     move.l     D0, D6
000001FC  C1FC 0012                muls.w     D0, 0x12
00000200  204D                     movea.l    A0, A5
00000202  D1FC FFFE 9EB0           add.l      A0, 0xFFFE9EB0
00000208  2207                     move.l     D1, D7
0000020A  C3FC 003A                muls.w     D1, 0x3A /* ':' */
0000020E  19B0 0009 1038           move.b     [A4 + D1.w + 0x38], [A0 + D0.w + 0x9]
00000214  2007                     move.l     D0, D7
00000216  C1FC 003A                muls.w     D0, 0x3A /* ':' */
0000021A  4234 000F                clr.b      [A4 + D0.w + 0xF]
0000021E  2007                     move.l     D0, D7
00000220  C1FC 003A                muls.w     D0, 0x3A /* ':' */
00000224  4234 0036                clr.b      [A4 + D0.w + 0x36]
00000228  2007                     move.l     D0, D7
0000022A  C1FC 003A                muls.w     D0, 0x3A /* ':' */
0000022E  19BC 0001 0033           move.b     [A4 + D0.w + 0x33], 0x1
00000234  2007                     move.l     D0, D7
00000236  C1FC 003A                muls.w     D0, 0x3A /* ':' */
0000023A  4234 0010                clr.b      [A4 + D0.w + 0x10]
0000023E  2007                     move.l     D0, D7
00000240  C1FC 003A                muls.w     D0, 0x3A /* ':' */
00000244  4234 0011                clr.b      [A4 + D0.w + 0x11]
00000248  2007                     move.l     D0, D7
0000024A  C1FC 003A                muls.w     D0, 0x3A /* ':' */
0000024E  4274 0012                clr.w      [A4 + D0.w + 0x12]
00000252  2007                     move.l     D0, D7
00000254  C1FC 003A                muls.w     D0, 0x3A /* ':' */
00000258  4274 002E                clr.w      [A4 + D0.w + 0x2E]
0000025C  2007                     move.l     D0, D7
0000025E  C1FC 003A                muls.w     D0, 0x3A /* ':' */
00000262  4274 0030                clr.w      [A4 + D0.w + 0x30]
00000266  2007                     move.l     D0, D7
00000268  C1FC 003A                muls.w     D0, 0x3A /* ':' */
0000026C  4274 0014                clr.w      [A4 + D0.w + 0x14]
00000270  2007                     move.l     D0, D7
00000272  C1FC 003A                muls.w     D0, 0x3A /* ':' */
00000276  4234 0016                clr.b      [A4 + D0.w + 0x16]
0000027A  2007                     move.l     D0, D7
0000027C  C1FC 003A                muls.w     D0, 0x3A /* ':' */
00000280  4234 0032                clr.b      [A4 + D0.w + 0x32]
00000284  2007                     move.l     D0, D7
00000286  C1FC 003A                muls.w     D0, 0x3A /* ':' */
0000028A  39BC 0080 0002           move.w     [A4 + D0.w + 0x2], 0x80
00000290  2007                     move.l     D0, D7
00000292  C1FC 003A                muls.w     D0, 0x3A /* ':' */
00000296  4234 0004                clr.b      [A4 + D0.w + 0x4]
0000029A  2007                     move.l     D0, D7
0000029C  C1FC 003A                muls.w     D0, 0x3A /* ':' */
000002A0  204D                     movea.l    A0, A5
000002A2  D1FC FFFD CEC2           add.l      A0, 0xFFFDCEC2
000002A8  2990 001E                move.l     [A4 + D0.w + 0x1E], [A0]
000002AC  2007                     move.l     D0, D7
000002AE  C1FC 003A                muls.w     D0, 0x3A /* ':' */
000002B2  4234 002C                clr.b      [A4 + D0.w + 0x2C]
000002B6  2007                     move.l     D0, D7
000002B8  C1FC 003A                muls.w     D0, 0x3A /* ':' */
000002BC  4274 0024                clr.w      [A4 + D0.w + 0x24]
000002C0  2007                     move.l     D0, D7
000002C2  C1FC 003A                muls.w     D0, 0x3A /* ':' */
000002C6  4274 0022                clr.w      [A4 + D0.w + 0x22]
000002CA  2007                     move.l     D0, D7
000002CC  C1FC 003A                muls.w     D0, 0x3A /* ':' */
000002D0  4274 0026                clr.w      [A4 + D0.w + 0x26]
000002D4  2007                     move.l     D0, D7
000002D6  C1FC 003A                muls.w     D0, 0x3A /* ':' */
000002DA  0074 0020 0002           ori.w      [A4 + D0.w + 0x2], 0x20 /* ' ' */
000002E0  2007                     move.l     D0, D7
000002E2  C1FC 003A                muls.w     D0, 0x3A /* ':' */
000002E6  4234 0039                clr.b      [A4 + D0.w + 0x39]
000002EA  426E FFFE                clr.w      [A6 - 0x2]
000002EE  486E FFFC                pea.l      [A6 - 0x4]
000002F2  486E FFFA                pea.l      [A6 - 0x6]
000002F6  48C7                     ext.l      D7
000002F8  2F07                     move.l     -[A7], D7
000002FA  4EBA 1CFC                jsr        [PC + 0x1CFC /* 00001FF8 */]
000002FE  0C46 0008                cmpi.w     D6, 0x8
00000302  4FEF 000C                lea.l      A7, [A7 + 0xC]
00000306  660C                     bne        +0xE /* 00000314 */
00000308  204D                     movea.l    A0, A5
0000030A  D1FC FFFE 94E0           add.l      A0, 0xFFFE94E0
00000310  1010                     move.b     D0, [A0]
00000312  5210                     addq.b     [A0], 1
label00000314:
00000314  3007                     move.w     D0, D7
00000316  600E                     bra        +0x10 /* 00000326 */
label00000318:
00000318  3007                     move.w     D0, D7
0000031A  5247                     addq.w     D7, 1
0000031C  0C47 007F                cmpi.w     D7, 0x7F
00000320  6D00 FE6E                blt        -0x190 /* 00000190 */
00000324  7000                     moveq.l    D0, 0x00
label00000326:
00000326  4CEE 10F8 FFE2           movem.l    D3,D4,D5,D6,D7,A4, [A6 - 0x1E]
0000032C  4E5E                     unlink     A6
0000032E  4E75                     rts
00000330  9463 7265 6174 656D 6... dc.b       "createmachine__FsN21"
export_167:
00000348  4E56 0000                link       A6, 0
0000034C  48E7 0108                movem.l    -[A7], D7,A4
00000350  204D                     movea.l    A0, A5
00000352  D1FC FFFE 9F9C           add.l      A0, 0xFFFE9F9C
00000358  49D0                     lea.l      A4, [A0]
0000035A  3E2E 000A                move.w     D7, [A6 + 0xA]
0000035E  486E 0012                pea.l      [A6 + 0x12]
00000362  486E 000E                pea.l      [A6 + 0xE]
00000366  4EAD 086A                jsr        [A5 + 0x86A /* export_265, CODE:14 @ 00005A2C */]
0000036A  2007                     move.l     D0, D7
0000036C  C1FC 003A                muls.w     D0, 0x3A /* ':' */
00000370  19AE 000F 0007           move.b     [A4 + D0.w + 0x7], [A6 + 0xF]
00000376  2007                     move.l     D0, D7
00000378  C1FC 003A                muls.w     D0, 0x3A /* ':' */
0000037C  19AE 0013 0008           move.b     [A4 + D0.w + 0x8], [A6 + 0x13]
00000382  2007                     move.l     D0, D7
00000384  C1FC 003A                muls.w     D0, 0x3A /* ':' */
00000388  2207                     move.l     D1, D7
0000038A  C3FC 003A                muls.w     D1, 0x3A /* ':' */
0000038E  19B4 0005 1009           move.b     [A4 + D1.w + 0x9], [A4 + D0.w + 0x5]
00000394  2207                     move.l     D1, D7
00000396  C3FC 003A                muls.w     D1, 0x3A /* ':' */
0000039A  19B4 0005 100B           move.b     [A4 + D1.w + 0xB], [A4 + D0.w + 0x5]
000003A0  2207                     move.l     D1, D7
000003A2  C3FC 003A                muls.w     D1, 0x3A /* ':' */
000003A6  19B4 0005 100D           move.b     [A4 + D1.w + 0xD], [A4 + D0.w + 0x5]
000003AC  2007                     move.l     D0, D7
000003AE  C1FC 003A                muls.w     D0, 0x3A /* ':' */
000003B2  2207                     move.l     D1, D7
000003B4  C3FC 003A                muls.w     D1, 0x3A /* ':' */
000003B8  19B4 0006 100A           move.b     [A4 + D1.w + 0xA], [A4 + D0.w + 0x6]
000003BE  2207                     move.l     D1, D7
000003C0  C3FC 003A                muls.w     D1, 0x3A /* ':' */
000003C4  19B4 0006 100C           move.b     [A4 + D1.w + 0xC], [A4 + D0.w + 0x6]
000003CA  2207                     move.l     D1, D7
000003CC  C3FC 003A                muls.w     D1, 0x3A /* ':' */
000003D0  19B4 0006 100E           move.b     [A4 + D1.w + 0xE], [A4 + D0.w + 0x6]
000003D6  2007                     move.l     D0, D7
000003D8  C1FC 003A                muls.w     D0, 0x3A /* ':' */
000003DC  4234 0039                clr.b      [A4 + D0.w + 0x39]
000003E0  2007                     move.l     D0, D7
000003E2  C1FC 003A                muls.w     D0, 0x3A /* ':' */
000003E6  204D                     movea.l    A0, A5
000003E8  D1FC FFFD CEC2           add.l      A0, 0xFFFDCEC2
000003EE  2990 001E                move.l     [A4 + D0.w + 0x1E], [A0]
000003F2  2007                     move.l     D0, D7
000003F4  C1FC 003A                muls.w     D0, 0x3A /* ':' */
000003F8  0074 0002 0002           ori.w      [A4 + D0.w + 0x2], 0x2
000003FE  2007                     move.l     D0, D7
00000400  C1FC 003A                muls.w     D0, 0x3A /* ':' */
00000404  19BC 0001 0004           move.b     [A4 + D0.w + 0x4], 0x1
0000040A  7001                     moveq.l    D0, 0x01
0000040C  4CEE 1080 FFF8           movem.l    D7,A4, [A6 - 0x8]
00000412  4E5E                     unlink     A6
00000414  4E75                     rts
00000416  9273 6574 6D61 6368 6... dc.b       "setmachdest__FsN21"
export_168:
0000042C  4E56 0000                link       A6, 0
00000430  48E7 0308                movem.l    -[A7], D6,D7,A4
00000434  3C2E 000A                move.w     D6, [A6 + 0xA]
00000438  204D                     movea.l    A0, A5
0000043A  D1FC FFFE 9F9C           add.l      A0, 0xFFFE9F9C
00000440  49D0                     lea.l      A4, [A0]
00000442  2006                     move.l     D0, D6
00000444  C1FC 003A                muls.w     D0, 0x3A /* ':' */
00000448  7200                     moveq.l    D1, 0x00
0000044A  3234 0002                move.w     D1, [A4 + D0.w + 0x2]
0000044E  7020                     moveq.l    D0, 0x20
00000450  C041                     and.w      D0, D1
00000452  6606                     bne        +0x8 /* 0000045A */
00000454  7000                     moveq.l    D0, 0x00
00000456  6000 0094                bra        +0x96 /* 000004EC */
label0000045A:
0000045A  3E06                     move.w     D7, D6
label0000045C:
0000045C  2007                     move.l     D0, D7
0000045E  C1FC 003A                muls.w     D0, 0x3A /* ':' */
00000462  0274 FFFE 0002           andi.w     [A4 + D0.w + 0x2], 0xFFFE
00000468  2007                     move.l     D0, D7
0000046A  C1FC 003A                muls.w     D0, 0x3A /* ':' */
0000046E  0274 FFF7 0002           andi.w     [A4 + D0.w + 0x2], 0xFFF7
00000474  2007                     move.l     D0, D7
00000476  C1FC 003A                muls.w     D0, 0x3A /* ':' */
0000047A  3034 0000                move.w     D0, [A4 + D0.w]
0000047E  C1FC 0012                muls.w     D0, 0x12
00000482  204D                     movea.l    A0, A5
00000484  D1FC FFFE 9EB0           add.l      A0, 0xFFFE9EB0
0000048A  2207                     move.l     D1, D7
0000048C  C3FC 003A                muls.w     D1, 0x3A /* ':' */
00000490  19B0 0008 1037           move.b     [A4 + D1.w + 0x37], [A0 + D0.w + 0x8]
00000496  2007                     move.l     D0, D7
00000498  C1FC 003A                muls.w     D0, 0x3A /* ':' */
0000049C  3034 0000                move.w     D0, [A4 + D0.w]
000004A0  C1FC 0012                muls.w     D0, 0x12
000004A4  204D                     movea.l    A0, A5
000004A6  D1FC FFFE 9EB0           add.l      A0, 0xFFFE9EB0
000004AC  2207                     move.l     D1, D7
000004AE  C3FC 003A                muls.w     D1, 0x3A /* ':' */
000004B2  19B0 0009 1038           move.b     [A4 + D1.w + 0x38], [A0 + D0.w + 0x9]
000004B8  2007                     move.l     D0, D7
000004BA  C1FC 003A                muls.w     D0, 0x3A /* ':' */
000004BE  4234 0032                clr.b      [A4 + D0.w + 0x32]
000004C2  2007                     move.l     D0, D7
000004C4  C1FC 003A                muls.w     D0, 0x3A /* ':' */
000004C8  7200                     moveq.l    D1, 0x00
000004CA  3234 0002                move.w     D1, [A4 + D0.w + 0x2]
000004CE  7040                     moveq.l    D0, 0x40
000004D0  C041                     and.w      D0, D1
000004D2  670A                     beq        +0xC /* 000004DE */
000004D4  48C7                     ext.l      D7
000004D6  2F07                     move.l     -[A7], D7
000004D8  4EBA FC10                jsr        [PC - 0x3F0 /* 000000EA */]
000004DC  584F                     addq.w     A7, 4
label000004DE:
000004DE  2007                     move.l     D0, D7
000004E0  C1FC 003A                muls.w     D0, 0x3A /* ':' */
000004E4  3E34 0030                move.w     D7, [A4 + D0.w + 0x30]
000004E8  6600 FF72                bne        -0x8C /* 0000045C */
label000004EC:
000004EC  4CEE 10C0 FFF4           movem.l    D6,D7,A4, [A6 - 0xC]
000004F2  4E5E                     unlink     A6
000004F4  4E75                     rts
000004F6  9672 656C 6561 7365 6... dc.b       "releasemachinelist__Fs"
export_169:
fn00000510:
00000510  4E56 0000                link       A6, 0
00000514  48E7 0300                movem.l    -[A7], D6,D7
00000518  102E 000B                move.b     D0, [A6 + 0xB]
0000051C  4880                     ext.w      D0
0000051E  122E 0013                move.b     D1, [A6 + 0x13]
00000522  4881                     ext.w      D1
00000524  9041                     sub.w      D0, D1
00000526  48C0                     ext.l      D0
00000528  2F00                     move.l     -[A7], D0
0000052A  4EAD 145A                jsr        [A5 + 0x145A /* export_647, CODE:31 @ 00000000 */]
0000052E  1C00                     move.b     D6, D0
00000530  102E 000F                move.b     D0, [A6 + 0xF]
00000534  4880                     ext.w      D0
00000536  122E 0017                move.b     D1, [A6 + 0x17]
0000053A  4881                     ext.w      D1
0000053C  9041                     sub.w      D0, D1
0000053E  48C0                     ext.l      D0
00000540  2F00                     move.l     -[A7], D0
00000542  4EAD 145A                jsr        [A5 + 0x145A /* export_647, CODE:31 @ 00000000 */]
00000546  1E00                     move.b     D7, D0
00000548  4886                     ext.w      D6
0000054A  4886                     ext.w      D6
0000054C  3006                     move.w     D0, D6
0000054E  C1C6                     muls.w     D0, D6
00000550  4887                     ext.w      D7
00000552  4887                     ext.w      D7
00000554  3207                     move.w     D1, D7
00000556  C3C7                     muls.w     D1, D7
00000558  D240                     add.w      D1, D0
0000055A  3001                     move.w     D0, D1
0000055C  4CEE 00C0 FFF8           movem.l    D6,D7, [A6 - 0x8]
00000562  4E5E                     unlink     A6
00000564  4E75                     rts
00000566  8F64 6973 7461 6E63 6... dc.b       "distance__FcN31"
fn00000578:
00000578  4E56 FFFC                link       A6, -0x0004
0000057C  48E7 0300                movem.l    -[A7], D6,D7
00000580  102E 000B                move.b     D0, [A6 + 0xB]
00000584  902E 0013                sub.b      D0, [A6 + 0x13]
00000588  1E00                     move.b     D7, D0
0000058A  102E 000F                move.b     D0, [A6 + 0xF]
0000058E  902E 0017                sub.b      D0, [A6 + 0x17]
00000592  1C00                     move.b     D6, D0
00000594  49C7                     lea.l      A4, D7
00000596  2F07                     move.l     -[A7], D7
00000598  4EAD 145A                jsr        [A5 + 0x145A /* export_647, CODE:31 @ 00000000 */]
0000059C  2D40 FFFC                move.l     [A6 - 0x4], D0
000005A0  49C6                     lea.l      A4, D6
000005A2  2F06                     move.l     -[A7], D6
000005A4  4EAD 145A                jsr        [A5 + 0x145A /* export_647, CODE:31 @ 00000000 */]
000005A8  222E FFFC                move.l     D1, [A6 - 0x4]
000005AC  B081                     cmp.l      D0, D1
000005AE  504F                     addq.w     A7, 8
000005B0  6C0C                     bge        +0xE /* 000005BE */
000005B2  4A07                     tst.b      D7
000005B4  6C04                     bge        +0x6 /* 000005BA */
000005B6  7E02                     moveq.l    D7, 0x02
000005B8  600E                     bra        +0x10 /* 000005C8 */
label000005BA:
000005BA  7E06                     moveq.l    D7, 0x06
000005BC  600A                     bra        +0xC /* 000005C8 */
label000005BE:
000005BE  4A06                     tst.b      D6
000005C0  6C04                     bge        +0x6 /* 000005C6 */
000005C2  7E04                     moveq.l    D7, 0x04
000005C4  6002                     bra        +0x4 /* 000005C8 */
label000005C6:
000005C6  4207                     clr.b      D7
label000005C8:
000005C8  4887                     ext.w      D7
000005CA  3007                     move.w     D0, D7
000005CC  4CEE 00C0 FFF4           movem.l    D6,D7, [A6 - 0xC]
000005D2  4E5E                     unlink     A6
000005D4  4E75                     rts
000005D6  9067 6574 6469 726D 6... dc.b       "getdirmax__FcN31"
fn000005EA:
000005EA  4E56 FFF6                link       A6, -0x000A
000005EE  48E7 0F18                movem.l    -[A7], D4,D5,D6,D7,A3,A4
000005F2  204D                     movea.l    A0, A5
000005F4  D1FC FFFE 9F9C           add.l      A0, 0xFFFE9F9C
000005FA  47D0                     lea.l      A3, [A0]
000005FC  204D                     movea.l    A0, A5
000005FE  D1FC FFFE 9F8A           add.l      A0, 0xFFFE9F8A
00000604  49D0                     lea.l      A4, [A0]
00000606  302E 000A                move.w     D0, [A6 + 0xA]
0000060A  C1FC 003A                muls.w     D0, 0x3A /* ':' */
0000060E  7200                     moveq.l    D1, 0x00
00000610  3233 0002                move.w     D1, [A3 + D0.w + 0x2]
00000614  7020                     moveq.l    D0, 0x20
00000616  C041                     and.w      D0, D1
00000618  6606                     bne        +0x8 /* 00000620 */
0000061A  7000                     moveq.l    D0, 0x00
0000061C  6000 0264                bra        +0x266 /* 00000882 */
label00000620:
00000620  102E 000F                move.b     D0, [A6 + 0xF]
00000624  670E                     beq        +0x10 /* 00000634 */
00000626  5500                     subq.b     D0, 2
00000628  6724                     beq        +0x26 /* 0000064E */
0000062A  5500                     subq.b     D0, 2
0000062C  673A                     beq        +0x3C /* 00000668 */
0000062E  5500                     subq.b     D0, 2
00000630  6750                     beq        +0x52 /* 00000682 */
00000632  6066                     bra        +0x68 /* 0000069A */
label00000634:
00000634  422E FFFC                clr.b      [A6 - 0x4]
00000638  1D7C FFFF FFFD           move.b     [A6 - 0x3], 0xFF
0000063E  1D7C FFFF FFFE           move.b     [A6 - 0x2], 0xFF
00000644  422E FFFF                clr.b      [A6 - 0x1]
00000648  7801                     moveq.l    D4, 0x01
0000064A  4205                     clr.b      D5
0000064C  604C                     bra        +0x4E /* 0000069A */
label0000064E:
0000064E  1D7C 0001 FFFC           move.b     [A6 - 0x4], 0x1
00000654  422E FFFD                clr.b      [A6 - 0x3]
00000658  422E FFFE                clr.b      [A6 - 0x2]
0000065C  1D7C FFFF FFFF           move.b     [A6 - 0x1], 0xFF
00000662  4204                     clr.b      D4
00000664  7A01                     moveq.l    D5, 0x01
00000666  6032                     bra        +0x34 /* 0000069A */
label00000668:
00000668  422E FFFC                clr.b      [A6 - 0x4]
0000066C  1D7C 0001 FFFD           move.b     [A6 - 0x3], 0x1
00000672  1D7C FFFF FFFE           move.b     [A6 - 0x2], 0xFF
00000678  422E FFFF                clr.b      [A6 - 0x1]
0000067C  7801                     moveq.l    D4, 0x01
0000067E  4205                     clr.b      D5
00000680  6018                     bra        +0x1A /* 0000069A */
label00000682:
00000682  1D7C FFFF FFFC           move.b     [A6 - 0x4], 0xFF
00000688  422E FFFD                clr.b      [A6 - 0x3]
0000068C  422E FFFE                clr.b      [A6 - 0x2]
00000690  1D7C FFFF FFFF           move.b     [A6 - 0x1], 0xFF
00000696  4204                     clr.b      D4
00000698  7A01                     moveq.l    D5, 0x01
label0000069A:
0000069A  102E FFFD                move.b     D0, [A6 - 0x3]
0000069E  49C0                     lea.l      A4, D0
000006A0  2F00                     move.l     -[A7], D0
000006A2  102E FFFC                move.b     D0, [A6 - 0x4]
000006A6  49C0                     lea.l      A4, D0
000006A8  2F00                     move.l     -[A7], D0
000006AA  302E 000A                move.w     D0, [A6 + 0xA]
000006AE  48C0                     ext.l      D0
000006B0  2F00                     move.l     -[A7], D0
000006B2  4EBA 01EC                jsr        [PC + 0x1EC /* 000008A0 */]
000006B6  3D40 FFF6                move.w     [A6 - 0xA], D0
000006BA  102E FFFF                move.b     D0, [A6 - 0x1]
000006BE  49C0                     lea.l      A4, D0
000006C0  2F00                     move.l     -[A7], D0
000006C2  102E FFFE                move.b     D0, [A6 - 0x2]
000006C6  49C0                     lea.l      A4, D0
000006C8  2F00                     move.l     -[A7], D0
000006CA  302E 000A                move.w     D0, [A6 + 0xA]
000006CE  48C0                     ext.l      D0
000006D0  2F00                     move.l     -[A7], D0
000006D2  4EBA 01CC                jsr        [PC + 0x1CC /* 000008A0 */]
000006D6  5A40                     addq.w     D0, 5
000006D8  3D40 FFF8                move.w     [A6 - 0x8], D0
000006DC  49C5                     lea.l      A4, D5
000006DE  2F05                     move.l     -[A7], D5
000006E0  49C4                     lea.l      A4, D4
000006E2  2F04                     move.l     -[A7], D4
000006E4  302E 000A                move.w     D0, [A6 + 0xA]
000006E8  48C0                     ext.l      D0
000006EA  2F00                     move.l     -[A7], D0
000006EC  4EBA 01B2                jsr        [PC + 0x1B2 /* 000008A0 */]
000006F0  5A40                     addq.w     D0, 5
000006F2  3D40 FFFA                move.w     [A6 - 0x6], D0
000006F6  7000                     moveq.l    D0, 0x00
000006F8  302E FFF6                move.w     D0, [A6 - 0xA]
000006FC  0C40 075A                cmpi.w     D0, 0x75A
00000700  4FEF 0024                lea.l      A7, [A7 + 0x24]
00000704  6356                     bls        +0x58 /* 0000075C */
00000706  7000                     moveq.l    D0, 0x00
00000708  302E FFF8                move.w     D0, [A6 - 0x8]
0000070C  0C40 075A                cmpi.w     D0, 0x75A
00000710  634A                     bls        +0x4C /* 0000075C */
00000712  7000                     moveq.l    D0, 0x00
00000714  302E FFFA                move.w     D0, [A6 - 0x6]
00000718  0C40 075A                cmpi.w     D0, 0x75A
0000071C  633E                     bls        +0x40 /* 0000075C */
0000071E  302E 000A                move.w     D0, [A6 + 0xA]
00000722  C1FC 003A                muls.w     D0, 0x3A /* ':' */
00000726  322E 000A                move.w     D1, [A6 + 0xA]
0000072A  C3FC 003A                muls.w     D1, 0x3A /* ':' */
0000072E  17B3 0007 1005           move.b     [A3 + D1.w + 0x5], [A3 + D0.w + 0x7]
00000734  302E 000A                move.w     D0, [A6 + 0xA]
00000738  C1FC 003A                muls.w     D0, 0x3A /* ':' */
0000073C  322E 000A                move.w     D1, [A6 + 0xA]
00000740  C3FC 003A                muls.w     D1, 0x3A /* ':' */
00000744  17B3 0008 1006           move.b     [A3 + D1.w + 0x6], [A3 + D0.w + 0x8]
0000074A  206E 0014                movea.l    A0, [A6 + 0x14]
0000074E  4210                     clr.b      [A0]
00000750  206E 0010                movea.l    A0, [A6 + 0x10]
00000754  4210                     clr.b      [A0]
00000756  7001                     moveq.l    D0, 0x01
00000758  6000 0128                bra        +0x12A /* 00000882 */
label0000075C:
0000075C  302E FFF6                move.w     D0, [A6 - 0xA]
00000760  B06E FFF8                cmp.w      D0, [A6 - 0x8]
00000764  625E                     bhi        +0x60 /* 000007C4 */
00000766  302E FFF6                move.w     D0, [A6 - 0xA]
0000076A  B06E FFFA                cmp.w      D0, [A6 - 0x6]
0000076E  6254                     bhi        +0x56 /* 000007C4 */
00000770  4206                     clr.b      D6
00000772  4207                     clr.b      D7
00000774  6020                     bra        +0x22 /* 00000796 */
label00000776:
00000776  4887                     ext.w      D7
00000778  102E FFFC                move.b     D0, [A6 - 0x4]
0000077C  B034 7200                cmp.b      D0, [A4 + D7.w * 2]
00000780  6610                     bne        +0x12 /* 00000792 */
00000782  4887                     ext.w      D7
00000784  102E FFFD                move.b     D0, [A6 - 0x3]
00000788  B034 7201                cmp.b      D0, [A4 + D7.w * 2 + 0x1]
0000078C  6604                     bne        +0x6 /* 00000792 */
0000078E  7C01                     moveq.l    D6, 0x01
00000790  6004                     bra        +0x6 /* 00000796 */
label00000792:
00000792  1007                     move.b     D0, D7
00000794  5207                     addq.b     D7, 1
label00000796:
00000796  0C07 0008                cmpi.b     D7, 0x8
0000079A  6C06                     bge        +0x8 /* 000007A2 */
0000079C  0C06 0001                cmpi.b     D6, 0x1
000007A0  66D4                     bne        -0x2A /* 00000776 */
label000007A2:
000007A2  302E 000A                move.w     D0, [A6 + 0xA]
000007A6  C1FC 003A                muls.w     D0, 0x3A /* ':' */
000007AA  1787 000F                move.b     [A3 + D0.w + 0xF], D7
000007AE  206E 0010                movea.l    A0, [A6 + 0x10]
000007B2  10AE FFFC                move.b     [A0], [A6 - 0x4]
000007B6  206E 0014                movea.l    A0, [A6 + 0x14]
000007BA  10AE FFFD                move.b     [A0], [A6 - 0x3]
000007BE  7001                     moveq.l    D0, 0x01
000007C0  6000 00C0                bra        +0xC2 /* 00000882 */
label000007C4:
000007C4  302E FFF8                move.w     D0, [A6 - 0x8]
000007C8  B06E FFF6                cmp.w      D0, [A6 - 0xA]
000007CC  625C                     bhi        +0x5E /* 0000082A */
000007CE  302E FFF8                move.w     D0, [A6 - 0x8]
000007D2  B06E FFFA                cmp.w      D0, [A6 - 0x6]
000007D6  6252                     bhi        +0x54 /* 0000082A */
000007D8  4206                     clr.b      D6
000007DA  4207                     clr.b      D7
000007DC  6020                     bra        +0x22 /* 000007FE */
label000007DE:
000007DE  4887                     ext.w      D7
000007E0  102E FFFE                move.b     D0, [A6 - 0x2]
000007E4  B034 7200                cmp.b      D0, [A4 + D7.w * 2]
000007E8  6610                     bne        +0x12 /* 000007FA */
000007EA  4887                     ext.w      D7
000007EC  102E FFFF                move.b     D0, [A6 - 0x1]
000007F0  B034 7201                cmp.b      D0, [A4 + D7.w * 2 + 0x1]
000007F4  6604                     bne        +0x6 /* 000007FA */
000007F6  7C01                     moveq.l    D6, 0x01
000007F8  6004                     bra        +0x6 /* 000007FE */
label000007FA:
000007FA  1007                     move.b     D0, D7
000007FC  5207                     addq.b     D7, 1
label000007FE:
000007FE  0C07 0008                cmpi.b     D7, 0x8
00000802  6C06                     bge        +0x8 /* 0000080A */
00000804  0C06 0001                cmpi.b     D6, 0x1
00000808  66D4                     bne        -0x2A /* 000007DE */
label0000080A:
0000080A  302E 000A                move.w     D0, [A6 + 0xA]
0000080E  C1FC 003A                muls.w     D0, 0x3A /* ':' */
00000812  1787 000F                move.b     [A3 + D0.w + 0xF], D7
00000816  206E 0010                movea.l    A0, [A6 + 0x10]
0000081A  10AE FFFE                move.b     [A0], [A6 - 0x2]
0000081E  206E 0014                movea.l    A0, [A6 + 0x14]
00000822  10AE FFFF                move.b     [A0], [A6 - 0x1]
00000826  7001                     moveq.l    D0, 0x01
00000828  6058                     bra        +0x5A /* 00000882 */
label0000082A:
0000082A  302E FFFA                move.w     D0, [A6 - 0x6]
0000082E  B06E FFF6                cmp.w      D0, [A6 - 0xA]
00000832  624E                     bhi        +0x50 /* 00000882 */
00000834  302E FFFA                move.w     D0, [A6 - 0x6]
00000838  B06E FFF8                cmp.w      D0, [A6 - 0x8]
0000083C  6244                     bhi        +0x46 /* 00000882 */
0000083E  4206                     clr.b      D6
00000840  4207                     clr.b      D7
00000842  6018                     bra        +0x1A /* 0000085C */
label00000844:
00000844  4887                     ext.w      D7
00000846  B834 7200                cmp.b      D4, [A4 + D7.w * 2]
0000084A  660C                     bne        +0xE /* 00000858 */
0000084C  4887                     ext.w      D7
0000084E  BA34 7201                cmp.b      D5, [A4 + D7.w * 2 + 0x1]
00000852  6604                     bne        +0x6 /* 00000858 */
00000854  7C01                     moveq.l    D6, 0x01
00000856  6004                     bra        +0x6 /* 0000085C */
label00000858:
00000858  1007                     move.b     D0, D7
0000085A  5207                     addq.b     D7, 1
label0000085C:
0000085C  0C07 0008                cmpi.b     D7, 0x8
00000860  6C06                     bge        +0x8 /* 00000868 */
00000862  0C06 0001                cmpi.b     D6, 0x1
00000866  66DC                     bne        -0x22 /* 00000844 */
label00000868:
00000868  302E 000A                move.w     D0, [A6 + 0xA]
0000086C  C1FC 003A                muls.w     D0, 0x3A /* ':' */
00000870  1787 000F                move.b     [A3 + D0.w + 0xF], D7
00000874  206E 0010                movea.l    A0, [A6 + 0x10]
00000878  1084                     move.b     [A0], D4
0000087A  206E 0014                movea.l    A0, [A6 + 0x14]
0000087E  1085                     move.b     [A0], D5
00000880  7001                     moveq.l    D0, 0x01
label00000882:
00000882  4CEE 18F0 FFDE           movem.l    D4,D5,D6,D7,A3,A4, [A6 - 0x22]
00000888  4E5E                     unlink     A6
0000088A  4E75                     rts
0000088C  9167 6574 6173 7465 7... dc.b       "getastep__FscPcT3"
fn000008A0:
000008A0  4E56 FFF8                link       A6, -0x0008
000008A4  48E7 0F08                movem.l    -[A7], D4,D5,D6,D7,A4
000008A8  204D                     movea.l    A0, A5
000008AA  D1FC FFFE 9F9C           add.l      A0, 0xFFFE9F9C
000008B0  49D0                     lea.l      A4, [A0]
000008B2  3E2E 000A                move.w     D7, [A6 + 0xA]
000008B6  4246                     clr.w      D6
000008B8  2007                     move.l     D0, D7
000008BA  C1FC 003A                muls.w     D0, 0x3A /* ':' */
000008BE  7200                     moveq.l    D1, 0x00
000008C0  3234 0002                move.w     D1, [A4 + D0.w + 0x2]
000008C4  7020                     moveq.l    D0, 0x20
000008C6  C041                     and.w      D0, D1
000008C8  6606                     bne        +0x8 /* 000008D0 */
000008CA  7000                     moveq.l    D0, 0x00
000008CC  6000 01C2                bra        +0x1C4 /* 00000A90 */
label000008D0:
000008D0  2007                     move.l     D0, D7
000008D2  C1FC 003A                muls.w     D0, 0x3A /* ':' */
000008D6  1D74 0007 FFF8           move.b     [A6 - 0x8], [A4 + D0.w + 0x7]
000008DC  2007                     move.l     D0, D7
000008DE  C1FC 003A                muls.w     D0, 0x3A /* ':' */
000008E2  1D74 0008 FFF9           move.b     [A6 - 0x7], [A4 + D0.w + 0x8]
000008E8  2007                     move.l     D0, D7
000008EA  C1FC 003A                muls.w     D0, 0x3A /* ':' */
000008EE  1D74 0009 FFFA           move.b     [A6 - 0x6], [A4 + D0.w + 0x9]
000008F4  2007                     move.l     D0, D7
000008F6  C1FC 003A                muls.w     D0, 0x3A /* ':' */
000008FA  1D74 000A FFFB           move.b     [A6 - 0x5], [A4 + D0.w + 0xA]
00000900  2007                     move.l     D0, D7
00000902  C1FC 003A                muls.w     D0, 0x3A /* ':' */
00000906  1D74 000B FFFC           move.b     [A6 - 0x4], [A4 + D0.w + 0xB]
0000090C  2007                     move.l     D0, D7
0000090E  C1FC 003A                muls.w     D0, 0x3A /* ':' */
00000912  1D74 000C FFFD           move.b     [A6 - 0x3], [A4 + D0.w + 0xC]
00000918  2007                     move.l     D0, D7
0000091A  C1FC 003A                muls.w     D0, 0x3A /* ':' */
0000091E  1D74 000D FFFE           move.b     [A6 - 0x2], [A4 + D0.w + 0xD]
00000924  2007                     move.l     D0, D7
00000926  C1FC 003A                muls.w     D0, 0x3A /* ':' */
0000092A  1D74 000E FFFF           move.b     [A6 - 0x1], [A4 + D0.w + 0xE]
00000930  2007                     move.l     D0, D7
00000932  C1FC 003A                muls.w     D0, 0x3A /* ':' */
00000936  122E 000F                move.b     D1, [A6 + 0xF]
0000093A  D234 0005                add.b      D1, [A4 + D0.w + 0x5]
0000093E  1801                     move.b     D4, D1
00000940  2007                     move.l     D0, D7
00000942  C1FC 003A                muls.w     D0, 0x3A /* ':' */
00000946  122E 0013                move.b     D1, [A6 + 0x13]
0000094A  D234 0006                add.b      D1, [A4 + D0.w + 0x6]
0000094E  1A01                     move.b     D5, D1
00000950  102E FFF9                move.b     D0, [A6 - 0x7]
00000954  49C0                     lea.l      A4, D0
00000956  2F00                     move.l     -[A7], D0
00000958  102E FFF8                move.b     D0, [A6 - 0x8]
0000095C  49C0                     lea.l      A4, D0
0000095E  2F00                     move.l     -[A7], D0
00000960  49C5                     lea.l      A4, D5
00000962  2F05                     move.l     -[A7], D5
00000964  49C4                     lea.l      A4, D4
00000966  2F04                     move.l     -[A7], D4
00000968  4EBA FBA6                jsr        [PC - 0x45A /* 00000510 */]
0000096C  3C00                     move.w     D6, D0
0000096E  7000                     moveq.l    D0, 0x00
00000970  3006                     move.w     D0, D6
00000972  0C40 0004                cmpi.w     D0, 0x4
00000976  4FEF 0010                lea.l      A7, [A7 + 0x10]
0000097A  6206                     bhi        +0x8 /* 00000982 */
0000097C  7000                     moveq.l    D0, 0x00
0000097E  6000 0110                bra        +0x112 /* 00000A90 */
label00000982:
00000982  4246                     clr.w      D6
00000984  4885                     ext.w      D5
00000986  4884                     ext.w      D4
00000988  2004                     move.l     D0, D4
0000098A  C1FC 00C0                muls.w     D0, 0xC0
0000098E  204D                     movea.l    A0, A5
00000990  D1FC FFFE 42D4           add.l      A0, 0xFFFE42D4
00000996  2205                     move.l     D1, D5
00000998  D241                     add.w      D1, D1
0000099A  D240                     add.w      D1, D0
0000099C  7000                     moveq.l    D0, 0x00
0000099E  3030 1000                move.w     D0, [A0 + D1.w]
000009A2  3E3C 07FF                move.w     D7, 0x7FF
000009A6  CE40                     and.w      D7, D0
000009A8  204D                     movea.l    A0, A5
000009AA  D1FC FFFF 7942           add.l      A0, 0xFFFF7942
000009B0  BE50                     cmp.w      D7, [A0]
000009B2  6D20                     blt        +0x22 /* 000009D4 */
000009B4  48C7                     ext.l      D7
000009B6  204D                     movea.l    A0, A5
000009B8  D1FC FFFF 7942           add.l      A0, 0xFFFF7942
000009BE  3010                     move.w     D0, [A0]
000009C0  48C0                     ext.l      D0
000009C2  7200                     moveq.l    D1, 0x00
000009C4  204D                     movea.l    A0, A5
000009C6  D1FC FFFF 78A2           add.l      A0, 0xFFFF78A2
000009CC  1210                     move.b     D1, [A0]
000009CE  D280                     add.l      D1, D0
000009D0  B287                     cmp.l      D1, D7
000009D2  6C62                     bge        +0x64 /* 00000A36 */
label000009D4:
000009D4  204D                     movea.l    A0, A5
000009D6  D1FC FFFF 794A           add.l      A0, 0xFFFF794A
000009DC  BE50                     cmp.w      D7, [A0]
000009DE  6D20                     blt        +0x22 /* 00000A00 */
000009E0  48C7                     ext.l      D7
000009E2  204D                     movea.l    A0, A5
000009E4  D1FC FFFF 794C           add.l      A0, 0xFFFF794C
000009EA  3010                     move.w     D0, [A0]
000009EC  48C0                     ext.l      D0
000009EE  7200                     moveq.l    D1, 0x00
000009F0  204D                     movea.l    A0, A5
000009F2  D1FC FFFF 78A7           add.l      A0, 0xFFFF78A7
000009F8  1210                     move.b     D1, [A0]
000009FA  D280                     add.l      D1, D0
000009FC  B287                     cmp.l      D1, D7
000009FE  6C36                     bge        +0x38 /* 00000A36 */
label00000A00:
00000A00  204D                     movea.l    A0, A5
00000A02  D1FC FFFF 79E2           add.l      A0, 0xFFFF79E2
00000A08  BE50                     cmp.w      D7, [A0]
00000A0A  6D20                     blt        +0x22 /* 00000A2C */
00000A0C  48C7                     ext.l      D7
00000A0E  204D                     movea.l    A0, A5
00000A10  D1FC FFFF 79E2           add.l      A0, 0xFFFF79E2
00000A16  3010                     move.w     D0, [A0]
00000A18  48C0                     ext.l      D0
00000A1A  7200                     moveq.l    D1, 0x00
00000A1C  204D                     movea.l    A0, A5
00000A1E  D1FC FFFF 78F2           add.l      A0, 0xFFFF78F2
00000A24  1210                     move.b     D1, [A0]
00000A26  D280                     add.l      D1, D0
00000A28  B287                     cmp.l      D1, D7
00000A2A  6C0A                     bge        +0xC /* 00000A36 */
label00000A2C:
00000A2C  0646 0064                addi.w     D6, 0x64 /* 'd' */
00000A30  303C 4E20                move.w     D0, 0x4E20 /* 'N ' */
00000A34  605A                     bra        +0x5C /* 00000A90 */
label00000A36:
00000A36  204D                     movea.l    A0, A5
00000A38  D1FC FFFF 7942           add.l      A0, 0xFFFF7942
00000A3E  BE50                     cmp.w      D7, [A0]
00000A40  6D24                     blt        +0x26 /* 00000A66 */
00000A42  48C7                     ext.l      D7
00000A44  204D                     movea.l    A0, A5
00000A46  D1FC FFFF 7942           add.l      A0, 0xFFFF7942
00000A4C  3010                     move.w     D0, [A0]
00000A4E  48C0                     ext.l      D0
00000A50  7200                     moveq.l    D1, 0x00
00000A52  204D                     movea.l    A0, A5
00000A54  D1FC FFFF 78A2           add.l      A0, 0xFFFF78A2
00000A5A  1210                     move.b     D1, [A0]
00000A5C  D280                     add.l      D1, D0
00000A5E  B287                     cmp.l      D1, D7
00000A60  6D04                     blt        +0x6 /* 00000A66 */
00000A62  0646 0055                addi.w     D6, 0x55 /* 'U' */
label00000A66:
00000A66  B82E FFFA                cmp.b      D4, [A6 - 0x6]
00000A6A  6606                     bne        +0x8 /* 00000A72 */
00000A6C  BA2E FFFB                cmp.b      D5, [A6 - 0x5]
00000A70  6718                     beq        +0x1A /* 00000A8A */
label00000A72:
00000A72  B82E FFFC                cmp.b      D4, [A6 - 0x4]
00000A76  6606                     bne        +0x8 /* 00000A7E */
00000A78  BA2E FFFD                cmp.b      D5, [A6 - 0x3]
00000A7C  670C                     beq        +0xE /* 00000A8A */
label00000A7E:
00000A7E  B82E FFFE                cmp.b      D4, [A6 - 0x2]
00000A82  660A                     bne        +0xC /* 00000A8E */
00000A84  BA2E FFFF                cmp.b      D5, [A6 - 0x1]
00000A88  6604                     bne        +0x6 /* 00000A8E */
label00000A8A:
00000A8A  0646 00C8                addi.w     D6, 0xC8
label00000A8E:
00000A8E  3006                     move.w     D0, D6
label00000A90:
00000A90  4CEE 10F0 FFE4           movem.l    D4,D5,D6,D7,A4, [A6 - 0x1C]
00000A96  4E5E                     unlink     A6
00000A98  4E75                     rts
00000A9A  9567 6574 7370 6563 6... dc.b       "getspecialdist__FscT2"
export_170:
00000AB2  4E56 FFF8                link       A6, -0x0008
00000AB6  48E7 0F08                movem.l    -[A7], D4,D5,D6,D7,A4
00000ABA  204D                     movea.l    A0, A5
00000ABC  D1FC FFFE 9F9C           add.l      A0, 0xFFFE9F9C
00000AC2  49D0                     lea.l      A4, [A0]
00000AC4  3E2E 000A                move.w     D7, [A6 + 0xA]
00000AC8  426E FFFA                clr.w      [A6 - 0x6]
00000ACC  2007                     move.l     D0, D7
00000ACE  C1FC 003A                muls.w     D0, 0x3A /* ':' */
00000AD2  7200                     moveq.l    D1, 0x00
00000AD4  3234 0002                move.w     D1, [A4 + D0.w + 0x2]
00000AD8  7020                     moveq.l    D0, 0x20
00000ADA  C041                     and.w      D0, D1
00000ADC  6606                     bne        +0x8 /* 00000AE4 */
00000ADE  7000                     moveq.l    D0, 0x00
00000AE0  6000 038A                bra        +0x38C /* 00000E6C */
label00000AE4:
00000AE4  2007                     move.l     D0, D7
00000AE6  C1FC 003A                muls.w     D0, 0x3A /* ':' */
00000AEA  7A00                     moveq.l    D5, 0x00
00000AEC  1A34 0005                move.b     D5, [A4 + D0.w + 0x5]
00000AF0  2007                     move.l     D0, D7
00000AF2  C1FC 003A                muls.w     D0, 0x3A /* ':' */
00000AF6  7C00                     moveq.l    D6, 0x00
00000AF8  1C34 0006                move.b     D6, [A4 + D0.w + 0x6]
00000AFC  2007                     move.l     D0, D7
00000AFE  C1FC 003A                muls.w     D0, 0x3A /* ':' */
00000B02  7800                     moveq.l    D4, 0x00
00000B04  1834 000F                move.b     D4, [A4 + D0.w + 0xF]
00000B08  2007                     move.l     D0, D7
00000B0A  C1FC 003A                muls.w     D0, 0x3A /* ':' */
00000B0E  3834 0002                move.w     D4, [A4 + D0.w + 0x2]
00000B12  2007                     move.l     D0, D7
00000B14  C1FC 003A                muls.w     D0, 0x3A /* ':' */
00000B18  3D74 0030 FFF8           move.w     [A6 - 0x8], [A4 + D0.w + 0x30]
00000B1E  2005                     move.l     D0, D5
00000B20  C1FC 00C0                muls.w     D0, 0xC0
00000B24  204D                     movea.l    A0, A5
00000B26  D1FC FFFE 42D4           add.l      A0, 0xFFFE42D4
00000B2C  2206                     move.l     D1, D6
00000B2E  D241                     add.w      D1, D1
00000B30  D240                     add.w      D1, D0
00000B32  3D70 1000 FFFC           move.w     [A6 - 0x4], [A0 + D1.w]
00000B38  2005                     move.l     D0, D5
00000B3A  C1FC 00C0                muls.w     D0, 0xC0
00000B3E  204D                     movea.l    A0, A5
00000B40  D1FC FFFD FAD4           add.l      A0, 0xFFFDFAD4
00000B46  2206                     move.l     D1, D6
00000B48  D241                     add.w      D1, D1
00000B4A  D240                     add.w      D1, D0
00000B4C  3D70 1000 FFFE           move.w     [A6 - 0x2], [A0 + D1.w]
00000B52  303C 0080                move.w     D0, 0x80
00000B56  C044                     and.w      D0, D4
00000B58  670A                     beq        +0xC /* 00000B64 */
00000B5A  48C7                     ext.l      D7
00000B5C  2F07                     move.l     -[A7], D7
00000B5E  4EBA 05DC                jsr        [PC + 0x5DC /* 0000113C */]
00000B62  584F                     addq.w     A7, 4
label00000B64:
00000B64  2007                     move.l     D0, D7
00000B66  C1FC 003A                muls.w     D0, 0x3A /* ':' */
00000B6A  1034 0008                move.b     D0, [A4 + D0.w + 0x8]
00000B6E  49C0                     lea.l      A4, D0
00000B70  2F00                     move.l     -[A7], D0
00000B72  2007                     move.l     D0, D7
00000B74  C1FC 003A                muls.w     D0, 0x3A /* ':' */
00000B78  1034 0007                move.b     D0, [A4 + D0.w + 0x7]
00000B7C  49C0                     lea.l      A4, D0
00000B7E  2F00                     move.l     -[A7], D0
00000B80  2007                     move.l     D0, D7
00000B82  C1FC 003A                muls.w     D0, 0x3A /* ':' */
00000B86  1034 0006                move.b     D0, [A4 + D0.w + 0x6]
00000B8A  49C0                     lea.l      A4, D0
00000B8C  2F00                     move.l     -[A7], D0
00000B8E  2007                     move.l     D0, D7
00000B90  C1FC 003A                muls.w     D0, 0x3A /* ':' */
00000B94  1034 0005                move.b     D0, [A4 + D0.w + 0x5]
00000B98  49C0                     lea.l      A4, D0
00000B9A  2F00                     move.l     -[A7], D0
00000B9C  4EBA F9DA                jsr        [PC - 0x626 /* 00000578 */]
00000BA0  1800                     move.b     D4, D0
00000BA2  486E FFFB                pea.l      [A6 - 0x5]
00000BA6  486E FFFA                pea.l      [A6 - 0x6]
00000BAA  49C4                     lea.l      A4, D4
00000BAC  2F04                     move.l     -[A7], D4
00000BAE  48C7                     ext.l      D7
00000BB0  2F07                     move.l     -[A7], D7
00000BB2  4EBA FA36                jsr        [PC - 0x5CA /* 000005EA */]
00000BB6  2007                     move.l     D0, D7
00000BB8  C1FC 003A                muls.w     D0, 0x3A /* ':' */
00000BBC  2207                     move.l     D1, D7
00000BBE  C3FC 003A                muls.w     D1, 0x3A /* ':' */
00000BC2  19B4 000B 100D           move.b     [A4 + D1.w + 0xD], [A4 + D0.w + 0xB]
00000BC8  2007                     move.l     D0, D7
00000BCA  C1FC 003A                muls.w     D0, 0x3A /* ':' */
00000BCE  2207                     move.l     D1, D7
00000BD0  C3FC 003A                muls.w     D1, 0x3A /* ':' */
00000BD4  19B4 000C 100E           move.b     [A4 + D1.w + 0xE], [A4 + D0.w + 0xC]
00000BDA  2007                     move.l     D0, D7
00000BDC  C1FC 003A                muls.w     D0, 0x3A /* ':' */
00000BE0  2207                     move.l     D1, D7
00000BE2  C3FC 003A                muls.w     D1, 0x3A /* ':' */
00000BE6  19B4 0009 100B           move.b     [A4 + D1.w + 0xB], [A4 + D0.w + 0x9]
00000BEC  2007                     move.l     D0, D7
00000BEE  C1FC 003A                muls.w     D0, 0x3A /* ':' */
00000BF2  2207                     move.l     D1, D7
00000BF4  C3FC 003A                muls.w     D1, 0x3A /* ':' */
00000BF8  19B4 000A 100C           move.b     [A4 + D1.w + 0xC], [A4 + D0.w + 0xA]
00000BFE  2007                     move.l     D0, D7
00000C00  C1FC 003A                muls.w     D0, 0x3A /* ':' */
00000C04  2207                     move.l     D1, D7
00000C06  C3FC 003A                muls.w     D1, 0x3A /* ':' */
00000C0A  19B4 0005 1009           move.b     [A4 + D1.w + 0x9], [A4 + D0.w + 0x5]
00000C10  2007                     move.l     D0, D7
00000C12  C1FC 003A                muls.w     D0, 0x3A /* ':' */
00000C16  2207                     move.l     D1, D7
00000C18  C3FC 003A                muls.w     D1, 0x3A /* ':' */
00000C1C  19B4 0006 100A           move.b     [A4 + D1.w + 0xA], [A4 + D0.w + 0x6]
00000C22  2007                     move.l     D0, D7
00000C24  C1FC 003A                muls.w     D0, 0x3A /* ':' */
00000C28  122E FFFA                move.b     D1, [A6 - 0x6]
00000C2C  D334 0005                add.b      [A4 + D0.w + 0x5], D1
00000C30  7A00                     moveq.l    D5, 0x00
00000C32  1A34 0005                move.b     D5, [A4 + D0.w + 0x5]
00000C36  2007                     move.l     D0, D7
00000C38  C1FC 003A                muls.w     D0, 0x3A /* ':' */
00000C3C  122E FFFB                move.b     D1, [A6 - 0x5]
00000C40  D334 0006                add.b      [A4 + D0.w + 0x6], D1
00000C44  7C00                     moveq.l    D6, 0x00
00000C46  1C34 0006                move.b     D6, [A4 + D0.w + 0x6]
00000C4A  2005                     move.l     D0, D5
00000C4C  C1FC 00C0                muls.w     D0, 0xC0
00000C50  204D                     movea.l    A0, A5
00000C52  D1FC FFFE 42D4           add.l      A0, 0xFFFE42D4
00000C58  2206                     move.l     D1, D6
00000C5A  D241                     add.w      D1, D1
00000C5C  D240                     add.w      D1, D0
00000C5E  7000                     moveq.l    D0, 0x00
00000C60  3030 1000                move.w     D0, [A0 + D1.w]
00000C64  323C 07FF                move.w     D1, 0x7FF
00000C68  C240                     and.w      D1, D0
00000C6A  7000                     moveq.l    D0, 0x00
00000C6C  3001                     move.w     D0, D1
00000C6E  4A80                     tst.l      D0
00000C70  204D                     movea.l    A0, A5
00000C72  D1FC FFFF 7942           add.l      A0, 0xFFFF7942
00000C78  3210                     move.w     D1, [A0]
00000C7A  48C1                     ext.l      D1
00000C7C  B280                     cmp.l      D1, D0
00000C7E  4FEF 0020                lea.l      A7, [A7 + 0x20]
00000C82  6E00 00B2                bgt        +0xB4 /* 00000D36 */
00000C86  2005                     move.l     D0, D5
00000C88  C1FC 00C0                muls.w     D0, 0xC0
00000C8C  204D                     movea.l    A0, A5
00000C8E  D1FC FFFE 42D4           add.l      A0, 0xFFFE42D4
00000C94  2206                     move.l     D1, D6
00000C96  D241                     add.w      D1, D1
00000C98  D240                     add.w      D1, D0
00000C9A  7000                     moveq.l    D0, 0x00
00000C9C  3030 1000                move.w     D0, [A0 + D1.w]
00000CA0  323C 07FF                move.w     D1, 0x7FF
00000CA4  C240                     and.w      D1, D0
00000CA6  7000                     moveq.l    D0, 0x00
00000CA8  3001                     move.w     D0, D1
00000CAA  4A80                     tst.l      D0
00000CAC  204D                     movea.l    A0, A5
00000CAE  D1FC FFFF 7942           add.l      A0, 0xFFFF7942
00000CB4  3210                     move.w     D1, [A0]
00000CB6  48C1                     ext.l      D1
00000CB8  7400                     moveq.l    D2, 0x00
00000CBA  204D                     movea.l    A0, A5
00000CBC  D1FC FFFF 78A2           add.l      A0, 0xFFFF78A2
00000CC2  1410                     move.b     D2, [A0]
00000CC4  D481                     add.l      D2, D1
00000CC6  B480                     cmp.l      D2, D0
00000CC8  6F6C                     ble        +0x6E /* 00000D36 */
00000CCA  204D                     movea.l    A0, A5
00000CCC  D1FC FFFE 9F88           add.l      A0, 0xFFFE9F88
00000CD2  5250                     addq.w     [A0], 1
00000CD4  700A                     moveq.l    D0, 0x0A
00000CD6  204D                     movea.l    A0, A5
00000CD8  D1FC FFFE 9F88           add.l      A0, 0xFFFE9F88
00000CDE  B050                     cmp.w      D0, [A0]
00000CE0  6C54                     bge        +0x56 /* 00000D36 */
00000CE2  702C                     moveq.l    D0, 0x2C
00000CE4  2F00                     move.l     -[A7], D0
00000CE6  4EAD 032A                jsr        [A5 + 0x32A /* export_97, CODE:5 @ 00000560 */]
00000CEA  204D                     movea.l    A0, A5
00000CEC  D1FC FFFE 9F88           add.l      A0, 0xFFFE9F88
00000CF2  4250                     clr.w      [A0]
00000CF4  2007                     move.l     D0, D7
00000CF6  C1FC 003A                muls.w     D0, 0x3A /* ':' */
00000CFA  7206                     moveq.l    D1, 0x06
00000CFC  B274 0000                cmp.w      D1, [A4 + D0.w]
00000D00  584F                     addq.w     A7, 4
00000D02  670E                     beq        +0x10 /* 00000D12 */
00000D04  7002                     moveq.l    D0, 0x02
00000D06  2F00                     move.l     -[A7], D0
00000D08  48C7                     ext.l      D7
00000D0A  2F07                     move.l     -[A7], D7
00000D0C  4EBA 1D44                jsr        [PC + 0x1D44 /* 00002A52 */]
00000D10  504F                     addq.w     A7, 8
label00000D12:
00000D12  2007                     move.l     D0, D7
00000D14  C1FC 003A                muls.w     D0, 0x3A /* ':' */
00000D18  4A74 0030                tst.w      [A4 + D0.w + 0x30]
00000D1C  6718                     beq        +0x1A /* 00000D36 */
00000D1E  7002                     moveq.l    D0, 0x02
00000D20  2F00                     move.l     -[A7], D0
00000D22  2207                     move.l     D1, D7
00000D24  C3FC 003A                muls.w     D1, 0x3A /* ':' */
00000D28  3234 1030                move.w     D1, [A4 + D1.w + 0x30]
00000D2C  48C1                     ext.l      D1
00000D2E  2F01                     move.l     -[A7], D1
00000D30  4EBA 1D20                jsr        [PC + 0x1D20 /* 00002A52 */]
00000D34  504F                     addq.w     A7, 8
label00000D36:
00000D36  48C7                     ext.l      D7
00000D38  2F07                     move.l     -[A7], D7
00000D3A  4EBA 16B2                jsr        [PC + 0x16B2 /* 000023EE */]
00000D3E  48C7                     ext.l      D7
00000D40  2F07                     move.l     -[A7], D7
00000D42  4EBA 06A6                jsr        [PC + 0x6A6 /* 000013EA */]
00000D46  4A40                     tst.w      D0
00000D48  504F                     addq.w     A7, 8
00000D4A  670C                     beq        +0xE /* 00000D58 */
00000D4C  48C7                     ext.l      D7
00000D4E  2F07                     move.l     -[A7], D7
00000D50  4EBA 1DD4                jsr        [PC + 0x1DD4 /* 00002B26 */]
00000D54  584F                     addq.w     A7, 4
00000D56  6012                     bra        +0x14 /* 00000D6A */
label00000D58:
00000D58  48C7                     ext.l      D7
00000D5A  2F07                     move.l     -[A7], D7
00000D5C  4EBA 1D66                jsr        [PC + 0x1D66 /* 00002AC4 */]
00000D60  48C7                     ext.l      D7
00000D62  2F07                     move.l     -[A7], D7
00000D64  4EBA 0122                jsr        [PC + 0x122 /* 00000E88 */]
00000D68  504F                     addq.w     A7, 8
label00000D6A:
00000D6A  2007                     move.l     D0, D7
00000D6C  C1FC 003A                muls.w     D0, 0x3A /* ':' */
00000D70  2207                     move.l     D1, D7
00000D72  C3FC 003A                muls.w     D1, 0x3A /* ':' */
00000D76  1034 0005                move.b     D0, [A4 + D0.w + 0x5]
00000D7A  B034 1007                cmp.b      D0, [A4 + D1.w + 0x7]
00000D7E  6626                     bne        +0x28 /* 00000DA6 */
00000D80  2007                     move.l     D0, D7
00000D82  C1FC 003A                muls.w     D0, 0x3A /* ':' */
00000D86  2207                     move.l     D1, D7
00000D88  C3FC 003A                muls.w     D1, 0x3A /* ':' */
00000D8C  1034 0006                move.b     D0, [A4 + D0.w + 0x6]
00000D90  B034 1008                cmp.b      D0, [A4 + D1.w + 0x8]
00000D94  6610                     bne        +0x12 /* 00000DA6 */
00000D96  2007                     move.l     D0, D7
00000D98  C1FC 003A                muls.w     D0, 0x3A /* ':' */
00000D9C  4234 0039                clr.b      [A4 + D0.w + 0x39]
00000DA0  7000                     moveq.l    D0, 0x00
00000DA2  6000 00C8                bra        +0xCA /* 00000E6C */
label00000DA6:
00000DA6  2007                     move.l     D0, D7
00000DA8  C1FC 003A                muls.w     D0, 0x3A /* ':' */
00000DAC  5234 0039                addq.b     [A4 + D0.w + 0x39], 1
00000DB0  2007                     move.l     D0, D7
00000DB2  C1FC 003A                muls.w     D0, 0x3A /* ':' */
00000DB6  7240                     moveq.l    D1, 0x40
00000DB8  B234 0039                cmp.b      D1, [A4 + D0.w + 0x39]
00000DBC  6E00 00AC                bgt        +0xAE /* 00000E6A */
00000DC0  2007                     move.l     D0, D7
00000DC2  C1FC 003A                muls.w     D0, 0x3A /* ':' */
00000DC6  7200                     moveq.l    D1, 0x00
00000DC8  3234 0002                move.w     D1, [A4 + D0.w + 0x2]
00000DCC  303C 0080                move.w     D0, 0x80
00000DD0  C041                     and.w      D0, D1
00000DD2  670A                     beq        +0xC /* 00000DDE */
00000DD4  48C7                     ext.l      D7
00000DD6  2F07                     move.l     -[A7], D7
00000DD8  4EBA 0362                jsr        [PC + 0x362 /* 0000113C */]
00000DDC  584F                     addq.w     A7, 4
label00000DDE:
00000DDE  2007                     move.l     D0, D7
00000DE0  C1FC 003A                muls.w     D0, 0x3A /* ':' */
00000DE4  2207                     move.l     D1, D7
00000DE6  C3FC 003A                muls.w     D1, 0x3A /* ':' */
00000DEA  19B4 0007 1005           move.b     [A4 + D1.w + 0x5], [A4 + D0.w + 0x7]
00000DF0  2007                     move.l     D0, D7
00000DF2  C1FC 003A                muls.w     D0, 0x3A /* ':' */
00000DF6  2207                     move.l     D1, D7
00000DF8  C3FC 003A                muls.w     D1, 0x3A /* ':' */
00000DFC  19B4 0008 1006           move.b     [A4 + D1.w + 0x6], [A4 + D0.w + 0x8]
00000E02  48C7                     ext.l      D7
00000E04  2F07                     move.l     -[A7], D7
00000E06  4EBA 15E6                jsr        [PC + 0x15E6 /* 000023EE */]
00000E0A  2007                     move.l     D0, D7
00000E0C  C1FC 003A                muls.w     D0, 0x3A /* ':' */
00000E10  4234 0039                clr.b      [A4 + D0.w + 0x39]
00000E14  2007                     move.l     D0, D7
00000E16  C1FC 003A                muls.w     D0, 0x3A /* ':' */
00000E1A  7206                     moveq.l    D1, 0x06
00000E1C  B274 0000                cmp.w      D1, [A4 + D0.w]
00000E20  584F                     addq.w     A7, 4
00000E22  670E                     beq        +0x10 /* 00000E32 */
00000E24  700A                     moveq.l    D0, 0x0A
00000E26  2F00                     move.l     -[A7], D0
00000E28  48C7                     ext.l      D7
00000E2A  2F07                     move.l     -[A7], D7
00000E2C  4EBA 1C24                jsr        [PC + 0x1C24 /* 00002A52 */]
00000E30  504F                     addq.w     A7, 8
label00000E32:
00000E32  702D                     moveq.l    D0, 0x2D
00000E34  2F00                     move.l     -[A7], D0
00000E36  4EAD 032A                jsr        [A5 + 0x32A /* export_97, CODE:5 @ 00000560 */]
00000E3A  48C7                     ext.l      D7
00000E3C  2F07                     move.l     -[A7], D7
00000E3E  4EBA 05AA                jsr        [PC + 0x5AA /* 000013EA */]
00000E42  4A40                     tst.w      D0
00000E44  504F                     addq.w     A7, 8
00000E46  670C                     beq        +0xE /* 00000E54 */
00000E48  48C7                     ext.l      D7
00000E4A  2F07                     move.l     -[A7], D7
00000E4C  4EBA 1CD8                jsr        [PC + 0x1CD8 /* 00002B26 */]
00000E50  584F                     addq.w     A7, 4
00000E52  6012                     bra        +0x14 /* 00000E66 */
label00000E54:
00000E54  48C7                     ext.l      D7
00000E56  2F07                     move.l     -[A7], D7
00000E58  4EBA 1C6A                jsr        [PC + 0x1C6A /* 00002AC4 */]
00000E5C  48C7                     ext.l      D7
00000E5E  2F07                     move.l     -[A7], D7
00000E60  4EBA 0026                jsr        [PC + 0x26 /* 00000E88 */]
00000E64  504F                     addq.w     A7, 8
label00000E66:
00000E66  7000                     moveq.l    D0, 0x00
00000E68  6002                     bra        +0x4 /* 00000E6C */
label00000E6A:
00000E6A  7001                     moveq.l    D0, 0x01
label00000E6C:
00000E6C  4CEE 10F0 FFE4           movem.l    D4,D5,D6,D7,A4, [A6 - 0x1C]
00000E72  4E5E                     unlink     A6
00000E74  4E75                     rts
00000E76  8F6D 6F76 656D 6163 6... dc.b       "movemachine__Fs"
export_171:
fn00000E88:
00000E88  4E56 0000                link       A6, 0
00000E8C  48E7 0108                movem.l    -[A7], D7,A4
00000E90  204D                     movea.l    A0, A5
00000E92  D1FC FFFE 9F9C           add.l      A0, 0xFFFE9F9C
00000E98  49D0                     lea.l      A4, [A0]
00000E9A  3E2E 000A                move.w     D7, [A6 + 0xA]
00000E9E  2007                     move.l     D0, D7
00000EA0  C1FC 003A                muls.w     D0, 0x3A /* ':' */
00000EA4  7200                     moveq.l    D1, 0x00
00000EA6  3234 0002                move.w     D1, [A4 + D0.w + 0x2]
00000EAA  7020                     moveq.l    D0, 0x20
00000EAC  C041                     and.w      D0, D1
00000EAE  6604                     bne        +0x6 /* 00000EB4 */
00000EB0  7000                     moveq.l    D0, 0x00
00000EB2  6040                     bra        +0x42 /* 00000EF4 */
label00000EB4:
00000EB4  2007                     move.l     D0, D7
00000EB6  C1FC 003A                muls.w     D0, 0x3A /* ':' */
00000EBA  7200                     moveq.l    D1, 0x00
00000EBC  3234 0002                move.w     D1, [A4 + D0.w + 0x2]
00000EC0  303C 0080                move.w     D0, 0x80
00000EC4  C041                     and.w      D0, D1
00000EC6  6604                     bne        +0x6 /* 00000ECC */
00000EC8  7000                     moveq.l    D0, 0x00
00000ECA  6028                     bra        +0x2A /* 00000EF4 */
label00000ECC:
00000ECC  2007                     move.l     D0, D7
00000ECE  C1FC 003A                muls.w     D0, 0x3A /* ':' */
00000ED2  7200                     moveq.l    D1, 0x00
00000ED4  3234 0002                move.w     D1, [A4 + D0.w + 0x2]
00000ED8  7020                     moveq.l    D0, 0x20
00000EDA  C041                     and.w      D0, D1
00000EDC  670A                     beq        +0xC /* 00000EE8 */
00000EDE  48C7                     ext.l      D7
00000EE0  2F07                     move.l     -[A7], D7
00000EE2  4EBA 0034                jsr        [PC + 0x34 /* 00000F18 */]
00000EE6  584F                     addq.w     A7, 4
label00000EE8:
00000EE8  2007                     move.l     D0, D7
00000EEA  C1FC 003A                muls.w     D0, 0x3A /* ':' */
00000EEE  3E34 0030                move.w     D7, [A4 + D0.w + 0x30]
00000EF2  66D8                     bne        -0x26 /* 00000ECC */
label00000EF4:
00000EF4  4CEE 1080 FFF8           movem.l    D7,A4, [A6 - 0x8]
00000EFA  4E5E                     unlink     A6
00000EFC  4E75                     rts
00000EFE  9662 6C69 745F 7768 6... dc.b       "blit_whole_machine__Fs"
fn00000F18:
00000F18  4E56 FFF0                link       A6, -0x0010
00000F1C  48E7 0F08                movem.l    -[A7], D4,D5,D6,D7,A4
00000F20  204D                     movea.l    A0, A5
00000F22  D1FC FFFE 9F9C           add.l      A0, 0xFFFE9F9C
00000F28  49D0                     lea.l      A4, [A0]
00000F2A  3A2E 000A                move.w     D5, [A6 + 0xA]
00000F2E  2005                     move.l     D0, D5
00000F30  C1FC 003A                muls.w     D0, 0x3A /* ':' */
00000F34  7200                     moveq.l    D1, 0x00
00000F36  1234 0005                move.b     D1, [A4 + D0.w + 0x5]
00000F3A  3D41 FFF4                move.w     [A6 - 0xC], D1
00000F3E  2005                     move.l     D0, D5
00000F40  C1FC 003A                muls.w     D0, 0x3A /* ':' */
00000F44  7800                     moveq.l    D4, 0x00
00000F46  1834 0006                move.b     D4, [A4 + D0.w + 0x6]
00000F4A  2005                     move.l     D0, D5
00000F4C  C1FC 003A                muls.w     D0, 0x3A /* ':' */
00000F50  3034 0000                move.w     D0, [A4 + D0.w]
00000F54  C1FC 0012                muls.w     D0, 0x12
00000F58  204D                     movea.l    A0, A5
00000F5A  D1FC FFFE 9EB0           add.l      A0, 0xFFFE9EB0
00000F60  7200                     moveq.l    D1, 0x00
00000F62  1230 0000                move.b     D1, [A0 + D0.w]
00000F66  D241                     add.w      D1, D1
00000F68  204D                     movea.l    A0, A5
00000F6A  D1FC FFFF 7942           add.l      A0, 0xFFFF7942
00000F70  3E30 1000                move.w     D7, [A0 + D1.w]
00000F74  486E FFF2                pea.l      [A6 - 0xE]
00000F78  486E FFF0                pea.l      [A6 - 0x10]
00000F7C  48C5                     ext.l      D5
00000F7E  2F05                     move.l     -[A7], D5
00000F80  4EBA 1076                jsr        [PC + 0x1076 /* 00001FF8 */]
00000F84  2005                     move.l     D0, D5
00000F86  C1FC 003A                muls.w     D0, 0x3A /* ':' */
00000F8A  3034 0000                move.w     D0, [A4 + D0.w]
00000F8E  C1FC 0012                muls.w     D0, 0x12
00000F92  204D                     movea.l    A0, A5
00000F94  D1FC FFFE 9EB0           add.l      A0, 0xFFFE9EB0
00000F9A  7200                     moveq.l    D1, 0x00
00000F9C  1230 0000                move.b     D1, [A0 + D0.w]
00000FA0  D241                     add.w      D1, D1
00000FA2  204D                     movea.l    A0, A5
00000FA4  D1FC FFFF 7942           add.l      A0, 0xFFFF7942
00000FAA  3D70 1000 FFF6           move.w     [A6 - 0xA], [A0 + D1.w]
00000FB0  2005                     move.l     D0, D5
00000FB2  C1FC 003A                muls.w     D0, 0x3A /* ':' */
00000FB6  3034 0000                move.w     D0, [A4 + D0.w]
00000FBA  C1FC 0012                muls.w     D0, 0x12
00000FBE  204D                     movea.l    A0, A5
00000FC0  D1FC FFFE 9EB0           add.l      A0, 0xFFFE9EB0
00000FC6  1030 0008                move.b     D0, [A0 + D0.w + 0x8]
00000FCA  4880                     ext.w      D0
00000FCC  3E00                     move.w     D7, D0
00000FCE  2005                     move.l     D0, D5
00000FD0  C1FC 003A                muls.w     D0, 0x3A /* ':' */
00000FD4  3034 0000                move.w     D0, [A4 + D0.w]
00000FD8  C1FC 0012                muls.w     D0, 0x12
00000FDC  204D                     movea.l    A0, A5
00000FDE  D1FC FFFE 9EB0           add.l      A0, 0xFFFE9EB0
00000FE4  1030 0009                move.b     D0, [A0 + D0.w + 0x9]
00000FE8  4880                     ext.w      D0
00000FEA  3C00                     move.w     D6, D0
00000FEC  2005                     move.l     D0, D5
00000FEE  C1FC 003A                muls.w     D0, 0x3A /* ':' */
00000FF2  3034 0000                move.w     D0, [A4 + D0.w]
00000FF6  C1FC 0012                muls.w     D0, 0x12
00000FFA  204D                     movea.l    A0, A5
00000FFC  D1FC FFFE 9EB0           add.l      A0, 0xFFFE9EB0
00001002  1030 000A                move.b     D0, [A0 + D0.w + 0xA]
00001006  4880                     ext.w      D0
00001008  3D40 FFF8                move.w     [A6 - 0x8], D0
0000100C  2005                     move.l     D0, D5
0000100E  C1FC 003A                muls.w     D0, 0x3A /* ':' */
00001012  7200                     moveq.l    D1, 0x00
00001014  1234 000F                move.b     D1, [A4 + D0.w + 0xF]
00001018  3D41 FFFA                move.w     [A6 - 0x6], D1
0000101C  3006                     move.w     D0, D6
0000101E  C1C7                     muls.w     D0, D7
00001020  322E FFF8                move.w     D1, [A6 - 0x8]
00001024  48C1                     ext.l      D1
00001026  4C00 1800                muls.l     D1, D0
0000102A  3D41 FFFC                move.w     [A6 - 0x4], D1
0000102E  302E FFFA                move.w     D0, [A6 - 0x6]
00001032  E240                     asr        D0.w, 1
00001034  C1EE FFFC                muls.w     D0, [A6 - 0x4]
00001038  D06E FFF6                add.w      D0, [A6 - 0xA]
0000103C  3D40 FFFE                move.w     [A6 - 0x2], D0
00001040  2005                     move.l     D0, D5
00001042  C1FC 003A                muls.w     D0, 0x3A /* ':' */
00001046  1034 002C                move.b     D0, [A4 + D0.w + 0x2C]
0000104A  49C0                     lea.l      A4, D0
0000104C  3206                     move.w     D1, D6
0000104E  C3C7                     muls.w     D1, D7
00001050  4C00 1800                muls.l     D1, D0
00001054  D36E FFFE                add.w      [A6 - 0x2], D1
00001058  4205                     clr.b      D5
0000105A  3C2E FFF4                move.w     D6, [A6 - 0xC]
0000105E  4FEF 000C                lea.l      A7, [A7 + 0xC]
00001062  6000 00A2                bra        +0xA4 /* 00001106 */
label00001066:
00001066  3E04                     move.w     D7, D4
00001068  6000 0086                bra        +0x88 /* 000010F0 */
label0000106C:
0000106C  2006                     move.l     D0, D6
0000106E  C1FC 00C0                muls.w     D0, 0xC0
00001072  204D                     movea.l    A0, A5
00001074  D1FC FFFE 42D4           add.l      A0, 0xFFFE42D4
0000107A  2207                     move.l     D1, D7
0000107C  D241                     add.w      D1, D1
0000107E  D240                     add.w      D1, D0
00001080  0070 0800 1000           ori.w      [A0 + D1.w], 0x800
00001086  2006                     move.l     D0, D6
00001088  C1FC 00C0                muls.w     D0, 0xC0
0000108C  204D                     movea.l    A0, A5
0000108E  D1FC FFFD FAD4           add.l      A0, 0xFFFDFAD4
00001094  2207                     move.l     D1, D7
00001096  D241                     add.w      D1, D1
00001098  D240                     add.w      D1, D0
0000109A  7000                     moveq.l    D0, 0x00
0000109C  3030 1000                move.w     D0, [A0 + D1.w]
000010A0  323C F800                move.w     D1, 0xF800
000010A4  C240                     and.w      D1, D0
000010A6  7000                     moveq.l    D0, 0x00
000010A8  3001                     move.w     D0, D1
000010AA  322E FFFE                move.w     D1, [A6 - 0x2]
000010AE  48C1                     ext.l      D1
000010B0  49C5                     lea.l      A4, D5
000010B2  D285                     add.l      D1, D5
000010B4  8280                     or.l       D1, D0
000010B6  2006                     move.l     D0, D6
000010B8  C1FC 00C0                muls.w     D0, 0xC0
000010BC  204D                     movea.l    A0, A5
000010BE  D1FC FFFD FAD4           add.l      A0, 0xFFFDFAD4
000010C4  2407                     move.l     D2, D7
000010C6  D442                     add.w      D2, D2
000010C8  D440                     add.w      D2, D0
000010CA  3181 2000                move.w     [A0 + D2.w], D1
000010CE  2006                     move.l     D0, D6
000010D0  C1FC 00C0                muls.w     D0, 0xC0
000010D4  204D                     movea.l    A0, A5
000010D6  D1FC FFFE 42D4           add.l      A0, 0xFFFE42D4
000010DC  2207                     move.l     D1, D7
000010DE  D241                     add.w      D1, D1
000010E0  D240                     add.w      D1, D0
000010E2  0270 BFFF 1000           andi.w     [A0 + D1.w], 0xBFFF
000010E8  1005                     move.b     D0, D5
000010EA  5205                     addq.b     D5, 1
000010EC  3007                     move.w     D0, D7
000010EE  5247                     addq.w     D7, 1
label000010F0:
000010F0  48C7                     ext.l      D7
000010F2  48C4                     ext.l      D4
000010F4  302E FFF2                move.w     D0, [A6 - 0xE]
000010F8  48C0                     ext.l      D0
000010FA  D084                     add.l      D0, D4
000010FC  B087                     cmp.l      D0, D7
000010FE  6E00 FF6C                bgt        -0x92 /* 0000106C */
00001102  3006                     move.w     D0, D6
00001104  5246                     addq.w     D6, 1
label00001106:
00001106  48C6                     ext.l      D6
00001108  302E FFF4                move.w     D0, [A6 - 0xC]
0000110C  48C0                     ext.l      D0
0000110E  322E FFF0                move.w     D1, [A6 - 0x10]
00001112  48C1                     ext.l      D1
00001114  D280                     add.l      D1, D0
00001116  B286                     cmp.l      D1, D6
00001118  6E00 FF4C                bgt        -0xB2 /* 00001066 */
0000111C  7000                     moveq.l    D0, 0x00
0000111E  4CEE 10F0 FFDC           movem.l    D4,D5,D6,D7,A4, [A6 - 0x24]
00001124  4E5E                     unlink     A6
00001126  4E75                     rts
00001128  9062 6C69 745F 6D61 6... dc.b       "blit_machine__Fs"
export_172:
fn0000113C:
0000113C  4E56 0000                link       A6, 0
00001140  48E7 0108                movem.l    -[A7], D7,A4
00001144  204D                     movea.l    A0, A5
00001146  D1FC FFFE 9F9C           add.l      A0, 0xFFFE9F9C
0000114C  49D0                     lea.l      A4, [A0]
0000114E  3E2E 000A                move.w     D7, [A6 + 0xA]
00001152  2007                     move.l     D0, D7
00001154  C1FC 003A                muls.w     D0, 0x3A /* ':' */
00001158  7200                     moveq.l    D1, 0x00
0000115A  3234 0002                move.w     D1, [A4 + D0.w + 0x2]
0000115E  7020                     moveq.l    D0, 0x20
00001160  C041                     and.w      D0, D1
00001162  6604                     bne        +0x6 /* 00001168 */
00001164  7000                     moveq.l    D0, 0x00
00001166  6030                     bra        +0x32 /* 00001198 */
label00001168:
00001168  2007                     move.l     D0, D7
0000116A  C1FC 003A                muls.w     D0, 0x3A /* ':' */
0000116E  7200                     moveq.l    D1, 0x00
00001170  3234 0002                move.w     D1, [A4 + D0.w + 0x2]
00001174  303C 0080                move.w     D0, 0x80
00001178  C041                     and.w      D0, D1
0000117A  6604                     bne        +0x6 /* 00001180 */
0000117C  7000                     moveq.l    D0, 0x00
0000117E  6018                     bra        +0x1A /* 00001198 */
label00001180:
00001180  48C7                     ext.l      D7
00001182  2F07                     move.l     -[A7], D7
00001184  4EBA 0038                jsr        [PC + 0x38 /* 000011BE */]
00001188  2007                     move.l     D0, D7
0000118A  C1FC 003A                muls.w     D0, 0x3A /* ':' */
0000118E  3E34 0030                move.w     D7, [A4 + D0.w + 0x30]
00001192  584F                     addq.w     A7, 4
00001194  4A47                     tst.w      D7
00001196  66E8                     bne        -0x16 /* 00001180 */
label00001198:
00001198  4CEE 1080 FFF8           movem.l    D7,A4, [A6 - 0x8]
0000119E  4E5E                     unlink     A6
000011A0  4E75                     rts
000011A2  9875 6E62 6C69 745F 7... dc.b       "unblit_whole_machine__Fs"
fn000011BE:
000011BE  4E56 FFF2                link       A6, -0x000E
000011C2  48E7 0F08                movem.l    -[A7], D4,D5,D6,D7,A4
000011C6  204D                     movea.l    A0, A5
000011C8  D1FC FFFE 9F9C           add.l      A0, 0xFFFE9F9C
000011CE  49D0                     lea.l      A4, [A0]
000011D0  302E 000A                move.w     D0, [A6 + 0xA]
000011D4  C1FC 003A                muls.w     D0, 0x3A /* ':' */
000011D8  7800                     moveq.l    D4, 0x00
000011DA  1834 0005                move.b     D4, [A4 + D0.w + 0x5]
000011DE  302E 000A                move.w     D0, [A6 + 0xA]
000011E2  C1FC 003A                muls.w     D0, 0x3A /* ':' */
000011E6  7A00                     moveq.l    D5, 0x00
000011E8  1A34 0006                move.b     D5, [A4 + D0.w + 0x6]
000011EC  302E 000A                move.w     D0, [A6 + 0xA]
000011F0  C1FC 003A                muls.w     D0, 0x3A /* ':' */
000011F4  3034 0000                move.w     D0, [A4 + D0.w]
000011F8  C1FC 0012                muls.w     D0, 0x12
000011FC  204D                     movea.l    A0, A5
000011FE  D1FC FFFE 9EB0           add.l      A0, 0xFFFE9EB0
00001204  7200                     moveq.l    D1, 0x00
00001206  1230 0000                move.b     D1, [A0 + D0.w]
0000120A  D241                     add.w      D1, D1
0000120C  204D                     movea.l    A0, A5
0000120E  D1FC FFFF 7942           add.l      A0, 0xFFFF7942
00001214  3E30 1000                move.w     D7, [A0 + D1.w]
00001218  486E FFF4                pea.l      [A6 - 0xC]
0000121C  486E FFF2                pea.l      [A6 - 0xE]
00001220  302E 000A                move.w     D0, [A6 + 0xA]
00001224  48C0                     ext.l      D0
00001226  2F00                     move.l     -[A7], D0
00001228  4EBA 0DCE                jsr        [PC + 0xDCE /* 00001FF8 */]
0000122C  302E 000A                move.w     D0, [A6 + 0xA]
00001230  C1FC 003A                muls.w     D0, 0x3A /* ':' */
00001234  3034 0000                move.w     D0, [A4 + D0.w]
00001238  C1FC 0012                muls.w     D0, 0x12
0000123C  204D                     movea.l    A0, A5
0000123E  D1FC FFFE 9EB0           add.l      A0, 0xFFFE9EB0
00001244  7200                     moveq.l    D1, 0x00
00001246  1230 0000                move.b     D1, [A0 + D0.w]
0000124A  D241                     add.w      D1, D1
0000124C  204D                     movea.l    A0, A5
0000124E  D1FC FFFF 7942           add.l      A0, 0xFFFF7942
00001254  3D70 1000 FFF6           move.w     [A6 - 0xA], [A0 + D1.w]
0000125A  302E 000A                move.w     D0, [A6 + 0xA]
0000125E  C1FC 003A                muls.w     D0, 0x3A /* ':' */
00001262  3034 0000                move.w     D0, [A4 + D0.w]
00001266  C1FC 0012                muls.w     D0, 0x12
0000126A  204D                     movea.l    A0, A5
0000126C  D1FC FFFE 9EB0           add.l      A0, 0xFFFE9EB0
00001272  1030 0008                move.b     D0, [A0 + D0.w + 0x8]
00001276  4880                     ext.w      D0
00001278  3E00                     move.w     D7, D0
0000127A  302E 000A                move.w     D0, [A6 + 0xA]
0000127E  C1FC 003A                muls.w     D0, 0x3A /* ':' */
00001282  3034 0000                move.w     D0, [A4 + D0.w]
00001286  C1FC 0012                muls.w     D0, 0x12
0000128A  204D                     movea.l    A0, A5
0000128C  D1FC FFFE 9EB0           add.l      A0, 0xFFFE9EB0
00001292  1030 0009                move.b     D0, [A0 + D0.w + 0x9]
00001296  4880                     ext.w      D0
00001298  3C00                     move.w     D6, D0
0000129A  302E 000A                move.w     D0, [A6 + 0xA]
0000129E  C1FC 003A                muls.w     D0, 0x3A /* ':' */
000012A2  3034 0000                move.w     D0, [A4 + D0.w]
000012A6  C1FC 0012                muls.w     D0, 0x12
000012AA  204D                     movea.l    A0, A5
000012AC  D1FC FFFE 9EB0           add.l      A0, 0xFFFE9EB0
000012B2  1030 000A                move.b     D0, [A0 + D0.w + 0xA]
000012B6  4880                     ext.w      D0
000012B8  3D40 FFF8                move.w     [A6 - 0x8], D0
000012BC  302E 000A                move.w     D0, [A6 + 0xA]
000012C0  C1FC 003A                muls.w     D0, 0x3A /* ':' */
000012C4  7200                     moveq.l    D1, 0x00
000012C6  1234 000F                move.b     D1, [A4 + D0.w + 0xF]
000012CA  3D41 FFFA                move.w     [A6 - 0x6], D1
000012CE  3006                     move.w     D0, D6
000012D0  C1C7                     muls.w     D0, D7
000012D2  322E FFF8                move.w     D1, [A6 - 0x8]
000012D6  48C1                     ext.l      D1
000012D8  4C00 1800                muls.l     D1, D0
000012DC  3D41 FFFC                move.w     [A6 - 0x4], D1
000012E0  302E FFFA                move.w     D0, [A6 - 0x6]
000012E4  E240                     asr        D0.w, 1
000012E6  C1EE FFFC                muls.w     D0, [A6 - 0x4]
000012EA  D06E FFF6                add.w      D0, [A6 - 0xA]
000012EE  3D40 FFFE                move.w     [A6 - 0x2], D0
000012F2  302E 000A                move.w     D0, [A6 + 0xA]
000012F6  C1FC 003A                muls.w     D0, 0x3A /* ':' */
000012FA  1034 002C                move.b     D0, [A4 + D0.w + 0x2C]
000012FE  49C0                     lea.l      A4, D0
00001300  3206                     move.w     D1, D6
00001302  C3C7                     muls.w     D1, D7
00001304  4C00 1800                muls.l     D1, D0
00001308  D36E FFFE                add.w      [A6 - 0x2], D1
0000130C  3C04                     move.w     D6, D4
0000130E  4FEF 000C                lea.l      A7, [A7 + 0xC]
00001312  6000 0094                bra        +0x96 /* 000013A8 */
label00001316:
00001316  3E05                     move.w     D7, D5
00001318  6078                     bra        +0x7A /* 00001392 */
label0000131A:
0000131A  2006                     move.l     D0, D6
0000131C  C1FC 00C0                muls.w     D0, 0xC0
00001320  204D                     movea.l    A0, A5
00001322  D1FC FFFE 42D4           add.l      A0, 0xFFFE42D4
00001328  2207                     move.l     D1, D7
0000132A  D241                     add.w      D1, D1
0000132C  D240                     add.w      D1, D0
0000132E  0270 F7FF 1000           andi.w     [A0 + D1.w], 0xF7FF
00001334  2006                     move.l     D0, D6
00001336  C1FC 00C0                muls.w     D0, 0xC0
0000133A  204D                     movea.l    A0, A5
0000133C  D1FC FFFD FAD4           add.l      A0, 0xFFFDFAD4
00001342  2207                     move.l     D1, D7
00001344  D241                     add.w      D1, D1
00001346  D240                     add.w      D1, D0
00001348  7000                     moveq.l    D0, 0x00
0000134A  3030 1000                move.w     D0, [A0 + D1.w]
0000134E  323C F800                move.w     D1, 0xF800
00001352  C240                     and.w      D1, D0
00001354  7000                     moveq.l    D0, 0x00
00001356  3001                     move.w     D0, D1
00001358  7200                     moveq.l    D1, 0x00
0000135A  8240                     or.w       D1, D0
0000135C  2006                     move.l     D0, D6
0000135E  C1FC 00C0                muls.w     D0, 0xC0
00001362  204D                     movea.l    A0, A5
00001364  D1FC FFFD FAD4           add.l      A0, 0xFFFDFAD4
0000136A  2407                     move.l     D2, D7
0000136C  D442                     add.w      D2, D2
0000136E  D440                     add.w      D2, D0
00001370  3181 2000                move.w     [A0 + D2.w], D1
00001374  2006                     move.l     D0, D6
00001376  C1FC 00C0                muls.w     D0, 0xC0
0000137A  204D                     movea.l    A0, A5
0000137C  D1FC FFFE 42D4           add.l      A0, 0xFFFE42D4
00001382  2207                     move.l     D1, D7
00001384  D241                     add.w      D1, D1
00001386  D240                     add.w      D1, D0
00001388  0270 BFFF 1000           andi.w     [A0 + D1.w], 0xBFFF
0000138E  3007                     move.w     D0, D7
00001390  5247                     addq.w     D7, 1
label00001392:
00001392  48C7                     ext.l      D7
00001394  48C5                     ext.l      D5
00001396  302E FFF4                move.w     D0, [A6 - 0xC]
0000139A  48C0                     ext.l      D0
0000139C  D085                     add.l      D0, D5
0000139E  B087                     cmp.l      D0, D7
000013A0  6E00 FF78                bgt        -0x86 /* 0000131A */
000013A4  3006                     move.w     D0, D6
000013A6  5246                     addq.w     D6, 1
label000013A8:
000013A8  48C6                     ext.l      D6
000013AA  48C4                     ext.l      D4
000013AC  302E FFF2                move.w     D0, [A6 - 0xE]
000013B0  48C0                     ext.l      D0
000013B2  D084                     add.l      D0, D4
000013B4  B086                     cmp.l      D0, D6
000013B6  6E00 FF5E                bgt        -0xA0 /* 00001316 */
000013BA  302E 000A                move.w     D0, [A6 + 0xA]
000013BE  C1FC 003A                muls.w     D0, 0x3A /* ':' */
000013C2  0274 FF7F 0002           andi.w     [A4 + D0.w + 0x2], 0xFF7F
000013C8  7000                     moveq.l    D0, 0x00
000013CA  4CEE 10F0 FFDE           movem.l    D4,D5,D6,D7,A4, [A6 - 0x22]
000013D0  4E5E                     unlink     A6
000013D2  4E75                     rts
000013D4  9275 6E62 6C69 745F 6... dc.b       "unblit_machine__Fs"
export_173:
fn000013EA:
000013EA  4E56 0000                link       A6, 0
000013EE  48E7 0108                movem.l    -[A7], D7,A4
000013F2  204D                     movea.l    A0, A5
000013F4  D1FC FFFE 9F9C           add.l      A0, 0xFFFE9F9C
000013FA  49D0                     lea.l      A4, [A0]
000013FC  3E2E 000A                move.w     D7, [A6 + 0xA]
label00001400:
00001400  48C7                     ext.l      D7
00001402  2F07                     move.l     -[A7], D7
00001404  4EBA 003E                jsr        [PC + 0x3E /* 00001444 */]
00001408  4A40                     tst.w      D0
0000140A  584F                     addq.w     A7, 4
0000140C  6704                     beq        +0x6 /* 00001412 */
0000140E  7001                     moveq.l    D0, 0x01
00001410  600E                     bra        +0x10 /* 00001420 */
label00001412:
00001412  2007                     move.l     D0, D7
00001414  C1FC 003A                muls.w     D0, 0x3A /* ':' */
00001418  3E34 0030                move.w     D7, [A4 + D0.w + 0x30]
0000141C  66E2                     bne        -0x1C /* 00001400 */
0000141E  7000                     moveq.l    D0, 0x00
label00001420:
00001420  4CEE 1080 FFF8           movem.l    D7,A4, [A6 - 0x8]
00001426  4E5E                     unlink     A6
00001428  4E75                     rts
0000142A  9773 6361 6E5F 7768 6... dc.b       "scan_whole_mach_col__Fs"
fn00001444:
00001444  4E56 FFFA                link       A6, -0x0006
00001448  48E7 0F08                movem.l    -[A7], D4,D5,D6,D7,A4
0000144C  204D                     movea.l    A0, A5
0000144E  D1FC FFFE 9F9C           add.l      A0, 0xFFFE9F9C
00001454  49D0                     lea.l      A4, [A0]
00001456  3A2E 000A                move.w     D5, [A6 + 0xA]
0000145A  2005                     move.l     D0, D5
0000145C  C1FC 003A                muls.w     D0, 0x3A /* ':' */
00001460  7200                     moveq.l    D1, 0x00
00001462  1234 0005                move.b     D1, [A4 + D0.w + 0x5]
00001466  3D41 FFFA                move.w     [A6 - 0x6], D1
0000146A  2005                     move.l     D0, D5
0000146C  C1FC 003A                muls.w     D0, 0x3A /* ':' */
00001470  7800                     moveq.l    D4, 0x00
00001472  1834 0006                move.b     D4, [A4 + D0.w + 0x6]
00001476  4A84                     tst.l      D4
00001478  486E FFFE                pea.l      [A6 - 0x2]
0000147C  486E FFFC                pea.l      [A6 - 0x4]
00001480  48C5                     ext.l      D5
00001482  2F05                     move.l     -[A7], D5
00001484  4EBA 0B72                jsr        [PC + 0xB72 /* 00001FF8 */]
00001488  3C2E FFFA                move.w     D6, [A6 - 0x6]
0000148C  4FEF 000C                lea.l      A7, [A7 + 0xC]
00001490  6000 02D6                bra        +0x2D8 /* 00001768 */
label00001494:
00001494  3E04                     move.w     D7, D4
00001496  6000 02BA                bra        +0x2BC /* 00001752 */
label0000149A:
0000149A  2006                     move.l     D0, D6
0000149C  C1FC 00C0                muls.w     D0, 0xC0
000014A0  204D                     movea.l    A0, A5
000014A2  D1FC FFFE 42D4           add.l      A0, 0xFFFE42D4
000014A8  2207                     move.l     D1, D7
000014AA  D241                     add.w      D1, D1
000014AC  D240                     add.w      D1, D0
000014AE  7000                     moveq.l    D0, 0x00
000014B0  3030 1000                move.w     D0, [A0 + D1.w]
000014B4  323C 0800                move.w     D1, 0x800
000014B8  C240                     and.w      D1, D0
000014BA  675A                     beq        +0x5C /* 00001516 */
000014BC  48C7                     ext.l      D7
000014BE  2F07                     move.l     -[A7], D7
000014C0  48C6                     ext.l      D6
000014C2  2F06                     move.l     -[A7], D6
000014C4  4EAD 0252                jsr        [A5 + 0x252 /* export_70, CODE:3 @ 00001456 */]
000014C8  3A00                     move.w     D5, D0
000014CA  504F                     addq.w     A7, 8
000014CC  6742                     beq        +0x44 /* 00001510 */
000014CE  2005                     move.l     D0, D5
000014D0  C1FC 0022                muls.w     D0, 0x22 /* '\"' */
000014D4  204D                     movea.l    A0, A5
000014D6  D1FC FFFD 71EC           add.l      A0, 0xFFFD71EC
000014DC  7200                     moveq.l    D1, 0x00
000014DE  3230 0002                move.w     D1, [A0 + D0.w + 0x2]
000014E2  7008                     moveq.l    D0, 0x08
000014E4  C041                     and.w      D0, D1
000014E6  6628                     bne        +0x2A /* 00001510 */
000014E8  48C7                     ext.l      D7
000014EA  2F07                     move.l     -[A7], D7
000014EC  48C6                     ext.l      D6
000014EE  2F06                     move.l     -[A7], D6
000014F0  48C5                     ext.l      D5
000014F2  2F05                     move.l     -[A7], D5
000014F4  4EAD 028A                jsr        [A5 + 0x28A /* export_77, CODE:3 @ 00002826 */]
000014F8  2005                     move.l     D0, D5
000014FA  C1FC 0022                muls.w     D0, 0x22 /* '\"' */
000014FE  204D                     movea.l    A0, A5
00001500  D1FC FFFD 71EC           add.l      A0, 0xFFFD71EC
00001506  0270 FFFD 0002           andi.w     [A0 + D0.w + 0x2], 0xFFFD
0000150C  4FEF 000C                lea.l      A7, [A7 + 0xC]
label00001510:
00001510  7001                     moveq.l    D0, 0x01
00001512  6000 026C                bra        +0x26E /* 00001780 */
label00001516:
00001516  2006                     move.l     D0, D6
00001518  C1FC 00C0                muls.w     D0, 0xC0
0000151C  204D                     movea.l    A0, A5
0000151E  D1FC FFFE 42D4           add.l      A0, 0xFFFE42D4
00001524  2207                     move.l     D1, D7
00001526  D241                     add.w      D1, D1
00001528  D240                     add.w      D1, D0
0000152A  7000                     moveq.l    D0, 0x00
0000152C  3030 1000                move.w     D0, [A0 + D1.w]
00001530  323C 0800                move.w     D1, 0x800
00001534  C240                     and.w      D1, D0
00001536  6600 0212                bne        +0x214 /* 0000174A */
0000153A  2006                     move.l     D0, D6
0000153C  C1FC 00C0                muls.w     D0, 0xC0
00001540  204D                     movea.l    A0, A5
00001542  D1FC FFFE 42D4           add.l      A0, 0xFFFE42D4
00001548  2207                     move.l     D1, D7
0000154A  D241                     add.w      D1, D1
0000154C  D240                     add.w      D1, D0
0000154E  7000                     moveq.l    D0, 0x00
00001550  3030 1000                move.w     D0, [A0 + D1.w]
00001554  323C 07FF                move.w     D1, 0x7FF
00001558  C240                     and.w      D1, D0
0000155A  7000                     moveq.l    D0, 0x00
0000155C  3001                     move.w     D0, D1
0000155E  4A80                     tst.l      D0
00001560  204D                     movea.l    A0, A5
00001562  D1FC FFFF 794A           add.l      A0, 0xFFFF794A
00001568  3210                     move.w     D1, [A0]
0000156A  48C1                     ext.l      D1
0000156C  B280                     cmp.l      D1, D0
0000156E  6E46                     bgt        +0x48 /* 000015B6 */
00001570  2006                     move.l     D0, D6
00001572  C1FC 00C0                muls.w     D0, 0xC0
00001576  204D                     movea.l    A0, A5
00001578  D1FC FFFE 42D4           add.l      A0, 0xFFFE42D4
0000157E  2207                     move.l     D1, D7
00001580  D241                     add.w      D1, D1
00001582  D240                     add.w      D1, D0
00001584  7000                     moveq.l    D0, 0x00
00001586  3030 1000                move.w     D0, [A0 + D1.w]
0000158A  323C 07FF                move.w     D1, 0x7FF
0000158E  C240                     and.w      D1, D0
00001590  7000                     moveq.l    D0, 0x00
00001592  3001                     move.w     D0, D1
00001594  4A80                     tst.l      D0
00001596  204D                     movea.l    A0, A5
00001598  D1FC FFFF 794A           add.l      A0, 0xFFFF794A
0000159E  3210                     move.w     D1, [A0]
000015A0  48C1                     ext.l      D1
000015A2  7400                     moveq.l    D2, 0x00
000015A4  204D                     movea.l    A0, A5
000015A6  D1FC FFFF 78A6           add.l      A0, 0xFFFF78A6
000015AC  1410                     move.b     D2, [A0]
000015AE  D481                     add.l      D2, D1
000015B0  B480                     cmp.l      D2, D0
000015B2  6E00 019A                bgt        +0x19C /* 0000174E */
label000015B6:
000015B6  2006                     move.l     D0, D6
000015B8  C1FC 00C0                muls.w     D0, 0xC0
000015BC  204D                     movea.l    A0, A5
000015BE  D1FC FFFE 42D4           add.l      A0, 0xFFFE42D4
000015C4  2207                     move.l     D1, D7
000015C6  D241                     add.w      D1, D1
000015C8  D240                     add.w      D1, D0
000015CA  7000                     moveq.l    D0, 0x00
000015CC  3030 1000                move.w     D0, [A0 + D1.w]
000015D0  323C 07FF                move.w     D1, 0x7FF
000015D4  C240                     and.w      D1, D0
000015D6  7000                     moveq.l    D0, 0x00
000015D8  3001                     move.w     D0, D1
000015DA  4A80                     tst.l      D0
000015DC  204D                     movea.l    A0, A5
000015DE  D1FC FFFF 794C           add.l      A0, 0xFFFF794C
000015E4  3210                     move.w     D1, [A0]
000015E6  48C1                     ext.l      D1
000015E8  B280                     cmp.l      D1, D0
000015EA  6E46                     bgt        +0x48 /* 00001632 */
000015EC  2006                     move.l     D0, D6
000015EE  C1FC 00C0                muls.w     D0, 0xC0
000015F2  204D                     movea.l    A0, A5
000015F4  D1FC FFFE 42D4           add.l      A0, 0xFFFE42D4
000015FA  2207                     move.l     D1, D7
000015FC  D241                     add.w      D1, D1
000015FE  D240                     add.w      D1, D0
00001600  7000                     moveq.l    D0, 0x00
00001602  3030 1000                move.w     D0, [A0 + D1.w]
00001606  323C 07FF                move.w     D1, 0x7FF
0000160A  C240                     and.w      D1, D0
0000160C  7000                     moveq.l    D0, 0x00
0000160E  3001                     move.w     D0, D1
00001610  4A80                     tst.l      D0
00001612  204D                     movea.l    A0, A5
00001614  D1FC FFFF 794C           add.l      A0, 0xFFFF794C
0000161A  3210                     move.w     D1, [A0]
0000161C  48C1                     ext.l      D1
0000161E  7400                     moveq.l    D2, 0x00
00001620  204D                     movea.l    A0, A5
00001622  D1FC FFFF 78A7           add.l      A0, 0xFFFF78A7
00001628  1410                     move.b     D2, [A0]
0000162A  D481                     add.l      D2, D1
0000162C  B480                     cmp.l      D2, D0
0000162E  6E00 011E                bgt        +0x120 /* 0000174E */
label00001632:
00001632  2006                     move.l     D0, D6
00001634  C1FC 00C0                muls.w     D0, 0xC0
00001638  204D                     movea.l    A0, A5
0000163A  D1FC FFFE 42D4           add.l      A0, 0xFFFE42D4
00001640  2207                     move.l     D1, D7
00001642  D241                     add.w      D1, D1
00001644  D240                     add.w      D1, D0
00001646  7000                     moveq.l    D0, 0x00
00001648  3030 1000                move.w     D0, [A0 + D1.w]
0000164C  323C 07FF                move.w     D1, 0x7FF
00001650  C240                     and.w      D1, D0
00001652  7000                     moveq.l    D0, 0x00
00001654  3001                     move.w     D0, D1
00001656  4A80                     tst.l      D0
00001658  204D                     movea.l    A0, A5
0000165A  D1FC FFFF 7942           add.l      A0, 0xFFFF7942
00001660  3210                     move.w     D1, [A0]
00001662  48C1                     ext.l      D1
00001664  B280                     cmp.l      D1, D0
00001666  6E46                     bgt        +0x48 /* 000016AE */
00001668  2006                     move.l     D0, D6
0000166A  C1FC 00C0                muls.w     D0, 0xC0
0000166E  204D                     movea.l    A0, A5
00001670  D1FC FFFE 42D4           add.l      A0, 0xFFFE42D4
00001676  2207                     move.l     D1, D7
00001678  D241                     add.w      D1, D1
0000167A  D240                     add.w      D1, D0
0000167C  7000                     moveq.l    D0, 0x00
0000167E  3030 1000                move.w     D0, [A0 + D1.w]
00001682  323C 07FF                move.w     D1, 0x7FF
00001686  C240                     and.w      D1, D0
00001688  7000                     moveq.l    D0, 0x00
0000168A  3001                     move.w     D0, D1
0000168C  4A80                     tst.l      D0
0000168E  204D                     movea.l    A0, A5
00001690  D1FC FFFF 7942           add.l      A0, 0xFFFF7942
00001696  3210                     move.w     D1, [A0]
00001698  48C1                     ext.l      D1
0000169A  7400                     moveq.l    D2, 0x00
0000169C  204D                     movea.l    A0, A5
0000169E  D1FC FFFF 78A2           add.l      A0, 0xFFFF78A2
000016A4  1410                     move.b     D2, [A0]
000016A6  D481                     add.l      D2, D1
000016A8  B480                     cmp.l      D2, D0
000016AA  6E00 00A2                bgt        +0xA4 /* 0000174E */
label000016AE:
000016AE  2006                     move.l     D0, D6
000016B0  C1FC 00C0                muls.w     D0, 0xC0
000016B4  204D                     movea.l    A0, A5
000016B6  D1FC FFFD FAD4           add.l      A0, 0xFFFDFAD4
000016BC  2207                     move.l     D1, D7
000016BE  D241                     add.w      D1, D1
000016C0  D240                     add.w      D1, D0
000016C2  7000                     moveq.l    D0, 0x00
000016C4  3030 1000                move.w     D0, [A0 + D1.w]
000016C8  323C 1000                move.w     D1, 0x1000
000016CC  C240                     and.w      D1, D0
000016CE  667E                     bne        +0x80 /* 0000174E */
000016D0  2006                     move.l     D0, D6
000016D2  C1FC 00C0                muls.w     D0, 0xC0
000016D6  204D                     movea.l    A0, A5
000016D8  D1FC FFFE 42D4           add.l      A0, 0xFFFE42D4
000016DE  2207                     move.l     D1, D7
000016E0  D241                     add.w      D1, D1
000016E2  D240                     add.w      D1, D0
000016E4  7000                     moveq.l    D0, 0x00
000016E6  3030 1000                move.w     D0, [A0 + D1.w]
000016EA  323C 07FF                move.w     D1, 0x7FF
000016EE  C240                     and.w      D1, D0
000016F0  7000                     moveq.l    D0, 0x00
000016F2  3001                     move.w     D0, D1
000016F4  4A80                     tst.l      D0
000016F6  204D                     movea.l    A0, A5
000016F8  D1FC FFFF 7A42           add.l      A0, 0xFFFF7A42
000016FE  3210                     move.w     D1, [A0]
00001700  48C1                     ext.l      D1
00001702  B280                     cmp.l      D1, D0
00001704  6E44                     bgt        +0x46 /* 0000174A */
00001706  2006                     move.l     D0, D6
00001708  C1FC 00C0                muls.w     D0, 0xC0
0000170C  204D                     movea.l    A0, A5
0000170E  D1FC FFFE 42D4           add.l      A0, 0xFFFE42D4
00001714  2207                     move.l     D1, D7
00001716  D241                     add.w      D1, D1
00001718  D240                     add.w      D1, D0
0000171A  7000                     moveq.l    D0, 0x00
0000171C  3030 1000                move.w     D0, [A0 + D1.w]
00001720  323C 07FF                move.w     D1, 0x7FF
00001724  C240                     and.w      D1, D0
00001726  7000                     moveq.l    D0, 0x00
00001728  3001                     move.w     D0, D1
0000172A  4A80                     tst.l      D0
0000172C  204D                     movea.l    A0, A5
0000172E  D1FC FFFF 7A42           add.l      A0, 0xFFFF7A42
00001734  3210                     move.w     D1, [A0]
00001736  48C1                     ext.l      D1
00001738  7400                     moveq.l    D2, 0x00
0000173A  204D                     movea.l    A0, A5
0000173C  D1FC FFFF 7922           add.l      A0, 0xFFFF7922
00001742  1410                     move.b     D2, [A0]
00001744  D481                     add.l      D2, D1
00001746  B480                     cmp.l      D2, D0
00001748  6E04                     bgt        +0x6 /* 0000174E */
label0000174A:
0000174A  7001                     moveq.l    D0, 0x01
0000174C  6032                     bra        +0x34 /* 00001780 */
label0000174E:
0000174E  3007                     move.w     D0, D7
00001750  5247                     addq.w     D7, 1
label00001752:
00001752  48C7                     ext.l      D7
00001754  48C4                     ext.l      D4
00001756  302E FFFE                move.w     D0, [A6 - 0x2]
0000175A  48C0                     ext.l      D0
0000175C  D084                     add.l      D0, D4
0000175E  B087                     cmp.l      D0, D7
00001760  6E00 FD38                bgt        -0x2C6 /* 0000149A */
00001764  3006                     move.w     D0, D6
00001766  5246                     addq.w     D6, 1
label00001768:
00001768  48C6                     ext.l      D6
0000176A  302E FFFA                move.w     D0, [A6 - 0x6]
0000176E  48C0                     ext.l      D0
00001770  322E FFFC                move.w     D1, [A6 - 0x4]
00001774  48C1                     ext.l      D1
00001776  D280                     add.l      D1, D0
00001778  B286                     cmp.l      D1, D6
0000177A  6E00 FD18                bgt        -0x2E6 /* 00001494 */
0000177E  7000                     moveq.l    D0, 0x00
label00001780:
00001780  4CEE 10F0 FFE6           movem.l    D4,D5,D6,D7,A4, [A6 - 0x1A]
00001786  4E5E                     unlink     A6
00001788  4E75                     rts
0000178A  9773 6361 6E5F 6D61 6... dc.b       "scan_mach_collision__Fs"
export_174:
000017A4  4E56 FFEE                link       A6, -0x0012
000017A8  48E7 1F08                movem.l    -[A7], D3,D4,D5,D6,D7,A4
000017AC  3E2E 000E                move.w     D7, [A6 + 0xE]
000017B0  204D                     movea.l    A0, A5
000017B2  D1FC FFFE 9F9C           add.l      A0, 0xFFFE9F9C
000017B8  49D0                     lea.l      A4, [A0]
000017BA  426E FFF0                clr.w      [A6 - 0x10]
000017BE  3C2E 000A                move.w     D6, [A6 + 0xA]
000017C2  3806                     move.w     D4, D6
000017C4  2006                     move.l     D0, D6
000017C6  C1FC 003A                muls.w     D0, 0x3A /* ':' */
000017CA  7200                     moveq.l    D1, 0x00
000017CC  3234 0002                move.w     D1, [A4 + D0.w + 0x2]
000017D0  303C 0080                move.w     D0, 0x80
000017D4  C041                     and.w      D0, D1
000017D6  670A                     beq        +0xC /* 000017E2 */
000017D8  48C6                     ext.l      D6
000017DA  2F06                     move.l     -[A7], D6
000017DC  4EBA F95E                jsr        [PC - 0x6A2 /* 0000113C */]
000017E0  584F                     addq.w     A7, 4
label000017E2:
000017E2  2006                     move.l     D0, D6
000017E4  C1FC 003A                muls.w     D0, 0x3A /* ':' */
000017E8  1834 0005                move.b     D4, [A4 + D0.w + 0x5]
000017EC  2006                     move.l     D0, D6
000017EE  C1FC 003A                muls.w     D0, 0x3A /* ':' */
000017F2  1D74 0006 FFEF           move.b     [A6 - 0x11], [A4 + D0.w + 0x6]
000017F8  2006                     move.l     D0, D6
000017FA  C1FC 003A                muls.w     D0, 0x3A /* ':' */
000017FE  1A34 0033                move.b     D5, [A4 + D0.w + 0x33]
00001802  4A47                     tst.w      D7
00001804  6D00 0106                blt        +0x108 /* 0000190C */
00001808  102E FFEF                move.b     D0, [A6 - 0x11]
0000180C  4880                     ext.w      D0
0000180E  4884                     ext.w      D4
00001810  2204                     move.l     D1, D4
00001812  C3FC 00C0                muls.w     D1, 0xC0
00001816  204D                     movea.l    A0, A5
00001818  D1FC FFFE 42D4           add.l      A0, 0xFFFE42D4
0000181E  D040                     add.w      D0, D0
00001820  D041                     add.w      D0, D1
00001822  7200                     moveq.l    D1, 0x00
00001824  3230 0000                move.w     D1, [A0 + D0.w]
00001828  303C 07FF                move.w     D0, 0x7FF
0000182C  C041                     and.w      D0, D1
0000182E  7200                     moveq.l    D1, 0x00
00001830  3200                     move.w     D1, D0
00001832  4A81                     tst.l      D1
00001834  204D                     movea.l    A0, A5
00001836  D1FC FFFF 79EC           add.l      A0, 0xFFFF79EC
0000183C  3010                     move.w     D0, [A0]
0000183E  48C0                     ext.l      D0
00001840  B081                     cmp.l      D0, D1
00001842  6E4A                     bgt        +0x4C /* 0000188E */
00001844  102E FFEF                move.b     D0, [A6 - 0x11]
00001848  4880                     ext.w      D0
0000184A  4884                     ext.w      D4
0000184C  2204                     move.l     D1, D4
0000184E  C3FC 00C0                muls.w     D1, 0xC0
00001852  204D                     movea.l    A0, A5
00001854  D1FC FFFE 42D4           add.l      A0, 0xFFFE42D4
0000185A  D040                     add.w      D0, D0
0000185C  D041                     add.w      D0, D1
0000185E  7200                     moveq.l    D1, 0x00
00001860  3230 0000                move.w     D1, [A0 + D0.w]
00001864  303C 07FF                move.w     D0, 0x7FF
00001868  C041                     and.w      D0, D1
0000186A  7200                     moveq.l    D1, 0x00
0000186C  3200                     move.w     D1, D0
0000186E  4A81                     tst.l      D1
00001870  204D                     movea.l    A0, A5
00001872  D1FC FFFF 79EC           add.l      A0, 0xFFFF79EC
00001878  3010                     move.w     D0, [A0]
0000187A  48C0                     ext.l      D0
0000187C  7400                     moveq.l    D2, 0x00
0000187E  204D                     movea.l    A0, A5
00001880  D1FC FFFF 78F7           add.l      A0, 0xFFFF78F7
00001886  1410                     move.b     D2, [A0]
00001888  D480                     add.l      D2, D0
0000188A  B481                     cmp.l      D2, D1
0000188C  6E7E                     bgt        +0x80 /* 0000190C */
label0000188E:
0000188E  102E FFEF                move.b     D0, [A6 - 0x11]
00001892  4880                     ext.w      D0
00001894  4884                     ext.w      D4
00001896  2204                     move.l     D1, D4
00001898  C3FC 00C0                muls.w     D1, 0xC0
0000189C  204D                     movea.l    A0, A5
0000189E  D1FC FFFD FAD4           add.l      A0, 0xFFFDFAD4
000018A4  D040                     add.w      D0, D0
000018A6  D041                     add.w      D0, D1
000018A8  7200                     moveq.l    D1, 0x00
000018AA  3230 0000                move.w     D1, [A0 + D0.w]
000018AE  303C 1000                move.w     D0, 0x1000
000018B2  C041                     and.w      D0, D1
000018B4  6756                     beq        +0x58 /* 0000190C */
000018B6  102E FFEF                move.b     D0, [A6 - 0x11]
000018BA  4880                     ext.w      D0
000018BC  4884                     ext.w      D4
000018BE  2204                     move.l     D1, D4
000018C0  C3FC 00C0                muls.w     D1, 0xC0
000018C4  204D                     movea.l    A0, A5
000018C6  D1FC FFFE 42D4           add.l      A0, 0xFFFE42D4
000018CC  D040                     add.w      D0, D0
000018CE  D041                     add.w      D0, D1
000018D0  7200                     moveq.l    D1, 0x00
000018D2  3230 0000                move.w     D1, [A0 + D0.w]
000018D6  303C F800                move.w     D0, 0xF800
000018DA  C041                     and.w      D0, D1
000018DC  7200                     moveq.l    D1, 0x00
000018DE  3200                     move.w     D1, D0
000018E0  48C7                     ext.l      D7
000018E2  2007                     move.l     D0, D7
000018E4  8081                     or.l       D0, D1
000018E6  223C FFFF BFFF           move.l     D1, 0xFFFFBFFF
000018EC  C280                     and.l      D1, D0
000018EE  102E FFEF                move.b     D0, [A6 - 0x11]
000018F2  4880                     ext.w      D0
000018F4  4884                     ext.w      D4
000018F6  2404                     move.l     D2, D4
000018F8  C5FC 00C0                muls.w     D2, 0xC0
000018FC  204D                     movea.l    A0, A5
000018FE  D1FC FFFE 42D4           add.l      A0, 0xFFFE42D4
00001904  D040                     add.w      D0, D0
00001906  D042                     add.w      D0, D2
00001908  3181 0000                move.w     [A0 + D0.w], D1
label0000190C:
0000190C  1D7C 0001 FFF3           move.b     [A6 - 0xD], 0x1
00001912  D805                     add.b      D4, D5
00001914  2006                     move.l     D0, D6
00001916  C1FC 003A                muls.w     D0, 0x3A /* ':' */
0000191A  1034 0032                move.b     D0, [A4 + D0.w + 0x32]
0000191E  4880                     ext.w      D0
00001920  C1FC 0044                muls.w     D0, 0x44 /* 'D' */
00001924  204D                     movea.l    A0, A5
00001926  D1FC FFFD AFAE           add.l      A0, 0xFFFDAFAE
0000192C  1030 000A                move.b     D0, [A0 + D0.w + 0xA]
00001930  4880                     ext.w      D0
00001932  3D40 FFF8                move.w     [A6 - 0x8], D0
00001936  2006                     move.l     D0, D6
00001938  C1FC 003A                muls.w     D0, 0x3A /* ':' */
0000193C  1034 0032                move.b     D0, [A4 + D0.w + 0x32]
00001940  4880                     ext.w      D0
00001942  C1FC 0044                muls.w     D0, 0x44 /* 'D' */
00001946  204D                     movea.l    A0, A5
00001948  D1FC FFFD AFAE           add.l      A0, 0xFFFDAFAE
0000194E  1030 000A                move.b     D0, [A0 + D0.w + 0xA]
00001952  4880                     ext.w      D0
00001954  2206                     move.l     D1, D6
00001956  C3FC 003A                muls.w     D1, 0x3A /* ':' */
0000195A  1234 1032                move.b     D1, [A4 + D1.w + 0x32]
0000195E  4881                     ext.w      D1
00001960  C3FC 0044                muls.w     D1, 0x44 /* 'D' */
00001964  204D                     movea.l    A0, A5
00001966  D1FC FFFD AFAE           add.l      A0, 0xFFFDAFAE
0000196C  1230 100C                move.b     D1, [A0 + D1.w + 0xC]
00001970  4881                     ext.w      D1
00001972  3E01                     move.w     D7, D1
00001974  DE40                     add.w      D7, D0
00001976  2006                     move.l     D0, D6
00001978  C1FC 003A                muls.w     D0, 0x3A /* ':' */
0000197C  1034 0032                move.b     D0, [A4 + D0.w + 0x32]
00001980  4880                     ext.w      D0
00001982  C1FC 0044                muls.w     D0, 0x44 /* 'D' */
00001986  204D                     movea.l    A0, A5
00001988  D1FC FFFD AFAE           add.l      A0, 0xFFFDAFAE
0000198E  1030 000B                move.b     D0, [A0 + D0.w + 0xB]
00001992  4880                     ext.w      D0
00001994  3D40 FFFA                move.w     [A6 - 0x6], D0
00001998  2006                     move.l     D0, D6
0000199A  C1FC 003A                muls.w     D0, 0x3A /* ':' */
0000199E  1034 0032                move.b     D0, [A4 + D0.w + 0x32]
000019A2  4880                     ext.w      D0
000019A4  C1FC 0044                muls.w     D0, 0x44 /* 'D' */
000019A8  204D                     movea.l    A0, A5
000019AA  D1FC FFFD AFAE           add.l      A0, 0xFFFDAFAE
000019B0  1030 000B                move.b     D0, [A0 + D0.w + 0xB]
000019B4  4880                     ext.w      D0
000019B6  2206                     move.l     D1, D6
000019B8  C3FC 003A                muls.w     D1, 0x3A /* ':' */
000019BC  1234 1032                move.b     D1, [A4 + D1.w + 0x32]
000019C0  4881                     ext.w      D1
000019C2  C3FC 0044                muls.w     D1, 0x44 /* 'D' */
000019C6  204D                     movea.l    A0, A5
000019C8  D1FC FFFD AFAE           add.l      A0, 0xFFFDAFAE
000019CE  1230 100D                move.b     D1, [A0 + D1.w + 0xD]
000019D2  4881                     ext.w      D1
000019D4  D240                     add.w      D1, D0
000019D6  3D41 FFFC                move.w     [A6 - 0x4], D1
000019DA  2006                     move.l     D0, D6
000019DC  C1FC 003A                muls.w     D0, 0x3A /* ':' */
000019E0  1034 0037                move.b     D0, [A4 + D0.w + 0x37]
000019E4  E200                     asr        D0.b, 1
000019E6  1D40 FFFE                move.b     [A6 - 0x2], D0
000019EA  2006                     move.l     D0, D6
000019EC  C1FC 003A                muls.w     D0, 0x3A /* ':' */
000019F0  1034 0038                move.b     D0, [A4 + D0.w + 0x38]
000019F4  E200                     asr        D0.b, 1
000019F6  1D40 FFFF                move.b     [A6 - 0x1], D0
000019FA  49C4                     lea.l      A4, D4
000019FC  48C7                     ext.l      D7
000019FE  2007                     move.l     D0, D7
00001A00  5280                     addq.l     D0, 1
00001A02  B084                     cmp.l      D0, D4
00001A04  6E1E                     bgt        +0x20 /* 00001A24 */
00001A06  7AFF                     moveq.l    D5, 0xFFFFFFFF
00001A08  7006                     moveq.l    D0, 0x06
00001A0A  2F00                     move.l     -[A7], D0
00001A0C  48C6                     ext.l      D6
00001A0E  2F06                     move.l     -[A7], D6
00001A10  4EBA 0170                jsr        [PC + 0x170 /* 00001B82 */]
00001A14  1007                     move.b     D0, D7
00001A16  5300                     subq.b     D0, 1
00001A18  1800                     move.b     D4, D0
00001A1A  102E FFEF                move.b     D0, [A6 - 0x11]
00001A1E  522E FFEF                addq.b     [A6 - 0x11], 1
00001A22  504F                     addq.w     A7, 8
label00001A24:
00001A24  49C4                     lea.l      A4, D4
00001A26  302E FFF8                move.w     D0, [A6 - 0x8]
00001A2A  48C0                     ext.l      D0
00001A2C  5380                     subq.l     D0, 1
00001A2E  B084                     cmp.l      D0, D4
00001A30  6F1C                     ble        +0x1E /* 00001A4E */
00001A32  7A01                     moveq.l    D5, 0x01
00001A34  7002                     moveq.l    D0, 0x02
00001A36  2F00                     move.l     -[A7], D0
00001A38  48C6                     ext.l      D6
00001A3A  2F06                     move.l     -[A7], D6
00001A3C  4EBA 0144                jsr        [PC + 0x144 /* 00001B82 */]
00001A40  182E FFF9                move.b     D4, [A6 - 0x7]
00001A44  102E FFEF                move.b     D0, [A6 - 0x11]
00001A48  522E FFEF                addq.b     [A6 - 0x11], 1
00001A4C  504F                     addq.w     A7, 8
label00001A4E:
00001A4E  102E FFEF                move.b     D0, [A6 - 0x11]
00001A52  49C0                     lea.l      A4, D0
00001A54  322E FFFC                move.w     D1, [A6 - 0x4]
00001A58  48C1                     ext.l      D1
00001A5A  142E FFFE                move.b     D2, [A6 - 0x2]
00001A5E  49C2                     lea.l      A4, D2
00001A60  9282                     sub.l      D1, D2
00001A62  B280                     cmp.l      D1, D0
00001A64  6E04                     bgt        +0x6 /* 00001A6A */
00001A66  422E FFF3                clr.b      [A6 - 0xD]
label00001A6A:
00001A6A  4A2E FFF3                tst.b      [A6 - 0xD]
00001A6E  6632                     bne        +0x34 /* 00001AA2 */
00001A70  48C6                     ext.l      D6
00001A72  2F06                     move.l     -[A7], D6
00001A74  4EBA F974                jsr        [PC - 0x68C /* 000013EA */]
00001A78  4A40                     tst.w      D0
00001A7A  584F                     addq.w     A7, 4
00001A7C  670C                     beq        +0xE /* 00001A8A */
00001A7E  48C6                     ext.l      D6
00001A80  2F06                     move.l     -[A7], D6
00001A82  4EBA 10A2                jsr        [PC + 0x10A2 /* 00002B26 */]
00001A86  584F                     addq.w     A7, 4
00001A88  6012                     bra        +0x14 /* 00001A9C */
label00001A8A:
00001A8A  48C6                     ext.l      D6
00001A8C  2F06                     move.l     -[A7], D6
00001A8E  4EBA 1034                jsr        [PC + 0x1034 /* 00002AC4 */]
00001A92  48C6                     ext.l      D6
00001A94  2F06                     move.l     -[A7], D6
00001A96  4EBA F3F0                jsr        [PC - 0xC10 /* 00000E88 */]
00001A9A  504F                     addq.w     A7, 8
label00001A9C:
00001A9C  7001                     moveq.l    D0, 0x01
00001A9E  6000 00C2                bra        +0xC4 /* 00001B62 */
label00001AA2:
00001AA2  2006                     move.l     D0, D6
00001AA4  C1FC 003A                muls.w     D0, 0x3A /* ':' */
00001AA8  3E34 0030                move.w     D7, [A4 + D0.w + 0x30]
00001AAC  4884                     ext.w      D4
00001AAE  2006                     move.l     D0, D6
00001AB0  C1FC 003A                muls.w     D0, 0x3A /* ':' */
00001AB4  7200                     moveq.l    D1, 0x00
00001AB6  1234 0005                move.b     D1, [A4 + D0.w + 0x5]
00001ABA  3004                     move.w     D0, D4
00001ABC  9041                     sub.w      D0, D1
00001ABE  3D40 FFF4                move.w     [A6 - 0xC], D0
00001AC2  102E FFEF                move.b     D0, [A6 - 0x11]
00001AC6  4880                     ext.w      D0
00001AC8  2206                     move.l     D1, D6
00001ACA  C3FC 003A                muls.w     D1, 0x3A /* ':' */
00001ACE  7400                     moveq.l    D2, 0x00
00001AD0  1434 1006                move.b     D2, [A4 + D1.w + 0x6]
00001AD4  9042                     sub.w      D0, D2
00001AD6  3D40 FFF6                move.w     [A6 - 0xA], D0
00001ADA  6030                     bra        +0x32 /* 00001B0C */
label00001ADC:
00001ADC  2007                     move.l     D0, D7
00001ADE  C1FC 003A                muls.w     D0, 0x3A /* ':' */
00001AE2  122E FFF5                move.b     D1, [A6 - 0xB]
00001AE6  D334 0005                add.b      [A4 + D0.w + 0x5], D1
00001AEA  2007                     move.l     D0, D7
00001AEC  C1FC 003A                muls.w     D0, 0x3A /* ':' */
00001AF0  122E FFF7                move.b     D1, [A6 - 0x9]
00001AF4  D334 0006                add.b      [A4 + D0.w + 0x6], D1
00001AF8  2007                     move.l     D0, D7
00001AFA  C1FC 003A                muls.w     D0, 0x3A /* ':' */
00001AFE  1985 0033                move.b     [A4 + D0.w + 0x33], D5
00001B02  2007                     move.l     D0, D7
00001B04  C1FC 003A                muls.w     D0, 0x3A /* ':' */
00001B08  3E34 0030                move.w     D7, [A4 + D0.w + 0x30]
label00001B0C:
00001B0C  4A47                     tst.w      D7
00001B0E  66CC                     bne        -0x32 /* 00001ADC */
00001B10  2006                     move.l     D0, D6
00001B12  C1FC 003A                muls.w     D0, 0x3A /* ':' */
00001B16  1984 0005                move.b     [A4 + D0.w + 0x5], D4
00001B1A  2006                     move.l     D0, D6
00001B1C  C1FC 003A                muls.w     D0, 0x3A /* ':' */
00001B20  19AE FFEF 0006           move.b     [A4 + D0.w + 0x6], [A6 - 0x11]
00001B26  2006                     move.l     D0, D6
00001B28  C1FC 003A                muls.w     D0, 0x3A /* ':' */
00001B2C  1985 0033                move.b     [A4 + D0.w + 0x33], D5
00001B30  426E FFF0                clr.w      [A6 - 0x10]
00001B34  48C6                     ext.l      D6
00001B36  2F06                     move.l     -[A7], D6
00001B38  4EBA F8B0                jsr        [PC - 0x750 /* 000013EA */]
00001B3C  4A40                     tst.w      D0
00001B3E  584F                     addq.w     A7, 4
00001B40  670C                     beq        +0xE /* 00001B4E */
00001B42  48C6                     ext.l      D6
00001B44  2F06                     move.l     -[A7], D6
00001B46  4EBA 0FDE                jsr        [PC + 0xFDE /* 00002B26 */]
00001B4A  584F                     addq.w     A7, 4
00001B4C  6012                     bra        +0x14 /* 00001B60 */
label00001B4E:
00001B4E  48C6                     ext.l      D6
00001B50  2F06                     move.l     -[A7], D6
00001B52  4EBA 0F70                jsr        [PC + 0xF70 /* 00002AC4 */]
00001B56  48C6                     ext.l      D6
00001B58  2F06                     move.l     -[A7], D6
00001B5A  4EBA F32C                jsr        [PC - 0xCD4 /* 00000E88 */]
00001B5E  504F                     addq.w     A7, 8
label00001B60:
00001B60  7000                     moveq.l    D0, 0x00
label00001B62:
00001B62  4CEE 10F8 FFD6           movem.l    D3,D4,D5,D6,D7,A4, [A6 - 0x2A]
00001B68  4E5E                     unlink     A6
00001B6A  4E75                     rts
00001B6C  936D 6F76 656D 6163 6... dc.b       "movemachfield__FsT1"
export_175:
fn00001B82:
00001B82  4E56 0000                link       A6, 0
00001B86  48E7 0108                movem.l    -[A7], D7,A4
00001B8A  204D                     movea.l    A0, A5
00001B8C  D1FC FFFE 9F9C           add.l      A0, 0xFFFE9F9C
00001B92  49D0                     lea.l      A4, [A0]
00001B94  3E2E 000A                move.w     D7, [A6 + 0xA]
00001B98  2007                     move.l     D0, D7
00001B9A  C1FC 003A                muls.w     D0, 0x3A /* ':' */
00001B9E  19AE 000F 000F           move.b     [A4 + D0.w + 0xF], [A6 + 0xF]
00001BA4  48C7                     ext.l      D7
00001BA6  2F07                     move.l     -[A7], D7
00001BA8  4EBA 0844                jsr        [PC + 0x844 /* 000023EE */]
00001BAC  4CEE 1080 FFF8           movem.l    D7,A4, [A6 - 0x8]
00001BB2  4E5E                     unlink     A6
00001BB4  4E75                     rts
00001BB6  9263 6861 6E67 656D 6... dc.b       "changemachdir__Fsc"
export_176:
00001BCC  4E56 FFF4                link       A6, -0x000C
00001BD0  48E7 0F08                movem.l    -[A7], D4,D5,D6,D7,A4
00001BD4  204D                     movea.l    A0, A5
00001BD6  D1FC FFFE 9F9C           add.l      A0, 0xFFFE9F9C
00001BDC  49D0                     lea.l      A4, [A0]
00001BDE  3D6E 000A FFFA           move.w     [A6 - 0x6], [A6 + 0xA]
label00001BE4:
00001BE4  302E FFFA                move.w     D0, [A6 - 0x6]
00001BE8  C1FC 003A                muls.w     D0, 0x3A /* ':' */
00001BEC  7200                     moveq.l    D1, 0x00
00001BEE  1234 0005                move.b     D1, [A4 + D0.w + 0x5]
00001BF2  3D41 FFFC                move.w     [A6 - 0x4], D1
00001BF6  302E FFFA                move.w     D0, [A6 - 0x6]
00001BFA  C1FC 003A                muls.w     D0, 0x3A /* ':' */
00001BFE  7800                     moveq.l    D4, 0x00
00001C00  1834 0006                move.b     D4, [A4 + D0.w + 0x6]
00001C04  302E FFFA                move.w     D0, [A6 - 0x6]
00001C08  C1FC 003A                muls.w     D0, 0x3A /* ':' */
00001C0C  3D74 0002 FFFE           move.w     [A6 - 0x2], [A4 + D0.w + 0x2]
00001C12  486E FFF6                pea.l      [A6 - 0xA]
00001C16  486E FFF4                pea.l      [A6 - 0xC]
00001C1A  302E FFFA                move.w     D0, [A6 - 0x6]
00001C1E  48C0                     ext.l      D0
00001C20  2F00                     move.l     -[A7], D0
00001C22  4EBA 03D4                jsr        [PC + 0x3D4 /* 00001FF8 */]
00001C26  426E FFF8                clr.w      [A6 - 0x8]
00001C2A  3C2E FFFC                move.w     D6, [A6 - 0x4]
00001C2E  4FEF 000C                lea.l      A7, [A7 + 0xC]
00001C32  6000 0196                bra        +0x198 /* 00001DCA */
label00001C36:
00001C36  3E04                     move.w     D7, D4
00001C38  6000 017A                bra        +0x17C /* 00001DB4 */
label00001C3C:
00001C3C  2006                     move.l     D0, D6
00001C3E  C1FC 00C0                muls.w     D0, 0xC0
00001C42  204D                     movea.l    A0, A5
00001C44  D1FC FFFE 42D4           add.l      A0, 0xFFFE42D4
00001C4A  2207                     move.l     D1, D7
00001C4C  D241                     add.w      D1, D1
00001C4E  D240                     add.w      D1, D0
00001C50  7000                     moveq.l    D0, 0x00
00001C52  3030 1000                move.w     D0, [A0 + D1.w]
00001C56  3A3C 07FF                move.w     D5, 0x7FF
00001C5A  CA40                     and.w      D5, D0
00001C5C  70FF                     moveq.l    D0, 0xFFFFFFFF
00001C5E  B06E 000E                cmp.w      D0, [A6 + 0xE]
00001C62  6640                     bne        +0x42 /* 00001CA4 */
00001C64  7004                     moveq.l    D0, 0x04
00001C66  C06E FFFE                and.w      D0, [A6 - 0x2]
00001C6A  6638                     bne        +0x3A /* 00001CA4 */
00001C6C  2006                     move.l     D0, D6
00001C6E  C1FC 00C0                muls.w     D0, 0xC0
00001C72  204D                     movea.l    A0, A5
00001C74  D1FC FFFE 42D4           add.l      A0, 0xFFFE42D4
00001C7A  2207                     move.l     D1, D7
00001C7C  D241                     add.w      D1, D1
00001C7E  D240                     add.w      D1, D0
00001C80  0270 F7FF 1000           andi.w     [A0 + D1.w], 0xF7FF
00001C86  2006                     move.l     D0, D6
00001C88  C1FC 00C0                muls.w     D0, 0xC0
00001C8C  204D                     movea.l    A0, A5
00001C8E  D1FC FFFE 42D4           add.l      A0, 0xFFFE42D4
00001C94  2207                     move.l     D1, D7
00001C96  D241                     add.w      D1, D1
00001C98  D240                     add.w      D1, D0
00001C9A  0270 BFFF 1000           andi.w     [A0 + D1.w], 0xBFFF
00001CA0  6000 010E                bra        +0x110 /* 00001DB0 */
label00001CA4:
00001CA4  2006                     move.l     D0, D6
00001CA6  C1FC 00C0                muls.w     D0, 0xC0
00001CAA  204D                     movea.l    A0, A5
00001CAC  D1FC FFFE 42D4           add.l      A0, 0xFFFE42D4
00001CB2  2207                     move.l     D1, D7
00001CB4  D241                     add.w      D1, D1
00001CB6  D240                     add.w      D1, D0
00001CB8  0270 F7FF 1000           andi.w     [A0 + D1.w], 0xF7FF
00001CBE  2006                     move.l     D0, D6
00001CC0  C1FC 00C0                muls.w     D0, 0xC0
00001CC4  204D                     movea.l    A0, A5
00001CC6  D1FC FFFE 42D4           add.l      A0, 0xFFFE42D4
00001CCC  2207                     move.l     D1, D7
00001CCE  D241                     add.w      D1, D1
00001CD0  D240                     add.w      D1, D0
00001CD2  0270 BFFF 1000           andi.w     [A0 + D1.w], 0xBFFF
00001CD8  2006                     move.l     D0, D6
00001CDA  C1FC 00C0                muls.w     D0, 0xC0
00001CDE  204D                     movea.l    A0, A5
00001CE0  D1FC FFFD FAD4           add.l      A0, 0xFFFDFAD4
00001CE6  2207                     move.l     D1, D7
00001CE8  D241                     add.w      D1, D1
00001CEA  D240                     add.w      D1, D0
00001CEC  7000                     moveq.l    D0, 0x00
00001CEE  3030 1000                move.w     D0, [A0 + D1.w]
00001CF2  323C 1000                move.w     D1, 0x1000
00001CF6  C240                     and.w      D1, D0
00001CF8  6700 00B6                beq        +0xB8 /* 00001DB0 */
00001CFC  204D                     movea.l    A0, A5
00001CFE  D1FC FFFF 79EC           add.l      A0, 0xFFFF79EC
00001D04  BA50                     cmp.w      D5, [A0]
00001D06  6D22                     blt        +0x24 /* 00001D2A */
00001D08  48C5                     ext.l      D5
00001D0A  204D                     movea.l    A0, A5
00001D0C  D1FC FFFF 79EC           add.l      A0, 0xFFFF79EC
00001D12  3010                     move.w     D0, [A0]
00001D14  48C0                     ext.l      D0
00001D16  7200                     moveq.l    D1, 0x00
00001D18  204D                     movea.l    A0, A5
00001D1A  D1FC FFFF 78F7           add.l      A0, 0xFFFF78F7
00001D20  1210                     move.b     D1, [A0]
00001D22  D280                     add.l      D1, D0
00001D24  B285                     cmp.l      D1, D5
00001D26  6E00 0088                bgt        +0x8A /* 00001DB0 */
label00001D2A:
00001D2A  204D                     movea.l    A0, A5
00001D2C  D1FC FFFF 79E8           add.l      A0, 0xFFFF79E8
00001D32  BA50                     cmp.w      D5, [A0]
00001D34  6D2E                     blt        +0x30 /* 00001D64 */
00001D36  48C5                     ext.l      D5
00001D38  204D                     movea.l    A0, A5
00001D3A  D1FC FFFF 79EA           add.l      A0, 0xFFFF79EA
00001D40  3010                     move.w     D0, [A0]
00001D42  48C0                     ext.l      D0
00001D44  204D                     movea.l    A0, A5
00001D46  D1FC FFFF 79EA           add.l      A0, 0xFFFF79EA
00001D4C  3210                     move.w     D1, [A0]
00001D4E  48C1                     ext.l      D1
00001D50  D280                     add.l      D1, D0
00001D52  7000                     moveq.l    D0, 0x00
00001D54  204D                     movea.l    A0, A5
00001D56  D1FC FFFF 78F6           add.l      A0, 0xFFFF78F6
00001D5C  1010                     move.b     D0, [A0]
00001D5E  D081                     add.l      D0, D1
00001D60  B085                     cmp.l      D0, D5
00001D62  6C4C                     bge        +0x4E /* 00001DB0 */
label00001D64:
00001D64  2006                     move.l     D0, D6
00001D66  C1FC 00C0                muls.w     D0, 0xC0
00001D6A  204D                     movea.l    A0, A5
00001D6C  D1FC FFFE 42D4           add.l      A0, 0xFFFE42D4
00001D72  2207                     move.l     D1, D7
00001D74  D241                     add.w      D1, D1
00001D76  D240                     add.w      D1, D0
00001D78  7000                     moveq.l    D0, 0x00
00001D7A  3030 1000                move.w     D0, [A0 + D1.w]
00001D7E  323C F800                move.w     D1, 0xF800
00001D82  C240                     and.w      D1, D0
00001D84  7000                     moveq.l    D0, 0x00
00001D86  3001                     move.w     D0, D1
00001D88  322E 000E                move.w     D1, [A6 + 0xE]
00001D8C  48C1                     ext.l      D1
00001D8E  8280                     or.l       D1, D0
00001D90  203C FFFF BFFF           move.l     D0, 0xFFFFBFFF
00001D96  C081                     and.l      D0, D1
00001D98  2206                     move.l     D1, D6
00001D9A  C3FC 00C0                muls.w     D1, 0xC0
00001D9E  204D                     movea.l    A0, A5
00001DA0  D1FC FFFE 42D4           add.l      A0, 0xFFFE42D4
00001DA6  2407                     move.l     D2, D7
00001DA8  D442                     add.w      D2, D2
00001DAA  D441                     add.w      D2, D1
00001DAC  3180 2000                move.w     [A0 + D2.w], D0
label00001DB0:
00001DB0  3007                     move.w     D0, D7
00001DB2  5247                     addq.w     D7, 1
label00001DB4:
00001DB4  48C7                     ext.l      D7
00001DB6  48C4                     ext.l      D4
00001DB8  302E FFF6                move.w     D0, [A6 - 0xA]
00001DBC  48C0                     ext.l      D0
00001DBE  D084                     add.l      D0, D4
00001DC0  B087                     cmp.l      D0, D7
00001DC2  6E00 FE78                bgt        -0x186 /* 00001C3C */
00001DC6  3006                     move.w     D0, D6
00001DC8  5246                     addq.w     D6, 1
label00001DCA:
00001DCA  48C6                     ext.l      D6
00001DCC  302E FFFC                move.w     D0, [A6 - 0x4]
00001DD0  48C0                     ext.l      D0
00001DD2  322E FFF4                move.w     D1, [A6 - 0xC]
00001DD6  48C1                     ext.l      D1
00001DD8  D280                     add.l      D1, D0
00001DDA  B286                     cmp.l      D1, D6
00001DDC  6E00 FE58                bgt        -0x1A6 /* 00001C36 */
00001DE0  302E FFFA                move.w     D0, [A6 - 0x6]
00001DE4  C1FC 003A                muls.w     D0, 0x3A /* ':' */
00001DE8  3D74 0030 FFFA           move.w     [A6 - 0x6], [A4 + D0.w + 0x30]
00001DEE  6600 FDF4                bne        -0x20A /* 00001BE4 */
00001DF2  4CEE 10F0 FFE0           movem.l    D4,D5,D6,D7,A4, [A6 - 0x20]
00001DF8  4E5E                     unlink     A6
00001DFA  4E75                     rts
00001DFC  9472 656D 6F76 656D 6... dc.b       "removemachlist__FsT1"
export_177:
00001E14  4E56 FFFA                link       A6, -0x0006
00001E18  48E7 0F08                movem.l    -[A7], D4,D5,D6,D7,A4
00001E1C  204D                     movea.l    A0, A5
00001E1E  D1FC FFFE 9F9C           add.l      A0, 0xFFFE9F9C
00001E24  49D0                     lea.l      A4, [A0]
00001E26  3A2E 000A                move.w     D5, [A6 + 0xA]
00001E2A  2005                     move.l     D0, D5
00001E2C  C1FC 003A                muls.w     D0, 0x3A /* ':' */
00001E30  7200                     moveq.l    D1, 0x00
00001E32  1234 0005                move.b     D1, [A4 + D0.w + 0x5]
00001E36  3D41 FFFE                move.w     [A6 - 0x2], D1
00001E3A  2005                     move.l     D0, D5
00001E3C  C1FC 003A                muls.w     D0, 0x3A /* ':' */
00001E40  7800                     moveq.l    D4, 0x00
00001E42  1834 0006                move.b     D4, [A4 + D0.w + 0x6]
00001E46  2005                     move.l     D0, D5
00001E48  C1FC 003A                muls.w     D0, 0x3A /* ':' */
00001E4C  3C34 0002                move.w     D6, [A4 + D0.w + 0x2]
00001E50  486E FFFC                pea.l      [A6 - 0x4]
00001E54  486E FFFA                pea.l      [A6 - 0x6]
00001E58  48C5                     ext.l      D5
00001E5A  2F05                     move.l     -[A7], D5
00001E5C  4EBA 019A                jsr        [PC + 0x19A /* 00001FF8 */]
00001E60  4245                     clr.w      D5
00001E62  3C2E FFFE                move.w     D6, [A6 - 0x2]
00001E66  4FEF 000C                lea.l      A7, [A7 + 0xC]
00001E6A  6000 0156                bra        +0x158 /* 00001FC2 */
label00001E6E:
00001E6E  3E04                     move.w     D7, D4
00001E70  6000 013A                bra        +0x13C /* 00001FAC */
label00001E74:
00001E74  2006                     move.l     D0, D6
00001E76  C1FC 00C0                muls.w     D0, 0xC0
00001E7A  204D                     movea.l    A0, A5
00001E7C  D1FC FFFE 42D4           add.l      A0, 0xFFFE42D4
00001E82  2207                     move.l     D1, D7
00001E84  D241                     add.w      D1, D1
00001E86  D240                     add.w      D1, D0
00001E88  7000                     moveq.l    D0, 0x00
00001E8A  3030 1000                move.w     D0, [A0 + D1.w]
00001E8E  3A3C 07FF                move.w     D5, 0x7FF
00001E92  CA40                     and.w      D5, D0
00001E94  2006                     move.l     D0, D6
00001E96  C1FC 00C0                muls.w     D0, 0xC0
00001E9A  204D                     movea.l    A0, A5
00001E9C  D1FC FFFE 42D4           add.l      A0, 0xFFFE42D4
00001EA2  2207                     move.l     D1, D7
00001EA4  D241                     add.w      D1, D1
00001EA6  D240                     add.w      D1, D0
00001EA8  0270 F7FF 1000           andi.w     [A0 + D1.w], 0xF7FF
00001EAE  2006                     move.l     D0, D6
00001EB0  C1FC 00C0                muls.w     D0, 0xC0
00001EB4  204D                     movea.l    A0, A5
00001EB6  D1FC FFFE 42D4           add.l      A0, 0xFFFE42D4
00001EBC  2207                     move.l     D1, D7
00001EBE  D241                     add.w      D1, D1
00001EC0  D240                     add.w      D1, D0
00001EC2  0270 BFFF 1000           andi.w     [A0 + D1.w], 0xBFFF
00001EC8  4A6E 000E                tst.w      [A6 + 0xE]
00001ECC  6D00 00DA                blt        +0xDC /* 00001FA8 */
00001ED0  2006                     move.l     D0, D6
00001ED2  C1FC 00C0                muls.w     D0, 0xC0
00001ED6  204D                     movea.l    A0, A5
00001ED8  D1FC FFFD FAD4           add.l      A0, 0xFFFDFAD4
00001EDE  2207                     move.l     D1, D7
00001EE0  D241                     add.w      D1, D1
00001EE2  D240                     add.w      D1, D0
00001EE4  7000                     moveq.l    D0, 0x00
00001EE6  3030 1000                move.w     D0, [A0 + D1.w]
00001EEA  323C 1000                move.w     D1, 0x1000
00001EEE  C240                     and.w      D1, D0
00001EF0  6700 00B6                beq        +0xB8 /* 00001FA8 */
00001EF4  204D                     movea.l    A0, A5
00001EF6  D1FC FFFF 79EC           add.l      A0, 0xFFFF79EC
00001EFC  BA50                     cmp.w      D5, [A0]
00001EFE  6D22                     blt        +0x24 /* 00001F22 */
00001F00  48C5                     ext.l      D5
00001F02  204D                     movea.l    A0, A5
00001F04  D1FC FFFF 79EC           add.l      A0, 0xFFFF79EC
00001F0A  3010                     move.w     D0, [A0]
00001F0C  48C0                     ext.l      D0
00001F0E  7200                     moveq.l    D1, 0x00
00001F10  204D                     movea.l    A0, A5
00001F12  D1FC FFFF 78F7           add.l      A0, 0xFFFF78F7
00001F18  1210                     move.b     D1, [A0]
00001F1A  D280                     add.l      D1, D0
00001F1C  B285                     cmp.l      D1, D5
00001F1E  6E00 0088                bgt        +0x8A /* 00001FA8 */
label00001F22:
00001F22  204D                     movea.l    A0, A5
00001F24  D1FC FFFF 79E8           add.l      A0, 0xFFFF79E8
00001F2A  BA50                     cmp.w      D5, [A0]
00001F2C  6D2E                     blt        +0x30 /* 00001F5C */
00001F2E  48C5                     ext.l      D5
00001F30  204D                     movea.l    A0, A5
00001F32  D1FC FFFF 79EA           add.l      A0, 0xFFFF79EA
00001F38  3010                     move.w     D0, [A0]
00001F3A  48C0                     ext.l      D0
00001F3C  204D                     movea.l    A0, A5
00001F3E  D1FC FFFF 79EA           add.l      A0, 0xFFFF79EA
00001F44  3210                     move.w     D1, [A0]
00001F46  48C1                     ext.l      D1
00001F48  D280                     add.l      D1, D0
00001F4A  7000                     moveq.l    D0, 0x00
00001F4C  204D                     movea.l    A0, A5
00001F4E  D1FC FFFF 78F6           add.l      A0, 0xFFFF78F6
00001F54  1010                     move.b     D0, [A0]
00001F56  D081                     add.l      D0, D1
00001F58  B085                     cmp.l      D0, D5
00001F5A  6C4C                     bge        +0x4E /* 00001FA8 */
label00001F5C:
00001F5C  2006                     move.l     D0, D6
00001F5E  C1FC 00C0                muls.w     D0, 0xC0
00001F62  204D                     movea.l    A0, A5
00001F64  D1FC FFFE 42D4           add.l      A0, 0xFFFE42D4
00001F6A  2207                     move.l     D1, D7
00001F6C  D241                     add.w      D1, D1
00001F6E  D240                     add.w      D1, D0
00001F70  7000                     moveq.l    D0, 0x00
00001F72  3030 1000                move.w     D0, [A0 + D1.w]
00001F76  323C F800                move.w     D1, 0xF800
00001F7A  C240                     and.w      D1, D0
00001F7C  7000                     moveq.l    D0, 0x00
00001F7E  3001                     move.w     D0, D1
00001F80  322E 000E                move.w     D1, [A6 + 0xE]
00001F84  48C1                     ext.l      D1
00001F86  8280                     or.l       D1, D0
00001F88  203C FFFF BFFF           move.l     D0, 0xFFFFBFFF
00001F8E  C081                     and.l      D0, D1
00001F90  2206                     move.l     D1, D6
00001F92  C3FC 00C0                muls.w     D1, 0xC0
00001F96  204D                     movea.l    A0, A5
00001F98  D1FC FFFE 42D4           add.l      A0, 0xFFFE42D4
00001F9E  2407                     move.l     D2, D7
00001FA0  D442                     add.w      D2, D2
00001FA2  D441                     add.w      D2, D1
00001FA4  3180 2000                move.w     [A0 + D2.w], D0
label00001FA8:
00001FA8  3007                     move.w     D0, D7
00001FAA  5247                     addq.w     D7, 1
label00001FAC:
00001FAC  48C7                     ext.l      D7
00001FAE  48C4                     ext.l      D4
00001FB0  302E FFFC                move.w     D0, [A6 - 0x4]
00001FB4  48C0                     ext.l      D0
00001FB6  D084                     add.l      D0, D4
00001FB8  B087                     cmp.l      D0, D7
00001FBA  6E00 FEB8                bgt        -0x146 /* 00001E74 */
00001FBE  3006                     move.w     D0, D6
00001FC0  5246                     addq.w     D6, 1
label00001FC2:
00001FC2  48C6                     ext.l      D6
00001FC4  302E FFFE                move.w     D0, [A6 - 0x2]
00001FC8  48C0                     ext.l      D0
00001FCA  322E FFFA                move.w     D1, [A6 - 0x6]
00001FCE  48C1                     ext.l      D1
00001FD0  D280                     add.l      D1, D0
00001FD2  B286                     cmp.l      D1, D6
00001FD4  6E00 FE98                bgt        -0x166 /* 00001E6E */
00001FD8  4CEE 10F0 FFE6           movem.l    D4,D5,D6,D7,A4, [A6 - 0x1A]
00001FDE  4E5E                     unlink     A6
00001FE0  4E75                     rts
00001FE2  9372 656D 6F76 656F 6... dc.b       "removeonemach__FsT1"
export_178:
fn00001FF8:
00001FF8  4E56 0000                link       A6, 0
00001FFC  48E7 0118                movem.l    -[A7], D7,A3,A4
00002000  266E 0010                movea.l    A3, [A6 + 0x10]
00002004  286E 000C                movea.l    A4, [A6 + 0xC]
00002008  3E2E 000A                move.w     D7, [A6 + 0xA]
0000200C  2007                     move.l     D0, D7
0000200E  C1FC 003A                muls.w     D0, 0x3A /* ':' */
00002012  204D                     movea.l    A0, A5
00002014  D1FC FFFE 9F9C           add.l      A0, 0xFFFE9F9C
0000201A  3030 0000                move.w     D0, [A0 + D0.w]
0000201E  C1FC 0012                muls.w     D0, 0x12
00002022  204D                     movea.l    A0, A5
00002024  D1FC FFFE 9EB0           add.l      A0, 0xFFFE9EB0
0000202A  1030 0008                move.b     D0, [A0 + D0.w + 0x8]
0000202E  4880                     ext.w      D0
00002030  3880                     move.w     [A4], D0
00002032  2007                     move.l     D0, D7
00002034  C1FC 003A                muls.w     D0, 0x3A /* ':' */
00002038  204D                     movea.l    A0, A5
0000203A  D1FC FFFE 9F9C           add.l      A0, 0xFFFE9F9C
00002040  3030 0000                move.w     D0, [A0 + D0.w]
00002044  C1FC 0012                muls.w     D0, 0x12
00002048  204D                     movea.l    A0, A5
0000204A  D1FC FFFE 9EB0           add.l      A0, 0xFFFE9EB0
00002050  1030 0009                move.b     D0, [A0 + D0.w + 0x9]
00002054  4880                     ext.w      D0
00002056  3680                     move.w     [A3], D0
00002058  2007                     move.l     D0, D7
0000205A  C1FC 003A                muls.w     D0, 0x3A /* ':' */
0000205E  204D                     movea.l    A0, A5
00002060  D1FC FFFE 9F9C           add.l      A0, 0xFFFE9F9C
00002066  1030 000F                move.b     D0, [A0 + D0.w + 0xF]
0000206A  5500                     subq.b     D0, 2
0000206C  6704                     beq        +0x6 /* 00002072 */
0000206E  5900                     subq.b     D0, 4
00002070  6606                     bne        +0x8 /* 00002078 */
label00002072:
00002072  3E14                     move.w     D7, [A4]
00002074  3893                     move.w     [A4], [A3]
00002076  3687                     move.w     [A3], D7
label00002078:
00002078  7000                     moveq.l    D0, 0x00
0000207A  4CEE 1880 FFF4           movem.l    D7,A3,A4, [A6 - 0xC]
00002080  4E5E                     unlink     A6
00002082  4E75                     rts
00002084  9666 696E 646D 6163 6... dc.b       "findmachxysize__FsPsT2"
export_179:
0000209E  4E56 FFE2                link       A6, -0x001E
000020A2  48E7 0F08                movem.l    -[A7], D4,D5,D6,D7,A4
000020A6  3C2E 000E                move.w     D6, [A6 + 0xE]
000020AA  3E2E 000A                move.w     D7, [A6 + 0xA]
000020AE  204D                     movea.l    A0, A5
000020B0  D1FC FFFE 9F9C           add.l      A0, 0xFFFE9F9C
000020B6  49D0                     lea.l      A4, [A0]
000020B8  4244                     clr.w      D4
000020BA  4245                     clr.w      D5
000020BC  2007                     move.l     D0, D7
000020BE  C1FC 003A                muls.w     D0, 0x3A /* ':' */
000020C2  3986 0030                move.w     [A4 + D0.w + 0x30], D6
000020C6  2006                     move.l     D0, D6
000020C8  C1FC 003A                muls.w     D0, 0x3A /* ':' */
000020CC  3987 002E                move.w     [A4 + D0.w + 0x2E], D7
000020D0  2007                     move.l     D0, D7
000020D2  C1FC 003A                muls.w     D0, 0x3A /* ':' */
000020D6  3D74 0000 FFF2           move.w     [A6 - 0xE], [A4 + D0.w]
000020DC  2007                     move.l     D0, D7
000020DE  C1FC 003A                muls.w     D0, 0x3A /* ':' */
000020E2  1D74 000F FFFA           move.b     [A6 - 0x6], [A4 + D0.w + 0xF]
000020E8  2007                     move.l     D0, D7
000020EA  C1FC 003A                muls.w     D0, 0x3A /* ':' */
000020EE  1034 0037                move.b     D0, [A4 + D0.w + 0x37]
000020F2  4880                     ext.w      D0
000020F4  3D40 FFE2                move.w     [A6 - 0x1E], D0
000020F8  2007                     move.l     D0, D7
000020FA  C1FC 003A                muls.w     D0, 0x3A /* ':' */
000020FE  1034 0038                move.b     D0, [A4 + D0.w + 0x38]
00002102  4880                     ext.w      D0
00002104  3D40 FFE4                move.w     [A6 - 0x1C], D0
00002108  302E FFF2                move.w     D0, [A6 - 0xE]
0000210C  C1FC 0012                muls.w     D0, 0x12
00002110  204D                     movea.l    A0, A5
00002112  D1FC FFFE 9EB0           add.l      A0, 0xFFFE9EB0
00002118  1030 000A                move.b     D0, [A0 + D0.w + 0xA]
0000211C  4880                     ext.w      D0
0000211E  3D40 FFF6                move.w     [A6 - 0xA], D0
00002122  2006                     move.l     D0, D6
00002124  C1FC 003A                muls.w     D0, 0x3A /* ':' */
00002128  3D74 0000 FFF4           move.w     [A6 - 0xC], [A4 + D0.w]
0000212E  2006                     move.l     D0, D6
00002130  C1FC 003A                muls.w     D0, 0x3A /* ':' */
00002134  1D74 000F FFFB           move.b     [A6 - 0x5], [A4 + D0.w + 0xF]
0000213A  2006                     move.l     D0, D6
0000213C  C1FC 003A                muls.w     D0, 0x3A /* ':' */
00002140  7200                     moveq.l    D1, 0x00
00002142  1234 0005                move.b     D1, [A4 + D0.w + 0x5]
00002146  3D41 FFEE                move.w     [A6 - 0x12], D1
0000214A  2006                     move.l     D0, D6
0000214C  C1FC 003A                muls.w     D0, 0x3A /* ':' */
00002150  7200                     moveq.l    D1, 0x00
00002152  1234 0006                move.b     D1, [A4 + D0.w + 0x6]
00002156  3D41 FFF0                move.w     [A6 - 0x10], D1
0000215A  302E FFF4                move.w     D0, [A6 - 0xC]
0000215E  C1FC 0012                muls.w     D0, 0x12
00002162  204D                     movea.l    A0, A5
00002164  D1FC FFFE 9EB0           add.l      A0, 0xFFFE9EB0
0000216A  1030 0008                move.b     D0, [A0 + D0.w + 0x8]
0000216E  4880                     ext.w      D0
00002170  3D40 FFEA                move.w     [A6 - 0x16], D0
00002174  3D40 FFFC                move.w     [A6 - 0x4], D0
00002178  302E FFF4                move.w     D0, [A6 - 0xC]
0000217C  C1FC 0012                muls.w     D0, 0x12
00002180  204D                     movea.l    A0, A5
00002182  D1FC FFFE 9EB0           add.l      A0, 0xFFFE9EB0
00002188  1030 0009                move.b     D0, [A0 + D0.w + 0x9]
0000218C  4880                     ext.w      D0
0000218E  3D40 FFEC                move.w     [A6 - 0x14], D0
00002192  3D40 FFFE                move.w     [A6 - 0x2], D0
00002196  302E FFF4                move.w     D0, [A6 - 0xC]
0000219A  C1FC 0012                muls.w     D0, 0x12
0000219E  204D                     movea.l    A0, A5
000021A0  D1FC FFFE 9EB0           add.l      A0, 0xFFFE9EB0
000021A6  1030 000A                move.b     D0, [A0 + D0.w + 0xA]
000021AA  4880                     ext.w      D0
000021AC  3D40 FFF8                move.w     [A6 - 0x8], D0
000021B0  302E FFEA                move.w     D0, [A6 - 0x16]
000021B4  B06E FFE2                cmp.w      D0, [A6 - 0x1E]
000021B8  6F1E                     ble        +0x20 /* 000021D8 */
000021BA  302E FFEA                move.w     D0, [A6 - 0x16]
000021BE  48C0                     ext.l      D0
000021C0  322E FFE2                move.w     D1, [A6 - 0x1E]
000021C4  48C1                     ext.l      D1
000021C6  9081                     sub.l      D0, D1
000021C8  3800                     move.w     D4, D0
000021CA  5344                     subq.w     D4, 1
000021CC  2007                     move.l     D0, D7
000021CE  C1FC 003A                muls.w     D0, 0x3A /* ':' */
000021D2  19AE FFEB 0037           move.b     [A4 + D0.w + 0x37], [A6 - 0x15]
label000021D8:
000021D8  302E FFEC                move.w     D0, [A6 - 0x14]
000021DC  B06E FFE4                cmp.w      D0, [A6 - 0x1C]
000021E0  6F1E                     ble        +0x20 /* 00002200 */
000021E2  302E FFEC                move.w     D0, [A6 - 0x14]
000021E6  48C0                     ext.l      D0
000021E8  322E FFE4                move.w     D1, [A6 - 0x1C]
000021EC  48C1                     ext.l      D1
000021EE  9081                     sub.l      D0, D1
000021F0  3A00                     move.w     D5, D0
000021F2  5345                     subq.w     D5, 1
000021F4  2007                     move.l     D0, D7
000021F6  C1FC 003A                muls.w     D0, 0x3A /* ':' */
000021FA  19AE FFED 0038           move.b     [A4 + D0.w + 0x38], [A6 - 0x13]
label00002200:
00002200  2007                     move.l     D0, D7
00002202  C1FC 003A                muls.w     D0, 0x3A /* ':' */
00002206  7200                     moveq.l    D1, 0x00
00002208  1234 0005                move.b     D1, [A4 + D0.w + 0x5]
0000220C  3D41 FFE6                move.w     [A6 - 0x1A], D1
00002210  2007                     move.l     D0, D7
00002212  C1FC 003A                muls.w     D0, 0x3A /* ':' */
00002216  7200                     moveq.l    D1, 0x00
00002218  1234 0006                move.b     D1, [A4 + D0.w + 0x6]
0000221C  3D41 FFE8                move.w     [A6 - 0x18], D1
00002220  302E FFFC                move.w     D0, [A6 - 0x4]
00002224  E240                     asr        D0.w, 1
00002226  3D40 FFFC                move.w     [A6 - 0x4], D0
0000222A  302E FFFE                move.w     D0, [A6 - 0x2]
0000222E  E240                     asr        D0.w, 1
00002230  3D40 FFFE                move.w     [A6 - 0x2], D0
00002234  102E FFFA                move.b     D0, [A6 - 0x6]
00002238  6714                     beq        +0x16 /* 0000224E */
0000223A  5500                     subq.b     D0, 2
0000223C  6764                     beq        +0x66 /* 000022A2 */
0000223E  5500                     subq.b     D0, 2
00002240  6700 00B4                beq        +0xB6 /* 000022F6 */
00002244  5500                     subq.b     D0, 2
00002246  6700 0100                beq        +0x102 /* 00002348 */
0000224A  6000 014C                bra        +0x14E /* 00002398 */
label0000224E:
0000224E  2007                     move.l     D0, D7
00002250  C1FC 003A                muls.w     D0, 0x3A /* ':' */
00002254  D934 0005                add.b      [A4 + D0.w + 0x5], D4
00002258  2007                     move.l     D0, D7
0000225A  C1FC 003A                muls.w     D0, 0x3A /* ':' */
0000225E  DB34 0006                add.b      [A4 + D0.w + 0x6], D5
00002262  2007                     move.l     D0, D7
00002264  C1FC 003A                muls.w     D0, 0x3A /* ':' */
00002268  7200                     moveq.l    D1, 0x00
0000226A  1234 0005                move.b     D1, [A4 + D0.w + 0x5]
0000226E  302E FFFC                move.w     D0, [A6 - 0x4]
00002272  48C0                     ext.l      D0
00002274  9280                     sub.l      D1, D0
00002276  2006                     move.l     D0, D6
00002278  C1FC 003A                muls.w     D0, 0x3A /* ':' */
0000227C  1981 0005                move.b     [A4 + D0.w + 0x5], D1
00002280  2007                     move.l     D0, D7
00002282  C1FC 003A                muls.w     D0, 0x3A /* ':' */
00002286  7200                     moveq.l    D1, 0x00
00002288  1234 0006                move.b     D1, [A4 + D0.w + 0x6]
0000228C  302E FFE4                move.w     D0, [A6 - 0x1C]
00002290  48C0                     ext.l      D0
00002292  D081                     add.l      D0, D1
00002294  2206                     move.l     D1, D6
00002296  C3FC 003A                muls.w     D1, 0x3A /* ':' */
0000229A  1980 1006                move.b     [A4 + D1.w + 0x6], D0
0000229E  6000 00F8                bra        +0xFA /* 00002398 */
label000022A2:
000022A2  2007                     move.l     D0, D7
000022A4  C1FC 003A                muls.w     D0, 0x3A /* ':' */
000022A8  DB34 0005                add.b      [A4 + D0.w + 0x5], D5
000022AC  2007                     move.l     D0, D7
000022AE  C1FC 003A                muls.w     D0, 0x3A /* ':' */
000022B2  D934 0006                add.b      [A4 + D0.w + 0x6], D4
000022B6  2007                     move.l     D0, D7
000022B8  C1FC 003A                muls.w     D0, 0x3A /* ':' */
000022BC  7200                     moveq.l    D1, 0x00
000022BE  1234 0005                move.b     D1, [A4 + D0.w + 0x5]
000022C2  302E FFEC                move.w     D0, [A6 - 0x14]
000022C6  48C0                     ext.l      D0
000022C8  9280                     sub.l      D1, D0
000022CA  2006                     move.l     D0, D6
000022CC  C1FC 003A                muls.w     D0, 0x3A /* ':' */
000022D0  1981 0005                move.b     [A4 + D0.w + 0x5], D1
000022D4  2007                     move.l     D0, D7
000022D6  C1FC 003A                muls.w     D0, 0x3A /* ':' */
000022DA  7200                     moveq.l    D1, 0x00
000022DC  1234 0006                move.b     D1, [A4 + D0.w + 0x6]
000022E0  302E FFFC                move.w     D0, [A6 - 0x4]
000022E4  48C0                     ext.l      D0
000022E6  9280                     sub.l      D1, D0
000022E8  2006                     move.l     D0, D6
000022EA  C1FC 003A                muls.w     D0, 0x3A /* ':' */
000022EE  1981 0006                move.b     [A4 + D0.w + 0x6], D1
000022F2  6000 00A4                bra        +0xA6 /* 00002398 */
label000022F6:
000022F6  2007                     move.l     D0, D7
000022F8  C1FC 003A                muls.w     D0, 0x3A /* ':' */
000022FC  D934 0005                add.b      [A4 + D0.w + 0x5], D4
00002300  2007                     move.l     D0, D7
00002302  C1FC 003A                muls.w     D0, 0x3A /* ':' */
00002306  DB34 0006                add.b      [A4 + D0.w + 0x6], D5
0000230A  2007                     move.l     D0, D7
0000230C  C1FC 003A                muls.w     D0, 0x3A /* ':' */
00002310  7200                     moveq.l    D1, 0x00
00002312  1234 0005                move.b     D1, [A4 + D0.w + 0x5]
00002316  302E FFFC                move.w     D0, [A6 - 0x4]
0000231A  48C0                     ext.l      D0
0000231C  9280                     sub.l      D1, D0
0000231E  2006                     move.l     D0, D6
00002320  C1FC 003A                muls.w     D0, 0x3A /* ':' */
00002324  1981 0005                move.b     [A4 + D0.w + 0x5], D1
00002328  2007                     move.l     D0, D7
0000232A  C1FC 003A                muls.w     D0, 0x3A /* ':' */
0000232E  7200                     moveq.l    D1, 0x00
00002330  1234 0006                move.b     D1, [A4 + D0.w + 0x6]
00002334  302E FFEC                move.w     D0, [A6 - 0x14]
00002338  48C0                     ext.l      D0
0000233A  9280                     sub.l      D1, D0
0000233C  2006                     move.l     D0, D6
0000233E  C1FC 003A                muls.w     D0, 0x3A /* ':' */
00002342  1981 0006                move.b     [A4 + D0.w + 0x6], D1
00002346  6050                     bra        +0x52 /* 00002398 */
label00002348:
00002348  2007                     move.l     D0, D7
0000234A  C1FC 003A                muls.w     D0, 0x3A /* ':' */
0000234E  DB34 0005                add.b      [A4 + D0.w + 0x5], D5
00002352  2007                     move.l     D0, D7
00002354  C1FC 003A                muls.w     D0, 0x3A /* ':' */
00002358  D934 0006                add.b      [A4 + D0.w + 0x6], D4
0000235C  2007                     move.l     D0, D7
0000235E  C1FC 003A                muls.w     D0, 0x3A /* ':' */
00002362  7200                     moveq.l    D1, 0x00
00002364  1234 0005                move.b     D1, [A4 + D0.w + 0x5]
00002368  302E FFE4                move.w     D0, [A6 - 0x1C]
0000236C  48C0                     ext.l      D0
0000236E  D081                     add.l      D0, D1
00002370  2206                     move.l     D1, D6
00002372  C3FC 003A                muls.w     D1, 0x3A /* ':' */
00002376  1980 1005                move.b     [A4 + D1.w + 0x5], D0
0000237A  2007                     move.l     D0, D7
0000237C  C1FC 003A                muls.w     D0, 0x3A /* ':' */
00002380  7200                     moveq.l    D1, 0x00
00002382  1234 0006                move.b     D1, [A4 + D0.w + 0x6]
00002386  302E FFFC                move.w     D0, [A6 - 0x4]
0000238A  48C0                     ext.l      D0
0000238C  9280                     sub.l      D1, D0
0000238E  2006                     move.l     D0, D6
00002390  C1FC 003A                muls.w     D0, 0x3A /* ':' */
00002394  1981 0006                move.b     [A4 + D0.w + 0x6], D1
label00002398:
00002398  2007                     move.l     D0, D7
0000239A  C1FC 003A                muls.w     D0, 0x3A /* ':' */
0000239E  2206                     move.l     D1, D6
000023A0  C3FC 003A                muls.w     D1, 0x3A /* ':' */
000023A4  19B4 000F 100F           move.b     [A4 + D1.w + 0xF], [A4 + D0.w + 0xF]
000023AA  2007                     move.l     D0, D7
000023AC  C1FC 003A                muls.w     D0, 0x3A /* ':' */
000023B0  2206                     move.l     D1, D6
000023B2  C3FC 003A                muls.w     D1, 0x3A /* ':' */
000023B6  19B4 0032 1032           move.b     [A4 + D1.w + 0x32], [A4 + D0.w + 0x32]
000023BC  2007                     move.l     D0, D7
000023BE  C1FC 003A                muls.w     D0, 0x3A /* ':' */
000023C2  2206                     move.l     D1, D6
000023C4  C3FC 003A                muls.w     D1, 0x3A /* ':' */
000023C8  19B4 0033 1033           move.b     [A4 + D1.w + 0x33], [A4 + D0.w + 0x33]
000023CE  7000                     moveq.l    D0, 0x00
000023D0  4CEE 10F0 FFCE           movem.l    D4,D5,D6,D7,A4, [A6 - 0x32]
000023D6  4E5E                     unlink     A6
000023D8  4E75                     rts
000023DA  9068 6F6F 6B75 706D 6... dc.b       "hookupmach__FsT1"
export_180:
fn000023EE:
000023EE  4E56 FFE6                link       A6, -0x001A
000023F2  48E7 0F08                movem.l    -[A7], D4,D5,D6,D7,A4
000023F6  3C2E 000A                move.w     D6, [A6 + 0xA]
000023FA  204D                     movea.l    A0, A5
000023FC  D1FC FFFE 9F9C           add.l      A0, 0xFFFE9F9C
00002402  49D0                     lea.l      A4, [A0]
00002404  2006                     move.l     D0, D6
00002406  C1FC 003A                muls.w     D0, 0x3A /* ':' */
0000240A  3E34 0030                move.w     D7, [A4 + D0.w + 0x30]
0000240E  6000 025C                bra        +0x25E /* 0000266C */
label00002412:
00002412  2006                     move.l     D0, D6
00002414  C1FC 003A                muls.w     D0, 0x3A /* ':' */
00002418  3D74 0000 FFF6           move.w     [A6 - 0xA], [A4 + D0.w]
0000241E  2006                     move.l     D0, D6
00002420  C1FC 003A                muls.w     D0, 0x3A /* ':' */
00002424  1D74 000F FFFC           move.b     [A6 - 0x4], [A4 + D0.w + 0xF]
0000242A  2006                     move.l     D0, D6
0000242C  C1FC 003A                muls.w     D0, 0x3A /* ':' */
00002430  7200                     moveq.l    D1, 0x00
00002432  1234 0005                move.b     D1, [A4 + D0.w + 0x5]
00002436  3D41 FFEA                move.w     [A6 - 0x16], D1
0000243A  2006                     move.l     D0, D6
0000243C  C1FC 003A                muls.w     D0, 0x3A /* ':' */
00002440  7200                     moveq.l    D1, 0x00
00002442  1234 0006                move.b     D1, [A4 + D0.w + 0x6]
00002446  3D41 FFEC                move.w     [A6 - 0x14], D1
0000244A  302E FFF6                move.w     D0, [A6 - 0xA]
0000244E  C1FC 0012                muls.w     D0, 0x12
00002452  204D                     movea.l    A0, A5
00002454  D1FC FFFE 9EB0           add.l      A0, 0xFFFE9EB0
0000245A  1030 0008                move.b     D0, [A0 + D0.w + 0x8]
0000245E  4880                     ext.w      D0
00002460  3D40 FFE6                move.w     [A6 - 0x1A], D0
00002464  302E FFF6                move.w     D0, [A6 - 0xA]
00002468  C1FC 0012                muls.w     D0, 0x12
0000246C  204D                     movea.l    A0, A5
0000246E  D1FC FFFE 9EB0           add.l      A0, 0xFFFE9EB0
00002474  1030 0009                move.b     D0, [A0 + D0.w + 0x9]
00002478  4880                     ext.w      D0
0000247A  3D40 FFE8                move.w     [A6 - 0x18], D0
0000247E  302E FFF6                move.w     D0, [A6 - 0xA]
00002482  C1FC 0012                muls.w     D0, 0x12
00002486  204D                     movea.l    A0, A5
00002488  D1FC FFFE 9EB0           add.l      A0, 0xFFFE9EB0
0000248E  1030 000A                move.b     D0, [A0 + D0.w + 0xA]
00002492  4880                     ext.w      D0
00002494  3D40 FFF8                move.w     [A6 - 0x8], D0
00002498  2007                     move.l     D0, D7
0000249A  C1FC 003A                muls.w     D0, 0x3A /* ':' */
0000249E  3834 0000                move.w     D4, [A4 + D0.w]
000024A2  2007                     move.l     D0, D7
000024A4  C1FC 003A                muls.w     D0, 0x3A /* ':' */
000024A8  1D74 000F FFFD           move.b     [A6 - 0x3], [A4 + D0.w + 0xF]
000024AE  2007                     move.l     D0, D7
000024B0  C1FC 003A                muls.w     D0, 0x3A /* ':' */
000024B4  7200                     moveq.l    D1, 0x00
000024B6  1234 0005                move.b     D1, [A4 + D0.w + 0x5]
000024BA  3D41 FFF2                move.w     [A6 - 0xE], D1
000024BE  2007                     move.l     D0, D7
000024C0  C1FC 003A                muls.w     D0, 0x3A /* ':' */
000024C4  7200                     moveq.l    D1, 0x00
000024C6  1234 0006                move.b     D1, [A4 + D0.w + 0x6]
000024CA  3D41 FFF4                move.w     [A6 - 0xC], D1
000024CE  2004                     move.l     D0, D4
000024D0  C1FC 0012                muls.w     D0, 0x12
000024D4  204D                     movea.l    A0, A5
000024D6  D1FC FFFE 9EB0           add.l      A0, 0xFFFE9EB0
000024DC  1030 0008                move.b     D0, [A0 + D0.w + 0x8]
000024E0  4880                     ext.w      D0
000024E2  3D40 FFEE                move.w     [A6 - 0x12], D0
000024E6  3A00                     move.w     D5, D0
000024E8  2004                     move.l     D0, D4
000024EA  C1FC 0012                muls.w     D0, 0x12
000024EE  204D                     movea.l    A0, A5
000024F0  D1FC FFFE 9EB0           add.l      A0, 0xFFFE9EB0
000024F6  1030 0009                move.b     D0, [A0 + D0.w + 0x9]
000024FA  4880                     ext.w      D0
000024FC  3D40 FFF0                move.w     [A6 - 0x10], D0
00002500  3D40 FFFE                move.w     [A6 - 0x2], D0
00002504  2004                     move.l     D0, D4
00002506  C1FC 0012                muls.w     D0, 0x12
0000250A  204D                     movea.l    A0, A5
0000250C  D1FC FFFE 9EB0           add.l      A0, 0xFFFE9EB0
00002512  1030 000A                move.b     D0, [A0 + D0.w + 0xA]
00002516  4880                     ext.w      D0
00002518  3D40 FFFA                move.w     [A6 - 0x6], D0
0000251C  E245                     asr        D5.w, 1
0000251E  302E FFFE                move.w     D0, [A6 - 0x2]
00002522  E240                     asr        D0.w, 1
00002524  3D40 FFFE                move.w     [A6 - 0x2], D0
00002528  102E FFFC                move.b     D0, [A6 - 0x4]
0000252C  6714                     beq        +0x16 /* 00002542 */
0000252E  5500                     subq.b     D0, 2
00002530  674C                     beq        +0x4E /* 0000257E */
00002532  5500                     subq.b     D0, 2
00002534  6700 0082                beq        +0x84 /* 000025B8 */
00002538  5500                     subq.b     D0, 2
0000253A  6700 00B6                beq        +0xB8 /* 000025F2 */
0000253E  6000 00EA                bra        +0xEC /* 0000262A */
label00002542:
00002542  2006                     move.l     D0, D6
00002544  C1FC 003A                muls.w     D0, 0x3A /* ':' */
00002548  7200                     moveq.l    D1, 0x00
0000254A  1234 0005                move.b     D1, [A4 + D0.w + 0x5]
0000254E  48C5                     ext.l      D5
00002550  9285                     sub.l      D1, D5
00002552  2007                     move.l     D0, D7
00002554  C1FC 003A                muls.w     D0, 0x3A /* ':' */
00002558  1981 0005                move.b     [A4 + D0.w + 0x5], D1
0000255C  2006                     move.l     D0, D6
0000255E  C1FC 003A                muls.w     D0, 0x3A /* ':' */
00002562  7200                     moveq.l    D1, 0x00
00002564  1234 0006                move.b     D1, [A4 + D0.w + 0x6]
00002568  302E FFE8                move.w     D0, [A6 - 0x18]
0000256C  48C0                     ext.l      D0
0000256E  D081                     add.l      D0, D1
00002570  2207                     move.l     D1, D7
00002572  C3FC 003A                muls.w     D1, 0x3A /* ':' */
00002576  1980 1006                move.b     [A4 + D1.w + 0x6], D0
0000257A  6000 00AE                bra        +0xB0 /* 0000262A */
label0000257E:
0000257E  2006                     move.l     D0, D6
00002580  C1FC 003A                muls.w     D0, 0x3A /* ':' */
00002584  7200                     moveq.l    D1, 0x00
00002586  1234 0005                move.b     D1, [A4 + D0.w + 0x5]
0000258A  302E FFF0                move.w     D0, [A6 - 0x10]
0000258E  48C0                     ext.l      D0
00002590  9280                     sub.l      D1, D0
00002592  2007                     move.l     D0, D7
00002594  C1FC 003A                muls.w     D0, 0x3A /* ':' */
00002598  1981 0005                move.b     [A4 + D0.w + 0x5], D1
0000259C  2006                     move.l     D0, D6
0000259E  C1FC 003A                muls.w     D0, 0x3A /* ':' */
000025A2  7200                     moveq.l    D1, 0x00
000025A4  1234 0006                move.b     D1, [A4 + D0.w + 0x6]
000025A8  48C5                     ext.l      D5
000025AA  9285                     sub.l      D1, D5
000025AC  2007                     move.l     D0, D7
000025AE  C1FC 003A                muls.w     D0, 0x3A /* ':' */
000025B2  1981 0006                move.b     [A4 + D0.w + 0x6], D1
000025B6  6072                     bra        +0x74 /* 0000262A */
label000025B8:
000025B8  2006                     move.l     D0, D6
000025BA  C1FC 003A                muls.w     D0, 0x3A /* ':' */
000025BE  7200                     moveq.l    D1, 0x00
000025C0  1234 0005                move.b     D1, [A4 + D0.w + 0x5]
000025C4  48C5                     ext.l      D5
000025C6  9285                     sub.l      D1, D5
000025C8  2007                     move.l     D0, D7
000025CA  C1FC 003A                muls.w     D0, 0x3A /* ':' */
000025CE  1981 0005                move.b     [A4 + D0.w + 0x5], D1
000025D2  2006                     move.l     D0, D6
000025D4  C1FC 003A                muls.w     D0, 0x3A /* ':' */
000025D8  7200                     moveq.l    D1, 0x00
000025DA  1234 0006                move.b     D1, [A4 + D0.w + 0x6]
000025DE  302E FFF0                move.w     D0, [A6 - 0x10]
000025E2  48C0                     ext.l      D0
000025E4  9280                     sub.l      D1, D0
000025E6  2007                     move.l     D0, D7
000025E8  C1FC 003A                muls.w     D0, 0x3A /* ':' */
000025EC  1981 0006                move.b     [A4 + D0.w + 0x6], D1
000025F0  6038                     bra        +0x3A /* 0000262A */
label000025F2:
000025F2  2006                     move.l     D0, D6
000025F4  C1FC 003A                muls.w     D0, 0x3A /* ':' */
000025F8  7200                     moveq.l    D1, 0x00
000025FA  1234 0005                move.b     D1, [A4 + D0.w + 0x5]
000025FE  302E FFE8                move.w     D0, [A6 - 0x18]
00002602  48C0                     ext.l      D0
00002604  D081                     add.l      D0, D1
00002606  2207                     move.l     D1, D7
00002608  C3FC 003A                muls.w     D1, 0x3A /* ':' */
0000260C  1980 1005                move.b     [A4 + D1.w + 0x5], D0
00002610  2006                     move.l     D0, D6
00002612  C1FC 003A                muls.w     D0, 0x3A /* ':' */
00002616  7200                     moveq.l    D1, 0x00
00002618  1234 0006                move.b     D1, [A4 + D0.w + 0x6]
0000261C  48C5                     ext.l      D5
0000261E  9285                     sub.l      D1, D5
00002620  2007                     move.l     D0, D7
00002622  C1FC 003A                muls.w     D0, 0x3A /* ':' */
00002626  1981 0006                move.b     [A4 + D0.w + 0x6], D1
label0000262A:
0000262A  2006                     move.l     D0, D6
0000262C  C1FC 003A                muls.w     D0, 0x3A /* ':' */
00002630  2207                     move.l     D1, D7
00002632  C3FC 003A                muls.w     D1, 0x3A /* ':' */
00002636  19B4 000F 100F           move.b     [A4 + D1.w + 0xF], [A4 + D0.w + 0xF]
0000263C  2006                     move.l     D0, D6
0000263E  C1FC 003A                muls.w     D0, 0x3A /* ':' */
00002642  2207                     move.l     D1, D7
00002644  C3FC 003A                muls.w     D1, 0x3A /* ':' */
00002648  19B4 0032 1032           move.b     [A4 + D1.w + 0x32], [A4 + D0.w + 0x32]
0000264E  2006                     move.l     D0, D6
00002650  C1FC 003A                muls.w     D0, 0x3A /* ':' */
00002654  2207                     move.l     D1, D7
00002656  C3FC 003A                muls.w     D1, 0x3A /* ':' */
0000265A  19B4 0033 1033           move.b     [A4 + D1.w + 0x33], [A4 + D0.w + 0x33]
00002660  3C07                     move.w     D6, D7
00002662  2007                     move.l     D0, D7
00002664  C1FC 003A                muls.w     D0, 0x3A /* ':' */
00002668  3E34 0030                move.w     D7, [A4 + D0.w + 0x30]
label0000266C:
0000266C  4A47                     tst.w      D7
0000266E  6600 FDA2                bne        -0x25C /* 00002412 */
00002672  4CEE 10F0 FFD2           movem.l    D4,D5,D6,D7,A4, [A6 - 0x2E]
00002678  4E5E                     unlink     A6
0000267A  4E75                     rts
0000267C  8F61 6C69 676E 686F 6... dc.b       "alignhooked__Fs"
export_181:
0000268E  4E56 0000                link       A6, 0
00002692  48E7 0708                movem.l    -[A7], D5,D6,D7,A4
00002696  3A2E 000A                move.w     D5, [A6 + 0xA]
0000269A  204D                     movea.l    A0, A5
0000269C  D1FC FFFE 9F9C           add.l      A0, 0xFFFE9F9C
000026A2  49D0                     lea.l      A4, [A0]
000026A4  2005                     move.l     D0, D5
000026A6  C1FC 003A                muls.w     D0, 0x3A /* ':' */
000026AA  7200                     moveq.l    D1, 0x00
000026AC  3234 0002                move.w     D1, [A4 + D0.w + 0x2]
000026B0  7020                     moveq.l    D0, 0x20
000026B2  C041                     and.w      D0, D1
000026B4  6604                     bne        +0x6 /* 000026BA */
000026B6  7000                     moveq.l    D0, 0x00
000026B8  6028                     bra        +0x2A /* 000026E2 */
label000026BA:
000026BA  3E05                     move.w     D7, D5
000026BC  6020                     bra        +0x22 /* 000026DE */
label000026BE:
000026BE  2005                     move.l     D0, D5
000026C0  C1FC 003A                muls.w     D0, 0x3A /* ':' */
000026C4  3C34 0030                move.w     D6, [A4 + D0.w + 0x30]
000026C8  2007                     move.l     D0, D7
000026CA  C1FC 003A                muls.w     D0, 0x3A /* ':' */
000026CE  4274 0030                clr.w      [A4 + D0.w + 0x30]
000026D2  2007                     move.l     D0, D7
000026D4  C1FC 003A                muls.w     D0, 0x3A /* ':' */
000026D8  4274 002E                clr.w      [A4 + D0.w + 0x2E]
000026DC  3E06                     move.w     D7, D6
label000026DE:
000026DE  4A47                     tst.w      D7
000026E0  66DC                     bne        -0x22 /* 000026BE */
label000026E2:
000026E2  4CEE 10E0 FFF0           movem.l    D5,D6,D7,A4, [A6 - 0x10]
000026E8  4E5E                     unlink     A6
000026EA  4E75                     rts
000026EC  9275 6E68 6F6F 6B6D 6... dc.b       "unhookmachlist__Fs"
export_182:
00002702  4E56 FFF8                link       A6, -0x0008
00002706  48E7 0F08                movem.l    -[A7], D4,D5,D6,D7,A4
0000270A  204D                     movea.l    A0, A5
0000270C  D1FC FFFE 9F9C           add.l      A0, 0xFFFE9F9C
00002712  49D0                     lea.l      A4, [A0]
00002714  2A3C 000F 4240           move.l     D5, 0xF4240
0000271A  2C3C 000F 4240           move.l     D6, 0xF4240
00002720  422E FFFF                clr.b      [A6 - 0x1]
00002724  7E01                     moveq.l    D7, 0x01
00002726  4244                     clr.w      D4
00002728  6000 00F6                bra        +0xF8 /* 00002820 */
label0000272C:
0000272C  2007                     move.l     D0, D7
0000272E  C1FC 003A                muls.w     D0, 0x3A /* ':' */
00002732  7200                     moveq.l    D1, 0x00
00002734  3234 0002                move.w     D1, [A4 + D0.w + 0x2]
00002738  7020                     moveq.l    D0, 0x20
0000273A  C041                     and.w      D0, D1
0000273C  6700 00DE                beq        +0xE0 /* 0000281C */
00002740  2007                     move.l     D0, D7
00002742  C1FC 003A                muls.w     D0, 0x3A /* ':' */
00002746  1034 0011                move.b     D0, [A4 + D0.w + 0x11]
0000274A  EC08                     lsr        D0.b, 6
0000274C  7200                     moveq.l    D1, 0x00
0000274E  1200                     move.b     D1, D0
00002750  0C01 0003                cmpi.b     D1, 0x3
00002754  6400 00C2                bcc        +0xC4 /* 00002818 */
00002758  2007                     move.l     D0, D7
0000275A  C1FC 003A                muls.w     D0, 0x3A /* ':' */
0000275E  7200                     moveq.l    D1, 0x00
00002760  3234 0002                move.w     D1, [A4 + D0.w + 0x2]
00002764  7040                     moveq.l    D0, 0x40
00002766  C041                     and.w      D0, D1
00002768  6600 00AE                bne        +0xB0 /* 00002818 */
0000276C  2007                     move.l     D0, D7
0000276E  C1FC 003A                muls.w     D0, 0x3A /* ':' */
00002772  3034 0000                move.w     D0, [A4 + D0.w]
00002776  B06E 000A                cmp.w      D0, [A6 + 0xA]
0000277A  6600 009C                bne        +0x9E /* 00002818 */
0000277E  2007                     move.l     D0, D7
00002780  C1FC 003A                muls.w     D0, 0x3A /* ':' */
00002784  7200                     moveq.l    D1, 0x00
00002786  3234 0002                move.w     D1, [A4 + D0.w + 0x2]
0000278A  7001                     moveq.l    D0, 0x01
0000278C  C041                     and.w      D0, D1
0000278E  6600 0088                bne        +0x8A /* 00002818 */
00002792  2007                     move.l     D0, D7
00002794  C1FC 003A                muls.w     D0, 0x3A /* ':' */
00002798  7200                     moveq.l    D1, 0x00
0000279A  3234 0002                move.w     D1, [A4 + D0.w + 0x2]
0000279E  7008                     moveq.l    D0, 0x08
000027A0  C041                     and.w      D0, D1
000027A2  6674                     bne        +0x76 /* 00002818 */
000027A4  2007                     move.l     D0, D7
000027A6  C1FC 003A                muls.w     D0, 0x3A /* ':' */
000027AA  4A74 0030                tst.w      [A4 + D0.w + 0x30]
000027AE  6668                     bne        +0x6A /* 00002818 */
000027B0  2007                     move.l     D0, D7
000027B2  C1FC 003A                muls.w     D0, 0x3A /* ':' */
000027B6  1034 0006                move.b     D0, [A4 + D0.w + 0x6]
000027BA  49C0                     lea.l      A4, D0
000027BC  2F00                     move.l     -[A7], D0
000027BE  2007                     move.l     D0, D7
000027C0  C1FC 003A                muls.w     D0, 0x3A /* ':' */
000027C4  1034 0005                move.b     D0, [A4 + D0.w + 0x5]
000027C8  49C0                     lea.l      A4, D0
000027CA  2F00                     move.l     -[A7], D0
000027CC  102E 0013                move.b     D0, [A6 + 0x13]
000027D0  49C0                     lea.l      A4, D0
000027D2  2F00                     move.l     -[A7], D0
000027D4  102E 000F                move.b     D0, [A6 + 0xF]
000027D8  49C0                     lea.l      A4, D0
000027DA  2F00                     move.l     -[A7], D0
000027DC  4EBA DD32                jsr        [PC - 0x22CE /* 00000510 */]
000027E0  48C0                     ext.l      D0
000027E2  2C00                     move.l     D6, D0
000027E4  BA86                     cmp.l      D5, D6
000027E6  4FEF 0010                lea.l      A7, [A7 + 0x10]
000027EA  6F2C                     ble        +0x2E /* 00002818 */
000027EC  2A06                     move.l     D5, D6
000027EE  2007                     move.l     D0, D7
000027F0  C1FC 003A                muls.w     D0, 0x3A /* ':' */
000027F4  7200                     moveq.l    D1, 0x00
000027F6  1234 0005                move.b     D1, [A4 + D0.w + 0x5]
000027FA  3D41 FFF8                move.w     [A6 - 0x8], D1
000027FE  2007                     move.l     D0, D7
00002800  C1FC 003A                muls.w     D0, 0x3A /* ':' */
00002804  7200                     moveq.l    D1, 0x00
00002806  1234 0006                move.b     D1, [A4 + D0.w + 0x6]
0000280A  3D41 FFFA                move.w     [A6 - 0x6], D1
0000280E  3D47 FFFC                move.w     [A6 - 0x4], D7
00002812  1D7C 0001 FFFF           move.b     [A6 - 0x1], 0x1
label00002818:
00002818  3004                     move.w     D0, D4
0000281A  5244                     addq.w     D4, 1
label0000281C:
0000281C  3007                     move.w     D0, D7
0000281E  5247                     addq.w     D7, 1
label00002820:
00002820  204D                     movea.l    A0, A5
00002822  D1FC FFFE 9F9A           add.l      A0, 0xFFFE9F9A
00002828  B850                     cmp.w      D4, [A0]
0000282A  6D00 FF00                blt        -0xFE /* 0000272C */
0000282E  4A2E FFFF                tst.b      [A6 - 0x1]
00002832  6700 0092                beq        +0x94 /* 000028C6 */
00002836  302E FFFC                move.w     D0, [A6 - 0x4]
0000283A  C1FC 003A                muls.w     D0, 0x3A /* ':' */
0000283E  0074 0001 0002           ori.w      [A4 + D0.w + 0x2], 0x1
00002844  302E FFFC                move.w     D0, [A6 - 0x4]
00002848  C1FC 003A                muls.w     D0, 0x3A /* ':' */
0000284C  7200                     moveq.l    D1, 0x00
0000284E  3234 0002                move.w     D1, [A4 + D0.w + 0x2]
00002852  7004                     moveq.l    D0, 0x04
00002854  C041                     and.w      D0, D1
00002856  6766                     beq        +0x68 /* 000028BE */
00002858  7001                     moveq.l    D0, 0x01
0000285A  2F00                     move.l     -[A7], D0
0000285C  2F00                     move.l     -[A7], D0
0000285E  322E FFFC                move.w     D1, [A6 - 0x4]
00002862  C3FC 003A                muls.w     D1, 0x3A /* ':' */
00002866  7400                     moveq.l    D2, 0x00
00002868  1434 1006                move.b     D2, [A4 + D1.w + 0x6]
0000286C  2F02                     move.l     -[A7], D2
0000286E  322E FFFC                move.w     D1, [A6 - 0x4]
00002872  C3FC 003A                muls.w     D1, 0x3A /* ':' */
00002876  7400                     moveq.l    D2, 0x00
00002878  1434 1005                move.b     D2, [A4 + D1.w + 0x5]
0000287C  2F02                     move.l     -[A7], D2
0000287E  4EAD 0932                jsr        [A5 + 0x932 /* export_290, CODE:16 @ 00000802 */]
00002882  3A00                     move.w     D5, D0
00002884  302E FFFC                move.w     D0, [A6 - 0x4]
00002888  C1FC 003A                muls.w     D0, 0x3A /* ':' */
0000288C  7200                     moveq.l    D1, 0x00
0000288E  1234 0006                move.b     D1, [A4 + D0.w + 0x6]
00002892  2F01                     move.l     -[A7], D1
00002894  302E FFFC                move.w     D0, [A6 - 0x4]
00002898  C1FC 003A                muls.w     D0, 0x3A /* ':' */
0000289C  7200                     moveq.l    D1, 0x00
0000289E  1234 0005                move.b     D1, [A4 + D0.w + 0x5]
000028A2  2F01                     move.l     -[A7], D1
000028A4  48C5                     ext.l      D5
000028A6  2F05                     move.l     -[A7], D5
000028A8  4EAD 0952                jsr        [A5 + 0x952 /* export_294, CODE:16 @ 00001AD8 */]
000028AC  302E FFFC                move.w     D0, [A6 - 0x4]
000028B0  C1FC 003A                muls.w     D0, 0x3A /* ':' */
000028B4  0274 FFFB 0002           andi.w     [A4 + D0.w + 0x2], 0xFFFB
000028BA  4FEF 001C                lea.l      A7, [A7 + 0x1C]
label000028BE:
000028BE  302E FFFC                move.w     D0, [A6 - 0x4]
000028C2  6000 00FE                bra        +0x100 /* 000029C2 */
label000028C6:
000028C6  204D                     movea.l    A0, A5
000028C8  D1FC FFFE BECE           add.l      A0, 0xFFFEBECE
000028CE  4A10                     tst.b      [A0]
000028D0  6700 00E4                beq        +0xE6 /* 000029B6 */
000028D4  302E 000A                move.w     D0, [A6 + 0xA]
000028D8  48C0                     ext.l      D0
000028DA  2F00                     move.l     -[A7], D0
000028DC  7000                     moveq.l    D0, 0x00
000028DE  2F00                     move.l     -[A7], D0
000028E0  2F00                     move.l     -[A7], D0
000028E2  4EBA D888                jsr        [PC - 0x2778 /* 0000016C */]
000028E6  3800                     move.w     D4, D0
000028E8  4FEF 000C                lea.l      A7, [A7 + 0xC]
000028EC  6700 00C8                beq        +0xCA /* 000029B6 */
000028F0  302E 000A                move.w     D0, [A6 + 0xA]
000028F4  C1FC 0012                muls.w     D0, 0x12
000028F8  204D                     movea.l    A0, A5
000028FA  D1FC FFFE 9EB0           add.l      A0, 0xFFFE9EB0
00002900  3030 0006                move.w     D0, [A0 + D0.w + 0x6]
00002904  E248                     lsr        D0.w, 1
00002906  7200                     moveq.l    D1, 0x00
00002908  3200                     move.w     D1, D0
0000290A  2F01                     move.l     -[A7], D1
0000290C  4878 05DC                push.l     0x5DC
00002910  4EBA 0338                jsr        [PC + 0x338 /* 00002C4A */]
00002914  4A80                     tst.l      D0
00002916  504F                     addq.w     A7, 8
00002918  6618                     bne        +0x1A /* 00002932 */
0000291A  48C4                     ext.l      D4
0000291C  2F04                     move.l     -[A7], D4
0000291E  4EBA D7CA                jsr        [PC - 0x2836 /* 000000EA */]
00002922  7000                     moveq.l    D0, 0x00
00002924  2F00                     move.l     -[A7], D0
00002926  4EAD 032A                jsr        [A5 + 0x32A /* export_97, CODE:5 @ 00000560 */]
0000292A  7000                     moveq.l    D0, 0x00
0000292C  504F                     addq.w     A7, 8
0000292E  6000 0092                bra        +0x94 /* 000029C2 */
label00002932:
00002932  204D                     movea.l    A0, A5
00002934  D1FC FFFF 0442           add.l      A0, 0xFFFF0442
0000293A  3010                     move.w     D0, [A0]
0000293C  48C0                     ext.l      D0
0000293E  E788                     lsl        D0, 3
00002940  5280                     addq.l     D0, 1
00002942  2204                     move.l     D1, D4
00002944  C3FC 003A                muls.w     D1, 0x3A /* ':' */
00002948  1980 1005                move.b     [A4 + D1.w + 0x5], D0
0000294C  204D                     movea.l    A0, A5
0000294E  D1FC FFFF 0440           add.l      A0, 0xFFFF0440
00002954  3010                     move.w     D0, [A0]
00002956  48C0                     ext.l      D0
00002958  E788                     lsl        D0, 3
0000295A  5A80                     addq.l     D0, 5
0000295C  2204                     move.l     D1, D4
0000295E  C3FC 003A                muls.w     D1, 0x3A /* ':' */
00002962  1980 1006                move.b     [A4 + D1.w + 0x6], D0
00002966  204D                     movea.l    A0, A5
00002968  D1FC FFFF 0442           add.l      A0, 0xFFFF0442
0000296E  3010                     move.w     D0, [A0]
00002970  48C0                     ext.l      D0
00002972  E788                     lsl        D0, 3
00002974  5200                     addq.b     D0, 1
00002976  2204                     move.l     D1, D4
00002978  C3FC 003A                muls.w     D1, 0x3A /* ':' */
0000297C  1980 1034                move.b     [A4 + D1.w + 0x34], D0
00002980  204D                     movea.l    A0, A5
00002982  D1FC FFFF 0440           add.l      A0, 0xFFFF0440
00002988  3010                     move.w     D0, [A0]
0000298A  48C0                     ext.l      D0
0000298C  E788                     lsl        D0, 3
0000298E  5A00                     addq.b     D0, 5
00002990  2204                     move.l     D1, D4
00002992  C3FC 003A                muls.w     D1, 0x3A /* ':' */
00002996  1980 1035                move.b     [A4 + D1.w + 0x35], D0
0000299A  2004                     move.l     D0, D4
0000299C  C1FC 003A                muls.w     D0, 0x3A /* ':' */
000029A0  0074 0040 0002           ori.w      [A4 + D0.w + 0x2], 0x40 /* '@' */
000029A6  2004                     move.l     D0, D4
000029A8  C1FC 003A                muls.w     D0, 0x3A /* ':' */
000029AC  0074 0001 0002           ori.w      [A4 + D0.w + 0x2], 0x1
000029B2  3004                     move.w     D0, D4
000029B4  600C                     bra        +0xE /* 000029C2 */
label000029B6:
000029B6  7048                     moveq.l    D0, 0x48
000029B8  2F00                     move.l     -[A7], D0
000029BA  4EAD 032A                jsr        [A5 + 0x32A /* export_97, CODE:5 @ 00000560 */]
000029BE  7000                     moveq.l    D0, 0x00
000029C0  584F                     addq.w     A7, 4
label000029C2:
000029C2  4CEE 10F0 FFE4           movem.l    D4,D5,D6,D7,A4, [A6 - 0x1C]
000029C8  4E5E                     unlink     A6
000029CA  4E75                     rts
000029CC  9572 6571 7565 7374 6... dc.b       "requestmachine__FsN21"
export_183:
fn000029E4:
000029E4  4E56 0000                link       A6, 0
000029E8  48E7 0708                movem.l    -[A7], D5,D6,D7,A4
000029EC  204D                     movea.l    A0, A5
000029EE  D1FC FFFE 9F9C           add.l      A0, 0xFFFE9F9C
000029F4  49D0                     lea.l      A4, [A0]
000029F6  3C2E 000A                move.w     D6, [A6 + 0xA]
000029FA  4207                     clr.b      D7
000029FC  2006                     move.l     D0, D6
000029FE  C1FC 003A                muls.w     D0, 0x3A /* ':' */
00002A02  1E34 0011                move.b     D7, [A4 + D0.w + 0x11]
00002A06  EC0F                     lsr        D7.b, 6
00002A08  2006                     move.l     D0, D6
00002A0A  C1FC 003A                muls.w     D0, 0x3A /* ':' */
00002A0E  3034 0000                move.w     D0, [A4 + D0.w]
00002A12  C1FC 0012                muls.w     D0, 0x12
00002A16  204D                     movea.l    A0, A5
00002A18  D1FC FFFE 9EB0           add.l      A0, 0xFFFE9EB0
00002A1E  3A30 0006                move.w     D5, [A0 + D0.w + 0x6]
00002A22  EE6D                     lsr        D5.w, D7
00002A24  4887                     ext.w      D7
00002A26  7003                     moveq.l    D0, 0x03
00002A28  9047                     sub.w      D0, D7
00002A2A  206E 000C                movea.l    A0, [A6 + 0xC]
00002A2E  3080                     move.w     [A0], D0
00002A30  3005                     move.w     D0, D5
00002A32  4CEE 10E0 FFF0           movem.l    D5,D6,D7,A4, [A6 - 0x10]
00002A38  4E5E                     unlink     A6
00002A3A  4E75                     rts
00002A3C  9267 6574 6D61 6368 7... dc.b       "getmachvalue__FsPs"
export_184:
fn00002A52:
00002A52  4E56 0000                link       A6, 0
00002A56  48E7 0708                movem.l    -[A7], D5,D6,D7,A4
00002A5A  204D                     movea.l    A0, A5
00002A5C  D1FC FFFE 9F9C           add.l      A0, 0xFFFE9F9C
00002A62  49D0                     lea.l      A4, [A0]
00002A64  3C2E 000A                move.w     D6, [A6 + 0xA]
00002A68  2006                     move.l     D0, D6
00002A6A  C1FC 003A                muls.w     D0, 0x3A /* ':' */
00002A6E  3A34 0012                move.w     D5, [A4 + D0.w + 0x12]
00002A72  E44D                     lsr        D5.w, 2
00002A74  7000                     moveq.l    D0, 0x00
00002A76  102E 000F                move.b     D0, [A6 + 0xF]
00002A7A  DA40                     add.w      D5, D0
00002A7C  2006                     move.l     D0, D6
00002A7E  C1FC 003A                muls.w     D0, 0x3A /* ':' */
00002A82  7200                     moveq.l    D1, 0x00
00002A84  1234 0011                move.b     D1, [A4 + D0.w + 0x11]
00002A88  3E01                     move.w     D7, D1
00002A8A  DE45                     add.w      D7, D5
00002A8C  7000                     moveq.l    D0, 0x00
00002A8E  3007                     move.w     D0, D7
00002A90  0C40 00FF                cmpi.w     D0, 0xFF
00002A94  6304                     bls        +0x6 /* 00002A9A */
00002A96  3E3C 00FF                move.w     D7, 0xFF
label00002A9A:
00002A9A  2006                     move.l     D0, D6
00002A9C  C1FC 003A                muls.w     D0, 0x3A /* ':' */
00002AA0  1987 0011                move.b     [A4 + D0.w + 0x11], D7
00002AA4  4CEE 10E0 FFF0           movem.l    D5,D6,D7,A4, [A6 - 0x10]
00002AAA  4E5E                     unlink     A6
00002AAC  4E75                     rts
00002AAE  9364 616D 6167 656D 6... dc.b       "damagemachine__FsUc"
fn00002AC4:
00002AC4  4E56 0000                link       A6, 0
00002AC8  48E7 0108                movem.l    -[A7], D7,A4
00002ACC  3E2E 000A                move.w     D7, [A6 + 0xA]
00002AD0  204D                     movea.l    A0, A5
00002AD2  D1FC FFFE 9F9C           add.l      A0, 0xFFFE9F9C
00002AD8  49D0                     lea.l      A4, [A0]
00002ADA  2007                     move.l     D0, D7
00002ADC  C1FC 003A                muls.w     D0, 0x3A /* ':' */
00002AE0  0074 0080 0002           ori.w      [A4 + D0.w + 0x2], 0x80
00002AE6  2007                     move.l     D0, D7
00002AE8  C1FC 003A                muls.w     D0, 0x3A /* ':' */
00002AEC  4A74 0030                tst.w      [A4 + D0.w + 0x30]
00002AF0  6714                     beq        +0x16 /* 00002B06 */
00002AF2  2007                     move.l     D0, D7
00002AF4  C1FC 003A                muls.w     D0, 0x3A /* ':' */
00002AF8  3034 0030                move.w     D0, [A4 + D0.w + 0x30]
00002AFC  C1FC 003A                muls.w     D0, 0x3A /* ':' */
00002B00  0074 0080 0002           ori.w      [A4 + D0.w + 0x2], 0x80
label00002B06:
00002B06  4CEE 1080 FFF8           movem.l    D7,A4, [A6 - 0x8]
00002B0C  4E5E                     unlink     A6
00002B0E  4E75                     rts
00002B10  9273 6574 7669 7361 6... dc.b       "setvisableflag__Fs"
fn00002B26:
00002B26  4E56 0000                link       A6, 0
00002B2A  48E7 0108                movem.l    -[A7], D7,A4
00002B2E  3E2E 000A                move.w     D7, [A6 + 0xA]
00002B32  204D                     movea.l    A0, A5
00002B34  D1FC FFFE 9F9C           add.l      A0, 0xFFFE9F9C
00002B3A  49D0                     lea.l      A4, [A0]
00002B3C  2007                     move.l     D0, D7
00002B3E  C1FC 003A                muls.w     D0, 0x3A /* ':' */
00002B42  0274 FF7F 0002           andi.w     [A4 + D0.w + 0x2], 0xFF7F
00002B48  2007                     move.l     D0, D7
00002B4A  C1FC 003A                muls.w     D0, 0x3A /* ':' */
00002B4E  4A74 0030                tst.w      [A4 + D0.w + 0x30]
00002B52  6714                     beq        +0x16 /* 00002B68 */
00002B54  2007                     move.l     D0, D7
00002B56  C1FC 003A                muls.w     D0, 0x3A /* ':' */
00002B5A  3034 0030                move.w     D0, [A4 + D0.w + 0x30]
00002B5E  C1FC 003A                muls.w     D0, 0x3A /* ':' */
00002B62  0274 FF7F 0002           andi.w     [A4 + D0.w + 0x2], 0xFF7F
label00002B68:
00002B68  4CEE 1080 FFF8           movem.l    D7,A4, [A6 - 0x8]
00002B6E  4E5E                     unlink     A6
00002B70  4E75                     rts
00002B72  9472 6573 6574 7669 7... dc.b       "resetvisableflag__Fs"
export_185:
00002B8A  4E56 FFFE                link       A6, -0x0002
00002B8E  48E7 0708                movem.l    -[A7], D5,D6,D7,A4
00002B92  204D                     movea.l    A0, A5
00002B94  D1FC FFFE 9F9C           add.l      A0, 0xFFFE9F9C
00002B9A  49D0                     lea.l      A4, [A0]
00002B9C  7A00                     moveq.l    D5, 0x00
00002B9E  4246                     clr.w      D6
00002BA0  7E01                     moveq.l    D7, 0x01
00002BA2  603E                     bra        +0x40 /* 00002BE2 */
label00002BA4:
00002BA4  2007                     move.l     D0, D7
00002BA6  C1FC 003A                muls.w     D0, 0x3A /* ':' */
00002BAA  7200                     moveq.l    D1, 0x00
00002BAC  3234 0002                move.w     D1, [A4 + D0.w + 0x2]
00002BB0  7020                     moveq.l    D0, 0x20
00002BB2  C041                     and.w      D0, D1
00002BB4  6728                     beq        +0x2A /* 00002BDE */
00002BB6  2007                     move.l     D0, D7
00002BB8  C1FC 003A                muls.w     D0, 0x3A /* ':' */
00002BBC  7200                     moveq.l    D1, 0x00
00002BBE  3234 0002                move.w     D1, [A4 + D0.w + 0x2]
00002BC2  7040                     moveq.l    D0, 0x40
00002BC4  C041                     and.w      D0, D1
00002BC6  6612                     bne        +0x14 /* 00002BDA */
00002BC8  486E FFFE                pea.l      [A6 - 0x2]
00002BCC  48C7                     ext.l      D7
00002BCE  2F07                     move.l     -[A7], D7
00002BD0  4EBA FE12                jsr        [PC - 0x1EE /* 000029E4 */]
00002BD4  48C0                     ext.l      D0
00002BD6  DA80                     add.l      D5, D0
00002BD8  504F                     addq.w     A7, 8
label00002BDA:
00002BDA  3006                     move.w     D0, D6
00002BDC  5246                     addq.w     D6, 1
label00002BDE:
00002BDE  3007                     move.w     D0, D7
00002BE0  5247                     addq.w     D7, 1
label00002BE2:
00002BE2  204D                     movea.l    A0, A5
00002BE4  D1FC FFFE 9F9A           add.l      A0, 0xFFFE9F9A
00002BEA  BC50                     cmp.w      D6, [A0]
00002BEC  6DB6                     blt        -0x48 /* 00002BA4 */
00002BEE  2005                     move.l     D0, D5
00002BF0  4CEE 10E0 FFEE           movem.l    D5,D6,D7,A4, [A6 - 0x12]
00002BF6  4E5E                     unlink     A6
00002BF8  4E75                     rts
00002BFA  9563 616C 636D 6163 6... dc.b       "calcmachineassets__Fv"
export_186:
00002C12  4E56 0000                link       A6, 0
00002C16  2F03                     move.l     -[A7], D3
00002C18  222E 0008                move.l     D1, [A6 + 0x8]
00002C1C  204D                     movea.l    A0, A5
00002C1E  D1FC FFFE BD76           add.l      A0, 0xFFFEBD76
00002C24  B290                     cmp.l      D1, [A0]
00002C26  52C3                     shi        D3
00002C28  4403                     neg.b      D3
00002C2A  57C0                     seq        D0
00002C2C  0240 0001                andi.w     D0, 0x1
00002C30  262E FFFC                move.l     D3, [A6 - 0x4]
00002C34  4E5E                     unlink     A6
00002C36  4E75                     rts
00002C38  8E63 6865 636B 6675 6... dc.b       "checkfunds__Fl"
export_187:
fn00002C4A:
00002C4A  4E56 FFFC                link       A6, -0x0004
00002C4E  48E7 0718                movem.l    -[A7], D5,D6,D7,A3,A4
00002C52  2C2E 000C                move.l     D6, [A6 + 0xC]
00002C56  3E2E 000A                move.w     D7, [A6 + 0xA]
00002C5A  204D                     movea.l    A0, A5
00002C5C  D1FC FFFE BCFC           add.l      A0, 0xFFFEBCFC
00002C62  5210                     addq.b     [A0], 1
00002C64  700F                     moveq.l    D0, 0x0F
00002C66  204D                     movea.l    A0, A5
00002C68  D1FC FFFE BCFC           add.l      A0, 0xFFFEBCFC
00002C6E  B010                     cmp.b      D0, [A0]
00002C70  6C20                     bge        +0x22 /* 00002C92 */
00002C72  224D                     movea.l    A1, A5
00002C74  D3FC FFFF 7868           add.l      A1, 0xFFFF7868
00002C7A  2051                     movea.l    A0, [A1]
00002C7C  2868 0128                movea.l    A4, [A0 + 0x128]
00002C80  266C 00DC                movea.l    A3, [A4 + 0xDC]
00002C84  4EAD 0312                jsr        [A5 + 0x312 /* export_94, CODE:5 @ 00000362 */]
00002C88  2F2B 016C                move.l     -[A7], [A3 + 0x16C]
00002C8C  4EAD 1F52                jsr        [A5 + 0x1F52 /* export_998, CODE:37 @ 000014C8 */]
00002C90  584F                     addq.w     A7, 4
label00002C92:
00002C92  204D                     movea.l    A0, A5
00002C94  D1FC FFFE BD76           add.l      A0, 0xFFFEBD76
00002C9A  BC90                     cmp.l      D6, [A0]
00002C9C  6310                     bls        +0x12 /* 00002CAE */
00002C9E  702A                     moveq.l    D0, 0x2A
00002CA0  2F00                     move.l     -[A7], D0
00002CA2  4EAD 032A                jsr        [A5 + 0x32A /* export_97, CODE:5 @ 00000560 */]
00002CA6  7000                     moveq.l    D0, 0x00
00002CA8  584F                     addq.w     A7, 4
00002CAA  6000 01A0                bra        +0x1A2 /* 00002E4C */
label00002CAE:
00002CAE  204D                     movea.l    A0, A5
00002CB0  D1FC FFFE BD76           add.l      A0, 0xFFFEBD76
00002CB6  9D90                     sub.l      [A0], D6
00002CB8  204D                     movea.l    A0, A5
00002CBA  D1FC FFFE BD76           add.l      A0, 0xFFFEBD76
00002CC0  4A90                     tst.l      [A0]
00002CC2  640C                     bcc        +0xE /* 00002CD0 */
00002CC4  204D                     movea.l    A0, A5
00002CC6  D1FC FFFE BD76           add.l      A0, 0xFFFEBD76
00002CCC  7000                     moveq.l    D0, 0x00
00002CCE  2080                     move.l     [A0], D0
label00002CD0:
00002CD0  0C47 FFFF                cmpi.w     D7, 0xFFFF
00002CD4  660E                     bne        +0x10 /* 00002CE4 */
00002CD6  204D                     movea.l    A0, A5
00002CD8  D1FC FFFE BD12           add.l      A0, 0xFFFEBD12
00002CDE  DD90                     add.l      [A0], D6
00002CE0  6000 00F6                bra        +0xF8 /* 00002DD8 */
label00002CE4:
00002CE4  4A47                     tst.w      D7
00002CE6  6D14                     blt        +0x16 /* 00002CFC */
00002CE8  0C47 003F                cmpi.w     D7, 0x3F /* '?' */
00002CEC  6E0E                     bgt        +0x10 /* 00002CFC */
00002CEE  204D                     movea.l    A0, A5
00002CF0  D1FC FFFE BD42           add.l      A0, 0xFFFEBD42
00002CF6  DD90                     add.l      [A0], D6
00002CF8  6000 00DE                bra        +0xE0 /* 00002DD8 */
label00002CFC:
00002CFC  0C47 0040                cmpi.w     D7, 0x40 /* '@' */
00002D00  6D14                     blt        +0x16 /* 00002D16 */
00002D02  0C47 007F                cmpi.w     D7, 0x7F
00002D06  6E0E                     bgt        +0x10 /* 00002D16 */
00002D08  204D                     movea.l    A0, A5
00002D0A  D1FC FFFE BD2E           add.l      A0, 0xFFFEBD2E
00002D10  DD90                     add.l      [A0], D6
00002D12  6000 00C4                bra        +0xC6 /* 00002DD8 */
label00002D16:
00002D16  0C47 0080                cmpi.w     D7, 0x80
00002D1A  6D14                     blt        +0x16 /* 00002D30 */
00002D1C  0C47 009F                cmpi.w     D7, 0x9F
00002D20  6E0E                     bgt        +0x10 /* 00002D30 */
00002D22  204D                     movea.l    A0, A5
00002D24  D1FC FFFE BD3A           add.l      A0, 0xFFFEBD3A
00002D2A  DD90                     add.l      [A0], D6
00002D2C  6000 00AA                bra        +0xAC /* 00002DD8 */
label00002D30:
00002D30  0C47 00A0                cmpi.w     D7, 0xA0
00002D34  6D14                     blt        +0x16 /* 00002D4A */
00002D36  0C47 00A7                cmpi.w     D7, 0xA7
00002D3A  6E0E                     bgt        +0x10 /* 00002D4A */
00002D3C  204D                     movea.l    A0, A5
00002D3E  D1FC FFFE BD26           add.l      A0, 0xFFFEBD26
00002D44  DD90                     add.l      [A0], D6
00002D46  6000 0090                bra        +0x92 /* 00002DD8 */
label00002D4A:
00002D4A  0C47 00C0                cmpi.w     D7, 0xC0
00002D4E  6D12                     blt        +0x14 /* 00002D62 */
00002D50  0C47 00D7                cmpi.w     D7, 0xD7
00002D54  6E0C                     bgt        +0xE /* 00002D62 */
00002D56  204D                     movea.l    A0, A5
00002D58  D1FC FFFE BD46           add.l      A0, 0xFFFEBD46
00002D5E  DD90                     add.l      [A0], D6
00002D60  6076                     bra        +0x78 /* 00002DD8 */
label00002D62:
00002D62  0C47 00DC                cmpi.w     D7, 0xDC
00002D66  6D12                     blt        +0x14 /* 00002D7A */
00002D68  0C47 00DF                cmpi.w     D7, 0xDF
00002D6C  6E0C                     bgt        +0xE /* 00002D7A */
00002D6E  204D                     movea.l    A0, A5
00002D70  D1FC FFFE BD1E           add.l      A0, 0xFFFEBD1E
00002D76  DD90                     add.l      [A0], D6
00002D78  605E                     bra        +0x60 /* 00002DD8 */
label00002D7A:
00002D7A  0C47 01F4                cmpi.w     D7, 0x1F4
00002D7E  6D12                     blt        +0x14 /* 00002D92 */
00002D80  0C47 01F7                cmpi.w     D7, 0x1F7
00002D84  6E0C                     bgt        +0xE /* 00002D92 */
00002D86  204D                     movea.l    A0, A5
00002D88  D1FC FFFE BD36           add.l      A0, 0xFFFEBD36
00002D8E  DD90                     add.l      [A0], D6
00002D90  6046                     bra        +0x48 /* 00002DD8 */
label00002D92:
00002D92  0C47 03E8                cmpi.w     D7, 0x3E8
00002D96  660C                     bne        +0xE /* 00002DA4 */
00002D98  204D                     movea.l    A0, A5
00002D9A  D1FC FFFE BD1A           add.l      A0, 0xFFFEBD1A
00002DA0  DD90                     add.l      [A0], D6
00002DA2  6034                     bra        +0x36 /* 00002DD8 */
label00002DA4:
00002DA4  0C47 05DC                cmpi.w     D7, 0x5DC
00002DA8  660C                     bne        +0xE /* 00002DB6 */
00002DAA  204D                     movea.l    A0, A5
00002DAC  D1FC FFFE BD16           add.l      A0, 0xFFFEBD16
00002DB2  DD90                     add.l      [A0], D6
00002DB4  6022                     bra        +0x24 /* 00002DD8 */
label00002DB6:
00002DB6  0C47 07D0                cmpi.w     D7, 0x7D0
00002DBA  660C                     bne        +0xE /* 00002DC8 */
00002DBC  204D                     movea.l    A0, A5
00002DBE  D1FC FFFE BD3E           add.l      A0, 0xFFFEBD3E
00002DC4  DD90                     add.l      [A0], D6
00002DC6  6010                     bra        +0x12 /* 00002DD8 */
label00002DC8:
00002DC8  0C47 09C4                cmpi.w     D7, 0x9C4
00002DCC  660A                     bne        +0xC /* 00002DD8 */
00002DCE  204D                     movea.l    A0, A5
00002DD0  D1FC FFFE BD0E           add.l      A0, 0xFFFEBD0E
00002DD6  DD90                     add.l      [A0], D6
label00002DD8:
00002DD8  224D                     movea.l    A1, A5
00002DDA  D3FC FFFF 7868           add.l      A1, 0xFFFF7868
00002DE0  2051                     movea.l    A0, [A1]
00002DE2  2D68 0128 FFFC           move.l     [A6 - 0x4], [A0 + 0x128]
00002DE8  204D                     movea.l    A0, A5
00002DEA  D1FC FFFE BD76           add.l      A0, 0xFFFEBD76
00002DF0  2A10                     move.l     D5, [A0]
00002DF2  206E FFFC                movea.l    A0, [A6 - 0x4]
00002DF6  4AA8 00F4                tst.l      [A0 + 0xF4]
00002DFA  674C                     beq        +0x4E /* 00002E48 */
00002DFC  2668 00F4                movea.l    A3, [A0 + 0xF4]
00002E00  206B 0170                movea.l    A0, [A3 + 0x170]
00002E04  49E8 01C4                lea.l      A4, [A0 + 0x1C4]
00002E08  2F0C                     move.l     -[A7], A4
00002E0A  4EAD 1782                jsr        [A5 + 0x1782 /* export_748, CODE:32 @ 00004E1E */]
00002E0E  4207                     clr.b      D7
00002E10  7000                     moveq.l    D0, 0x00
00002E12  1007                     move.b     D0, D7
00002E14  2F00                     move.l     -[A7], D0
00002E16  2F2C 0014                move.l     -[A7], [A4 + 0x14]
00002E1A  204D                     movea.l    A0, A5
00002E1C  D1FC FFFE BC62           add.l      A0, 0xFFFEBC62
00002E22  4850                     pea.l      [A0]
00002E24  2F0C                     move.l     -[A7], A4
00002E26  4EAD 178A                jsr        [A5 + 0x178A /* export_749, CODE:32 @ 00004E80 */]
00002E2A  2F05                     move.l     -[A7], D5
00002E2C  206B 0170                movea.l    A0, [A3 + 0x170]
00002E30  4868 01C4                pea.l      [A0 + 0x1C4]
00002E34  4EAD 17FA                jsr        [A5 + 0x17FA /* export_763, CODE:32 @ 000057BC */]
00002E38  2F2B 0170                move.l     -[A7], [A3 + 0x170]
00002E3C  4EAD 1F52                jsr        [A5 + 0x1F52 /* export_998, CODE:37 @ 000014C8 */]
00002E40  7000                     moveq.l    D0, 0x00
00002E42  4FEF 0020                lea.l      A7, [A7 + 0x20]
00002E46  6002                     bra        +0x4 /* 00002E4A */
label00002E48:
00002E48  7000                     moveq.l    D0, 0x00
label00002E4A:
00002E4A  2006                     move.l     D0, D6
label00002E4C:
00002E4C  4CEE 18E0 FFE8           movem.l    D5,D6,D7,A3,A4, [A6 - 0x18]
00002E52  4E5E                     unlink     A6
00002E54  4E75                     rts
00002E56  9272 6571 7565 7374 6... dc.b       "requestfunds__FsUl"
export_188:
fn00002E6C:
00002E6C  4E56 0000                link       A6, 0
00002E70  48E7 0300                movem.l    -[A7], D6,D7
00002E74  2C2E 000C                move.l     D6, [A6 + 0xC]
00002E78  3E2E 000A                move.w     D7, [A6 + 0xA]
00002E7C  204D                     movea.l    A0, A5
00002E7E  D1FC FFFE BD76           add.l      A0, 0xFFFEBD76
00002E84  DD90                     add.l      [A0], D6
00002E86  204D                     movea.l    A0, A5
00002E88  D1FC FFFE BD76           add.l      A0, 0xFFFEBD76
00002E8E  0C90 0098 967F           cmpi.l     [A0], 0x98967F
00002E94  630E                     bls        +0x10 /* 00002EA4 */
00002E96  204D                     movea.l    A0, A5
00002E98  D1FC FFFE BD76           add.l      A0, 0xFFFEBD76
00002E9E  20BC 0098 967F           move.l     [A0], 0x98967F
label00002EA4:
00002EA4  204D                     movea.l    A0, A5
00002EA6  D1FC FFFE BD76           add.l      A0, 0xFFFEBD76
00002EAC  4A90                     tst.l      [A0]
00002EAE  640C                     bcc        +0xE /* 00002EBC */
00002EB0  204D                     movea.l    A0, A5
00002EB2  D1FC FFFE BD76           add.l      A0, 0xFFFEBD76
00002EB8  7000                     moveq.l    D0, 0x00
00002EBA  2080                     move.l     [A0], D0
label00002EBC:
00002EBC  0C47 FFFF                cmpi.w     D7, 0xFFFF
00002EC0  660E                     bne        +0x10 /* 00002ED0 */
00002EC2  204D                     movea.l    A0, A5
00002EC4  D1FC FFFE BD12           add.l      A0, 0xFFFEBD12
00002ECA  9D90                     sub.l      [A0], D6
00002ECC  6000 00EA                bra        +0xEC /* 00002FB8 */
label00002ED0:
00002ED0  4A47                     tst.w      D7
00002ED2  6D1E                     blt        +0x20 /* 00002EF2 */
00002ED4  0C47 003F                cmpi.w     D7, 0x3F /* '?' */
00002ED8  6E18                     bgt        +0x1A /* 00002EF2 */
00002EDA  204D                     movea.l    A0, A5
00002EDC  D1FC FFFE BD42           add.l      A0, 0xFFFEBD42
00002EE2  9D90                     sub.l      [A0], D6
00002EE4  204D                     movea.l    A0, A5
00002EE6  D1FC FFFE BD5A           add.l      A0, 0xFFFEBD5A
00002EEC  DD90                     add.l      [A0], D6
00002EEE  6000 00C8                bra        +0xCA /* 00002FB8 */
label00002EF2:
00002EF2  0C47 0040                cmpi.w     D7, 0x40 /* '@' */
00002EF6  6D14                     blt        +0x16 /* 00002F0C */
00002EF8  0C47 007F                cmpi.w     D7, 0x7F
00002EFC  6E0E                     bgt        +0x10 /* 00002F0C */
00002EFE  204D                     movea.l    A0, A5
00002F00  D1FC FFFE BD2E           add.l      A0, 0xFFFEBD2E
00002F06  9D90                     sub.l      [A0], D6
00002F08  6000 00AE                bra        +0xB0 /* 00002FB8 */
label00002F0C:
00002F0C  0C47 0080                cmpi.w     D7, 0x80
00002F10  6D1E                     blt        +0x20 /* 00002F30 */
00002F12  0C47 009F                cmpi.w     D7, 0x9F
00002F16  6E18                     bgt        +0x1A /* 00002F30 */
00002F18  204D                     movea.l    A0, A5
00002F1A  D1FC FFFE BD3A           add.l      A0, 0xFFFEBD3A
00002F20  9D90                     sub.l      [A0], D6
00002F22  204D                     movea.l    A0, A5
00002F24  D1FC FFFE BD52           add.l      A0, 0xFFFEBD52
00002F2A  DD90                     add.l      [A0], D6
00002F2C  6000 008A                bra        +0x8C /* 00002FB8 */
label00002F30:
00002F30  0C47 00A0                cmpi.w     D7, 0xA0
00002F34  6D06                     blt        +0x8 /* 00002F3C */
00002F36  0C47 00A7                cmpi.w     D7, 0xA7
00002F3A  6F7C                     ble        +0x7E /* 00002FB8 */
label00002F3C:
00002F3C  0C47 00C0                cmpi.w     D7, 0xC0
00002F40  6D12                     blt        +0x14 /* 00002F54 */
00002F42  0C47 00D7                cmpi.w     D7, 0xD7
00002F46  6E0C                     bgt        +0xE /* 00002F54 */
00002F48  204D                     movea.l    A0, A5
00002F4A  D1FC FFFE BD46           add.l      A0, 0xFFFEBD46
00002F50  9D90                     sub.l      [A0], D6
00002F52  6064                     bra        +0x66 /* 00002FB8 */
label00002F54:
00002F54  0C47 00DC                cmpi.w     D7, 0xDC
00002F58  6D12                     blt        +0x14 /* 00002F6C */
00002F5A  0C47 00DF                cmpi.w     D7, 0xDF
00002F5E  6E0C                     bgt        +0xE /* 00002F6C */
00002F60  204D                     movea.l    A0, A5
00002F62  D1FC FFFE BD1E           add.l      A0, 0xFFFEBD1E
00002F68  9D90                     sub.l      [A0], D6
00002F6A  604C                     bra        +0x4E /* 00002FB8 */
label00002F6C:
00002F6C  0C47 03E8                cmpi.w     D7, 0x3E8
00002F70  660C                     bne        +0xE /* 00002F7E */
00002F72  204D                     movea.l    A0, A5
00002F74  D1FC FFFE BD1A           add.l      A0, 0xFFFEBD1A
00002F7A  9D90                     sub.l      [A0], D6
00002F7C  603A                     bra        +0x3C /* 00002FB8 */
label00002F7E:
00002F7E  0C47 05DC                cmpi.w     D7, 0x5DC
00002F82  660C                     bne        +0xE /* 00002F90 */
00002F84  204D                     movea.l    A0, A5
00002F86  D1FC FFFE BD16           add.l      A0, 0xFFFEBD16
00002F8C  9D90                     sub.l      [A0], D6
00002F8E  6028                     bra        +0x2A /* 00002FB8 */
label00002F90:
00002F90  0C47 09C4                cmpi.w     D7, 0x9C4
00002F94  660C                     bne        +0xE /* 00002FA2 */
00002F96  204D                     movea.l    A0, A5
00002F98  D1FC FFFE BD0E           add.l      A0, 0xFFFEBD0E
00002F9E  9D90                     sub.l      [A0], D6
00002FA0  6016                     bra        +0x18 /* 00002FB8 */
label00002FA2:
00002FA2  0C47 00A8                cmpi.w     D7, 0xA8
00002FA6  6D10                     blt        +0x12 /* 00002FB8 */
00002FA8  0C47 00B7                cmpi.w     D7, 0xB7
00002FAC  6E0A                     bgt        +0xC /* 00002FB8 */
00002FAE  204D                     movea.l    A0, A5
00002FB0  D1FC FFFE BD5E           add.l      A0, 0xFFFEBD5E
00002FB6  DD90                     add.l      [A0], D6
label00002FB8:
00002FB8  7000                     moveq.l    D0, 0x00
00002FBA  4CEE 00C0 FFF8           movem.l    D6,D7, [A6 - 0x8]
00002FC0  4E5E                     unlink     A6
00002FC2  4E75                     rts
00002FC4  9369 6E63 7265 6173 6... dc.b       "increasefunds__FsUl"
export_189:
00002FDA  4E56 FFFA                link       A6, -0x0006
00002FDE  48E7 0F18                movem.l    -[A7], D4,D5,D6,D7,A3,A4
00002FE2  382E 0016                move.w     D4, [A6 + 0x16]
00002FE6  3C2E 0012                move.w     D6, [A6 + 0x12]
00002FEA  302E 000E                move.w     D0, [A6 + 0xE]
00002FEE  48C0                     ext.l      D0
00002FF0  2F00                     move.l     -[A7], D0
00002FF2  4EBA 0A6E                jsr        [PC + 0xA6E /* 00003A62 */]
00002FF6  3D40 FFFC                move.w     [A6 - 0x4], D0
00002FFA  48C0                     ext.l      D0
00002FFC  2F00                     move.l     -[A7], D0
00002FFE  302E 000E                move.w     D0, [A6 + 0xE]
00003002  48C0                     ext.l      D0
00003004  2F00                     move.l     -[A7], D0
00003006  4EBA FC42                jsr        [PC - 0x3BE /* 00002C4A */]
0000300A  2A00                     move.l     D5, D0
0000300C  302E FFFC                move.w     D0, [A6 - 0x4]
00003010  48C0                     ext.l      D0
00003012  B085                     cmp.l      D0, D5
00003014  4FEF 000C                lea.l      A7, [A7 + 0xC]
00003018  6600 0198                bne        +0x19A /* 000031B2 */
0000301C  486E FFFF                pea.l      [A6 - 0x1]
00003020  486E FFFE                pea.l      [A6 - 0x2]
00003024  302E 000E                move.w     D0, [A6 + 0xE]
00003028  48C0                     ext.l      D0
0000302A  2F00                     move.l     -[A7], D0
0000302C  4EAD 04FA                jsr        [A5 + 0x4FA /* export_155, CODE:9 @ 0000072C */]
00003030  204D                     movea.l    A0, A5
00003032  D1FC FFFE BECA           add.l      A0, 0xFFFEBECA
00003038  4A10                     tst.b      [A0]
0000303A  4FEF 000C                lea.l      A7, [A7 + 0xC]
0000303E  673E                     beq        +0x40 /* 0000307E */
00003040  3A04                     move.w     D5, D4
00003042  602A                     bra        +0x2C /* 0000306E */
label00003044:
00003044  3E06                     move.w     D7, D6
00003046  6012                     bra        +0x14 /* 0000305A */
label00003048:
00003048  48C5                     ext.l      D5
0000304A  2F05                     move.l     -[A7], D5
0000304C  48C7                     ext.l      D7
0000304E  2F07                     move.l     -[A7], D7
00003050  4EAD 02EA                jsr        [A5 + 0x2EA /* export_89, CODE:3 @ 000061CC */]
00003054  504F                     addq.w     A7, 8
00003056  3007                     move.w     D0, D7
00003058  5247                     addq.w     D7, 1
label0000305A:
0000305A  48C7                     ext.l      D7
0000305C  48C6                     ext.l      D6
0000305E  102E FFFE                move.b     D0, [A6 - 0x2]
00003062  49C0                     lea.l      A4, D0
00003064  D086                     add.l      D0, D6
00003066  B087                     cmp.l      D0, D7
00003068  6EDE                     bgt        -0x20 /* 00003048 */
0000306A  3005                     move.w     D0, D5
0000306C  5245                     addq.w     D5, 1
label0000306E:
0000306E  48C5                     ext.l      D5
00003070  48C4                     ext.l      D4
00003072  102E FFFF                move.b     D0, [A6 - 0x1]
00003076  49C0                     lea.l      A4, D0
00003078  D084                     add.l      D0, D4
0000307A  B085                     cmp.l      D0, D5
0000307C  6EC6                     bgt        -0x38 /* 00003044 */
label0000307E:
0000307E  48C4                     ext.l      D4
00003080  2F04                     move.l     -[A7], D4
00003082  48C6                     ext.l      D6
00003084  2F06                     move.l     -[A7], D6
00003086  7001                     moveq.l    D0, 0x01
00003088  2F00                     move.l     -[A7], D0
0000308A  322E 000E                move.w     D1, [A6 + 0xE]
0000308E  48C1                     ext.l      D1
00003090  2F01                     move.l     -[A7], D1
00003092  4EAD 04F2                jsr        [A5 + 0x4F2 /* export_154, CODE:9 @ 00000442 */]
00003096  3A00                     move.w     D5, D0
00003098  4FEF 0010                lea.l      A7, [A7 + 0x10]
0000309C  6700 00EE                beq        +0xF0 /* 0000318C */
000030A0  7046                     moveq.l    D0, 0x46
000030A2  B06E 000E                cmp.w      D0, [A6 + 0xE]
000030A6  661A                     bne        +0x1C /* 000030C2 */
000030A8  7040                     moveq.l    D0, 0x40
000030AA  2F00                     move.l     -[A7], D0
000030AC  7200                     moveq.l    D1, 0x00
000030AE  1204                     move.b     D1, D4
000030B0  2F01                     move.l     -[A7], D1
000030B2  7200                     moveq.l    D1, 0x00
000030B4  1206                     move.b     D1, D6
000030B6  2F01                     move.l     -[A7], D1
000030B8  4EAD 08B2                jsr        [A5 + 0x8B2 /* export_274, CODE:15 @ 00001E1E */]
000030BC  4FEF 000C                lea.l      A7, [A7 + 0xC]
000030C0  6020                     bra        +0x22 /* 000030E2 */
label000030C2:
000030C2  7047                     moveq.l    D0, 0x47
000030C4  B06E 000E                cmp.w      D0, [A6 + 0xE]
000030C8  6618                     bne        +0x1A /* 000030E2 */
000030CA  7030                     moveq.l    D0, 0x30
000030CC  2F00                     move.l     -[A7], D0
000030CE  7200                     moveq.l    D1, 0x00
000030D0  1204                     move.b     D1, D4
000030D2  2F01                     move.l     -[A7], D1
000030D4  7200                     moveq.l    D1, 0x00
000030D6  1206                     move.b     D1, D6
000030D8  2F01                     move.l     -[A7], D1
000030DA  4EAD 08B2                jsr        [A5 + 0x8B2 /* export_274, CODE:15 @ 00001E1E */]
000030DE  4FEF 000C                lea.l      A7, [A7 + 0xC]
label000030E2:
000030E2  302E 000E                move.w     D0, [A6 + 0xE]
000030E6  48C0                     ext.l      D0
000030E8  2F00                     move.l     -[A7], D0
000030EA  48C5                     ext.l      D5
000030EC  2F05                     move.l     -[A7], D5
000030EE  48C4                     ext.l      D4
000030F0  2F04                     move.l     -[A7], D4
000030F2  48C6                     ext.l      D6
000030F4  2F06                     move.l     -[A7], D6
000030F6  2F2E 0008                move.l     -[A7], [A6 + 0x8]
000030FA  4EBA 0114                jsr        [PC + 0x114 /* 00003210 */]
000030FE  4A40                     tst.w      D0
00003100  4FEF 0014                lea.l      A7, [A7 + 0x14]
00003104  6704                     beq        +0x6 /* 0000310A */
00003106  4A45                     tst.w      D5
00003108  6670                     bne        +0x72 /* 0000317A */
label0000310A:
0000310A  302E 000E                move.w     D0, [A6 + 0xE]
0000310E  48C0                     ext.l      D0
00003110  2F00                     move.l     -[A7], D0
00003112  48C5                     ext.l      D5
00003114  2F05                     move.l     -[A7], D5
00003116  4EAD 04EA                jsr        [A5 + 0x4EA /* export_153, CODE:9 @ 00000000 */]
0000311A  302E FFFC                move.w     D0, [A6 - 0x4]
0000311E  48C0                     ext.l      D0
00003120  2F00                     move.l     -[A7], D0
00003122  302E 000E                move.w     D0, [A6 + 0xE]
00003126  48C0                     ext.l      D0
00003128  2F00                     move.l     -[A7], D0
0000312A  4EBA FD40                jsr        [PC - 0x2C0 /* 00002E6C */]
0000312E  7046                     moveq.l    D0, 0x46
00003130  B06E 000E                cmp.w      D0, [A6 + 0xE]
00003134  4FEF 0010                lea.l      A7, [A7 + 0x10]
00003138  6708                     beq        +0xA /* 00003142 */
0000313A  7047                     moveq.l    D0, 0x47
0000313C  B06E 000E                cmp.w      D0, [A6 + 0xE]
00003140  6624                     bne        +0x26 /* 00003166 */
label00003142:
00003142  1D46 FFFA                move.b     [A6 - 0x6], D6
00003146  1D44 FFFB                move.b     [A6 - 0x5], D4
0000314A  486E FFFB                pea.l      [A6 - 0x5]
0000314E  486E FFFA                pea.l      [A6 - 0x6]
00003152  4EAD 08BA                jsr        [A5 + 0x8BA /* export_275, CODE:15 @ 00001EC2 */]
00003156  7C00                     moveq.l    D6, 0x00
00003158  1C2E FFFA                move.b     D6, [A6 - 0x6]
0000315C  7800                     moveq.l    D4, 0x00
0000315E  182E FFFB                move.b     D4, [A6 - 0x5]
00003162  4A84                     tst.l      D4
00003164  504F                     addq.w     A7, 8
label00003166:
00003166  204D                     movea.l    A0, A5
00003168  D1FC FFFE BC66           add.l      A0, 0xFFFEBC66
0000316E  4850                     pea.l      [A0]
00003170  4EAD 0742                jsr        [A5 + 0x742 /* export_228, CODE:12 @ 000045BA */]
00003174  7000                     moveq.l    D0, 0x00
00003176  584F                     addq.w     A7, 4
00003178  606E                     bra        +0x70 /* 000031E8 */
label0000317A:
0000317A  204D                     movea.l    A0, A5
0000317C  D1FC FFFE BC70           add.l      A0, 0xFFFEBC70
00003182  4850                     pea.l      [A0]
00003184  4EAD 0742                jsr        [A5 + 0x742 /* export_228, CODE:12 @ 000045BA */]
00003188  584F                     addq.w     A7, 4
0000318A  603A                     bra        +0x3C /* 000031C6 */
label0000318C:
0000318C  302E FFFC                move.w     D0, [A6 - 0x4]
00003190  48C0                     ext.l      D0
00003192  2F00                     move.l     -[A7], D0
00003194  7000                     moveq.l    D0, 0x00
00003196  2F00                     move.l     -[A7], D0
00003198  4EBA FCD2                jsr        [PC - 0x32E /* 00002E6C */]
0000319C  204D                     movea.l    A0, A5
0000319E  D1FC FFFE BC7E           add.l      A0, 0xFFFEBC7E
000031A4  4850                     pea.l      [A0]
000031A6  4EAD 0742                jsr        [A5 + 0x742 /* export_228, CODE:12 @ 000045BA */]
000031AA  7000                     moveq.l    D0, 0x00
000031AC  4FEF 000C                lea.l      A7, [A7 + 0xC]
000031B0  6036                     bra        +0x38 /* 000031E8 */
label000031B2:
000031B2  204D                     movea.l    A0, A5
000031B4  D1FC FFFE BC88           add.l      A0, 0xFFFEBC88
000031BA  4850                     pea.l      [A0]
000031BC  4EAD 0742                jsr        [A5 + 0x742 /* export_228, CODE:12 @ 000045BA */]
000031C0  7000                     moveq.l    D0, 0x00
000031C2  584F                     addq.w     A7, 4
000031C4  6022                     bra        +0x24 /* 000031E8 */
label000031C6:
000031C6  224D                     movea.l    A1, A5
000031C8  D3FC FFFF 7868           add.l      A1, 0xFFFF7868
000031CE  2051                     movea.l    A0, [A1]
000031D0  2668 0128                movea.l    A3, [A0 + 0x128]
000031D4  286B 00DC                movea.l    A4, [A3 + 0xDC]
000031D8  4EAD 0312                jsr        [A5 + 0x312 /* export_94, CODE:5 @ 00000362 */]
000031DC  2F2C 016C                move.l     -[A7], [A4 + 0x16C]
000031E0  4EAD 1F52                jsr        [A5 + 0x1F52 /* export_998, CODE:37 @ 000014C8 */]
000031E4  7001                     moveq.l    D0, 0x01
000031E6  584F                     addq.w     A7, 4
label000031E8:
000031E8  4CEE 18F0 FFE2           movem.l    D4,D5,D6,D7,A3,A4, [A6 - 0x1E]
000031EE  4E5E                     unlink     A6
000031F0  4E75                     rts
000031F2  9B62 7579 736F 6D65 7... dc.b       "buysomething__FP6windowsN22"
fn00003210:
00003210  4E56 FFFC                link       A6, -0x0004
00003214  48E7 0F08                movem.l    -[A7], D4,D5,D6,D7,A4
00003218  3A2E 000E                move.w     D5, [A6 + 0xE]
0000321C  4244                     clr.w      D4
0000321E  7001                     moveq.l    D0, 0x01
00003220  2F00                     move.l     -[A7], D0
00003222  2F00                     move.l     -[A7], D0
00003224  322E 0012                move.w     D1, [A6 + 0x12]
00003228  48C1                     ext.l      D1
0000322A  2F01                     move.l     -[A7], D1
0000322C  48C5                     ext.l      D5
0000322E  2F05                     move.l     -[A7], D5
00003230  4EAD 0932                jsr        [A5 + 0x932 /* export_290, CODE:16 @ 00000802 */]
00003234  3C00                     move.w     D6, D0
00003236  4FEF 0010                lea.l      A7, [A7 + 0x10]
0000323A  6700 00EE                beq        +0xF0 /* 0000332A */
0000323E  2006                     move.l     D0, D6
00003240  C1FC 0046                muls.w     D0, 0x46 /* 'F' */
00003244  204D                     movea.l    A0, A5
00003246  D1FC FFFE D880           add.l      A0, 0xFFFED880
0000324C  7200                     moveq.l    D1, 0x00
0000324E  3230 0000                move.w     D1, [A0 + D0.w]
00003252  7046                     moveq.l    D0, 0x46
00003254  B081                     cmp.l      D0, D1
00003256  6700 00D2                beq        +0xD4 /* 0000332A */
0000325A  2006                     move.l     D0, D6
0000325C  C1FC 0046                muls.w     D0, 0x46 /* 'F' */
00003260  204D                     movea.l    A0, A5
00003262  D1FC FFFE D880           add.l      A0, 0xFFFED880
00003268  7200                     moveq.l    D1, 0x00
0000326A  3230 0000                move.w     D1, [A0 + D0.w]
0000326E  7047                     moveq.l    D0, 0x47
00003270  B081                     cmp.l      D0, D1
00003272  6700 00B6                beq        +0xB8 /* 0000332A */
00003276  2006                     move.l     D0, D6
00003278  C1FC 0046                muls.w     D0, 0x46 /* 'F' */
0000327C  204D                     movea.l    A0, A5
0000327E  D1FC FFFE D880           add.l      A0, 0xFFFED880
00003284  7200                     moveq.l    D1, 0x00
00003286  3230 0000                move.w     D1, [A0 + D0.w]
0000328A  7048                     moveq.l    D0, 0x48
0000328C  B081                     cmp.l      D0, D1
0000328E  6700 009A                beq        +0x9C /* 0000332A */
00003292  0C6E 00DC 001A           cmpi.w     [A6 + 0x1A], 0xDC
00003298  6D08                     blt        +0xA /* 000032A2 */
0000329A  0C6E 00DF 001A           cmpi.w     [A6 + 0x1A], 0xDF
000032A0  6F36                     ble        +0x38 /* 000032D8 */
label000032A2:
000032A2  0C6E 00C0 001A           cmpi.w     [A6 + 0x1A], 0xC0
000032A8  6D08                     blt        +0xA /* 000032B2 */
000032AA  0C6E 00D7 001A           cmpi.w     [A6 + 0x1A], 0xD7
000032B0  6F26                     ble        +0x28 /* 000032D8 */
label000032B2:
000032B2  0C6E 00C0 001A           cmpi.w     [A6 + 0x1A], 0xC0
000032B8  6D08                     blt        +0xA /* 000032C2 */
000032BA  0C6E 00D7 001A           cmpi.w     [A6 + 0x1A], 0xD7
000032C0  6F16                     ble        +0x18 /* 000032D8 */
label000032C2:
000032C2  4A6E 001A                tst.w      [A6 + 0x1A]
000032C6  6D08                     blt        +0xA /* 000032D0 */
000032C8  703F                     moveq.l    D0, 0x3F
000032CA  B06E 001A                cmp.w      D0, [A6 + 0x1A]
000032CE  6C08                     bge        +0xA /* 000032D8 */
label000032D0:
000032D0  0C6E 012C 001A           cmpi.w     [A6 + 0x1A], 0x12C
000032D6  6652                     bne        +0x54 /* 0000332A */
label000032D8:
000032D8  486E FFFF                pea.l      [A6 - 0x1]
000032DC  486E FFFE                pea.l      [A6 - 0x2]
000032E0  302E 001A                move.w     D0, [A6 + 0x1A]
000032E4  48C0                     ext.l      D0
000032E6  2F00                     move.l     -[A7], D0
000032E8  4EAD 04FA                jsr        [A5 + 0x4FA /* export_155, CODE:9 @ 0000072C */]
000032EC  2840                     movea.l    A4, D0
000032EE  2F0C                     move.l     -[A7], A4
000032F0  302E 0012                move.w     D0, [A6 + 0x12]
000032F4  48C0                     ext.l      D0
000032F6  2F00                     move.l     -[A7], D0
000032F8  48C5                     ext.l      D5
000032FA  2F05                     move.l     -[A7], D5
000032FC  302E 0016                move.w     D0, [A6 + 0x16]
00003300  48C0                     ext.l      D0
00003302  2F00                     move.l     -[A7], D0
00003304  48C6                     ext.l      D6
00003306  2F06                     move.l     -[A7], D6
00003308  4EAD 094A                jsr        [A5 + 0x94A /* export_293, CODE:16 @ 00000FDC */]
0000330C  4A40                     tst.w      D0
0000330E  4FEF 0020                lea.l      A7, [A7 + 0x20]
00003312  6610                     bne        +0x12 /* 00003324 */
00003314  7041                     moveq.l    D0, 0x41
00003316  2F00                     move.l     -[A7], D0
00003318  4EAD 032A                jsr        [A5 + 0x32A /* export_97, CODE:5 @ 00000560 */]
0000331C  7000                     moveq.l    D0, 0x00
0000331E  584F                     addq.w     A7, 4
00003320  6000 043E                bra        +0x440 /* 00003760 */
label00003324:
00003324  7001                     moveq.l    D0, 0x01
00003326  6000 0438                bra        +0x43A /* 00003760 */
label0000332A:
0000332A  426E FFFC                clr.w      [A6 - 0x4]
0000332E  3C2E 0012                move.w     D6, [A6 + 0x12]
00003332  6000 01C8                bra        +0x1CA /* 000034FC */
label00003336:
00003336  3E05                     move.w     D7, D5
00003338  6000 01A6                bra        +0x1A8 /* 000034E0 */
label0000333C:
0000333C  2007                     move.l     D0, D7
0000333E  C1FC 00C0                muls.w     D0, 0xC0
00003342  204D                     movea.l    A0, A5
00003344  D1FC FFFE 42D4           add.l      A0, 0xFFFE42D4
0000334A  2206                     move.l     D1, D6
0000334C  D241                     add.w      D1, D1
0000334E  D240                     add.w      D1, D0
00003350  7000                     moveq.l    D0, 0x00
00003352  3030 1000                move.w     D0, [A0 + D1.w]
00003356  323C 0800                move.w     D1, 0x800
0000335A  C240                     and.w      D1, D0
0000335C  6706                     beq        +0x8 /* 00003364 */
0000335E  7000                     moveq.l    D0, 0x00
00003360  6000 03FE                bra        +0x400 /* 00003760 */
label00003364:
00003364  2007                     move.l     D0, D7
00003366  C1FC 00C0                muls.w     D0, 0xC0
0000336A  204D                     movea.l    A0, A5
0000336C  D1FC FFFE 42D4           add.l      A0, 0xFFFE42D4
00003372  2206                     move.l     D1, D6
00003374  D241                     add.w      D1, D1
00003376  D240                     add.w      D1, D0
00003378  7000                     moveq.l    D0, 0x00
0000337A  3030 1000                move.w     D0, [A0 + D1.w]
0000337E  323C 07FF                move.w     D1, 0x7FF
00003382  C240                     and.w      D1, D0
00003384  7000                     moveq.l    D0, 0x00
00003386  3001                     move.w     D0, D1
00003388  4A80                     tst.l      D0
0000338A  204D                     movea.l    A0, A5
0000338C  D1FC FFFF 7942           add.l      A0, 0xFFFF7942
00003392  3210                     move.w     D1, [A0]
00003394  48C1                     ext.l      D1
00003396  B280                     cmp.l      D1, D0
00003398  6E46                     bgt        +0x48 /* 000033E0 */
0000339A  2007                     move.l     D0, D7
0000339C  C1FC 00C0                muls.w     D0, 0xC0
000033A0  204D                     movea.l    A0, A5
000033A2  D1FC FFFE 42D4           add.l      A0, 0xFFFE42D4
000033A8  2206                     move.l     D1, D6
000033AA  D241                     add.w      D1, D1
000033AC  D240                     add.w      D1, D0
000033AE  7000                     moveq.l    D0, 0x00
000033B0  3030 1000                move.w     D0, [A0 + D1.w]
000033B4  323C 07FF                move.w     D1, 0x7FF
000033B8  C240                     and.w      D1, D0
000033BA  7000                     moveq.l    D0, 0x00
000033BC  3001                     move.w     D0, D1
000033BE  4A80                     tst.l      D0
000033C0  204D                     movea.l    A0, A5
000033C2  D1FC FFFF 7942           add.l      A0, 0xFFFF7942
000033C8  3210                     move.w     D1, [A0]
000033CA  48C1                     ext.l      D1
000033CC  7400                     moveq.l    D2, 0x00
000033CE  204D                     movea.l    A0, A5
000033D0  D1FC FFFF 78A2           add.l      A0, 0xFFFF78A2
000033D6  1410                     move.b     D2, [A0]
000033D8  D481                     add.l      D2, D1
000033DA  B480                     cmp.l      D2, D0
000033DC  6E00 00FE                bgt        +0x100 /* 000034DC */
label000033E0:
000033E0  2007                     move.l     D0, D7
000033E2  C1FC 00C0                muls.w     D0, 0xC0
000033E6  204D                     movea.l    A0, A5
000033E8  D1FC FFFE 42D4           add.l      A0, 0xFFFE42D4
000033EE  2206                     move.l     D1, D6
000033F0  D241                     add.w      D1, D1
000033F2  D240                     add.w      D1, D0
000033F4  7000                     moveq.l    D0, 0x00
000033F6  3030 1000                move.w     D0, [A0 + D1.w]
000033FA  323C 07FF                move.w     D1, 0x7FF
000033FE  C240                     and.w      D1, D0
00003400  7000                     moveq.l    D0, 0x00
00003402  3001                     move.w     D0, D1
00003404  4A80                     tst.l      D0
00003406  204D                     movea.l    A0, A5
00003408  D1FC FFFF 794A           add.l      A0, 0xFFFF794A
0000340E  3210                     move.w     D1, [A0]
00003410  48C1                     ext.l      D1
00003412  B280                     cmp.l      D1, D0
00003414  6E46                     bgt        +0x48 /* 0000345C */
00003416  2007                     move.l     D0, D7
00003418  C1FC 00C0                muls.w     D0, 0xC0
0000341C  204D                     movea.l    A0, A5
0000341E  D1FC FFFE 42D4           add.l      A0, 0xFFFE42D4
00003424  2206                     move.l     D1, D6
00003426  D241                     add.w      D1, D1
00003428  D240                     add.w      D1, D0
0000342A  7000                     moveq.l    D0, 0x00
0000342C  3030 1000                move.w     D0, [A0 + D1.w]
00003430  323C 07FF                move.w     D1, 0x7FF
00003434  C240                     and.w      D1, D0
00003436  7000                     moveq.l    D0, 0x00
00003438  3001                     move.w     D0, D1
0000343A  4A80                     tst.l      D0
0000343C  204D                     movea.l    A0, A5
0000343E  D1FC FFFF 794A           add.l      A0, 0xFFFF794A
00003444  3210                     move.w     D1, [A0]
00003446  48C1                     ext.l      D1
00003448  7400                     moveq.l    D2, 0x00
0000344A  204D                     movea.l    A0, A5
0000344C  D1FC FFFF 78A6           add.l      A0, 0xFFFF78A6
00003452  1410                     move.b     D2, [A0]
00003454  D481                     add.l      D2, D1
00003456  B480                     cmp.l      D2, D0
00003458  6E00 0082                bgt        +0x84 /* 000034DC */
label0000345C:
0000345C  2007                     move.l     D0, D7
0000345E  C1FC 00C0                muls.w     D0, 0xC0
00003462  204D                     movea.l    A0, A5
00003464  D1FC FFFE 42D4           add.l      A0, 0xFFFE42D4
0000346A  2206                     move.l     D1, D6
0000346C  D241                     add.w      D1, D1
0000346E  D240                     add.w      D1, D0
00003470  7000                     moveq.l    D0, 0x00
00003472  3030 1000                move.w     D0, [A0 + D1.w]
00003476  323C 07FF                move.w     D1, 0x7FF
0000347A  C240                     and.w      D1, D0
0000347C  7000                     moveq.l    D0, 0x00
0000347E  3001                     move.w     D0, D1
00003480  4A80                     tst.l      D0
00003482  204D                     movea.l    A0, A5
00003484  D1FC FFFF 794C           add.l      A0, 0xFFFF794C
0000348A  3210                     move.w     D1, [A0]
0000348C  48C1                     ext.l      D1
0000348E  B280                     cmp.l      D1, D0
00003490  6E44                     bgt        +0x46 /* 000034D6 */
00003492  2007                     move.l     D0, D7
00003494  C1FC 00C0                muls.w     D0, 0xC0
00003498  204D                     movea.l    A0, A5
0000349A  D1FC FFFE 42D4           add.l      A0, 0xFFFE42D4
000034A0  2206                     move.l     D1, D6
000034A2  D241                     add.w      D1, D1
000034A4  D240                     add.w      D1, D0
000034A6  7000                     moveq.l    D0, 0x00
000034A8  3030 1000                move.w     D0, [A0 + D1.w]
000034AC  323C 07FF                move.w     D1, 0x7FF
000034B0  C240                     and.w      D1, D0
000034B2  7000                     moveq.l    D0, 0x00
000034B4  3001                     move.w     D0, D1
000034B6  4A80                     tst.l      D0
000034B8  204D                     movea.l    A0, A5
000034BA  D1FC FFFF 794C           add.l      A0, 0xFFFF794C
000034C0  3210                     move.w     D1, [A0]
000034C2  48C1                     ext.l      D1
000034C4  7400                     moveq.l    D2, 0x00
000034C6  204D                     movea.l    A0, A5
000034C8  D1FC FFFF 78A7           add.l      A0, 0xFFFF78A7
000034CE  1410                     move.b     D2, [A0]
000034D0  D481                     add.l      D2, D1
000034D2  B480                     cmp.l      D2, D0
000034D4  6E06                     bgt        +0x8 /* 000034DC */
label000034D6:
000034D6  7000                     moveq.l    D0, 0x00
000034D8  6000 0286                bra        +0x288 /* 00003760 */
label000034DC:
000034DC  3007                     move.w     D0, D7
000034DE  5247                     addq.w     D7, 1
label000034E0:
000034E0  48C7                     ext.l      D7
000034E2  48C5                     ext.l      D5
000034E4  204D                     movea.l    A0, A5
000034E6  D1FC FFFE 8AD6           add.l      A0, 0xFFFE8AD6
000034EC  3010                     move.w     D0, [A0]
000034EE  48C0                     ext.l      D0
000034F0  D085                     add.l      D0, D5
000034F2  B087                     cmp.l      D0, D7
000034F4  6E00 FE46                bgt        -0x1B8 /* 0000333C */
000034F8  3006                     move.w     D0, D6
000034FA  5246                     addq.w     D6, 1
label000034FC:
000034FC  48C6                     ext.l      D6
000034FE  302E 0012                move.w     D0, [A6 + 0x12]
00003502  48C0                     ext.l      D0
00003504  204D                     movea.l    A0, A5
00003506  D1FC FFFE 8AD4           add.l      A0, 0xFFFE8AD4
0000350C  3210                     move.w     D1, [A0]
0000350E  48C1                     ext.l      D1
00003510  D280                     add.l      D1, D0
00003512  B286                     cmp.l      D1, D6
00003514  6E00 FE20                bgt        -0x1DE /* 00003336 */
00003518  2005                     move.l     D0, D5
0000351A  C1FC 00C0                muls.w     D0, 0xC0
0000351E  204D                     movea.l    A0, A5
00003520  D1FC FFFD FAD4           add.l      A0, 0xFFFDFAD4
00003526  322E 0012                move.w     D1, [A6 + 0x12]
0000352A  D241                     add.w      D1, D1
0000352C  D240                     add.w      D1, D0
0000352E  7000                     moveq.l    D0, 0x00
00003530  3030 1000                move.w     D0, [A0 + D1.w]
00003534  323C 0800                move.w     D1, 0x800
00003538  C240                     and.w      D1, D0
0000353A  660E                     bne        +0x10 /* 0000354A */
0000353C  7046                     moveq.l    D0, 0x46
0000353E  B06E 001A                cmp.w      D0, [A6 + 0x1A]
00003542  6706                     beq        +0x8 /* 0000354A */
00003544  7000                     moveq.l    D0, 0x00
00003546  6000 0218                bra        +0x21A /* 00003760 */
label0000354A:
0000354A  0C6E 00DC 001A           cmpi.w     [A6 + 0x1A], 0xDC
00003550  6D08                     blt        +0xA /* 0000355A */
00003552  0C6E 00DF 001A           cmpi.w     [A6 + 0x1A], 0xDF
00003558  6F20                     ble        +0x22 /* 0000357A */
label0000355A:
0000355A  0C6E 00C0 001A           cmpi.w     [A6 + 0x1A], 0xC0
00003560  6D08                     blt        +0xA /* 0000356A */
00003562  0C6E 00D7 001A           cmpi.w     [A6 + 0x1A], 0xD7
00003568  6F10                     ble        +0x12 /* 0000357A */
label0000356A:
0000356A  0C6E 00C0 001A           cmpi.w     [A6 + 0x1A], 0xC0
00003570  6D18                     blt        +0x1A /* 0000358A */
00003572  0C6E 00D7 001A           cmpi.w     [A6 + 0x1A], 0xD7
00003578  6E10                     bgt        +0x12 /* 0000358A */
label0000357A:
0000357A  7045                     moveq.l    D0, 0x45
0000357C  2F00                     move.l     -[A7], D0
0000357E  4EAD 032A                jsr        [A5 + 0x32A /* export_97, CODE:5 @ 00000560 */]
00003582  7000                     moveq.l    D0, 0x00
00003584  584F                     addq.w     A7, 4
00003586  6000 01D8                bra        +0x1DA /* 00003760 */
label0000358A:
0000358A  3C2E 0012                move.w     D6, [A6 + 0x12]
0000358E  6000 01B2                bra        +0x1B4 /* 00003742 */
label00003592:
00003592  3E05                     move.w     D7, D5
00003594  6000 0190                bra        +0x192 /* 00003726 */
label00003598:
00003598  204D                     movea.l    A0, A5
0000359A  D1FC FFFE 8AE2           add.l      A0, 0xFFFE8AE2
000035A0  0C50 0350                cmpi.w     [A0], 0x350
000035A4  6C00 00DA                bge        +0xDC /* 00003680 */
000035A8  204D                     movea.l    A0, A5
000035AA  D1FC FFFE 8AE2           add.l      A0, 0xFFFE8AE2
000035B0  3010                     move.w     D0, [A0]
000035B2  204D                     movea.l    A0, A5
000035B4  D1FC FFFF 79BE           add.l      A0, 0xFFFF79BE
000035BA  B050                     cmp.w      D0, [A0]
000035BC  6662                     bne        +0x64 /* 00003620 */
000035BE  558F                     subq.l     A7, 2
000035C0  A861                     syscall    Random
000035C2  700F                     moveq.l    D0, 0x0F
000035C4  C05F                     and.w      D0, [A7]+
000035C6  3800                     move.w     D4, D0
000035C8  204D                     movea.l    A0, A5
000035CA  D1FC FFFE 8AE2           add.l      A0, 0xFFFE8AE2
000035D0  D850                     add.w      D4, [A0]
000035D2  2007                     move.l     D0, D7
000035D4  C1FC 00C0                muls.w     D0, 0xC0
000035D8  204D                     movea.l    A0, A5
000035DA  D1FC FFFE 42D4           add.l      A0, 0xFFFE42D4
000035E0  2206                     move.l     D1, D6
000035E2  D241                     add.w      D1, D1
000035E4  D240                     add.w      D1, D0
000035E6  7000                     moveq.l    D0, 0x00
000035E8  3030 1000                move.w     D0, [A0 + D1.w]
000035EC  323C F800                move.w     D1, 0xF800
000035F0  C240                     and.w      D1, D0
000035F2  7000                     moveq.l    D0, 0x00
000035F4  3001                     move.w     D0, D1
000035F6  48C4                     ext.l      D4
000035F8  2204                     move.l     D1, D4
000035FA  8280                     or.l       D1, D0
000035FC  203C FFFF BFFF           move.l     D0, 0xFFFFBFFF
00003602  C081                     and.l      D0, D1
00003604  2207                     move.l     D1, D7
00003606  C3FC 00C0                muls.w     D1, 0xC0
0000360A  204D                     movea.l    A0, A5
0000360C  D1FC FFFE 42D4           add.l      A0, 0xFFFE42D4
00003612  2406                     move.l     D2, D6
00003614  D442                     add.w      D2, D2
00003616  D441                     add.w      D2, D1
00003618  3180 2000                move.w     [A0 + D2.w], D0
0000361C  6000 0100                bra        +0x102 /* 0000371E */
label00003620:
00003620  2007                     move.l     D0, D7
00003622  C1FC 00C0                muls.w     D0, 0xC0
00003626  204D                     movea.l    A0, A5
00003628  D1FC FFFE 42D4           add.l      A0, 0xFFFE42D4
0000362E  2206                     move.l     D1, D6
00003630  D241                     add.w      D1, D1
00003632  D240                     add.w      D1, D0
00003634  7000                     moveq.l    D0, 0x00
00003636  3030 1000                move.w     D0, [A0 + D1.w]
0000363A  323C F800                move.w     D1, 0xF800
0000363E  C240                     and.w      D1, D0
00003640  7000                     moveq.l    D0, 0x00
00003642  3001                     move.w     D0, D1
00003644  4A80                     tst.l      D0
00003646  204D                     movea.l    A0, A5
00003648  D1FC FFFE 8AE2           add.l      A0, 0xFFFE8AE2
0000364E  3210                     move.w     D1, [A0]
00003650  48C1                     ext.l      D1
00003652  342E FFFC                move.w     D2, [A6 - 0x4]
00003656  48C2                     ext.l      D2
00003658  D481                     add.l      D2, D1
0000365A  8480                     or.l       D2, D0
0000365C  203C FFFF BFFF           move.l     D0, 0xFFFFBFFF
00003662  C082                     and.l      D0, D2
00003664  2207                     move.l     D1, D7
00003666  C3FC 00C0                muls.w     D1, 0xC0
0000366A  204D                     movea.l    A0, A5
0000366C  D1FC FFFE 42D4           add.l      A0, 0xFFFE42D4
00003672  2406                     move.l     D2, D6
00003674  D442                     add.w      D2, D2
00003676  D441                     add.w      D2, D1
00003678  3180 2000                move.w     [A0 + D2.w], D0
0000367C  6000 00A0                bra        +0xA2 /* 0000371E */
label00003680:
00003680  2007                     move.l     D0, D7
00003682  C1FC 00C0                muls.w     D0, 0xC0
00003686  204D                     movea.l    A0, A5
00003688  D1FC FFFE 42D4           add.l      A0, 0xFFFE42D4
0000368E  2206                     move.l     D1, D6
00003690  D241                     add.w      D1, D1
00003692  D240                     add.w      D1, D0
00003694  0070 0800 1000           ori.w      [A0 + D1.w], 0x800
0000369A  2007                     move.l     D0, D7
0000369C  C1FC 00C0                muls.w     D0, 0xC0
000036A0  204D                     movea.l    A0, A5
000036A2  D1FC FFFE 42D4           add.l      A0, 0xFFFE42D4
000036A8  2206                     move.l     D1, D6
000036AA  D241                     add.w      D1, D1
000036AC  D240                     add.w      D1, D0
000036AE  0270 BFFF 1000           andi.w     [A0 + D1.w], 0xBFFF
000036B4  382E FFFC                move.w     D4, [A6 - 0x4]
000036B8  204D                     movea.l    A0, A5
000036BA  D1FC FFFE 8AE2           add.l      A0, 0xFFFE8AE2
000036C0  D850                     add.w      D4, [A0]
000036C2  2007                     move.l     D0, D7
000036C4  C1FC 00C0                muls.w     D0, 0xC0
000036C8  204D                     movea.l    A0, A5
000036CA  D1FC FFFD FAD4           add.l      A0, 0xFFFDFAD4
000036D0  2206                     move.l     D1, D6
000036D2  D241                     add.w      D1, D1
000036D4  D240                     add.w      D1, D0
000036D6  7000                     moveq.l    D0, 0x00
000036D8  3030 1000                move.w     D0, [A0 + D1.w]
000036DC  323C F800                move.w     D1, 0xF800
000036E0  C240                     and.w      D1, D0
000036E2  7000                     moveq.l    D0, 0x00
000036E4  3001                     move.w     D0, D1
000036E6  48C4                     ext.l      D4
000036E8  2204                     move.l     D1, D4
000036EA  8280                     or.l       D1, D0
000036EC  2007                     move.l     D0, D7
000036EE  C1FC 00C0                muls.w     D0, 0xC0
000036F2  204D                     movea.l    A0, A5
000036F4  D1FC FFFD FAD4           add.l      A0, 0xFFFDFAD4
000036FA  2406                     move.l     D2, D6
000036FC  D442                     add.w      D2, D2
000036FE  D440                     add.w      D2, D0
00003700  3181 2000                move.w     [A0 + D2.w], D1
00003704  2007                     move.l     D0, D7
00003706  C1FC 00C0                muls.w     D0, 0xC0
0000370A  204D                     movea.l    A0, A5
0000370C  D1FC FFFE 42D4           add.l      A0, 0xFFFE42D4
00003712  2206                     move.l     D1, D6
00003714  D241                     add.w      D1, D1
00003716  D240                     add.w      D1, D0
00003718  0270 BFFF 1000           andi.w     [A0 + D1.w], 0xBFFF
label0000371E:
0000371E  526E FFFC                addq.w     [A6 - 0x4], 1
00003722  3007                     move.w     D0, D7
00003724  5247                     addq.w     D7, 1
label00003726:
00003726  48C7                     ext.l      D7
00003728  48C5                     ext.l      D5
0000372A  204D                     movea.l    A0, A5
0000372C  D1FC FFFE 8AD6           add.l      A0, 0xFFFE8AD6
00003732  3010                     move.w     D0, [A0]
00003734  48C0                     ext.l      D0
00003736  D085                     add.l      D0, D5
00003738  B087                     cmp.l      D0, D7
0000373A  6E00 FE5C                bgt        -0x1A2 /* 00003598 */
0000373E  3006                     move.w     D0, D6
00003740  5246                     addq.w     D6, 1
label00003742:
00003742  48C6                     ext.l      D6
00003744  302E 0012                move.w     D0, [A6 + 0x12]
00003748  48C0                     ext.l      D0
0000374A  204D                     movea.l    A0, A5
0000374C  D1FC FFFE 8AD4           add.l      A0, 0xFFFE8AD4
00003752  3210                     move.w     D1, [A0]
00003754  48C1                     ext.l      D1
00003756  D280                     add.l      D1, D0
00003758  B286                     cmp.l      D1, D6
0000375A  6E00 FE36                bgt        -0x1C8 /* 00003592 */
0000375E  7001                     moveq.l    D0, 0x01
label00003760:
00003760  4CEE 10F0 FFE8           movem.l    D4,D5,D6,D7,A4, [A6 - 0x18]
00003766  4E5E                     unlink     A6
00003768  4E75                     rts
0000376A  9C70 7574 646F 776E 6... dc.b       "putdownobject__FP6windowsN32"
export_190:
0000378A  4E56 FFF8                link       A6, -0x0008
0000378E  48E7 0F08                movem.l    -[A7], D4,D5,D6,D7,A4
00003792  3C2E 0012                move.w     D6, [A6 + 0x12]
00003796  3A2E 000A                move.w     D5, [A6 + 0xA]
0000379A  4204                     clr.b      D4
0000379C  4247                     clr.w      D7
0000379E  7001                     moveq.l    D0, 0x01
000037A0  2F00                     move.l     -[A7], D0
000037A2  2F00                     move.l     -[A7], D0
000037A4  322E 000E                move.w     D1, [A6 + 0xE]
000037A8  48C1                     ext.l      D1
000037AA  2F01                     move.l     -[A7], D1
000037AC  48C5                     ext.l      D5
000037AE  2F05                     move.l     -[A7], D5
000037B0  4EAD 0932                jsr        [A5 + 0x932 /* export_290, CODE:16 @ 00000802 */]
000037B4  3E00                     move.w     D7, D0
000037B6  4FEF 0010                lea.l      A7, [A7 + 0x10]
000037BA  671E                     beq        +0x20 /* 000037DA */
000037BC  302E 000E                move.w     D0, [A6 + 0xE]
000037C0  48C0                     ext.l      D0
000037C2  2F00                     move.l     -[A7], D0
000037C4  48C5                     ext.l      D5
000037C6  2F05                     move.l     -[A7], D5
000037C8  48C7                     ext.l      D7
000037CA  2F07                     move.l     -[A7], D7
000037CC  4EAD 0952                jsr        [A5 + 0x952 /* export_294, CODE:16 @ 00001AD8 */]
000037D0  7001                     moveq.l    D0, 0x01
000037D2  4FEF 000C                lea.l      A7, [A7 + 0xC]
000037D6  6000 026A                bra        +0x26C /* 00003A42 */
label000037DA:
000037DA  0C46 0008                cmpi.w     D6, 0x8
000037DE  661C                     bne        +0x1E /* 000037FC */
000037E0  4204                     clr.b      D4
000037E2  486E FFFF                pea.l      [A6 - 0x1]
000037E6  486E FFFE                pea.l      [A6 - 0x2]
000037EA  48C6                     ext.l      D6
000037EC  2F06                     move.l     -[A7], D6
000037EE  4EAD 04FA                jsr        [A5 + 0x4FA /* export_155, CODE:9 @ 0000072C */]
000037F2  2840                     movea.l    A4, D0
000037F4  4FEF 000C                lea.l      A7, [A7 + 0xC]
000037F8  6000 0142                bra        +0x144 /* 0000393C */
label000037FC:
000037FC  4A46                     tst.w      D6
000037FE  6D56                     blt        +0x58 /* 00003856 */
00003800  0C46 003F                cmpi.w     D6, 0x3F /* '?' */
00003804  6E50                     bgt        +0x52 /* 00003856 */
00003806  486E FFFF                pea.l      [A6 - 0x1]
0000380A  486E FFFE                pea.l      [A6 - 0x2]
0000380E  48C6                     ext.l      D6
00003810  2F06                     move.l     -[A7], D6
00003812  4EAD 04FA                jsr        [A5 + 0x4FA /* export_155, CODE:9 @ 0000072C */]
00003816  2840                     movea.l    A4, D0
00003818  102E FFFE                move.b     D0, [A6 - 0x2]
0000381C  4880                     ext.w      D0
0000381E  3D40 FFF8                move.w     [A6 - 0x8], D0
00003822  102E FFFF                move.b     D0, [A6 - 0x1]
00003826  4880                     ext.w      D0
00003828  3D40 FFFA                move.w     [A6 - 0x6], D0
0000382C  486E FFFA                pea.l      [A6 - 0x6]
00003830  486E FFF8                pea.l      [A6 - 0x8]
00003834  302E 0016                move.w     D0, [A6 + 0x16]
00003838  48C0                     ext.l      D0
0000383A  2F00                     move.l     -[A7], D0
0000383C  4EBA E7BA                jsr        [PC - 0x1846 /* 00001FF8 */]
00003840  1D6E FFF9 FFFE           move.b     [A6 - 0x2], [A6 - 0x7]
00003846  1D6E FFFB FFFF           move.b     [A6 - 0x1], [A6 - 0x5]
0000384C  7801                     moveq.l    D4, 0x01
0000384E  4FEF 0018                lea.l      A7, [A7 + 0x18]
00003852  6000 00E8                bra        +0xEA /* 0000393C */
label00003856:
00003856  0C46 0040                cmpi.w     D6, 0x40 /* '@' */
0000385A  6D22                     blt        +0x24 /* 0000387E */
0000385C  0C46 007F                cmpi.w     D6, 0x7F
00003860  6E1C                     bgt        +0x1E /* 0000387E */
00003862  4204                     clr.b      D4
00003864  486E FFFF                pea.l      [A6 - 0x1]
00003868  486E FFFE                pea.l      [A6 - 0x2]
0000386C  48C6                     ext.l      D6
0000386E  2F06                     move.l     -[A7], D6
00003870  4EAD 04FA                jsr        [A5 + 0x4FA /* export_155, CODE:9 @ 0000072C */]
00003874  2840                     movea.l    A4, D0
00003876  4FEF 000C                lea.l      A7, [A7 + 0xC]
0000387A  6000 00C0                bra        +0xC2 /* 0000393C */
label0000387E:
0000387E  0C46 00A0                cmpi.w     D6, 0xA0
00003882  6D22                     blt        +0x24 /* 000038A6 */
00003884  0C46 00A7                cmpi.w     D6, 0xA7
00003888  6E1C                     bgt        +0x1E /* 000038A6 */
0000388A  7801                     moveq.l    D4, 0x01
0000388C  486E FFFF                pea.l      [A6 - 0x1]
00003890  486E FFFE                pea.l      [A6 - 0x2]
00003894  48C6                     ext.l      D6
00003896  2F06                     move.l     -[A7], D6
00003898  4EAD 04FA                jsr        [A5 + 0x4FA /* export_155, CODE:9 @ 0000072C */]
0000389C  2840                     movea.l    A4, D0
0000389E  4FEF 000C                lea.l      A7, [A7 + 0xC]
000038A2  6000 0098                bra        +0x9A /* 0000393C */
label000038A6:
000038A6  0C46 00C0                cmpi.w     D6, 0xC0
000038AA  6D20                     blt        +0x22 /* 000038CC */
000038AC  0C46 00D7                cmpi.w     D6, 0xD7
000038B0  6E1A                     bgt        +0x1C /* 000038CC */
000038B2  4204                     clr.b      D4
000038B4  486E FFFF                pea.l      [A6 - 0x1]
000038B8  486E FFFE                pea.l      [A6 - 0x2]
000038BC  48C6                     ext.l      D6
000038BE  2F06                     move.l     -[A7], D6
000038C0  4EAD 04FA                jsr        [A5 + 0x4FA /* export_155, CODE:9 @ 0000072C */]
000038C4  2840                     movea.l    A4, D0
000038C6  4FEF 000C                lea.l      A7, [A7 + 0xC]
000038CA  6070                     bra        +0x72 /* 0000393C */
label000038CC:
000038CC  0C46 00DC                cmpi.w     D6, 0xDC
000038D0  6D20                     blt        +0x22 /* 000038F2 */
000038D2  0C46 00DF                cmpi.w     D6, 0xDF
000038D6  6E1A                     bgt        +0x1C /* 000038F2 */
000038D8  7801                     moveq.l    D4, 0x01
000038DA  486E FFFF                pea.l      [A6 - 0x1]
000038DE  486E FFFE                pea.l      [A6 - 0x2]
000038E2  48C6                     ext.l      D6
000038E4  2F06                     move.l     -[A7], D6
000038E6  4EAD 04FA                jsr        [A5 + 0x4FA /* export_155, CODE:9 @ 0000072C */]
000038EA  2840                     movea.l    A4, D0
000038EC  4FEF 000C                lea.l      A7, [A7 + 0xC]
000038F0  604A                     bra        +0x4C /* 0000393C */
label000038F2:
000038F2  0C46 0120                cmpi.w     D6, 0x120
000038F6  6D20                     blt        +0x22 /* 00003918 */
000038F8  0C46 015F                cmpi.w     D6, 0x15F
000038FC  6E1A                     bgt        +0x1C /* 00003918 */
000038FE  4204                     clr.b      D4
00003900  486E FFFF                pea.l      [A6 - 0x1]
00003904  486E FFFE                pea.l      [A6 - 0x2]
00003908  48C6                     ext.l      D6
0000390A  2F06                     move.l     -[A7], D6
0000390C  4EAD 04FA                jsr        [A5 + 0x4FA /* export_155, CODE:9 @ 0000072C */]
00003910  2840                     movea.l    A4, D0
00003912  4FEF 000C                lea.l      A7, [A7 + 0xC]
00003916  6024                     bra        +0x26 /* 0000393C */
label00003918:
00003918  0C46 00A8                cmpi.w     D6, 0xA8
0000391C  6D1E                     blt        +0x20 /* 0000393C */
0000391E  0C46 00BF                cmpi.w     D6, 0xBF
00003922  6E18                     bgt        +0x1A /* 0000393C */
00003924  4204                     clr.b      D4
00003926  486E FFFF                pea.l      [A6 - 0x1]
0000392A  486E FFFE                pea.l      [A6 - 0x2]
0000392E  48C6                     ext.l      D6
00003930  2F06                     move.l     -[A7], D6
00003932  4EAD 04FA                jsr        [A5 + 0x4FA /* export_155, CODE:9 @ 0000072C */]
00003936  2840                     movea.l    A4, D0
00003938  4FEF 000C                lea.l      A7, [A7 + 0xC]
label0000393C:
0000393C  426E FFFC                clr.w      [A6 - 0x4]
00003940  3C2E 000E                move.w     D6, [A6 + 0xE]
00003944  6000 00E4                bra        +0xE6 /* 00003A2A */
label00003948:
00003948  3E05                     move.w     D7, D5
0000394A  6000 00C8                bra        +0xCA /* 00003A14 */
label0000394E:
0000394E  4A04                     tst.b      D4
00003950  6738                     beq        +0x3A /* 0000398A */
00003952  2007                     move.l     D0, D7
00003954  C1FC 00C0                muls.w     D0, 0xC0
00003958  204D                     movea.l    A0, A5
0000395A  D1FC FFFE 42D4           add.l      A0, 0xFFFE42D4
00003960  2206                     move.l     D1, D6
00003962  D241                     add.w      D1, D1
00003964  D240                     add.w      D1, D0
00003966  0270 F7FF 1000           andi.w     [A0 + D1.w], 0xF7FF
0000396C  2007                     move.l     D0, D7
0000396E  C1FC 00C0                muls.w     D0, 0xC0
00003972  204D                     movea.l    A0, A5
00003974  D1FC FFFE 42D4           add.l      A0, 0xFFFE42D4
0000397A  2206                     move.l     D1, D6
0000397C  D241                     add.w      D1, D1
0000397E  D240                     add.w      D1, D0
00003980  0270 BFFF 1000           andi.w     [A0 + D1.w], 0xBFFF
00003986  6000 0084                bra        +0x86 /* 00003A0C */
label0000398A:
0000398A  2007                     move.l     D0, D7
0000398C  C1FC 00C0                muls.w     D0, 0xC0
00003990  204D                     movea.l    A0, A5
00003992  D1FC FFFE 42D4           add.l      A0, 0xFFFE42D4
00003998  2206                     move.l     D1, D6
0000399A  D241                     add.w      D1, D1
0000399C  D240                     add.w      D1, D0
0000399E  7000                     moveq.l    D0, 0x00
000039A0  3030 1000                move.w     D0, [A0 + D1.w]
000039A4  323C F800                move.w     D1, 0xF800
000039A8  C240                     and.w      D1, D0
000039AA  7000                     moveq.l    D0, 0x00
000039AC  3001                     move.w     D0, D1
000039AE  2207                     move.l     D1, D7
000039B0  C3FC 0060                muls.w     D1, 0x60 /* '`' */
000039B4  204D                     movea.l    A0, A5
000039B6  D1FC FFFD D6D4           add.l      A0, 0xFFFDD6D4
000039BC  2406                     move.l     D2, D6
000039BE  D441                     add.w      D2, D1
000039C0  1430 2000                move.b     D2, [A0 + D2.w]
000039C4  E40A                     lsr        D2.b, 2
000039C6  7200                     moveq.l    D1, 0x00
000039C8  1202                     move.b     D1, D2
000039CA  4A81                     tst.l      D1
000039CC  204D                     movea.l    A0, A5
000039CE  D1FC FFFE 8AEC           add.l      A0, 0xFFFE8AEC
000039D4  1410                     move.b     D2, [A0]
000039D6  4882                     ext.w      D2
000039D8  D441                     add.w      D2, D1
000039DA  48C2                     ext.l      D2
000039DC  204D                     movea.l    A0, A5
000039DE  D1FC FFFF 7942           add.l      A0, 0xFFFF7942
000039E4  3210                     move.w     D1, [A0]
000039E6  48C1                     ext.l      D1
000039E8  D282                     add.l      D1, D2
000039EA  8280                     or.l       D1, D0
000039EC  203C FFFF BFFF           move.l     D0, 0xFFFFBFFF
000039F2  C081                     and.l      D0, D1
000039F4  2207                     move.l     D1, D7
000039F6  C3FC 00C0                muls.w     D1, 0xC0
000039FA  204D                     movea.l    A0, A5
000039FC  D1FC FFFE 42D4           add.l      A0, 0xFFFE42D4
00003A02  2406                     move.l     D2, D6
00003A04  D442                     add.w      D2, D2
00003A06  D441                     add.w      D2, D1
00003A08  3180 2000                move.w     [A0 + D2.w], D0
label00003A0C:
00003A0C  526E FFFC                addq.w     [A6 - 0x4], 1
00003A10  3007                     move.w     D0, D7
00003A12  5247                     addq.w     D7, 1
label00003A14:
00003A14  48C7                     ext.l      D7
00003A16  48C5                     ext.l      D5
00003A18  102E FFFE                move.b     D0, [A6 - 0x2]
00003A1C  49C0                     lea.l      A4, D0
00003A1E  D085                     add.l      D0, D5
00003A20  B087                     cmp.l      D0, D7
00003A22  6E00 FF2A                bgt        -0xD4 /* 0000394E */
00003A26  3006                     move.w     D0, D6
00003A28  5246                     addq.w     D6, 1
label00003A2A:
00003A2A  48C6                     ext.l      D6
00003A2C  302E 000E                move.w     D0, [A6 + 0xE]
00003A30  48C0                     ext.l      D0
00003A32  122E FFFF                move.b     D1, [A6 - 0x1]
00003A36  49C1                     lea.l      A4, D1
00003A38  D280                     add.l      D1, D0
00003A3A  B286                     cmp.l      D1, D6
00003A3C  6E00 FF0A                bgt        -0xF4 /* 00003948 */
00003A40  7001                     moveq.l    D0, 0x01
label00003A42:
00003A42  4CEE 10F0 FFE4           movem.l    D4,D5,D6,D7,A4, [A6 - 0x1C]
00003A48  4E5E                     unlink     A6
00003A4A  4E75                     rts
00003A4C  9265 7261 7365 6F62 6... dc.b       "eraseobject__FsN31"
export_191:
fn00003A62:
00003A62  4E56 0000                link       A6, 0
00003A66  2F07                     move.l     -[A7], D7
00003A68  3E2E 000A                move.w     D7, [A6 + 0xA]
00003A6C  6D1C                     blt        +0x1E /* 00003A8A */
00003A6E  0C47 003F                cmpi.w     D7, 0x3F /* '?' */
00003A72  6E16                     bgt        +0x18 /* 00003A8A */
00003A74  2007                     move.l     D0, D7
00003A76  C1FC 0012                muls.w     D0, 0x12
00003A7A  204D                     movea.l    A0, A5
00003A7C  D1FC FFFE 9EB0           add.l      A0, 0xFFFE9EB0
00003A82  3030 0006                move.w     D0, [A0 + D0.w + 0x6]
00003A86  6000 0140                bra        +0x142 /* 00003BC8 */
label00003A8A:
00003A8A  0C47 0040                cmpi.w     D7, 0x40 /* '@' */
00003A8E  6D1E                     blt        +0x20 /* 00003AAE */
00003A90  0C47 007F                cmpi.w     D7, 0x7F
00003A94  6E18                     bgt        +0x1A /* 00003AAE */
00003A96  48C7                     ext.l      D7
00003A98  2007                     move.l     D0, D7
00003A9A  C1FC 0012                muls.w     D0, 0x12
00003A9E  204D                     movea.l    A0, A5
00003AA0  D1FC FFFE 998E           add.l      A0, 0xFFFE998E
00003AA6  3030 0006                move.w     D0, [A0 + D0.w + 0x6]
00003AAA  6000 011C                bra        +0x11E /* 00003BC8 */
label00003AAE:
00003AAE  0C47 00A0                cmpi.w     D7, 0xA0
00003AB2  6D1E                     blt        +0x20 /* 00003AD2 */
00003AB4  0C47 00A7                cmpi.w     D7, 0xA7
00003AB8  6E18                     bgt        +0x1A /* 00003AD2 */
00003ABA  48C7                     ext.l      D7
00003ABC  2007                     move.l     D0, D7
00003ABE  C1FC 0012                muls.w     D0, 0x12
00003AC2  204D                     movea.l    A0, A5
00003AC4  D1FC FFFE 90C4           add.l      A0, 0xFFFE90C4
00003ACA  3030 0006                move.w     D0, [A0 + D0.w + 0x6]
00003ACE  6000 00F8                bra        +0xFA /* 00003BC8 */
label00003AD2:
00003AD2  0C47 0080                cmpi.w     D7, 0x80
00003AD6  6D1E                     blt        +0x20 /* 00003AF6 */
00003AD8  0C47 009F                cmpi.w     D7, 0x9F
00003ADC  6E18                     bgt        +0x1A /* 00003AF6 */
00003ADE  48C7                     ext.l      D7
00003AE0  2007                     move.l     D0, D7
00003AE2  C1FC 0012                muls.w     D0, 0x12
00003AE6  204D                     movea.l    A0, A5
00003AE8  D1FC FFFE 935E           add.l      A0, 0xFFFE935E
00003AEE  3030 0006                move.w     D0, [A0 + D0.w + 0x6]
00003AF2  6000 00D4                bra        +0xD6 /* 00003BC8 */
label00003AF6:
00003AF6  0C47 00C0                cmpi.w     D7, 0xC0
00003AFA  6D1E                     blt        +0x20 /* 00003B1A */
00003AFC  0C47 00D7                cmpi.w     D7, 0xD7
00003B00  6E18                     bgt        +0x1A /* 00003B1A */
00003B02  48C7                     ext.l      D7
00003B04  2007                     move.l     D0, D7
00003B06  C1FC 0012                muls.w     D0, 0x12
00003B0A  204D                     movea.l    A0, A5
00003B0C  D1FC FFFE 8C44           add.l      A0, 0xFFFE8C44
00003B12  3030 0006                move.w     D0, [A0 + D0.w + 0x6]
00003B16  6000 00B0                bra        +0xB2 /* 00003BC8 */
label00003B1A:
00003B1A  0C47 00DC                cmpi.w     D7, 0xDC
00003B1E  6D1E                     blt        +0x20 /* 00003B3E */
00003B20  0C47 00DF                cmpi.w     D7, 0xDF
00003B24  6E18                     bgt        +0x1A /* 00003B3E */
00003B26  48C7                     ext.l      D7
00003B28  2007                     move.l     D0, D7
00003B2A  C1FC 0012                muls.w     D0, 0x12
00003B2E  204D                     movea.l    A0, A5
00003B30  D1FC FFFE 8A04           add.l      A0, 0xFFFE8A04
00003B36  3030 0006                move.w     D0, [A0 + D0.w + 0x6]
00003B3A  6000 008C                bra        +0x8E /* 00003BC8 */
label00003B3E:
00003B3E  0C47 00A8                cmpi.w     D7, 0xA8
00003B42  6D1C                     blt        +0x1E /* 00003B60 */
00003B44  0C47 00BF                cmpi.w     D7, 0xBF
00003B48  6E16                     bgt        +0x18 /* 00003B60 */
00003B4A  48C7                     ext.l      D7
00003B4C  2007                     move.l     D0, D7
00003B4E  C1FC 0012                muls.w     D0, 0x12
00003B52  204D                     movea.l    A0, A5
00003B54  D1FC FFFE 8F14           add.l      A0, 0xFFFE8F14
00003B5A  3030 0006                move.w     D0, [A0 + D0.w + 0x6]
00003B5E  6068                     bra        +0x6A /* 00003BC8 */
label00003B60:
00003B60  0C47 00DC                cmpi.w     D7, 0xDC
00003B64  6D1C                     blt        +0x1E /* 00003B82 */
00003B66  0C47 00DF                cmpi.w     D7, 0xDF
00003B6A  6E16                     bgt        +0x18 /* 00003B82 */
00003B6C  48C7                     ext.l      D7
00003B6E  2007                     move.l     D0, D7
00003B70  C1FC 0012                muls.w     D0, 0x12
00003B74  204D                     movea.l    A0, A5
00003B76  D1FC FFFE 8A04           add.l      A0, 0xFFFE8A04
00003B7C  3030 0006                move.w     D0, [A0 + D0.w + 0x6]
00003B80  6046                     bra        +0x48 /* 00003BC8 */
label00003B82:
00003B82  0C47 00DC                cmpi.w     D7, 0xDC
00003B86  6D1C                     blt        +0x1E /* 00003BA4 */
00003B88  0C47 00DF                cmpi.w     D7, 0xDF
00003B8C  6E16                     bgt        +0x18 /* 00003BA4 */
00003B8E  48C7                     ext.l      D7
00003B90  2007                     move.l     D0, D7
00003B92  C1FC 0012                muls.w     D0, 0x12
00003B96  204D                     movea.l    A0, A5
00003B98  D1FC FFFE 8A04           add.l      A0, 0xFFFE8A04
00003B9E  3030 0006                move.w     D0, [A0 + D0.w + 0x6]
00003BA2  6024                     bra        +0x26 /* 00003BC8 */
label00003BA4:
00003BA4  0C47 0120                cmpi.w     D7, 0x120
00003BA8  6D1C                     blt        +0x1E /* 00003BC6 */
00003BAA  0C47 015F                cmpi.w     D7, 0x15F
00003BAE  6E16                     bgt        +0x18 /* 00003BC6 */
00003BB0  48C7                     ext.l      D7
00003BB2  2007                     move.l     D0, D7
00003BB4  C1FC 0012                muls.w     D0, 0x12
00003BB8  204D                     movea.l    A0, A5
00003BBA  D1FC FFFE 840A           add.l      A0, 0xFFFE840A
00003BC0  3030 0006                move.w     D0, [A0 + D0.w + 0x6]
00003BC4  6002                     bra        +0x4 /* 00003BC8 */
label00003BC6:
00003BC6  7000                     moveq.l    D0, 0x00
label00003BC8:
00003BC8  2E2E FFFC                move.l     D7, [A6 - 0x4]
00003BCC  4E5E                     unlink     A6
00003BCE  4E75                     rts
00003BD0  9067 6574 6974 656D 7... dc.b       "getitemprice__Fs"
export_192:
00003BE4  4E56 0000                link       A6, 0
00003BE8  48E7 0018                movem.l    -[A7], A3,A4
00003BEC  204D                     movea.l    A0, A5
00003BEE  D1FC FFFE BD12           add.l      A0, 0xFFFEBD12
00003BF4  7000                     moveq.l    D0, 0x00
00003BF6  2080                     move.l     [A0], D0
00003BF8  204D                     movea.l    A0, A5
00003BFA  D1FC FFFE BD5E           add.l      A0, 0xFFFEBD5E
00003C00  2080                     move.l     [A0], D0
00003C02  204D                     movea.l    A0, A5
00003C04  D1FC FFFE BD5A           add.l      A0, 0xFFFEBD5A
00003C0A  2080                     move.l     [A0], D0
00003C0C  204D                     movea.l    A0, A5
00003C0E  D1FC FFFE BD56           add.l      A0, 0xFFFEBD56
00003C14  2080                     move.l     [A0], D0
00003C16  204D                     movea.l    A0, A5
00003C18  D1FC FFFE BD52           add.l      A0, 0xFFFEBD52
00003C1E  2080                     move.l     [A0], D0
00003C20  204D                     movea.l    A0, A5
00003C22  D1FC FFFE BD4E           add.l      A0, 0xFFFEBD4E
00003C28  2080                     move.l     [A0], D0
00003C2A  204D                     movea.l    A0, A5
00003C2C  D1FC FFFE BD4A           add.l      A0, 0xFFFEBD4A
00003C32  2080                     move.l     [A0], D0
00003C34  204D                     movea.l    A0, A5
00003C36  D1FC FFFE BD46           add.l      A0, 0xFFFEBD46
00003C3C  2080                     move.l     [A0], D0
00003C3E  204D                     movea.l    A0, A5
00003C40  D1FC FFFE BD42           add.l      A0, 0xFFFEBD42
00003C46  2080                     move.l     [A0], D0
00003C48  204D                     movea.l    A0, A5
00003C4A  D1FC FFFE BD3E           add.l      A0, 0xFFFEBD3E
00003C50  2080                     move.l     [A0], D0
00003C52  204D                     movea.l    A0, A5
00003C54  D1FC FFFE BD3A           add.l      A0, 0xFFFEBD3A
00003C5A  2080                     move.l     [A0], D0
00003C5C  204D                     movea.l    A0, A5
00003C5E  D1FC FFFE BD32           add.l      A0, 0xFFFEBD32
00003C64  2080                     move.l     [A0], D0
00003C66  204D                     movea.l    A0, A5
00003C68  D1FC FFFE BD2E           add.l      A0, 0xFFFEBD2E
00003C6E  2080                     move.l     [A0], D0
00003C70  204D                     movea.l    A0, A5
00003C72  D1FC FFFE BD2A           add.l      A0, 0xFFFEBD2A
00003C78  2080                     move.l     [A0], D0
00003C7A  204D                     movea.l    A0, A5
00003C7C  D1FC FFFE BD26           add.l      A0, 0xFFFEBD26
00003C82  2080                     move.l     [A0], D0
00003C84  204D                     movea.l    A0, A5
00003C86  D1FC FFFE BD22           add.l      A0, 0xFFFEBD22
00003C8C  2080                     move.l     [A0], D0
00003C8E  204D                     movea.l    A0, A5
00003C90  D1FC FFFE BD1E           add.l      A0, 0xFFFEBD1E
00003C96  2080                     move.l     [A0], D0
00003C98  204D                     movea.l    A0, A5
00003C9A  D1FC FFFE BD1A           add.l      A0, 0xFFFEBD1A
00003CA0  2080                     move.l     [A0], D0
00003CA2  204D                     movea.l    A0, A5
00003CA4  D1FC FFFE BD16           add.l      A0, 0xFFFEBD16
00003CAA  2080                     move.l     [A0], D0
00003CAC  204D                     movea.l    A0, A5
00003CAE  D1FC FFFE D2D4           add.l      A0, 0xFFFED2D4
00003CB4  4250                     clr.w      [A0]
00003CB6  204D                     movea.l    A0, A5
00003CB8  D1FC FFFE BD0E           add.l      A0, 0xFFFEBD0E
00003CBE  224D                     movea.l    A1, A5
00003CC0  D3FC FFFE BD80           add.l      A1, 0xFFFEBD80
00003CC6  2290                     move.l     [A1], [A0]
00003CC8  204D                     movea.l    A0, A5
00003CCA  D1FC FFFE BD0E           add.l      A0, 0xFFFEBD0E
00003CD0  2080                     move.l     [A0], D0
00003CD2  224D                     movea.l    A1, A5
00003CD4  D3FC FFFF 7868           add.l      A1, 0xFFFF7868
00003CDA  2051                     movea.l    A0, [A1]
00003CDC  2668 0128                movea.l    A3, [A0 + 0x128]
00003CE0  286B 00DC                movea.l    A4, [A3 + 0xDC]
00003CE4  4EAD 0312                jsr        [A5 + 0x312 /* export_94, CODE:5 @ 00000362 */]
00003CE8  2F2C 016C                move.l     -[A7], [A4 + 0x16C]
00003CEC  4EAD 1F52                jsr        [A5 + 0x1F52 /* export_998, CODE:37 @ 000014C8 */]
00003CF0  4CEE 1800 FFF8           movem.l    A3,A4, [A6 - 0x8]
00003CF6  4E5E                     unlink     A6
00003CF8  4E75                     rts
00003CFA  8E63 6C6F 7365 626F 6... dc.b       "closebooks__Fv"
export_193:
00003D0C  4E56 0000                link       A6, 0
00003D10  204D                     movea.l    A0, A5
00003D12  D1FC FFFE BD42           add.l      A0, 0xFFFEBD42
00003D18  2010                     move.l     D0, [A0]
00003D1A  204D                     movea.l    A0, A5
00003D1C  D1FC FFFE BD46           add.l      A0, 0xFFFEBD46
00003D22  D090                     add.l      D0, [A0]
00003D24  204D                     movea.l    A0, A5
00003D26  D1FC FFFE BD3E           add.l      A0, 0xFFFEBD3E
00003D2C  2210                     move.l     D1, [A0]
00003D2E  D280                     add.l      D1, D0
00003D30  204D                     movea.l    A0, A5
00003D32  D1FC FFFE BD3A           add.l      A0, 0xFFFEBD3A
00003D38  2010                     move.l     D0, [A0]
00003D3A  D081                     add.l      D0, D1
00003D3C  204D                     movea.l    A0, A5
00003D3E  D1FC FFFE BD32           add.l      A0, 0xFFFEBD32
00003D44  2210                     move.l     D1, [A0]
00003D46  D280                     add.l      D1, D0
00003D48  204D                     movea.l    A0, A5
00003D4A  D1FC FFFE BD2E           add.l      A0, 0xFFFEBD2E
00003D50  2010                     move.l     D0, [A0]
00003D52  D081                     add.l      D0, D1
00003D54  204D                     movea.l    A0, A5
00003D56  D1FC FFFE BD2A           add.l      A0, 0xFFFEBD2A
00003D5C  2210                     move.l     D1, [A0]
00003D5E  D280                     add.l      D1, D0
00003D60  204D                     movea.l    A0, A5
00003D62  D1FC FFFE BD26           add.l      A0, 0xFFFEBD26
00003D68  2010                     move.l     D0, [A0]
00003D6A  D081                     add.l      D0, D1
00003D6C  204D                     movea.l    A0, A5
00003D6E  D1FC FFFE BD22           add.l      A0, 0xFFFEBD22
00003D74  2210                     move.l     D1, [A0]
00003D76  D280                     add.l      D1, D0
00003D78  204D                     movea.l    A0, A5
00003D7A  D1FC FFFE BD16           add.l      A0, 0xFFFEBD16
00003D80  2010                     move.l     D0, [A0]
00003D82  D081                     add.l      D0, D1
00003D84  204D                     movea.l    A0, A5
00003D86  D1FC FFFE BD0E           add.l      A0, 0xFFFEBD0E
00003D8C  2210                     move.l     D1, [A0]
00003D8E  D280                     add.l      D1, D0
00003D90  204D                     movea.l    A0, A5
00003D92  D1FC FFFE BD80           add.l      A0, 0xFFFEBD80
00003D98  2010                     move.l     D0, [A0]
00003D9A  D081                     add.l      D0, D1
00003D9C  204D                     movea.l    A0, A5
00003D9E  D1FC FFFE BD12           add.l      A0, 0xFFFEBD12
00003DA4  2210                     move.l     D1, [A0]
00003DA6  D280                     add.l      D1, D0
00003DA8  204D                     movea.l    A0, A5
00003DAA  D1FC FFFE BD02           add.l      A0, 0xFFFEBD02
00003DB0  2081                     move.l     [A0], D1
00003DB2  204D                     movea.l    A0, A5
00003DB4  D1FC FFFE BD5A           add.l      A0, 0xFFFEBD5A
00003DBA  2010                     move.l     D0, [A0]
00003DBC  204D                     movea.l    A0, A5
00003DBE  D1FC FFFE BD5E           add.l      A0, 0xFFFEBD5E
00003DC4  D090                     add.l      D0, [A0]
00003DC6  204D                     movea.l    A0, A5
00003DC8  D1FC FFFE BD56           add.l      A0, 0xFFFEBD56
00003DCE  2210                     move.l     D1, [A0]
00003DD0  D280                     add.l      D1, D0
00003DD2  204D                     movea.l    A0, A5
00003DD4  D1FC FFFE BD52           add.l      A0, 0xFFFEBD52
00003DDA  2010                     move.l     D0, [A0]
00003DDC  D081                     add.l      D0, D1
00003DDE  204D                     movea.l    A0, A5
00003DE0  D1FC FFFE BD4E           add.l      A0, 0xFFFEBD4E
00003DE6  2210                     move.l     D1, [A0]
00003DE8  D280                     add.l      D1, D0
00003DEA  204D                     movea.l    A0, A5
00003DEC  D1FC FFFE BD4A           add.l      A0, 0xFFFEBD4A
00003DF2  2010                     move.l     D0, [A0]
00003DF4  D081                     add.l      D0, D1
00003DF6  204D                     movea.l    A0, A5
00003DF8  D1FC FFFE BD06           add.l      A0, 0xFFFEBD06
00003DFE  2080                     move.l     [A0], D0
00003E00  204D                     movea.l    A0, A5
00003E02  D1FC FFFE BD06           add.l      A0, 0xFFFEBD06
00003E08  2010                     move.l     D0, [A0]
00003E0A  204D                     movea.l    A0, A5
00003E0C  D1FC FFFE BD02           add.l      A0, 0xFFFEBD02
00003E12  9090                     sub.l      D0, [A0]
00003E14  204D                     movea.l    A0, A5
00003E16  D1FC FFFE BCFE           add.l      A0, 0xFFFEBCFE
00003E1C  2080                     move.l     [A0], D0
00003E1E  4E5E                     unlink     A6
00003E20  4E75                     rts
00003E22  9267 6574 6D6F 6E65 7... dc.b       "getmoneytotals__Fv"
export_194:
fn00003E38:
00003E38  4E56 0000                link       A6, 0
00003E3C  2F07                     move.l     -[A7], D7
00003E3E  204D                     movea.l    A0, A5
00003E40  D1FC FFFE BD76           add.l      A0, 0xFFFEBD76
00003E46  0C90 0002 49F0           cmpi.l     [A0], 0x249F0
00003E4C  6416                     bcc        +0x18 /* 00003E64 */
00003E4E  204D                     movea.l    A0, A5
00003E50  D1FC FFFE BD7A           add.l      A0, 0xFFFEBD7A
00003E56  2010                     move.l     D0, [A0]
00003E58  4C7C 0800 0000 000A      divu.l     D2:D0, 0x8000000
00003E60  2E00                     move.l     D7, D0
00003E62  605A                     bra        +0x5C /* 00003EBE */
label00003E64:
00003E64  204D                     movea.l    A0, A5
00003E66  D1FC FFFE BD76           add.l      A0, 0xFFFEBD76
00003E6C  0C90 0002 49F0           cmpi.l     [A0], 0x249F0
00003E72  6526                     bcs        +0x28 /* 00003E9A */
00003E74  204D                     movea.l    A0, A5
00003E76  D1FC FFFE BD76           add.l      A0, 0xFFFEBD76
00003E7C  0C90 0007 A120           cmpi.l     [A0], 0x7A120
00003E82  6416                     bcc        +0x18 /* 00003E9A */
00003E84  204D                     movea.l    A0, A5
00003E86  D1FC FFFE BD7A           add.l      A0, 0xFFFEBD7A
00003E8C  2010                     move.l     D0, [A0]
00003E8E  4C7C 0800 0000 0005      divu.l     D5:D0, 0x8000000
00003E96  2E00                     move.l     D7, D0
00003E98  6024                     bra        +0x26 /* 00003EBE */
label00003E9A:
00003E9A  204D                     movea.l    A0, A5
00003E9C  D1FC FFFE BD76           add.l      A0, 0xFFFEBD76
00003EA2  0C90 0007 A120           cmpi.l     [A0], 0x7A120
00003EA8  6514                     bcs        +0x16 /* 00003EBE */
00003EAA  204D                     movea.l    A0, A5
00003EAC  D1FC FFFE BD7A           add.l      A0, 0xFFFEBD7A
00003EB2  2010                     move.l     D0, [A0]
00003EB4  4C7C 0800 0000 0003      divu.l     D3:D0, 0x8000000
00003EBC  2E00                     move.l     D7, D0
label00003EBE:
00003EBE  204D                     movea.l    A0, A5
00003EC0  D1FC FFFF 044C           add.l      A0, 0xFFFF044C
00003EC6  DE90                     add.l      D7, [A0]
00003EC8  4EAD 07AA                jsr        [A5 + 0x7AA /* export_241, CODE:13 @ 00003698 */]
00003ECC  4C7C 0800 0000 0063      divu.l     D3:D0, 0x8000000
00003ED4  DE80                     add.l      D7, D0
00003ED6  2007                     move.l     D0, D7
00003ED8  2E2E FFFC                move.l     D7, [A6 - 0x4]
00003EDC  4E5E                     unlink     A6
00003EDE  4E75                     rts
00003EE0  9967 6574 5F74 6178 6... dc.b       "get_taxes_owed_todate__Fv"
export_195:
00003EFC  4E56 0000                link       A6, 0
00003F00  48E7 0700                movem.l    -[A7], D5,D6,D7
00003F04  4EBA FF32                jsr        [PC - 0xCE /* 00003E38 */]
00003F08  2A00                     move.l     D5, D0
00003F0A  204D                     movea.l    A0, A5
00003F0C  D1FC FFFE BD7A           add.l      A0, 0xFFFEBD7A
00003F12  7000                     moveq.l    D0, 0x00
00003F14  2080                     move.l     [A0], D0
00003F16  2F05                     move.l     -[A7], D5
00003F18  4878 09C4                push.l     0x9C4
00003F1C  4EBA ED2C                jsr        [PC - 0x12D4 /* 00002C4A */]
00003F20  2C00                     move.l     D6, D0
00003F22  4EAD 0772                jsr        [A5 + 0x772 /* export_234, CODE:13 @ 00001A44 */]
00003F26  7000                     moveq.l    D0, 0x00
00003F28  204D                     movea.l    A0, A5
00003F2A  D1FC FFFF 0454           add.l      A0, 0xFFFF0454
00003F30  3010                     move.w     D0, [A0]
00003F32  4A80                     tst.l      D0
00003F34  4C3C 0800 0000 00C8      mulu.l     D0, 0x8000000
00003F3C  2E00                     move.l     D7, D0
00003F3E  4A86                     tst.l      D6
00003F40  504F                     addq.w     A7, 8
00003F42  665C                     bne        +0x5E /* 00003FA0 */
00003F44  204D                     movea.l    A0, A5
00003F46  D1FC FFFF 044C           add.l      A0, 0xFFFF044C
00003F4C  2010                     move.l     D0, [A0]
00003F4E  E488                     lsr        D0, 2
00003F50  204D                     movea.l    A0, A5
00003F52  D1FC FFFF 044C           add.l      A0, 0xFFFF044C
00003F58  D190                     add.l      [A0], D0
00003F5A  2005                     move.l     D0, D5
00003F5C  E480                     asr        D0, 2
00003F5E  D085                     add.l      D0, D5
00003F60  204D                     movea.l    A0, A5
00003F62  D1FC FFFF 044C           add.l      A0, 0xFFFF044C
00003F68  D190                     add.l      [A0], D0
00003F6A  204D                     movea.l    A0, A5
00003F6C  D1FC FFFE BCFA           add.l      A0, 0xFFFEBCFA
00003F72  1010                     move.b     D0, [A0]
00003F74  5210                     addq.b     [A0], 1
00003F76  2005                     move.l     D0, D5
00003F78  4480                     neg.l      D0
00003F7A  204D                     movea.l    A0, A5
00003F7C  D1FC FFFF 0448           add.l      A0, 0xFFFF0448
00003F82  2080                     move.l     [A0], D0
00003F84  4878 009F                push.l     0x9F
00003F88  4EAD 02F2                jsr        [A5 + 0x2F2 /* export_90, CODE:3 @ 000062C4 */]
00003F8C  204D                     movea.l    A0, A5
00003F8E  D1FC FFFE BD7E           add.l      A0, 0xFFFEBD7E
00003F94  10BC 0003                move.b     [A0], 0x3
00003F98  7000                     moveq.l    D0, 0x00
00003F9A  584F                     addq.w     A7, 4
00003F9C  6000 00B4                bra        +0xB6 /* 00004052 */
label00003FA0:
00003FA0  204D                     movea.l    A0, A5
00003FA2  D1FC FFFF 0448           add.l      A0, 0xFFFF0448
00003FA8  DD90                     add.l      [A0], D6
00003FAA  204D                     movea.l    A0, A5
00003FAC  D1FC FFFF 0448           add.l      A0, 0xFFFF0448
00003FB2  BE90                     cmp.l      D7, [A0]
00003FB4  6F70                     ble        +0x72 /* 00004026 */
00003FB6  204D                     movea.l    A0, A5
00003FB8  D1FC FFFF 0444           add.l      A0, 0xFFFF0444
00003FBE  2010                     move.l     D0, [A0]
00003FC0  204D                     movea.l    A0, A5
00003FC2  D1FC FFFF 0448           add.l      A0, 0xFFFF0448
00003FC8  D090                     add.l      D0, [A0]
00003FCA  B087                     cmp.l      D0, D7
00003FCC  6C32                     bge        +0x34 /* 00004000 */
00003FCE  204D                     movea.l    A0, A5
00003FD0  D1FC FFFF 0444           add.l      A0, 0xFFFF0444
00003FD6  2010                     move.l     D0, [A0]
00003FD8  204D                     movea.l    A0, A5
00003FDA  D1FC FFFF 0448           add.l      A0, 0xFFFF0448
00003FE0  D090                     add.l      D0, [A0]
00003FE2  9087                     sub.l      D0, D7
00003FE4  2E00                     move.l     D7, D0
00003FE6  204D                     movea.l    A0, A5
00003FE8  D1FC FFFF 0448           add.l      A0, 0xFFFF0448
00003FEE  2087                     move.l     [A0], D7
00003FF0  204D                     movea.l    A0, A5
00003FF2  D1FC FFFF 0444           add.l      A0, 0xFFFF0444
00003FF8  7000                     moveq.l    D0, 0x00
00003FFA  2080                     move.l     [A0], D0
00003FFC  7000                     moveq.l    D0, 0x00
00003FFE  6052                     bra        +0x54 /* 00004052 */
label00004000:
00004000  2007                     move.l     D0, D7
00004002  204D                     movea.l    A0, A5
00004004  D1FC FFFF 0448           add.l      A0, 0xFFFF0448
0000400A  9090                     sub.l      D0, [A0]
0000400C  204D                     movea.l    A0, A5
0000400E  D1FC FFFF 0444           add.l      A0, 0xFFFF0444
00004014  9190                     sub.l      [A0], D0
00004016  204D                     movea.l    A0, A5
00004018  D1FC FFFF 0448           add.l      A0, 0xFFFF0448
0000401E  7000                     moveq.l    D0, 0x00
00004020  2080                     move.l     [A0], D0
00004022  7000                     moveq.l    D0, 0x00
00004024  602C                     bra        +0x2E /* 00004052 */
label00004026:
00004026  204D                     movea.l    A0, A5
00004028  D1FC FFFF 0448           add.l      A0, 0xFFFF0448
0000402E  9F90                     sub.l      [A0], D7
00004030  2006                     move.l     D0, D6
00004032  E480                     asr        D0, 2
00004034  204D                     movea.l    A0, A5
00004036  D1FC FFFF 0444           add.l      A0, 0xFFFF0444
0000403C  D190                     add.l      [A0], D0
0000403E  2006                     move.l     D0, D6
00004040  E480                     asr        D0, 2
00004042  204D                     movea.l    A0, A5
00004044  D1FC FFFF 0448           add.l      A0, 0xFFFF0448
0000404A  9190                     sub.l      [A0], D0
0000404C  4EAD 077A                jsr        [A5 + 0x77A /* export_235, CODE:13 @ 00002D72 */]
00004050  7001                     moveq.l    D0, 0x01
label00004052:
00004052  4CEE 00E0 FFF4           movem.l    D5,D6,D7, [A6 - 0xC]
00004058  4E5E                     unlink     A6
0000405A  4E75                     rts
0000405C  8D73 696D 5F74 6178 6... dc.b       "sim_taxes__Fv"
export_196:
0000406C  4E56 FFEA                link       A6, -0x0016
00004070  48E7 1F18                movem.l    -[A7], D3,D4,D5,D6,D7,A3,A4
00004074  282E 0008                move.l     D4, [A6 + 0x8]
00004078  7000                     moveq.l    D0, 0x00
0000407A  2640                     movea.l    A3, D0
0000407C  102E 000F                move.b     D0, [A6 + 0xF]
00004080  49C0                     lea.l      A4, D0
00004082  2F00                     move.l     -[A7], D0
00004084  4EAD 02F2                jsr        [A5 + 0x2F2 /* export_90, CODE:3 @ 000062C4 */]
00004088  426E FFF0                clr.w      [A6 - 0x10]
0000408C  4247                     clr.w      D7
0000408E  426E FFF2                clr.w      [A6 - 0xE]
00004092  7C01                     moveq.l    D6, 0x01
00004094  204D                     movea.l    A0, A5
00004096  D1FC FFFD 93FE           add.l      A0, 0xFFFD93FE
0000409C  3D50 FFF4                move.w     [A6 - 0xC], [A0]
000040A0  584F                     addq.w     A7, 4
000040A2  6000 0120                bra        +0x122 /* 000041C4 */
label000040A6:
000040A6  2006                     move.l     D0, D6
000040A8  C1FC 000C                muls.w     D0, 0xC
000040AC  204D                     movea.l    A0, A5
000040AE  D1FC FFFD 9400           add.l      A0, 0xFFFD9400
000040B4  7200                     moveq.l    D1, 0x00
000040B6  3230 0000                move.w     D1, [A0 + D0.w]
000040BA  0C41 00A8                cmpi.w     D1, 0xA8
000040BE  6500 00E8                bcs        +0xEA /* 000041A8 */
000040C2  2006                     move.l     D0, D6
000040C4  C1FC 000C                muls.w     D0, 0xC
000040C8  204D                     movea.l    A0, A5
000040CA  D1FC FFFD 9400           add.l      A0, 0xFFFD9400
000040D0  7200                     moveq.l    D1, 0x00
000040D2  3230 0000                move.w     D1, [A0 + D0.w]
000040D6  0C41 00BF                cmpi.w     D1, 0xBF
000040DA  6200 00CC                bhi        +0xCE /* 000041A8 */
000040DE  2006                     move.l     D0, D6
000040E0  C1FC 000C                muls.w     D0, 0xC
000040E4  204D                     movea.l    A0, A5
000040E6  D1FC FFFD 9400           add.l      A0, 0xFFFD9400
000040EC  7220                     moveq.l    D1, 0x20
000040EE  C230 000A                and.b      D1, [A0 + D0.w + 0xA]
000040F2  6700 00B4                beq        +0xB6 /* 000041A8 */
000040F6  2006                     move.l     D0, D6
000040F8  C1FC 000C                muls.w     D0, 0xC
000040FC  204D                     movea.l    A0, A5
000040FE  D1FC FFFD 9400           add.l      A0, 0xFFFD9400
00004104  7200                     moveq.l    D1, 0x00
00004106  3230 0000                move.w     D1, [A0 + D0.w]
0000410A  C3FC 0012                muls.w     D1, 0x12
0000410E  204D                     movea.l    A0, A5
00004110  D1FC FFFE 8F14           add.l      A0, 0xFFFE8F14
00004116  47F0 1000                lea.l      A3, [A0 + D1.w]
0000411A  486E FFEA                pea.l      [A6 - 0x16]
0000411E  48C6                     ext.l      D6
00004120  2F06                     move.l     -[A7], D6
00004122  4EAD 043A                jsr        [A5 + 0x43A /* export_131, CODE:6 @ 00004D48 */]
00004126  2D40 FFFC                move.l     [A6 - 0x4], D0
0000412A  3D6E FFEA FFFA           move.w     [A6 - 0x6], [A6 - 0x16]
00004130  2006                     move.l     D0, D6
00004132  C1FC 000C                muls.w     D0, 0xC
00004136  204D                     movea.l    A0, A5
00004138  D1FC FFFD 9400           add.l      A0, 0xFFFD9400
0000413E  3D70 0000 FFF6           move.w     [A6 - 0xA], [A0 + D0.w]
00004144  7A01                     moveq.l    D5, 0x01
00004146  3D46 FFF8                move.w     [A6 - 0x8], D6
0000414A  5247                     addq.w     D7, 1
0000414C  302E FFF8                move.w     D0, [A6 - 0x8]
00004150  48C0                     ext.l      D0
00004152  2F00                     move.l     -[A7], D0
00004154  302E FFF6                move.w     D0, [A6 - 0xA]
00004158  48C0                     ext.l      D0
0000415A  2F00                     move.l     -[A7], D0
0000415C  48C5                     ext.l      D5
0000415E  2F05                     move.l     -[A7], D5
00004160  4EAD 069A                jsr        [A5 + 0x69A /* export_207, CODE:11 @ 00005728 */]
00004164  7024                     moveq.l    D0, 0x24
00004166  B02E 000F                cmp.b      D0, [A6 + 0xF]
0000416A  4FEF 0014                lea.l      A7, [A7 + 0x14]
0000416E  6618                     bne        +0x1A /* 00004188 */
00004170  2F04                     move.l     -[A7], D4
00004172  4878 03E8                push.l     0x3E8
00004176  4EBA EAD2                jsr        [PC - 0x152E /* 00002C4A */]
0000417A  2D40 FFEC                move.l     [A6 - 0x14], D0
0000417E  504F                     addq.w     A7, 8
00004180  6726                     beq        +0x28 /* 000041A8 */
00004182  7001                     moveq.l    D0, 0x01
00004184  6000 038E                bra        +0x390 /* 00004514 */
label00004188:
00004188  7027                     moveq.l    D0, 0x27
0000418A  B02E 000F                cmp.b      D0, [A6 + 0xF]
0000418E  6618                     bne        +0x1A /* 000041A8 */
00004190  2F04                     move.l     -[A7], D4
00004192  4878 09C4                push.l     0x9C4
00004196  4EBA EAB2                jsr        [PC - 0x154E /* 00002C4A */]
0000419A  2D40 FFEC                move.l     [A6 - 0x14], D0
0000419E  504F                     addq.w     A7, 8
000041A0  6706                     beq        +0x8 /* 000041A8 */
000041A2  7001                     moveq.l    D0, 0x01
000041A4  6000 036E                bra        +0x370 /* 00004514 */
label000041A8:
000041A8  2006                     move.l     D0, D6
000041AA  C1FC 000C                muls.w     D0, 0xC
000041AE  204D                     movea.l    A0, A5
000041B0  D1FC FFFD 9400           add.l      A0, 0xFFFD9400
000041B6  7220                     moveq.l    D1, 0x20
000041B8  C230 000A                and.b      D1, [A0 + D0.w + 0xA]
000041BC  6704                     beq        +0x6 /* 000041C2 */
000041BE  526E FFF2                addq.w     [A6 - 0xE], 1
label000041C2:
000041C2  5246                     addq.w     D6, 1
label000041C4:
000041C4  BE6E FFF4                cmp.w      D7, [A6 - 0xC]
000041C8  6C0C                     bge        +0xE /* 000041D6 */
000041CA  302E FFF2                move.w     D0, [A6 - 0xE]
000041CE  B06E FFF4                cmp.w      D0, [A6 - 0xC]
000041D2  6D00 FED2                blt        -0x12C /* 000040A6 */
label000041D6:
000041D6  426E FFF0                clr.w      [A6 - 0x10]
000041DA  4247                     clr.w      D7
000041DC  7C01                     moveq.l    D6, 0x01
000041DE  204D                     movea.l    A0, A5
000041E0  D1FC FFFD 71EA           add.l      A0, 0xFFFD71EA
000041E6  3D50 FFF4                move.w     [A6 - 0xC], [A0]
000041EA  6000 00AC                bra        +0xAE /* 00004298 */
label000041EE:
000041EE  2006                     move.l     D0, D6
000041F0  C1FC 0022                muls.w     D0, 0x22 /* '\"' */
000041F4  204D                     movea.l    A0, A5
000041F6  D1FC FFFD 71EC           add.l      A0, 0xFFFD71EC
000041FC  7200                     moveq.l    D1, 0x00
000041FE  3230 0002                move.w     D1, [A0 + D0.w + 0x2]
00004202  7020                     moveq.l    D0, 0x20
00004204  C041                     and.w      D0, D1
00004206  6700 008E                beq        +0x90 /* 00004296 */
0000420A  2006                     move.l     D0, D6
0000420C  C1FC 0022                muls.w     D0, 0x22 /* '\"' */
00004210  204D                     movea.l    A0, A5
00004212  D1FC FFFD 71EC           add.l      A0, 0xFFFD71EC
00004218  7200                     moveq.l    D1, 0x00
0000421A  3230 0006                move.w     D1, [A0 + D0.w + 0x6]
0000421E  C3FC 0012                muls.w     D1, 0x12
00004222  204D                     movea.l    A0, A5
00004224  D1FC FFFE 90C4           add.l      A0, 0xFFFE90C4
0000422A  47F0 1000                lea.l      A3, [A0 + D1.w]
0000422E  3D6E FFFA FFEA           move.w     [A6 - 0x16], [A6 - 0x6]
00004234  486E FFEA                pea.l      [A6 - 0x16]
00004238  48C6                     ext.l      D6
0000423A  2F06                     move.l     -[A7], D6
0000423C  4EAD 025A                jsr        [A5 + 0x25A /* export_71, CODE:3 @ 000015AA */]
00004240  2D40 FFFC                move.l     [A6 - 0x4], D0
00004244  3D6E FFEA FFFA           move.w     [A6 - 0x6], [A6 - 0x16]
0000424A  2006                     move.l     D0, D6
0000424C  C1FC 0022                muls.w     D0, 0x22 /* '\"' */
00004250  204D                     movea.l    A0, A5
00004252  D1FC FFFD 71EC           add.l      A0, 0xFFFD71EC
00004258  3D70 0006 FFF6           move.w     [A6 - 0xA], [A0 + D0.w + 0x6]
0000425E  4245                     clr.w      D5
00004260  3006                     move.w     D0, D6
00004262  3D40 FFF8                move.w     [A6 - 0x8], D0
00004266  48C0                     ext.l      D0
00004268  2F00                     move.l     -[A7], D0
0000426A  302E FFF6                move.w     D0, [A6 - 0xA]
0000426E  48C0                     ext.l      D0
00004270  2F00                     move.l     -[A7], D0
00004272  48C5                     ext.l      D5
00004274  2F05                     move.l     -[A7], D5
00004276  4EAD 069A                jsr        [A5 + 0x69A /* export_207, CODE:11 @ 00005728 */]
0000427A  2F04                     move.l     -[A7], D4
0000427C  7000                     moveq.l    D0, 0x00
0000427E  2F00                     move.l     -[A7], D0
00004280  4EBA E9C8                jsr        [PC - 0x1638 /* 00002C4A */]
00004284  2D40 FFEC                move.l     [A6 - 0x14], D0
00004288  4FEF 001C                lea.l      A7, [A7 + 0x1C]
0000428C  6706                     beq        +0x8 /* 00004294 */
0000428E  7001                     moveq.l    D0, 0x01
00004290  6000 0282                bra        +0x284 /* 00004514 */
label00004294:
00004294  5247                     addq.w     D7, 1
label00004296:
00004296  5246                     addq.w     D6, 1
label00004298:
00004298  BE6E FFF4                cmp.w      D7, [A6 - 0xC]
0000429C  6D00 FF50                blt        -0xAE /* 000041EE */
000042A0  426E FFF0                clr.w      [A6 - 0x10]
000042A4  4247                     clr.w      D7
000042A6  426E FFF2                clr.w      [A6 - 0xE]
000042AA  7C01                     moveq.l    D6, 0x01
000042AC  204D                     movea.l    A0, A5
000042AE  D1FC FFFE 9F9A           add.l      A0, 0xFFFE9F9A
000042B4  3D50 FFF4                move.w     [A6 - 0xC], [A0]
000042B8  6000 00DA                bra        +0xDC /* 00004394 */
label000042BC:
000042BC  2006                     move.l     D0, D6
000042BE  C1FC 003A                muls.w     D0, 0x3A /* ':' */
000042C2  204D                     movea.l    A0, A5
000042C4  D1FC FFFE 9F9C           add.l      A0, 0xFFFE9F9C
000042CA  7200                     moveq.l    D1, 0x00
000042CC  3230 0002                move.w     D1, [A0 + D0.w + 0x2]
000042D0  7040                     moveq.l    D0, 0x40
000042D2  C041                     and.w      D0, D1
000042D4  6600 009E                bne        +0xA0 /* 00004374 */
000042D8  2006                     move.l     D0, D6
000042DA  C1FC 003A                muls.w     D0, 0x3A /* ':' */
000042DE  204D                     movea.l    A0, A5
000042E0  D1FC FFFE 9F9C           add.l      A0, 0xFFFE9F9C
000042E6  7200                     moveq.l    D1, 0x00
000042E8  3230 0002                move.w     D1, [A0 + D0.w + 0x2]
000042EC  7020                     moveq.l    D0, 0x20
000042EE  C041                     and.w      D0, D1
000042F0  6700 0082                beq        +0x84 /* 00004374 */
000042F4  2006                     move.l     D0, D6
000042F6  C1FC 003A                muls.w     D0, 0x3A /* ':' */
000042FA  204D                     movea.l    A0, A5
000042FC  D1FC FFFE 9F9C           add.l      A0, 0xFFFE9F9C
00004302  3030 0000                move.w     D0, [A0 + D0.w]
00004306  C1FC 0012                muls.w     D0, 0x12
0000430A  204D                     movea.l    A0, A5
0000430C  D1FC FFFE 9EB0           add.l      A0, 0xFFFE9EB0
00004312  47F0 0000                lea.l      A3, [A0 + D0.w]
00004316  486E FFFA                pea.l      [A6 - 0x6]
0000431A  48C6                     ext.l      D6
0000431C  2F06                     move.l     -[A7], D6
0000431E  4EBA E6C4                jsr        [PC - 0x193C /* 000029E4 */]
00004322  48C0                     ext.l      D0
00004324  2D40 FFFC                move.l     [A6 - 0x4], D0
00004328  2006                     move.l     D0, D6
0000432A  C1FC 003A                muls.w     D0, 0x3A /* ':' */
0000432E  204D                     movea.l    A0, A5
00004330  D1FC FFFE 9F9C           add.l      A0, 0xFFFE9F9C
00004336  3D70 0000 FFF6           move.w     [A6 - 0xA], [A0 + D0.w]
0000433C  7A02                     moveq.l    D5, 0x02
0000433E  3006                     move.w     D0, D6
00004340  3D40 FFF8                move.w     [A6 - 0x8], D0
00004344  48C0                     ext.l      D0
00004346  2F00                     move.l     -[A7], D0
00004348  302E FFF6                move.w     D0, [A6 - 0xA]
0000434C  48C0                     ext.l      D0
0000434E  2F00                     move.l     -[A7], D0
00004350  48C5                     ext.l      D5
00004352  2F05                     move.l     -[A7], D5
00004354  4EAD 069A                jsr        [A5 + 0x69A /* export_207, CODE:11 @ 00005728 */]
00004358  2F04                     move.l     -[A7], D4
0000435A  7000                     moveq.l    D0, 0x00
0000435C  2F00                     move.l     -[A7], D0
0000435E  4EBA E8EA                jsr        [PC - 0x1716 /* 00002C4A */]
00004362  2D40 FFEC                move.l     [A6 - 0x14], D0
00004366  4FEF 001C                lea.l      A7, [A7 + 0x1C]
0000436A  6706                     beq        +0x8 /* 00004372 */
0000436C  7001                     moveq.l    D0, 0x01
0000436E  6000 01A4                bra        +0x1A6 /* 00004514 */
label00004372:
00004372  5247                     addq.w     D7, 1
label00004374:
00004374  2006                     move.l     D0, D6
00004376  C1FC 003A                muls.w     D0, 0x3A /* ':' */
0000437A  204D                     movea.l    A0, A5
0000437C  D1FC FFFE 9F9C           add.l      A0, 0xFFFE9F9C
00004382  7200                     moveq.l    D1, 0x00
00004384  3230 0002                move.w     D1, [A0 + D0.w + 0x2]
00004388  7020                     moveq.l    D0, 0x20
0000438A  C041                     and.w      D0, D1
0000438C  6704                     beq        +0x6 /* 00004392 */
0000438E  526E FFF2                addq.w     [A6 - 0xE], 1
label00004392:
00004392  5246                     addq.w     D6, 1
label00004394:
00004394  BE6E FFF4                cmp.w      D7, [A6 - 0xC]
00004398  6C0C                     bge        +0xE /* 000043A6 */
0000439A  302E FFF2                move.w     D0, [A6 - 0xE]
0000439E  B06E FFF4                cmp.w      D0, [A6 - 0xC]
000043A2  6D00 FF18                blt        -0xE6 /* 000042BC */
label000043A6:
000043A6  4246                     clr.w      D6
label000043A8:
000043A8  4245                     clr.w      D5
label000043AA:
000043AA  2006                     move.l     D0, D6
000043AC  C1FC 000C                muls.w     D0, 0xC
000043B0  204D                     movea.l    A0, A5
000043B2  D1FC FFFE 97B2           add.l      A0, 0xFFFE97B2
000043B8  2205                     move.l     D1, D5
000043BA  D240                     add.w      D1, D0
000043BC  7000                     moveq.l    D0, 0x00
000043BE  1030 1000                move.b     D0, [A0 + D1.w]
000043C2  0C40 0001                cmpi.w     D0, 0x1
000043C6  6600 00E6                bne        +0xE8 /* 000044AE */
000043CA  204D                     movea.l    A0, A5
000043CC  D1FC FFFF 781C           add.l      A0, 0xFFFF781C
000043D2  BC50                     cmp.w      D6, [A0]
000043D4  6600 0082                bne        +0x84 /* 00004458 */
000043D8  204D                     movea.l    A0, A5
000043DA  D1FC FFFF 781A           add.l      A0, 0xFFFF781A
000043E0  BA50                     cmp.w      D5, [A0]
000043E2  6700 00CA                beq        +0xCC /* 000044AE */
000043E6  6070                     bra        +0x72 /* 00004458 */
label000043E8:
000043E8  48C7                     ext.l      D7
000043EA  2F07                     move.l     -[A7], D7
000043EC  4EAD 03FA                jsr        [A5 + 0x3FA /* export_123, CODE:6 @ 00003AD0 */]
000043F0  48C7                     ext.l      D7
000043F2  2F07                     move.l     -[A7], D7
000043F4  4EAD 0402                jsr        [A5 + 0x402 /* export_124, CODE:6 @ 00003C24 */]
000043F8  204D                     movea.l    A0, A5
000043FA  D1FC FFFE BC92           add.l      A0, 0xFFFEBC92
00004400  4850                     pea.l      [A0]
00004402  4EAD 0742                jsr        [A5 + 0x742 /* export_228, CODE:12 @ 000045BA */]
00004406  7000                     moveq.l    D0, 0x00
00004408  204D                     movea.l    A0, A5
0000440A  D1FC FFFE CFD2           add.l      A0, 0xFFFECFD2
00004410  1010                     move.b     D0, [A0]
00004412  BE40                     cmp.w      D7, D0
00004414  4FEF 000C                lea.l      A7, [A7 + 0xC]
00004418  663E                     bne        +0x40 /* 00004458 */
0000441A  204D                     movea.l    A0, A5
0000441C  D1FC FFFF 2042           add.l      A0, 0xFFFF2042
00004422  2850                     movea.l    A4, [A0]
00004424  4AAC 0170                tst.l      [A4 + 0x170]
00004428  56C3                     sne        D3
0000442A  4403                     neg.b      D3
0000442C  6728                     beq        +0x2A /* 00004456 */
0000442E  206C 0170                movea.l    A0, [A4 + 0x170]
00004432  2248                     movea.l    A1, A0
00004434  2269 0060                movea.l    A1, [A1 + 0x60]
00004438  D0E9 0078                add.w      A0, [A1 + 0x78]
0000443C  2F08                     move.l     -[A7], A0
0000443E  206C 0170                movea.l    A0, [A4 + 0x170]
00004442  2068 0060                movea.l    A0, [A0 + 0x60]
00004446  2268 007C                movea.l    A1, [A0 + 0x7C]
0000444A  4E91                     jsr        [A1]
0000444C  7200                     moveq.l    D1, 0x00
0000444E  1200                     move.b     D1, D0
00004450  4A81                     tst.l      D1
00004452  584F                     addq.w     A7, 4
00004454  6002                     bra        +0x4 /* 00004458 */
label00004456:
00004456  7200                     moveq.l    D1, 0x00
label00004458:
00004458  7008                     moveq.l    D0, 0x08
0000445A  2F00                     move.l     -[A7], D0
0000445C  2F00                     move.l     -[A7], D0
0000445E  48C5                     ext.l      D5
00004460  2205                     move.l     D1, D5
00004462  E789                     lsl        D1, 3
00004464  48C1                     ext.l      D1
00004466  2F01                     move.l     -[A7], D1
00004468  48C6                     ext.l      D6
0000446A  2206                     move.l     D1, D6
0000446C  E789                     lsl        D1, 3
0000446E  48C1                     ext.l      D1
00004470  2F01                     move.l     -[A7], D1
00004472  4EAD 03EA                jsr        [A5 + 0x3EA /* export_121, CODE:6 @ 00003870 */]
00004476  4880                     ext.w      D0
00004478  3E00                     move.w     D7, D0
0000447A  4FEF 0010                lea.l      A7, [A7 + 0x10]
0000447E  6600 FF68                bne        -0x96 /* 000043E8 */
00004482  7000                     moveq.l    D0, 0x00
00004484  2F00                     move.l     -[A7], D0
00004486  1205                     move.b     D1, D5
00004488  49C1                     lea.l      A4, D1
0000448A  2F01                     move.l     -[A7], D1
0000448C  1206                     move.b     D1, D6
0000448E  49C1                     lea.l      A4, D1
00004490  2F01                     move.l     -[A7], D1
00004492  4EAD 07A2                jsr        [A5 + 0x7A2 /* export_240, CODE:13 @ 000033D6 */]
00004496  2F04                     move.l     -[A7], D4
00004498  7000                     moveq.l    D0, 0x00
0000449A  2F00                     move.l     -[A7], D0
0000449C  4EBA E7AC                jsr        [PC - 0x1854 /* 00002C4A */]
000044A0  2D40 FFEC                move.l     [A6 - 0x14], D0
000044A4  4FEF 0014                lea.l      A7, [A7 + 0x14]
000044A8  6704                     beq        +0x6 /* 000044AE */
000044AA  7001                     moveq.l    D0, 0x01
000044AC  6066                     bra        +0x68 /* 00004514 */
label000044AE:
000044AE  3005                     move.w     D0, D5
000044B0  5245                     addq.w     D5, 1
000044B2  0C45 000C                cmpi.w     D5, 0xC
000044B6  6D00 FEF2                blt        -0x10C /* 000043AA */
000044BA  3006                     move.w     D0, D6
000044BC  5246                     addq.w     D6, 1
000044BE  0C46 000C                cmpi.w     D6, 0xC
000044C2  6D00 FEE4                blt        -0x11A /* 000043A8 */
000044C6  7001                     moveq.l    D0, 0x01
000044C8  2F00                     move.l     -[A7], D0
000044CA  7200                     moveq.l    D1, 0x00
000044CC  2F01                     move.l     -[A7], D1
000044CE  4878 0096                push.l     0x96
000044D2  4878 00C0                push.l     0xC0
000044D6  700C                     moveq.l    D0, 0x0C
000044D8  2F00                     move.l     -[A7], D0
000044DA  700B                     moveq.l    D0, 0x0B
000044DC  2F00                     move.l     -[A7], D0
000044DE  704A                     moveq.l    D0, 0x4A
000044E0  2F00                     move.l     -[A7], D0
000044E2  204D                     movea.l    A0, A5
000044E4  D1FC FFFE BC9E           add.l      A0, 0xFFFEBC9E
000044EA  4850                     pea.l      [A0]
000044EC  4EAD 0862                jsr        [A5 + 0x862 /* export_264, CODE:14 @ 000059C4 */]
000044F0  3C00                     move.w     D6, D0
000044F2  4FEF 0020                lea.l      A7, [A7 + 0x20]
000044F6  660E                     bne        +0x10 /* 00004506 */
000044F8  204D                     movea.l    A0, A5
000044FA  D1FC FFFE FBE4           add.l      A0, 0xFFFEFBE4
00004500  10BC 0002                move.b     [A0], 0x2
00004504  600C                     bra        +0xE /* 00004512 */
label00004506:
00004506  204D                     movea.l    A0, A5
00004508  D1FC FFFE FBE4           add.l      A0, 0xFFFEFBE4
0000450E  10BC 0001                move.b     [A0], 0x1
label00004512:
00004512  7000                     moveq.l    D0, 0x00
label00004514:
00004514  4CEE 18F8 FFCE           movem.l    D3,D4,D5,D6,D7,A3,A4, [A6 - 0x32]
0000451A  4E5E                     unlink     A6
0000451C  4E75                     rts
0000451E  9473 656C 6C5F 6F66 6... dc.b       "sell_off_assets__Flc"
