# near model CODE resource
# jump table entries: 8480-8515 (36 of them)
export_1060:
00000000  4E56 FFE8                link       A6, -0x0018
00000004  48E7 1018                movem.l    -[A7], D3,A3,A4
00000008  266E 000C                movea.l    A3, [A6 + 0xC]
0000000C  286E 0008                movea.l    A4, [A6 + 0x8]
00000010  200C                     move.l     D0, A4
00000012  6612                     bne        +0x14 /* 00000026 */
00000014  4878 0208                push.l     0x208
00000018  4EAD 010A                jsr        [A5 + 0x10A /* export_29, CODE:1 @ 00001C0A */]
0000001C  2840                     movea.l    A4, D0
0000001E  200C                     move.l     D0, A4
00000020  584F                     addq.w     A7, 4
00000022  6700 02D6                beq        +0x2D8 /* 000002FA */
label00000026:
00000026  200B                     move.l     D0, A3
00000028  57C3                     seq        D3
0000002A  4403                     neg.b      D3
0000002C  6748                     beq        +0x4A /* 00000076 */
0000002E  264C                     movea.l    A3, A4
00000030  47EB 01FC                lea.l      A3, [A3 + 0x1FC]
00000034  7601                     moveq.l    D3, 0x01
00000036  200C                     move.l     D0, A4
00000038  D0BC 0000 01FC           add.l      D0, 0x1FC
0000003E  6614                     bne        +0x16 /* 00000054 */
00000040  2F03                     move.l     -[A7], D3
00000042  700C                     moveq.l    D0, 0x0C
00000044  2F00                     move.l     -[A7], D0
00000046  4EAD 010A                jsr        [A5 + 0x10A /* export_29, CODE:1 @ 00001C0A */]
0000004A  588F                     addq.l     A7, 4
0000004C  261F                     move.l     D3, [A7]+
0000004E  4A80                     tst.l      D0
00000050  6602                     bne        +0x4 /* 00000054 */
00000052  7600                     moveq.l    D3, 0x00
label00000054:
00000054  4A03                     tst.b      D3
00000056  6712                     beq        +0x14 /* 0000006A */
00000058  296D F9BE 0204           move.l     [A4 + 0x204], [A5 - 0x642]
0000005E  7000                     moveq.l    D0, 0x00
00000060  2940 01FC                move.l     [A4 + 0x1FC], D0
00000064  2940 0200                move.l     [A4 + 0x200], D0
00000068  6002                     bra        +0x4 /* 0000006C */
label0000006A:
0000006A  7000                     moveq.l    D0, 0x00
label0000006C:
0000006C  200C                     move.l     D0, A4
0000006E  D0BC 0000 01FC           add.l      D0, 0x1FC
00000074  6002                     bra        +0x4 /* 00000078 */
label00000076:
00000076  200B                     move.l     D0, A3
label00000078:
00000078  2F2E 0018                move.l     -[A7], [A6 + 0x18]
0000007C  2F2E 0014                move.l     -[A7], [A6 + 0x14]
00000080  2F2E 0010                move.l     -[A7], [A6 + 0x10]
00000084  2F0B                     move.l     -[A7], A3
00000086  2F0C                     move.l     -[A7], A4
00000088  4EAD 1FBA                jsr        [A5 + 0x1FBA /* export_1011, CODE:37 @ 00001C8E */]
0000008C  296D F9C2 0060           move.l     [A4 + 0x60], [A5 - 0x63E]
00000092  296D F9C6 0088           move.l     [A4 + 0x88], [A5 - 0x63A]
00000098  296D F9CA 0070           move.l     [A4 + 0x70], [A5 - 0x636]
0000009E  206C 0064                movea.l    A0, [A4 + 0x64]
000000A2  216D F9CE 0008           move.l     [A0 + 0x8], [A5 - 0x632]
000000A8  7000                     moveq.l    D0, 0x00
000000AA  2940 01CC                move.l     [A4 + 0x1CC], D0
000000AE  196E 0027 01F5           move.b     [A4 + 0x1F5], [A6 + 0x27]
000000B4  196E 0023 01F1           move.b     [A4 + 0x1F1], [A6 + 0x23]
000000BA  196E 001F 01F0           move.b     [A4 + 0x1F0], [A6 + 0x1F]
000000C0  196E 002B 01FA           move.b     [A4 + 0x1FA], [A6 + 0x2B]
000000C6  422C 01FB                clr.b      [A4 + 0x1FB]
000000CA  4AAD F9D2                tst.l      [A5 - 0x62E]
000000CE  4FEF 0014                lea.l      A7, [A7 + 0x14]
000000D2  6624                     bne        +0x26 /* 000000F8 */
000000D4  0CAD 0000 0200 F29A      cmpi.l     [A5 - 0xD66], 0x200
000000DC  6D0E                     blt        +0x10 /* 000000EC */
000000DE  598F                     subq.l     A7, 4
000000E0  3F3C 3A9B                move.w     -[A7], 0x3A9B
000000E4  AA1E                     syscall    GetCIcon
000000E6  2B5F F9D2                move.l     [A5 - 0x62E], [A7]+
000000EA  600C                     bra        +0xE /* 000000F8 */
label000000EC:
000000EC  598F                     subq.l     A7, 4
000000EE  3F3C 3A9B                move.w     -[A7], 0x3A9B
000000F2  A9BC                     syscall    GetPicture
000000F4  2B5F F9D2                move.l     [A5 - 0x62E], [A7]+
label000000F8:
000000F8  206E 0018                movea.l    A0, [A6 + 0x18]
000000FC  43EE FFE8                lea.l      A1, [A6 - 0x18]
00000100  22D8                     move.l     [A1]+, [A0]+
00000102  22D8                     move.l     [A1]+, [A0]+
00000104  4A2C 01F1                tst.b      [A4 + 0x1F1]
00000108  6606                     bne        +0x8 /* 00000110 */
0000010A  046E 0010 FFEC           subi.w     [A6 - 0x14], 0x10
label00000110:
00000110  4A2C 01F0                tst.b      [A4 + 0x1F0]
00000114  6606                     bne        +0x8 /* 0000011C */
00000116  046E 0010 FFEE           subi.w     [A6 - 0x12], 0x10
label0000011C:
0000011C  41EE FFF0                lea.l      A0, [A6 - 0x10]
00000120  43EE FFE8                lea.l      A1, [A6 - 0x18]
00000124  20D9                     move.l     [A0]+, [A1]+
00000126  20D9                     move.l     [A0]+, [A1]+
00000128  302E 002E                move.w     D0, [A6 + 0x2E]
0000012C  D16E FFE8                add.w      [A6 - 0x18], D0
00000130  302E 0032                move.w     D0, [A6 + 0x32]
00000134  916E FFEC                sub.w      [A6 - 0x14], D0
00000138  302E 0036                move.w     D0, [A6 + 0x36]
0000013C  D16E FFEA                add.w      [A6 - 0x16], D0
00000140  302E 003A                move.w     D0, [A6 + 0x3A]
00000144  916E FFEE                sub.w      [A6 - 0x12], D0
00000148  397C 0004 01E0           move.w     [A4 + 0x1E0], 0x4
0000014E  397C 0003 01E2           move.w     [A4 + 0x1E2], 0x3
00000154  486E FFE8                pea.l      [A6 - 0x18]
00000158  3F2C 01E0                move.w     -[A7], [A4 + 0x1E0]
0000015C  3F2C 01E2                move.w     -[A7], [A4 + 0x1E2]
00000160  A8A9                     syscall    InsetRect
00000162  598F                     subq.l     A7, 4
00000164  A8D8                     syscall    NewRgn
00000166  295F 01DC                move.l     [A4 + 0x1DC], [A7]+
0000016A  660C                     bne        +0xE /* 00000178 */
0000016C  70FF                     moveq.l    D0, 0xFFFFFFFF
0000016E  2F00                     move.l     -[A7], D0
00000170  2F0C                     move.l     -[A7], A4
00000172  4EAD 14E2                jsr        [A5 + 0x14E2 /* export_664, CODE:32 @ 000007B8 */]
00000176  504F                     addq.w     A7, 8
label00000178:
00000178  2F2C 01DC                move.l     -[A7], [A4 + 0x1DC]
0000017C  486E FFE8                pea.l      [A6 - 0x18]
00000180  A8DF                     syscall    RectRgn
00000182  302E FFEE                move.w     D0, [A6 - 0x12]
00000186  906E FFEA                sub.w      D0, [A6 - 0x16]
0000018A  3940 01DA                move.w     [A4 + 0x1DA], D0
0000018E  302E FFEC                move.w     D0, [A6 - 0x14]
00000192  906E FFE8                sub.w      D0, [A6 - 0x18]
00000196  3940 01D8                move.w     [A4 + 0x1D8], D0
0000019A  41EE FFF8                lea.l      A0, [A6 - 0x8]
0000019E  43EE FFF0                lea.l      A1, [A6 - 0x10]
000001A2  20D9                     move.l     [A0]+, [A1]+
000001A4  20D9                     move.l     [A0]+, [A1]+
000001A6  4A2C 01FA                tst.b      [A4 + 0x1FA]
000001AA  6760                     beq        +0x62 /* 0000020C */
000001AC  41EC 01E4                lea.l      A0, [A4 + 0x1E4]
000001B0  43EE FFF0                lea.l      A1, [A6 - 0x10]
000001B4  20D9                     move.l     [A0]+, [A1]+
000001B6  20D9                     move.l     [A0]+, [A1]+
000001B8  7000                     moveq.l    D0, 0x00
000001BA  102C 01F0                move.b     D0, [A4 + 0x1F0]
000001BE  4A80                     tst.l      D0
000001C0  56C3                     sne        D3
000001C2  4403                     neg.b      D3
000001C4  4883                     ext.w      D3
000001C6  48C3                     ext.l      D3
000001C8  E983                     asl        D3, 4
000001CA  4883                     ext.w      D3
000001CC  302C 01EA                move.w     D0, [A4 + 0x1EA]
000001D0  9043                     sub.w      D0, D3
000001D2  3940 01E6                move.w     [A4 + 0x1E6], D0
000001D6  7000                     moveq.l    D0, 0x00
000001D8  102C 01F1                move.b     D0, [A4 + 0x1F1]
000001DC  4A80                     tst.l      D0
000001DE  56C3                     sne        D3
000001E0  4403                     neg.b      D3
000001E2  4883                     ext.w      D3
000001E4  48C3                     ext.l      D3
000001E6  E983                     asl        D3, 4
000001E8  4883                     ext.w      D3
000001EA  302C 01E8                move.w     D0, [A4 + 0x1E8]
000001EE  9043                     sub.w      D0, D3
000001F0  3940 01E4                move.w     [A4 + 0x1E4], D0
000001F4  302C 01E6                move.w     D0, [A4 + 0x1E6]
000001F8  D07C 0010                add.w      D0, 0x10
000001FC  3940 01EA                move.w     [A4 + 0x1EA], D0
00000200  302C 01E4                move.w     D0, [A4 + 0x1E4]
00000204  D07C 0010                add.w      D0, 0x10
00000208  3940 01E8                move.w     [A4 + 0x1E8], D0
label0000020C:
0000020C  4A2C 01F0                tst.b      [A4 + 0x1F0]
00000210  6668                     bne        +0x6A /* 0000027A */
00000212  3D6E FFFE FFFA           move.w     [A6 - 0x6], [A6 - 0x2]
00000218  066E 0010 FFFE           addi.w     [A6 - 0x2], 0x10
0000021E  4A2C 01FA                tst.b      [A4 + 0x1FA]
00000222  670C                     beq        +0xE /* 00000230 */
00000224  4A2C 01F1                tst.b      [A4 + 0x1F1]
00000228  6706                     beq        +0x8 /* 00000230 */
0000022A  046E 000F FFFC           subi.w     [A6 - 0x4], 0xF
label00000230:
00000230  7001                     moveq.l    D0, 0x01
00000232  2F00                     move.l     -[A7], D0
00000234  2F00                     move.l     -[A7], D0
00000236  2F00                     move.l     -[A7], D0
00000238  486E FFF8                pea.l      [A6 - 0x8]
0000023C  2F2E 0014                move.l     -[A7], [A6 + 0x14]
00000240  2F0C                     move.l     -[A7], A4
00000242  7200                     moveq.l    D1, 0x00
00000244  2F01                     move.l     -[A7], D1
00000246  2F01                     move.l     -[A7], D1
00000248  4EAD 203A                jsr        [A5 + 0x203A /* export_1027, CODE:37 @ 00002FD0 */]
0000024C  2940 01C4                move.l     [A4 + 0x1C4], D0
00000250  2040                     movea.l    A0, D0
00000252  317C 000C 0132           move.w     [A0 + 0x132], 0xC
00000258  302C 01D8                move.w     D0, [A4 + 0x1D8]
0000025C  907C 000C                sub.w      D0, 0xC
00000260  206C 01C4                movea.l    A0, [A4 + 0x1C4]
00000264  3140 0134                move.w     [A0 + 0x134], D0
00000268  41EE FFF8                lea.l      A0, [A6 - 0x8]
0000026C  43EE FFF0                lea.l      A1, [A6 - 0x10]
00000270  20D9                     move.l     [A0]+, [A1]+
00000272  20D9                     move.l     [A0]+, [A1]+
00000274  4FEF 0020                lea.l      A7, [A7 + 0x20]
00000278  6006                     bra        +0x8 /* 00000280 */
label0000027A:
0000027A  7000                     moveq.l    D0, 0x00
0000027C  2940 01C4                move.l     [A4 + 0x1C4], D0
label00000280:
00000280  4A2C 01F1                tst.b      [A4 + 0x1F1]
00000284  664A                     bne        +0x4C /* 000002D0 */
00000286  3D6E FFFC FFF8           move.w     [A6 - 0x8], [A6 - 0x4]
0000028C  066E 0010 FFFC           addi.w     [A6 - 0x4], 0x10
00000292  7001                     moveq.l    D0, 0x01
00000294  2F00                     move.l     -[A7], D0
00000296  2F00                     move.l     -[A7], D0
00000298  2F00                     move.l     -[A7], D0
0000029A  486E FFF8                pea.l      [A6 - 0x8]
0000029E  2F2E 0014                move.l     -[A7], [A6 + 0x14]
000002A2  2F0C                     move.l     -[A7], A4
000002A4  7200                     moveq.l    D1, 0x00
000002A6  2F01                     move.l     -[A7], D1
000002A8  2F01                     move.l     -[A7], D1
000002AA  4EAD 203A                jsr        [A5 + 0x203A /* export_1027, CODE:37 @ 00002FD0 */]
000002AE  2940 01C8                move.l     [A4 + 0x1C8], D0
000002B2  2040                     movea.l    A0, D0
000002B4  317C 000C 0132           move.w     [A0 + 0x132], 0xC
000002BA  302C 01DA                move.w     D0, [A4 + 0x1DA]
000002BE  907C 000C                sub.w      D0, 0xC
000002C2  206C 01C8                movea.l    A0, [A4 + 0x1C8]
000002C6  3140 0134                move.w     [A0 + 0x134], D0
000002CA  4FEF 0020                lea.l      A7, [A7 + 0x20]
000002CE  6006                     bra        +0x8 /* 000002D6 */
label000002D0:
000002D0  7000                     moveq.l    D0, 0x00
000002D2  2940 01C8                move.l     [A4 + 0x1C8], D0
label000002D6:
000002D6  422C 01F3                clr.b      [A4 + 0x1F3]
000002DA  197C 0001 01F6           move.b     [A4 + 0x1F6], 0x1
000002E0  42AC 01D4                clr.l      [A4 + 0x1D4]
000002E4  2F3C 0100 000F           move.l     -[A7], 0x100000F
000002EA  486C 00CC                pea.l      [A4 + 0xCC]
000002EE  4EAD 15C2                jsr        [A5 + 0x15C2 /* export_692, CODE:32 @ 000026A8 */]
000002F2  7000                     moveq.l    D0, 0x00
000002F4  2940 01EC                move.l     [A4 + 0x1EC], D0
000002F8  504F                     addq.w     A7, 8
label000002FA:
000002FA  200C                     move.l     D0, A4
000002FC  4CEE 1808 FFDC           movem.l    D3,A3,A4, [A6 - 0x24]
00000302  4E5E                     unlink     A6
00000304  4E75                     rts
00000306  8039 5F5F 6374 5F5F 3... dc.b       "__ct__16cScrollerDocItemFP6cAgentP7cWindowR4RectUcN34sN38"
export_1061:
00000344  4E56 0000                link       A6, 0
00000348  48E7 0018                movem.l    -[A7], A3,A4
0000034C  286E 0008                movea.l    A4, [A6 + 0x8]
00000350  2F2E 000C                move.l     -[A7], [A6 + 0xC]
00000354  2F0C                     move.l     -[A7], A4
00000356  4EAD 1FD2                jsr        [A5 + 0x1FD2 /* export_1014, CODE:37 @ 00002078 */]
0000035A  266C 01CC                movea.l    A3, [A4 + 0x1CC]
0000035E  504F                     addq.w     A7, 8
00000360  6024                     bra        +0x26 /* 00000386 */
label00000362:
00000362  486C 00CC                pea.l      [A4 + 0xCC]
00000366  7001                     moveq.l    D0, 0x01
00000368  2F00                     move.l     -[A7], D0
0000036A  204B                     movea.l    A0, A3
0000036C  226B 0008                movea.l    A1, [A3 + 0x8]
00000370  D0E9 0060                add.w      A0, [A1 + 0x60]
00000374  2F08                     move.l     -[A7], A0
00000376  2049                     movea.l    A0, A1
00000378  2268 0064                movea.l    A1, [A0 + 0x64]
0000037C  4E91                     jsr        [A1]
0000037E  266B 0004                movea.l    A3, [A3 + 0x4]
00000382  4FEF 000C                lea.l      A7, [A7 + 0xC]
label00000386:
00000386  200B                     move.l     D0, A3
00000388  66D8                     bne        -0x26 /* 00000362 */
0000038A  4CEE 1800 FFF8           movem.l    A3,A4, [A6 - 0x8]
00000390  4E5E                     unlink     A6
00000392  4E75                     rts
00000394  8027 5365 7443 6F6C 6... dc.b       "SetColor__16cScrollerDocItemFPP7CtlCTab"
export_1062:
000003C0  4E56 0000                link       A6, 0
000003C4  48E7 0018                movem.l    -[A7], A3,A4
000003C8  286E 0008                movea.l    A4, [A6 + 0x8]
000003CC  7000                     moveq.l    D0, 0x00
000003CE  102C 0098                move.b     D0, [A4 + 0x98]
000003D2  7201                     moveq.l    D1, 0x01
000003D4  C200                     and.b      D1, D0
000003D6  7000                     moveq.l    D0, 0x00
000003D8  1001                     move.b     D0, D1
000003DA  4A80                     tst.l      D0
000003DC  6600 0188                bne        +0x18A /* 00000566 */
000003E0  2F2C 0112                move.l     -[A7], [A4 + 0x112]
000003E4  4EAD 11E2                jsr        [A5 + 0x11E2 /* export_568, CODE:26 @ 000031FA */]
000003E8  0CAD 0000 0200 F29A      cmpi.l     [A5 - 0xD66], 0x200
000003F0  584F                     addq.w     A7, 4
000003F2  6D06                     blt        +0x8 /* 000003FA */
000003F4  486C 00CC                pea.l      [A4 + 0xCC]
000003F8  AA15                     syscall    RGBBackColor
label000003FA:
000003FA  7000                     moveq.l    D0, 0x00
000003FC  102C 0098                move.b     D0, [A4 + 0x98]
00000400  323C 0080                move.w     D1, 0x80
00000404  C200                     and.b      D1, D0
00000406  7000                     moveq.l    D0, 0x00
00000408  1001                     move.b     D0, D1
0000040A  4A80                     tst.l      D0
0000040C  6706                     beq        +0x8 /* 00000414 */
0000040E  486C 0090                pea.l      [A4 + 0x90]
00000412  A8A3                     syscall    EraseRect
label00000414:
00000414  2F0C                     move.l     -[A7], A4
00000416  4EAD 1FE2                jsr        [A5 + 0x1FE2 /* export_1016, CODE:37 @ 000021D0 */]
0000041A  2F2C 0102                move.l     -[A7], [A4 + 0x102]
0000041E  2F0C                     move.l     -[A7], A4
00000420  4EAD 1F6A                jsr        [A5 + 0x1F6A /* export_1001, CODE:37 @ 00001590 */]
00000424  4A2C 01F6                tst.b      [A4 + 0x1F6]
00000428  4FEF 000C                lea.l      A7, [A7 + 0xC]
0000042C  6708                     beq        +0xA /* 00000436 */
0000042E  2F0C                     move.l     -[A7], A4
00000430  4EBA 15FE                jsr        [PC + 0x15FE /* 00001A30 */]
00000434  584F                     addq.w     A7, 4
label00000436:
00000436  4A2C 01F1                tst.b      [A4 + 0x1F1]
0000043A  6626                     bne        +0x28 /* 00000462 */
0000043C  4AAC 01C8                tst.l      [A4 + 0x1C8]
00000440  6720                     beq        +0x22 /* 00000462 */
00000442  206C 01C8                movea.l    A0, [A4 + 0x1C8]
00000446  2248                     movea.l    A1, A0
00000448  2269 0060                movea.l    A1, [A1 + 0x60]
0000044C  D0E9 00E8                add.w      A0, [A1 + 0xE8]
00000450  2F08                     move.l     -[A7], A0
00000452  206C 01C8                movea.l    A0, [A4 + 0x1C8]
00000456  2068 0060                movea.l    A0, [A0 + 0x60]
0000045A  2268 00EC                movea.l    A1, [A0 + 0xEC]
0000045E  4E91                     jsr        [A1]
00000460  584F                     addq.w     A7, 4
label00000462:
00000462  4A2C 01F0                tst.b      [A4 + 0x1F0]
00000466  6626                     bne        +0x28 /* 0000048E */
00000468  4AAC 01C4                tst.l      [A4 + 0x1C4]
0000046C  6720                     beq        +0x22 /* 0000048E */
0000046E  206C 01C4                movea.l    A0, [A4 + 0x1C4]
00000472  2248                     movea.l    A1, A0
00000474  2269 0060                movea.l    A1, [A1 + 0x60]
00000478  D0E9 00E8                add.w      A0, [A1 + 0xE8]
0000047C  2F08                     move.l     -[A7], A0
0000047E  206C 01C4                movea.l    A0, [A4 + 0x1C4]
00000482  2068 0060                movea.l    A0, [A0 + 0x60]
00000486  2268 00EC                movea.l    A1, [A0 + 0xEC]
0000048A  4E91                     jsr        [A1]
0000048C  584F                     addq.w     A7, 4
label0000048E:
0000048E  4A2C 01FA                tst.b      [A4 + 0x1FA]
00000492  6720                     beq        +0x22 /* 000004B4 */
00000494  0CAD 0000 0200 F29A      cmpi.l     [A5 - 0xD66], 0x200
0000049C  6D0C                     blt        +0xE /* 000004AA */
0000049E  486C 01E4                pea.l      [A4 + 0x1E4]
000004A2  2F2D F9D2                move.l     -[A7], [A5 - 0x62E]
000004A6  AA1F                     syscall    PlotCIcon
000004A8  600A                     bra        +0xC /* 000004B4 */
label000004AA:
000004AA  2F2D F9D2                move.l     -[A7], [A5 - 0x62E]
000004AE  486C 01E4                pea.l      [A4 + 0x1E4]
000004B2  A8F6                     syscall    DrawPicture
label000004B4:
000004B4  7000                     moveq.l    D0, 0x00
000004B6  2F00                     move.l     -[A7], D0
000004B8  2F0C                     move.l     -[A7], A4
000004BA  4EAD 1F7A                jsr        [A5 + 0x1F7A /* export_1003, CODE:37 @ 00001612 */]
000004BE  2F2C 01DC                move.l     -[A7], [A4 + 0x1DC]
000004C2  2F0C                     move.l     -[A7], A4
000004C4  4EAD 1F6A                jsr        [A5 + 0x1F6A /* export_1001, CODE:37 @ 00001590 */]
000004C8  206C 01DC                movea.l    A0, [A4 + 0x1DC]
000004CC  2050                     movea.l    A0, [A0]
000004CE  3028 0002                move.w     D0, [A0 + 0x2]
000004D2  48C0                     ext.l      D0
000004D4  4480                     neg.l      D0
000004D6  322C 01D4                move.w     D1, [A4 + 0x1D4]
000004DA  D240                     add.w      D1, D0
000004DC  48C1                     ext.l      D1
000004DE  2F01                     move.l     -[A7], D1
000004E0  206C 01DC                movea.l    A0, [A4 + 0x1DC]
000004E4  2050                     movea.l    A0, [A0]
000004E6  3028 0004                move.w     D0, [A0 + 0x4]
000004EA  48C0                     ext.l      D0
000004EC  4480                     neg.l      D0
000004EE  322C 01D6                move.w     D1, [A4 + 0x1D6]
000004F2  D240                     add.w      D1, D0
000004F4  48C1                     ext.l      D1
000004F6  2F01                     move.l     -[A7], D1
000004F8  2F2C 0112                move.l     -[A7], [A4 + 0x112]
000004FC  4EAD 1202                jsr        [A5 + 0x1202 /* export_572, CODE:26 @ 000033B8 */]
00000500  266C 01CC                movea.l    A3, [A4 + 0x1CC]
00000504  200B                     move.l     D0, A3
00000506  4FEF 001C                lea.l      A7, [A7 + 0x1C]
0000050A  6724                     beq        +0x26 /* 00000530 */
0000050C  2F0B                     move.l     -[A7], A3
0000050E  4EAD 1D3A                jsr        [A5 + 0x1D3A /* export_931, CODE:36 @ 0000100A */]
00000512  2640                     movea.l    A3, D0
00000514  584F                     addq.w     A7, 4
00000516  6018                     bra        +0x1A /* 00000530 */
label00000518:
00000518  204B                     movea.l    A0, A3
0000051A  226B 0008                movea.l    A1, [A3 + 0x8]
0000051E  D0E9 0038                add.w      A0, [A1 + 0x38]
00000522  2F08                     move.l     -[A7], A0
00000524  2049                     movea.l    A0, A1
00000526  2268 003C                movea.l    A1, [A0 + 0x3C]
0000052A  4E91                     jsr        [A1]
0000052C  2653                     movea.l    A3, [A3]
0000052E  584F                     addq.w     A7, 4
label00000530:
00000530  200B                     move.l     D0, A3
00000532  66E4                     bne        -0x1A /* 00000518 */
00000534  204C                     movea.l    A0, A4
00000536  226C 0060                movea.l    A1, [A4 + 0x60]
0000053A  D0E9 0168                add.w      A0, [A1 + 0x168]
0000053E  2F08                     move.l     -[A7], A0
00000540  2049                     movea.l    A0, A1
00000542  2268 016C                movea.l    A1, [A0 + 0x16C]
00000546  4E91                     jsr        [A1]
00000548  2F2C 0112                move.l     -[A7], [A4 + 0x112]
0000054C  4EAD 120A                jsr        [A5 + 0x120A /* export_573, CODE:26 @ 00003404 */]
00000550  7000                     moveq.l    D0, 0x00
00000552  2F00                     move.l     -[A7], D0
00000554  2F0C                     move.l     -[A7], A4
00000556  4EAD 1F7A                jsr        [A5 + 0x1F7A /* export_1003, CODE:37 @ 00001612 */]
0000055A  2F2C 0112                move.l     -[A7], [A4 + 0x112]
0000055E  4EAD 11EA                jsr        [A5 + 0x11EA /* export_569, CODE:26 @ 00003268 */]
00000562  4FEF 0014                lea.l      A7, [A7 + 0x14]
label00000566:
00000566  4CEE 1800 FFF8           movem.l    A3,A4, [A6 - 0x8]
0000056C  4E5E                     unlink     A6
0000056E  4E75                     rts
00000570  9A44 7261 775F 5F31 3... dc.b       "Draw__16cScrollerDocItemFv"
export_1063:
0000058E  4E56 FFD0                link       A6, -0x0030
00000592  48E7 0718                movem.l    -[A7], D5,D6,D7,A3,A4
00000596  2A2E 0014                move.l     D5, [A6 + 0x14]
0000059A  2E2E 0010                move.l     D7, [A6 + 0x10]
0000059E  286E 0008                movea.l    A4, [A6 + 0x8]
000005A2  2F05                     move.l     -[A7], D5
000005A4  2F07                     move.l     -[A7], D7
000005A6  2F2E 000C                move.l     -[A7], [A6 + 0xC]
000005AA  2F0C                     move.l     -[A7], A4
000005AC  4EAD 1EBA                jsr        [A5 + 0x1EBA /* export_979, CODE:37 @ 00000FEC */]
000005B0  4A2C 01F0                tst.b      [A4 + 0x1F0]
000005B4  4FEF 0010                lea.l      A7, [A7 + 0x10]
000005B8  6642                     bne        +0x44 /* 000005FC */
000005BA  558F                     subq.l     A7, 2
000005BC  2F2E 000C                move.l     -[A7], [A6 + 0xC]
000005C0  206C 01C4                movea.l    A0, [A4 + 0x1C4]
000005C4  4868 0090                pea.l      [A0 + 0x90]
000005C8  A8AD                     syscall    PtInRect
000005CA  4A1F                     tst.b      [A7]+
000005CC  672E                     beq        +0x30 /* 000005FC */
000005CE  2F05                     move.l     -[A7], D5
000005D0  2F07                     move.l     -[A7], D7
000005D2  2F2E 000C                move.l     -[A7], [A6 + 0xC]
000005D6  206C 01C4                movea.l    A0, [A4 + 0x1C4]
000005DA  2248                     movea.l    A1, A0
000005DC  2269 0060                movea.l    A1, [A1 + 0x60]
000005E0  D0E9 0068                add.w      A0, [A1 + 0x68]
000005E4  2F08                     move.l     -[A7], A0
000005E6  206C 01C4                movea.l    A0, [A4 + 0x1C4]
000005EA  2068 0060                movea.l    A0, [A0 + 0x60]
000005EE  2268 006C                movea.l    A1, [A0 + 0x6C]
000005F2  4E91                     jsr        [A1]
000005F4  4FEF 0010                lea.l      A7, [A7 + 0x10]
000005F8  6000 056C                bra        +0x56E /* 00000B66 */
label000005FC:
000005FC  4A2C 01F1                tst.b      [A4 + 0x1F1]
00000600  6642                     bne        +0x44 /* 00000644 */
00000602  558F                     subq.l     A7, 2
00000604  2F2E 000C                move.l     -[A7], [A6 + 0xC]
00000608  206C 01C8                movea.l    A0, [A4 + 0x1C8]
0000060C  4868 0090                pea.l      [A0 + 0x90]
00000610  A8AD                     syscall    PtInRect
00000612  4A1F                     tst.b      [A7]+
00000614  672E                     beq        +0x30 /* 00000644 */
00000616  2F05                     move.l     -[A7], D5
00000618  2F07                     move.l     -[A7], D7
0000061A  2F2E 000C                move.l     -[A7], [A6 + 0xC]
0000061E  206C 01C8                movea.l    A0, [A4 + 0x1C8]
00000622  2248                     movea.l    A1, A0
00000624  2269 0060                movea.l    A1, [A1 + 0x60]
00000628  D0E9 0068                add.w      A0, [A1 + 0x68]
0000062C  2F08                     move.l     -[A7], A0
0000062E  206C 01C8                movea.l    A0, [A4 + 0x1C8]
00000632  2068 0060                movea.l    A0, [A0 + 0x60]
00000636  2268 006C                movea.l    A1, [A0 + 0x6C]
0000063A  4E91                     jsr        [A1]
0000063C  4FEF 0010                lea.l      A7, [A7 + 0x10]
00000640  6000 0524                bra        +0x526 /* 00000B66 */
label00000644:
00000644  4A2C 01FA                tst.b      [A4 + 0x1FA]
00000648  6700 012A                beq        +0x12C /* 00000774 */
0000064C  558F                     subq.l     A7, 2
0000064E  2F2E 000C                move.l     -[A7], [A6 + 0xC]
00000652  486C 01E4                pea.l      [A4 + 0x1E4]
00000656  A8AD                     syscall    PtInRect
00000658  4A1F                     tst.b      [A7]+
0000065A  6700 0118                beq        +0x11A /* 00000774 */
0000065E  2F2C 0112                move.l     -[A7], [A4 + 0x112]
00000662  4EAD 11E2                jsr        [A5 + 0x11E2 /* export_568, CODE:26 @ 000031FA */]
00000666  2D6E 000C FFDC           move.l     [A6 - 0x24], [A6 + 0xC]
0000066C  486E FFDC                pea.l      [A6 - 0x24]
00000670  A870                     syscall    LocalToGlobal
00000672  7000                     moveq.l    D0, 0x00
00000674  2F00                     move.l     -[A7], D0
00000676  4EAD 1DAA                jsr        [A5 + 0x1DAA /* export_945, CODE:36 @ 000017DA */]
0000067A  2640                     movea.l    A3, D0
0000067C  41EE FFE0                lea.l      A0, [A6 - 0x20]
00000680  43EC 0090                lea.l      A1, [A4 + 0x90]
00000684  20D9                     move.l     [A0]+, [A1]+
00000686  20D9                     move.l     [A0]+, [A1]+
00000688  486E FFE0                pea.l      [A6 - 0x20]
0000068C  70FE                     moveq.l    D0, 0xFFFFFFFE
0000068E  3F00                     move.w     -[A7], D0
00000690  3F00                     move.w     -[A7], D0
00000692  A8A9                     syscall    InsetRect
00000694  486E FFE0                pea.l      [A6 - 0x20]
00000698  4EAD 18A2                jsr        [A5 + 0x18A2 /* export_784, CODE:32 @ 00006364 */]
0000069C  486E FFE0                pea.l      [A6 - 0x20]
000006A0  2F0B                     move.l     -[A7], A3
000006A2  4EAD 1DB2                jsr        [A5 + 0x1DB2 /* export_946, CODE:36 @ 000018B6 */]
000006A6  41EE FFE0                lea.l      A0, [A6 - 0x20]
000006AA  43EC 01E4                lea.l      A1, [A4 + 0x1E4]
000006AE  20D9                     move.l     [A0]+, [A1]+
000006B0  20D9                     move.l     [A0]+, [A1]+
000006B2  486E FFE0                pea.l      [A6 - 0x20]
000006B6  4EAD 18A2                jsr        [A5 + 0x18A2 /* export_784, CODE:32 @ 00006364 */]
000006BA  486E FFE0                pea.l      [A6 - 0x20]
000006BE  2F0B                     move.l     -[A7], A3
000006C0  4EAD 1DB2                jsr        [A5 + 0x1DB2 /* export_946, CODE:36 @ 000018B6 */]
000006C4  206C 0112                movea.l    A0, [A4 + 0x112]
000006C8  2068 0084                movea.l    A0, [A0 + 0x84]
000006CC  43EE FFE0                lea.l      A1, [A6 - 0x20]
000006D0  41E8 0010                lea.l      A0, [A0 + 0x10]
000006D4  22D8                     move.l     [A1]+, [A0]+
000006D6  22D8                     move.l     [A1]+, [A0]+
000006D8  486E FFE0                pea.l      [A6 - 0x20]
000006DC  4EAD 18A2                jsr        [A5 + 0x18A2 /* export_784, CODE:32 @ 00006364 */]
000006E0  486E FFE0                pea.l      [A6 - 0x20]
000006E4  2F0B                     move.l     -[A7], A3
000006E6  4EAD 1DB2                jsr        [A5 + 0x1DB2 /* export_946, CODE:36 @ 000018B6 */]
000006EA  2F2C 0112                move.l     -[A7], [A4 + 0x112]
000006EE  4EAD 11EA                jsr        [A5 + 0x11EA /* export_569, CODE:26 @ 00003268 */]
000006F2  41EE FFE8                lea.l      A0, [A6 - 0x18]
000006F6  43EC 0090                lea.l      A1, [A4 + 0x90]
000006FA  20D9                     move.l     [A0]+, [A1]+
000006FC  20D9                     move.l     [A0]+, [A1]+
000006FE  206C 0112                movea.l    A0, [A4 + 0x112]
00000702  4868 0094                pea.l      [A0 + 0x94]
00000706  7000                     moveq.l    D0, 0x00
00000708  102C 01F9                move.b     D0, [A4 + 0x1F9]
0000070C  2F00                     move.l     -[A7], D0
0000070E  7000                     moveq.l    D0, 0x00
00000710  102C 01F8                move.b     D0, [A4 + 0x1F8]
00000714  2F00                     move.l     -[A7], D0
00000716  2F0B                     move.l     -[A7], A3
00000718  2F2E FFDC                move.l     -[A7], [A6 - 0x24]
0000071C  486C 0068                pea.l      [A4 + 0x68]
00000720  4EAD 15EA                jsr        [A5 + 0x15EA /* export_697, CODE:32 @ 00002C5E */]
00000724  2D40 FFF0                move.l     [A6 - 0x10], D0
00000728  486E FFE8                pea.l      [A6 - 0x18]
0000072C  2F0C                     move.l     -[A7], A4
0000072E  2F3C 4742 5445           move.l     -[A7], 0x47425445 /* 'GBTE' */
00000734  204C                     movea.l    A0, A4
00000736  226C 0060                movea.l    A1, [A4 + 0x60]
0000073A  D0E9 0058                add.w      A0, [A1 + 0x58]
0000073E  2F08                     move.l     -[A7], A0
00000740  2049                     movea.l    A0, A1
00000742  2268 005C                movea.l    A1, [A0 + 0x5C]
00000746  4E91                     jsr        [A1]
00000748  200B                     move.l     D0, A3
0000074A  671E                     beq        +0x20 /* 0000076A */
0000074C  7003                     moveq.l    D0, 0x03
0000074E  2F00                     move.l     -[A7], D0
00000750  204B                     movea.l    A0, A3
00000752  226B 0008                movea.l    A1, [A3 + 0x8]
00000756  D0E9 0030                add.w      A0, [A1 + 0x30]
0000075A  2F08                     move.l     -[A7], A0
0000075C  2049                     movea.l    A0, A1
0000075E  2268 0034                movea.l    A1, [A0 + 0x34]
00000762  4E91                     jsr        [A1]
00000764  7000                     moveq.l    D0, 0x00
00000766  504F                     addq.w     A7, 8
00000768  6002                     bra        +0x4 /* 0000076C */
label0000076A:
0000076A  7000                     moveq.l    D0, 0x00
label0000076C:
0000076C  4FEF 0058                lea.l      A7, [A7 + 0x58]
00000770  6000 03F4                bra        +0x3F6 /* 00000B66 */
label00000774:
00000774  558F                     subq.l     A7, 2
00000776  2F2E 000C                move.l     -[A7], [A6 + 0xC]
0000077A  2F2C 01DC                move.l     -[A7], [A4 + 0x1DC]
0000077E  A8E8                     syscall    PtInRgn
00000780  4A1F                     tst.b      [A7]+
00000782  6700 03E2                beq        +0x3E4 /* 00000B66 */
00000786  4A2C 01F5                tst.b      [A4 + 0x1F5]
0000078A  6700 03DA                beq        +0x3DC /* 00000B66 */
0000078E  7000                     moveq.l    D0, 0x00
00000790  102C 0098                move.b     D0, [A4 + 0x98]
00000794  7208                     moveq.l    D1, 0x08
00000796  C200                     and.b      D1, D0
00000798  7000                     moveq.l    D0, 0x00
0000079A  1001                     move.b     D0, D1
0000079C  4A80                     tst.l      D0
0000079E  6650                     bne        +0x52 /* 000007F0 */
000007A0  204C                     movea.l    A0, A4
000007A2  226C 0060                movea.l    A1, [A4 + 0x60]
000007A6  D0E9 00F0                add.w      A0, [A1 + 0xF0]
000007AA  2F08                     move.l     -[A7], A0
000007AC  2049                     movea.l    A0, A1
000007AE  2268 00F4                movea.l    A1, [A0 + 0xF4]
000007B2  4E91                     jsr        [A1]
000007B4  2F0C                     move.l     -[A7], A4
000007B6  2F3C 4742 5447           move.l     -[A7], 0x47425447 /* 'GBTG' */
000007BC  204C                     movea.l    A0, A4
000007BE  226C 0060                movea.l    A1, [A4 + 0x60]
000007C2  D0E9 0060                add.w      A0, [A1 + 0x60]
000007C6  2F08                     move.l     -[A7], A0
000007C8  2049                     movea.l    A0, A1
000007CA  2268 0064                movea.l    A1, [A0 + 0x64]
000007CE  4E91                     jsr        [A1]
000007D0  2F0C                     move.l     -[A7], A4
000007D2  2F3C 4742 544D           move.l     -[A7], 0x4742544D /* 'GBTM' */
000007D8  204C                     movea.l    A0, A4
000007DA  226C 0060                movea.l    A1, [A4 + 0x60]
000007DE  D0E9 0060                add.w      A0, [A1 + 0x60]
000007E2  2F08                     move.l     -[A7], A0
000007E4  2049                     movea.l    A0, A1
000007E6  2268 0064                movea.l    A1, [A0 + 0x64]
000007EA  4E91                     jsr        [A1]
000007EC  4FEF 001C                lea.l      A7, [A7 + 0x1C]
label000007F0:
000007F0  7000                     moveq.l    D0, 0x00
000007F2  2D40 FFEC                move.l     [A6 - 0x14], D0
000007F6  2F2C 0112                move.l     -[A7], [A4 + 0x112]
000007FA  4EAD 11E2                jsr        [A5 + 0x11E2 /* export_568, CODE:26 @ 000031FA */]
000007FE  2F2C 01DC                move.l     -[A7], [A4 + 0x1DC]
00000802  2F0C                     move.l     -[A7], A4
00000804  4EAD 1F6A                jsr        [A5 + 0x1F6A /* export_1001, CODE:37 @ 00001590 */]
00000808  266C 01CC                movea.l    A3, [A4 + 0x1CC]
0000080C  2D6E 000C FFF0           move.l     [A6 - 0x10], [A6 + 0xC]
00000812  486E FFF0                pea.l      [A6 - 0x10]
00000816  A870                     syscall    LocalToGlobal
00000818  206C 01DC                movea.l    A0, [A4 + 0x1DC]
0000081C  2050                     movea.l    A0, [A0]
0000081E  3028 0002                move.w     D0, [A0 + 0x2]
00000822  48C0                     ext.l      D0
00000824  4480                     neg.l      D0
00000826  322C 01D4                move.w     D1, [A4 + 0x1D4]
0000082A  D240                     add.w      D1, D0
0000082C  48C1                     ext.l      D1
0000082E  2F01                     move.l     -[A7], D1
00000830  206C 01DC                movea.l    A0, [A4 + 0x1DC]
00000834  2050                     movea.l    A0, [A0]
00000836  3028 0004                move.w     D0, [A0 + 0x4]
0000083A  48C0                     ext.l      D0
0000083C  4480                     neg.l      D0
0000083E  322C 01D6                move.w     D1, [A4 + 0x1D6]
00000842  D240                     add.w      D1, D0
00000844  48C1                     ext.l      D1
00000846  2F01                     move.l     -[A7], D1
00000848  2F2C 0112                move.l     -[A7], [A4 + 0x112]
0000084C  4EAD 1202                jsr        [A5 + 0x1202 /* export_572, CODE:26 @ 000033B8 */]
00000850  486E FFF0                pea.l      [A6 - 0x10]
00000854  A871                     syscall    GlobalToLocal
00000856  4206                     clr.b      D6
00000858  4FEF 0018                lea.l      A7, [A7 + 0x18]
0000085C  6000 025E                bra        +0x260 /* 00000ABC */
label00000860:
00000860  7000                     moveq.l    D0, 0x00
00000862  102B 0018                move.b     D0, [A3 + 0x18]
00000866  7220                     moveq.l    D1, 0x20
00000868  C200                     and.b      D1, D0
0000086A  7000                     moveq.l    D0, 0x00
0000086C  1001                     move.b     D0, D1
0000086E  4A80                     tst.l      D0
00000870  675A                     beq        +0x5C /* 000008CC */
00000872  4A06                     tst.b      D6
00000874  6600 0242                bne        +0x244 /* 00000AB8 */
00000878  558F                     subq.l     A7, 2
0000087A  2F2E FFF0                move.l     -[A7], [A6 - 0x10]
0000087E  486B 0010                pea.l      [A3 + 0x10]
00000882  A8AD                     syscall    PtInRect
00000884  4A1F                     tst.b      [A7]+
00000886  6700 0230                beq        +0x232 /* 00000AB8 */
0000088A  200B                     move.l     D0, A3
0000088C  6708                     beq        +0xA /* 00000896 */
0000088E  200B                     move.l     D0, A3
00000890  7280                     moveq.l    D1, 0xFFFFFF80
00000892  D081                     add.l      D0, D1
00000894  6002                     bra        +0x4 /* 00000898 */
label00000896:
00000896  7000                     moveq.l    D0, 0x00
label00000898:
00000898  2D40 FFD0                move.l     [A6 - 0x30], D0
0000089C  2F05                     move.l     -[A7], D5
0000089E  2F07                     move.l     -[A7], D7
000008A0  2F2E FFF0                move.l     -[A7], [A6 - 0x10]
000008A4  206E FFD0                movea.l    A0, [A6 - 0x30]
000008A8  2248                     movea.l    A1, A0
000008AA  2269 0060                movea.l    A1, [A1 + 0x60]
000008AE  D0E9 0068                add.w      A0, [A1 + 0x68]
000008B2  2F08                     move.l     -[A7], A0
000008B4  206E FFD0                movea.l    A0, [A6 - 0x30]
000008B8  2068 0060                movea.l    A0, [A0 + 0x60]
000008BC  2268 006C                movea.l    A1, [A0 + 0x6C]
000008C0  4E91                     jsr        [A1]
000008C2  7C01                     moveq.l    D6, 0x01
000008C4  4FEF 0010                lea.l      A7, [A7 + 0x10]
000008C8  6000 01EE                bra        +0x1F0 /* 00000AB8 */
label000008CC:
000008CC  41EE FFD4                lea.l      A0, [A6 - 0x2C]
000008D0  43EB 0010                lea.l      A1, [A3 + 0x10]
000008D4  20D9                     move.l     [A0]+, [A1]+
000008D6  20D9                     move.l     [A0]+, [A1]+
000008D8  486E FFD4                pea.l      [A6 - 0x2C]
000008DC  206C 01DC                movea.l    A0, [A4 + 0x1DC]
000008E0  2050                     movea.l    A0, [A0]
000008E2  3028 0004                move.w     D0, [A0 + 0x4]
000008E6  906C 01D6                sub.w      D0, [A4 + 0x1D6]
000008EA  3F00                     move.w     -[A7], D0
000008EC  206C 01DC                movea.l    A0, [A4 + 0x1DC]
000008F0  2050                     movea.l    A0, [A0]
000008F2  3028 0002                move.w     D0, [A0 + 0x2]
000008F6  906C 01D4                sub.w      D0, [A4 + 0x1D4]
000008FA  3F00                     move.w     -[A7], D0
000008FC  A8A8                     syscall    OffsetRect
000008FE  4A06                     tst.b      D6
00000900  6600 0132                bne        +0x134 /* 00000A34 */
00000904  558F                     subq.l     A7, 2
00000906  2F2E FFF0                move.l     -[A7], [A6 - 0x10]
0000090A  486B 0010                pea.l      [A3 + 0x10]
0000090E  A8AD                     syscall    PtInRect
00000910  4A1F                     tst.b      [A7]+
00000912  6700 0120                beq        +0x122 /* 00000A34 */
00000916  7001                     moveq.l    D0, 0x01
00000918  B06C 011A                cmp.w      D0, [A4 + 0x11A]
0000091C  6C62                     bge        +0x64 /* 00000980 */
0000091E  204B                     movea.l    A0, A3
00000920  226B 0008                movea.l    A1, [A3 + 0x8]
00000924  D0E9 00A8                add.w      A0, [A1 + 0xA8]
00000928  2F08                     move.l     -[A7], A0
0000092A  2049                     movea.l    A0, A1
0000092C  2268 00AC                movea.l    A1, [A0 + 0xAC]
00000930  4E91                     jsr        [A1]
00000932  2F2C 0120                move.l     -[A7], [A4 + 0x120]
00000936  486E FFD4                pea.l      [A6 - 0x2C]
0000093A  A8DF                     syscall    RectRgn
0000093C  2F2C 0120                move.l     -[A7], [A4 + 0x120]
00000940  2F0C                     move.l     -[A7], A4
00000942  4EAD 1F02                jsr        [A5 + 0x1F02 /* export_988, CODE:37 @ 00001218 */]
00000946  7000                     moveq.l    D0, 0x00
00000948  2F00                     move.l     -[A7], D0
0000094A  2F00                     move.l     -[A7], D0
0000094C  2F2C 0112                move.l     -[A7], [A4 + 0x112]
00000950  4EAD 1202                jsr        [A5 + 0x1202 /* export_572, CODE:26 @ 000033B8 */]
00000954  2F0B                     move.l     -[A7], A3
00000956  2F3C 4742 5442           move.l     -[A7], 0x47425442 /* 'GBTB' */
0000095C  204C                     movea.l    A0, A4
0000095E  226C 0060                movea.l    A1, [A4 + 0x60]
00000962  D0E9 0060                add.w      A0, [A1 + 0x60]
00000966  2F08                     move.l     -[A7], A0
00000968  2049                     movea.l    A0, A1
0000096A  2268 0064                movea.l    A1, [A0 + 0x64]
0000096E  4E91                     jsr        [A1]
00000970  2F2C 0112                move.l     -[A7], [A4 + 0x112]
00000974  4EAD 120A                jsr        [A5 + 0x120A /* export_573, CODE:26 @ 00003404 */]
00000978  4FEF 0028                lea.l      A7, [A7 + 0x28]
0000097C  6000 013A                bra        +0x13C /* 00000AB8 */
label00000980:
00000980  7000                     moveq.l    D0, 0x00
00000982  102B 0018                move.b     D0, [A3 + 0x18]
00000986  7204                     moveq.l    D1, 0x04
00000988  C200                     and.b      D1, D0
0000098A  7000                     moveq.l    D0, 0x00
0000098C  1001                     move.b     D0, D1
0000098E  4A80                     tst.l      D0
00000990  6634                     bne        +0x36 /* 000009C6 */
00000992  204B                     movea.l    A0, A3
00000994  226B 0008                movea.l    A1, [A3 + 0x8]
00000998  D0E9 00A8                add.w      A0, [A1 + 0xA8]
0000099C  2F08                     move.l     -[A7], A0
0000099E  2049                     movea.l    A0, A1
000009A0  2268 00AC                movea.l    A1, [A0 + 0xAC]
000009A4  4E91                     jsr        [A1]
000009A6  2F2C 0120                move.l     -[A7], [A4 + 0x120]
000009AA  486E FFD4                pea.l      [A6 - 0x2C]
000009AE  A8DF                     syscall    RectRgn
000009B0  2F2C 0120                move.l     -[A7], [A4 + 0x120]
000009B4  2F0C                     move.l     -[A7], A4
000009B6  4EAD 1F02                jsr        [A5 + 0x1F02 /* export_988, CODE:37 @ 00001218 */]
000009BA  2D4B FFEC                move.l     [A6 - 0x14], A3
000009BE  4FEF 000C                lea.l      A7, [A7 + 0xC]
000009C2  6000 00F4                bra        +0xF6 /* 00000AB8 */
label000009C6:
000009C6  203C 0000 0300           move.l     D0, 0x300
000009CC  C087                     and.l      D0, D7
000009CE  6700 00E8                beq        +0xEA /* 00000AB8 */
000009D2  204B                     movea.l    A0, A3
000009D4  226B 0008                movea.l    A1, [A3 + 0x8]
000009D8  D0E9 00B0                add.w      A0, [A1 + 0xB0]
000009DC  2F08                     move.l     -[A7], A0
000009DE  2049                     movea.l    A0, A1
000009E0  2268 00B4                movea.l    A1, [A0 + 0xB4]
000009E4  4E91                     jsr        [A1]
000009E6  2F2C 0120                move.l     -[A7], [A4 + 0x120]
000009EA  486E FFD4                pea.l      [A6 - 0x2C]
000009EE  A8DF                     syscall    RectRgn
000009F0  2F2C 0120                move.l     -[A7], [A4 + 0x120]
000009F4  2F0C                     move.l     -[A7], A4
000009F6  4EAD 1F02                jsr        [A5 + 0x1F02 /* export_988, CODE:37 @ 00001218 */]
000009FA  7000                     moveq.l    D0, 0x00
000009FC  2F00                     move.l     -[A7], D0
000009FE  2F00                     move.l     -[A7], D0
00000A00  2F2C 0112                move.l     -[A7], [A4 + 0x112]
00000A04  4EAD 1202                jsr        [A5 + 0x1202 /* export_572, CODE:26 @ 000033B8 */]
00000A08  2F0B                     move.l     -[A7], A3
00000A0A  2F3C 4742 544B           move.l     -[A7], 0x4742544B /* 'GBTK' */
00000A10  204C                     movea.l    A0, A4
00000A12  226C 0060                movea.l    A1, [A4 + 0x60]
00000A16  D0E9 0060                add.w      A0, [A1 + 0x60]
00000A1A  2F08                     move.l     -[A7], A0
00000A1C  2049                     movea.l    A0, A1
00000A1E  2268 0064                movea.l    A1, [A0 + 0x64]
00000A22  4E91                     jsr        [A1]
00000A24  2F2C 0112                move.l     -[A7], [A4 + 0x112]
00000A28  4EAD 120A                jsr        [A5 + 0x120A /* export_573, CODE:26 @ 00003404 */]
00000A2C  4FEF 0028                lea.l      A7, [A7 + 0x28]
00000A30  6000 0086                bra        +0x88 /* 00000AB8 */
label00000A34:
00000A34  203C 0000 0200           move.l     D0, 0x200
00000A3A  C087                     and.l      D0, D7
00000A3C  667A                     bne        +0x7C /* 00000AB8 */
00000A3E  7000                     moveq.l    D0, 0x00
00000A40  102B 0018                move.b     D0, [A3 + 0x18]
00000A44  7204                     moveq.l    D1, 0x04
00000A46  C200                     and.b      D1, D0
00000A48  7000                     moveq.l    D0, 0x00
00000A4A  1001                     move.b     D0, D1
00000A4C  4A80                     tst.l      D0
00000A4E  6768                     beq        +0x6A /* 00000AB8 */
00000A50  203C 0000 0100           move.l     D0, 0x100
00000A56  C087                     and.l      D0, D7
00000A58  665E                     bne        +0x60 /* 00000AB8 */
00000A5A  204B                     movea.l    A0, A3
00000A5C  226B 0008                movea.l    A1, [A3 + 0x8]
00000A60  D0E9 00B0                add.w      A0, [A1 + 0xB0]
00000A64  2F08                     move.l     -[A7], A0
00000A66  2049                     movea.l    A0, A1
00000A68  2268 00B4                movea.l    A1, [A0 + 0xB4]
00000A6C  4E91                     jsr        [A1]
00000A6E  2F2C 0120                move.l     -[A7], [A4 + 0x120]
00000A72  486E FFD4                pea.l      [A6 - 0x2C]
00000A76  A8DF                     syscall    RectRgn
00000A78  2F2C 0120                move.l     -[A7], [A4 + 0x120]
00000A7C  2F0C                     move.l     -[A7], A4
00000A7E  4EAD 1F02                jsr        [A5 + 0x1F02 /* export_988, CODE:37 @ 00001218 */]
00000A82  7000                     moveq.l    D0, 0x00
00000A84  2F00                     move.l     -[A7], D0
00000A86  2F00                     move.l     -[A7], D0
00000A88  2F2C 0112                move.l     -[A7], [A4 + 0x112]
00000A8C  4EAD 1202                jsr        [A5 + 0x1202 /* export_572, CODE:26 @ 000033B8 */]
00000A90  2F0B                     move.l     -[A7], A3
00000A92  2F3C 4742 544B           move.l     -[A7], 0x4742544B /* 'GBTK' */
00000A98  204C                     movea.l    A0, A4
00000A9A  226C 0060                movea.l    A1, [A4 + 0x60]
00000A9E  D0E9 0060                add.w      A0, [A1 + 0x60]
00000AA2  2F08                     move.l     -[A7], A0
00000AA4  2049                     movea.l    A0, A1
00000AA6  2268 0064                movea.l    A1, [A0 + 0x64]
00000AAA  4E91                     jsr        [A1]
00000AAC  2F2C 0112                move.l     -[A7], [A4 + 0x112]
00000AB0  4EAD 120A                jsr        [A5 + 0x120A /* export_573, CODE:26 @ 00003404 */]
00000AB4  4FEF 0028                lea.l      A7, [A7 + 0x28]
label00000AB8:
00000AB8  266B 0004                movea.l    A3, [A3 + 0x4]
label00000ABC:
00000ABC  200B                     move.l     D0, A3
00000ABE  6600 FDA0                bne        -0x25E /* 00000860 */
00000AC2  4AAE FFEC                tst.l      [A6 - 0x14]
00000AC6  673A                     beq        +0x3C /* 00000B02 */
00000AC8  7000                     moveq.l    D0, 0x00
00000ACA  2F00                     move.l     -[A7], D0
00000ACC  2F00                     move.l     -[A7], D0
00000ACE  2F2C 0112                move.l     -[A7], [A4 + 0x112]
00000AD2  4EAD 1202                jsr        [A5 + 0x1202 /* export_572, CODE:26 @ 000033B8 */]
00000AD6  2F2E FFEC                move.l     -[A7], [A6 - 0x14]
00000ADA  2F3C 4742 5443           move.l     -[A7], 0x47425443 /* 'GBTC' */
00000AE0  204C                     movea.l    A0, A4
00000AE2  226C 0060                movea.l    A1, [A4 + 0x60]
00000AE6  D0E9 0060                add.w      A0, [A1 + 0x60]
00000AEA  2F08                     move.l     -[A7], A0
00000AEC  2049                     movea.l    A0, A1
00000AEE  2268 0064                movea.l    A1, [A0 + 0x64]
00000AF2  4E91                     jsr        [A1]
00000AF4  2F2C 0112                move.l     -[A7], [A4 + 0x112]
00000AF8  4EAD 120A                jsr        [A5 + 0x120A /* export_573, CODE:26 @ 00003404 */]
00000AFC  4FEF 001C                lea.l      A7, [A7 + 0x1C]
00000B00  6046                     bra        +0x48 /* 00000B48 */
label00000B02:
00000B02  7000                     moveq.l    D0, 0x00
00000B04  2F00                     move.l     -[A7], D0
00000B06  2F00                     move.l     -[A7], D0
00000B08  2F2C 0112                move.l     -[A7], [A4 + 0x112]
00000B0C  4EAD 1202                jsr        [A5 + 0x1202 /* export_572, CODE:26 @ 000033B8 */]
00000B10  2D6E FFF0 FFF4           move.l     [A6 - 0xC], [A6 - 0x10]
00000B16  2D45 FFF8                move.l     [A6 - 0x8], D5
00000B1A  2D47 FFFC                move.l     [A6 - 0x4], D7
00000B1E  486E FFF4                pea.l      [A6 - 0xC]
00000B22  2F3C 4742 5452           move.l     -[A7], 0x47425452 /* 'GBTR' */
00000B28  204C                     movea.l    A0, A4
00000B2A  226C 0060                movea.l    A1, [A4 + 0x60]
00000B2E  D0E9 0060                add.w      A0, [A1 + 0x60]
00000B32  2F08                     move.l     -[A7], A0
00000B34  2049                     movea.l    A0, A1
00000B36  2268 0064                movea.l    A1, [A0 + 0x64]
00000B3A  4E91                     jsr        [A1]
00000B3C  2F2C 0112                move.l     -[A7], [A4 + 0x112]
00000B40  4EAD 120A                jsr        [A5 + 0x120A /* export_573, CODE:26 @ 00003404 */]
00000B44  4FEF 001C                lea.l      A7, [A7 + 0x1C]
label00000B48:
00000B48  2F2C 0112                move.l     -[A7], [A4 + 0x112]
00000B4C  4EAD 120A                jsr        [A5 + 0x120A /* export_573, CODE:26 @ 00003404 */]
00000B50  7001                     moveq.l    D0, 0x01
00000B52  2F00                     move.l     -[A7], D0
00000B54  2F0C                     move.l     -[A7], A4
00000B56  4EAD 1F7A                jsr        [A5 + 0x1F7A /* export_1003, CODE:37 @ 00001612 */]
00000B5A  2F2C 0112                move.l     -[A7], [A4 + 0x112]
00000B5E  4EAD 11EA                jsr        [A5 + 0x11EA /* export_569, CODE:26 @ 00003268 */]
00000B62  4FEF 0010                lea.l      A7, [A7 + 0x10]
label00000B66:
00000B66  4CEE 18E0 FFBC           movem.l    D5,D6,D7,A3,A4, [A6 - 0x44]
00000B6C  4E5E                     unlink     A6
00000B6E  4E75                     rts
00000B70  8027 4D6F 7573 6544 6... dc.b       "MouseDown__16cScrollerDocItemF5PointlT2"
export_1064:
00000B9C  4E56 FFEC                link       A6, -0x0014
00000BA0  48E7 0318                movem.l    -[A7], D6,D7,A3,A4
00000BA4  266E 000C                movea.l    A3, [A6 + 0xC]
00000BA8  286E 0008                movea.l    A4, [A6 + 0x8]
00000BAC  2C3C 0000 00FF           move.l     D6, 0xFF
00000BB2  CCAB 0002                and.l      D6, [A3 + 0x2]
00000BB6  203C 0000 FF00           move.l     D0, 0xFF00
00000BBC  C0AB 0002                and.l      D0, [A3 + 0x2]
00000BC0  2E00                     move.l     D7, D0
00000BC2  E08F                     lsr        D7, 8
00000BC4  0C47 0079                cmpi.w     D7, 0x79 /* 'y' */
00000BC8  6600 0086                bne        +0x88 /* 00000C50 */
00000BCC  2D6C 01D4 FFFC           move.l     [A6 - 0x4], [A4 + 0x1D4]
00000BD2  302C 01D8                move.w     D0, [A4 + 0x1D8]
00000BD6  907C 000C                sub.w      D0, 0xC
00000BDA  D16E FFFC                add.w      [A6 - 0x4], D0
00000BDE  302E FFFC                move.w     D0, [A6 - 0x4]
00000BE2  48C0                     ext.l      D0
00000BE4  322C 01D8                move.w     D1, [A4 + 0x1D8]
00000BE8  48C1                     ext.l      D1
00000BEA  D280                     add.l      D1, D0
00000BEC  302C 01D0                move.w     D0, [A4 + 0x1D0]
00000BF0  48C0                     ext.l      D0
00000BF2  B081                     cmp.l      D0, D1
00000BF4  6C0C                     bge        +0xE /* 00000C02 */
00000BF6  302C 01D0                move.w     D0, [A4 + 0x1D0]
00000BFA  906C 01D8                sub.w      D0, [A4 + 0x1D8]
00000BFE  3D40 FFFC                move.w     [A6 - 0x4], D0
label00000C02:
00000C02  2F2E FFFC                move.l     -[A7], [A6 - 0x4]
00000C06  204C                     movea.l    A0, A4
00000C08  226C 0060                movea.l    A1, [A4 + 0x60]
00000C0C  D0E9 0150                add.w      A0, [A1 + 0x150]
00000C10  2F08                     move.l     -[A7], A0
00000C12  2049                     movea.l    A0, A1
00000C14  2268 0154                movea.l    A1, [A0 + 0x154]
00000C18  4E91                     jsr        [A1]
00000C1A  2F0C                     move.l     -[A7], A4
00000C1C  4EBA 0E12                jsr        [PC + 0xE12 /* 00001A30 */]
00000C20  4AAC 01C4                tst.l      [A4 + 0x1C4]
00000C24  4FEF 000C                lea.l      A7, [A7 + 0xC]
00000C28  6720                     beq        +0x22 /* 00000C4A */
00000C2A  206C 01C4                movea.l    A0, [A4 + 0x1C4]
00000C2E  2248                     movea.l    A1, A0
00000C30  2269 0060                movea.l    A1, [A1 + 0x60]
00000C34  D0E9 00E8                add.w      A0, [A1 + 0xE8]
00000C38  2F08                     move.l     -[A7], A0
00000C3A  206C 01C4                movea.l    A0, [A4 + 0x1C4]
00000C3E  2068 0060                movea.l    A0, [A0 + 0x60]
00000C42  2268 00EC                movea.l    A1, [A0 + 0xEC]
00000C46  4E91                     jsr        [A1]
00000C48  584F                     addq.w     A7, 4
label00000C4A:
00000C4A  7001                     moveq.l    D0, 0x01
00000C4C  6000 0372                bra        +0x374 /* 00000FC0 */
label00000C50:
00000C50  0C47 0074                cmpi.w     D7, 0x74 /* 't' */
00000C54  666A                     bne        +0x6C /* 00000CC0 */
00000C56  2D6C 01D4 FFFC           move.l     [A6 - 0x4], [A4 + 0x1D4]
00000C5C  302C 01D8                move.w     D0, [A4 + 0x1D8]
00000C60  907C 000C                sub.w      D0, 0xC
00000C64  916E FFFC                sub.w      [A6 - 0x4], D0
00000C68  4A6E FFFC                tst.w      [A6 - 0x4]
00000C6C  6C04                     bge        +0x6 /* 00000C72 */
00000C6E  426E FFFC                clr.w      [A6 - 0x4]
label00000C72:
00000C72  2F2E FFFC                move.l     -[A7], [A6 - 0x4]
00000C76  204C                     movea.l    A0, A4
00000C78  226C 0060                movea.l    A1, [A4 + 0x60]
00000C7C  D0E9 0150                add.w      A0, [A1 + 0x150]
00000C80  2F08                     move.l     -[A7], A0
00000C82  2049                     movea.l    A0, A1
00000C84  2268 0154                movea.l    A1, [A0 + 0x154]
00000C88  4E91                     jsr        [A1]
00000C8A  2F0C                     move.l     -[A7], A4
00000C8C  4EBA 0DA2                jsr        [PC + 0xDA2 /* 00001A30 */]
00000C90  4AAC 01C4                tst.l      [A4 + 0x1C4]
00000C94  4FEF 000C                lea.l      A7, [A7 + 0xC]
00000C98  6720                     beq        +0x22 /* 00000CBA */
00000C9A  206C 01C4                movea.l    A0, [A4 + 0x1C4]
00000C9E  2248                     movea.l    A1, A0
00000CA0  2269 0060                movea.l    A1, [A1 + 0x60]
00000CA4  D0E9 00E8                add.w      A0, [A1 + 0xE8]
00000CA8  2F08                     move.l     -[A7], A0
00000CAA  206C 01C4                movea.l    A0, [A4 + 0x1C4]
00000CAE  2068 0060                movea.l    A0, [A0 + 0x60]
00000CB2  2268 00EC                movea.l    A1, [A0 + 0xEC]
00000CB6  4E91                     jsr        [A1]
00000CB8  584F                     addq.w     A7, 4
label00000CBA:
00000CBA  7001                     moveq.l    D0, 0x01
00000CBC  6000 0302                bra        +0x304 /* 00000FC0 */
label00000CC0:
00000CC0  7000                     moveq.l    D0, 0x00
00000CC2  1006                     move.b     D0, D6
00000CC4  0C40 0009                cmpi.w     D0, 0x9 /* '\t' */
00000CC8  6600 0248                bne        +0x24A /* 00000F12 */
00000CCC  206C 0112                movea.l    A0, [A4 + 0x112]
00000CD0  2068 0084                movea.l    A0, [A0 + 0x84]
00000CD4  4A28 006F                tst.b      [A0 + 0x6F]
00000CD8  6700 0238                beq        +0x23A /* 00000F12 */
00000CDC  4AAC 01EC                tst.l      [A4 + 0x1EC]
00000CE0  6700 0164                beq        +0x166 /* 00000E46 */
00000CE4  2F2C 01DC                move.l     -[A7], [A4 + 0x1DC]
00000CE8  2F0C                     move.l     -[A7], A4
00000CEA  4EAD 1F6A                jsr        [A5 + 0x1F6A /* export_1001, CODE:37 @ 00001590 */]
00000CEE  2F2C 0112                move.l     -[A7], [A4 + 0x112]
00000CF2  4EAD 11E2                jsr        [A5 + 0x11E2 /* export_568, CODE:26 @ 000031FA */]
00000CF6  206C 01DC                movea.l    A0, [A4 + 0x1DC]
00000CFA  2050                     movea.l    A0, [A0]
00000CFC  3028 0002                move.w     D0, [A0 + 0x2]
00000D00  48C0                     ext.l      D0
00000D02  4480                     neg.l      D0
00000D04  322C 01D4                move.w     D1, [A4 + 0x1D4]
00000D08  D240                     add.w      D1, D0
00000D0A  48C1                     ext.l      D1
00000D0C  2F01                     move.l     -[A7], D1
00000D0E  206C 01DC                movea.l    A0, [A4 + 0x1DC]
00000D12  2050                     movea.l    A0, [A0]
00000D14  3028 0004                move.w     D0, [A0 + 0x4]
00000D18  48C0                     ext.l      D0
00000D1A  4480                     neg.l      D0
00000D1C  322C 01D6                move.w     D1, [A4 + 0x1D6]
00000D20  D240                     add.w      D1, D0
00000D22  48C1                     ext.l      D1
00000D24  2F01                     move.l     -[A7], D1
00000D26  2F2C 0112                move.l     -[A7], [A4 + 0x112]
00000D2A  4EAD 1202                jsr        [A5 + 0x1202 /* export_572, CODE:26 @ 000033B8 */]
00000D2E  4AAC 01EC                tst.l      [A4 + 0x1EC]
00000D32  670A                     beq        +0xC /* 00000D3E */
00000D34  202C 01EC                move.l     D0, [A4 + 0x1EC]
00000D38  7280                     moveq.l    D1, 0xFFFFFF80
00000D3A  D081                     add.l      D0, D1
00000D3C  6002                     bra        +0x4 /* 00000D40 */
label00000D3E:
00000D3E  7000                     moveq.l    D0, 0x00
label00000D40:
00000D40  2D40 FFEC                move.l     [A6 - 0x14], D0
00000D44  2D4C FFF0                move.l     [A6 - 0x10], A4
00000D48  7000                     moveq.l    D0, 0x00
00000D4A  2D40 FFF4                move.l     [A6 - 0xC], D0
00000D4E  2F00                     move.l     -[A7], D0
00000D50  2F0C                     move.l     -[A7], A4
00000D52  2F3C 4742 544D           move.l     -[A7], 0x4742544D /* 'GBTM' */
00000D58  206E FFEC                movea.l    A0, [A6 - 0x14]
00000D5C  2248                     movea.l    A1, A0
00000D5E  2269 0060                movea.l    A1, [A1 + 0x60]
00000D62  D0E9 0058                add.w      A0, [A1 + 0x58]
00000D66  2F08                     move.l     -[A7], A0
00000D68  206E FFEC                movea.l    A0, [A6 - 0x14]
00000D6C  2068 0060                movea.l    A0, [A0 + 0x60]
00000D70  2268 005C                movea.l    A1, [A0 + 0x5C]
00000D74  4E91                     jsr        [A1]
00000D76  2F2C 0112                move.l     -[A7], [A4 + 0x112]
00000D7A  4EAD 120A                jsr        [A5 + 0x120A /* export_573, CODE:26 @ 00003404 */]
00000D7E  2F2C 0112                move.l     -[A7], [A4 + 0x112]
00000D82  4EAD 11EA                jsr        [A5 + 0x11EA /* export_569, CODE:26 @ 00003268 */]
00000D86  7000                     moveq.l    D0, 0x00
00000D88  2F00                     move.l     -[A7], D0
00000D8A  2F0C                     move.l     -[A7], A4
00000D8C  4EAD 1F7A                jsr        [A5 + 0x1F7A /* export_1003, CODE:37 @ 00001612 */]
00000D90  303C 0200                move.w     D0, 0x200
00000D94  C06B 000E                and.w      D0, [A3 + 0xE]
00000D98  4FEF 0038                lea.l      A7, [A7 + 0x38]
00000D9C  670C                     beq        +0xE /* 00000DAA */
00000D9E  206C 01EC                movea.l    A0, [A4 + 0x1EC]
00000DA2  2950 01EC                move.l     [A4 + 0x1EC], [A0]
00000DA6  6000 009E                bra        +0xA0 /* 00000E46 */
label00000DAA:
00000DAA  206C 01EC                movea.l    A0, [A4 + 0x1EC]
00000DAE  2968 0004 01EC           move.l     [A4 + 0x1EC], [A0 + 0x4]
00000DB4  6000 0090                bra        +0x92 /* 00000E46 */
label00000DB8:
00000DB8  206C 01EC                movea.l    A0, [A4 + 0x1EC]
00000DBC  7000                     moveq.l    D0, 0x00
00000DBE  1028 0018                move.b     D0, [A0 + 0x18]
00000DC2  7220                     moveq.l    D1, 0x20
00000DC4  C200                     and.b      D1, D0
00000DC6  7000                     moveq.l    D0, 0x00
00000DC8  1001                     move.b     D0, D1
00000DCA  4A80                     tst.l      D0
00000DCC  675A                     beq        +0x5C /* 00000E28 */
00000DCE  4AAC 01EC                tst.l      [A4 + 0x1EC]
00000DD2  6708                     beq        +0xA /* 00000DDC */
00000DD4  2008                     move.l     D0, A0
00000DD6  7280                     moveq.l    D1, 0xFFFFFF80
00000DD8  D081                     add.l      D0, D1
00000DDA  6002                     bra        +0x4 /* 00000DDE */
label00000DDC:
00000DDC  7000                     moveq.l    D0, 0x00
label00000DDE:
00000DDE  2240                     movea.l    A1, D0
00000DE0  43E9 0080                lea.l      A1, [A1 + 0x80]
00000DE4  2049                     movea.l    A0, A1
00000DE6  4AAC 01EC                tst.l      [A4 + 0x1EC]
00000DEA  670A                     beq        +0xC /* 00000DF6 */
00000DEC  202C 01EC                move.l     D0, [A4 + 0x1EC]
00000DF0  7280                     moveq.l    D1, 0xFFFFFF80
00000DF2  D081                     add.l      D0, D1
00000DF4  6002                     bra        +0x4 /* 00000DF8 */
label00000DF6:
00000DF6  7000                     moveq.l    D0, 0x00
label00000DF8:
00000DF8  2240                     movea.l    A1, D0
00000DFA  2269 0088                movea.l    A1, [A1 + 0x88]
00000DFE  D0E9 00E0                add.w      A0, [A1 + 0xE0]
00000E02  2F08                     move.l     -[A7], A0
00000E04  4AAC 01EC                tst.l      [A4 + 0x1EC]
00000E08  670A                     beq        +0xC /* 00000E14 */
00000E0A  202C 01EC                move.l     D0, [A4 + 0x1EC]
00000E0E  7280                     moveq.l    D1, 0xFFFFFF80
00000E10  D081                     add.l      D0, D1
00000E12  6002                     bra        +0x4 /* 00000E16 */
label00000E14:
00000E14  7000                     moveq.l    D0, 0x00
label00000E16:
00000E16  2040                     movea.l    A0, D0
00000E18  2068 0088                movea.l    A0, [A0 + 0x88]
00000E1C  2268 00E4                movea.l    A1, [A0 + 0xE4]
00000E20  4E91                     jsr        [A1]
00000E22  4A00                     tst.b      D0
00000E24  584F                     addq.w     A7, 4
00000E26  6626                     bne        +0x28 /* 00000E4E */
label00000E28:
00000E28  303C 0200                move.w     D0, 0x200
00000E2C  C06B 000E                and.w      D0, [A3 + 0xE]
00000E30  670A                     beq        +0xC /* 00000E3C */
00000E32  206C 01EC                movea.l    A0, [A4 + 0x1EC]
00000E36  2950 01EC                move.l     [A4 + 0x1EC], [A0]
00000E3A  600A                     bra        +0xC /* 00000E46 */
label00000E3C:
00000E3C  206C 01EC                movea.l    A0, [A4 + 0x1EC]
00000E40  2968 0004 01EC           move.l     [A4 + 0x1EC], [A0 + 0x4]
label00000E46:
00000E46  4AAC 01EC                tst.l      [A4 + 0x1EC]
00000E4A  6600 FF6C                bne        -0x92 /* 00000DB8 */
label00000E4E:
00000E4E  4AAC 01EC                tst.l      [A4 + 0x1EC]
00000E52  6700 00B8                beq        +0xBA /* 00000F0C */
00000E56  2F2C 01DC                move.l     -[A7], [A4 + 0x1DC]
00000E5A  2F0C                     move.l     -[A7], A4
00000E5C  4EAD 1F6A                jsr        [A5 + 0x1F6A /* export_1001, CODE:37 @ 00001590 */]
00000E60  2F2C 0112                move.l     -[A7], [A4 + 0x112]
00000E64  4EAD 11E2                jsr        [A5 + 0x11E2 /* export_568, CODE:26 @ 000031FA */]
00000E68  206C 01DC                movea.l    A0, [A4 + 0x1DC]
00000E6C  2050                     movea.l    A0, [A0]
00000E6E  3028 0002                move.w     D0, [A0 + 0x2]
00000E72  48C0                     ext.l      D0
00000E74  4480                     neg.l      D0
00000E76  322C 01D4                move.w     D1, [A4 + 0x1D4]
00000E7A  D240                     add.w      D1, D0
00000E7C  48C1                     ext.l      D1
00000E7E  2F01                     move.l     -[A7], D1
00000E80  206C 01DC                movea.l    A0, [A4 + 0x1DC]
00000E84  2050                     movea.l    A0, [A0]
00000E86  3028 0004                move.w     D0, [A0 + 0x4]
00000E8A  48C0                     ext.l      D0
00000E8C  4480                     neg.l      D0
00000E8E  322C 01D6                move.w     D1, [A4 + 0x1D6]
00000E92  D240                     add.w      D1, D0
00000E94  48C1                     ext.l      D1
00000E96  2F01                     move.l     -[A7], D1
00000E98  2F2C 0112                move.l     -[A7], [A4 + 0x112]
00000E9C  4EAD 1202                jsr        [A5 + 0x1202 /* export_572, CODE:26 @ 000033B8 */]
00000EA0  4AAC 01EC                tst.l      [A4 + 0x1EC]
00000EA4  670A                     beq        +0xC /* 00000EB0 */
00000EA6  202C 01EC                move.l     D0, [A4 + 0x1EC]
00000EAA  7280                     moveq.l    D1, 0xFFFFFF80
00000EAC  D081                     add.l      D0, D1
00000EAE  6002                     bra        +0x4 /* 00000EB2 */
label00000EB0:
00000EB0  7000                     moveq.l    D0, 0x00
label00000EB2:
00000EB2  2D40 FFEC                move.l     [A6 - 0x14], D0
00000EB6  2D4C FFF0                move.l     [A6 - 0x10], A4
00000EBA  7001                     moveq.l    D0, 0x01
00000EBC  2D40 FFF4                move.l     [A6 - 0xC], D0
00000EC0  2F00                     move.l     -[A7], D0
00000EC2  2F0C                     move.l     -[A7], A4
00000EC4  2F3C 4742 544D           move.l     -[A7], 0x4742544D /* 'GBTM' */
00000ECA  206E FFEC                movea.l    A0, [A6 - 0x14]
00000ECE  2248                     movea.l    A1, A0
00000ED0  2269 0060                movea.l    A1, [A1 + 0x60]
00000ED4  D0E9 0058                add.w      A0, [A1 + 0x58]
00000ED8  2F08                     move.l     -[A7], A0
00000EDA  206E FFEC                movea.l    A0, [A6 - 0x14]
00000EDE  2068 0060                movea.l    A0, [A0 + 0x60]
00000EE2  2268 005C                movea.l    A1, [A0 + 0x5C]
00000EE6  4E91                     jsr        [A1]
00000EE8  2F2C 0112                move.l     -[A7], [A4 + 0x112]
00000EEC  4EAD 120A                jsr        [A5 + 0x120A /* export_573, CODE:26 @ 00003404 */]
00000EF0  2F2C 0112                move.l     -[A7], [A4 + 0x112]
00000EF4  4EAD 11EA                jsr        [A5 + 0x11EA /* export_569, CODE:26 @ 00003268 */]
00000EF8  7000                     moveq.l    D0, 0x00
00000EFA  2F00                     move.l     -[A7], D0
00000EFC  2F0C                     move.l     -[A7], A4
00000EFE  4EAD 1F7A                jsr        [A5 + 0x1F7A /* export_1003, CODE:37 @ 00001612 */]
00000F02  7001                     moveq.l    D0, 0x01
00000F04  4FEF 0038                lea.l      A7, [A7 + 0x38]
00000F08  6000 00B6                bra        +0xB8 /* 00000FC0 */
label00000F0C:
00000F0C  7000                     moveq.l    D0, 0x00
00000F0E  6000 00B0                bra        +0xB2 /* 00000FC0 */
label00000F12:
00000F12  4AAC 01EC                tst.l      [A4 + 0x1EC]
00000F16  6700 00A6                beq        +0xA8 /* 00000FBE */
00000F1A  2F2C 01DC                move.l     -[A7], [A4 + 0x1DC]
00000F1E  2F0C                     move.l     -[A7], A4
00000F20  4EAD 1F6A                jsr        [A5 + 0x1F6A /* export_1001, CODE:37 @ 00001590 */]
00000F24  2F2C 0112                move.l     -[A7], [A4 + 0x112]
00000F28  4EAD 11E2                jsr        [A5 + 0x11E2 /* export_568, CODE:26 @ 000031FA */]
00000F2C  206C 01DC                movea.l    A0, [A4 + 0x1DC]
00000F30  2050                     movea.l    A0, [A0]
00000F32  3028 0002                move.w     D0, [A0 + 0x2]
00000F36  48C0                     ext.l      D0
00000F38  4480                     neg.l      D0
00000F3A  322C 01D4                move.w     D1, [A4 + 0x1D4]
00000F3E  D240                     add.w      D1, D0
00000F40  48C1                     ext.l      D1
00000F42  2F01                     move.l     -[A7], D1
00000F44  206C 01DC                movea.l    A0, [A4 + 0x1DC]
00000F48  2050                     movea.l    A0, [A0]
00000F4A  3028 0004                move.w     D0, [A0 + 0x4]
00000F4E  48C0                     ext.l      D0
00000F50  4480                     neg.l      D0
00000F52  322C 01D6                move.w     D1, [A4 + 0x1D6]
00000F56  D240                     add.w      D1, D0
00000F58  48C1                     ext.l      D1
00000F5A  2F01                     move.l     -[A7], D1
00000F5C  2F2C 0112                move.l     -[A7], [A4 + 0x112]
00000F60  4EAD 1202                jsr        [A5 + 0x1202 /* export_572, CODE:26 @ 000033B8 */]
00000F64  4AAC 01EC                tst.l      [A4 + 0x1EC]
00000F68  670A                     beq        +0xC /* 00000F74 */
00000F6A  202C 01EC                move.l     D0, [A4 + 0x1EC]
00000F6E  7280                     moveq.l    D1, 0xFFFFFF80
00000F70  D081                     add.l      D0, D1
00000F72  6002                     bra        +0x4 /* 00000F76 */
label00000F74:
00000F74  7000                     moveq.l    D0, 0x00
label00000F76:
00000F76  2D40 FFF8                move.l     [A6 - 0x8], D0
00000F7A  2F0B                     move.l     -[A7], A3
00000F7C  206E FFF8                movea.l    A0, [A6 - 0x8]
00000F80  2248                     movea.l    A1, A0
00000F82  2269 0060                movea.l    A1, [A1 + 0x60]
00000F86  D0E9 0070                add.w      A0, [A1 + 0x70]
00000F8A  2F08                     move.l     -[A7], A0
00000F8C  206E FFF8                movea.l    A0, [A6 - 0x8]
00000F90  2068 0060                movea.l    A0, [A0 + 0x60]
00000F94  2268 0074                movea.l    A1, [A0 + 0x74]
00000F98  4E91                     jsr        [A1]
00000F9A  1C00                     move.b     D6, D0
00000F9C  2F2C 0112                move.l     -[A7], [A4 + 0x112]
00000FA0  4EAD 120A                jsr        [A5 + 0x120A /* export_573, CODE:26 @ 00003404 */]
00000FA4  2F2C 0112                move.l     -[A7], [A4 + 0x112]
00000FA8  4EAD 11EA                jsr        [A5 + 0x11EA /* export_569, CODE:26 @ 00003268 */]
00000FAC  7000                     moveq.l    D0, 0x00
00000FAE  2F00                     move.l     -[A7], D0
00000FB0  2F0C                     move.l     -[A7], A4
00000FB2  4EAD 1F7A                jsr        [A5 + 0x1F7A /* export_1003, CODE:37 @ 00001612 */]
00000FB6  1006                     move.b     D0, D6
00000FB8  4FEF 0030                lea.l      A7, [A7 + 0x30]
00000FBC  6002                     bra        +0x4 /* 00000FC0 */
label00000FBE:
00000FBE  7000                     moveq.l    D0, 0x00
label00000FC0:
00000FC0  4CEE 18C0 FFDC           movem.l    D6,D7,A3,A4, [A6 - 0x24]
00000FC6  4E5E                     unlink     A6
00000FC8  4E75                     rts
00000FCA  802A 4B65 7944 6F77 6... dc.b       "KeyDown__16cScrollerDocItemFR11EventRecord"
export_1065:
00000FF8  4E56 FFF8                link       A6, -0x0008
00000FFC  48E7 0308                movem.l    -[A7], D6,D7,A4
00001000  3C2E 0012                move.w     D6, [A6 + 0x12]
00001004  3E2E 000E                move.w     D7, [A6 + 0xE]
00001008  286E 0008                movea.l    A4, [A6 + 0x8]
0000100C  48C6                     ext.l      D6
0000100E  2F06                     move.l     -[A7], D6
00001010  48C7                     ext.l      D7
00001012  2F07                     move.l     -[A7], D7
00001014  486C 0080                pea.l      [A4 + 0x80]
00001018  4EAD 1CDA                jsr        [A5 + 0x1CDA /* export_919, CODE:36 @ 000009EE */]
0000101C  206C 01DC                movea.l    A0, [A4 + 0x1DC]
00001020  2050                     movea.l    A0, [A0]
00001022  43EE FFF8                lea.l      A1, [A6 - 0x8]
00001026  5488                     addq.l     A0, 2
00001028  22D8                     move.l     [A1]+, [A0]+
0000102A  22D8                     move.l     [A1]+, [A0]+
0000102C  DF6E FFFE                add.w      [A6 - 0x2], D7
00001030  DD6E FFFC                add.w      [A6 - 0x4], D6
00001034  2F2C 01DC                move.l     -[A7], [A4 + 0x1DC]
00001038  486E FFF8                pea.l      [A6 - 0x8]
0000103C  A8DF                     syscall    RectRgn
0000103E  DF6C 01DA                add.w      [A4 + 0x1DA], D7
00001042  DD6C 01D8                add.w      [A4 + 0x1D8], D6
00001046  197C 0001 01F6           move.b     [A4 + 0x1F6], 0x1
0000104C  4A2C 01F1                tst.b      [A4 + 0x1F1]
00001050  4FEF 000C                lea.l      A7, [A7 + 0xC]
00001054  6650                     bne        +0x52 /* 000010A6 */
00001056  7000                     moveq.l    D0, 0x00
00001058  2F00                     move.l     -[A7], D0
0000105A  48C7                     ext.l      D7
0000105C  2F07                     move.l     -[A7], D7
0000105E  206C 01C8                movea.l    A0, [A4 + 0x1C8]
00001062  2248                     movea.l    A1, A0
00001064  2269 0060                movea.l    A1, [A1 + 0x60]
00001068  D0E9 0118                add.w      A0, [A1 + 0x118]
0000106C  2F08                     move.l     -[A7], A0
0000106E  206C 01C8                movea.l    A0, [A4 + 0x1C8]
00001072  2068 0060                movea.l    A0, [A0 + 0x60]
00001076  2268 011C                movea.l    A1, [A0 + 0x11C]
0000107A  4E91                     jsr        [A1]
0000107C  48C6                     ext.l      D6
0000107E  2F06                     move.l     -[A7], D6
00001080  7000                     moveq.l    D0, 0x00
00001082  2F00                     move.l     -[A7], D0
00001084  206C 01C8                movea.l    A0, [A4 + 0x1C8]
00001088  2248                     movea.l    A1, A0
0000108A  2269 0060                movea.l    A1, [A1 + 0x60]
0000108E  D0E9 0110                add.w      A0, [A1 + 0x110]
00001092  2F08                     move.l     -[A7], A0
00001094  206C 01C8                movea.l    A0, [A4 + 0x1C8]
00001098  2068 0060                movea.l    A0, [A0 + 0x60]
0000109C  2268 0114                movea.l    A1, [A0 + 0x114]
000010A0  4E91                     jsr        [A1]
000010A2  4FEF 0018                lea.l      A7, [A7 + 0x18]
label000010A6:
000010A6  4A2C 01F0                tst.b      [A4 + 0x1F0]
000010AA  6650                     bne        +0x52 /* 000010FC */
000010AC  48C6                     ext.l      D6
000010AE  2F06                     move.l     -[A7], D6
000010B0  7000                     moveq.l    D0, 0x00
000010B2  2F00                     move.l     -[A7], D0
000010B4  206C 01C4                movea.l    A0, [A4 + 0x1C4]
000010B8  2248                     movea.l    A1, A0
000010BA  2269 0060                movea.l    A1, [A1 + 0x60]
000010BE  D0E9 0118                add.w      A0, [A1 + 0x118]
000010C2  2F08                     move.l     -[A7], A0
000010C4  206C 01C4                movea.l    A0, [A4 + 0x1C4]
000010C8  2068 0060                movea.l    A0, [A0 + 0x60]
000010CC  2268 011C                movea.l    A1, [A0 + 0x11C]
000010D0  4E91                     jsr        [A1]
000010D2  7000                     moveq.l    D0, 0x00
000010D4  2F00                     move.l     -[A7], D0
000010D6  48C7                     ext.l      D7
000010D8  2F07                     move.l     -[A7], D7
000010DA  206C 01C4                movea.l    A0, [A4 + 0x1C4]
000010DE  2248                     movea.l    A1, A0
000010E0  2269 0060                movea.l    A1, [A1 + 0x60]
000010E4  D0E9 0110                add.w      A0, [A1 + 0x110]
000010E8  2F08                     move.l     -[A7], A0
000010EA  206C 01C4                movea.l    A0, [A4 + 0x1C4]
000010EE  2068 0060                movea.l    A0, [A0 + 0x60]
000010F2  2268 0114                movea.l    A1, [A0 + 0x114]
000010F6  4E91                     jsr        [A1]
000010F8  4FEF 0018                lea.l      A7, [A7 + 0x18]
label000010FC:
000010FC  486C 01E4                pea.l      [A4 + 0x1E4]
00001100  3F07                     move.w     -[A7], D7
00001102  3F06                     move.w     -[A7], D6
00001104  A8A8                     syscall    OffsetRect
00001106  302C 01D0                move.w     D0, [A4 + 0x1D0]
0000110A  48C0                     ext.l      D0
0000110C  322C 01D4                move.w     D1, [A4 + 0x1D4]
00001110  48C1                     ext.l      D1
00001112  9081                     sub.l      D0, D1
00001114  322C 01D8                move.w     D1, [A4 + 0x1D8]
00001118  48C1                     ext.l      D1
0000111A  B280                     cmp.l      D1, D0
0000111C  6F1A                     ble        +0x1C /* 00001138 */
0000111E  302C 01D0                move.w     D0, [A4 + 0x1D0]
00001122  906C 01D8                sub.w      D0, [A4 + 0x1D8]
00001126  3940 01D4                move.w     [A4 + 0x1D4], D0
0000112A  6C04                     bge        +0x6 /* 00001130 */
0000112C  426C 01D4                clr.w      [A4 + 0x1D4]
label00001130:
00001130  2F0C                     move.l     -[A7], A4
00001132  4EAD 1F52                jsr        [A5 + 0x1F52 /* export_998, CODE:37 @ 000014C8 */]
00001136  584F                     addq.w     A7, 4
label00001138:
00001138  302C 01D2                move.w     D0, [A4 + 0x1D2]
0000113C  48C0                     ext.l      D0
0000113E  322C 01D6                move.w     D1, [A4 + 0x1D6]
00001142  48C1                     ext.l      D1
00001144  9081                     sub.l      D0, D1
00001146  322C 01DA                move.w     D1, [A4 + 0x1DA]
0000114A  48C1                     ext.l      D1
0000114C  B280                     cmp.l      D1, D0
0000114E  6F1A                     ble        +0x1C /* 0000116A */
00001150  302C 01D2                move.w     D0, [A4 + 0x1D2]
00001154  906C 01DA                sub.w      D0, [A4 + 0x1DA]
00001158  3940 01D6                move.w     [A4 + 0x1D6], D0
0000115C  6C04                     bge        +0x6 /* 00001162 */
0000115E  426C 01D6                clr.w      [A4 + 0x1D6]
label00001162:
00001162  2F0C                     move.l     -[A7], A4
00001164  4EAD 1F52                jsr        [A5 + 0x1F52 /* export_998, CODE:37 @ 000014C8 */]
00001168  584F                     addq.w     A7, 4
label0000116A:
0000116A  4CEE 10C0 FFEC           movem.l    D6,D7,A4, [A6 - 0x14]
00001170  4E5E                     unlink     A6
00001172  4E75                     rts
00001174  9E52 6573 697A 655F 5... dc.b       "Resize__16cScrollerDocItemFsT1"
export_1066:
00001196  4E56 0000                link       A6, 0
0000119A  48E7 0018                movem.l    -[A7], A3,A4
0000119E  286E 0008                movea.l    A4, [A6 + 0x8]
000011A2  2F2C 01DC                move.l     -[A7], [A4 + 0x1DC]
000011A6  2F0C                     move.l     -[A7], A4
000011A8  4EAD 1F6A                jsr        [A5 + 0x1F6A /* export_1001, CODE:37 @ 00001590 */]
000011AC  2F2C 0112                move.l     -[A7], [A4 + 0x112]
000011B0  4EAD 11E2                jsr        [A5 + 0x11E2 /* export_568, CODE:26 @ 000031FA */]
000011B4  206C 01DC                movea.l    A0, [A4 + 0x1DC]
000011B8  2050                     movea.l    A0, [A0]
000011BA  3028 0002                move.w     D0, [A0 + 0x2]
000011BE  48C0                     ext.l      D0
000011C0  4480                     neg.l      D0
000011C2  322C 01D4                move.w     D1, [A4 + 0x1D4]
000011C6  D240                     add.w      D1, D0
000011C8  48C1                     ext.l      D1
000011CA  2F01                     move.l     -[A7], D1
000011CC  206C 01DC                movea.l    A0, [A4 + 0x1DC]
000011D0  2050                     movea.l    A0, [A0]
000011D2  3028 0004                move.w     D0, [A0 + 0x4]
000011D6  48C0                     ext.l      D0
000011D8  4480                     neg.l      D0
000011DA  322C 01D6                move.w     D1, [A4 + 0x1D6]
000011DE  D240                     add.w      D1, D0
000011E0  48C1                     ext.l      D1
000011E2  2F01                     move.l     -[A7], D1
000011E4  2F2C 0112                move.l     -[A7], [A4 + 0x112]
000011E8  4EAD 1202                jsr        [A5 + 0x1202 /* export_572, CODE:26 @ 000033B8 */]
000011EC  266C 01CC                movea.l    A3, [A4 + 0x1CC]
000011F0  4FEF 0018                lea.l      A7, [A7 + 0x18]
000011F4  601A                     bra        +0x1C /* 00001210 */
label000011F6:
000011F6  204B                     movea.l    A0, A3
000011F8  226B 0008                movea.l    A1, [A3 + 0x8]
000011FC  D0E9 0070                add.w      A0, [A1 + 0x70]
00001200  2F08                     move.l     -[A7], A0
00001202  2049                     movea.l    A0, A1
00001204  2268 0074                movea.l    A1, [A0 + 0x74]
00001208  4E91                     jsr        [A1]
0000120A  266B 0004                movea.l    A3, [A3 + 0x4]
0000120E  584F                     addq.w     A7, 4
label00001210:
00001210  200B                     move.l     D0, A3
00001212  66E2                     bne        -0x1C /* 000011F6 */
00001214  2F2C 0112                move.l     -[A7], [A4 + 0x112]
00001218  4EAD 120A                jsr        [A5 + 0x120A /* export_573, CODE:26 @ 00003404 */]
0000121C  2F2C 0112                move.l     -[A7], [A4 + 0x112]
00001220  4EAD 11EA                jsr        [A5 + 0x11EA /* export_569, CODE:26 @ 00003268 */]
00001224  7000                     moveq.l    D0, 0x00
00001226  2F00                     move.l     -[A7], D0
00001228  2F0C                     move.l     -[A7], A4
0000122A  4EAD 1F7A                jsr        [A5 + 0x1F7A /* export_1003, CODE:37 @ 00001612 */]
0000122E  4FEF 0010                lea.l      A7, [A7 + 0x10]
00001232  4CEE 1800 FFF8           movem.l    A3,A4, [A6 - 0x8]
00001238  4E5E                     unlink     A6
0000123A  4E75                     rts
0000123C  9A49 646C 655F 5F31 3... dc.b       "Idle__16cScrollerDocItemFv"
export_1067:
0000125A  4E56 FFFC                link       A6, -0x0004
0000125E  48E7 0018                movem.l    -[A7], A3,A4
00001262  286E 0008                movea.l    A4, [A6 + 0x8]
00001266  266C 01CC                movea.l    A3, [A4 + 0x1CC]
0000126A  2D6E 000C FFFC           move.l     [A6 - 0x4], [A6 + 0xC]
00001270  2F2C 0112                move.l     -[A7], [A4 + 0x112]
00001274  4EAD 11E2                jsr        [A5 + 0x11E2 /* export_568, CODE:26 @ 000031FA */]
00001278  486E FFFC                pea.l      [A6 - 0x4]
0000127C  A870                     syscall    LocalToGlobal
0000127E  206C 01DC                movea.l    A0, [A4 + 0x1DC]
00001282  2050                     movea.l    A0, [A0]
00001284  3028 0002                move.w     D0, [A0 + 0x2]
00001288  48C0                     ext.l      D0
0000128A  4480                     neg.l      D0
0000128C  322C 01D4                move.w     D1, [A4 + 0x1D4]
00001290  D240                     add.w      D1, D0
00001292  48C1                     ext.l      D1
00001294  2F01                     move.l     -[A7], D1
00001296  206C 01DC                movea.l    A0, [A4 + 0x1DC]
0000129A  2050                     movea.l    A0, [A0]
0000129C  3028 0004                move.w     D0, [A0 + 0x4]
000012A0  48C0                     ext.l      D0
000012A2  4480                     neg.l      D0
000012A4  322C 01D6                move.w     D1, [A4 + 0x1D6]
000012A8  D240                     add.w      D1, D0
000012AA  48C1                     ext.l      D1
000012AC  2F01                     move.l     -[A7], D1
000012AE  2F2C 0112                move.l     -[A7], [A4 + 0x112]
000012B2  4EAD 1202                jsr        [A5 + 0x1202 /* export_572, CODE:26 @ 000033B8 */]
000012B6  486E FFFC                pea.l      [A6 - 0x4]
000012BA  A871                     syscall    GlobalToLocal
000012BC  2F2C 0112                move.l     -[A7], [A4 + 0x112]
000012C0  4EAD 120A                jsr        [A5 + 0x120A /* export_573, CODE:26 @ 00003404 */]
000012C4  2F2C 0112                move.l     -[A7], [A4 + 0x112]
000012C8  4EAD 11EA                jsr        [A5 + 0x11EA /* export_569, CODE:26 @ 00003268 */]
000012CC  4A2C 01F1                tst.b      [A4 + 0x1F1]
000012D0  4FEF 0018                lea.l      A7, [A7 + 0x18]
000012D4  661E                     bne        +0x20 /* 000012F4 */
000012D6  4AAC 01C8                tst.l      [A4 + 0x1C8]
000012DA  6718                     beq        +0x1A /* 000012F4 */
000012DC  558F                     subq.l     A7, 2
000012DE  2F2E 000C                move.l     -[A7], [A6 + 0xC]
000012E2  206C 01C8                movea.l    A0, [A4 + 0x1C8]
000012E6  4868 0090                pea.l      [A0 + 0x90]
000012EA  A8AD                     syscall    PtInRect
000012EC  4A1F                     tst.b      [A7]+
000012EE  6704                     beq        +0x6 /* 000012F4 */
000012F0  7000                     moveq.l    D0, 0x00
000012F2  605A                     bra        +0x5C /* 0000134E */
label000012F4:
000012F4  4A2C 01F0                tst.b      [A4 + 0x1F0]
000012F8  664E                     bne        +0x50 /* 00001348 */
000012FA  4AAC 01C4                tst.l      [A4 + 0x1C4]
000012FE  6748                     beq        +0x4A /* 00001348 */
00001300  558F                     subq.l     A7, 2
00001302  2F2E 000C                move.l     -[A7], [A6 + 0xC]
00001306  206C 01C4                movea.l    A0, [A4 + 0x1C4]
0000130A  4868 0090                pea.l      [A0 + 0x90]
0000130E  A8AD                     syscall    PtInRect
00001310  4A1F                     tst.b      [A7]+
00001312  6734                     beq        +0x36 /* 00001348 */
00001314  7000                     moveq.l    D0, 0x00
00001316  6036                     bra        +0x38 /* 0000134E */
label00001318:
00001318  558F                     subq.l     A7, 2
0000131A  2F2E FFFC                move.l     -[A7], [A6 - 0x4]
0000131E  486B 0010                pea.l      [A3 + 0x10]
00001322  A8AD                     syscall    PtInRect
00001324  4A1F                     tst.b      [A7]+
00001326  671C                     beq        +0x1E /* 00001344 */
00001328  2F2E FFFC                move.l     -[A7], [A6 - 0x4]
0000132C  204B                     movea.l    A0, A3
0000132E  226B 0008                movea.l    A1, [A3 + 0x8]
00001332  D0E9 0078                add.w      A0, [A1 + 0x78]
00001336  2F08                     move.l     -[A7], A0
00001338  2049                     movea.l    A0, A1
0000133A  2268 007C                movea.l    A1, [A0 + 0x7C]
0000133E  4E91                     jsr        [A1]
00001340  504F                     addq.w     A7, 8
00001342  600A                     bra        +0xC /* 0000134E */
label00001344:
00001344  266B 0004                movea.l    A3, [A3 + 0x4]
label00001348:
00001348  200B                     move.l     D0, A3
0000134A  66CC                     bne        -0x32 /* 00001318 */
0000134C  7000                     moveq.l    D0, 0x00
label0000134E:
0000134E  4CEE 1800 FFF4           movem.l    A3,A4, [A6 - 0xC]
00001354  4E5E                     unlink     A6
00001356  4E75                     rts
00001358  8024 4D6F 7573 654F 7... dc.b       "MouseOver__16cScrollerDocItemF5Point"
export_1068:
00001380  4E56 0000                link       A6, 0
00001384  48E7 0018                movem.l    -[A7], A3,A4
00001388  286E 0008                movea.l    A4, [A6 + 0x8]
0000138C  4AAC 01EC                tst.l      [A4 + 0x1EC]
00001390  6700 0092                beq        +0x94 /* 00001424 */
00001394  2F2C 01DC                move.l     -[A7], [A4 + 0x1DC]
00001398  2F0C                     move.l     -[A7], A4
0000139A  4EAD 1F6A                jsr        [A5 + 0x1F6A /* export_1001, CODE:37 @ 00001590 */]
0000139E  2F2C 0112                move.l     -[A7], [A4 + 0x112]
000013A2  4EAD 11E2                jsr        [A5 + 0x11E2 /* export_568, CODE:26 @ 000031FA */]
000013A6  206C 01DC                movea.l    A0, [A4 + 0x1DC]
000013AA  2050                     movea.l    A0, [A0]
000013AC  3028 0002                move.w     D0, [A0 + 0x2]
000013B0  48C0                     ext.l      D0
000013B2  4480                     neg.l      D0
000013B4  322C 01D4                move.w     D1, [A4 + 0x1D4]
000013B8  D240                     add.w      D1, D0
000013BA  48C1                     ext.l      D1
000013BC  2F01                     move.l     -[A7], D1
000013BE  206C 01DC                movea.l    A0, [A4 + 0x1DC]
000013C2  2050                     movea.l    A0, [A0]
000013C4  3028 0004                move.w     D0, [A0 + 0x4]
000013C8  48C0                     ext.l      D0
000013CA  4480                     neg.l      D0
000013CC  322C 01D6                move.w     D1, [A4 + 0x1D6]
000013D0  D240                     add.w      D1, D0
000013D2  48C1                     ext.l      D1
000013D4  2F01                     move.l     -[A7], D1
000013D6  2F2C 0112                move.l     -[A7], [A4 + 0x112]
000013DA  4EAD 1202                jsr        [A5 + 0x1202 /* export_572, CODE:26 @ 000033B8 */]
000013DE  4AAC 01EC                tst.l      [A4 + 0x1EC]
000013E2  670A                     beq        +0xC /* 000013EE */
000013E4  202C 01EC                move.l     D0, [A4 + 0x1EC]
000013E8  7280                     moveq.l    D1, 0xFFFFFF80
000013EA  D081                     add.l      D0, D1
000013EC  6002                     bra        +0x4 /* 000013F0 */
label000013EE:
000013EE  7000                     moveq.l    D0, 0x00
label000013F0:
000013F0  2640                     movea.l    A3, D0
000013F2  204B                     movea.l    A0, A3
000013F4  226B 0060                movea.l    A1, [A3 + 0x60]
000013F8  D0E9 00B0                add.w      A0, [A1 + 0xB0]
000013FC  2F08                     move.l     -[A7], A0
000013FE  2049                     movea.l    A0, A1
00001400  2268 00B4                movea.l    A1, [A0 + 0xB4]
00001404  4E91                     jsr        [A1]
00001406  2F2C 0112                move.l     -[A7], [A4 + 0x112]
0000140A  4EAD 120A                jsr        [A5 + 0x120A /* export_573, CODE:26 @ 00003404 */]
0000140E  2F2C 0112                move.l     -[A7], [A4 + 0x112]
00001412  4EAD 11EA                jsr        [A5 + 0x11EA /* export_569, CODE:26 @ 00003268 */]
00001416  7000                     moveq.l    D0, 0x00
00001418  2F00                     move.l     -[A7], D0
0000141A  2F0C                     move.l     -[A7], A4
0000141C  4EAD 1F7A                jsr        [A5 + 0x1F7A /* export_1003, CODE:37 @ 00001612 */]
00001420  4FEF 002C                lea.l      A7, [A7 + 0x2C]
label00001424:
00001424  4CEE 1800 FFF8           movem.l    A3,A4, [A6 - 0x8]
0000142A  4E5E                     unlink     A6
0000142C  4E75                     rts
0000142E  9943 7574 5F5F 3136 6... dc.b       "Cut__16cScrollerDocItemFv"
export_1069:
0000144A  4E56 0000                link       A6, 0
0000144E  48E7 0018                movem.l    -[A7], A3,A4
00001452  286E 0008                movea.l    A4, [A6 + 0x8]
00001456  4AAC 01EC                tst.l      [A4 + 0x1EC]
0000145A  6700 0092                beq        +0x94 /* 000014EE */
0000145E  2F2C 01DC                move.l     -[A7], [A4 + 0x1DC]
00001462  2F0C                     move.l     -[A7], A4
00001464  4EAD 1F6A                jsr        [A5 + 0x1F6A /* export_1001, CODE:37 @ 00001590 */]
00001468  2F2C 0112                move.l     -[A7], [A4 + 0x112]
0000146C  4EAD 11E2                jsr        [A5 + 0x11E2 /* export_568, CODE:26 @ 000031FA */]
00001470  206C 01DC                movea.l    A0, [A4 + 0x1DC]
00001474  2050                     movea.l    A0, [A0]
00001476  3028 0002                move.w     D0, [A0 + 0x2]
0000147A  48C0                     ext.l      D0
0000147C  4480                     neg.l      D0
0000147E  322C 01D4                move.w     D1, [A4 + 0x1D4]
00001482  D240                     add.w      D1, D0
00001484  48C1                     ext.l      D1
00001486  2F01                     move.l     -[A7], D1
00001488  206C 01DC                movea.l    A0, [A4 + 0x1DC]
0000148C  2050                     movea.l    A0, [A0]
0000148E  3028 0004                move.w     D0, [A0 + 0x4]
00001492  48C0                     ext.l      D0
00001494  4480                     neg.l      D0
00001496  322C 01D6                move.w     D1, [A4 + 0x1D6]
0000149A  D240                     add.w      D1, D0
0000149C  48C1                     ext.l      D1
0000149E  2F01                     move.l     -[A7], D1
000014A0  2F2C 0112                move.l     -[A7], [A4 + 0x112]
000014A4  4EAD 1202                jsr        [A5 + 0x1202 /* export_572, CODE:26 @ 000033B8 */]
000014A8  4AAC 01EC                tst.l      [A4 + 0x1EC]
000014AC  670A                     beq        +0xC /* 000014B8 */
000014AE  202C 01EC                move.l     D0, [A4 + 0x1EC]
000014B2  7280                     moveq.l    D1, 0xFFFFFF80
000014B4  D081                     add.l      D0, D1
000014B6  6002                     bra        +0x4 /* 000014BA */
label000014B8:
000014B8  7000                     moveq.l    D0, 0x00
label000014BA:
000014BA  2640                     movea.l    A3, D0
000014BC  204B                     movea.l    A0, A3
000014BE  226B 0060                movea.l    A1, [A3 + 0x60]
000014C2  D0E9 00B8                add.w      A0, [A1 + 0xB8]
000014C6  2F08                     move.l     -[A7], A0
000014C8  2049                     movea.l    A0, A1
000014CA  2268 00BC                movea.l    A1, [A0 + 0xBC]
000014CE  4E91                     jsr        [A1]
000014D0  2F2C 0112                move.l     -[A7], [A4 + 0x112]
000014D4  4EAD 120A                jsr        [A5 + 0x120A /* export_573, CODE:26 @ 00003404 */]
000014D8  2F2C 0112                move.l     -[A7], [A4 + 0x112]
000014DC  4EAD 11EA                jsr        [A5 + 0x11EA /* export_569, CODE:26 @ 00003268 */]
000014E0  7000                     moveq.l    D0, 0x00
000014E2  2F00                     move.l     -[A7], D0
000014E4  2F0C                     move.l     -[A7], A4
000014E6  4EAD 1F7A                jsr        [A5 + 0x1F7A /* export_1003, CODE:37 @ 00001612 */]
000014EA  4FEF 002C                lea.l      A7, [A7 + 0x2C]
label000014EE:
000014EE  4CEE 1800 FFF8           movem.l    A3,A4, [A6 - 0x8]
000014F4  4E5E                     unlink     A6
000014F6  4E75                     rts
000014F8  9A43 6F70 795F 5F31 3... dc.b       "Copy__16cScrollerDocItemFv"
export_1070:
00001516  4E56 0000                link       A6, 0
0000151A  48E7 0018                movem.l    -[A7], A3,A4
0000151E  286E 0008                movea.l    A4, [A6 + 0x8]
00001522  4AAC 01EC                tst.l      [A4 + 0x1EC]
00001526  6700 0092                beq        +0x94 /* 000015BA */
0000152A  2F2C 01DC                move.l     -[A7], [A4 + 0x1DC]
0000152E  2F0C                     move.l     -[A7], A4
00001530  4EAD 1F6A                jsr        [A5 + 0x1F6A /* export_1001, CODE:37 @ 00001590 */]
00001534  2F2C 0112                move.l     -[A7], [A4 + 0x112]
00001538  4EAD 11E2                jsr        [A5 + 0x11E2 /* export_568, CODE:26 @ 000031FA */]
0000153C  206C 01DC                movea.l    A0, [A4 + 0x1DC]
00001540  2050                     movea.l    A0, [A0]
00001542  3028 0002                move.w     D0, [A0 + 0x2]
00001546  48C0                     ext.l      D0
00001548  4480                     neg.l      D0
0000154A  322C 01D4                move.w     D1, [A4 + 0x1D4]
0000154E  D240                     add.w      D1, D0
00001550  48C1                     ext.l      D1
00001552  2F01                     move.l     -[A7], D1
00001554  206C 01DC                movea.l    A0, [A4 + 0x1DC]
00001558  2050                     movea.l    A0, [A0]
0000155A  3028 0004                move.w     D0, [A0 + 0x4]
0000155E  48C0                     ext.l      D0
00001560  4480                     neg.l      D0
00001562  322C 01D6                move.w     D1, [A4 + 0x1D6]
00001566  D240                     add.w      D1, D0
00001568  48C1                     ext.l      D1
0000156A  2F01                     move.l     -[A7], D1
0000156C  2F2C 0112                move.l     -[A7], [A4 + 0x112]
00001570  4EAD 1202                jsr        [A5 + 0x1202 /* export_572, CODE:26 @ 000033B8 */]
00001574  4AAC 01EC                tst.l      [A4 + 0x1EC]
00001578  670A                     beq        +0xC /* 00001584 */
0000157A  202C 01EC                move.l     D0, [A4 + 0x1EC]
0000157E  7280                     moveq.l    D1, 0xFFFFFF80
00001580  D081                     add.l      D0, D1
00001582  6002                     bra        +0x4 /* 00001586 */
label00001584:
00001584  7000                     moveq.l    D0, 0x00
label00001586:
00001586  2640                     movea.l    A3, D0
00001588  204B                     movea.l    A0, A3
0000158A  226B 0060                movea.l    A1, [A3 + 0x60]
0000158E  D0E9 00C0                add.w      A0, [A1 + 0xC0]
00001592  2F08                     move.l     -[A7], A0
00001594  2049                     movea.l    A0, A1
00001596  2268 00C4                movea.l    A1, [A0 + 0xC4]
0000159A  4E91                     jsr        [A1]
0000159C  2F2C 0112                move.l     -[A7], [A4 + 0x112]
000015A0  4EAD 120A                jsr        [A5 + 0x120A /* export_573, CODE:26 @ 00003404 */]
000015A4  2F2C 0112                move.l     -[A7], [A4 + 0x112]
000015A8  4EAD 11EA                jsr        [A5 + 0x11EA /* export_569, CODE:26 @ 00003268 */]
000015AC  7000                     moveq.l    D0, 0x00
000015AE  2F00                     move.l     -[A7], D0
000015B0  2F0C                     move.l     -[A7], A4
000015B2  4EAD 1F7A                jsr        [A5 + 0x1F7A /* export_1003, CODE:37 @ 00001612 */]
000015B6  4FEF 002C                lea.l      A7, [A7 + 0x2C]
label000015BA:
000015BA  4CEE 1800 FFF8           movem.l    A3,A4, [A6 - 0x8]
000015C0  4E5E                     unlink     A6
000015C2  4E75                     rts
000015C4  9B50 6173 7465 5F5F 3... dc.b       "Paste__16cScrollerDocItemFv"
export_1071:
000015E2  4E56 0000                link       A6, 0
000015E6  48E7 0018                movem.l    -[A7], A3,A4
000015EA  286E 0008                movea.l    A4, [A6 + 0x8]
000015EE  4AAC 01EC                tst.l      [A4 + 0x1EC]
000015F2  6700 0092                beq        +0x94 /* 00001686 */
000015F6  2F2C 01DC                move.l     -[A7], [A4 + 0x1DC]
000015FA  2F0C                     move.l     -[A7], A4
000015FC  4EAD 1F6A                jsr        [A5 + 0x1F6A /* export_1001, CODE:37 @ 00001590 */]
00001600  2F2C 0112                move.l     -[A7], [A4 + 0x112]
00001604  4EAD 11E2                jsr        [A5 + 0x11E2 /* export_568, CODE:26 @ 000031FA */]
00001608  206C 01DC                movea.l    A0, [A4 + 0x1DC]
0000160C  2050                     movea.l    A0, [A0]
0000160E  3028 0002                move.w     D0, [A0 + 0x2]
00001612  48C0                     ext.l      D0
00001614  4480                     neg.l      D0
00001616  322C 01D4                move.w     D1, [A4 + 0x1D4]
0000161A  D240                     add.w      D1, D0
0000161C  48C1                     ext.l      D1
0000161E  2F01                     move.l     -[A7], D1
00001620  206C 01DC                movea.l    A0, [A4 + 0x1DC]
00001624  2050                     movea.l    A0, [A0]
00001626  3028 0004                move.w     D0, [A0 + 0x4]
0000162A  48C0                     ext.l      D0
0000162C  4480                     neg.l      D0
0000162E  322C 01D6                move.w     D1, [A4 + 0x1D6]
00001632  D240                     add.w      D1, D0
00001634  48C1                     ext.l      D1
00001636  2F01                     move.l     -[A7], D1
00001638  2F2C 0112                move.l     -[A7], [A4 + 0x112]
0000163C  4EAD 1202                jsr        [A5 + 0x1202 /* export_572, CODE:26 @ 000033B8 */]
00001640  4AAC 01EC                tst.l      [A4 + 0x1EC]
00001644  670A                     beq        +0xC /* 00001650 */
00001646  202C 01EC                move.l     D0, [A4 + 0x1EC]
0000164A  7280                     moveq.l    D1, 0xFFFFFF80
0000164C  D081                     add.l      D0, D1
0000164E  6002                     bra        +0x4 /* 00001652 */
label00001650:
00001650  7000                     moveq.l    D0, 0x00
label00001652:
00001652  2640                     movea.l    A3, D0
00001654  204B                     movea.l    A0, A3
00001656  226B 0060                movea.l    A1, [A3 + 0x60]
0000165A  D0E9 00C8                add.w      A0, [A1 + 0xC8]
0000165E  2F08                     move.l     -[A7], A0
00001660  2049                     movea.l    A0, A1
00001662  2268 00CC                movea.l    A1, [A0 + 0xCC]
00001666  4E91                     jsr        [A1]
00001668  2F2C 0112                move.l     -[A7], [A4 + 0x112]
0000166C  4EAD 120A                jsr        [A5 + 0x120A /* export_573, CODE:26 @ 00003404 */]
00001670  2F2C 0112                move.l     -[A7], [A4 + 0x112]
00001674  4EAD 11EA                jsr        [A5 + 0x11EA /* export_569, CODE:26 @ 00003268 */]
00001678  7000                     moveq.l    D0, 0x00
0000167A  2F00                     move.l     -[A7], D0
0000167C  2F0C                     move.l     -[A7], A4
0000167E  4EAD 1F7A                jsr        [A5 + 0x1F7A /* export_1003, CODE:37 @ 00001612 */]
00001682  4FEF 002C                lea.l      A7, [A7 + 0x2C]
label00001686:
00001686  4CEE 1800 FFF8           movem.l    A3,A4, [A6 - 0x8]
0000168C  4E5E                     unlink     A6
0000168E  4E75                     rts
00001690  9B43 6C65 6172 5F5F 3... dc.b       "Clear__16cScrollerDocItemFv"
export_1072:
000016AE  4E56 FFF0                link       A6, -0x0010
000016B2  48E7 0018                movem.l    -[A7], A3,A4
000016B6  286E 0008                movea.l    A4, [A6 + 0x8]
000016BA  7000                     moveq.l    D0, 0x00
000016BC  102C 0098                move.b     D0, [A4 + 0x98]
000016C0  7208                     moveq.l    D1, 0x08
000016C2  C200                     and.b      D1, D0
000016C4  7000                     moveq.l    D0, 0x00
000016C6  1001                     move.b     D0, D1
000016C8  4A80                     tst.l      D0
000016CA  6700 015E                beq        +0x160 /* 0000182A */
000016CE  4AAC 01CC                tst.l      [A4 + 0x1CC]
000016D2  6700 00BE                beq        +0xC0 /* 00001792 */
000016D6  2F2C 01CC                move.l     -[A7], [A4 + 0x1CC]
000016DA  4EAD 1D32                jsr        [A5 + 0x1D32 /* export_930, CODE:36 @ 00000FD4 */]
000016DE  2640                     movea.l    A3, D0
000016E0  584F                     addq.w     A7, 4
000016E2  6000 00A8                bra        +0xAA /* 0000178C */
label000016E6:
000016E6  7000                     moveq.l    D0, 0x00
000016E8  102B 0018                move.b     D0, [A3 + 0x18]
000016EC  7220                     moveq.l    D1, 0x20
000016EE  C200                     and.b      D1, D0
000016F0  7000                     moveq.l    D0, 0x00
000016F2  1001                     move.b     D0, D1
000016F4  4A80                     tst.l      D0
000016F6  6600 0090                bne        +0x92 /* 00001788 */
000016FA  7000                     moveq.l    D0, 0x00
000016FC  102B 0018                move.b     D0, [A3 + 0x18]
00001700  7204                     moveq.l    D1, 0x04
00001702  C200                     and.b      D1, D0
00001704  7000                     moveq.l    D0, 0x00
00001706  1001                     move.b     D0, D1
00001708  4A80                     tst.l      D0
0000170A  667C                     bne        +0x7E /* 00001788 */
0000170C  204B                     movea.l    A0, A3
0000170E  226B 0008                movea.l    A1, [A3 + 0x8]
00001712  D0E9 00A8                add.w      A0, [A1 + 0xA8]
00001716  2F08                     move.l     -[A7], A0
00001718  2049                     movea.l    A0, A1
0000171A  2268 00AC                movea.l    A1, [A0 + 0xAC]
0000171E  4E91                     jsr        [A1]
00001720  206C 01DC                movea.l    A0, [A4 + 0x1DC]
00001724  2050                     movea.l    A0, [A0]
00001726  5488                     addq.l     A0, 2
00001728  43EE FFF8                lea.l      A1, [A6 - 0x8]
0000172C  22D8                     move.l     [A1]+, [A0]+
0000172E  22D8                     move.l     [A1]+, [A0]+
00001730  41EB 0010                lea.l      A0, [A3 + 0x10]
00001734  43EE FFF0                lea.l      A1, [A6 - 0x10]
00001738  22D8                     move.l     [A1]+, [A0]+
0000173A  22D8                     move.l     [A1]+, [A0]+
0000173C  486E FFF0                pea.l      [A6 - 0x10]
00001740  302E FFFA                move.w     D0, [A6 - 0x6]
00001744  906C 01D6                sub.w      D0, [A4 + 0x1D6]
00001748  3F00                     move.w     -[A7], D0
0000174A  302E FFF8                move.w     D0, [A6 - 0x8]
0000174E  906C 01D4                sub.w      D0, [A4 + 0x1D4]
00001752  3F00                     move.w     -[A7], D0
00001754  A8A8                     syscall    OffsetRect
00001756  558F                     subq.l     A7, 2
00001758  486E FFF0                pea.l      [A6 - 0x10]
0000175C  486E FFF8                pea.l      [A6 - 0x8]
00001760  486E FFF0                pea.l      [A6 - 0x10]
00001764  A8AA                     syscall    SectRect
00001766  4A1F                     tst.b      [A7]+
00001768  671A                     beq        +0x1C /* 00001784 */
0000176A  2F2C 0120                move.l     -[A7], [A4 + 0x120]
0000176E  486E FFF0                pea.l      [A6 - 0x10]
00001772  A8DF                     syscall    RectRgn
00001774  2F2C 0120                move.l     -[A7], [A4 + 0x120]
00001778  2F0C                     move.l     -[A7], A4
0000177A  4EAD 1F02                jsr        [A5 + 0x1F02 /* export_988, CODE:37 @ 00001218 */]
0000177E  7000                     moveq.l    D0, 0x00
00001780  504F                     addq.w     A7, 8
00001782  6002                     bra        +0x4 /* 00001786 */
label00001784:
00001784  7000                     moveq.l    D0, 0x00
label00001786:
00001786  584F                     addq.w     A7, 4
label00001788:
00001788  266B 0004                movea.l    A3, [A3 + 0x4]
label0000178C:
0000178C  200B                     move.l     D0, A3
0000178E  6600 FF56                bne        -0xA8 /* 000016E6 */
label00001792:
00001792  4AAC 01EC                tst.l      [A4 + 0x1EC]
00001796  6700 0092                beq        +0x94 /* 0000182A */
0000179A  2F2C 01DC                move.l     -[A7], [A4 + 0x1DC]
0000179E  2F0C                     move.l     -[A7], A4
000017A0  4EAD 1F6A                jsr        [A5 + 0x1F6A /* export_1001, CODE:37 @ 00001590 */]
000017A4  2F2C 0112                move.l     -[A7], [A4 + 0x112]
000017A8  4EAD 11E2                jsr        [A5 + 0x11E2 /* export_568, CODE:26 @ 000031FA */]
000017AC  206C 01DC                movea.l    A0, [A4 + 0x1DC]
000017B0  2050                     movea.l    A0, [A0]
000017B2  3028 0002                move.w     D0, [A0 + 0x2]
000017B6  48C0                     ext.l      D0
000017B8  4480                     neg.l      D0
000017BA  322C 01D4                move.w     D1, [A4 + 0x1D4]
000017BE  D240                     add.w      D1, D0
000017C0  48C1                     ext.l      D1
000017C2  2F01                     move.l     -[A7], D1
000017C4  206C 01DC                movea.l    A0, [A4 + 0x1DC]
000017C8  2050                     movea.l    A0, [A0]
000017CA  3028 0004                move.w     D0, [A0 + 0x4]
000017CE  48C0                     ext.l      D0
000017D0  4480                     neg.l      D0
000017D2  322C 01D6                move.w     D1, [A4 + 0x1D6]
000017D6  D240                     add.w      D1, D0
000017D8  48C1                     ext.l      D1
000017DA  2F01                     move.l     -[A7], D1
000017DC  2F2C 0112                move.l     -[A7], [A4 + 0x112]
000017E0  4EAD 1202                jsr        [A5 + 0x1202 /* export_572, CODE:26 @ 000033B8 */]
000017E4  4AAC 01EC                tst.l      [A4 + 0x1EC]
000017E8  670A                     beq        +0xC /* 000017F4 */
000017EA  202C 01EC                move.l     D0, [A4 + 0x1EC]
000017EE  7280                     moveq.l    D1, 0xFFFFFF80
000017F0  D081                     add.l      D0, D1
000017F2  6002                     bra        +0x4 /* 000017F6 */
label000017F4:
000017F4  7000                     moveq.l    D0, 0x00
label000017F6:
000017F6  2640                     movea.l    A3, D0
000017F8  204B                     movea.l    A0, A3
000017FA  226B 0060                movea.l    A1, [A3 + 0x60]
000017FE  D0E9 00D0                add.w      A0, [A1 + 0xD0]
00001802  2F08                     move.l     -[A7], A0
00001804  2049                     movea.l    A0, A1
00001806  2268 00D4                movea.l    A1, [A0 + 0xD4]
0000180A  4E91                     jsr        [A1]
0000180C  2F2C 0112                move.l     -[A7], [A4 + 0x112]
00001810  4EAD 120A                jsr        [A5 + 0x120A /* export_573, CODE:26 @ 00003404 */]
00001814  2F2C 0112                move.l     -[A7], [A4 + 0x112]
00001818  4EAD 11EA                jsr        [A5 + 0x11EA /* export_569, CODE:26 @ 00003268 */]
0000181C  7000                     moveq.l    D0, 0x00
0000181E  2F00                     move.l     -[A7], D0
00001820  2F0C                     move.l     -[A7], A4
00001822  4EAD 1F7A                jsr        [A5 + 0x1F7A /* export_1003, CODE:37 @ 00001612 */]
00001826  4FEF 002C                lea.l      A7, [A7 + 0x2C]
label0000182A:
0000182A  4CEE 1800 FFE8           movem.l    A3,A4, [A6 - 0x18]
00001830  4E5E                     unlink     A6
00001832  4E75                     rts
00001834  9F53 656C 6563 7441 6... dc.b       "SelectAll__16cScrollerDocItemFv"
export_1073:
00001856  4E56 0000                link       A6, 0
0000185A  48E7 0018                movem.l    -[A7], A3,A4
0000185E  286E 0008                movea.l    A4, [A6 + 0x8]
00001862  4AAC 01EC                tst.l      [A4 + 0x1EC]
00001866  6700 0092                beq        +0x94 /* 000018FA */
0000186A  2F2C 01DC                move.l     -[A7], [A4 + 0x1DC]
0000186E  2F0C                     move.l     -[A7], A4
00001870  4EAD 1F6A                jsr        [A5 + 0x1F6A /* export_1001, CODE:37 @ 00001590 */]
00001874  2F2C 0112                move.l     -[A7], [A4 + 0x112]
00001878  4EAD 11E2                jsr        [A5 + 0x11E2 /* export_568, CODE:26 @ 000031FA */]
0000187C  206C 01DC                movea.l    A0, [A4 + 0x1DC]
00001880  2050                     movea.l    A0, [A0]
00001882  3028 0002                move.w     D0, [A0 + 0x2]
00001886  48C0                     ext.l      D0
00001888  4480                     neg.l      D0
0000188A  322C 01D4                move.w     D1, [A4 + 0x1D4]
0000188E  D240                     add.w      D1, D0
00001890  48C1                     ext.l      D1
00001892  2F01                     move.l     -[A7], D1
00001894  206C 01DC                movea.l    A0, [A4 + 0x1DC]
00001898  2050                     movea.l    A0, [A0]
0000189A  3028 0004                move.w     D0, [A0 + 0x4]
0000189E  48C0                     ext.l      D0
000018A0  4480                     neg.l      D0
000018A2  322C 01D6                move.w     D1, [A4 + 0x1D6]
000018A6  D240                     add.w      D1, D0
000018A8  48C1                     ext.l      D1
000018AA  2F01                     move.l     -[A7], D1
000018AC  2F2C 0112                move.l     -[A7], [A4 + 0x112]
000018B0  4EAD 1202                jsr        [A5 + 0x1202 /* export_572, CODE:26 @ 000033B8 */]
000018B4  4AAC 01EC                tst.l      [A4 + 0x1EC]
000018B8  670A                     beq        +0xC /* 000018C4 */
000018BA  202C 01EC                move.l     D0, [A4 + 0x1EC]
000018BE  7280                     moveq.l    D1, 0xFFFFFF80
000018C0  D081                     add.l      D0, D1
000018C2  6002                     bra        +0x4 /* 000018C6 */
label000018C4:
000018C4  7000                     moveq.l    D0, 0x00
label000018C6:
000018C6  2640                     movea.l    A3, D0
000018C8  204B                     movea.l    A0, A3
000018CA  226B 0060                movea.l    A1, [A3 + 0x60]
000018CE  D0E9 00D8                add.w      A0, [A1 + 0xD8]
000018D2  2F08                     move.l     -[A7], A0
000018D4  2049                     movea.l    A0, A1
000018D6  2268 00DC                movea.l    A1, [A0 + 0xDC]
000018DA  4E91                     jsr        [A1]
000018DC  2F2C 0112                move.l     -[A7], [A4 + 0x112]
000018E0  4EAD 120A                jsr        [A5 + 0x120A /* export_573, CODE:26 @ 00003404 */]
000018E4  2F2C 0112                move.l     -[A7], [A4 + 0x112]
000018E8  4EAD 11EA                jsr        [A5 + 0x11EA /* export_569, CODE:26 @ 00003268 */]
000018EC  7000                     moveq.l    D0, 0x00
000018EE  2F00                     move.l     -[A7], D0
000018F0  2F0C                     move.l     -[A7], A4
000018F2  4EAD 1F7A                jsr        [A5 + 0x1F7A /* export_1003, CODE:37 @ 00001612 */]
000018F6  4FEF 002C                lea.l      A7, [A7 + 0x2C]
label000018FA:
000018FA  4CEE 1800 FFF8           movem.l    A3,A4, [A6 - 0x8]
00001900  4E5E                     unlink     A6
00001902  4E75                     rts
00001904  9A55 6E64 6F5F 5F31 3... dc.b       "Undo__16cScrollerDocItemFv"
export_1074:
00001922  4E56 0000                link       A6, 0
00001926  48E7 0018                movem.l    -[A7], A3,A4
0000192A  266E 000C                movea.l    A3, [A6 + 0xC]
0000192E  286E 0008                movea.l    A4, [A6 + 0x8]
00001932  197C 0001 01F6           move.b     [A4 + 0x1F6], 0x1
00001938  302B 0006                move.w     D0, [A3 + 0x6]
0000193C  906B 0002                sub.w      D0, [A3 + 0x2]
00001940  3940 01D2                move.w     [A4 + 0x1D2], D0
00001944  302B 0004                move.w     D0, [A3 + 0x4]
00001948  9053                     sub.w      D0, [A3]
0000194A  3940 01D0                move.w     [A4 + 0x1D0], D0
0000194E  2F2C 01D4                move.l     -[A7], [A4 + 0x1D4]
00001952  2F0C                     move.l     -[A7], A4
00001954  4EBA 003C                jsr        [PC + 0x3C /* 00001992 */]
00001958  4CEE 1800 FFF8           movem.l    A3,A4, [A6 - 0x8]
0000195E  4E5E                     unlink     A6
00001960  4E75                     rts
00001962  802B 5365 744C 6F67 6... dc.b       "SetLogicalBounds__16cScrollerDocItemFP4Rect"
export_1075:
fn00001992:
00001992  4E56 0000                link       A6, 0
00001996  2F0C                     move.l     -[A7], A4
00001998  286E 0008                movea.l    A4, [A6 + 0x8]
0000199C  197C 0001 01F6           move.b     [A4 + 0x1F6], 0x1
000019A2  296E 000C 01D4           move.l     [A4 + 0x1D4], [A6 + 0xC]
000019A8  302C 01D6                move.w     D0, [A4 + 0x1D6]
000019AC  48C0                     ext.l      D0
000019AE  322C 01DA                move.w     D1, [A4 + 0x1DA]
000019B2  48C1                     ext.l      D1
000019B4  D280                     add.l      D1, D0
000019B6  302C 01D2                move.w     D0, [A4 + 0x1D2]
000019BA  48C0                     ext.l      D0
000019BC  B081                     cmp.l      D0, D1
000019BE  6C12                     bge        +0x14 /* 000019D2 */
000019C0  302C 01D2                move.w     D0, [A4 + 0x1D2]
000019C4  906C 01DA                sub.w      D0, [A4 + 0x1DA]
000019C8  3940 01D6                move.w     [A4 + 0x1D6], D0
000019CC  6C04                     bge        +0x6 /* 000019D2 */
000019CE  426C 01D6                clr.w      [A4 + 0x1D6]
label000019D2:
000019D2  302C 01D4                move.w     D0, [A4 + 0x1D4]
000019D6  48C0                     ext.l      D0
000019D8  322C 01D8                move.w     D1, [A4 + 0x1D8]
000019DC  48C1                     ext.l      D1
000019DE  D280                     add.l      D1, D0
000019E0  302C 01D0                move.w     D0, [A4 + 0x1D0]
000019E4  48C0                     ext.l      D0
000019E6  B081                     cmp.l      D0, D1
000019E8  6C12                     bge        +0x14 /* 000019FC */
000019EA  302C 01D0                move.w     D0, [A4 + 0x1D0]
000019EE  906C 01D8                sub.w      D0, [A4 + 0x1D8]
000019F2  3940 01D4                move.w     [A4 + 0x1D4], D0
000019F6  6C04                     bge        +0x6 /* 000019FC */
000019F8  426C 01D4                clr.w      [A4 + 0x1D4]
label000019FC:
000019FC  286E FFFC                movea.l    A4, [A6 - 0x4]
00001A00  4E5E                     unlink     A6
00001A02  4E75                     rts
00001A04  8027 5365 7456 6965 7... dc.b       "SetViewPoint__16cScrollerDocItemF5Point"
fn00001A30:
00001A30  4E56 0000                link       A6, 0
00001A34  48E7 0108                movem.l    -[A7], D7,A4
00001A38  286E 0008                movea.l    A4, [A6 + 0x8]
00001A3C  422C 01F6                clr.b      [A4 + 0x1F6]
00001A40  4A2C 01F0                tst.b      [A4 + 0x1F0]
00001A44  665E                     bne        +0x60 /* 00001AA4 */
00001A46  3E2C 01D0                move.w     D7, [A4 + 0x1D0]
00001A4A  9E6C 01D8                sub.w      D7, [A4 + 0x1D8]
00001A4E  BE6C 01D4                cmp.w      D7, [A4 + 0x1D4]
00001A52  6C04                     bge        +0x6 /* 00001A58 */
00001A54  3947 01D4                move.w     [A4 + 0x1D4], D7
label00001A58:
00001A58  4A6C 01D4                tst.w      [A4 + 0x1D4]
00001A5C  6C04                     bge        +0x6 /* 00001A62 */
00001A5E  426C 01D4                clr.w      [A4 + 0x1D4]
label00001A62:
00001A62  0C47 0001                cmpi.w     D7, 0x1
00001A66  6F26                     ble        +0x28 /* 00001A8E */
00001A68  7001                     moveq.l    D0, 0x01
00001A6A  2F00                     move.l     -[A7], D0
00001A6C  322C 01D4                move.w     D1, [A4 + 0x1D4]
00001A70  5241                     addq.w     D1, 1
00001A72  48C1                     ext.l      D1
00001A74  2F01                     move.l     -[A7], D1
00001A76  3207                     move.w     D1, D7
00001A78  5241                     addq.w     D1, 1
00001A7A  48C1                     ext.l      D1
00001A7C  2F01                     move.l     -[A7], D1
00001A7E  2F00                     move.l     -[A7], D0
00001A80  2F2C 01C4                move.l     -[A7], [A4 + 0x1C4]
00001A84  4EAD 2052                jsr        [A5 + 0x2052 /* export_1030, CODE:37 @ 000032F0 */]
00001A88  4FEF 0014                lea.l      A7, [A7 + 0x14]
00001A8C  6016                     bra        +0x18 /* 00001AA4 */
label00001A8E:
00001A8E  7001                     moveq.l    D0, 0x01
00001A90  2F00                     move.l     -[A7], D0
00001A92  2F00                     move.l     -[A7], D0
00001A94  2F00                     move.l     -[A7], D0
00001A96  2F00                     move.l     -[A7], D0
00001A98  2F2C 01C4                move.l     -[A7], [A4 + 0x1C4]
00001A9C  4EAD 2052                jsr        [A5 + 0x2052 /* export_1030, CODE:37 @ 000032F0 */]
00001AA0  4FEF 0014                lea.l      A7, [A7 + 0x14]
label00001AA4:
00001AA4  4A2C 01F1                tst.b      [A4 + 0x1F1]
00001AA8  665E                     bne        +0x60 /* 00001B08 */
00001AAA  3E2C 01D2                move.w     D7, [A4 + 0x1D2]
00001AAE  9E6C 01DA                sub.w      D7, [A4 + 0x1DA]
00001AB2  BE6C 01D6                cmp.w      D7, [A4 + 0x1D6]
00001AB6  6C04                     bge        +0x6 /* 00001ABC */
00001AB8  3947 01D6                move.w     [A4 + 0x1D6], D7
label00001ABC:
00001ABC  4A6C 01D6                tst.w      [A4 + 0x1D6]
00001AC0  6C04                     bge        +0x6 /* 00001AC6 */
00001AC2  426C 01D6                clr.w      [A4 + 0x1D6]
label00001AC6:
00001AC6  0C47 0001                cmpi.w     D7, 0x1
00001ACA  6F26                     ble        +0x28 /* 00001AF2 */
00001ACC  7001                     moveq.l    D0, 0x01
00001ACE  2F00                     move.l     -[A7], D0
00001AD0  322C 01D6                move.w     D1, [A4 + 0x1D6]
00001AD4  5241                     addq.w     D1, 1
00001AD6  48C1                     ext.l      D1
00001AD8  2F01                     move.l     -[A7], D1
00001ADA  3207                     move.w     D1, D7
00001ADC  5241                     addq.w     D1, 1
00001ADE  48C1                     ext.l      D1
00001AE0  2F01                     move.l     -[A7], D1
00001AE2  2F00                     move.l     -[A7], D0
00001AE4  2F2C 01C8                move.l     -[A7], [A4 + 0x1C8]
00001AE8  4EAD 2052                jsr        [A5 + 0x2052 /* export_1030, CODE:37 @ 000032F0 */]
00001AEC  4FEF 0014                lea.l      A7, [A7 + 0x14]
00001AF0  6016                     bra        +0x18 /* 00001B08 */
label00001AF2:
00001AF2  7001                     moveq.l    D0, 0x01
00001AF4  2F00                     move.l     -[A7], D0
00001AF6  2F00                     move.l     -[A7], D0
00001AF8  2F00                     move.l     -[A7], D0
00001AFA  2F00                     move.l     -[A7], D0
00001AFC  2F2C 01C4                move.l     -[A7], [A4 + 0x1C4]
00001B00  4EAD 2052                jsr        [A5 + 0x2052 /* export_1030, CODE:37 @ 000032F0 */]
00001B04  4FEF 0014                lea.l      A7, [A7 + 0x14]
label00001B08:
00001B08  4CEE 1080 FFF8           movem.l    D7,A4, [A6 - 0x8]
00001B0E  4E5E                     unlink     A6
00001B10  4E75                     rts
00001B12  802A 436F 6D70 7574 6... dc.b       "ComputeTheScrollBars__16cScrollerDocItemFv"
export_1076:
00001B40  4E56 FFE8                link       A6, -0x0018
00001B44  48E7 0318                movem.l    -[A7], D6,D7,A3,A4
00001B48  2C2E 000C                move.l     D6, [A6 + 0xC]
00001B4C  266E 0014                movea.l    A3, [A6 + 0x14]
00001B50  286E 0008                movea.l    A4, [A6 + 0x8]
00001B54  2006                     move.l     D0, D6
00001B56  0480 4742 5433           subi.l     D0, 0x47425433 /* 'GBT3' */
00001B5C  6700 0258                beq        +0x25A /* 00001DB6 */
00001B60  0480 0000 0013           subi.l     D0, 0x13
00001B66  670E                     beq        +0x10 /* 00001B76 */
00001B68  5380                     subq.l     D0, 1
00001B6A  6700 00E2                beq        +0xE4 /* 00001C4E */
00001B6E  5D80                     subq.l     D0, 6
00001B70  6770                     beq        +0x72 /* 00001BE2 */
00001B72  6000 02CE                bra        +0x2D0 /* 00001E42 */
label00001B76:
00001B76  200B                     move.l     D0, A3
00001B78  6730                     beq        +0x32 /* 00001BAA */
00001B7A  7000                     moveq.l    D0, 0x00
00001B7C  102C 0098                move.b     D0, [A4 + 0x98]
00001B80  7208                     moveq.l    D1, 0x08
00001B82  C200                     and.b      D1, D0
00001B84  7000                     moveq.l    D0, 0x00
00001B86  1001                     move.b     D0, D1
00001B88  4A80                     tst.l      D0
00001B8A  661E                     bne        +0x20 /* 00001BAA */
00001B8C  7000                     moveq.l    D0, 0x00
00001B8E  2F00                     move.l     -[A7], D0
00001B90  204C                     movea.l    A0, A4
00001B92  226C 0060                movea.l    A1, [A4 + 0x60]
00001B96  D0E9 0158                add.w      A0, [A1 + 0x158]
00001B9A  2F08                     move.l     -[A7], A0
00001B9C  2049                     movea.l    A0, A1
00001B9E  2268 015C                movea.l    A1, [A0 + 0x15C]
00001BA2  4E91                     jsr        [A1]
00001BA4  504F                     addq.w     A7, 8
00001BA6  6000 02AC                bra        +0x2AE /* 00001E54 */
label00001BAA:
00001BAA  200B                     move.l     D0, A3
00001BAC  6600 02A6                bne        +0x2A8 /* 00001E54 */
00001BB0  7000                     moveq.l    D0, 0x00
00001BB2  102C 0098                move.b     D0, [A4 + 0x98]
00001BB6  7208                     moveq.l    D1, 0x08
00001BB8  C200                     and.b      D1, D0
00001BBA  7000                     moveq.l    D0, 0x00
00001BBC  1001                     move.b     D0, D1
00001BBE  4A80                     tst.l      D0
00001BC0  6700 0292                beq        +0x294 /* 00001E54 */
00001BC4  7000                     moveq.l    D0, 0x00
00001BC6  2F00                     move.l     -[A7], D0
00001BC8  204C                     movea.l    A0, A4
00001BCA  226C 0060                movea.l    A1, [A4 + 0x60]
00001BCE  D0E9 0160                add.w      A0, [A1 + 0x160]
00001BD2  2F08                     move.l     -[A7], A0
00001BD4  2049                     movea.l    A0, A1
00001BD6  2268 0164                movea.l    A1, [A0 + 0x164]
00001BDA  4E91                     jsr        [A1]
00001BDC  504F                     addq.w     A7, 8
00001BDE  6000 0274                bra        +0x276 /* 00001E54 */
label00001BE2:
00001BE2  200B                     move.l     D0, A3
00001BE4  6730                     beq        +0x32 /* 00001C16 */
00001BE6  7000                     moveq.l    D0, 0x00
00001BE8  102C 0098                move.b     D0, [A4 + 0x98]
00001BEC  7208                     moveq.l    D1, 0x08
00001BEE  C200                     and.b      D1, D0
00001BF0  7000                     moveq.l    D0, 0x00
00001BF2  1001                     move.b     D0, D1
00001BF4  4A80                     tst.l      D0
00001BF6  661E                     bne        +0x20 /* 00001C16 */
00001BF8  7001                     moveq.l    D0, 0x01
00001BFA  2F00                     move.l     -[A7], D0
00001BFC  204C                     movea.l    A0, A4
00001BFE  226C 0060                movea.l    A1, [A4 + 0x60]
00001C02  D0E9 0158                add.w      A0, [A1 + 0x158]
00001C06  2F08                     move.l     -[A7], A0
00001C08  2049                     movea.l    A0, A1
00001C0A  2268 015C                movea.l    A1, [A0 + 0x15C]
00001C0E  4E91                     jsr        [A1]
00001C10  504F                     addq.w     A7, 8
00001C12  6000 0240                bra        +0x242 /* 00001E54 */
label00001C16:
00001C16  200B                     move.l     D0, A3
00001C18  6600 023A                bne        +0x23C /* 00001E54 */
00001C1C  7000                     moveq.l    D0, 0x00
00001C1E  102C 0098                move.b     D0, [A4 + 0x98]
00001C22  7208                     moveq.l    D1, 0x08
00001C24  C200                     and.b      D1, D0
00001C26  7000                     moveq.l    D0, 0x00
00001C28  1001                     move.b     D0, D1
00001C2A  4A80                     tst.l      D0
00001C2C  6700 0226                beq        +0x228 /* 00001E54 */
00001C30  7001                     moveq.l    D0, 0x01
00001C32  2F00                     move.l     -[A7], D0
00001C34  204C                     movea.l    A0, A4
00001C36  226C 0060                movea.l    A1, [A4 + 0x60]
00001C3A  D0E9 0160                add.w      A0, [A1 + 0x160]
00001C3E  2F08                     move.l     -[A7], A0
00001C40  2049                     movea.l    A0, A1
00001C42  2268 0164                movea.l    A1, [A0 + 0x164]
00001C46  4E91                     jsr        [A1]
00001C48  504F                     addq.w     A7, 8
00001C4A  6000 0208                bra        +0x20A /* 00001E54 */
label00001C4E:
00001C4E  200B                     move.l     D0, A3
00001C50  670A                     beq        +0xC /* 00001C5C */
00001C52  200B                     move.l     D0, A3
00001C54  D0BC 0000 0080           add.l      D0, 0x80
00001C5A  6002                     bra        +0x4 /* 00001C5E */
label00001C5C:
00001C5C  7000                     moveq.l    D0, 0x00
label00001C5E:
00001C5E  B0AC 01EC                cmp.l      D0, [A4 + 0x1EC]
00001C62  6700 01F0                beq        +0x1F2 /* 00001E54 */
00001C66  2F2C 01DC                move.l     -[A7], [A4 + 0x1DC]
00001C6A  2F0C                     move.l     -[A7], A4
00001C6C  4EAD 1F6A                jsr        [A5 + 0x1F6A /* export_1001, CODE:37 @ 00001590 */]
00001C70  2F2C 0112                move.l     -[A7], [A4 + 0x112]
00001C74  4EAD 11E2                jsr        [A5 + 0x11E2 /* export_568, CODE:26 @ 000031FA */]
00001C78  206C 01DC                movea.l    A0, [A4 + 0x1DC]
00001C7C  2050                     movea.l    A0, [A0]
00001C7E  3028 0002                move.w     D0, [A0 + 0x2]
00001C82  48C0                     ext.l      D0
00001C84  4480                     neg.l      D0
00001C86  322C 01D4                move.w     D1, [A4 + 0x1D4]
00001C8A  D240                     add.w      D1, D0
00001C8C  48C1                     ext.l      D1
00001C8E  2F01                     move.l     -[A7], D1
00001C90  206C 01DC                movea.l    A0, [A4 + 0x1DC]
00001C94  2050                     movea.l    A0, [A0]
00001C96  3028 0004                move.w     D0, [A0 + 0x4]
00001C9A  48C0                     ext.l      D0
00001C9C  4480                     neg.l      D0
00001C9E  322C 01D6                move.w     D1, [A4 + 0x1D6]
00001CA2  D240                     add.w      D1, D0
00001CA4  48C1                     ext.l      D1
00001CA6  2F01                     move.l     -[A7], D1
00001CA8  2F2C 0112                move.l     -[A7], [A4 + 0x112]
00001CAC  4EAD 1202                jsr        [A5 + 0x1202 /* export_572, CODE:26 @ 000033B8 */]
00001CB0  4AAC 01EC                tst.l      [A4 + 0x1EC]
00001CB4  4FEF 0018                lea.l      A7, [A7 + 0x18]
00001CB8  674C                     beq        +0x4E /* 00001D06 */
00001CBA  4AAC 01EC                tst.l      [A4 + 0x1EC]
00001CBE  670A                     beq        +0xC /* 00001CCA */
00001CC0  202C 01EC                move.l     D0, [A4 + 0x1EC]
00001CC4  7280                     moveq.l    D1, 0xFFFFFF80
00001CC6  D081                     add.l      D0, D1
00001CC8  6002                     bra        +0x4 /* 00001CCC */
label00001CCA:
00001CCA  7000                     moveq.l    D0, 0x00
label00001CCC:
00001CCC  2D40 FFE8                move.l     [A6 - 0x18], D0
00001CD0  2D4C FFEC                move.l     [A6 - 0x14], A4
00001CD4  7000                     moveq.l    D0, 0x00
00001CD6  2D40 FFF0                move.l     [A6 - 0x10], D0
00001CDA  2F00                     move.l     -[A7], D0
00001CDC  2F0C                     move.l     -[A7], A4
00001CDE  2F3C 4742 5446           move.l     -[A7], 0x47425446 /* 'GBTF' */
00001CE4  206E FFE8                movea.l    A0, [A6 - 0x18]
00001CE8  2248                     movea.l    A1, A0
00001CEA  2269 0060                movea.l    A1, [A1 + 0x60]
00001CEE  D0E9 0058                add.w      A0, [A1 + 0x58]
00001CF2  2F08                     move.l     -[A7], A0
00001CF4  206E FFE8                movea.l    A0, [A6 - 0x18]
00001CF8  2068 0060                movea.l    A0, [A0 + 0x60]
00001CFC  2268 005C                movea.l    A1, [A0 + 0x5C]
00001D00  4E91                     jsr        [A1]
00001D02  4FEF 0010                lea.l      A7, [A7 + 0x10]
label00001D06:
00001D06  200B                     move.l     D0, A3
00001D08  670A                     beq        +0xC /* 00001D14 */
00001D0A  200B                     move.l     D0, A3
00001D0C  D0BC 0000 0080           add.l      D0, 0x80
00001D12  6002                     bra        +0x4 /* 00001D16 */
label00001D14:
00001D14  7000                     moveq.l    D0, 0x00
label00001D16:
00001D16  2940 01EC                move.l     [A4 + 0x1EC], D0
00001D1A  674C                     beq        +0x4E /* 00001D68 */
00001D1C  4AAC 01EC                tst.l      [A4 + 0x1EC]
00001D20  670A                     beq        +0xC /* 00001D2C */
00001D22  202C 01EC                move.l     D0, [A4 + 0x1EC]
00001D26  7280                     moveq.l    D1, 0xFFFFFF80
00001D28  D081                     add.l      D0, D1
00001D2A  6002                     bra        +0x4 /* 00001D2E */
label00001D2C:
00001D2C  7000                     moveq.l    D0, 0x00
label00001D2E:
00001D2E  2D40 FFF4                move.l     [A6 - 0xC], D0
00001D32  2D4C FFF8                move.l     [A6 - 0x8], A4
00001D36  7001                     moveq.l    D0, 0x01
00001D38  2D40 FFFC                move.l     [A6 - 0x4], D0
00001D3C  2F00                     move.l     -[A7], D0
00001D3E  2F0C                     move.l     -[A7], A4
00001D40  2F3C 4742 5446           move.l     -[A7], 0x47425446 /* 'GBTF' */
00001D46  206E FFF4                movea.l    A0, [A6 - 0xC]
00001D4A  2248                     movea.l    A1, A0
00001D4C  2269 0060                movea.l    A1, [A1 + 0x60]
00001D50  D0E9 0058                add.w      A0, [A1 + 0x58]
00001D54  2F08                     move.l     -[A7], A0
00001D56  206E FFF4                movea.l    A0, [A6 - 0xC]
00001D5A  2068 0060                movea.l    A0, [A0 + 0x60]
00001D5E  2268 005C                movea.l    A1, [A0 + 0x5C]
00001D62  4E91                     jsr        [A1]
00001D64  4FEF 0010                lea.l      A7, [A7 + 0x10]
label00001D68:
00001D68  7000                     moveq.l    D0, 0x00
00001D6A  3F00                     move.w     -[A7], D0
00001D6C  3F00                     move.w     -[A7], D0
00001D6E  A878                     syscall    SetOrigin
00001D70  200B                     move.l     D0, A3
00001D72  6720                     beq        +0x22 /* 00001D94 */
00001D74  2F0C                     move.l     -[A7], A4
00001D76  2F3C 4742 5447           move.l     -[A7], 0x47425447 /* 'GBTG' */
00001D7C  204C                     movea.l    A0, A4
00001D7E  226C 0060                movea.l    A1, [A4 + 0x60]
00001D82  D0E9 0060                add.w      A0, [A1 + 0x60]
00001D86  2F08                     move.l     -[A7], A0
00001D88  2049                     movea.l    A0, A1
00001D8A  2268 0064                movea.l    A1, [A0 + 0x64]
00001D8E  4E91                     jsr        [A1]
00001D90  4FEF 000C                lea.l      A7, [A7 + 0xC]
label00001D94:
00001D94  2F2C 0112                move.l     -[A7], [A4 + 0x112]
00001D98  4EAD 120A                jsr        [A5 + 0x120A /* export_573, CODE:26 @ 00003404 */]
00001D9C  7000                     moveq.l    D0, 0x00
00001D9E  2F00                     move.l     -[A7], D0
00001DA0  2F0C                     move.l     -[A7], A4
00001DA2  4EAD 1F7A                jsr        [A5 + 0x1F7A /* export_1003, CODE:37 @ 00001612 */]
00001DA6  2F2C 0112                move.l     -[A7], [A4 + 0x112]
00001DAA  4EAD 11EA                jsr        [A5 + 0x11EA /* export_569, CODE:26 @ 00003268 */]
00001DAE  4FEF 0010                lea.l      A7, [A7 + 0x10]
00001DB2  6000 00A0                bra        +0xA2 /* 00001E54 */
label00001DB6:
00001DB6  202E 0010                move.l     D0, [A6 + 0x10]
00001DBA  B0AC 01C4                cmp.l      D0, [A4 + 0x1C4]
00001DBE  663C                     bne        +0x3E /* 00001DFC */
00001DC0  302B 0004                move.w     D0, [A3 + 0x4]
00001DC4  48C0                     ext.l      D0
00001DC6  322C 01D4                move.w     D1, [A4 + 0x1D4]
00001DCA  48C1                     ext.l      D1
00001DCC  9081                     sub.l      D0, D1
00001DCE  3E00                     move.w     D7, D0
00001DD0  5347                     subq.w     D7, 1
00001DD2  2D6C 01D4 FFFC           move.l     [A6 - 0x4], [A4 + 0x1D4]
00001DD8  DF6E FFFC                add.w      [A6 - 0x4], D7
00001DDC  2F2E FFFC                move.l     -[A7], [A6 - 0x4]
00001DE0  204C                     movea.l    A0, A4
00001DE2  226C 0060                movea.l    A1, [A4 + 0x60]
00001DE6  D0E9 0150                add.w      A0, [A1 + 0x150]
00001DEA  2F08                     move.l     -[A7], A0
00001DEC  2049                     movea.l    A0, A1
00001DEE  2268 0154                movea.l    A1, [A0 + 0x154]
00001DF2  4E91                     jsr        [A1]
00001DF4  422C 01F6                clr.b      [A4 + 0x1F6]
00001DF8  504F                     addq.w     A7, 8
00001DFA  6058                     bra        +0x5A /* 00001E54 */
label00001DFC:
00001DFC  202E 0010                move.l     D0, [A6 + 0x10]
00001E00  B0AC 01C8                cmp.l      D0, [A4 + 0x1C8]
00001E04  664E                     bne        +0x50 /* 00001E54 */
00001E06  302B 0004                move.w     D0, [A3 + 0x4]
00001E0A  48C0                     ext.l      D0
00001E0C  322C 01D6                move.w     D1, [A4 + 0x1D6]
00001E10  48C1                     ext.l      D1
00001E12  9081                     sub.l      D0, D1
00001E14  3E00                     move.w     D7, D0
00001E16  5347                     subq.w     D7, 1
00001E18  2D6C 01D4 FFFC           move.l     [A6 - 0x4], [A4 + 0x1D4]
00001E1E  DF6E FFFE                add.w      [A6 - 0x2], D7
00001E22  2F2E FFFC                move.l     -[A7], [A6 - 0x4]
00001E26  204C                     movea.l    A0, A4
00001E28  226C 0060                movea.l    A1, [A4 + 0x60]
00001E2C  D0E9 0150                add.w      A0, [A1 + 0x150]
00001E30  2F08                     move.l     -[A7], A0
00001E32  2049                     movea.l    A0, A1
00001E34  2268 0154                movea.l    A1, [A0 + 0x154]
00001E38  4E91                     jsr        [A1]
00001E3A  422C 01F6                clr.b      [A4 + 0x1F6]
00001E3E  504F                     addq.w     A7, 8
00001E40  6012                     bra        +0x14 /* 00001E54 */
label00001E42:
00001E42  2F0B                     move.l     -[A7], A3
00001E44  2F2E 0010                move.l     -[A7], [A6 + 0x10]
00001E48  2F06                     move.l     -[A7], D6
00001E4A  2F0C                     move.l     -[A7], A4
00001E4C  4EAD 14C2                jsr        [A5 + 0x14C2 /* export_660, CODE:32 @ 00000440 */]
00001E50  4FEF 0010                lea.l      A7, [A7 + 0x10]
label00001E54:
00001E54  4CEE 18C0 FFD8           movem.l    D6,D7,A3,A4, [A6 - 0x28]
00001E5A  4E5E                     unlink     A6
00001E5C  4E75                     rts
00001E5E  802E 4861 7342 6565 6... dc.b       "HasBeenAChange__16cScrollerDocItemFlP6cAgentPc"
export_1077:
00001E90  4E56 FFE0                link       A6, -0x0020
00001E94  48E7 0118                movem.l    -[A7], D7,A3,A4
00001E98  1E2E 000F                move.b     D7, [A6 + 0xF]
00001E9C  286E 0008                movea.l    A4, [A6 + 0x8]
00001EA0  204C                     movea.l    A0, A4
00001EA2  226C 0060                movea.l    A1, [A4 + 0x60]
00001EA6  D0E9 00F0                add.w      A0, [A1 + 0xF0]
00001EAA  2F08                     move.l     -[A7], A0
00001EAC  2049                     movea.l    A0, A1
00001EAE  2268 00F4                movea.l    A1, [A0 + 0xF4]
00001EB2  4E91                     jsr        [A1]
00001EB4  2F2C 0112                move.l     -[A7], [A4 + 0x112]
00001EB8  4EAD 11E2                jsr        [A5 + 0x11E2 /* export_568, CODE:26 @ 000031FA */]
00001EBC  2F2C 01DC                move.l     -[A7], [A4 + 0x1DC]
00001EC0  2F0C                     move.l     -[A7], A4
00001EC2  4EAD 1F6A                jsr        [A5 + 0x1F6A /* export_1001, CODE:37 @ 00001590 */]
00001EC6  206C 01DC                movea.l    A0, [A4 + 0x1DC]
00001ECA  2050                     movea.l    A0, [A0]
00001ECC  3028 0002                move.w     D0, [A0 + 0x2]
00001ED0  48C0                     ext.l      D0
00001ED2  4480                     neg.l      D0
00001ED4  322C 01D4                move.w     D1, [A4 + 0x1D4]
00001ED8  D240                     add.w      D1, D0
00001EDA  48C1                     ext.l      D1
00001EDC  2F01                     move.l     -[A7], D1
00001EDE  206C 01DC                movea.l    A0, [A4 + 0x1DC]
00001EE2  2050                     movea.l    A0, [A0]
00001EE4  3028 0004                move.w     D0, [A0 + 0x4]
00001EE8  48C0                     ext.l      D0
00001EEA  4480                     neg.l      D0
00001EEC  322C 01D6                move.w     D1, [A4 + 0x1D6]
00001EF0  D240                     add.w      D1, D0
00001EF2  48C1                     ext.l      D1
00001EF4  2F01                     move.l     -[A7], D1
00001EF6  2F2C 0112                move.l     -[A7], [A4 + 0x112]
00001EFA  4EAD 1202                jsr        [A5 + 0x1202 /* export_572, CODE:26 @ 000033B8 */]
00001EFE  4AAC 01EC                tst.l      [A4 + 0x1EC]
00001F02  4FEF 001C                lea.l      A7, [A7 + 0x1C]
00001F06  6700 00A4                beq        +0xA6 /* 00001FAC */
00001F0A  206C 01EC                movea.l    A0, [A4 + 0x1EC]
00001F0E  7000                     moveq.l    D0, 0x00
00001F10  1028 0018                move.b     D0, [A0 + 0x18]
00001F14  7220                     moveq.l    D1, 0x20
00001F16  C200                     and.b      D1, D0
00001F18  7000                     moveq.l    D0, 0x00
00001F1A  1001                     move.b     D0, D1
00001F1C  4A80                     tst.l      D0
00001F1E  6700 008C                beq        +0x8E /* 00001FAC */
00001F22  4A07                     tst.b      D7
00001F24  6742                     beq        +0x44 /* 00001F68 */
00001F26  4AAC 01EC                tst.l      [A4 + 0x1EC]
00001F2A  6708                     beq        +0xA /* 00001F34 */
00001F2C  2008                     move.l     D0, A0
00001F2E  7280                     moveq.l    D1, 0xFFFFFF80
00001F30  D081                     add.l      D0, D1
00001F32  6002                     bra        +0x4 /* 00001F36 */
label00001F34:
00001F34  7000                     moveq.l    D0, 0x00
label00001F36:
00001F36  2640                     movea.l    A3, D0
00001F38  2D4C FFF0                move.l     [A6 - 0x10], A4
00001F3C  7001                     moveq.l    D0, 0x01
00001F3E  2D40 FFF4                move.l     [A6 - 0xC], D0
00001F42  2F00                     move.l     -[A7], D0
00001F44  2F0C                     move.l     -[A7], A4
00001F46  2F3C 4742 544D           move.l     -[A7], 0x4742544D /* 'GBTM' */
00001F4C  204B                     movea.l    A0, A3
00001F4E  226B 0060                movea.l    A1, [A3 + 0x60]
00001F52  D0E9 0058                add.w      A0, [A1 + 0x58]
00001F56  2F08                     move.l     -[A7], A0
00001F58  2049                     movea.l    A0, A1
00001F5A  2268 005C                movea.l    A1, [A0 + 0x5C]
00001F5E  4E91                     jsr        [A1]
00001F60  4FEF 0010                lea.l      A7, [A7 + 0x10]
00001F64  6000 015C                bra        +0x15E /* 000020C2 */
label00001F68:
00001F68  4AAC 01EC                tst.l      [A4 + 0x1EC]
00001F6C  670A                     beq        +0xC /* 00001F78 */
00001F6E  202C 01EC                move.l     D0, [A4 + 0x1EC]
00001F72  7280                     moveq.l    D1, 0xFFFFFF80
00001F74  D081                     add.l      D0, D1
00001F76  6002                     bra        +0x4 /* 00001F7A */
label00001F78:
00001F78  7000                     moveq.l    D0, 0x00
label00001F7A:
00001F7A  2640                     movea.l    A3, D0
00001F7C  2D4C FFF8                move.l     [A6 - 0x8], A4
00001F80  7001                     moveq.l    D0, 0x01
00001F82  2D40 FFFC                move.l     [A6 - 0x4], D0
00001F86  2F00                     move.l     -[A7], D0
00001F88  2F0C                     move.l     -[A7], A4
00001F8A  2F3C 4742 5446           move.l     -[A7], 0x47425446 /* 'GBTF' */
00001F90  204B                     movea.l    A0, A3
00001F92  226B 0060                movea.l    A1, [A3 + 0x60]
00001F96  D0E9 0058                add.w      A0, [A1 + 0x58]
00001F9A  2F08                     move.l     -[A7], A0
00001F9C  2049                     movea.l    A0, A1
00001F9E  2268 005C                movea.l    A1, [A0 + 0x5C]
00001FA2  4E91                     jsr        [A1]
00001FA4  4FEF 0010                lea.l      A7, [A7 + 0x10]
00001FA8  6000 0118                bra        +0x11A /* 000020C2 */
label00001FAC:
00001FAC  296C 01CC 01EC           move.l     [A4 + 0x1EC], [A4 + 0x1CC]
00001FB2  607A                     bra        +0x7C /* 0000202E */
label00001FB4:
00001FB4  206C 01EC                movea.l    A0, [A4 + 0x1EC]
00001FB8  7000                     moveq.l    D0, 0x00
00001FBA  1028 0018                move.b     D0, [A0 + 0x18]
00001FBE  7220                     moveq.l    D1, 0x20
00001FC0  C200                     and.b      D1, D0
00001FC2  7000                     moveq.l    D0, 0x00
00001FC4  1001                     move.b     D0, D1
00001FC6  4A80                     tst.l      D0
00001FC8  675A                     beq        +0x5C /* 00002024 */
00001FCA  4AAC 01EC                tst.l      [A4 + 0x1EC]
00001FCE  6708                     beq        +0xA /* 00001FD8 */
00001FD0  2008                     move.l     D0, A0
00001FD2  7280                     moveq.l    D1, 0xFFFFFF80
00001FD4  D081                     add.l      D0, D1
00001FD6  6002                     bra        +0x4 /* 00001FDA */
label00001FD8:
00001FD8  7000                     moveq.l    D0, 0x00
label00001FDA:
00001FDA  2240                     movea.l    A1, D0
00001FDC  43E9 0080                lea.l      A1, [A1 + 0x80]
00001FE0  2049                     movea.l    A0, A1
00001FE2  4AAC 01EC                tst.l      [A4 + 0x1EC]
00001FE6  670A                     beq        +0xC /* 00001FF2 */
00001FE8  202C 01EC                move.l     D0, [A4 + 0x1EC]
00001FEC  7280                     moveq.l    D1, 0xFFFFFF80
00001FEE  D081                     add.l      D0, D1
00001FF0  6002                     bra        +0x4 /* 00001FF4 */
label00001FF2:
00001FF2  7000                     moveq.l    D0, 0x00
label00001FF4:
00001FF4  2240                     movea.l    A1, D0
00001FF6  2269 0088                movea.l    A1, [A1 + 0x88]
00001FFA  D0E9 00E0                add.w      A0, [A1 + 0xE0]
00001FFE  2F08                     move.l     -[A7], A0
00002000  4AAC 01EC                tst.l      [A4 + 0x1EC]
00002004  670A                     beq        +0xC /* 00002010 */
00002006  202C 01EC                move.l     D0, [A4 + 0x1EC]
0000200A  7280                     moveq.l    D1, 0xFFFFFF80
0000200C  D081                     add.l      D0, D1
0000200E  6002                     bra        +0x4 /* 00002012 */
label00002010:
00002010  7000                     moveq.l    D0, 0x00
label00002012:
00002012  2040                     movea.l    A0, D0
00002014  2068 0088                movea.l    A0, [A0 + 0x88]
00002018  2268 00E4                movea.l    A1, [A0 + 0xE4]
0000201C  4E91                     jsr        [A1]
0000201E  4A00                     tst.b      D0
00002020  584F                     addq.w     A7, 4
00002022  6610                     bne        +0x12 /* 00002034 */
label00002024:
00002024  206C 01EC                movea.l    A0, [A4 + 0x1EC]
00002028  2968 0004 01EC           move.l     [A4 + 0x1EC], [A0 + 0x4]
label0000202E:
0000202E  4AAC 01EC                tst.l      [A4 + 0x1EC]
00002032  6680                     bne        -0x7E /* 00001FB4 */
label00002034:
00002034  4AAC 01EC                tst.l      [A4 + 0x1EC]
00002038  6700 0088                beq        +0x8A /* 000020C2 */
0000203C  4A07                     tst.b      D7
0000203E  6742                     beq        +0x44 /* 00002082 */
00002040  4AAC 01EC                tst.l      [A4 + 0x1EC]
00002044  670A                     beq        +0xC /* 00002050 */
00002046  202C 01EC                move.l     D0, [A4 + 0x1EC]
0000204A  7280                     moveq.l    D1, 0xFFFFFF80
0000204C  D081                     add.l      D0, D1
0000204E  6002                     bra        +0x4 /* 00002052 */
label00002050:
00002050  7000                     moveq.l    D0, 0x00
label00002052:
00002052  2640                     movea.l    A3, D0
00002054  2D4C FFE0                move.l     [A6 - 0x20], A4
00002058  7001                     moveq.l    D0, 0x01
0000205A  2D40 FFE4                move.l     [A6 - 0x1C], D0
0000205E  2F00                     move.l     -[A7], D0
00002060  2F0C                     move.l     -[A7], A4
00002062  2F3C 4742 544D           move.l     -[A7], 0x4742544D /* 'GBTM' */
00002068  204B                     movea.l    A0, A3
0000206A  226B 0060                movea.l    A1, [A3 + 0x60]
0000206E  D0E9 0058                add.w      A0, [A1 + 0x58]
00002072  2F08                     move.l     -[A7], A0
00002074  2049                     movea.l    A0, A1
00002076  2268 005C                movea.l    A1, [A0 + 0x5C]
0000207A  4E91                     jsr        [A1]
0000207C  4FEF 0010                lea.l      A7, [A7 + 0x10]
00002080  6040                     bra        +0x42 /* 000020C2 */
label00002082:
00002082  4AAC 01EC                tst.l      [A4 + 0x1EC]
00002086  670A                     beq        +0xC /* 00002092 */
00002088  202C 01EC                move.l     D0, [A4 + 0x1EC]
0000208C  7280                     moveq.l    D1, 0xFFFFFF80
0000208E  D081                     add.l      D0, D1
00002090  6002                     bra        +0x4 /* 00002094 */
label00002092:
00002092  7000                     moveq.l    D0, 0x00
label00002094:
00002094  2640                     movea.l    A3, D0
00002096  2D4C FFE8                move.l     [A6 - 0x18], A4
0000209A  7001                     moveq.l    D0, 0x01
0000209C  2D40 FFEC                move.l     [A6 - 0x14], D0
000020A0  2F00                     move.l     -[A7], D0
000020A2  2F0C                     move.l     -[A7], A4
000020A4  2F3C 4742 5446           move.l     -[A7], 0x47425446 /* 'GBTF' */
000020AA  204B                     movea.l    A0, A3
000020AC  226B 0060                movea.l    A1, [A3 + 0x60]
000020B0  D0E9 0058                add.w      A0, [A1 + 0x58]
000020B4  2F08                     move.l     -[A7], A0
000020B6  2049                     movea.l    A0, A1
000020B8  2268 005C                movea.l    A1, [A0 + 0x5C]
000020BC  4E91                     jsr        [A1]
000020BE  4FEF 0010                lea.l      A7, [A7 + 0x10]
label000020C2:
000020C2  2F2C 0112                move.l     -[A7], [A4 + 0x112]
000020C6  4EAD 120A                jsr        [A5 + 0x120A /* export_573, CODE:26 @ 00003404 */]
000020CA  7000                     moveq.l    D0, 0x00
000020CC  2F00                     move.l     -[A7], D0
000020CE  2F0C                     move.l     -[A7], A4
000020D0  4EAD 1F7A                jsr        [A5 + 0x1F7A /* export_1003, CODE:37 @ 00001612 */]
000020D4  2F2C 0112                move.l     -[A7], [A4 + 0x112]
000020D8  4EAD 11EA                jsr        [A5 + 0x11EA /* export_569, CODE:26 @ 00003268 */]
000020DC  4FEF 0010                lea.l      A7, [A7 + 0x10]
000020E0  4CEE 1880 FFD4           movem.l    D7,A3,A4, [A6 - 0x2C]
000020E6  4E5E                     unlink     A6
000020E8  4E75                     rts
000020EA  8028 446F 4163 7469 7... dc.b       "DoActivationTasks__16cScrollerDocItemFUc"
export_1078:
00002116  4E56 FFBE                link       A6, -0x0042
0000211A  48E7 0018                movem.l    -[A7], A3,A4
0000211E  286E 0008                movea.l    A4, [A6 + 0x8]
00002122  204C                     movea.l    A0, A4
00002124  226C 0060                movea.l    A1, [A4 + 0x60]
00002128  D0E9 00F8                add.w      A0, [A1 + 0xF8]
0000212C  2F08                     move.l     -[A7], A0
0000212E  2049                     movea.l    A0, A1
00002130  2268 00FC                movea.l    A1, [A0 + 0xFC]
00002134  4E91                     jsr        [A1]
00002136  2F2C 0112                move.l     -[A7], [A4 + 0x112]
0000213A  4EAD 11E2                jsr        [A5 + 0x11E2 /* export_568, CODE:26 @ 000031FA */]
0000213E  2F2C 01DC                move.l     -[A7], [A4 + 0x1DC]
00002142  2F0C                     move.l     -[A7], A4
00002144  4EAD 1F5A                jsr        [A5 + 0x1F5A /* export_999, CODE:37 @ 00001518 */]
00002148  206C 01DC                movea.l    A0, [A4 + 0x1DC]
0000214C  2050                     movea.l    A0, [A0]
0000214E  3028 0002                move.w     D0, [A0 + 0x2]
00002152  48C0                     ext.l      D0
00002154  4480                     neg.l      D0
00002156  322C 01D4                move.w     D1, [A4 + 0x1D4]
0000215A  D240                     add.w      D1, D0
0000215C  48C1                     ext.l      D1
0000215E  2F01                     move.l     -[A7], D1
00002160  206C 01DC                movea.l    A0, [A4 + 0x1DC]
00002164  2050                     movea.l    A0, [A0]
00002166  3028 0004                move.w     D0, [A0 + 0x4]
0000216A  48C0                     ext.l      D0
0000216C  4480                     neg.l      D0
0000216E  322C 01D6                move.w     D1, [A4 + 0x1D6]
00002172  D240                     add.w      D1, D0
00002174  48C1                     ext.l      D1
00002176  2F01                     move.l     -[A7], D1
00002178  2F2C 0112                move.l     -[A7], [A4 + 0x112]
0000217C  4EAD 1202                jsr        [A5 + 0x1202 /* export_572, CODE:26 @ 000033B8 */]
00002180  4AAC 01EC                tst.l      [A4 + 0x1EC]
00002184  4FEF 001C                lea.l      A7, [A7 + 0x1C]
00002188  6700 00A0                beq        +0xA2 /* 0000222A */
0000218C  206C 01EC                movea.l    A0, [A4 + 0x1EC]
00002190  7000                     moveq.l    D0, 0x00
00002192  1028 0018                move.b     D0, [A0 + 0x18]
00002196  7220                     moveq.l    D1, 0x20
00002198  C200                     and.b      D1, D0
0000219A  7000                     moveq.l    D0, 0x00
0000219C  1001                     move.b     D0, D1
0000219E  4A80                     tst.l      D0
000021A0  6700 0088                beq        +0x8A /* 0000222A */
000021A4  4A2E 000F                tst.b      [A6 + 0xF]
000021A8  6740                     beq        +0x42 /* 000021EA */
000021AA  4AAC 01EC                tst.l      [A4 + 0x1EC]
000021AE  6708                     beq        +0xA /* 000021B8 */
000021B0  2008                     move.l     D0, A0
000021B2  7280                     moveq.l    D1, 0xFFFFFF80
000021B4  D081                     add.l      D0, D1
000021B6  6002                     bra        +0x4 /* 000021BA */
label000021B8:
000021B8  7000                     moveq.l    D0, 0x00
label000021BA:
000021BA  2640                     movea.l    A3, D0
000021BC  2D4C FFF0                move.l     [A6 - 0x10], A4
000021C0  7000                     moveq.l    D0, 0x00
000021C2  2D40 FFF4                move.l     [A6 - 0xC], D0
000021C6  2F00                     move.l     -[A7], D0
000021C8  2F0C                     move.l     -[A7], A4
000021CA  2F3C 4742 544D           move.l     -[A7], 0x4742544D /* 'GBTM' */
000021D0  204B                     movea.l    A0, A3
000021D2  226B 0060                movea.l    A1, [A3 + 0x60]
000021D6  D0E9 0058                add.w      A0, [A1 + 0x58]
000021DA  2F08                     move.l     -[A7], A0
000021DC  2049                     movea.l    A0, A1
000021DE  2268 005C                movea.l    A1, [A0 + 0x5C]
000021E2  4E91                     jsr        [A1]
000021E4  4FEF 0010                lea.l      A7, [A7 + 0x10]
000021E8  6040                     bra        +0x42 /* 0000222A */
label000021EA:
000021EA  4AAC 01EC                tst.l      [A4 + 0x1EC]
000021EE  670A                     beq        +0xC /* 000021FA */
000021F0  202C 01EC                move.l     D0, [A4 + 0x1EC]
000021F4  7280                     moveq.l    D1, 0xFFFFFF80
000021F6  D081                     add.l      D0, D1
000021F8  6002                     bra        +0x4 /* 000021FC */
label000021FA:
000021FA  7000                     moveq.l    D0, 0x00
label000021FC:
000021FC  2640                     movea.l    A3, D0
000021FE  2D4C FFF8                move.l     [A6 - 0x8], A4
00002202  7000                     moveq.l    D0, 0x00
00002204  2D40 FFFC                move.l     [A6 - 0x4], D0
00002208  2F00                     move.l     -[A7], D0
0000220A  2F0C                     move.l     -[A7], A4
0000220C  2F3C 4742 5446           move.l     -[A7], 0x47425446 /* 'GBTF' */
00002212  204B                     movea.l    A0, A3
00002214  226B 0060                movea.l    A1, [A3 + 0x60]
00002218  D0E9 0058                add.w      A0, [A1 + 0x58]
0000221C  2F08                     move.l     -[A7], A0
0000221E  2049                     movea.l    A0, A1
00002220  2268 005C                movea.l    A1, [A0 + 0x5C]
00002224  4E91                     jsr        [A1]
00002226  4FEF 0010                lea.l      A7, [A7 + 0x10]
label0000222A:
0000222A  4A2C 01FB                tst.b      [A4 + 0x1FB]
0000222E  6700 00AA                beq        +0xAC /* 000022DA */
00002232  266C 01CC                movea.l    A3, [A4 + 0x1CC]
00002236  200B                     move.l     D0, A3
00002238  670A                     beq        +0xC /* 00002244 */
0000223A  2F0B                     move.l     -[A7], A3
0000223C  4EAD 1C82                jsr        [A5 + 0x1C82 /* export_908, CODE:36 @ 0000071E */]
00002240  2640                     movea.l    A3, D0
00002242  584F                     addq.w     A7, 4
label00002244:
00002244  7000                     moveq.l    D0, 0x00
00002246  2F00                     move.l     -[A7], D0
00002248  486E FFBE                pea.l      [A6 - 0x42]
0000224C  4EAD 15BA                jsr        [A5 + 0x15BA /* export_691, CODE:32 @ 000025FA */]
00002250  0CAD 0000 0200 F29A      cmpi.l     [A5 - 0xD66], 0x200
00002258  504F                     addq.w     A7, 8
0000225A  6D5C                     blt        +0x5E /* 000022B8 */
0000225C  486E FFBE                pea.l      [A6 - 0x42]
00002260  AA1A                     syscall    GetBackColor
00002262  486C 00CC                pea.l      [A4 + 0xCC]
00002266  AA15                     syscall    RGBBackColor
00002268  604E                     bra        +0x50 /* 000022B8 */
label0000226A:
0000226A  204B                     movea.l    A0, A3
0000226C  226B 0008                movea.l    A1, [A3 + 0x8]
00002270  D0E9 00B0                add.w      A0, [A1 + 0xB0]
00002274  2F08                     move.l     -[A7], A0
00002276  2049                     movea.l    A0, A1
00002278  2268 00B4                movea.l    A1, [A0 + 0xB4]
0000227C  4E91                     jsr        [A1]
0000227E  7000                     moveq.l    D0, 0x00
00002280  102C 0098                move.b     D0, [A4 + 0x98]
00002284  323C 0080                move.w     D1, 0x80
00002288  C200                     and.b      D1, D0
0000228A  7000                     moveq.l    D0, 0x00
0000228C  1001                     move.b     D0, D1
0000228E  4A80                     tst.l      D0
00002290  584F                     addq.w     A7, 4
00002292  6706                     beq        +0x8 /* 0000229A */
00002294  486B 0010                pea.l      [A3 + 0x10]
00002298  A8A3                     syscall    EraseRect
label0000229A:
0000229A  204B                     movea.l    A0, A3
0000229C  226B 0008                movea.l    A1, [A3 + 0x8]
000022A0  D0E9 0038                add.w      A0, [A1 + 0x38]
000022A4  2F08                     move.l     -[A7], A0
000022A6  2049                     movea.l    A0, A1
000022A8  2268 003C                movea.l    A1, [A0 + 0x3C]
000022AC  4E91                     jsr        [A1]
000022AE  2F0B                     move.l     -[A7], A3
000022B0  4EAD 1C8A                jsr        [A5 + 0x1C8A /* export_909, CODE:36 @ 00000778 */]
000022B4  2640                     movea.l    A3, D0
000022B6  504F                     addq.w     A7, 8
label000022B8:
000022B8  200B                     move.l     D0, A3
000022BA  66AE                     bne        -0x50 /* 0000226A */
000022BC  0CAD 0000 0200 F29A      cmpi.l     [A5 - 0xD66], 0x200
000022C4  6D06                     blt        +0x8 /* 000022CC */
000022C6  486E FFBE                pea.l      [A6 - 0x42]
000022CA  AA15                     syscall    RGBBackColor
label000022CC:
000022CC  7002                     moveq.l    D0, 0x02
000022CE  2F00                     move.l     -[A7], D0
000022D0  486E FFBE                pea.l      [A6 - 0x42]
000022D4  4EAD 15D2                jsr        [A5 + 0x15D2 /* export_694, CODE:32 @ 000029D6 */]
000022D8  504F                     addq.w     A7, 8
label000022DA:
000022DA  2F2C 0112                move.l     -[A7], [A4 + 0x112]
000022DE  4EAD 120A                jsr        [A5 + 0x120A /* export_573, CODE:26 @ 00003404 */]
000022E2  7000                     moveq.l    D0, 0x00
000022E4  2F00                     move.l     -[A7], D0
000022E6  2F0C                     move.l     -[A7], A4
000022E8  4EAD 1F7A                jsr        [A5 + 0x1F7A /* export_1003, CODE:37 @ 00001612 */]
000022EC  2F2C 0112                move.l     -[A7], [A4 + 0x112]
000022F0  4EAD 11EA                jsr        [A5 + 0x11EA /* export_569, CODE:26 @ 00003268 */]
000022F4  4FEF 0010                lea.l      A7, [A7 + 0x10]
000022F8  4CEE 1800 FFB6           movem.l    A3,A4, [A6 - 0x4A]
000022FE  4E5E                     unlink     A6
00002300  4E75                     rts
00002302  802A 446F 4465 6163 7... dc.b       "DoDeactivationTasks__16cScrollerDocItemFUc"
export_1079:
00002330  4E56 0000                link       A6, 0
00002334  4E5E                     unlink     A6
00002336  4E75                     rts
00002338  9E44 7261 7748 6F6F 6... dc.b       "DrawHook__16cScrollerDocItemFv"
export_1080:
0000235A  4E56 FFF8                link       A6, -0x0008
0000235E  48E7 0318                movem.l    -[A7], D6,D7,A3,A4
00002362  286E 0008                movea.l    A4, [A6 + 0x8]
00002366  302C 01D0                move.w     D0, [A4 + 0x1D0]
0000236A  48C0                     ext.l      D0
0000236C  322C 01D8                move.w     D1, [A4 + 0x1D8]
00002370  48C1                     ext.l      D1
00002372  9081                     sub.l      D0, D1
00002374  322E 000C                move.w     D1, [A6 + 0xC]
00002378  48C1                     ext.l      D1
0000237A  B081                     cmp.l      D0, D1
0000237C  6C0C                     bge        +0xE /* 0000238A */
0000237E  302C 01D0                move.w     D0, [A4 + 0x1D0]
00002382  906C 01D8                sub.w      D0, [A4 + 0x1D8]
00002386  3D40 000C                move.w     [A6 + 0xC], D0
label0000238A:
0000238A  4A6E 000C                tst.w      [A6 + 0xC]
0000238E  6C04                     bge        +0x6 /* 00002394 */
00002390  426E 000C                clr.w      [A6 + 0xC]
label00002394:
00002394  302C 01D2                move.w     D0, [A4 + 0x1D2]
00002398  48C0                     ext.l      D0
0000239A  322C 01DA                move.w     D1, [A4 + 0x1DA]
0000239E  48C1                     ext.l      D1
000023A0  9081                     sub.l      D0, D1
000023A2  322E 000E                move.w     D1, [A6 + 0xE]
000023A6  48C1                     ext.l      D1
000023A8  B081                     cmp.l      D0, D1
000023AA  6C0C                     bge        +0xE /* 000023B8 */
000023AC  302C 01D2                move.w     D0, [A4 + 0x1D2]
000023B0  906C 01DA                sub.w      D0, [A4 + 0x1DA]
000023B4  3D40 000E                move.w     [A6 + 0xE], D0
label000023B8:
000023B8  4A6E 000E                tst.w      [A6 + 0xE]
000023BC  6C04                     bge        +0x6 /* 000023C2 */
000023BE  426E 000E                clr.w      [A6 + 0xE]
label000023C2:
000023C2  3C2E 000C                move.w     D6, [A6 + 0xC]
000023C6  9C6C 01D4                sub.w      D6, [A4 + 0x1D4]
000023CA  3E2E 000E                move.w     D7, [A6 + 0xE]
000023CE  9E6C 01D6                sub.w      D7, [A4 + 0x1D6]
000023D2  296E 000C 01D4           move.l     [A4 + 0x1D4], [A6 + 0xC]
000023D8  197C 0001 01F6           move.b     [A4 + 0x1F6], 0x1
000023DE  598F                     subq.l     A7, 4
000023E0  A8D8                     syscall    NewRgn
000023E2  265F                     movea.l    A3, [A7]+
000023E4  200B                     move.l     D0, A3
000023E6  660C                     bne        +0xE /* 000023F4 */
000023E8  70FF                     moveq.l    D0, 0xFFFFFFFF
000023EA  2F00                     move.l     -[A7], D0
000023EC  2F0C                     move.l     -[A7], A4
000023EE  4EAD 14E2                jsr        [A5 + 0x14E2 /* export_664, CODE:32 @ 000007B8 */]
000023F2  504F                     addq.w     A7, 8
label000023F4:
000023F4  2F2C 0112                move.l     -[A7], [A4 + 0x112]
000023F8  4EAD 11E2                jsr        [A5 + 0x11E2 /* export_568, CODE:26 @ 000031FA */]
000023FC  4A46                     tst.w      D6
000023FE  584F                     addq.w     A7, 4
00002400  6700 00CC                beq        +0xCE /* 000024CE */
00002404  206C 01DC                movea.l    A0, [A4 + 0x1DC]
00002408  2050                     movea.l    A0, [A0]
0000240A  43EE FFF8                lea.l      A1, [A6 - 0x8]
0000240E  5488                     addq.l     A0, 2
00002410  22D8                     move.l     [A1]+, [A0]+
00002412  22D8                     move.l     [A1]+, [A0]+
00002414  4A46                     tst.w      D6
00002416  6C60                     bge        +0x62 /* 00002478 */
00002418  48C6                     ext.l      D6
0000241A  302C 01D8                move.w     D0, [A4 + 0x1D8]
0000241E  48C0                     ext.l      D0
00002420  4480                     neg.l      D0
00002422  B086                     cmp.l      D0, D6
00002424  6C44                     bge        +0x46 /* 0000246A */
00002426  2F2C 0112                move.l     -[A7], [A4 + 0x112]
0000242A  4EAD 11E2                jsr        [A5 + 0x11E2 /* export_568, CODE:26 @ 000031FA */]
0000242E  486E FFF8                pea.l      [A6 - 0x8]
00002432  7000                     moveq.l    D0, 0x00
00002434  3F00                     move.w     -[A7], D0
00002436  48C6                     ext.l      D6
00002438  2206                     move.l     D1, D6
0000243A  4481                     neg.l      D1
0000243C  3F01                     move.w     -[A7], D1
0000243E  2F0B                     move.l     -[A7], A3
00002440  A8EF                     syscall    ScrollRect
00002442  2F2C 0112                move.l     -[A7], [A4 + 0x112]
00002446  4EAD 11EA                jsr        [A5 + 0x11EA /* export_569, CODE:26 @ 00003268 */]
0000244A  302E FFF8                move.w     D0, [A6 - 0x8]
0000244E  9046                     sub.w      D0, D6
00002450  3D40 FFFC                move.w     [A6 - 0x4], D0
00002454  2F0B                     move.l     -[A7], A3
00002456  486E FFF8                pea.l      [A6 - 0x8]
0000245A  A8DF                     syscall    RectRgn
0000245C  2F0B                     move.l     -[A7], A3
0000245E  2F0C                     move.l     -[A7], A4
00002460  4EAD 1F02                jsr        [A5 + 0x1F02 /* export_988, CODE:37 @ 00001218 */]
00002464  4FEF 0010                lea.l      A7, [A7 + 0x10]
00002468  6064                     bra        +0x66 /* 000024CE */
label0000246A:
0000246A  2F2C 01DC                move.l     -[A7], [A4 + 0x1DC]
0000246E  2F0C                     move.l     -[A7], A4
00002470  4EAD 1F02                jsr        [A5 + 0x1F02 /* export_988, CODE:37 @ 00001218 */]
00002474  504F                     addq.w     A7, 8
00002476  6056                     bra        +0x58 /* 000024CE */
label00002478:
00002478  BC6C 01D8                cmp.w      D6, [A4 + 0x1D8]
0000247C  6C44                     bge        +0x46 /* 000024C2 */
0000247E  2F2C 0112                move.l     -[A7], [A4 + 0x112]
00002482  4EAD 11E2                jsr        [A5 + 0x11E2 /* export_568, CODE:26 @ 000031FA */]
00002486  486E FFF8                pea.l      [A6 - 0x8]
0000248A  7000                     moveq.l    D0, 0x00
0000248C  3F00                     move.w     -[A7], D0
0000248E  48C6                     ext.l      D6
00002490  2206                     move.l     D1, D6
00002492  4481                     neg.l      D1
00002494  3F01                     move.w     -[A7], D1
00002496  2F0B                     move.l     -[A7], A3
00002498  A8EF                     syscall    ScrollRect
0000249A  2F2C 0112                move.l     -[A7], [A4 + 0x112]
0000249E  4EAD 11EA                jsr        [A5 + 0x11EA /* export_569, CODE:26 @ 00003268 */]
000024A2  302E FFFC                move.w     D0, [A6 - 0x4]
000024A6  9046                     sub.w      D0, D6
000024A8  3D40 FFF8                move.w     [A6 - 0x8], D0
000024AC  2F0B                     move.l     -[A7], A3
000024AE  486E FFF8                pea.l      [A6 - 0x8]
000024B2  A8DF                     syscall    RectRgn
000024B4  2F0B                     move.l     -[A7], A3
000024B6  2F0C                     move.l     -[A7], A4
000024B8  4EAD 1F02                jsr        [A5 + 0x1F02 /* export_988, CODE:37 @ 00001218 */]
000024BC  4FEF 0010                lea.l      A7, [A7 + 0x10]
000024C0  600C                     bra        +0xE /* 000024CE */
label000024C2:
000024C2  2F2C 01DC                move.l     -[A7], [A4 + 0x1DC]
000024C6  2F0C                     move.l     -[A7], A4
000024C8  4EAD 1F02                jsr        [A5 + 0x1F02 /* export_988, CODE:37 @ 00001218 */]
000024CC  504F                     addq.w     A7, 8
label000024CE:
000024CE  4A47                     tst.w      D7
000024D0  6700 00A8                beq        +0xAA /* 0000257A */
000024D4  206C 01DC                movea.l    A0, [A4 + 0x1DC]
000024D8  2050                     movea.l    A0, [A0]
000024DA  43EE FFF8                lea.l      A1, [A6 - 0x8]
000024DE  5488                     addq.l     A0, 2
000024E0  22D8                     move.l     [A1]+, [A0]+
000024E2  22D8                     move.l     [A1]+, [A0]+
000024E4  4A47                     tst.w      D7
000024E6  6C4E                     bge        +0x50 /* 00002536 */
000024E8  48C7                     ext.l      D7
000024EA  302C 01DA                move.w     D0, [A4 + 0x1DA]
000024EE  48C0                     ext.l      D0
000024F0  4480                     neg.l      D0
000024F2  B087                     cmp.l      D0, D7
000024F4  6C32                     bge        +0x34 /* 00002528 */
000024F6  486E FFF8                pea.l      [A6 - 0x8]
000024FA  48C7                     ext.l      D7
000024FC  2007                     move.l     D0, D7
000024FE  4480                     neg.l      D0
00002500  3F00                     move.w     -[A7], D0
00002502  7000                     moveq.l    D0, 0x00
00002504  3F00                     move.w     -[A7], D0
00002506  2F0B                     move.l     -[A7], A3
00002508  A8EF                     syscall    ScrollRect
0000250A  302E FFFA                move.w     D0, [A6 - 0x6]
0000250E  9047                     sub.w      D0, D7
00002510  3D40 FFFE                move.w     [A6 - 0x2], D0
00002514  2F0B                     move.l     -[A7], A3
00002516  486E FFF8                pea.l      [A6 - 0x8]
0000251A  A8DF                     syscall    RectRgn
0000251C  2F0B                     move.l     -[A7], A3
0000251E  2F0C                     move.l     -[A7], A4
00002520  4EAD 1F02                jsr        [A5 + 0x1F02 /* export_988, CODE:37 @ 00001218 */]
00002524  504F                     addq.w     A7, 8
00002526  6052                     bra        +0x54 /* 0000257A */
label00002528:
00002528  2F2C 01DC                move.l     -[A7], [A4 + 0x1DC]
0000252C  2F0C                     move.l     -[A7], A4
0000252E  4EAD 1F02                jsr        [A5 + 0x1F02 /* export_988, CODE:37 @ 00001218 */]
00002532  504F                     addq.w     A7, 8
00002534  6044                     bra        +0x46 /* 0000257A */
label00002536:
00002536  BE6C 01DA                cmp.w      D7, [A4 + 0x1DA]
0000253A  6C32                     bge        +0x34 /* 0000256E */
0000253C  486E FFF8                pea.l      [A6 - 0x8]
00002540  48C7                     ext.l      D7
00002542  2007                     move.l     D0, D7
00002544  4480                     neg.l      D0
00002546  3F00                     move.w     -[A7], D0
00002548  7000                     moveq.l    D0, 0x00
0000254A  3F00                     move.w     -[A7], D0
0000254C  2F0B                     move.l     -[A7], A3
0000254E  A8EF                     syscall    ScrollRect
00002550  302E FFFE                move.w     D0, [A6 - 0x2]
00002554  9047                     sub.w      D0, D7
00002556  3D40 FFFA                move.w     [A6 - 0x6], D0
0000255A  2F0B                     move.l     -[A7], A3
0000255C  486E FFF8                pea.l      [A6 - 0x8]
00002560  A8DF                     syscall    RectRgn
00002562  2F0B                     move.l     -[A7], A3
00002564  2F0C                     move.l     -[A7], A4
00002566  4EAD 1F02                jsr        [A5 + 0x1F02 /* export_988, CODE:37 @ 00001218 */]
0000256A  504F                     addq.w     A7, 8
0000256C  600C                     bra        +0xE /* 0000257A */
label0000256E:
0000256E  2F2C 01DC                move.l     -[A7], [A4 + 0x1DC]
00002572  2F0C                     move.l     -[A7], A4
00002574  4EAD 1F02                jsr        [A5 + 0x1F02 /* export_988, CODE:37 @ 00001218 */]
00002578  504F                     addq.w     A7, 8
label0000257A:
0000257A  4A47                     tst.w      D7
0000257C  6604                     bne        +0x6 /* 00002582 */
0000257E  4A46                     tst.w      D6
00002580  676C                     beq        +0x6E /* 000025EE */
label00002582:
00002582  2F0C                     move.l     -[A7], A4
00002584  4EBA F4AA                jsr        [PC - 0xB56 /* 00001A30 */]
00002588  486C 0090                pea.l      [A4 + 0x90]
0000258C  2F0C                     move.l     -[A7], A4
0000258E  4EAD 1F62                jsr        [A5 + 0x1F62 /* export_1000, CODE:37 @ 00001556 */]
00002592  4AAC 01C4                tst.l      [A4 + 0x1C4]
00002596  4FEF 000C                lea.l      A7, [A7 + 0xC]
0000259A  6720                     beq        +0x22 /* 000025BC */
0000259C  206C 01C4                movea.l    A0, [A4 + 0x1C4]
000025A0  2248                     movea.l    A1, A0
000025A2  2269 0060                movea.l    A1, [A1 + 0x60]
000025A6  D0E9 00E8                add.w      A0, [A1 + 0xE8]
000025AA  2F08                     move.l     -[A7], A0
000025AC  206C 01C4                movea.l    A0, [A4 + 0x1C4]
000025B0  2068 0060                movea.l    A0, [A0 + 0x60]
000025B4  2268 00EC                movea.l    A1, [A0 + 0xEC]
000025B8  4E91                     jsr        [A1]
000025BA  584F                     addq.w     A7, 4
label000025BC:
000025BC  4AAC 01C8                tst.l      [A4 + 0x1C8]
000025C0  6720                     beq        +0x22 /* 000025E2 */
000025C2  206C 01C8                movea.l    A0, [A4 + 0x1C8]
000025C6  2248                     movea.l    A1, A0
000025C8  2269 0060                movea.l    A1, [A1 + 0x60]
000025CC  D0E9 00E8                add.w      A0, [A1 + 0xE8]
000025D0  2F08                     move.l     -[A7], A0
000025D2  206C 01C8                movea.l    A0, [A4 + 0x1C8]
000025D6  2068 0060                movea.l    A0, [A0 + 0x60]
000025DA  2268 00EC                movea.l    A1, [A0 + 0xEC]
000025DE  4E91                     jsr        [A1]
000025E0  584F                     addq.w     A7, 4
label000025E2:
000025E2  7000                     moveq.l    D0, 0x00
000025E4  2F00                     move.l     -[A7], D0
000025E6  2F0C                     move.l     -[A7], A4
000025E8  4EAD 1F7A                jsr        [A5 + 0x1F7A /* export_1003, CODE:37 @ 00001612 */]
000025EC  504F                     addq.w     A7, 8
label000025EE:
000025EE  2F2C 0112                move.l     -[A7], [A4 + 0x112]
000025F2  4EAD 11EA                jsr        [A5 + 0x11EA /* export_569, CODE:26 @ 00003268 */]
000025F6  2F0B                     move.l     -[A7], A3
000025F8  A8D9                     syscall    DisposRgn/DisposeRgn
000025FA  584F                     addq.w     A7, 4
000025FC  4CEE 18C0 FFE8           movem.l    D6,D7,A3,A4, [A6 - 0x18]
00002602  4E5E                     unlink     A6
00002604  4E75                     rts
00002606  8028 5363 726F 6C6C 4... dc.b       "ScrollContent__16cScrollerDocItemF5Point"
export_1081:
00002632  4E56 0000                link       A6, 0
00002636  48E7 0018                movem.l    -[A7], A3,A4
0000263A  286E 0008                movea.l    A4, [A6 + 0x8]
0000263E  7000                     moveq.l    D0, 0x00
00002640  102C 0098                move.b     D0, [A4 + 0x98]
00002644  7208                     moveq.l    D1, 0x08
00002646  C200                     and.b      D1, D0
00002648  7000                     moveq.l    D0, 0x00
0000264A  1001                     move.b     D0, D1
0000264C  4A80                     tst.l      D0
0000264E  6706                     beq        +0x8 /* 00002656 */
00002650  4AAC 01EC                tst.l      [A4 + 0x1EC]
00002654  6604                     bne        +0x6 /* 0000265A */
label00002656:
00002656  7000                     moveq.l    D0, 0x00
00002658  602A                     bra        +0x2C /* 00002684 */
label0000265A:
0000265A  4AAC 01EC                tst.l      [A4 + 0x1EC]
0000265E  670A                     beq        +0xC /* 0000266A */
00002660  202C 01EC                move.l     D0, [A4 + 0x1EC]
00002664  7280                     moveq.l    D1, 0xFFFFFF80
00002666  D081                     add.l      D0, D1
00002668  6002                     bra        +0x4 /* 0000266C */
label0000266A:
0000266A  7000                     moveq.l    D0, 0x00
label0000266C:
0000266C  2640                     movea.l    A3, D0
0000266E  204B                     movea.l    A0, A3
00002670  226B 0060                movea.l    A1, [A3 + 0x60]
00002674  D0E9 0080                add.w      A0, [A1 + 0x80]
00002678  2F08                     move.l     -[A7], A0
0000267A  2049                     movea.l    A0, A1
0000267C  2268 0084                movea.l    A1, [A0 + 0x84]
00002680  4E91                     jsr        [A1]
00002682  584F                     addq.w     A7, 4
label00002684:
00002684  4CEE 1800 FFF8           movem.l    A3,A4, [A6 - 0x8]
0000268A  4E5E                     unlink     A6
0000268C  4E75                     rts
0000268E  9C43 616E 4375 745F 5... dc.b       "CanCut__16cScrollerDocItemFv"
export_1082:
000026AE  4E56 0000                link       A6, 0
000026B2  48E7 0018                movem.l    -[A7], A3,A4
000026B6  286E 0008                movea.l    A4, [A6 + 0x8]
000026BA  7000                     moveq.l    D0, 0x00
000026BC  102C 0098                move.b     D0, [A4 + 0x98]
000026C0  7208                     moveq.l    D1, 0x08
000026C2  C200                     and.b      D1, D0
000026C4  7000                     moveq.l    D0, 0x00
000026C6  1001                     move.b     D0, D1
000026C8  4A80                     tst.l      D0
000026CA  6706                     beq        +0x8 /* 000026D2 */
000026CC  4AAC 01EC                tst.l      [A4 + 0x1EC]
000026D0  6604                     bne        +0x6 /* 000026D6 */
label000026D2:
000026D2  7000                     moveq.l    D0, 0x00
000026D4  602A                     bra        +0x2C /* 00002700 */
label000026D6:
000026D6  4AAC 01EC                tst.l      [A4 + 0x1EC]
000026DA  670A                     beq        +0xC /* 000026E6 */
000026DC  202C 01EC                move.l     D0, [A4 + 0x1EC]
000026E0  7280                     moveq.l    D1, 0xFFFFFF80
000026E2  D081                     add.l      D0, D1
000026E4  6002                     bra        +0x4 /* 000026E8 */
label000026E6:
000026E6  7000                     moveq.l    D0, 0x00
label000026E8:
000026E8  2640                     movea.l    A3, D0
000026EA  204B                     movea.l    A0, A3
000026EC  226B 0060                movea.l    A1, [A3 + 0x60]
000026F0  D0E9 0088                add.w      A0, [A1 + 0x88]
000026F4  2F08                     move.l     -[A7], A0
000026F6  2049                     movea.l    A0, A1
000026F8  2268 008C                movea.l    A1, [A0 + 0x8C]
000026FC  4E91                     jsr        [A1]
000026FE  584F                     addq.w     A7, 4
label00002700:
00002700  4CEE 1800 FFF8           movem.l    A3,A4, [A6 - 0x8]
00002706  4E5E                     unlink     A6
00002708  4E75                     rts
0000270A  9D43 616E 436F 7079 5... dc.b       "CanCopy__16cScrollerDocItemFv"
export_1083:
0000272A  4E56 0000                link       A6, 0
0000272E  48E7 0018                movem.l    -[A7], A3,A4
00002732  286E 0008                movea.l    A4, [A6 + 0x8]
00002736  7000                     moveq.l    D0, 0x00
00002738  102C 0098                move.b     D0, [A4 + 0x98]
0000273C  7208                     moveq.l    D1, 0x08
0000273E  C200                     and.b      D1, D0
00002740  7000                     moveq.l    D0, 0x00
00002742  1001                     move.b     D0, D1
00002744  4A80                     tst.l      D0
00002746  6706                     beq        +0x8 /* 0000274E */
00002748  4AAC 01EC                tst.l      [A4 + 0x1EC]
0000274C  6604                     bne        +0x6 /* 00002752 */
label0000274E:
0000274E  7000                     moveq.l    D0, 0x00
00002750  602A                     bra        +0x2C /* 0000277C */
label00002752:
00002752  4AAC 01EC                tst.l      [A4 + 0x1EC]
00002756  670A                     beq        +0xC /* 00002762 */
00002758  202C 01EC                move.l     D0, [A4 + 0x1EC]
0000275C  7280                     moveq.l    D1, 0xFFFFFF80
0000275E  D081                     add.l      D0, D1
00002760  6002                     bra        +0x4 /* 00002764 */
label00002762:
00002762  7000                     moveq.l    D0, 0x00
label00002764:
00002764  2640                     movea.l    A3, D0
00002766  204B                     movea.l    A0, A3
00002768  226B 0060                movea.l    A1, [A3 + 0x60]
0000276C  D0E9 0090                add.w      A0, [A1 + 0x90]
00002770  2F08                     move.l     -[A7], A0
00002772  2049                     movea.l    A0, A1
00002774  2268 0094                movea.l    A1, [A0 + 0x94]
00002778  4E91                     jsr        [A1]
0000277A  584F                     addq.w     A7, 4
label0000277C:
0000277C  4CEE 1800 FFF8           movem.l    A3,A4, [A6 - 0x8]
00002782  4E5E                     unlink     A6
00002784  4E75                     rts
00002786  9E43 616E 5061 7374 6... dc.b       "CanPaste__16cScrollerDocItemFv"
export_1084:
000027A8  4E56 0000                link       A6, 0
000027AC  48E7 0018                movem.l    -[A7], A3,A4
000027B0  286E 0008                movea.l    A4, [A6 + 0x8]
000027B4  7000                     moveq.l    D0, 0x00
000027B6  102C 0098                move.b     D0, [A4 + 0x98]
000027BA  7208                     moveq.l    D1, 0x08
000027BC  C200                     and.b      D1, D0
000027BE  7000                     moveq.l    D0, 0x00
000027C0  1001                     move.b     D0, D1
000027C2  4A80                     tst.l      D0
000027C4  6706                     beq        +0x8 /* 000027CC */
000027C6  4AAC 01EC                tst.l      [A4 + 0x1EC]
000027CA  6604                     bne        +0x6 /* 000027D0 */
label000027CC:
000027CC  7000                     moveq.l    D0, 0x00
000027CE  602A                     bra        +0x2C /* 000027FA */
label000027D0:
000027D0  4AAC 01EC                tst.l      [A4 + 0x1EC]
000027D4  670A                     beq        +0xC /* 000027E0 */
000027D6  202C 01EC                move.l     D0, [A4 + 0x1EC]
000027DA  7280                     moveq.l    D1, 0xFFFFFF80
000027DC  D081                     add.l      D0, D1
000027DE  6002                     bra        +0x4 /* 000027E2 */
label000027E0:
000027E0  7000                     moveq.l    D0, 0x00
label000027E2:
000027E2  2640                     movea.l    A3, D0
000027E4  204B                     movea.l    A0, A3
000027E6  226B 0060                movea.l    A1, [A3 + 0x60]
000027EA  D0E9 0098                add.w      A0, [A1 + 0x98]
000027EE  2F08                     move.l     -[A7], A0
000027F0  2049                     movea.l    A0, A1
000027F2  2268 009C                movea.l    A1, [A0 + 0x9C]
000027F6  4E91                     jsr        [A1]
000027F8  584F                     addq.w     A7, 4
label000027FA:
000027FA  4CEE 1800 FFF8           movem.l    A3,A4, [A6 - 0x8]
00002800  4E5E                     unlink     A6
00002802  4E75                     rts
00002804  9E43 616E 436C 6561 7... dc.b       "CanClear__16cScrollerDocItemFv"
export_1085:
00002826  4E56 0000                link       A6, 0
0000282A  48E7 0018                movem.l    -[A7], A3,A4
0000282E  286E 0008                movea.l    A4, [A6 + 0x8]
00002832  7000                     moveq.l    D0, 0x00
00002834  102C 0098                move.b     D0, [A4 + 0x98]
00002838  7208                     moveq.l    D1, 0x08
0000283A  C200                     and.b      D1, D0
0000283C  7000                     moveq.l    D0, 0x00
0000283E  1001                     move.b     D0, D1
00002840  4A80                     tst.l      D0
00002842  6706                     beq        +0x8 /* 0000284A */
00002844  4AAC 01EC                tst.l      [A4 + 0x1EC]
00002848  6604                     bne        +0x6 /* 0000284E */
label0000284A:
0000284A  7000                     moveq.l    D0, 0x00
0000284C  602A                     bra        +0x2C /* 00002878 */
label0000284E:
0000284E  4AAC 01EC                tst.l      [A4 + 0x1EC]
00002852  670A                     beq        +0xC /* 0000285E */
00002854  202C 01EC                move.l     D0, [A4 + 0x1EC]
00002858  7280                     moveq.l    D1, 0xFFFFFF80
0000285A  D081                     add.l      D0, D1
0000285C  6002                     bra        +0x4 /* 00002860 */
label0000285E:
0000285E  7000                     moveq.l    D0, 0x00
label00002860:
00002860  2640                     movea.l    A3, D0
00002862  204B                     movea.l    A0, A3
00002864  226B 0060                movea.l    A1, [A3 + 0x60]
00002868  D0E9 00A0                add.w      A0, [A1 + 0xA0]
0000286C  2F08                     move.l     -[A7], A0
0000286E  2049                     movea.l    A0, A1
00002870  2268 00A4                movea.l    A1, [A0 + 0xA4]
00002874  4E91                     jsr        [A1]
00002876  584F                     addq.w     A7, 4
label00002878:
00002878  4CEE 1800 FFF8           movem.l    A3,A4, [A6 - 0x8]
0000287E  4E5E                     unlink     A6
00002880  4E75                     rts
00002882  8022 4361 6E53 656C 6... dc.b       "CanSelectAll__16cScrollerDocItemFv"
export_1086:
000028A8  4E56 0000                link       A6, 0
000028AC  48E7 0018                movem.l    -[A7], A3,A4
000028B0  286E 0008                movea.l    A4, [A6 + 0x8]
000028B4  7000                     moveq.l    D0, 0x00
000028B6  102C 0098                move.b     D0, [A4 + 0x98]
000028BA  7208                     moveq.l    D1, 0x08
000028BC  C200                     and.b      D1, D0
000028BE  7000                     moveq.l    D0, 0x00
000028C0  1001                     move.b     D0, D1
000028C2  4A80                     tst.l      D0
000028C4  6706                     beq        +0x8 /* 000028CC */
000028C6  4AAC 01EC                tst.l      [A4 + 0x1EC]
000028CA  6604                     bne        +0x6 /* 000028D0 */
label000028CC:
000028CC  7000                     moveq.l    D0, 0x00
000028CE  602A                     bra        +0x2C /* 000028FA */
label000028D0:
000028D0  4AAC 01EC                tst.l      [A4 + 0x1EC]
000028D4  670A                     beq        +0xC /* 000028E0 */
000028D6  202C 01EC                move.l     D0, [A4 + 0x1EC]
000028DA  7280                     moveq.l    D1, 0xFFFFFF80
000028DC  D081                     add.l      D0, D1
000028DE  6002                     bra        +0x4 /* 000028E2 */
label000028E0:
000028E0  7000                     moveq.l    D0, 0x00
label000028E2:
000028E2  2640                     movea.l    A3, D0
000028E4  204B                     movea.l    A0, A3
000028E6  226B 0060                movea.l    A1, [A3 + 0x60]
000028EA  D0E9 00A8                add.w      A0, [A1 + 0xA8]
000028EE  2F08                     move.l     -[A7], A0
000028F0  2049                     movea.l    A0, A1
000028F2  2268 00AC                movea.l    A1, [A0 + 0xAC]
000028F6  4E91                     jsr        [A1]
000028F8  584F                     addq.w     A7, 4
label000028FA:
000028FA  4CEE 1800 FFF8           movem.l    A3,A4, [A6 - 0x8]
00002900  4E5E                     unlink     A6
00002902  4E75                     rts
00002904  9D43 616E 556E 646F 5... dc.b       "CanUndo__16cScrollerDocItemFv"
export_1087:
00002924  4E56 0000                link       A6, 0
00002928  48E7 0018                movem.l    -[A7], A3,A4
0000292C  286E 0008                movea.l    A4, [A6 + 0x8]
00002930  4A2C 01F5                tst.b      [A4 + 0x1F5]
00002934  6606                     bne        +0x8 /* 0000293C */
00002936  7000                     moveq.l    D0, 0x00
00002938  6000 0088                bra        +0x8A /* 000029C2 */
label0000293C:
0000293C  4AAC 01CC                tst.l      [A4 + 0x1CC]
00002940  677E                     beq        +0x80 /* 000029C0 */
00002942  2F2C 01CC                move.l     -[A7], [A4 + 0x1CC]
00002946  4EAD 1D32                jsr        [A5 + 0x1D32 /* export_930, CODE:36 @ 00000FD4 */]
0000294A  2640                     movea.l    A3, D0
0000294C  584F                     addq.w     A7, 4
0000294E  606A                     bra        +0x6C /* 000029BA */
label00002950:
00002950  7000                     moveq.l    D0, 0x00
00002952  102B 0018                move.b     D0, [A3 + 0x18]
00002956  7220                     moveq.l    D1, 0x20
00002958  C200                     and.b      D1, D0
0000295A  7000                     moveq.l    D0, 0x00
0000295C  1001                     move.b     D0, D1
0000295E  4A80                     tst.l      D0
00002960  6754                     beq        +0x56 /* 000029B6 */
00002962  200B                     move.l     D0, A3
00002964  6708                     beq        +0xA /* 0000296E */
00002966  200B                     move.l     D0, A3
00002968  7280                     moveq.l    D1, 0xFFFFFF80
0000296A  D081                     add.l      D0, D1
0000296C  6002                     bra        +0x4 /* 00002970 */
label0000296E:
0000296E  7000                     moveq.l    D0, 0x00
label00002970:
00002970  2240                     movea.l    A1, D0
00002972  43E9 0080                lea.l      A1, [A1 + 0x80]
00002976  2049                     movea.l    A0, A1
00002978  200B                     move.l     D0, A3
0000297A  6708                     beq        +0xA /* 00002984 */
0000297C  200B                     move.l     D0, A3
0000297E  7280                     moveq.l    D1, 0xFFFFFF80
00002980  D081                     add.l      D0, D1
00002982  6002                     bra        +0x4 /* 00002986 */
label00002984:
00002984  7000                     moveq.l    D0, 0x00
label00002986:
00002986  2240                     movea.l    A1, D0
00002988  2269 0088                movea.l    A1, [A1 + 0x88]
0000298C  D0E9 00E0                add.w      A0, [A1 + 0xE0]
00002990  2F08                     move.l     -[A7], A0
00002992  200B                     move.l     D0, A3
00002994  6708                     beq        +0xA /* 0000299E */
00002996  200B                     move.l     D0, A3
00002998  7280                     moveq.l    D1, 0xFFFFFF80
0000299A  D081                     add.l      D0, D1
0000299C  6002                     bra        +0x4 /* 000029A0 */
label0000299E:
0000299E  7000                     moveq.l    D0, 0x00
label000029A0:
000029A0  2040                     movea.l    A0, D0
000029A2  2068 0088                movea.l    A0, [A0 + 0x88]
000029A6  2268 00E4                movea.l    A1, [A0 + 0xE4]
000029AA  4E91                     jsr        [A1]
000029AC  4A00                     tst.b      D0
000029AE  584F                     addq.w     A7, 4
000029B0  6704                     beq        +0x6 /* 000029B6 */
000029B2  7001                     moveq.l    D0, 0x01
000029B4  600C                     bra        +0xE /* 000029C2 */
label000029B6:
000029B6  266B 0004                movea.l    A3, [A3 + 0x4]
label000029BA:
000029BA  200B                     move.l     D0, A3
000029BC  6692                     bne        -0x6C /* 00002950 */
000029BE  6002                     bra        +0x4 /* 000029C2 */
label000029C0:
000029C0  7000                     moveq.l    D0, 0x00
label000029C2:
000029C2  4CEE 1800 FFF8           movem.l    A3,A4, [A6 - 0x8]
000029C8  4E5E                     unlink     A6
000029CA  4E75                     rts
000029CC  8021 4861 6E64 6C65 7... dc.b       "HandlesKeys__16cScrollerDocItemFv"
export_1088:
000029F2  4E56 0000                link       A6, 0
000029F6  2F0C                     move.l     -[A7], A4
000029F8  206E 0008                movea.l    A0, [A6 + 0x8]
000029FC  2868 01CC                movea.l    A4, [A0 + 0x1CC]
00002A00  606A                     bra        +0x6C /* 00002A6C */
label00002A02:
00002A02  7000                     moveq.l    D0, 0x00
00002A04  102C 0018                move.b     D0, [A4 + 0x18]
00002A08  7220                     moveq.l    D1, 0x20
00002A0A  C200                     and.b      D1, D0
00002A0C  7000                     moveq.l    D0, 0x00
00002A0E  1001                     move.b     D0, D1
00002A10  4A80                     tst.l      D0
00002A12  6754                     beq        +0x56 /* 00002A68 */
00002A14  200C                     move.l     D0, A4
00002A16  6708                     beq        +0xA /* 00002A20 */
00002A18  200C                     move.l     D0, A4
00002A1A  7280                     moveq.l    D1, 0xFFFFFF80
00002A1C  D081                     add.l      D0, D1
00002A1E  6002                     bra        +0x4 /* 00002A22 */
label00002A20:
00002A20  7000                     moveq.l    D0, 0x00
label00002A22:
00002A22  2240                     movea.l    A1, D0
00002A24  43E9 0080                lea.l      A1, [A1 + 0x80]
00002A28  2049                     movea.l    A0, A1
00002A2A  200C                     move.l     D0, A4
00002A2C  6708                     beq        +0xA /* 00002A36 */
00002A2E  200C                     move.l     D0, A4
00002A30  7280                     moveq.l    D1, 0xFFFFFF80
00002A32  D081                     add.l      D0, D1
00002A34  6002                     bra        +0x4 /* 00002A38 */
label00002A36:
00002A36  7000                     moveq.l    D0, 0x00
label00002A38:
00002A38  2240                     movea.l    A1, D0
00002A3A  2269 0088                movea.l    A1, [A1 + 0x88]
00002A3E  D0E9 00E0                add.w      A0, [A1 + 0xE0]
00002A42  2F08                     move.l     -[A7], A0
00002A44  200C                     move.l     D0, A4
00002A46  6708                     beq        +0xA /* 00002A50 */
00002A48  200C                     move.l     D0, A4
00002A4A  7280                     moveq.l    D1, 0xFFFFFF80
00002A4C  D081                     add.l      D0, D1
00002A4E  6002                     bra        +0x4 /* 00002A52 */
label00002A50:
00002A50  7000                     moveq.l    D0, 0x00
label00002A52:
00002A52  2040                     movea.l    A0, D0
00002A54  2068 0088                movea.l    A0, [A0 + 0x88]
00002A58  2268 00E4                movea.l    A1, [A0 + 0xE4]
00002A5C  4E91                     jsr        [A1]
00002A5E  4A00                     tst.b      D0
00002A60  584F                     addq.w     A7, 4
00002A62  6704                     beq        +0x6 /* 00002A68 */
00002A64  7001                     moveq.l    D0, 0x01
00002A66  600A                     bra        +0xC /* 00002A72 */
label00002A68:
00002A68  286C 0004                movea.l    A4, [A4 + 0x4]
label00002A6C:
00002A6C  200C                     move.l     D0, A4
00002A6E  6692                     bne        -0x6C /* 00002A02 */
00002A70  7000                     moveq.l    D0, 0x00
label00002A72:
00002A72  286E FFFC                movea.l    A4, [A6 - 0x4]
00002A76  4E5E                     unlink     A6
00002A78  4E75                     rts
00002A7A  8026 4861 7349 6E74 6... dc.b       "HasInternalFocus__16cScrollerDocItemFv"
export_1089:
00002AA4  4E56 FFF4                link       A6, -0x000C
00002AA8  48E7 0318                movem.l    -[A7], D6,D7,A3,A4
00002AAC  266E 000C                movea.l    A3, [A6 + 0xC]
00002AB0  286E 0008                movea.l    A4, [A6 + 0x8]
00002AB4  41EE FFF8                lea.l      A0, [A6 - 0x8]
00002AB8  43EB 0010                lea.l      A1, [A3 + 0x10]
00002ABC  20D9                     move.l     [A0]+, [A1]+
00002ABE  20D9                     move.l     [A0]+, [A1]+
00002AC0  486C 00CC                pea.l      [A4 + 0xCC]
00002AC4  7001                     moveq.l    D0, 0x01
00002AC6  2F00                     move.l     -[A7], D0
00002AC8  204B                     movea.l    A0, A3
00002ACA  226B 0008                movea.l    A1, [A3 + 0x8]
00002ACE  D0E9 0060                add.w      A0, [A1 + 0x60]
00002AD2  2F08                     move.l     -[A7], A0
00002AD4  2049                     movea.l    A0, A1
00002AD6  2268 0064                movea.l    A1, [A0 + 0x64]
00002ADA  4E91                     jsr        [A1]
00002ADC  3C2E FFFC                move.w     D6, [A6 - 0x4]
00002AE0  9C6E FFF8                sub.w      D6, [A6 - 0x8]
00002AE4  3E2E FFFE                move.w     D7, [A6 - 0x2]
00002AE8  9E6E FFFA                sub.w      D7, [A6 - 0x6]
00002AEC  4A6E 0012                tst.w      [A6 + 0x12]
00002AF0  4FEF 000C                lea.l      A7, [A7 + 0xC]
00002AF4  6600 00C8                bne        +0xCA /* 00002BBE */
00002AF8  2F2C 0112                move.l     -[A7], [A4 + 0x112]
00002AFC  4EAD 11E2                jsr        [A5 + 0x11E2 /* export_568, CODE:26 @ 000031FA */]
00002B00  2F2C 01DC                move.l     -[A7], [A4 + 0x1DC]
00002B04  2F0C                     move.l     -[A7], A4
00002B06  4EAD 1F6A                jsr        [A5 + 0x1F6A /* export_1001, CODE:37 @ 00001590 */]
00002B0A  206C 01DC                movea.l    A0, [A4 + 0x1DC]
00002B0E  2050                     movea.l    A0, [A0]
00002B10  3028 0002                move.w     D0, [A0 + 0x2]
00002B14  48C0                     ext.l      D0
00002B16  4480                     neg.l      D0
00002B18  322C 01D4                move.w     D1, [A4 + 0x1D4]
00002B1C  D240                     add.w      D1, D0
00002B1E  48C1                     ext.l      D1
00002B20  2F01                     move.l     -[A7], D1
00002B22  206C 01DC                movea.l    A0, [A4 + 0x1DC]
00002B26  2050                     movea.l    A0, [A0]
00002B28  3028 0004                move.w     D0, [A0 + 0x4]
00002B2C  48C0                     ext.l      D0
00002B2E  4480                     neg.l      D0
00002B30  322C 01D6                move.w     D1, [A4 + 0x1D6]
00002B34  D240                     add.w      D1, D0
00002B36  48C1                     ext.l      D1
00002B38  2F01                     move.l     -[A7], D1
00002B3A  2F2C 0112                move.l     -[A7], [A4 + 0x112]
00002B3E  4EAD 1202                jsr        [A5 + 0x1202 /* export_572, CODE:26 @ 000033B8 */]
00002B42  486C 00CC                pea.l      [A4 + 0xCC]
00002B46  7001                     moveq.l    D0, 0x01
00002B48  2F00                     move.l     -[A7], D0
00002B4A  204B                     movea.l    A0, A3
00002B4C  226B 0008                movea.l    A1, [A3 + 0x8]
00002B50  D0E9 0060                add.w      A0, [A1 + 0x60]
00002B54  2F08                     move.l     -[A7], A0
00002B56  2049                     movea.l    A0, A1
00002B58  2268 0064                movea.l    A1, [A0 + 0x64]
00002B5C  4E91                     jsr        [A1]
00002B5E  302C 01D0                move.w     D0, [A4 + 0x1D0]
00002B62  906B 0010                sub.w      D0, [A3 + 0x10]
00002B66  48C0                     ext.l      D0
00002B68  2F00                     move.l     -[A7], D0
00002B6A  302E FFFA                move.w     D0, [A6 - 0x6]
00002B6E  906B 0012                sub.w      D0, [A3 + 0x12]
00002B72  48C0                     ext.l      D0
00002B74  2F00                     move.l     -[A7], D0
00002B76  204B                     movea.l    A0, A3
00002B78  226B 0008                movea.l    A1, [A3 + 0x8]
00002B7C  D0E9 0040                add.w      A0, [A1 + 0x40]
00002B80  2F08                     move.l     -[A7], A0
00002B82  2049                     movea.l    A0, A1
00002B84  2268 0044                movea.l    A1, [A0 + 0x44]
00002B88  4E91                     jsr        [A1]
00002B8A  2F2C 0112                move.l     -[A7], [A4 + 0x112]
00002B8E  4EAD 120A                jsr        [A5 + 0x120A /* export_573, CODE:26 @ 00003404 */]
00002B92  7000                     moveq.l    D0, 0x00
00002B94  2F00                     move.l     -[A7], D0
00002B96  2F0C                     move.l     -[A7], A4
00002B98  4EAD 1F7A                jsr        [A5 + 0x1F7A /* export_1003, CODE:37 @ 00001612 */]
00002B9C  2F2C 0112                move.l     -[A7], [A4 + 0x112]
00002BA0  4EAD 11EA                jsr        [A5 + 0x11EA /* export_569, CODE:26 @ 00003268 */]
00002BA4  DD6C 01D0                add.w      [A4 + 0x1D0], D6
00002BA8  BE6C 01D2                cmp.w      D7, [A4 + 0x1D2]
00002BAC  4FEF 0040                lea.l      A7, [A7 + 0x40]
00002BB0  6F04                     ble        +0x6 /* 00002BB6 */
00002BB2  3947 01D2                move.w     [A4 + 0x1D2], D7
label00002BB6:
00002BB6  197C 0001 01F6           move.b     [A4 + 0x1F6], 0x1
00002BBC  6006                     bra        +0x8 /* 00002BC4 */
label00002BBE:
00002BBE  486D F9A4                pea.l      [A5 - 0x65C]
00002BC2  ABFF                     syscall    DebugStr
label00002BC4:
00002BC4  4AAC 01CC                tst.l      [A4 + 0x1CC]
00002BC8  672A                     beq        +0x2C /* 00002BF4 */
00002BCA  7001                     moveq.l    D0, 0x01
00002BCC  2F00                     move.l     -[A7], D0
00002BCE  2F2C 01CC                move.l     -[A7], [A4 + 0x1CC]
00002BD2  4EAD 1D3A                jsr        [A5 + 0x1D3A /* export_931, CODE:36 @ 0000100A */]
00002BD6  588F                     addq.l     A7, 4
00002BD8  2F00                     move.l     -[A7], D0
00002BDA  204B                     movea.l    A0, A3
00002BDC  226B 0008                movea.l    A1, [A3 + 0x8]
00002BE0  D0E9 0010                add.w      A0, [A1 + 0x10]
00002BE4  2F08                     move.l     -[A7], A0
00002BE6  2049                     movea.l    A0, A1
00002BE8  2268 0014                movea.l    A1, [A0 + 0x14]
00002BEC  4E91                     jsr        [A1]
00002BEE  4FEF 000C                lea.l      A7, [A7 + 0xC]
00002BF2  6004                     bra        +0x6 /* 00002BF8 */
label00002BF4:
00002BF4  294B 01CC                move.l     [A4 + 0x1CC], A3
label00002BF8:
00002BF8  7000                     moveq.l    D0, 0x00
00002BFA  102B 0018                move.b     D0, [A3 + 0x18]
00002BFE  7220                     moveq.l    D1, 0x20
00002C00  C200                     and.b      D1, D0
00002C02  7000                     moveq.l    D0, 0x00
00002C04  1001                     move.b     D0, D1
00002C06  4A80                     tst.l      D0
00002C08  6758                     beq        +0x5A /* 00002C62 */
00002C0A  200B                     move.l     D0, A3
00002C0C  6708                     beq        +0xA /* 00002C16 */
00002C0E  200B                     move.l     D0, A3
00002C10  7280                     moveq.l    D1, 0xFFFFFF80
00002C12  D081                     add.l      D0, D1
00002C14  6002                     bra        +0x4 /* 00002C18 */
label00002C16:
00002C16  7000                     moveq.l    D0, 0x00
label00002C18:
00002C18  2D40 FFF4                move.l     [A6 - 0xC], D0
00002C1C  2040                     movea.l    A0, D0
00002C1E  226E FFF4                movea.l    A1, [A6 - 0xC]
00002C22  2269 0060                movea.l    A1, [A1 + 0x60]
00002C26  D0E9 0038                add.w      A0, [A1 + 0x38]
00002C2A  2F08                     move.l     -[A7], A0
00002C2C  206E FFF4                movea.l    A0, [A6 - 0xC]
00002C30  2068 0060                movea.l    A0, [A0 + 0x60]
00002C34  2268 003C                movea.l    A1, [A0 + 0x3C]
00002C38  4E91                     jsr        [A1]
00002C3A  200B                     move.l     D0, A3
00002C3C  6708                     beq        +0xA /* 00002C46 */
00002C3E  200B                     move.l     D0, A3
00002C40  7280                     moveq.l    D1, 0xFFFFFF80
00002C42  D081                     add.l      D0, D1
00002C44  6002                     bra        +0x4 /* 00002C48 */
label00002C46:
00002C46  7000                     moveq.l    D0, 0x00
label00002C48:
00002C48  2F00                     move.l     -[A7], D0
00002C4A  204C                     movea.l    A0, A4
00002C4C  226C 0060                movea.l    A1, [A4 + 0x60]
00002C50  D0E9 0020                add.w      A0, [A1 + 0x20]
00002C54  2F08                     move.l     -[A7], A0
00002C56  2049                     movea.l    A0, A1
00002C58  2268 0024                movea.l    A1, [A0 + 0x24]
00002C5C  4E91                     jsr        [A1]
00002C5E  4FEF 000C                lea.l      A7, [A7 + 0xC]
label00002C62:
00002C62  4CEE 18C0 FFE4           movem.l    D6,D7,A3,A4, [A6 - 0x1C]
00002C68  4E5E                     unlink     A6
00002C6A  4E75                     rts
00002C6C  802C 4669 7449 7465 6... dc.b       "FitItem__16cScrollerDocItemFP12cContentLinks"
export_1090:
00002C9C  4E56 FFFC                link       A6, -0x0004
00002CA0  48E7 0F18                movem.l    -[A7], D4,D5,D6,D7,A3,A4
00002CA4  3C2E 0016                move.w     D6, [A6 + 0x16]
00002CA8  3E2E 0012                move.w     D7, [A6 + 0x12]
00002CAC  266E 000C                movea.l    A3, [A6 + 0xC]
00002CB0  286E 0008                movea.l    A4, [A6 + 0x8]
00002CB4  382B 0014                move.w     D4, [A3 + 0x14]
00002CB8  986B 0010                sub.w      D4, [A3 + 0x10]
00002CBC  3A2B 0016                move.w     D5, [A3 + 0x16]
00002CC0  9A6B 0016                sub.w      D5, [A3 + 0x16]
00002CC4  486C 00CC                pea.l      [A4 + 0xCC]
00002CC8  7001                     moveq.l    D0, 0x01
00002CCA  2F00                     move.l     -[A7], D0
00002CCC  204B                     movea.l    A0, A3
00002CCE  226B 0008                movea.l    A1, [A3 + 0x8]
00002CD2  D0E9 0060                add.w      A0, [A1 + 0x60]
00002CD6  2F08                     move.l     -[A7], A0
00002CD8  2049                     movea.l    A0, A1
00002CDA  2268 0064                movea.l    A1, [A0 + 0x64]
00002CDE  4E91                     jsr        [A1]
00002CE0  2F2C 0112                move.l     -[A7], [A4 + 0x112]
00002CE4  4EAD 11E2                jsr        [A5 + 0x11E2 /* export_568, CODE:26 @ 000031FA */]
00002CE8  2F2C 01DC                move.l     -[A7], [A4 + 0x1DC]
00002CEC  2F0C                     move.l     -[A7], A4
00002CEE  4EAD 1F6A                jsr        [A5 + 0x1F6A /* export_1001, CODE:37 @ 00001590 */]
00002CF2  206C 01DC                movea.l    A0, [A4 + 0x1DC]
00002CF6  2050                     movea.l    A0, [A0]
00002CF8  3028 0002                move.w     D0, [A0 + 0x2]
00002CFC  48C0                     ext.l      D0
00002CFE  4480                     neg.l      D0
00002D00  322C 01D4                move.w     D1, [A4 + 0x1D4]
00002D04  D240                     add.w      D1, D0
00002D06  48C1                     ext.l      D1
00002D08  2F01                     move.l     -[A7], D1
00002D0A  206C 01DC                movea.l    A0, [A4 + 0x1DC]
00002D0E  2050                     movea.l    A0, [A0]
00002D10  3028 0004                move.w     D0, [A0 + 0x4]
00002D14  48C0                     ext.l      D0
00002D16  4480                     neg.l      D0
00002D18  322C 01D6                move.w     D1, [A4 + 0x1D6]
00002D1C  D240                     add.w      D1, D0
00002D1E  48C1                     ext.l      D1
00002D20  2F01                     move.l     -[A7], D1
00002D22  2F2C 0112                move.l     -[A7], [A4 + 0x112]
00002D26  4EAD 1202                jsr        [A5 + 0x1202 /* export_572, CODE:26 @ 000033B8 */]
00002D2A  486C 00CC                pea.l      [A4 + 0xCC]
00002D2E  7001                     moveq.l    D0, 0x01
00002D30  2F00                     move.l     -[A7], D0
00002D32  204B                     movea.l    A0, A3
00002D34  226B 0008                movea.l    A1, [A3 + 0x8]
00002D38  D0E9 0060                add.w      A0, [A1 + 0x60]
00002D3C  2F08                     move.l     -[A7], A0
00002D3E  2049                     movea.l    A0, A1
00002D40  2268 0064                movea.l    A1, [A0 + 0x64]
00002D44  4E91                     jsr        [A1]
00002D46  3006                     move.w     D0, D6
00002D48  906B 0010                sub.w      D0, [A3 + 0x10]
00002D4C  48C0                     ext.l      D0
00002D4E  2F00                     move.l     -[A7], D0
00002D50  3007                     move.w     D0, D7
00002D52  906B 0012                sub.w      D0, [A3 + 0x12]
00002D56  48C0                     ext.l      D0
00002D58  2F00                     move.l     -[A7], D0
00002D5A  204B                     movea.l    A0, A3
00002D5C  226B 0008                movea.l    A1, [A3 + 0x8]
00002D60  D0E9 0040                add.w      A0, [A1 + 0x40]
00002D64  2F08                     move.l     -[A7], A0
00002D66  2049                     movea.l    A0, A1
00002D68  2268 0044                movea.l    A1, [A0 + 0x44]
00002D6C  4E91                     jsr        [A1]
00002D6E  2F2C 0112                move.l     -[A7], [A4 + 0x112]
00002D72  4EAD 120A                jsr        [A5 + 0x120A /* export_573, CODE:26 @ 00003404 */]
00002D76  7000                     moveq.l    D0, 0x00
00002D78  2F00                     move.l     -[A7], D0
00002D7A  2F0C                     move.l     -[A7], A4
00002D7C  4EAD 1F7A                jsr        [A5 + 0x1F7A /* export_1003, CODE:37 @ 00001612 */]
00002D80  2F2C 0112                move.l     -[A7], [A4 + 0x112]
00002D84  4EAD 11EA                jsr        [A5 + 0x11EA /* export_569, CODE:26 @ 00003268 */]
00002D88  48C6                     ext.l      D6
00002D8A  48C4                     ext.l      D4
00002D8C  2006                     move.l     D0, D6
00002D8E  D084                     add.l      D0, D4
00002D90  322C 01D0                move.w     D1, [A4 + 0x1D0]
00002D94  48C1                     ext.l      D1
00002D96  B280                     cmp.l      D1, D0
00002D98  4FEF 004C                lea.l      A7, [A7 + 0x4C]
00002D9C  6C0E                     bge        +0x10 /* 00002DAC */
00002D9E  3006                     move.w     D0, D6
00002DA0  D044                     add.w      D0, D4
00002DA2  3940 01D0                move.w     [A4 + 0x1D0], D0
00002DA6  197C 0001 01F6           move.b     [A4 + 0x1F6], 0x1
label00002DAC:
00002DAC  48C7                     ext.l      D7
00002DAE  48C5                     ext.l      D5
00002DB0  2007                     move.l     D0, D7
00002DB2  D085                     add.l      D0, D5
00002DB4  322C 01D2                move.w     D1, [A4 + 0x1D2]
00002DB8  48C1                     ext.l      D1
00002DBA  B280                     cmp.l      D1, D0
00002DBC  6C0E                     bge        +0x10 /* 00002DCC */
00002DBE  3007                     move.w     D0, D7
00002DC0  D045                     add.w      D0, D5
00002DC2  3940 01D2                move.w     [A4 + 0x1D2], D0
00002DC6  197C 0001 01F6           move.b     [A4 + 0x1F6], 0x1
label00002DCC:
00002DCC  4AAC 01CC                tst.l      [A4 + 0x1CC]
00002DD0  672A                     beq        +0x2C /* 00002DFC */
00002DD2  7001                     moveq.l    D0, 0x01
00002DD4  2F00                     move.l     -[A7], D0
00002DD6  2F2C 01CC                move.l     -[A7], [A4 + 0x1CC]
00002DDA  4EAD 1D3A                jsr        [A5 + 0x1D3A /* export_931, CODE:36 @ 0000100A */]
00002DDE  588F                     addq.l     A7, 4
00002DE0  2F00                     move.l     -[A7], D0
00002DE2  204B                     movea.l    A0, A3
00002DE4  226B 0008                movea.l    A1, [A3 + 0x8]
00002DE8  D0E9 0010                add.w      A0, [A1 + 0x10]
00002DEC  2F08                     move.l     -[A7], A0
00002DEE  2049                     movea.l    A0, A1
00002DF0  2268 0014                movea.l    A1, [A0 + 0x14]
00002DF4  4E91                     jsr        [A1]
00002DF6  4FEF 000C                lea.l      A7, [A7 + 0xC]
00002DFA  6004                     bra        +0x6 /* 00002E00 */
label00002DFC:
00002DFC  294B 01CC                move.l     [A4 + 0x1CC], A3
label00002E00:
00002E00  7000                     moveq.l    D0, 0x00
00002E02  102B 0018                move.b     D0, [A3 + 0x18]
00002E06  7220                     moveq.l    D1, 0x20
00002E08  C200                     and.b      D1, D0
00002E0A  7000                     moveq.l    D0, 0x00
00002E0C  1001                     move.b     D0, D1
00002E0E  4A80                     tst.l      D0
00002E10  6758                     beq        +0x5A /* 00002E6A */
00002E12  200B                     move.l     D0, A3
00002E14  6708                     beq        +0xA /* 00002E1E */
00002E16  200B                     move.l     D0, A3
00002E18  7280                     moveq.l    D1, 0xFFFFFF80
00002E1A  D081                     add.l      D0, D1
00002E1C  6002                     bra        +0x4 /* 00002E20 */
label00002E1E:
00002E1E  7000                     moveq.l    D0, 0x00
label00002E20:
00002E20  2D40 FFFC                move.l     [A6 - 0x4], D0
00002E24  2040                     movea.l    A0, D0
00002E26  226E FFFC                movea.l    A1, [A6 - 0x4]
00002E2A  2269 0060                movea.l    A1, [A1 + 0x60]
00002E2E  D0E9 0038                add.w      A0, [A1 + 0x38]
00002E32  2F08                     move.l     -[A7], A0
00002E34  206E FFFC                movea.l    A0, [A6 - 0x4]
00002E38  2068 0060                movea.l    A0, [A0 + 0x60]
00002E3C  2268 003C                movea.l    A1, [A0 + 0x3C]
00002E40  4E91                     jsr        [A1]
00002E42  200B                     move.l     D0, A3
00002E44  6708                     beq        +0xA /* 00002E4E */
00002E46  200B                     move.l     D0, A3
00002E48  7280                     moveq.l    D1, 0xFFFFFF80
00002E4A  D081                     add.l      D0, D1
00002E4C  6002                     bra        +0x4 /* 00002E50 */
label00002E4E:
00002E4E  7000                     moveq.l    D0, 0x00
label00002E50:
00002E50  2F00                     move.l     -[A7], D0
00002E52  204C                     movea.l    A0, A4
00002E54  226C 0060                movea.l    A1, [A4 + 0x60]
00002E58  D0E9 0020                add.w      A0, [A1 + 0x20]
00002E5C  2F08                     move.l     -[A7], A0
00002E5E  2049                     movea.l    A0, A1
00002E60  2268 0024                movea.l    A1, [A0 + 0x24]
00002E64  4E91                     jsr        [A1]
00002E66  4FEF 000C                lea.l      A7, [A7 + 0xC]
label00002E6A:
00002E6A  4CEE 18F0 FFE4           movem.l    D4,D5,D6,D7,A3,A4, [A6 - 0x1C]
00002E70  4E5E                     unlink     A6
00002E72  4E75                     rts
00002E74  8030 506C 6163 6549 7... dc.b       "PlaceItem__16cScrollerDocItemFP12cContentLinksT2"
export_1091:
00002EA8  4E56 0000                link       A6, 0
00002EAC  2F0C                     move.l     -[A7], A4
00002EAE  286E 0008                movea.l    A4, [A6 + 0x8]
00002EB2  302E 000E                move.w     D0, [A6 + 0xE]
00002EB6  D16C 01D2                add.w      [A4 + 0x1D2], D0
00002EBA  302E 0012                move.w     D0, [A6 + 0x12]
00002EBE  D16C 01D0                add.w      [A4 + 0x1D0], D0
00002EC2  197C 0001 01F6           move.b     [A4 + 0x1F6], 0x1
00002EC8  286E FFFC                movea.l    A4, [A6 - 0x4]
00002ECC  4E5E                     unlink     A6
00002ECE  4E75                     rts
00002ED0  802B 4578 7061 6E64 4... dc.b       "ExpandLogicalBounds__16cScrollerDocItemFsT1"
export_1092:
00002F00  4E56 FFFC                link       A6, -0x0004
00002F04  48E7 0018                movem.l    -[A7], A3,A4
00002F08  286E 0008                movea.l    A4, [A6 + 0x8]
00002F0C  3D6E 000E FFFE           move.w     [A6 - 0x2], [A6 + 0xE]
00002F12  3D6E 0012 FFFC           move.w     [A6 - 0x4], [A6 + 0x12]
00002F18  4A2E 0017                tst.b      [A6 + 0x17]
00002F1C  6660                     bne        +0x62 /* 00002F7E */
00002F1E  2F2C 0112                move.l     -[A7], [A4 + 0x112]
00002F22  4EAD 11E2                jsr        [A5 + 0x11E2 /* export_568, CODE:26 @ 000031FA */]
00002F26  486E FFFC                pea.l      [A6 - 0x4]
00002F2A  A870                     syscall    LocalToGlobal
00002F2C  206C 01DC                movea.l    A0, [A4 + 0x1DC]
00002F30  2050                     movea.l    A0, [A0]
00002F32  3028 0002                move.w     D0, [A0 + 0x2]
00002F36  48C0                     ext.l      D0
00002F38  4480                     neg.l      D0
00002F3A  322C 01D4                move.w     D1, [A4 + 0x1D4]
00002F3E  D240                     add.w      D1, D0
00002F40  48C1                     ext.l      D1
00002F42  2F01                     move.l     -[A7], D1
00002F44  206C 01DC                movea.l    A0, [A4 + 0x1DC]
00002F48  2050                     movea.l    A0, [A0]
00002F4A  3028 0004                move.w     D0, [A0 + 0x4]
00002F4E  48C0                     ext.l      D0
00002F50  4480                     neg.l      D0
00002F52  322C 01D6                move.w     D1, [A4 + 0x1D6]
00002F56  D240                     add.w      D1, D0
00002F58  48C1                     ext.l      D1
00002F5A  2F01                     move.l     -[A7], D1
00002F5C  2F2C 0112                move.l     -[A7], [A4 + 0x112]
00002F60  4EAD 1202                jsr        [A5 + 0x1202 /* export_572, CODE:26 @ 000033B8 */]
00002F64  486E FFFC                pea.l      [A6 - 0x4]
00002F68  A871                     syscall    GlobalToLocal
00002F6A  2F2C 0112                move.l     -[A7], [A4 + 0x112]
00002F6E  4EAD 120A                jsr        [A5 + 0x120A /* export_573, CODE:26 @ 00003404 */]
00002F72  2F2C 0112                move.l     -[A7], [A4 + 0x112]
00002F76  4EAD 11EA                jsr        [A5 + 0x11EA /* export_569, CODE:26 @ 00003268 */]
00002F7A  4FEF 0018                lea.l      A7, [A7 + 0x18]
label00002F7E:
00002F7E  302C 01D6                move.w     D0, [A4 + 0x1D6]
00002F82  D16E FFFE                add.w      [A6 - 0x2], D0
00002F86  302C 01D4                move.w     D0, [A4 + 0x1D4]
00002F8A  D16E FFFC                add.w      [A6 - 0x4], D0
00002F8E  266C 01CC                movea.l    A3, [A4 + 0x1CC]
00002F92  6004                     bra        +0x6 /* 00002F98 */
label00002F94:
00002F94  266B 0004                movea.l    A3, [A3 + 0x4]
label00002F98:
00002F98  200B                     move.l     D0, A3
00002F9A  6710                     beq        +0x12 /* 00002FAC */
00002F9C  558F                     subq.l     A7, 2
00002F9E  2F2E FFFC                move.l     -[A7], [A6 - 0x4]
00002FA2  486B 0010                pea.l      [A3 + 0x10]
00002FA6  A8AD                     syscall    PtInRect
00002FA8  4A1F                     tst.b      [A7]+
00002FAA  67E8                     beq        -0x16 /* 00002F94 */
label00002FAC:
00002FAC  200B                     move.l     D0, A3
00002FAE  4CEE 1800 FFF4           movem.l    A3,A4, [A6 - 0xC]
00002FB4  4E5E                     unlink     A6
00002FB6  4E75                     rts
00002FB8  8025 4578 7472 6163 7... dc.b       "ExtractItem__16cScrollerDocItemFsT1Uc"
export_1093:
00002FE2  4E56 FFF8                link       A6, -0x0008
00002FE6  48E7 0308                movem.l    -[A7], D6,D7,A4
00002FEA  3C2E 0012                move.w     D6, [A6 + 0x12]
00002FEE  3E2E 000E                move.w     D7, [A6 + 0xE]
00002FF2  286E 0008                movea.l    A4, [A6 + 0x8]
00002FF6  48C6                     ext.l      D6
00002FF8  2F06                     move.l     -[A7], D6
00002FFA  48C7                     ext.l      D7
00002FFC  2F07                     move.l     -[A7], D7
00002FFE  486C 0080                pea.l      [A4 + 0x80]
00003002  4EAD 1CD2                jsr        [A5 + 0x1CD2 /* export_918, CODE:36 @ 0000099A */]
00003006  206C 01DC                movea.l    A0, [A4 + 0x1DC]
0000300A  2050                     movea.l    A0, [A0]
0000300C  43EE FFF8                lea.l      A1, [A6 - 0x8]
00003010  5488                     addq.l     A0, 2
00003012  22D8                     move.l     [A1]+, [A0]+
00003014  22D8                     move.l     [A1]+, [A0]+
00003016  486E FFF8                pea.l      [A6 - 0x8]
0000301A  3F07                     move.w     -[A7], D7
0000301C  3F06                     move.w     -[A7], D6
0000301E  A8A8                     syscall    OffsetRect
00003020  2F2C 01DC                move.l     -[A7], [A4 + 0x1DC]
00003024  486E FFF8                pea.l      [A6 - 0x8]
00003028  A8DF                     syscall    RectRgn
0000302A  4A2C 01F1                tst.b      [A4 + 0x1F1]
0000302E  4FEF 000C                lea.l      A7, [A7 + 0xC]
00003032  662A                     bne        +0x2C /* 0000305E */
00003034  48C6                     ext.l      D6
00003036  2F06                     move.l     -[A7], D6
00003038  48C7                     ext.l      D7
0000303A  2F07                     move.l     -[A7], D7
0000303C  206C 01C8                movea.l    A0, [A4 + 0x1C8]
00003040  2248                     movea.l    A1, A0
00003042  2269 0060                movea.l    A1, [A1 + 0x60]
00003046  D0E9 0110                add.w      A0, [A1 + 0x110]
0000304A  2F08                     move.l     -[A7], A0
0000304C  206C 01C8                movea.l    A0, [A4 + 0x1C8]
00003050  2068 0060                movea.l    A0, [A0 + 0x60]
00003054  2268 0114                movea.l    A1, [A0 + 0x114]
00003058  4E91                     jsr        [A1]
0000305A  4FEF 000C                lea.l      A7, [A7 + 0xC]
label0000305E:
0000305E  4A2C 01F0                tst.b      [A4 + 0x1F0]
00003062  662A                     bne        +0x2C /* 0000308E */
00003064  48C6                     ext.l      D6
00003066  2F06                     move.l     -[A7], D6
00003068  48C7                     ext.l      D7
0000306A  2F07                     move.l     -[A7], D7
0000306C  206C 01C4                movea.l    A0, [A4 + 0x1C4]
00003070  2248                     movea.l    A1, A0
00003072  2269 0060                movea.l    A1, [A1 + 0x60]
00003076  D0E9 0110                add.w      A0, [A1 + 0x110]
0000307A  2F08                     move.l     -[A7], A0
0000307C  206C 01C4                movea.l    A0, [A4 + 0x1C4]
00003080  2068 0060                movea.l    A0, [A0 + 0x60]
00003084  2268 0114                movea.l    A1, [A0 + 0x114]
00003088  4E91                     jsr        [A1]
0000308A  4FEF 000C                lea.l      A7, [A7 + 0xC]
label0000308E:
0000308E  486C 01E4                pea.l      [A4 + 0x1E4]
00003092  3F07                     move.w     -[A7], D7
00003094  3F06                     move.w     -[A7], D6
00003096  A8A8                     syscall    OffsetRect
00003098  4CEE 10C0 FFEC           movem.l    D6,D7,A4, [A6 - 0x14]
0000309E  4E5E                     unlink     A6
000030A0  4E75                     rts
000030A2  9C4D 6F76 655F 5F31 3... dc.b       "Move__16cScrollerDocItemFsT1"
export_1094:
fn000030C2:
000030C2  4E56 FFFC                link       A6, -0x0004
000030C6  48E7 0018                movem.l    -[A7], A3,A4
000030CA  286E 0008                movea.l    A4, [A6 + 0x8]
000030CE  7000                     moveq.l    D0, 0x00
000030D0  2D40 FFFC                move.l     [A6 - 0x4], D0
000030D4  4AAC 01CC                tst.l      [A4 + 0x1CC]
000030D8  6752                     beq        +0x54 /* 0000312C */
000030DA  2F2C 01CC                move.l     -[A7], [A4 + 0x1CC]
000030DE  4EAD 1D3A                jsr        [A5 + 0x1D3A /* export_931, CODE:36 @ 0000100A */]
000030E2  2D40 FFFC                move.l     [A6 - 0x4], D0
000030E6  584F                     addq.w     A7, 4
000030E8  6042                     bra        +0x44 /* 0000312C */
label000030EA:
000030EA  266E FFFC                movea.l    A3, [A6 - 0x4]
000030EE  2D53 FFFC                move.l     [A6 - 0x4], [A3]
000030F2  204B                     movea.l    A0, A3
000030F4  226B 0008                movea.l    A1, [A3 + 0x8]
000030F8  D0E9 0018                add.w      A0, [A1 + 0x18]
000030FC  2F08                     move.l     -[A7], A0
000030FE  2049                     movea.l    A0, A1
00003100  2268 001C                movea.l    A1, [A0 + 0x1C]
00003104  4E91                     jsr        [A1]
00003106  200B                     move.l     D0, A3
00003108  671E                     beq        +0x20 /* 00003128 */
0000310A  7003                     moveq.l    D0, 0x03
0000310C  2F00                     move.l     -[A7], D0
0000310E  204B                     movea.l    A0, A3
00003110  226B 0008                movea.l    A1, [A3 + 0x8]
00003114  D0E9 0008                add.w      A0, [A1 + 0x8]
00003118  2F08                     move.l     -[A7], A0
0000311A  2049                     movea.l    A0, A1
0000311C  2268 000C                movea.l    A1, [A0 + 0xC]
00003120  4E91                     jsr        [A1]
00003122  7000                     moveq.l    D0, 0x00
00003124  504F                     addq.w     A7, 8
00003126  6002                     bra        +0x4 /* 0000312A */
label00003128:
00003128  7000                     moveq.l    D0, 0x00
label0000312A:
0000312A  584F                     addq.w     A7, 4
label0000312C:
0000312C  4AAE FFFC                tst.l      [A6 - 0x4]
00003130  66B8                     bne        -0x46 /* 000030EA */
00003132  7000                     moveq.l    D0, 0x00
00003134  2940 01CC                move.l     [A4 + 0x1CC], D0
00003138  42AC 01D0                clr.l      [A4 + 0x1D0]
0000313C  4AAC 01C4                tst.l      [A4 + 0x1C4]
00003140  6716                     beq        +0x18 /* 00003158 */
00003142  7001                     moveq.l    D0, 0x01
00003144  2F00                     move.l     -[A7], D0
00003146  2F00                     move.l     -[A7], D0
00003148  2F00                     move.l     -[A7], D0
0000314A  2F00                     move.l     -[A7], D0
0000314C  2F2C 01C4                move.l     -[A7], [A4 + 0x1C4]
00003150  4EAD 2052                jsr        [A5 + 0x2052 /* export_1030, CODE:37 @ 000032F0 */]
00003154  4FEF 0014                lea.l      A7, [A7 + 0x14]
label00003158:
00003158  4AAC 01C8                tst.l      [A4 + 0x1C8]
0000315C  6716                     beq        +0x18 /* 00003174 */
0000315E  7001                     moveq.l    D0, 0x01
00003160  2F00                     move.l     -[A7], D0
00003162  2F00                     move.l     -[A7], D0
00003164  2F00                     move.l     -[A7], D0
00003166  2F00                     move.l     -[A7], D0
00003168  2F2C 01C8                move.l     -[A7], [A4 + 0x1C8]
0000316C  4EAD 2052                jsr        [A5 + 0x2052 /* export_1030, CODE:37 @ 000032F0 */]
00003170  4FEF 0014                lea.l      A7, [A7 + 0x14]
label00003174:
00003174  2F0C                     move.l     -[A7], A4
00003176  4EAD 1F52                jsr        [A5 + 0x1F52 /* export_998, CODE:37 @ 000014C8 */]
0000317A  584F                     addq.w     A7, 4
0000317C  4CEE 1800 FFF4           movem.l    A3,A4, [A6 - 0xC]
00003182  4E5E                     unlink     A6
00003184  4E75                     rts
00003186  8025 4465 6C65 7465 4... dc.b       "DeleteEveryItem__16cScrollerDocItemFv"
export_1095:
000031B0  4E56 0000                link       A6, 0
000031B4  48E7 0108                movem.l    -[A7], D7,A4
000031B8  2E2E 000C                move.l     D7, [A6 + 0xC]
000031BC  286E 0008                movea.l    A4, [A6 + 0x8]
000031C0  200C                     move.l     D0, A4
000031C2  6700 00D6                beq        +0xD8 /* 0000329A */
000031C6  206C 0064                movea.l    A0, [A4 + 0x64]
000031CA  216D F9CE 0008           move.l     [A0 + 0x8], [A5 - 0x632]
000031D0  296D F9CA 0070           move.l     [A4 + 0x70], [A5 - 0x636]
000031D6  296D F9C6 0088           move.l     [A4 + 0x88], [A5 - 0x63A]
000031DC  296D F9C2 0060           move.l     [A4 + 0x60], [A5 - 0x63E]
000031E2  2F0C                     move.l     -[A7], A4
000031E4  4EBA FEDC                jsr        [PC - 0x124 /* 000030C2 */]
000031E8  2F2C 01DC                move.l     -[A7], [A4 + 0x1DC]
000031EC  A8D9                     syscall    DisposRgn/DisposeRgn
000031EE  4AAC 01C4                tst.l      [A4 + 0x1C4]
000031F2  584F                     addq.w     A7, 4
000031F4  6730                     beq        +0x32 /* 00003226 */
000031F6  4AAC 01C4                tst.l      [A4 + 0x1C4]
000031FA  6728                     beq        +0x2A /* 00003224 */
000031FC  7003                     moveq.l    D0, 0x03
000031FE  2F00                     move.l     -[A7], D0
00003200  206C 01C4                movea.l    A0, [A4 + 0x1C4]
00003204  2248                     movea.l    A1, A0
00003206  2269 0060                movea.l    A1, [A1 + 0x60]
0000320A  D0E9 0008                add.w      A0, [A1 + 0x8]
0000320E  2F08                     move.l     -[A7], A0
00003210  206C 01C4                movea.l    A0, [A4 + 0x1C4]
00003214  2068 0060                movea.l    A0, [A0 + 0x60]
00003218  2268 000C                movea.l    A1, [A0 + 0xC]
0000321C  4E91                     jsr        [A1]
0000321E  7000                     moveq.l    D0, 0x00
00003220  504F                     addq.w     A7, 8
00003222  6002                     bra        +0x4 /* 00003226 */
label00003224:
00003224  7000                     moveq.l    D0, 0x00
label00003226:
00003226  4AAC 01C8                tst.l      [A4 + 0x1C8]
0000322A  6730                     beq        +0x32 /* 0000325C */
0000322C  4AAC 01C8                tst.l      [A4 + 0x1C8]
00003230  6728                     beq        +0x2A /* 0000325A */
00003232  7003                     moveq.l    D0, 0x03
00003234  2F00                     move.l     -[A7], D0
00003236  206C 01C8                movea.l    A0, [A4 + 0x1C8]
0000323A  2248                     movea.l    A1, A0
0000323C  2269 0060                movea.l    A1, [A1 + 0x60]
00003240  D0E9 0008                add.w      A0, [A1 + 0x8]
00003244  2F08                     move.l     -[A7], A0
00003246  206C 01C8                movea.l    A0, [A4 + 0x1C8]
0000324A  2068 0060                movea.l    A0, [A0 + 0x60]
0000324E  2268 000C                movea.l    A1, [A0 + 0xC]
00003252  4E91                     jsr        [A1]
00003254  7000                     moveq.l    D0, 0x00
00003256  504F                     addq.w     A7, 8
00003258  6002                     bra        +0x4 /* 0000325C */
label0000325A:
0000325A  7000                     moveq.l    D0, 0x00
label0000325C:
0000325C  200C                     move.l     D0, A4
0000325E  673A                     beq        +0x3C /* 0000329A */
00003260  7000                     moveq.l    D0, 0x00
00003262  2F00                     move.l     -[A7], D0
00003264  2F0C                     move.l     -[A7], A4
00003266  4EAD 1FDA                jsr        [A5 + 0x1FDA /* export_1015, CODE:37 @ 00002110 */]
0000326A  7002                     moveq.l    D0, 0x02
0000326C  C087                     and.l      D0, D7
0000326E  6718                     beq        +0x1A /* 00003288 */
00003270  7000                     moveq.l    D0, 0x00
00003272  2F00                     move.l     -[A7], D0
00003274  220C                     move.l     D1, A4
00003276  D2BC 0000 01FC           add.l      D1, 0x1FC
0000327C  2F01                     move.l     -[A7], D1
0000327E  4EAD 1632                jsr        [A5 + 0x1632 /* export_706, CODE:32 @ 000036CC */]
00003282  7000                     moveq.l    D0, 0x00
00003284  504F                     addq.w     A7, 8
00003286  6002                     bra        +0x4 /* 0000328A */
label00003288:
00003288  7000                     moveq.l    D0, 0x00
label0000328A:
0000328A  0807 0000                btst.b     D7, 0x0
0000328E  504F                     addq.w     A7, 8
00003290  6708                     beq        +0xA /* 0000329A */
00003292  2F0C                     move.l     -[A7], A4
00003294  4EAD 0102                jsr        [A5 + 0x102 /* export_28, CODE:1 @ 00001BE0 */]
00003298  584F                     addq.w     A7, 4
label0000329A:
0000329A  4CEE 1080 FFF8           movem.l    D7,A4, [A6 - 0x8]
000032A0  4E5E                     unlink     A6
000032A2  4E75                     rts
000032A4  9A5F 5F64 745F 5F31 3... dc.b       "__dt__16cScrollerDocItemFv"
