# near model CODE resource
# jump table entries: 3000-3024 (25 of them)
export_375:
00000000  4E56 0000                link       A6, 0
00000004  48E7 1018                movem.l    -[A7], D3,A3,A4
00000008  266E 000C                movea.l    A3, [A6 + 0xC]
0000000C  286E 0008                movea.l    A4, [A6 + 0x8]
00000010  200C                     move.l     D0, A4
00000012  6612                     bne        +0x14 /* 00000026 */
00000014  4878 0250                push.l     0x250
00000018  4EAD 010A                jsr        [A5 + 0x10A /* export_29, CODE:1 @ 00001C0A */]
0000001C  2840                     movea.l    A4, D0
0000001E  200C                     move.l     D0, A4
00000020  584F                     addq.w     A7, 4
00000022  6700 00DE                beq        +0xE0 /* 00000102 */
label00000026:
00000026  200B                     move.l     D0, A3
00000028  57C3                     seq        D3
0000002A  4403                     neg.b      D3
0000002C  674E                     beq        +0x50 /* 0000007C */
0000002E  264C                     movea.l    A3, A4
00000030  47EB 0244                lea.l      A3, [A3 + 0x244]
00000034  7601                     moveq.l    D3, 0x01
00000036  200C                     move.l     D0, A4
00000038  D0BC 0000 0244           add.l      D0, 0x244
0000003E  6614                     bne        +0x16 /* 00000054 */
00000040  2F03                     move.l     -[A7], D3
00000042  700C                     moveq.l    D0, 0x0C
00000044  2F00                     move.l     -[A7], D0
00000046  4EAD 010A                jsr        [A5 + 0x10A /* export_29, CODE:1 @ 00001C0A */]
0000004A  588F                     addq.l     A7, 4
0000004C  261F                     move.l     D3, [A7]+
0000004E  4A80                     tst.l      D0
00000050  6602                     bne        +0x4 /* 00000054 */
00000052  7600                     moveq.l    D3, 0x00
label00000054:
00000054  4A03                     tst.b      D3
00000056  6718                     beq        +0x1A /* 00000070 */
00000058  204D                     movea.l    A0, A5
0000005A  D1FC FFFF 0F48           add.l      A0, 0xFFFF0F48
00000060  2950 024C                move.l     [A4 + 0x24C], [A0]
00000064  7000                     moveq.l    D0, 0x00
00000066  2940 0244                move.l     [A4 + 0x244], D0
0000006A  2940 0248                move.l     [A4 + 0x248], D0
0000006E  6002                     bra        +0x4 /* 00000072 */
label00000070:
00000070  7000                     moveq.l    D0, 0x00
label00000072:
00000072  200C                     move.l     D0, A4
00000074  D0BC 0000 0244           add.l      D0, 0x244
0000007A  6002                     bra        +0x4 /* 0000007E */
label0000007C:
0000007C  200B                     move.l     D0, A3
label0000007E:
0000007E  7000                     moveq.l    D0, 0x00
00000080  2F00                     move.l     -[A7], D0
00000082  2F3C 4275 7920           move.l     -[A7], 0x42757920 /* 'Buy ' */
00000088  2F2E 0010                move.l     -[A7], [A6 + 0x10]
0000008C  2F0B                     move.l     -[A7], A3
0000008E  2F0C                     move.l     -[A7], A4
00000090  4EAD 10AA                jsr        [A5 + 0x10AA /* export_529, CODE:26 @ 0000020E */]
00000094  204D                     movea.l    A0, A5
00000096  D1FC FFFF 0F4C           add.l      A0, 0xFFFF0F4C
0000009C  2950 0060                move.l     [A4 + 0x60], [A0]
000000A0  206C 0064                movea.l    A0, [A4 + 0x64]
000000A4  224D                     movea.l    A1, A5
000000A6  D3FC FFFF 0F50           add.l      A1, 0xFFFF0F50
000000AC  2151 0008                move.l     [A0 + 0x8], [A1]
000000B0  204D                     movea.l    A0, A5
000000B2  D1FC FFFF 0F54           add.l      A0, 0xFFFF0F54
000000B8  2950 0070                move.l     [A4 + 0x70], [A0]
000000BC  7000                     moveq.l    D0, 0x00
000000BE  2F00                     move.l     -[A7], D0
000000C0  486C 016C                pea.l      [A4 + 0x16C]
000000C4  4EAD 1D5A                jsr        [A5 + 0x1D5A /* export_935, CODE:36 @ 00001140 */]
000000C8  204D                     movea.l    A0, A5
000000CA  D1FC FFFF 0F58           add.l      A0, 0xFFFF0F58
000000D0  2950 0174                move.l     [A4 + 0x174], [A0]
000000D4  41EC 016C                lea.l      A0, [A4 + 0x16C]
000000D8  70FF                     moveq.l    D0, 0xFFFFFFFF
000000DA  2F00                     move.l     -[A7], D0
000000DC  4878 0083                push.l     0x83
000000E0  204C                     movea.l    A0, A4
000000E2  226C 0060                movea.l    A1, [A4 + 0x60]
000000E6  D0E9 0068                add.w      A0, [A1 + 0x68]
000000EA  2F08                     move.l     -[A7], A0
000000EC  2049                     movea.l    A0, A1
000000EE  2268 006C                movea.l    A1, [A0 + 0x6C]
000000F2  4E91                     jsr        [A1]
000000F4  7000                     moveq.l    D0, 0x00
000000F6  2F00                     move.l     -[A7], D0
000000F8  2F0C                     move.l     -[A7], A4
000000FA  4EBA 0432                jsr        [PC + 0x432 /* 0000052E */]
000000FE  4FEF 0030                lea.l      A7, [A7 + 0x30]
label00000102:
00000102  200C                     move.l     D0, A4
00000104  4CEE 1808 FFF4           movem.l    D3,A3,A4, [A6 - 0xC]
0000010A  4E5E                     unlink     A6
0000010C  4E75                     rts
0000010E  9B5F 5F63 745F 5F31 3... dc.b       "__ct__10cBuyWindowFP6cAgent"
export_376:
0000012C  4E56 0000                link       A6, 0
00000130  48E7 0108                movem.l    -[A7], D7,A4
00000134  2E2E 000C                move.l     D7, [A6 + 0xC]
00000138  286E 0008                movea.l    A4, [A6 + 0x8]
0000013C  200C                     move.l     D0, A4
0000013E  6774                     beq        +0x76 /* 000001B4 */
00000140  204D                     movea.l    A0, A5
00000142  D1FC FFFF 0F54           add.l      A0, 0xFFFF0F54
00000148  2950 0070                move.l     [A4 + 0x70], [A0]
0000014C  206C 0064                movea.l    A0, [A4 + 0x64]
00000150  224D                     movea.l    A1, A5
00000152  D3FC FFFF 0F50           add.l      A1, 0xFFFF0F50
00000158  2151 0008                move.l     [A0 + 0x8], [A1]
0000015C  204D                     movea.l    A0, A5
0000015E  D1FC FFFF 0F4C           add.l      A0, 0xFFFF0F4C
00000164  2950 0060                move.l     [A4 + 0x60], [A0]
00000168  200C                     move.l     D0, A4
0000016A  6748                     beq        +0x4A /* 000001B4 */
0000016C  7002                     moveq.l    D0, 0x02
0000016E  2F00                     move.l     -[A7], D0
00000170  486C 016C                pea.l      [A4 + 0x16C]
00000174  4EAD 16CA                jsr        [A5 + 0x16CA /* export_725, CODE:32 @ 00003F94 */]
00000178  7000                     moveq.l    D0, 0x00
0000017A  2F00                     move.l     -[A7], D0
0000017C  2F0C                     move.l     -[A7], A4
0000017E  4EAD 10B2                jsr        [A5 + 0x10B2 /* export_530, CODE:26 @ 000003EC */]
00000182  7002                     moveq.l    D0, 0x02
00000184  C087                     and.l      D0, D7
00000186  6718                     beq        +0x1A /* 000001A0 */
00000188  7000                     moveq.l    D0, 0x00
0000018A  2F00                     move.l     -[A7], D0
0000018C  220C                     move.l     D1, A4
0000018E  D2BC 0000 0244           add.l      D1, 0x244
00000194  2F01                     move.l     -[A7], D1
00000196  4EAD 1632                jsr        [A5 + 0x1632 /* export_706, CODE:32 @ 000036CC */]
0000019A  7000                     moveq.l    D0, 0x00
0000019C  504F                     addq.w     A7, 8
0000019E  6002                     bra        +0x4 /* 000001A2 */
label000001A0:
000001A0  7000                     moveq.l    D0, 0x00
label000001A2:
000001A2  0807 0000                btst.b     D7, 0x0
000001A6  4FEF 0010                lea.l      A7, [A7 + 0x10]
000001AA  6708                     beq        +0xA /* 000001B4 */
000001AC  2F0C                     move.l     -[A7], A4
000001AE  4EAD 0102                jsr        [A5 + 0x102 /* export_28, CODE:1 @ 00001BE0 */]
000001B2  584F                     addq.w     A7, 4
label000001B4:
000001B4  4CEE 1080 FFF8           movem.l    D7,A4, [A6 - 0x8]
000001BA  4E5E                     unlink     A6
000001BC  4E75                     rts
000001BE  945F 5F64 745F 5F31 3... dc.b       "__dt__10cBuyWindowFv"
export_377:
000001D6  4E56 0000                link       A6, 0
000001DA  48E7 0718                movem.l    -[A7], D5,D6,D7,A3,A4
000001DE  2A2E 000C                move.l     D5, [A6 + 0xC]
000001E2  286E 0008                movea.l    A4, [A6 + 0x8]
000001E6  2005                     move.l     D0, D5
000001E8  0480 436C 5761           subi.l     D0, 0x436C5761 /* 'ClWa' */
000001EE  6718                     beq        +0x1A /* 00000208 */
000001F0  0480 03D5 FCCF           subi.l     D0, 0x3D5FCCF
000001F6  6736                     beq        +0x38 /* 0000022E */
000001F8  5180                     subq.l     D0, 8
000001FA  676E                     beq        +0x70 /* 0000026A */
000001FC  0480 032D EE41           subi.l     D0, 0x32DEE41
00000202  671E                     beq        +0x20 /* 00000222 */
00000204  6000 01DE                bra        +0x1E0 /* 000003E4 */
label00000208:
00000208  204C                     movea.l    A0, A4
0000020A  226C 0060                movea.l    A1, [A4 + 0x60]
0000020E  D0E9 0110                add.w      A0, [A1 + 0x110]
00000212  2F08                     move.l     -[A7], A0
00000214  2049                     movea.l    A0, A1
00000216  2268 0114                movea.l    A1, [A0 + 0x114]
0000021A  4E91                     jsr        [A1]
0000021C  584F                     addq.w     A7, 4
0000021E  6000 01C4                bra        +0x1C6 /* 000003E4 */
label00000222:
00000222  2F0C                     move.l     -[A7], A4
00000224  4EBA 08E6                jsr        [PC + 0x8E6 /* 00000B0C */]
00000228  584F                     addq.w     A7, 4
0000022A  6000 01CC                bra        +0x1CE /* 000003F8 */
label0000022E:
0000022E  202E 0010                move.l     D0, [A6 + 0x10]
00000232  B0AC 01BE                cmp.l      D0, [A4 + 0x1BE]
00000236  661A                     bne        +0x1C /* 00000252 */
00000238  204C                     movea.l    A0, A4
0000023A  226C 0060                movea.l    A1, [A4 + 0x60]
0000023E  D0E9 0078                add.w      A0, [A1 + 0x78]
00000242  2F08                     move.l     -[A7], A0
00000244  2049                     movea.l    A0, A1
00000246  2268 007C                movea.l    A1, [A0 + 0x7C]
0000024A  4E91                     jsr        [A1]
0000024C  584F                     addq.w     A7, 4
0000024E  6000 01A8                bra        +0x1AA /* 000003F8 */
label00000252:
00000252  202E 0010                move.l     D0, [A6 + 0x10]
00000256  B0AC 01BA                cmp.l      D0, [A4 + 0x1BA]
0000025A  6600 019C                bne        +0x19E /* 000003F8 */
0000025E  2F0C                     move.l     -[A7], A4
00000260  4EBA 07C8                jsr        [PC + 0x7C8 /* 00000A2A */]
00000264  584F                     addq.w     A7, 4
00000266  6000 0190                bra        +0x192 /* 000003F8 */
label0000026A:
0000026A  202E 0010                move.l     D0, [A6 + 0x10]
0000026E  B0AC 01B2                cmp.l      D0, [A4 + 0x1B2]
00000272  665C                     bne        +0x5E /* 000002D0 */
00000274  302C 019A                move.w     D0, [A4 + 0x19A]
00000278  5340                     subq.w     D0, 1
0000027A  48C0                     ext.l      D0
0000027C  2F00                     move.l     -[A7], D0
0000027E  2F0C                     move.l     -[A7], A4
00000280  4EBA 0208                jsr        [PC + 0x208 /* 0000048A */]
00000284  226C 01B2                movea.l    A1, [A4 + 0x1B2]
00000288  43E9 0080                lea.l      A1, [A1 + 0x80]
0000028C  2049                     movea.l    A0, A1
0000028E  226C 01B2                movea.l    A1, [A4 + 0x1B2]
00000292  2269 0088                movea.l    A1, [A1 + 0x88]
00000296  D0E9 00B0                add.w      A0, [A1 + 0xB0]
0000029A  2F08                     move.l     -[A7], A0
0000029C  206C 01B2                movea.l    A0, [A4 + 0x1B2]
000002A0  2068 0088                movea.l    A0, [A0 + 0x88]
000002A4  2268 00B4                movea.l    A1, [A0 + 0xB4]
000002A8  4E91                     jsr        [A1]
000002AA  206C 01B2                movea.l    A0, [A4 + 0x1B2]
000002AE  2248                     movea.l    A1, A0
000002B0  2269 0060                movea.l    A1, [A1 + 0x60]
000002B4  D0E9 00E8                add.w      A0, [A1 + 0xE8]
000002B8  2F08                     move.l     -[A7], A0
000002BA  206C 01B2                movea.l    A0, [A4 + 0x1B2]
000002BE  2068 0060                movea.l    A0, [A0 + 0x60]
000002C2  2268 00EC                movea.l    A1, [A0 + 0xEC]
000002C6  4E91                     jsr        [A1]
000002C8  4FEF 0010                lea.l      A7, [A7 + 0x10]
000002CC  6000 012A                bra        +0x12C /* 000003F8 */
label000002D0:
000002D0  202E 0010                move.l     D0, [A6 + 0x10]
000002D4  B0AC 01B6                cmp.l      D0, [A4 + 0x1B6]
000002D8  665C                     bne        +0x5E /* 00000336 */
000002DA  302C 019A                move.w     D0, [A4 + 0x19A]
000002DE  5240                     addq.w     D0, 1
000002E0  48C0                     ext.l      D0
000002E2  2F00                     move.l     -[A7], D0
000002E4  2F0C                     move.l     -[A7], A4
000002E6  4EBA 01A2                jsr        [PC + 0x1A2 /* 0000048A */]
000002EA  226C 01B6                movea.l    A1, [A4 + 0x1B6]
000002EE  43E9 0080                lea.l      A1, [A1 + 0x80]
000002F2  2049                     movea.l    A0, A1
000002F4  226C 01B6                movea.l    A1, [A4 + 0x1B6]
000002F8  2269 0088                movea.l    A1, [A1 + 0x88]
000002FC  D0E9 00B0                add.w      A0, [A1 + 0xB0]
00000300  2F08                     move.l     -[A7], A0
00000302  206C 01B6                movea.l    A0, [A4 + 0x1B6]
00000306  2068 0088                movea.l    A0, [A0 + 0x88]
0000030A  2268 00B4                movea.l    A1, [A0 + 0xB4]
0000030E  4E91                     jsr        [A1]
00000310  206C 01B6                movea.l    A0, [A4 + 0x1B6]
00000314  2248                     movea.l    A1, A0
00000316  2269 0060                movea.l    A1, [A1 + 0x60]
0000031A  D0E9 00E8                add.w      A0, [A1 + 0xE8]
0000031E  2F08                     move.l     -[A7], A0
00000320  206C 01B6                movea.l    A0, [A4 + 0x1B6]
00000324  2068 0060                movea.l    A0, [A0 + 0x60]
00000328  2268 00EC                movea.l    A1, [A0 + 0xEC]
0000032C  4E91                     jsr        [A1]
0000032E  4FEF 0010                lea.l      A7, [A7 + 0x10]
00000332  6000 00C4                bra        +0xC6 /* 000003F8 */
label00000336:
00000336  4246                     clr.w      D6
00000338  4247                     clr.w      D7
0000033A  6052                     bra        +0x54 /* 0000038E */
label0000033C:
0000033C  48C7                     ext.l      D7
0000033E  2F07                     move.l     -[A7], D7
00000340  486C 016C                pea.l      [A4 + 0x16C]
00000344  4EAD 16D2                jsr        [A5 + 0x16D2 /* export_726, CODE:32 @ 00003FEA */]
00000348  2640                     movea.l    A3, D0
0000034A  B7EE 0010                cmpa.l     A3, [A6 + 0x10]
0000034E  504F                     addq.w     A7, 8
00000350  6730                     beq        +0x32 /* 00000382 */
00000352  43EB 0080                lea.l      A1, [A3 + 0x80]
00000356  2049                     movea.l    A0, A1
00000358  226B 0088                movea.l    A1, [A3 + 0x88]
0000035C  D0E9 00B0                add.w      A0, [A1 + 0xB0]
00000360  2F08                     move.l     -[A7], A0
00000362  2049                     movea.l    A0, A1
00000364  2268 00B4                movea.l    A1, [A0 + 0xB4]
00000368  4E91                     jsr        [A1]
0000036A  204B                     movea.l    A0, A3
0000036C  226B 0060                movea.l    A1, [A3 + 0x60]
00000370  D0E9 00E8                add.w      A0, [A1 + 0xE8]
00000374  2F08                     move.l     -[A7], A0
00000376  2049                     movea.l    A0, A1
00000378  2268 00EC                movea.l    A1, [A0 + 0xEC]
0000037C  4E91                     jsr        [A1]
0000037E  504F                     addq.w     A7, 8
00000380  6008                     bra        +0xA /* 0000038A */
label00000382:
00000382  B7EE 0010                cmpa.l     A3, [A6 + 0x10]
00000386  6602                     bne        +0x4 /* 0000038A */
00000388  3C07                     move.w     D6, D7
label0000038A:
0000038A  3007                     move.w     D0, D7
0000038C  5247                     addq.w     D7, 1
label0000038E:
0000038E  48C7                     ext.l      D7
00000390  BEAC 0178                cmp.l      D7, [A4 + 0x178]
00000394  6DA6                     blt        -0x58 /* 0000033C */
00000396  48C6                     ext.l      D6
00000398  2F06                     move.l     -[A7], D6
0000039A  2F0C                     move.l     -[A7], A4
0000039C  4EBA 0190                jsr        [PC + 0x190 /* 0000052E */]
000003A0  226E 0010                movea.l    A1, [A6 + 0x10]
000003A4  43E9 0080                lea.l      A1, [A1 + 0x80]
000003A8  2049                     movea.l    A0, A1
000003AA  226E 0010                movea.l    A1, [A6 + 0x10]
000003AE  2269 0088                movea.l    A1, [A1 + 0x88]
000003B2  D0E9 00A8                add.w      A0, [A1 + 0xA8]
000003B6  2F08                     move.l     -[A7], A0
000003B8  206E 0010                movea.l    A0, [A6 + 0x10]
000003BC  2068 0088                movea.l    A0, [A0 + 0x88]
000003C0  2268 00AC                movea.l    A1, [A0 + 0xAC]
000003C4  4E91                     jsr        [A1]
000003C6  266E 0010                movea.l    A3, [A6 + 0x10]
000003CA  204B                     movea.l    A0, A3
000003CC  226B 0060                movea.l    A1, [A3 + 0x60]
000003D0  D0E9 00E8                add.w      A0, [A1 + 0xE8]
000003D4  2F08                     move.l     -[A7], A0
000003D6  2049                     movea.l    A0, A1
000003D8  2268 00EC                movea.l    A1, [A0 + 0xEC]
000003DC  4E91                     jsr        [A1]
000003DE  4FEF 0010                lea.l      A7, [A7 + 0x10]
000003E2  6014                     bra        +0x16 /* 000003F8 */
label000003E4:
000003E4  2F2E 0014                move.l     -[A7], [A6 + 0x14]
000003E8  2F2E 0010                move.l     -[A7], [A6 + 0x10]
000003EC  2F05                     move.l     -[A7], D5
000003EE  2F0C                     move.l     -[A7], A4
000003F0  4EAD 118A                jsr        [A5 + 0x118A /* export_557, CODE:26 @ 000021AC */]
000003F4  4FEF 0010                lea.l      A7, [A7 + 0x10]
label000003F8:
000003F8  4CEE 18E0 FFEC           movem.l    D5,D6,D7,A3,A4, [A6 - 0x14]
000003FE  4E5E                     unlink     A6
00000400  4E75                     rts
00000402  8028 4861 7342 6565 6... dc.b       "HasBeenAChange__10cBuyWindowFlP6cAgentPc"
export_378:
0000042E  4E56 0000                link       A6, 0
00000432  2F0C                     move.l     -[A7], A4
00000434  286E 0008                movea.l    A4, [A6 + 0x8]
00000438  204C                     movea.l    A0, A4
0000043A  226C 0060                movea.l    A1, [A4 + 0x60]
0000043E  D0E9 0110                add.w      A0, [A1 + 0x110]
00000442  2F08                     move.l     -[A7], A0
00000444  2049                     movea.l    A0, A1
00000446  2268 0114                movea.l    A1, [A0 + 0x114]
0000044A  4E91                     jsr        [A1]
0000044C  2F0C                     move.l     -[A7], A4
0000044E  2F3C 574E 4435           move.l     -[A7], 0x574E4435 /* 'WND5' */
00000454  204C                     movea.l    A0, A4
00000456  226C 0060                movea.l    A1, [A4 + 0x60]
0000045A  D0E9 0060                add.w      A0, [A1 + 0x60]
0000045E  2F08                     move.l     -[A7], A0
00000460  2049                     movea.l    A0, A1
00000462  2268 0064                movea.l    A1, [A0 + 0x64]
00000466  4E91                     jsr        [A1]
00000468  7001                     moveq.l    D0, 0x01
0000046A  286E FFFC                movea.l    A4, [A6 - 0x4]
0000046E  4E5E                     unlink     A6
00000470  4E75                     rts
00000472  9543 6C6F 7365 5F5F 3... dc.b       "Close__10cBuyWindowFv"
export_379:
fn0000048A:
0000048A  4E56 0000                link       A6, 0
0000048E  48E7 0118                movem.l    -[A7], D7,A3,A4
00000492  204D                     movea.l    A0, A5
00000494  D1FC FFFF 143C           add.l      A0, 0xFFFF143C
0000049A  47D0                     lea.l      A3, [A0]
0000049C  3E2E 000E                move.w     D7, [A6 + 0xE]
000004A0  286E 0008                movea.l    A4, [A6 + 0x8]
000004A4  BE6C 0196                cmp.w      D7, [A4 + 0x196]
000004A8  6C08                     bge        +0xA /* 000004B2 */
000004AA  3E2C 0198                move.w     D7, [A4 + 0x198]
000004AE  5347                     subq.w     D7, 1
000004B0  600A                     bra        +0xC /* 000004BC */
label000004B2:
000004B2  BE6C 0198                cmp.w      D7, [A4 + 0x198]
000004B6  6D04                     blt        +0x6 /* 000004BC */
000004B8  3E2C 0196                move.w     D7, [A4 + 0x196]
label000004BC:
000004BC  3007                     move.w     D0, D7
000004BE  3940 019A                move.w     [A4 + 0x19A], D0
000004C2  3973 0200 019C           move.w     [A4 + 0x19C], [A3 + D0.w * 2]
000004C8  302C 019C                move.w     D0, [A4 + 0x19C]
000004CC  48C0                     ext.l      D0
000004CE  2F00                     move.l     -[A7], D0
000004D0  4EAD 0502                jsr        [A5 + 0x502 /* export_156, CODE:9 @ 000009B4 */]
000004D4  2940 0192                move.l     [A4 + 0x192], D0
000004D8  2040                     movea.l    A0, D0
000004DA  7000                     moveq.l    D0, 0x00
000004DC  1010                     move.b     D0, [A0]
000004DE  2F00                     move.l     -[A7], D0
000004E0  2F0C                     move.l     -[A7], A4
000004E2  4EBA 013C                jsr        [PC + 0x13C /* 00000620 */]
000004E6  206C 0192                movea.l    A0, [A4 + 0x192]
000004EA  1028 000B                move.b     D0, [A0 + 0xB]
000004EE  49C0                     lea.l      A4, D0
000004F0  2F00                     move.l     -[A7], D0
000004F2  2F0C                     move.l     -[A7], A4
000004F4  4EBA 02AC                jsr        [PC + 0x2AC /* 000007A2 */]
000004F8  2F0C                     move.l     -[A7], A4
000004FA  4EBA 0610                jsr        [PC + 0x610 /* 00000B0C */]
000004FE  2F2C 0192                move.l     -[A7], [A4 + 0x192]
00000502  2F2C 019E                move.l     -[A7], [A4 + 0x19E]
00000506  4EBA 0A3C                jsr        [PC + 0xA3C /* 00000F44 */]
0000050A  4CEE 1880 FFF4           movem.l    D7,A3,A4, [A6 - 0xC]
00000510  4E5E                     unlink     A6
00000512  4E75                     rts
00000514  9753 6574 5061 6765 5... dc.b       "SetPage__10cBuyWindowFs"
fn0000052E:
0000052E  4E56 0000                link       A6, 0
00000532  48E7 0018                movem.l    -[A7], A3,A4
00000536  204D                     movea.l    A0, A5
00000538  D1FC FFFF 1490           add.l      A0, 0xFFFF1490
0000053E  47D0                     lea.l      A3, [A0]
00000540  286E 0008                movea.l    A4, [A6 + 0x8]
00000544  302E 000E                move.w     D0, [A6 + 0xE]
00000548  6B00 0092                bmi        +0x94 /* 000005DC */
0000054C  0C40 0004                cmpi.w     D0, 0x4
00000550  6E00 008A                bgt        +0x8C /* 000005DC */
00000554  D040                     add.w      D0, D0
00000556  303B 0006                move.w     D0, [PC + D0.w + 0x6]
0000055A  4EFB 0000                jmp        [PC + D0.w]
0000055E  0080 000C 002A           ori.l      D0, 0xC002A
00000564  0044 0062                ori.w      D4, 0x62 /* 'b' */
00000568  396B 0002 0196           move.w     [A4 + 0x196], [A3 + 0x2]
0000056E  396B 0004 0198           move.w     [A4 + 0x198], [A3 + 0x4]
00000574  302B 0002                move.w     D0, [A3 + 0x2]
00000578  48C0                     ext.l      D0
0000057A  2F00                     move.l     -[A7], D0
0000057C  2F0C                     move.l     -[A7], A4
0000057E  4EBA FF0A                jsr        [PC - 0xF6 /* 0000048A */]
00000582  504F                     addq.w     A7, 8
00000584  6072                     bra        +0x74 /* 000005F8 */
00000586  3953 0196                move.w     [A4 + 0x196], [A3]
0000058A  396B 0002 0198           move.w     [A4 + 0x198], [A3 + 0x2]
00000590  3013                     move.w     D0, [A3]
00000592  48C0                     ext.l      D0
00000594  2F00                     move.l     -[A7], D0
00000596  2F0C                     move.l     -[A7], A4
00000598  4EBA FEF0                jsr        [PC - 0x110 /* 0000048A */]
0000059C  504F                     addq.w     A7, 8
0000059E  6058                     bra        +0x5A /* 000005F8 */
000005A0  396B 0006 0196           move.w     [A4 + 0x196], [A3 + 0x6]
000005A6  396B 0008 0198           move.w     [A4 + 0x198], [A3 + 0x8]
000005AC  302B 0006                move.w     D0, [A3 + 0x6]
000005B0  48C0                     ext.l      D0
000005B2  2F00                     move.l     -[A7], D0
000005B4  2F0C                     move.l     -[A7], A4
000005B6  4EBA FED2                jsr        [PC - 0x12E /* 0000048A */]
000005BA  504F                     addq.w     A7, 8
000005BC  603A                     bra        +0x3C /* 000005F8 */
000005BE  396B 0008 0196           move.w     [A4 + 0x196], [A3 + 0x8]
000005C4  396B 000A 0198           move.w     [A4 + 0x198], [A3 + 0xA]
000005CA  302B 000A                move.w     D0, [A3 + 0xA]
000005CE  48C0                     ext.l      D0
000005D0  2F00                     move.l     -[A7], D0
000005D2  2F0C                     move.l     -[A7], A4
000005D4  4EBA FEB4                jsr        [PC - 0x14C /* 0000048A */]
000005D8  504F                     addq.w     A7, 8
000005DA  601C                     bra        +0x1E /* 000005F8 */
label000005DC:
000005DC  396B 0004 0196           move.w     [A4 + 0x196], [A3 + 0x4]
000005E2  396B 0006 0198           move.w     [A4 + 0x198], [A3 + 0x6]
000005E8  302B 0004                move.w     D0, [A3 + 0x4]
000005EC  48C0                     ext.l      D0
000005EE  2F00                     move.l     -[A7], D0
000005F0  2F0C                     move.l     -[A7], A4
000005F2  4EBA FE96                jsr        [PC - 0x16A /* 0000048A */]
000005F6  504F                     addq.w     A7, 8
label000005F8:
000005F8  4CEE 1800 FFF8           movem.l    A3,A4, [A6 - 0x8]
000005FE  4E5E                     unlink     A6
00000600  4E75                     rts
00000602  9A53 6574 4368 6170 7... dc.b       "SetChapter__10cBuyWindowFs"
fn00000620:
00000620  4E56 FEF0                link       A6, -0x0110
00000624  48E7 1F18                movem.l    -[A7], D3,D4,D5,D6,D7,A3,A4
00000628  47EE FF7A                lea.l      A3, [A6 - 0x86]
0000062C  286E 0008                movea.l    A4, [A6 + 0x8]
00000630  598F                     subq.l     A7, 4
00000632  2F3C 5369 6D44           move.l     -[A7], 0x53696D44 /* 'SimD' */
00000638  204D                     movea.l    A0, A5
0000063A  D1FC FFFF 0F02           add.l      A0, 0xFFFF0F02
00000640  4850                     pea.l      [A0]
00000642  A9A1                     syscall    GetNamedResource
00000644  205F                     movea.l    A0, [A7]+
00000646  2D48 FEF0                move.l     [A6 - 0x110], A0
0000064A  302E 000E                move.w     D0, [A6 + 0xE]
0000064E  48C0                     ext.l      D0
00000650  EF80                     asl        D0, 7
00000652  D090                     add.l      D0, [A0]
00000654  2D40 FEF4                move.l     [A6 - 0x10C], D0
00000658  4247                     clr.w      D7
0000065A  363C 0080                move.w     D3, 0x80
0000065E  6010                     bra        +0x12 /* 00000670 */
label00000660:
00000660  206E FEF4                movea.l    A0, [A6 - 0x10C]
00000664  1790 7000                move.b     [A3 + D7.w], [A0]
00000668  3007                     move.w     D0, D7
0000066A  5247                     addq.w     D7, 1
0000066C  52AE FEF4                addq.l     [A6 - 0x10C], 1
label00000670:
00000670  B647                     cmp.w      D3, D7
00000672  6EEC                     bgt        -0x12 /* 00000660 */
00000674  422B 0080                clr.b      [A3 + 0x80]
00000678  2F2E FEF0                move.l     -[A7], [A6 - 0x110]
0000067C  A9A3                     syscall    ReleaseResource
0000067E  4246                     clr.w      D6
00000680  7801                     moveq.l    D4, 0x01
00000682  4205                     clr.b      D5
00000684  41EE FEF8                lea.l      A0, [A6 - 0x108]
00000688  2D48 FFFC                move.l     [A6 - 0x4], A0
0000068C  4247                     clr.w      D7
0000068E  363C 0080                move.w     D3, 0x80
label00000692:
00000692  4A04                     tst.b      D4
00000694  674C                     beq        +0x4E /* 000006E2 */
00000696  707E                     moveq.l    D0, 0x7E
00000698  B033 7000                cmp.b      D0, [A3 + D7.w]
0000069C  661C                     bne        +0x1E /* 000006BA */
0000069E  3006                     move.w     D0, D6
000006A0  5246                     addq.w     D6, 1
000006A2  41EE FEF8                lea.l      A0, [A6 - 0x108]
000006A6  11BC 000D 0000           move.b     [A0 + D0.w], 0xD /* '\r' */
000006AC  3006                     move.w     D0, D6
000006AE  5246                     addq.w     D6, 1
000006B0  11BC 000D 0000           move.b     [A0 + D0.w], 0xD /* '\r' */
000006B6  4204                     clr.b      D4
000006B8  6076                     bra        +0x78 /* 00000730 */
label000006BA:
000006BA  700D                     moveq.l    D0, 0x0D
000006BC  B033 7000                cmp.b      D0, [A3 + D7.w]
000006C0  676E                     beq        +0x70 /* 00000730 */
000006C2  700A                     moveq.l    D0, 0x0A
000006C4  B033 7000                cmp.b      D0, [A3 + D7.w]
000006C8  6766                     beq        +0x68 /* 00000730 */
000006CA  7040                     moveq.l    D0, 0x40
000006CC  B033 7000                cmp.b      D0, [A3 + D7.w]
000006D0  675E                     beq        +0x60 /* 00000730 */
000006D2  3006                     move.w     D0, D6
000006D4  5246                     addq.w     D6, 1
000006D6  41EE FEF8                lea.l      A0, [A6 - 0x108]
000006DA  11B3 7000 0000           move.b     [A0 + D0.w], [A3 + D7.w]
000006E0  604E                     bra        +0x50 /* 00000730 */
label000006E2:
000006E2  707E                     moveq.l    D0, 0x7E
000006E4  B033 7000                cmp.b      D0, [A3 + D7.w]
000006E8  6732                     beq        +0x34 /* 0000071C */
000006EA  7040                     moveq.l    D0, 0x40
000006EC  B033 7000                cmp.b      D0, [A3 + D7.w]
000006F0  672A                     beq        +0x2C /* 0000071C */
000006F2  700D                     moveq.l    D0, 0x0D
000006F4  B033 7000                cmp.b      D0, [A3 + D7.w]
000006F8  6722                     beq        +0x24 /* 0000071C */
000006FA  700A                     moveq.l    D0, 0x0A
000006FC  B033 7000                cmp.b      D0, [A3 + D7.w]
00000700  671A                     beq        +0x1C /* 0000071C */
00000702  7020                     moveq.l    D0, 0x20
00000704  B033 7000                cmp.b      D0, [A3 + D7.w]
00000708  6712                     beq        +0x14 /* 0000071C */
0000070A  3006                     move.w     D0, D6
0000070C  5246                     addq.w     D6, 1
0000070E  41EE FEF8                lea.l      A0, [A6 - 0x108]
00000712  11B3 7000 0000           move.b     [A0 + D0.w], [A3 + D7.w]
00000718  4205                     clr.b      D5
0000071A  6014                     bra        +0x16 /* 00000730 */
label0000071C:
0000071C  4A05                     tst.b      D5
0000071E  6610                     bne        +0x12 /* 00000730 */
00000720  3006                     move.w     D0, D6
00000722  5246                     addq.w     D6, 1
00000724  41EE FEF8                lea.l      A0, [A6 - 0x108]
00000728  11BC 0020 0000           move.b     [A0 + D0.w], 0x20 /* ' ' */
0000072E  7A01                     moveq.l    D5, 0x01
label00000730:
00000730  3007                     move.w     D0, D7
00000732  5247                     addq.w     D7, 1
00000734  B647                     cmp.w      D3, D7
00000736  6E00 FF5A                bgt        -0xA4 /* 00000692 */
0000073A  48C6                     ext.l      D6
0000073C  41EE FEF7                lea.l      A0, [A6 - 0x109]
00000740  4230 6000                clr.b      [A0 + D6.w]
00000744  226C 01AE                movea.l    A1, [A4 + 0x1AE]
00000748  47E9 01C4                lea.l      A3, [A1 + 0x1C4]
0000074C  7801                     moveq.l    D4, 0x01
0000074E  2F0B                     move.l     -[A7], A3
00000750  4EAD 1782                jsr        [A5 + 0x1782 /* export_748, CODE:32 @ 00004E1E */]
00000754  1C04                     move.b     D6, D4
00000756  7000                     moveq.l    D0, 0x00
00000758  1006                     move.b     D0, D6
0000075A  2F00                     move.l     -[A7], D0
0000075C  2F2B 0014                move.l     -[A7], [A3 + 0x14]
00000760  486E FEF8                pea.l      [A6 - 0x108]
00000764  2F0B                     move.l     -[A7], A3
00000766  4EAD 178A                jsr        [A5 + 0x178A /* export_749, CODE:32 @ 00004E80 */]
0000076A  2F2C 01AE                move.l     -[A7], [A4 + 0x1AE]
0000076E  4EAD 1F52                jsr        [A5 + 0x1F52 /* export_998, CODE:37 @ 000014C8 */]
00000772  4FEF 0018                lea.l      A7, [A7 + 0x18]
00000776  4CEE 18F8 FED4           movem.l    D3,D4,D5,D6,D7,A3,A4, [A6 - 0x12C]
0000077C  4E5E                     unlink     A6
0000077E  4E75                     rts
00000780  9F52 6561 6444 6573 6... dc.b       "ReadDescription__10cBuyWindowFs"
fn000007A2:
000007A2  4E56 0000                link       A6, 0
000007A6  48E7 0308                movem.l    -[A7], D6,D7,A4
000007AA  3C2E 000E                move.w     D6, [A6 + 0xE]
000007AE  286E 0008                movea.l    A4, [A6 + 0x8]
000007B2  4A46                     tst.w      D6
000007B4  6D18                     blt        +0x1A /* 000007CE */
000007B6  0C46 0010                cmpi.w     D6, 0x10
000007BA  6E12                     bgt        +0x14 /* 000007CE */
000007BC  2006                     move.l     D0, D6
000007BE  D040                     add.w      D0, D0
000007C0  204D                     movea.l    A0, A5
000007C2  D1FC FFFF 77B2           add.l      A0, 0xFFFF77B2
000007C8  3E30 0000                move.w     D7, [A0 + D0.w]
000007CC  6006                     bra        +0x8 /* 000007D4 */
label000007CE:
000007CE  3E06                     move.w     D7, D6
000007D0  DE7C 03E8                add.w      D7, 0x3E8
label000007D4:
000007D4  0C47 03E8                cmpi.w     D7, 0x3E8
000007D8  6D06                     blt        +0x8 /* 000007E0 */
000007DA  0C47 07D0                cmpi.w     D7, 0x7D0
000007DE  6F04                     ble        +0x6 /* 000007E4 */
label000007E0:
000007E0  3E3C 03E8                move.w     D7, 0x3E8
label000007E4:
000007E4  48C7                     ext.l      D7
000007E6  2F07                     move.l     -[A7], D7
000007E8  2F2C 01A2                move.l     -[A7], [A4 + 0x1A2]
000007EC  4EAD 199A                jsr        [A5 + 0x199A /* export_815, CODE:33 @ 00002366 */]
000007F0  2F0C                     move.l     -[A7], A4
000007F2  4EAD 11E2                jsr        [A5 + 0x11E2 /* export_568, CODE:26 @ 000031FA */]
000007F6  206C 01A2                movea.l    A0, [A4 + 0x1A2]
000007FA  2248                     movea.l    A1, A0
000007FC  2269 0060                movea.l    A1, [A1 + 0x60]
00000800  D0E9 0070                add.w      A0, [A1 + 0x70]
00000804  2F08                     move.l     -[A7], A0
00000806  206C 01A2                movea.l    A0, [A4 + 0x1A2]
0000080A  2068 0060                movea.l    A0, [A0 + 0x60]
0000080E  2268 0074                movea.l    A1, [A0 + 0x74]
00000812  4E91                     jsr        [A1]
00000814  2F0C                     move.l     -[A7], A4
00000816  4EAD 11EA                jsr        [A5 + 0x11EA /* export_569, CODE:26 @ 00003268 */]
0000081A  4CEE 10C0 FFF4           movem.l    D6,D7,A4, [A6 - 0xC]
00000820  4E5E                     unlink     A6
00000822  4E75                     rts
00000824  9A53 6574 5069 6374 7... dc.b       "SetPicture__10cBuyWindowFs"
export_380:
00000842  4E56 0000                link       A6, 0
00000846  48E7 0018                movem.l    -[A7], A3,A4
0000084A  286E 0008                movea.l    A4, [A6 + 0x8]
0000084E  302E 000E                move.w     D0, [A6 + 0xE]
00000852  5D40                     subq.w     D0, 6
00000854  6B00 01A4                bmi        +0x1A6 /* 000009FA */
00000858  0C40 0006                cmpi.w     D0, 0x6
0000085C  6E00 019C                bgt        +0x19E /* 000009FA */
00000860  D040                     add.w      D0, D0
00000862  303B 0006                move.w     D0, [PC + D0.w + 0x6]
00000866  4EFB 0000                jmp        [PC + D0.w]
0000086A  0010 0080                ori.b      [A0], 0x80
0000086E  0192                     bclr       [A2], D0
00000870  0192                     bclr       [A2], D0
00000872  00B6 00FE 0144 4878      ori.l      [A6 + D4 + 0x78], 0xFE0144
0000087A  040A 2F0C                subi.b     A2, 0xC
0000087E  7000                     moveq.l    D0, 0x00
00000880  2F00                     move.l     -[A7], D0
00000882  2F00                     move.l     -[A7], D0
00000884  4EAD 1982                jsr        [A5 + 0x1982 /* export_812, CODE:33 @ 0000205A */]
00000888  2940 01A2                move.l     [A4 + 0x1A2], D0
0000088C  2040                     movea.l    A0, D0
0000088E  47E8 0086                lea.l      A3, [A0 + 0x86]
00000892  206E 0010                movea.l    A0, [A6 + 0x10]
00000896  3010                     move.w     D0, [A0]
00000898  906B 0010                sub.w      D0, [A3 + 0x10]
0000089C  48C0                     ext.l      D0
0000089E  2F00                     move.l     -[A7], D0
000008A0  206E 0010                movea.l    A0, [A6 + 0x10]
000008A4  3028 0002                move.w     D0, [A0 + 0x2]
000008A8  906B 0012                sub.w      D0, [A3 + 0x12]
000008AC  48C0                     ext.l      D0
000008AE  2F00                     move.l     -[A7], D0
000008B0  204B                     movea.l    A0, A3
000008B2  226B 0008                movea.l    A1, [A3 + 0x8]
000008B6  D0E9 0040                add.w      A0, [A1 + 0x40]
000008BA  2F08                     move.l     -[A7], A0
000008BC  2049                     movea.l    A0, A1
000008BE  2268 0044                movea.l    A1, [A0 + 0x44]
000008C2  4E91                     jsr        [A1]
000008C4  4AAC 01A2                tst.l      [A4 + 0x1A2]
000008C8  670C                     beq        +0xE /* 000008D6 */
000008CA  202C 01A2                move.l     D0, [A4 + 0x1A2]
000008CE  D0BC 0000 0086           add.l      D0, 0x86
000008D4  6002                     bra        +0x4 /* 000008D8 */
label000008D6:
000008D6  7000                     moveq.l    D0, 0x00
label000008D8:
000008D8  2F00                     move.l     -[A7], D0
000008DA  2F0C                     move.l     -[A7], A4
000008DC  4EAD 11F2                jsr        [A5 + 0x11F2 /* export_570, CODE:26 @ 000032DA */]
000008E0  4FEF 0024                lea.l      A7, [A7 + 0x24]
000008E4  6000 0114                bra        +0x116 /* 000009FA */
000008E8  2F2E 0010                move.l     -[A7], [A6 + 0x10]
000008EC  2F0C                     move.l     -[A7], A4
000008EE  2F0C                     move.l     -[A7], A4
000008F0  7000                     moveq.l    D0, 0x00
000008F2  2F00                     move.l     -[A7], D0
000008F4  2F00                     move.l     -[A7], D0
000008F6  4EBA 03C0                jsr        [PC + 0x3C0 /* 00000CB8 */]
000008FA  2940 019E                move.l     [A4 + 0x19E], D0
000008FE  670C                     beq        +0xE /* 0000090C */
00000900  202C 019E                move.l     D0, [A4 + 0x19E]
00000904  D0BC 0000 0080           add.l      D0, 0x80
0000090A  6002                     bra        +0x4 /* 0000090E */
label0000090C:
0000090C  7000                     moveq.l    D0, 0x00
label0000090E:
0000090E  2F00                     move.l     -[A7], D0
00000910  2F0C                     move.l     -[A7], A4
00000912  4EAD 11F2                jsr        [A5 + 0x11F2 /* export_570, CODE:26 @ 000032DA */]
00000916  4FEF 001C                lea.l      A7, [A7 + 0x1C]
0000091A  6000 00DE                bra        +0xE0 /* 000009FA */
0000091E  7000                     moveq.l    D0, 0x00
00000920  2F00                     move.l     -[A7], D0
00000922  7201                     moveq.l    D1, 0x01
00000924  2F01                     move.l     -[A7], D1
00000926  7009                     moveq.l    D0, 0x09
00000928  2F00                     move.l     -[A7], D0
0000092A  7003                     moveq.l    D0, 0x03
0000092C  2F00                     move.l     -[A7], D0
0000092E  7000                     moveq.l    D0, 0x00
00000930  2F00                     move.l     -[A7], D0
00000932  2F2E 0010                move.l     -[A7], [A6 + 0x10]
00000936  2F0C                     move.l     -[A7], A4
00000938  2F0C                     move.l     -[A7], A4
0000093A  2F00                     move.l     -[A7], D0
0000093C  2F00                     move.l     -[A7], D0
0000093E  4EAD 1A22                jsr        [A5 + 0x1A22 /* export_832, CODE:34 @ 00000ED0 */]
00000942  2940 01A6                move.l     [A4 + 0x1A6], D0
00000946  670C                     beq        +0xE /* 00000954 */
00000948  202C 01A6                move.l     D0, [A4 + 0x1A6]
0000094C  D0BC 0000 0080           add.l      D0, 0x80
00000952  6002                     bra        +0x4 /* 00000956 */
label00000954:
00000954  7000                     moveq.l    D0, 0x00
label00000956:
00000956  2F00                     move.l     -[A7], D0
00000958  2F0C                     move.l     -[A7], A4
0000095A  4EAD 11F2                jsr        [A5 + 0x11F2 /* export_570, CODE:26 @ 000032DA */]
0000095E  4FEF 0030                lea.l      A7, [A7 + 0x30]
00000962  6000 0096                bra        +0x98 /* 000009FA */
00000966  7000                     moveq.l    D0, 0x00
00000968  2F00                     move.l     -[A7], D0
0000096A  7201                     moveq.l    D1, 0x01
0000096C  2F01                     move.l     -[A7], D1
0000096E  7009                     moveq.l    D0, 0x09
00000970  2F00                     move.l     -[A7], D0
00000972  7003                     moveq.l    D0, 0x03
00000974  2F00                     move.l     -[A7], D0
00000976  7000                     moveq.l    D0, 0x00
00000978  2F00                     move.l     -[A7], D0
0000097A  2F2E 0010                move.l     -[A7], [A6 + 0x10]
0000097E  2F0C                     move.l     -[A7], A4
00000980  2F0C                     move.l     -[A7], A4
00000982  2F00                     move.l     -[A7], D0
00000984  2F00                     move.l     -[A7], D0
00000986  4EAD 1A22                jsr        [A5 + 0x1A22 /* export_832, CODE:34 @ 00000ED0 */]
0000098A  2940 01AA                move.l     [A4 + 0x1AA], D0
0000098E  670C                     beq        +0xE /* 0000099C */
00000990  202C 01AA                move.l     D0, [A4 + 0x1AA]
00000994  D0BC 0000 0080           add.l      D0, 0x80
0000099A  6002                     bra        +0x4 /* 0000099E */
label0000099C:
0000099C  7000                     moveq.l    D0, 0x00
label0000099E:
0000099E  2F00                     move.l     -[A7], D0
000009A0  2F0C                     move.l     -[A7], A4
000009A2  4EAD 11F2                jsr        [A5 + 0x11F2 /* export_570, CODE:26 @ 000032DA */]
000009A6  4FEF 0030                lea.l      A7, [A7 + 0x30]
000009AA  604E                     bra        +0x50 /* 000009FA */
000009AC  7000                     moveq.l    D0, 0x00
000009AE  2F00                     move.l     -[A7], D0
000009B0  7201                     moveq.l    D1, 0x01
000009B2  2F01                     move.l     -[A7], D1
000009B4  7009                     moveq.l    D0, 0x09
000009B6  2F00                     move.l     -[A7], D0
000009B8  7003                     moveq.l    D0, 0x03
000009BA  2F00                     move.l     -[A7], D0
000009BC  7000                     moveq.l    D0, 0x00
000009BE  2F00                     move.l     -[A7], D0
000009C0  2F00                     move.l     -[A7], D0
000009C2  7004                     moveq.l    D0, 0x04
000009C4  2F00                     move.l     -[A7], D0
000009C6  2F00                     move.l     -[A7], D0
000009C8  2F2E 0010                move.l     -[A7], [A6 + 0x10]
000009CC  2F0C                     move.l     -[A7], A4
000009CE  2F0C                     move.l     -[A7], A4
000009D0  7000                     moveq.l    D0, 0x00
000009D2  2F00                     move.l     -[A7], D0
000009D4  2F00                     move.l     -[A7], D0
000009D6  4EAD 016A                jsr        [A5 + 0x16A /* export_41, CODE:1 @ 00002828 */]
000009DA  2940 01AE                move.l     [A4 + 0x1AE], D0
000009DE  670C                     beq        +0xE /* 000009EC */
000009E0  202C 01AE                move.l     D0, [A4 + 0x1AE]
000009E4  D0BC 0000 0080           add.l      D0, 0x80
000009EA  6002                     bra        +0x4 /* 000009EE */
label000009EC:
000009EC  7000                     moveq.l    D0, 0x00
label000009EE:
000009EE  2F00                     move.l     -[A7], D0
000009F0  2F0C                     move.l     -[A7], A4
000009F2  4EAD 11F2                jsr        [A5 + 0x11F2 /* export_570, CODE:26 @ 000032DA */]
000009F6  4FEF 003C                lea.l      A7, [A7 + 0x3C]
label000009FA:
000009FA  4CEE 1800 FFF8           movem.l    A3,A4, [A6 - 0x8]
00000A00  4E5E                     unlink     A6
00000A02  4E75                     rts
00000A04  8021 4E65 7755 7365 7... dc.b       "NewUserItem__10cBuyWindowFsR4Rect"
fn00000A2A:
00000A2A  4E56 0000                link       A6, 0
00000A2E  2F0C                     move.l     -[A7], A4
00000A30  286E 0008                movea.l    A4, [A6 + 0x8]
00000A34  7008                     moveq.l    D0, 0x08
00000A36  B06C 019C                cmp.w      D0, [A4 + 0x19C]
00000A3A  660C                     bne        +0xE /* 00000A48 */
00000A3C  4EAD 08E2                jsr        [A5 + 0x8E2 /* export_280, CODE:15 @ 00003092 */]
00000A40  4EAD 0312                jsr        [A5 + 0x312 /* export_94, CODE:5 @ 00000362 */]
00000A44  6000 00A6                bra        +0xA8 /* 00000AEC */
label00000A48:
00000A48  206C 0192                movea.l    A0, [A4 + 0x192]
00000A4C  1028 0008                move.b     D0, [A0 + 0x8]
00000A50  4880                     ext.w      D0
00000A52  204D                     movea.l    A0, A5
00000A54  D1FC FFFE 8AD6           add.l      A0, 0xFFFE8AD6
00000A5A  3080                     move.w     [A0], D0
00000A5C  206C 0192                movea.l    A0, [A4 + 0x192]
00000A60  1028 0009                move.b     D0, [A0 + 0x9]
00000A64  4880                     ext.w      D0
00000A66  204D                     movea.l    A0, A5
00000A68  D1FC FFFE 8AD4           add.l      A0, 0xFFFE8AD4
00000A6E  3080                     move.w     [A0], D0
00000A70  204D                     movea.l    A0, A5
00000A72  D1FC FFFE 8AD6           add.l      A0, 0xFFFE8AD6
00000A78  3010                     move.w     D0, [A0]
00000A7A  48C0                     ext.l      D0
00000A7C  E988                     lsl        D0, 4
00000A7E  204D                     movea.l    A0, A5
00000A80  D1FC FFFE 8ADA           add.l      A0, 0xFFFE8ADA
00000A86  3080                     move.w     [A0], D0
00000A88  204D                     movea.l    A0, A5
00000A8A  D1FC FFFE 8AD4           add.l      A0, 0xFFFE8AD4
00000A90  3010                     move.w     D0, [A0]
00000A92  48C0                     ext.l      D0
00000A94  E988                     lsl        D0, 4
00000A96  204D                     movea.l    A0, A5
00000A98  D1FC FFFE 8AD8           add.l      A0, 0xFFFE8AD8
00000A9E  3080                     move.w     [A0], D0
00000AA0  204D                     movea.l    A0, A5
00000AA2  D1FC FFFD CEBA           add.l      A0, 0xFFFDCEBA
00000AA8  20AC 0192                move.l     [A0], [A4 + 0x192]
00000AAC  206C 0192                movea.l    A0, [A4 + 0x192]
00000AB0  7000                     moveq.l    D0, 0x00
00000AB2  1010                     move.b     D0, [A0]
00000AB4  D040                     add.w      D0, D0
00000AB6  204D                     movea.l    A0, A5
00000AB8  D1FC FFFF 7942           add.l      A0, 0xFFFF7942
00000ABE  224D                     movea.l    A1, A5
00000AC0  D3FC FFFE 8AE2           add.l      A1, 0xFFFE8AE2
00000AC6  32B0 0000                move.w     [A1], [A0 + D0.w]
00000ACA  204D                     movea.l    A0, A5
00000ACC  D1FC FFFE 8AE6           add.l      A0, 0xFFFE8AE6
00000AD2  4210                     clr.b      [A0]
00000AD4  7000                     moveq.l    D0, 0x00
00000AD6  2F00                     move.l     -[A7], D0
00000AD8  2F0C                     move.l     -[A7], A4
00000ADA  2F3C 5470 4279           move.l     -[A7], 0x54704279 /* 'TpBy' */
00000AE0  4EAD 189A                jsr        [A5 + 0x189A /* export_783, CODE:32 @ 000062EE */]
00000AE4  4EAD 0312                jsr        [A5 + 0x312 /* export_94, CODE:5 @ 00000362 */]
00000AE8  4FEF 000C                lea.l      A7, [A7 + 0xC]
label00000AEC:
00000AEC  286E FFFC                movea.l    A4, [A6 - 0x4]
00000AF0  4E5E                     unlink     A6
00000AF2  4E75                     rts
00000AF4  9544 6F42 7579 5F5F 3... dc.b       "DoBuy__10cBuyWindowFv"
fn00000B0C:
00000B0C  4E56 0000                link       A6, 0
00000B10  48E7 0118                movem.l    -[A7], D7,A3,A4
00000B14  286E 0008                movea.l    A4, [A6 + 0x8]
00000B18  206C 01A6                movea.l    A0, [A4 + 0x1A6]
00000B1C  47E8 012A                lea.l      A3, [A0 + 0x12A]
00000B20  2F0B                     move.l     -[A7], A3
00000B22  4EAD 1782                jsr        [A5 + 0x1782 /* export_748, CODE:32 @ 00004E1E */]
00000B26  4207                     clr.b      D7
00000B28  7000                     moveq.l    D0, 0x00
00000B2A  1007                     move.b     D0, D7
00000B2C  2F00                     move.l     -[A7], D0
00000B2E  2F2B 0014                move.l     -[A7], [A3 + 0x14]
00000B32  204D                     movea.l    A0, A5
00000B34  D1FC FFFF 0F10           add.l      A0, 0xFFFF0F10
00000B3A  4850                     pea.l      [A0]
00000B3C  2F0B                     move.l     -[A7], A3
00000B3E  4EAD 178A                jsr        [A5 + 0x178A /* export_749, CODE:32 @ 00004E80 */]
00000B42  206C 0192                movea.l    A0, [A4 + 0x192]
00000B46  7000                     moveq.l    D0, 0x00
00000B48  3028 0006                move.w     D0, [A0 + 0x6]
00000B4C  2F00                     move.l     -[A7], D0
00000B4E  206C 01A6                movea.l    A0, [A4 + 0x1A6]
00000B52  4868 012A                pea.l      [A0 + 0x12A]
00000B56  4EAD 17FA                jsr        [A5 + 0x17FA /* export_763, CODE:32 @ 000057BC */]
00000B5A  2F2C 01A6                move.l     -[A7], [A4 + 0x1A6]
00000B5E  4EAD 1F52                jsr        [A5 + 0x1F52 /* export_998, CODE:37 @ 000014C8 */]
00000B62  206C 01AA                movea.l    A0, [A4 + 0x1AA]
00000B66  47E8 012A                lea.l      A3, [A0 + 0x12A]
00000B6A  2F0B                     move.l     -[A7], A3
00000B6C  4EAD 1782                jsr        [A5 + 0x1782 /* export_748, CODE:32 @ 00004E1E */]
00000B70  4207                     clr.b      D7
00000B72  7000                     moveq.l    D0, 0x00
00000B74  1007                     move.b     D0, D7
00000B76  2F00                     move.l     -[A7], D0
00000B78  2F2B 0014                move.l     -[A7], [A3 + 0x14]
00000B7C  204D                     movea.l    A0, A5
00000B7E  D1FC FFFF 0F1A           add.l      A0, 0xFFFF0F1A
00000B84  4850                     pea.l      [A0]
00000B86  2F0B                     move.l     -[A7], A3
00000B88  4EAD 178A                jsr        [A5 + 0x178A /* export_749, CODE:32 @ 00004E80 */]
00000B8C  206C 0192                movea.l    A0, [A4 + 0x192]
00000B90  7000                     moveq.l    D0, 0x00
00000B92  3028 0004                move.w     D0, [A0 + 0x4]
00000B96  2F00                     move.l     -[A7], D0
00000B98  206C 01AA                movea.l    A0, [A4 + 0x1AA]
00000B9C  4868 012A                pea.l      [A0 + 0x12A]
00000BA0  4EAD 17FA                jsr        [A5 + 0x17FA /* export_763, CODE:32 @ 000057BC */]
00000BA4  2F2C 01AA                move.l     -[A7], [A4 + 0x1AA]
00000BA8  4EAD 1F52                jsr        [A5 + 0x1F52 /* export_998, CODE:37 @ 000014C8 */]
00000BAC  4CEE 1880 FFF4           movem.l    D7,A3,A4, [A6 - 0xC]
00000BB2  4E5E                     unlink     A6
00000BB4  4E75                     rts
00000BB6  8025 5570 6461 7465 4... dc.b       "UpdateCostAndQuantity__10cBuyWindowFv"
export_381:
00000BE0  4E56 0000                link       A6, 0
00000BE4  48E7 0318                movem.l    -[A7], D6,D7,A3,A4
00000BE8  3C2E 0016                move.w     D6, [A6 + 0x16]
00000BEC  3E2E 000E                move.w     D7, [A6 + 0xE]
00000BF0  266E 0010                movea.l    A3, [A6 + 0x10]
00000BF4  286E 0008                movea.l    A4, [A6 + 0x8]
00000BF8  4A46                     tst.w      D6
00000BFA  6672                     bne        +0x74 /* 00000C6E */
00000BFC  0C47 000E                cmpi.w     D7, 0xE
00000C00  6636                     bne        +0x38 /* 00000C38 */
00000C02  2F2E 0018                move.l     -[A7], [A6 + 0x18]
00000C06  2F0B                     move.l     -[A7], A3
00000C08  2F0C                     move.l     -[A7], A4
00000C0A  2F0C                     move.l     -[A7], A4
00000C0C  7000                     moveq.l    D0, 0x00
00000C0E  2F00                     move.l     -[A7], D0
00000C10  2F00                     move.l     -[A7], D0
00000C12  4EAD 19BA                jsr        [A5 + 0x19BA /* export_819, CODE:34 @ 00000000 */]
00000C16  2940 01BE                move.l     [A4 + 0x1BE], D0
00000C1A  670C                     beq        +0xE /* 00000C28 */
00000C1C  202C 01BE                move.l     D0, [A4 + 0x1BE]
00000C20  D0BC 0000 0080           add.l      D0, 0x80
00000C26  6002                     bra        +0x4 /* 00000C2A */
label00000C28:
00000C28  7000                     moveq.l    D0, 0x00
label00000C2A:
00000C2A  2F00                     move.l     -[A7], D0
00000C2C  2F0C                     move.l     -[A7], A4
00000C2E  4EAD 11F2                jsr        [A5 + 0x11F2 /* export_570, CODE:26 @ 000032DA */]
00000C32  4FEF 0020                lea.l      A7, [A7 + 0x20]
00000C36  604E                     bra        +0x50 /* 00000C86 */
label00000C38:
00000C38  2F2E 0018                move.l     -[A7], [A6 + 0x18]
00000C3C  2F0B                     move.l     -[A7], A3
00000C3E  2F0C                     move.l     -[A7], A4
00000C40  2F0C                     move.l     -[A7], A4
00000C42  7000                     moveq.l    D0, 0x00
00000C44  2F00                     move.l     -[A7], D0
00000C46  2F00                     move.l     -[A7], D0
00000C48  4EAD 19BA                jsr        [A5 + 0x19BA /* export_819, CODE:34 @ 00000000 */]
00000C4C  2940 01BA                move.l     [A4 + 0x1BA], D0
00000C50  670C                     beq        +0xE /* 00000C5E */
00000C52  202C 01BA                move.l     D0, [A4 + 0x1BA]
00000C56  D0BC 0000 0080           add.l      D0, 0x80
00000C5C  6002                     bra        +0x4 /* 00000C60 */
label00000C5E:
00000C5E  7000                     moveq.l    D0, 0x00
label00000C60:
00000C60  2F00                     move.l     -[A7], D0
00000C62  2F0C                     move.l     -[A7], A4
00000C64  4EAD 11F2                jsr        [A5 + 0x11F2 /* export_570, CODE:26 @ 000032DA */]
00000C68  4FEF 0020                lea.l      A7, [A7 + 0x20]
00000C6C  6018                     bra        +0x1A /* 00000C86 */
label00000C6E:
00000C6E  2F2E 0018                move.l     -[A7], [A6 + 0x18]
00000C72  48C6                     ext.l      D6
00000C74  2F06                     move.l     -[A7], D6
00000C76  2F0B                     move.l     -[A7], A3
00000C78  48C7                     ext.l      D7
00000C7A  2F07                     move.l     -[A7], D7
00000C7C  2F0C                     move.l     -[A7], A4
00000C7E  4EAD 1192                jsr        [A5 + 0x1192 /* export_558, CODE:26 @ 000024A0 */]
00000C82  4FEF 0014                lea.l      A7, [A7 + 0x14]
label00000C86:
00000C86  4CEE 18C0 FFF0           movem.l    D6,D7,A3,A4, [A6 - 0x10]
00000C8C  4E5E                     unlink     A6
00000C8E  4E75                     rts
00000C90  8024 4E65 7742 7574 7... dc.b       "NewButton__10cBuyWindowFsR4RectT1PUc"
fn00000CB8:
00000CB8  4E56 FFF8                link       A6, -0x0008
00000CBC  48E7 1018                movem.l    -[A7], D3,A3,A4
00000CC0  266E 000C                movea.l    A3, [A6 + 0xC]
00000CC4  286E 0008                movea.l    A4, [A6 + 0x8]
00000CC8  3D7C 0010 FFFE           move.w     [A6 - 0x2], 0x10
00000CCE  3D7C 0010 FFFC           move.w     [A6 - 0x4], 0x10
00000CD4  42AE FFF8                clr.l      [A6 - 0x8]
00000CD8  200C                     move.l     D0, A4
00000CDA  6612                     bne        +0x14 /* 00000CEE */
00000CDC  4878 014E                push.l     0x14E
00000CE0  4EAD 010A                jsr        [A5 + 0x10A /* export_29, CODE:1 @ 00001C0A */]
00000CE4  2840                     movea.l    A4, D0
00000CE6  200C                     move.l     D0, A4
00000CE8  584F                     addq.w     A7, 4
00000CEA  6700 0102                beq        +0x104 /* 00000DEE */
label00000CEE:
00000CEE  200B                     move.l     D0, A3
00000CF0  57C3                     seq        D3
00000CF2  4403                     neg.b      D3
00000CF4  674E                     beq        +0x50 /* 00000D44 */
00000CF6  264C                     movea.l    A3, A4
00000CF8  47EB 0142                lea.l      A3, [A3 + 0x142]
00000CFC  7601                     moveq.l    D3, 0x01
00000CFE  200C                     move.l     D0, A4
00000D00  D0BC 0000 0142           add.l      D0, 0x142
00000D06  6614                     bne        +0x16 /* 00000D1C */
00000D08  2F03                     move.l     -[A7], D3
00000D0A  700C                     moveq.l    D0, 0x0C
00000D0C  2F00                     move.l     -[A7], D0
00000D0E  4EAD 010A                jsr        [A5 + 0x10A /* export_29, CODE:1 @ 00001C0A */]
00000D12  588F                     addq.l     A7, 4
00000D14  261F                     move.l     D3, [A7]+
00000D16  4A80                     tst.l      D0
00000D18  6602                     bne        +0x4 /* 00000D1C */
00000D1A  7600                     moveq.l    D3, 0x00
label00000D1C:
00000D1C  4A03                     tst.b      D3
00000D1E  6718                     beq        +0x1A /* 00000D38 */
00000D20  204D                     movea.l    A0, A5
00000D22  D1FC FFFF 0F48           add.l      A0, 0xFFFF0F48
00000D28  2950 014A                move.l     [A4 + 0x14A], [A0]
00000D2C  7000                     moveq.l    D0, 0x00
00000D2E  2940 0142                move.l     [A4 + 0x142], D0
00000D32  2940 0146                move.l     [A4 + 0x146], D0
00000D36  6002                     bra        +0x4 /* 00000D3A */
label00000D38:
00000D38  7000                     moveq.l    D0, 0x00
label00000D3A:
00000D3A  200C                     move.l     D0, A4
00000D3C  D0BC 0000 0142           add.l      D0, 0x142
00000D42  6002                     bra        +0x4 /* 00000D46 */
label00000D44:
00000D44  200B                     move.l     D0, A3
label00000D46:
00000D46  7000                     moveq.l    D0, 0x00
00000D48  2F00                     move.l     -[A7], D0
00000D4A  2F00                     move.l     -[A7], D0
00000D4C  2F00                     move.l     -[A7], D0
00000D4E  2F2E 0018                move.l     -[A7], [A6 + 0x18]
00000D52  2F2E 0014                move.l     -[A7], [A6 + 0x14]
00000D56  2F2E 0010                move.l     -[A7], [A6 + 0x10]
00000D5A  2F0B                     move.l     -[A7], A3
00000D5C  2F0C                     move.l     -[A7], A4
00000D5E  4EAD 019A                jsr        [A5 + 0x19A /* export_47, CODE:1 @ 00002D3A */]
00000D62  204D                     movea.l    A0, A5
00000D64  D1FC FFFF 0F5C           add.l      A0, 0xFFFF0F5C
00000D6A  2950 0060                move.l     [A4 + 0x60], [A0]
00000D6E  204D                     movea.l    A0, A5
00000D70  D1FC FFFF 0F60           add.l      A0, 0xFFFF0F60
00000D76  2950 0088                move.l     [A4 + 0x88], [A0]
00000D7A  204D                     movea.l    A0, A5
00000D7C  D1FC FFFF 0F64           add.l      A0, 0xFFFF0F64
00000D82  2950 0070                move.l     [A4 + 0x70], [A0]
00000D86  206C 0064                movea.l    A0, [A4 + 0x64]
00000D8A  224D                     movea.l    A1, A5
00000D8C  D3FC FFFF 0F68           add.l      A1, 0xFFFF0F68
00000D92  2151 0008                move.l     [A0 + 0x8], [A1]
00000D96  7000                     moveq.l    D0, 0x00
00000D98  2F00                     move.l     -[A7], D0
00000D9A  2F00                     move.l     -[A7], D0
00000D9C  2F00                     move.l     -[A7], D0
00000D9E  7208                     moveq.l    D1, 0x08
00000DA0  2F01                     move.l     -[A7], D1
00000DA2  486E FFF8                pea.l      [A6 - 0x8]
00000DA6  2F00                     move.l     -[A7], D0
00000DA8  4EAD 1722                jsr        [A5 + 0x1722 /* export_736, CODE:32 @ 00004320 */]
00000DAC  2940 0134                move.l     [A4 + 0x134], D0
00000DB0  7000                     moveq.l    D0, 0x00
00000DB2  2F00                     move.l     -[A7], D0
00000DB4  2F00                     move.l     -[A7], D0
00000DB6  2F00                     move.l     -[A7], D0
00000DB8  7208                     moveq.l    D1, 0x08
00000DBA  2F01                     move.l     -[A7], D1
00000DBC  486E FFF8                pea.l      [A6 - 0x8]
00000DC0  2F00                     move.l     -[A7], D0
00000DC2  4EAD 1722                jsr        [A5 + 0x1722 /* export_736, CODE:32 @ 00004320 */]
00000DC6  2940 0138                move.l     [A4 + 0x138], D0
00000DCA  4AAC 0134                tst.l      [A4 + 0x134]
00000DCE  4FEF 0050                lea.l      A7, [A7 + 0x50]
00000DD2  6706                     beq        +0x8 /* 00000DDA */
00000DD4  4AAC 0138                tst.l      [A4 + 0x138]
00000DD8  6614                     bne        +0x16 /* 00000DEE */
label00000DDA:
00000DDA  204D                     movea.l    A0, A5
00000DDC  D1FC FFFF 0F22           add.l      A0, 0xFFFF0F22
00000DE2  4850                     pea.l      [A0]
00000DE4  2F2C 0064                move.l     -[A7], [A4 + 0x64]
00000DE8  4EAD 162A                jsr        [A5 + 0x162A /* export_705, CODE:32 @ 00003696 */]
00000DEC  504F                     addq.w     A7, 8
label00000DEE:
00000DEE  200C                     move.l     D0, A4
00000DF0  4CEE 1808 FFEC           movem.l    D3,A3,A4, [A6 - 0x14]
00000DF6  4E5E                     unlink     A6
00000DF8  4E75                     rts
00000DFA  802D 5F5F 6374 5F5F 3... dc.b       "__ct__13cGameViewItemFP6cAgentP7cWindowR4Rect"
export_382:
00000E2C  4E56 0000                link       A6, 0
00000E30  48E7 0108                movem.l    -[A7], D7,A4
00000E34  2E2E 000C                move.l     D7, [A6 + 0xC]
00000E38  286E 0008                movea.l    A4, [A6 + 0x8]
00000E3C  200C                     move.l     D0, A4
00000E3E  6700 00E0                beq        +0xE2 /* 00000F20 */
00000E42  206C 0064                movea.l    A0, [A4 + 0x64]
00000E46  224D                     movea.l    A1, A5
00000E48  D3FC FFFF 0F68           add.l      A1, 0xFFFF0F68
00000E4E  2151 0008                move.l     [A0 + 0x8], [A1]
00000E52  204D                     movea.l    A0, A5
00000E54  D1FC FFFF 0F64           add.l      A0, 0xFFFF0F64
00000E5A  2950 0070                move.l     [A4 + 0x70], [A0]
00000E5E  204D                     movea.l    A0, A5
00000E60  D1FC FFFF 0F60           add.l      A0, 0xFFFF0F60
00000E66  2950 0088                move.l     [A4 + 0x88], [A0]
00000E6A  204D                     movea.l    A0, A5
00000E6C  D1FC FFFF 0F5C           add.l      A0, 0xFFFF0F5C
00000E72  2950 0060                move.l     [A4 + 0x60], [A0]
00000E76  4AAC 0134                tst.l      [A4 + 0x134]
00000E7A  6730                     beq        +0x32 /* 00000EAC */
00000E7C  4AAC 0134                tst.l      [A4 + 0x134]
00000E80  6728                     beq        +0x2A /* 00000EAA */
00000E82  7003                     moveq.l    D0, 0x03
00000E84  2F00                     move.l     -[A7], D0
00000E86  206C 0134                movea.l    A0, [A4 + 0x134]
00000E8A  2248                     movea.l    A1, A0
00000E8C  2269 0008                movea.l    A1, [A1 + 0x8]
00000E90  D0E9 0030                add.w      A0, [A1 + 0x30]
00000E94  2F08                     move.l     -[A7], A0
00000E96  206C 0134                movea.l    A0, [A4 + 0x134]
00000E9A  2068 0008                movea.l    A0, [A0 + 0x8]
00000E9E  2268 0034                movea.l    A1, [A0 + 0x34]
00000EA2  4E91                     jsr        [A1]
00000EA4  7000                     moveq.l    D0, 0x00
00000EA6  504F                     addq.w     A7, 8
00000EA8  6002                     bra        +0x4 /* 00000EAC */
label00000EAA:
00000EAA  7000                     moveq.l    D0, 0x00
label00000EAC:
00000EAC  4AAC 0138                tst.l      [A4 + 0x138]
00000EB0  6730                     beq        +0x32 /* 00000EE2 */
00000EB2  4AAC 0138                tst.l      [A4 + 0x138]
00000EB6  6728                     beq        +0x2A /* 00000EE0 */
00000EB8  7003                     moveq.l    D0, 0x03
00000EBA  2F00                     move.l     -[A7], D0
00000EBC  206C 0138                movea.l    A0, [A4 + 0x138]
00000EC0  2248                     movea.l    A1, A0
00000EC2  2269 0008                movea.l    A1, [A1 + 0x8]
00000EC6  D0E9 0030                add.w      A0, [A1 + 0x30]
00000ECA  2F08                     move.l     -[A7], A0
00000ECC  206C 0138                movea.l    A0, [A4 + 0x138]
00000ED0  2068 0008                movea.l    A0, [A0 + 0x8]
00000ED4  2268 0034                movea.l    A1, [A0 + 0x34]
00000ED8  4E91                     jsr        [A1]
00000EDA  7000                     moveq.l    D0, 0x00
00000EDC  504F                     addq.w     A7, 8
00000EDE  6002                     bra        +0x4 /* 00000EE2 */
label00000EE0:
00000EE0  7000                     moveq.l    D0, 0x00
label00000EE2:
00000EE2  200C                     move.l     D0, A4
00000EE4  673A                     beq        +0x3C /* 00000F20 */
00000EE6  7000                     moveq.l    D0, 0x00
00000EE8  2F00                     move.l     -[A7], D0
00000EEA  2F0C                     move.l     -[A7], A4
00000EEC  4EAD 01A2                jsr        [A5 + 0x1A2 /* export_48, CODE:1 @ 00002EC4 */]
00000EF0  7002                     moveq.l    D0, 0x02
00000EF2  C087                     and.l      D0, D7
00000EF4  6718                     beq        +0x1A /* 00000F0E */
00000EF6  7000                     moveq.l    D0, 0x00
00000EF8  2F00                     move.l     -[A7], D0
00000EFA  220C                     move.l     D1, A4
00000EFC  D2BC 0000 0142           add.l      D1, 0x142
00000F02  2F01                     move.l     -[A7], D1
00000F04  4EAD 1632                jsr        [A5 + 0x1632 /* export_706, CODE:32 @ 000036CC */]
00000F08  7000                     moveq.l    D0, 0x00
00000F0A  504F                     addq.w     A7, 8
00000F0C  6002                     bra        +0x4 /* 00000F10 */
label00000F0E:
00000F0E  7000                     moveq.l    D0, 0x00
label00000F10:
00000F10  0807 0000                btst.b     D7, 0x0
00000F14  504F                     addq.w     A7, 8
00000F16  6708                     beq        +0xA /* 00000F20 */
00000F18  2F0C                     move.l     -[A7], A4
00000F1A  4EAD 0102                jsr        [A5 + 0x102 /* export_28, CODE:1 @ 00001BE0 */]
00000F1E  584F                     addq.w     A7, 4
label00000F20:
00000F20  4CEE 1080 FFF8           movem.l    D7,A4, [A6 - 0x8]
00000F26  4E5E                     unlink     A6
00000F28  4E75                     rts
00000F2A  975F 5F64 745F 5F31 3... dc.b       "__dt__13cGameViewItemFv"
fn00000F44:
00000F44  4E56 0000                link       A6, 0
00000F48  2F0C                     move.l     -[A7], A4
00000F4A  286E 0008                movea.l    A4, [A6 + 0x8]
00000F4E  296E 000C 013C           move.l     [A4 + 0x13C], [A6 + 0xC]
00000F54  2F0C                     move.l     -[A7], A4
00000F56  4EAD 1F52                jsr        [A5 + 0x1F52 /* export_998, CODE:37 @ 000014C8 */]
00000F5A  286E FFFC                movea.l    A4, [A6 - 0x4]
00000F5E  4E5E                     unlink     A6
00000F60  4E75                     rts
00000F62  8026 5365 7443 7572 7... dc.b       "SetCurrentItem__13cGameViewItemFP4item"
export_383:
00000F8C  4E56 FF48                link       A6, -0x00B8
00000F90  48E7 1F18                movem.l    -[A7], D3,D4,D5,D6,D7,A3,A4
00000F94  286E 0008                movea.l    A4, [A6 + 0x8]
00000F98  3D7C 0010 FFF4           move.w     [A6 - 0xC], 0x10
00000F9E  3D7C 0010 FFF2           move.w     [A6 - 0xE], 0x10
00000FA4  42AE FFEE                clr.l      [A6 - 0x12]
00000FA8  7000                     moveq.l    D0, 0x00
00000FAA  2F00                     move.l     -[A7], D0
00000FAC  2F00                     move.l     -[A7], D0
00000FAE  486E FF50                pea.l      [A6 - 0xB0]
00000FB2  4EAD 15AA                jsr        [A5 + 0x15AA /* export_689, CODE:32 @ 0000234A */]
00000FB6  7000                     moveq.l    D0, 0x00
00000FB8  2F00                     move.l     -[A7], D0
00000FBA  486E FF82                pea.l      [A6 - 0x7E]
00000FBE  4EAD 15BA                jsr        [A5 + 0x15BA /* export_691, CODE:32 @ 000025FA */]
00000FC2  2F3C 00FF FFFF           move.l     -[A7], 0xFFFFFF
00000FC8  7000                     moveq.l    D0, 0x00
00000FCA  2F00                     move.l     -[A7], D0
00000FCC  486E FFB4                pea.l      [A6 - 0x4C]
00000FD0  4EAD 15AA                jsr        [A5 + 0x15AA /* export_689, CODE:32 @ 0000234A */]
00000FD4  41EE FFE6                lea.l      A0, [A6 - 0x1A]
00000FD8  43EC 0090                lea.l      A1, [A4 + 0x90]
00000FDC  20D9                     move.l     [A0]+, [A1]+
00000FDE  20D9                     move.l     [A0]+, [A1]+
00000FE0  206C 0112                movea.l    A0, [A4 + 0x112]
00000FE4  2068 0084                movea.l    A0, [A0 + 0x84]
00000FE8  5488                     addq.l     A0, 2
00000FEA  2D48 FFF6                move.l     [A6 - 0xA], A0
00000FEE  266C 0112                movea.l    A3, [A4 + 0x112]
00000FF2  41EB 009C                lea.l      A0, [A3 + 0x9C]
00000FF6  43EE FF82                lea.l      A1, [A6 - 0x7E]
00000FFA  22D8                     move.l     [A1]+, [A0]+
00000FFC  32D8                     move.w     [A1]+, [A0]+
00000FFE  486E FF82                pea.l      [A6 - 0x7E]
00001002  AA15                     syscall    RGBBackColor
00001004  486E FFE6                pea.l      [A6 - 0x1A]
00001008  302E FFE8                move.w     D0, [A6 - 0x18]
0000100C  48C0                     ext.l      D0
0000100E  4480                     neg.l      D0
00001010  3F00                     move.w     -[A7], D0
00001012  302E FFE6                move.w     D0, [A6 - 0x1A]
00001016  48C0                     ext.l      D0
00001018  4480                     neg.l      D0
0000101A  3F00                     move.w     -[A7], D0
0000101C  A8A8                     syscall    OffsetRect
0000101E  486E FFE6                pea.l      [A6 - 0x1A]
00001022  A8A3                     syscall    EraseRect
00001024  486E FF50                pea.l      [A6 - 0xB0]
00001028  AA14                     syscall    RGBForeColor
0000102A  486E FFB4                pea.l      [A6 - 0x4C]
0000102E  AA15                     syscall    RGBBackColor
00001030  4246                     clr.w      D6
00001032  4FEF 0020                lea.l      A7, [A7 + 0x20]
label00001036:
00001036  4247                     clr.w      D7
label00001038:
00001038  3D7C 0010 FF4E           move.w     [A6 - 0xB2], 0x10
0000103E  3D7C 0010 FF4C           move.w     [A6 - 0xB4], 0x10
00001044  42AE FF48                clr.l      [A6 - 0xB8]
00001048  486E FF48                pea.l      [A6 - 0xB8]
0000104C  3F06                     move.w     -[A7], D6
0000104E  3F07                     move.w     -[A7], D7
00001050  A8A8                     syscall    OffsetRect
00001052  2F2C 0134                move.l     -[A7], [A4 + 0x134]
00001056  558F                     subq.l     A7, 2
00001058  A861                     syscall    Random
0000105A  7003                     moveq.l    D0, 0x03
0000105C  C05F                     and.w      D0, [A7]+
0000105E  D07C 0013                add.w      D0, 0x13
00001062  7200                     moveq.l    D1, 0x00
00001064  3200                     move.w     D1, D0
00001066  2F01                     move.l     -[A7], D1
00001068  224D                     movea.l    A1, A5
0000106A  D3FC FFFF 2042           add.l      A1, 0xFFFF2042
00001070  2051                     movea.l    A0, [A1]
00001072  2F28 01E0                move.l     -[A7], [A0 + 0x1E0]
00001076  4EAD 06D2                jsr        [A5 + 0x6D2 /* export_214, CODE:12 @ 00002F34 */]
0000107A  206C 0134                movea.l    A0, [A4 + 0x134]
0000107E  2068 0018                movea.l    A0, [A0 + 0x18]
00001082  4868 0002                pea.l      [A0 + 0x2]
00001086  2F2E FFF6                move.l     -[A7], [A6 - 0xA]
0000108A  486E FFEE                pea.l      [A6 - 0x12]
0000108E  486E FF48                pea.l      [A6 - 0xB8]
00001092  7000                     moveq.l    D0, 0x00
00001094  3F00                     move.w     -[A7], D0
00001096  7200                     moveq.l    D1, 0x00
00001098  2F01                     move.l     -[A7], D1
0000109A  A8EC                     syscall    CopyBits
0000109C  4FEF 000C                lea.l      A7, [A7 + 0xC]
000010A0  0647 0010                addi.w     D7, 0x10
000010A4  0C47 0030                cmpi.w     D7, 0x30 /* '0' */
000010A8  6D8E                     blt        -0x70 /* 00001038 */
000010AA  0646 0010                addi.w     D6, 0x10
000010AE  0C46 0040                cmpi.w     D6, 0x40 /* '@' */
000010B2  6D82                     blt        -0x7C /* 00001036 */
000010B4  206C 013C                movea.l    A0, [A4 + 0x13C]
000010B8  1028 0008                move.b     D0, [A0 + 0x8]
000010BC  49C0                     lea.l      A4, D0
000010BE  2800                     move.l     D4, D0
000010C0  E98C                     lsl        D4, 4
000010C2  206C 013C                movea.l    A0, [A4 + 0x13C]
000010C6  1028 0009                move.b     D0, [A0 + 0x9]
000010CA  49C0                     lea.l      A4, D0
000010CC  E988                     lsl        D0, 4
000010CE  3D40 FFFA                move.w     [A6 - 0x6], D0
000010D2  206C 013C                movea.l    A0, [A4 + 0x13C]
000010D6  7000                     moveq.l    D0, 0x00
000010D8  1010                     move.b     D0, [A0]
000010DA  D040                     add.w      D0, D0
000010DC  204D                     movea.l    A0, A5
000010DE  D1FC FFFF 7942           add.l      A0, 0xFFFF7942
000010E4  3A30 0000                move.w     D5, [A0 + D0.w]
000010E8  302E FFEC                move.w     D0, [A6 - 0x14]
000010EC  48C0                     ext.l      D0
000010EE  48C4                     ext.l      D4
000010F0  9084                     sub.l      D0, D4
000010F2  4C7C 0800 0000 0002      divu.l     D2:D0, 0x8000000
000010FA  3D40 FFFC                move.w     [A6 - 0x4], D0
000010FE  302E FFEA                move.w     D0, [A6 - 0x16]
00001102  48C0                     ext.l      D0
00001104  322E FFFA                move.w     D1, [A6 - 0x6]
00001108  48C1                     ext.l      D1
0000110A  9081                     sub.l      D0, D1
0000110C  4C7C 0800 0000 0002      divu.l     D2:D0, 0x8000000
00001114  3D40 FFFE                move.w     [A6 - 0x2], D0
00001118  4247                     clr.w      D7
0000111A  6000 00D2                bra        +0xD4 /* 000011EE */
label0000111E:
0000111E  4246                     clr.w      D6
00001120  6000 00C2                bra        +0xC4 /* 000011E4 */
label00001124:
00001124  3D7C 0010 FF4E           move.w     [A6 - 0xB2], 0x10
0000112A  3D7C 0010 FF4C           move.w     [A6 - 0xB4], 0x10
00001130  42AE FF48                clr.l      [A6 - 0xB8]
00001134  486E FF48                pea.l      [A6 - 0xB8]
00001138  3006                     move.w     D0, D6
0000113A  D06E FFFC                add.w      D0, [A6 - 0x4]
0000113E  3F00                     move.w     -[A7], D0
00001140  3007                     move.w     D0, D7
00001142  D06E FFFE                add.w      D0, [A6 - 0x2]
00001146  3F00                     move.w     -[A7], D0
00001148  A8A8                     syscall    OffsetRect
0000114A  2F2C 0134                move.l     -[A7], [A4 + 0x134]
0000114E  7000                     moveq.l    D0, 0x00
00001150  3005                     move.w     D0, D5
00001152  2F00                     move.l     -[A7], D0
00001154  224D                     movea.l    A1, A5
00001156  D3FC FFFF 2042           add.l      A1, 0xFFFF2042
0000115C  2051                     movea.l    A0, [A1]
0000115E  2F28 01E0                move.l     -[A7], [A0 + 0x1E0]
00001162  4EAD 06D2                jsr        [A5 + 0x6D2 /* export_214, CODE:12 @ 00002F34 */]
00001166  0C45 0350                cmpi.w     D5, 0x350
0000116A  4FEF 000C                lea.l      A7, [A7 + 0xC]
0000116E  6C24                     bge        +0x26 /* 00001194 */
00001170  206C 0134                movea.l    A0, [A4 + 0x134]
00001174  2068 0018                movea.l    A0, [A0 + 0x18]
00001178  4868 0002                pea.l      [A0 + 0x2]
0000117C  2F2E FFF6                move.l     -[A7], [A6 - 0xA]
00001180  486E FFEE                pea.l      [A6 - 0x12]
00001184  486E FF48                pea.l      [A6 - 0xB8]
00001188  7000                     moveq.l    D0, 0x00
0000118A  3F00                     move.w     -[A7], D0
0000118C  7200                     moveq.l    D1, 0x00
0000118E  2F01                     move.l     -[A7], D1
00001190  A8EC                     syscall    CopyBits
00001192  604A                     bra        +0x4C /* 000011DE */
label00001194:
00001194  2F2C 0138                move.l     -[A7], [A4 + 0x138]
00001198  7000                     moveq.l    D0, 0x00
0000119A  3005                     move.w     D0, D5
0000119C  2F00                     move.l     -[A7], D0
0000119E  224D                     movea.l    A1, A5
000011A0  D3FC FFFF 2042           add.l      A1, 0xFFFF2042
000011A6  2051                     movea.l    A0, [A1]
000011A8  2F28 01E0                move.l     -[A7], [A0 + 0x1E0]
000011AC  4EAD 06CA                jsr        [A5 + 0x6CA /* export_213, CODE:12 @ 00002D50 */]
000011B0  206C 0134                movea.l    A0, [A4 + 0x134]
000011B4  2068 0018                movea.l    A0, [A0 + 0x18]
000011B8  4868 0002                pea.l      [A0 + 0x2]
000011BC  206C 0138                movea.l    A0, [A4 + 0x138]
000011C0  2068 0018                movea.l    A0, [A0 + 0x18]
000011C4  4868 0002                pea.l      [A0 + 0x2]
000011C8  2F2E FFF6                move.l     -[A7], [A6 - 0xA]
000011CC  486E FFEE                pea.l      [A6 - 0x12]
000011D0  486E FFEE                pea.l      [A6 - 0x12]
000011D4  486E FF48                pea.l      [A6 - 0xB8]
000011D8  A817                     syscall    CopyMask
000011DA  4FEF 000C                lea.l      A7, [A7 + 0xC]
label000011DE:
000011DE  5245                     addq.w     D5, 1
000011E0  0646 0010                addi.w     D6, 0x10
label000011E4:
000011E4  B846                     cmp.w      D4, D6
000011E6  6E00 FF3C                bgt        -0xC2 /* 00001124 */
000011EA  0647 0010                addi.w     D7, 0x10
label000011EE:
000011EE  BE6E FFFA                cmp.w      D7, [A6 - 0x6]
000011F2  6D00 FF2A                blt        -0xD4 /* 0000111E */
000011F6  486E FFE6                pea.l      [A6 - 0x1A]
000011FA  A8A1                     syscall    FrameRect
000011FC  7002                     moveq.l    D0, 0x02
000011FE  2F00                     move.l     -[A7], D0
00001200  486E FFB4                pea.l      [A6 - 0x4C]
00001204  4EAD 15D2                jsr        [A5 + 0x15D2 /* export_694, CODE:32 @ 000029D6 */]
00001208  7002                     moveq.l    D0, 0x02
0000120A  2F00                     move.l     -[A7], D0
0000120C  486E FF82                pea.l      [A6 - 0x7E]
00001210  4EAD 15D2                jsr        [A5 + 0x15D2 /* export_694, CODE:32 @ 000029D6 */]
00001214  7002                     moveq.l    D0, 0x02
00001216  2F00                     move.l     -[A7], D0
00001218  486E FF50                pea.l      [A6 - 0xB0]
0000121C  4EAD 15D2                jsr        [A5 + 0x15D2 /* export_694, CODE:32 @ 000029D6 */]
00001220  4FEF 0018                lea.l      A7, [A7 + 0x18]
00001224  4CEE 18F8 FF2C           movem.l    D3,D4,D5,D6,D7,A3,A4, [A6 - 0xD4]
0000122A  4E5E                     unlink     A6
0000122C  4E75                     rts
0000122E  8022 4472 6177 496E 7... dc.b       "DrawIntoNotepad__13cGameViewItemFv"
export_384:
00001254  4E56 FFEC                link       A6, -0x0014
00001258  48E7 1318                movem.l    -[A7], D3,D6,D7,A3,A4
0000125C  286E 0008                movea.l    A4, [A6 + 0x8]
00001260  200C                     move.l     D0, A4
00001262  6612                     bne        +0x14 /* 00001276 */
00001264  4878 01F0                push.l     0x1F0
00001268  4EAD 010A                jsr        [A5 + 0x10A /* export_29, CODE:1 @ 00001C0A */]
0000126C  2840                     movea.l    A4, D0
0000126E  200C                     move.l     D0, A4
00001270  584F                     addq.w     A7, 4
00001272  6700 0392                beq        +0x394 /* 00001606 */
label00001276:
00001276  4AAE 000C                tst.l      [A6 + 0xC]
0000127A  57C3                     seq        D3
0000127C  4403                     neg.b      D3
0000127E  6754                     beq        +0x56 /* 000012D4 */
00001280  200C                     move.l     D0, A4
00001282  D0BC 0000 01E4           add.l      D0, 0x1E4
00001288  2D40 000C                move.l     [A6 + 0xC], D0
0000128C  7601                     moveq.l    D3, 0x01
0000128E  200C                     move.l     D0, A4
00001290  D0BC 0000 01E4           add.l      D0, 0x1E4
00001296  6614                     bne        +0x16 /* 000012AC */
00001298  2F03                     move.l     -[A7], D3
0000129A  700C                     moveq.l    D0, 0x0C
0000129C  2F00                     move.l     -[A7], D0
0000129E  4EAD 010A                jsr        [A5 + 0x10A /* export_29, CODE:1 @ 00001C0A */]
000012A2  588F                     addq.l     A7, 4
000012A4  261F                     move.l     D3, [A7]+
000012A6  4A80                     tst.l      D0
000012A8  6602                     bne        +0x4 /* 000012AC */
000012AA  7600                     moveq.l    D3, 0x00
label000012AC:
000012AC  4A03                     tst.b      D3
000012AE  6718                     beq        +0x1A /* 000012C8 */
000012B0  204D                     movea.l    A0, A5
000012B2  D1FC FFFF 505A           add.l      A0, 0xFFFF505A
000012B8  2950 01EC                move.l     [A4 + 0x1EC], [A0]
000012BC  7000                     moveq.l    D0, 0x00
000012BE  2940 01E4                move.l     [A4 + 0x1E4], D0
000012C2  2940 01E8                move.l     [A4 + 0x1E8], D0
000012C6  6002                     bra        +0x4 /* 000012CA */
label000012C8:
000012C8  7000                     moveq.l    D0, 0x00
label000012CA:
000012CA  200C                     move.l     D0, A4
000012CC  D0BC 0000 01E4           add.l      D0, 0x1E4
000012D2  6004                     bra        +0x6 /* 000012D8 */
label000012D4:
000012D4  202E 000C                move.l     D0, [A6 + 0xC]
label000012D8:
000012D8  2D4C FFEC                move.l     [A6 - 0x14], A4
000012DC  2D6E 000C FFF0           move.l     [A6 - 0x10], [A6 + 0xC]
000012E2  7601                     moveq.l    D3, 0x01
000012E4  4AAE FFEC                tst.l      [A6 - 0x14]
000012E8  6616                     bne        +0x18 /* 00001300 */
000012EA  2F03                     move.l     -[A7], D3
000012EC  4878 01B8                push.l     0x1B8
000012F0  4EAD 010A                jsr        [A5 + 0x10A /* export_29, CODE:1 @ 00001C0A */]
000012F4  588F                     addq.l     A7, 4
000012F6  261F                     move.l     D3, [A7]+
000012F8  2D40 FFEC                move.l     [A6 - 0x14], D0
000012FC  6602                     bne        +0x4 /* 00001300 */
000012FE  7600                     moveq.l    D3, 0x00
label00001300:
00001300  4A03                     tst.b      D3
00001302  6700 0286                beq        +0x288 /* 0000158A */
00001306  4AAE FFF0                tst.l      [A6 - 0x10]
0000130A  57C3                     seq        D3
0000130C  4403                     neg.b      D3
0000130E  6766                     beq        +0x68 /* 00001376 */
00001310  202E FFEC                move.l     D0, [A6 - 0x14]
00001314  D0BC 0000 01AC           add.l      D0, 0x1AC
0000131A  2D40 FFF0                move.l     [A6 - 0x10], D0
0000131E  7601                     moveq.l    D3, 0x01
00001320  202E FFEC                move.l     D0, [A6 - 0x14]
00001324  D0BC 0000 01AC           add.l      D0, 0x1AC
0000132A  6614                     bne        +0x16 /* 00001340 */
0000132C  2F03                     move.l     -[A7], D3
0000132E  700C                     moveq.l    D0, 0x0C
00001330  2F00                     move.l     -[A7], D0
00001332  4EAD 010A                jsr        [A5 + 0x10A /* export_29, CODE:1 @ 00001C0A */]
00001336  588F                     addq.l     A7, 4
00001338  261F                     move.l     D3, [A7]+
0000133A  4A80                     tst.l      D0
0000133C  6602                     bne        +0x4 /* 00001340 */
0000133E  7600                     moveq.l    D3, 0x00
label00001340:
00001340  4A03                     tst.b      D3
00001342  6724                     beq        +0x26 /* 00001368 */
00001344  206E FFEC                movea.l    A0, [A6 - 0x14]
00001348  224D                     movea.l    A1, A5
0000134A  D3FC FFFF 505A           add.l      A1, 0xFFFF505A
00001350  2151 01B4                move.l     [A0 + 0x1B4], [A1]
00001354  206E FFEC                movea.l    A0, [A6 - 0x14]
00001358  7000                     moveq.l    D0, 0x00
0000135A  2140 01AC                move.l     [A0 + 0x1AC], D0
0000135E  206E FFEC                movea.l    A0, [A6 - 0x14]
00001362  2140 01B0                move.l     [A0 + 0x1B0], D0
00001366  6002                     bra        +0x4 /* 0000136A */
label00001368:
00001368  7000                     moveq.l    D0, 0x00
label0000136A:
0000136A  202E FFEC                move.l     D0, [A6 - 0x14]
0000136E  D0BC 0000 01AC           add.l      D0, 0x1AC
00001374  6004                     bra        +0x6 /* 0000137A */
label00001376:
00001376  202E FFF0                move.l     D0, [A6 - 0x10]
label0000137A:
0000137A  266E FFEC                movea.l    A3, [A6 - 0x14]
0000137E  2D6E FFF0 FFF4           move.l     [A6 - 0xC], [A6 - 0x10]
00001384  7601                     moveq.l    D3, 0x01
00001386  200B                     move.l     D0, A3
00001388  6616                     bne        +0x18 /* 000013A0 */
0000138A  2F03                     move.l     -[A7], D3
0000138C  4878 018C                push.l     0x18C
00001390  4EAD 010A                jsr        [A5 + 0x10A /* export_29, CODE:1 @ 00001C0A */]
00001394  588F                     addq.l     A7, 4
00001396  261F                     move.l     D3, [A7]+
00001398  2640                     movea.l    A3, D0
0000139A  200B                     move.l     D0, A3
0000139C  6602                     bne        +0x4 /* 000013A0 */
0000139E  7600                     moveq.l    D3, 0x00
label000013A0:
000013A0  4A03                     tst.b      D3
000013A2  6700 01A4                beq        +0x1A6 /* 00001548 */
000013A6  4AAE FFF4                tst.l      [A6 - 0xC]
000013AA  57C3                     seq        D3
000013AC  4403                     neg.b      D3
000013AE  6754                     beq        +0x56 /* 00001404 */
000013B0  200B                     move.l     D0, A3
000013B2  D0BC 0000 0180           add.l      D0, 0x180
000013B8  2D40 FFF4                move.l     [A6 - 0xC], D0
000013BC  7601                     moveq.l    D3, 0x01
000013BE  200B                     move.l     D0, A3
000013C0  D0BC 0000 0180           add.l      D0, 0x180
000013C6  6614                     bne        +0x16 /* 000013DC */
000013C8  2F03                     move.l     -[A7], D3
000013CA  700C                     moveq.l    D0, 0x0C
000013CC  2F00                     move.l     -[A7], D0
000013CE  4EAD 010A                jsr        [A5 + 0x10A /* export_29, CODE:1 @ 00001C0A */]
000013D2  588F                     addq.l     A7, 4
000013D4  261F                     move.l     D3, [A7]+
000013D6  4A80                     tst.l      D0
000013D8  6602                     bne        +0x4 /* 000013DC */
000013DA  7600                     moveq.l    D3, 0x00
label000013DC:
000013DC  4A03                     tst.b      D3
000013DE  6718                     beq        +0x1A /* 000013F8 */
000013E0  204D                     movea.l    A0, A5
000013E2  D1FC FFFF 505A           add.l      A0, 0xFFFF505A
000013E8  2750 0188                move.l     [A3 + 0x188], [A0]
000013EC  7000                     moveq.l    D0, 0x00
000013EE  2740 0180                move.l     [A3 + 0x180], D0
000013F2  2740 0184                move.l     [A3 + 0x184], D0
000013F6  6002                     bra        +0x4 /* 000013FA */
label000013F8:
000013F8  7000                     moveq.l    D0, 0x00
label000013FA:
000013FA  200B                     move.l     D0, A3
000013FC  D0BC 0000 0180           add.l      D0, 0x180
00001402  6004                     bra        +0x6 /* 00001408 */
label00001404:
00001404  202E FFF4                move.l     D0, [A6 - 0xC]
label00001408:
00001408  2D4B FFF8                move.l     [A6 - 0x8], A3
0000140C  2D6E FFF4 FFFC           move.l     [A6 - 0x4], [A6 - 0xC]
00001412  7601                     moveq.l    D3, 0x01
00001414  4AAE FFF8                tst.l      [A6 - 0x8]
00001418  6616                     bne        +0x18 /* 00001430 */
0000141A  2F03                     move.l     -[A7], D3
0000141C  4878 0178                push.l     0x178
00001420  4EAD 010A                jsr        [A5 + 0x10A /* export_29, CODE:1 @ 00001C0A */]
00001424  588F                     addq.l     A7, 4
00001426  261F                     move.l     D3, [A7]+
00001428  2D40 FFF8                move.l     [A6 - 0x8], D0
0000142C  6602                     bne        +0x4 /* 00001430 */
0000142E  7600                     moveq.l    D3, 0x00
label00001430:
00001430  4A03                     tst.b      D3
00001432  6700 00D2                beq        +0xD4 /* 00001506 */
00001436  4AAE FFFC                tst.l      [A6 - 0x4]
0000143A  57C3                     seq        D3
0000143C  4403                     neg.b      D3
0000143E  6766                     beq        +0x68 /* 000014A6 */
00001440  202E FFF8                move.l     D0, [A6 - 0x8]
00001444  D0BC 0000 016C           add.l      D0, 0x16C
0000144A  2D40 FFFC                move.l     [A6 - 0x4], D0
0000144E  7601                     moveq.l    D3, 0x01
00001450  202E FFF8                move.l     D0, [A6 - 0x8]
00001454  D0BC 0000 016C           add.l      D0, 0x16C
0000145A  6614                     bne        +0x16 /* 00001470 */
0000145C  2F03                     move.l     -[A7], D3
0000145E  700C                     moveq.l    D0, 0x0C
00001460  2F00                     move.l     -[A7], D0
00001462  4EAD 010A                jsr        [A5 + 0x10A /* export_29, CODE:1 @ 00001C0A */]
00001466  588F                     addq.l     A7, 4
00001468  261F                     move.l     D3, [A7]+
0000146A  4A80                     tst.l      D0
0000146C  6602                     bne        +0x4 /* 00001470 */
0000146E  7600                     moveq.l    D3, 0x00
label00001470:
00001470  4A03                     tst.b      D3
00001472  6724                     beq        +0x26 /* 00001498 */
00001474  206E FFF8                movea.l    A0, [A6 - 0x8]
00001478  224D                     movea.l    A1, A5
0000147A  D3FC FFFF 505A           add.l      A1, 0xFFFF505A
00001480  2151 0174                move.l     [A0 + 0x174], [A1]
00001484  206E FFF8                movea.l    A0, [A6 - 0x8]
00001488  7000                     moveq.l    D0, 0x00
0000148A  2140 016C                move.l     [A0 + 0x16C], D0
0000148E  206E FFF8                movea.l    A0, [A6 - 0x8]
00001492  2140 0170                move.l     [A0 + 0x170], D0
00001496  6002                     bra        +0x4 /* 0000149A */
label00001498:
00001498  7000                     moveq.l    D0, 0x00
label0000149A:
0000149A  202E FFF8                move.l     D0, [A6 - 0x8]
0000149E  D0BC 0000 016C           add.l      D0, 0x16C
000014A4  6004                     bra        +0x6 /* 000014AA */
label000014A6:
000014A6  202E FFFC                move.l     D0, [A6 - 0x4]
label000014AA:
000014AA  7000                     moveq.l    D0, 0x00
000014AC  2F00                     move.l     -[A7], D0
000014AE  2F2E 0014                move.l     -[A7], [A6 + 0x14]
000014B2  2F2E 0010                move.l     -[A7], [A6 + 0x10]
000014B6  2F2E FFFC                move.l     -[A7], [A6 - 0x4]
000014BA  2F2E FFF8                move.l     -[A7], [A6 - 0x8]
000014BE  4EAD 10AA                jsr        [A5 + 0x10AA /* export_529, CODE:26 @ 0000020E */]
000014C2  206E FFF8                movea.l    A0, [A6 - 0x8]
000014C6  224D                     movea.l    A1, A5
000014C8  D3FC FFFF 505E           add.l      A1, 0xFFFF505E
000014CE  2151 0060                move.l     [A0 + 0x60], [A1]
000014D2  206E FFF8                movea.l    A0, [A6 - 0x8]
000014D6  2068 0064                movea.l    A0, [A0 + 0x64]
000014DA  224D                     movea.l    A1, A5
000014DC  D3FC FFFF 5062           add.l      A1, 0xFFFF5062
000014E2  2151 0008                move.l     [A0 + 0x8], [A1]
000014E6  206E FFF8                movea.l    A0, [A6 - 0x8]
000014EA  224D                     movea.l    A1, A5
000014EC  D3FC FFFF 5066           add.l      A1, 0xFFFF5066
000014F2  2151 0070                move.l     [A0 + 0x70], [A1]
000014F6  204D                     movea.l    A0, A5
000014F8  D1FC FFFF 5066           add.l      A0, 0xFFFF5066
000014FE  2010                     move.l     D0, [A0]
00001500  4FEF 0014                lea.l      A7, [A7 + 0x14]
00001504  6002                     bra        +0x4 /* 00001508 */
label00001506:
00001506  7000                     moveq.l    D0, 0x00
label00001508:
00001508  204D                     movea.l    A0, A5
0000150A  D1FC FFFF 506A           add.l      A0, 0xFFFF506A
00001510  2750 0060                move.l     [A3 + 0x60], [A0]
00001514  204D                     movea.l    A0, A5
00001516  D1FC FFFF 506E           add.l      A0, 0xFFFF506E
0000151C  2750 0070                move.l     [A3 + 0x70], [A0]
00001520  206B 0064                movea.l    A0, [A3 + 0x64]
00001524  224D                     movea.l    A1, A5
00001526  D3FC FFFF 5072           add.l      A1, 0xFFFF5072
0000152C  2151 0008                move.l     [A0 + 0x8], [A1]
00001530  7000                     moveq.l    D0, 0x00
00001532  2740 016C                move.l     [A3 + 0x16C], D0
00001536  2740 0170                move.l     [A3 + 0x170], D0
0000153A  2740 0174                move.l     [A3 + 0x174], D0
0000153E  2740 0178                move.l     [A3 + 0x178], D0
00001542  2740 017C                move.l     [A3 + 0x17C], D0
00001546  6002                     bra        +0x4 /* 0000154A */
label00001548:
00001548  7000                     moveq.l    D0, 0x00
label0000154A:
0000154A  206E FFEC                movea.l    A0, [A6 - 0x14]
0000154E  224D                     movea.l    A1, A5
00001550  D3FC FFFF 5076           add.l      A1, 0xFFFF5076
00001556  2151 0060                move.l     [A0 + 0x60], [A1]
0000155A  206E FFEC                movea.l    A0, [A6 - 0x14]
0000155E  2068 0064                movea.l    A0, [A0 + 0x64]
00001562  224D                     movea.l    A1, A5
00001564  D3FC FFFF 507A           add.l      A1, 0xFFFF507A
0000156A  2151 0008                move.l     [A0 + 0x8], [A1]
0000156E  206E FFEC                movea.l    A0, [A6 - 0x14]
00001572  224D                     movea.l    A1, A5
00001574  D3FC FFFF 507E           add.l      A1, 0xFFFF507E
0000157A  2151 0070                move.l     [A0 + 0x70], [A1]
0000157E  204D                     movea.l    A0, A5
00001580  D1FC FFFF 507E           add.l      A0, 0xFFFF507E
00001586  2010                     move.l     D0, [A0]
00001588  6002                     bra        +0x4 /* 0000158C */
label0000158A:
0000158A  7000                     moveq.l    D0, 0x00
label0000158C:
0000158C  204D                     movea.l    A0, A5
0000158E  D1FC FFFF 5082           add.l      A0, 0xFFFF5082
00001594  2950 0060                move.l     [A4 + 0x60], [A0]
00001598  204D                     movea.l    A0, A5
0000159A  D1FC FFFF 5086           add.l      A0, 0xFFFF5086
000015A0  2950 0070                move.l     [A4 + 0x70], [A0]
000015A4  206C 0064                movea.l    A0, [A4 + 0x64]
000015A8  224D                     movea.l    A1, A5
000015AA  D3FC FFFF 508A           add.l      A1, 0xFFFF508A
000015B0  2151 0008                move.l     [A0 + 0x8], [A1]
000015B4  7000                     moveq.l    D0, 0x00
000015B6  2F00                     move.l     -[A7], D0
000015B8  2F00                     move.l     -[A7], D0
000015BA  486C 01BC                pea.l      [A4 + 0x1BC]
000015BE  4EAD 1772                jsr        [A5 + 0x1772 /* export_746, CODE:32 @ 00004CE0 */]
000015C2  47EC 01BC                lea.l      A3, [A4 + 0x1BC]
000015C6  7C01                     moveq.l    D6, 0x01
000015C8  2F0B                     move.l     -[A7], A3
000015CA  4EAD 1782                jsr        [A5 + 0x1782 /* export_748, CODE:32 @ 00004E1E */]
000015CE  1E06                     move.b     D7, D6
000015D0  7000                     moveq.l    D0, 0x00
000015D2  1007                     move.b     D0, D7
000015D4  2F00                     move.l     -[A7], D0
000015D6  2F2B 0014                move.l     -[A7], [A3 + 0x14]
000015DA  2F2E 0018                move.l     -[A7], [A6 + 0x18]
000015DE  2F0B                     move.l     -[A7], A3
000015E0  4EAD 178A                jsr        [A5 + 0x178A /* export_749, CODE:32 @ 00004E80 */]
000015E4  396E 001E 01B0           move.w     [A4 + 0x1B0], [A6 + 0x1E]
000015EA  396E 0022 01B2           move.w     [A4 + 0x1B2], [A6 + 0x22]
000015F0  396E 0026 01B4           move.w     [A4 + 0x1B4], [A6 + 0x26]
000015F6  396E 002A 01B6           move.w     [A4 + 0x1B6], [A6 + 0x2A]
000015FC  196E 002F 01DA           move.b     [A4 + 0x1DA], [A6 + 0x2F]
00001602  4FEF 0020                lea.l      A7, [A7 + 0x20]
label00001606:
00001606  200C                     move.l     D0, A4
00001608  4CEE 18C8 FFD8           movem.l    D3,D6,D7,A3,A4, [A6 - 0x28]
0000160E  4E5E                     unlink     A6
00001610  4E75                     rts
00001612  802C 5F5F 6374 5F5F 3... dc.b       "__ct__17cQuickPopupWindowFP6cAgentUlPcsN34Uc"
export_385:
00001642  4E56 0000                link       A6, 0
00001646  48E7 0108                movem.l    -[A7], D7,A4
0000164A  2E2E 000C                move.l     D7, [A6 + 0xC]
0000164E  286E 0008                movea.l    A4, [A6 + 0x8]
00001652  200C                     move.l     D0, A4
00001654  6774                     beq        +0x76 /* 000016CA */
00001656  206C 0064                movea.l    A0, [A4 + 0x64]
0000165A  224D                     movea.l    A1, A5
0000165C  D3FC FFFF 508A           add.l      A1, 0xFFFF508A
00001662  2151 0008                move.l     [A0 + 0x8], [A1]
00001666  204D                     movea.l    A0, A5
00001668  D1FC FFFF 5086           add.l      A0, 0xFFFF5086
0000166E  2950 0070                move.l     [A4 + 0x70], [A0]
00001672  204D                     movea.l    A0, A5
00001674  D1FC FFFF 5082           add.l      A0, 0xFFFF5082
0000167A  2950 0060                move.l     [A4 + 0x60], [A0]
0000167E  200C                     move.l     D0, A4
00001680  6748                     beq        +0x4A /* 000016CA */
00001682  7002                     moveq.l    D0, 0x02
00001684  2F00                     move.l     -[A7], D0
00001686  486C 01BC                pea.l      [A4 + 0x1BC]
0000168A  4EAD 177A                jsr        [A5 + 0x177A /* export_747, CODE:32 @ 00004DBC */]
0000168E  7000                     moveq.l    D0, 0x00
00001690  2F00                     move.l     -[A7], D0
00001692  2F0C                     move.l     -[A7], A4
00001694  4EAD 01B2                jsr        [A5 + 0x1B2 /* export_50, CODE:1 @ 0000311C */]
00001698  7002                     moveq.l    D0, 0x02
0000169A  C087                     and.l      D0, D7
0000169C  6718                     beq        +0x1A /* 000016B6 */
0000169E  7000                     moveq.l    D0, 0x00
000016A0  2F00                     move.l     -[A7], D0
000016A2  220C                     move.l     D1, A4
000016A4  D2BC 0000 01E4           add.l      D1, 0x1E4
000016AA  2F01                     move.l     -[A7], D1
000016AC  4EAD 1632                jsr        [A5 + 0x1632 /* export_706, CODE:32 @ 000036CC */]
000016B0  7000                     moveq.l    D0, 0x00
000016B2  504F                     addq.w     A7, 8
000016B4  6002                     bra        +0x4 /* 000016B8 */
label000016B6:
000016B6  7000                     moveq.l    D0, 0x00
label000016B8:
000016B8  0807 0000                btst.b     D7, 0x0
000016BC  4FEF 0010                lea.l      A7, [A7 + 0x10]
000016C0  6708                     beq        +0xA /* 000016CA */
000016C2  2F0C                     move.l     -[A7], A4
000016C4  4EAD 0102                jsr        [A5 + 0x102 /* export_28, CODE:1 @ 00001BE0 */]
000016C8  584F                     addq.w     A7, 4
label000016CA:
000016CA  4CEE 1080 FFF8           movem.l    D7,A4, [A6 - 0x8]
000016D0  4E5E                     unlink     A6
000016D2  4E75                     rts
000016D4  9B5F 5F64 745F 5F31 3... dc.b       "__dt__17cQuickPopupWindowFv"
export_386:
000016F2  4E56 FFF8                link       A6, -0x0008
000016F6  48E7 0118                movem.l    -[A7], D7,A3,A4
000016FA  286E 0008                movea.l    A4, [A6 + 0x8]
000016FE  302E 000E                move.w     D0, [A6 + 0xE]
00001702  5340                     subq.w     D0, 1
00001704  670A                     beq        +0xC /* 00001710 */
00001706  5340                     subq.w     D0, 1
00001708  6700 0142                beq        +0x144 /* 0000184C */
0000170C  6000 01D4                bra        +0x1D6 /* 000018E2 */
label00001710:
00001710  70FF                     moveq.l    D0, 0xFFFFFFFF
00001712  B06C 01B0                cmp.w      D0, [A4 + 0x1B0]
00001716  6600 00AE                bne        +0xB0 /* 000017C6 */
0000171A  486E FFF8                pea.l      [A6 - 0x8]
0000171E  2F0C                     move.l     -[A7], A4
00001720  4EAD 12B2                jsr        [A5 + 0x12B2 /* export_594, CODE:26 @ 00003D60 */]
00001724  7000                     moveq.l    D0, 0x00
00001726  2F00                     move.l     -[A7], D0
00001728  204D                     movea.l    A0, A5
0000172A  D1FC FFFF 4FD6           add.l      A0, 0xFFFF4FD6
00001730  4850                     pea.l      [A0]
00001732  4EAD 073A                jsr        [A5 + 0x73A /* export_227, CODE:12 @ 00004474 */]
00001736  558F                     subq.l     A7, 2
00001738  A861                     syscall    Random
0000173A  7003                     moveq.l    D0, 0x03
0000173C  C05F                     and.w      D0, [A7]+
0000173E  3940 01DC                move.w     [A4 + 0x1DC], D0
00001742  7002                     moveq.l    D0, 0x02
00001744  B06C 01DC                cmp.w      D0, [A4 + 0x1DC]
00001748  4FEF 0010                lea.l      A7, [A7 + 0x10]
0000174C  6C08                     bge        +0xA /* 00001756 */
0000174E  397C 0002 01DC           move.w     [A4 + 0x1DC], 0x2
00001754  600A                     bra        +0xC /* 00001760 */
label00001756:
00001756  4A6C 01DC                tst.w      [A4 + 0x1DC]
0000175A  6C04                     bge        +0x6 /* 00001760 */
0000175C  426C 01DC                clr.w      [A4 + 0x1DC]
label00001760:
00001760  397C 0001 01DE           move.w     [A4 + 0x1DE], 0x1
00001766  302C 01DC                move.w     D0, [A4 + 0x1DC]
0000176A  C1FC 001E                muls.w     D0, 0x1E
0000176E  204D                     movea.l    A0, A5
00001770  D1FC FFFF 532E           add.l      A0, 0xFFFF532E
00001776  322C 01DE                move.w     D1, [A4 + 0x1DE]
0000177A  D241                     add.w      D1, D1
0000177C  D240                     add.w      D1, D0
0000177E  3230 1000                move.w     D1, [A0 + D1.w]
00001782  48C1                     ext.l      D1
00001784  2F01                     move.l     -[A7], D1
00001786  2F0C                     move.l     -[A7], A4
00001788  7000                     moveq.l    D0, 0x00
0000178A  2F00                     move.l     -[A7], D0
0000178C  2F00                     move.l     -[A7], D0
0000178E  4EAD 1982                jsr        [A5 + 0x1982 /* export_812, CODE:33 @ 0000205A */]
00001792  2940 01AC                move.l     [A4 + 0x1AC], D0
00001796  302E FFFA                move.w     D0, [A6 - 0x6]
0000179A  48C0                     ext.l      D0
0000179C  206C 01AC                movea.l    A0, [A4 + 0x1AC]
000017A0  47E8 0086                lea.l      A3, [A0 + 0x86]
000017A4  322B 0016                move.w     D1, [A3 + 0x16]
000017A8  926B 0012                sub.w      D1, [A3 + 0x12]
000017AC  48C1                     ext.l      D1
000017AE  9081                     sub.l      D0, D1
000017B0  4C7C 0800 0000 0002      divu.l     D2:D0, 0x8000000
000017B8  206E 0010                movea.l    A0, [A6 + 0x10]
000017BC  3140 0002                move.w     [A0 + 0x2], D0
000017C0  4FEF 0010                lea.l      A7, [A7 + 0x10]
000017C4  6020                     bra        +0x22 /* 000017E6 */
label000017C6:
000017C6  302C 01B0                move.w     D0, [A4 + 0x1B0]
000017CA  D07C 03E8                add.w      D0, 0x3E8
000017CE  48C0                     ext.l      D0
000017D0  2F00                     move.l     -[A7], D0
000017D2  2F0C                     move.l     -[A7], A4
000017D4  7000                     moveq.l    D0, 0x00
000017D6  2F00                     move.l     -[A7], D0
000017D8  2F00                     move.l     -[A7], D0
000017DA  4EAD 1982                jsr        [A5 + 0x1982 /* export_812, CODE:33 @ 0000205A */]
000017DE  2940 01AC                move.l     [A4 + 0x1AC], D0
000017E2  4FEF 0010                lea.l      A7, [A7 + 0x10]
label000017E6:
000017E6  206C 01AC                movea.l    A0, [A4 + 0x1AC]
000017EA  47E8 0086                lea.l      A3, [A0 + 0x86]
000017EE  206E 0010                movea.l    A0, [A6 + 0x10]
000017F2  3010                     move.w     D0, [A0]
000017F4  906B 0010                sub.w      D0, [A3 + 0x10]
000017F8  48C0                     ext.l      D0
000017FA  2F00                     move.l     -[A7], D0
000017FC  206E 0010                movea.l    A0, [A6 + 0x10]
00001800  3028 0002                move.w     D0, [A0 + 0x2]
00001804  906B 0012                sub.w      D0, [A3 + 0x12]
00001808  48C0                     ext.l      D0
0000180A  2F00                     move.l     -[A7], D0
0000180C  204B                     movea.l    A0, A3
0000180E  226B 0008                movea.l    A1, [A3 + 0x8]
00001812  D0E9 0040                add.w      A0, [A1 + 0x40]
00001816  2F08                     move.l     -[A7], A0
00001818  2049                     movea.l    A0, A1
0000181A  2268 0044                movea.l    A1, [A0 + 0x44]
0000181E  4E91                     jsr        [A1]
00001820  4AAC 01AC                tst.l      [A4 + 0x1AC]
00001824  670C                     beq        +0xE /* 00001832 */
00001826  202C 01AC                move.l     D0, [A4 + 0x1AC]
0000182A  D0BC 0000 0086           add.l      D0, 0x86
00001830  6002                     bra        +0x4 /* 00001834 */
label00001832:
00001832  7000                     moveq.l    D0, 0x00
label00001834:
00001834  2F00                     move.l     -[A7], D0
00001836  2F0C                     move.l     -[A7], A4
00001838  4EAD 11F2                jsr        [A5 + 0x11F2 /* export_570, CODE:26 @ 000032DA */]
0000183C  598F                     subq.l     A7, 4
0000183E  A975                     syscall    TickCount
00001840  295F 01E0                move.l     [A4 + 0x1E0], [A7]+
00001844  4FEF 0014                lea.l      A7, [A7 + 0x14]
00001848  6000 0098                bra        +0x9A /* 000018E2 */
label0000184C:
0000184C  70FF                     moveq.l    D0, 0xFFFFFFFF
0000184E  B06C 01B0                cmp.w      D0, [A4 + 0x1B0]
00001852  660E                     bne        +0x10 /* 00001862 */
00001854  2F2E 0010                move.l     -[A7], [A6 + 0x10]
00001858  7000                     moveq.l    D0, 0x00
0000185A  3F00                     move.w     -[A7], D0
0000185C  7219                     moveq.l    D1, 0x19
0000185E  3F01                     move.w     -[A7], D1
00001860  A8A8                     syscall    OffsetRect
label00001862:
00001862  7000                     moveq.l    D0, 0x00
00001864  2F00                     move.l     -[A7], D0
00001866  7201                     moveq.l    D1, 0x01
00001868  2F01                     move.l     -[A7], D1
0000186A  7009                     moveq.l    D0, 0x09
0000186C  2F00                     move.l     -[A7], D0
0000186E  7003                     moveq.l    D0, 0x03
00001870  2F00                     move.l     -[A7], D0
00001872  7000                     moveq.l    D0, 0x00
00001874  2F00                     move.l     -[A7], D0
00001876  2F2E 0010                move.l     -[A7], [A6 + 0x10]
0000187A  2F0C                     move.l     -[A7], A4
0000187C  2F0C                     move.l     -[A7], A4
0000187E  2F00                     move.l     -[A7], D0
00001880  2F00                     move.l     -[A7], D0
00001882  4EAD 1A22                jsr        [A5 + 0x1A22 /* export_832, CODE:34 @ 00000ED0 */]
00001886  2940 01B8                move.l     [A4 + 0x1B8], D0
0000188A  2040                     movea.l    A0, D0
0000188C  47E8 012A                lea.l      A3, [A0 + 0x12A]
00001890  486C 01BC                pea.l      [A4 + 0x1BC]
00001894  4EAD 1792                jsr        [A5 + 0x1792 /* export_750, CODE:32 @ 000050C2 */]
00001898  224D                     movea.l    A1, A5
0000189A  D3FC FFFF FB4A           add.l      A1, 0xFFFFFB4A
000018A0  41D1                     lea.l      A0, [A1]
000018A2  2D48 FFFC                move.l     [A6 - 0x4], A0
000018A6  2F0B                     move.l     -[A7], A3
000018A8  4EAD 1782                jsr        [A5 + 0x1782 /* export_748, CODE:32 @ 00004E1E */]
000018AC  4207                     clr.b      D7
000018AE  7000                     moveq.l    D0, 0x00
000018B0  1007                     move.b     D0, D7
000018B2  2F00                     move.l     -[A7], D0
000018B4  2F2B 0014                move.l     -[A7], [A3 + 0x14]
000018B8  2F2E FFFC                move.l     -[A7], [A6 - 0x4]
000018BC  2F0B                     move.l     -[A7], A3
000018BE  4EAD 178A                jsr        [A5 + 0x178A /* export_749, CODE:32 @ 00004E80 */]
000018C2  4AAC 01B8                tst.l      [A4 + 0x1B8]
000018C6  670C                     beq        +0xE /* 000018D4 */
000018C8  202C 01B8                move.l     D0, [A4 + 0x1B8]
000018CC  D0BC 0000 0080           add.l      D0, 0x80
000018D2  6002                     bra        +0x4 /* 000018D6 */
label000018D4:
000018D4  7000                     moveq.l    D0, 0x00
label000018D6:
000018D6  2F00                     move.l     -[A7], D0
000018D8  2F0C                     move.l     -[A7], A4
000018DA  4EAD 11F2                jsr        [A5 + 0x11F2 /* export_570, CODE:26 @ 000032DA */]
000018DE  4FEF 0048                lea.l      A7, [A7 + 0x48]
label000018E2:
000018E2  4CEE 1880 FFEC           movem.l    D7,A3,A4, [A6 - 0x14]
000018E8  4E5E                     unlink     A6
000018EA  4E75                     rts
000018EC  8028 4E65 7755 7365 7... dc.b       "NewUserItem__17cQuickPopupWindowFsR4Rect"
fn00001918:
00001918  4E56 0000                link       A6, 0
0000191C  2F0C                     move.l     -[A7], A4
0000191E  286E 000C                movea.l    A4, [A6 + 0xC]
00001922  302E 0012                move.w     D0, [A6 + 0x12]
00001926  6B00 04B4                bmi        +0x4B6 /* 00001DDC */
0000192A  0C40 0012                cmpi.w     D0, 0x12
0000192E  6E00 04AC                bgt        +0x4AE /* 00001DDC */
00001932  D040                     add.w      D0, D0
00001934  303B 0006                move.w     D0, [PC + D0.w + 0x6]
00001938  4EFB 0000                jmp        [PC + D0.w]
0000193C  04A2 0028 007A           subi.l     -[A2], 0x28007A /* '(\0z' */
00001942  00CC                     .incomplete
00001944  011E                     btst       [A6]+, D0
00001946  0170 01C2 0214           bchg       [[ + <<invalid base displacement size>>] + 0x214], D0
0000194C  0266 02B8                andi.w     -[A6], 0x2B8
00001950  030A                     btst       A2, D1
00001952  035C                     bchg       [A4]+, D1
00001954  03AE 0400                bclr       [A6 + 0x400], D1
00001958  04A2 04A2 04A2           subi.l     -[A2], 0x4A204A2
0000195E  04A2 0452 7001           subi.l     -[A2], 0x4527001
00001964  2F00                     move.l     -[A7], D0
00001966  204D                     movea.l    A0, A5
00001968  D1FC FFFF 5000           add.l      A0, 0xFFFF5000
0000196E  4850                     pea.l      [A0]
00001970  204C                     movea.l    A0, A4
00001972  226C 0060                movea.l    A1, [A4 + 0x60]
00001976  D0E9 0150                add.w      A0, [A1 + 0x150]
0000197A  2F08                     move.l     -[A7], A0
0000197C  2049                     movea.l    A0, A1
0000197E  2268 0154                movea.l    A1, [A0 + 0x154]
00001982  4E91                     jsr        [A1]
00001984  204C                     movea.l    A0, A4
00001986  226C 0060                movea.l    A1, [A4 + 0x60]
0000198A  D0E9 00F0                add.w      A0, [A1 + 0xF0]
0000198E  2F08                     move.l     -[A7], A0
00001990  2049                     movea.l    A0, A1
00001992  2268 00F4                movea.l    A1, [A0 + 0xF4]
00001996  4E91                     jsr        [A1]
00001998  204C                     movea.l    A0, A4
0000199A  226C 0060                movea.l    A1, [A4 + 0x60]
0000199E  D0E9 0100                add.w      A0, [A1 + 0x100]
000019A2  2F08                     move.l     -[A7], A0
000019A4  2049                     movea.l    A0, A1
000019A6  2268 0104                movea.l    A1, [A0 + 0x104]
000019AA  4E91                     jsr        [A1]
000019AC  4FEF 0014                lea.l      A7, [A7 + 0x14]
000019B0  6000 0478                bra        +0x47A /* 00001E2A */
000019B4  7001                     moveq.l    D0, 0x01
000019B6  2F00                     move.l     -[A7], D0
000019B8  204D                     movea.l    A0, A5
000019BA  D1FC FFFF 5006           add.l      A0, 0xFFFF5006
000019C0  4850                     pea.l      [A0]
000019C2  204C                     movea.l    A0, A4
000019C4  226C 0060                movea.l    A1, [A4 + 0x60]
000019C8  D0E9 0150                add.w      A0, [A1 + 0x150]
000019CC  2F08                     move.l     -[A7], A0
000019CE  2049                     movea.l    A0, A1
000019D0  2268 0154                movea.l    A1, [A0 + 0x154]
000019D4  4E91                     jsr        [A1]
000019D6  204C                     movea.l    A0, A4
000019D8  226C 0060                movea.l    A1, [A4 + 0x60]
000019DC  D0E9 00F0                add.w      A0, [A1 + 0xF0]
000019E0  2F08                     move.l     -[A7], A0
000019E2  2049                     movea.l    A0, A1
000019E4  2268 00F4                movea.l    A1, [A0 + 0xF4]
000019E8  4E91                     jsr        [A1]
000019EA  204C                     movea.l    A0, A4
000019EC  226C 0060                movea.l    A1, [A4 + 0x60]
000019F0  D0E9 0100                add.w      A0, [A1 + 0x100]
000019F4  2F08                     move.l     -[A7], A0
000019F6  2049                     movea.l    A0, A1
000019F8  2268 0104                movea.l    A1, [A0 + 0x104]
000019FC  4E91                     jsr        [A1]
000019FE  4FEF 0014                lea.l      A7, [A7 + 0x14]
00001A02  6000 0426                bra        +0x428 /* 00001E2A */
00001A06  7001                     moveq.l    D0, 0x01
00001A08  2F00                     move.l     -[A7], D0
00001A0A  204D                     movea.l    A0, A5
00001A0C  D1FC FFFF 500C           add.l      A0, 0xFFFF500C
00001A12  4850                     pea.l      [A0]
00001A14  204C                     movea.l    A0, A4
00001A16  226C 0060                movea.l    A1, [A4 + 0x60]
00001A1A  D0E9 0150                add.w      A0, [A1 + 0x150]
00001A1E  2F08                     move.l     -[A7], A0
00001A20  2049                     movea.l    A0, A1
00001A22  2268 0154                movea.l    A1, [A0 + 0x154]
00001A26  4E91                     jsr        [A1]
00001A28  204C                     movea.l    A0, A4
00001A2A  226C 0060                movea.l    A1, [A4 + 0x60]
00001A2E  D0E9 00F0                add.w      A0, [A1 + 0xF0]
00001A32  2F08                     move.l     -[A7], A0
00001A34  2049                     movea.l    A0, A1
00001A36  2268 00F4                movea.l    A1, [A0 + 0xF4]
00001A3A  4E91                     jsr        [A1]
00001A3C  204C                     movea.l    A0, A4
00001A3E  226C 0060                movea.l    A1, [A4 + 0x60]
00001A42  D0E9 0100                add.w      A0, [A1 + 0x100]
00001A46  2F08                     move.l     -[A7], A0
00001A48  2049                     movea.l    A0, A1
00001A4A  2268 0104                movea.l    A1, [A0 + 0x104]
00001A4E  4E91                     jsr        [A1]
00001A50  4FEF 0014                lea.l      A7, [A7 + 0x14]
00001A54  6000 03D4                bra        +0x3D6 /* 00001E2A */
00001A58  7001                     moveq.l    D0, 0x01
00001A5A  2F00                     move.l     -[A7], D0
00001A5C  204D                     movea.l    A0, A5
00001A5E  D1FC FFFF 5012           add.l      A0, 0xFFFF5012
00001A64  4850                     pea.l      [A0]
00001A66  204C                     movea.l    A0, A4
00001A68  226C 0060                movea.l    A1, [A4 + 0x60]
00001A6C  D0E9 0150                add.w      A0, [A1 + 0x150]
00001A70  2F08                     move.l     -[A7], A0
00001A72  2049                     movea.l    A0, A1
00001A74  2268 0154                movea.l    A1, [A0 + 0x154]
00001A78  4E91                     jsr        [A1]
00001A7A  204C                     movea.l    A0, A4
00001A7C  226C 0060                movea.l    A1, [A4 + 0x60]
00001A80  D0E9 00F0                add.w      A0, [A1 + 0xF0]
00001A84  2F08                     move.l     -[A7], A0
00001A86  2049                     movea.l    A0, A1
00001A88  2268 00F4                movea.l    A1, [A0 + 0xF4]
00001A8C  4E91                     jsr        [A1]
00001A8E  204C                     movea.l    A0, A4
00001A90  226C 0060                movea.l    A1, [A4 + 0x60]
00001A94  D0E9 0100                add.w      A0, [A1 + 0x100]
00001A98  2F08                     move.l     -[A7], A0
00001A9A  2049                     movea.l    A0, A1
00001A9C  2268 0104                movea.l    A1, [A0 + 0x104]
00001AA0  4E91                     jsr        [A1]
00001AA2  4FEF 0014                lea.l      A7, [A7 + 0x14]
00001AA6  6000 0382                bra        +0x384 /* 00001E2A */
00001AAA  7001                     moveq.l    D0, 0x01
00001AAC  2F00                     move.l     -[A7], D0
00001AAE  204D                     movea.l    A0, A5
00001AB0  D1FC FFFF 501A           add.l      A0, 0xFFFF501A
00001AB6  4850                     pea.l      [A0]
00001AB8  204C                     movea.l    A0, A4
00001ABA  226C 0060                movea.l    A1, [A4 + 0x60]
00001ABE  D0E9 0150                add.w      A0, [A1 + 0x150]
00001AC2  2F08                     move.l     -[A7], A0
00001AC4  2049                     movea.l    A0, A1
00001AC6  2268 0154                movea.l    A1, [A0 + 0x154]
00001ACA  4E91                     jsr        [A1]
00001ACC  204C                     movea.l    A0, A4
00001ACE  226C 0060                movea.l    A1, [A4 + 0x60]
00001AD2  D0E9 00F0                add.w      A0, [A1 + 0xF0]
00001AD6  2F08                     move.l     -[A7], A0
00001AD8  2049                     movea.l    A0, A1
00001ADA  2268 00F4                movea.l    A1, [A0 + 0xF4]
00001ADE  4E91                     jsr        [A1]
00001AE0  204C                     movea.l    A0, A4
00001AE2  226C 0060                movea.l    A1, [A4 + 0x60]
00001AE6  D0E9 0100                add.w      A0, [A1 + 0x100]
00001AEA  2F08                     move.l     -[A7], A0
00001AEC  2049                     movea.l    A0, A1
00001AEE  2268 0104                movea.l    A1, [A0 + 0x104]
00001AF2  4E91                     jsr        [A1]
00001AF4  4FEF 0014                lea.l      A7, [A7 + 0x14]
00001AF8  6000 0330                bra        +0x332 /* 00001E2A */
00001AFC  7001                     moveq.l    D0, 0x01
00001AFE  2F00                     move.l     -[A7], D0
00001B00  204D                     movea.l    A0, A5
00001B02  D1FC FFFF 5022           add.l      A0, 0xFFFF5022
00001B08  4850                     pea.l      [A0]
00001B0A  204C                     movea.l    A0, A4
00001B0C  226C 0060                movea.l    A1, [A4 + 0x60]
00001B10  D0E9 0150                add.w      A0, [A1 + 0x150]
00001B14  2F08                     move.l     -[A7], A0
00001B16  2049                     movea.l    A0, A1
00001B18  2268 0154                movea.l    A1, [A0 + 0x154]
00001B1C  4E91                     jsr        [A1]
00001B1E  204C                     movea.l    A0, A4
00001B20  226C 0060                movea.l    A1, [A4 + 0x60]
00001B24  D0E9 00F0                add.w      A0, [A1 + 0xF0]
00001B28  2F08                     move.l     -[A7], A0
00001B2A  2049                     movea.l    A0, A1
00001B2C  2268 00F4                movea.l    A1, [A0 + 0xF4]
00001B30  4E91                     jsr        [A1]
00001B32  204C                     movea.l    A0, A4
00001B34  226C 0060                movea.l    A1, [A4 + 0x60]
00001B38  D0E9 0100                add.w      A0, [A1 + 0x100]
00001B3C  2F08                     move.l     -[A7], A0
00001B3E  2049                     movea.l    A0, A1
00001B40  2268 0104                movea.l    A1, [A0 + 0x104]
00001B44  4E91                     jsr        [A1]
00001B46  4FEF 0014                lea.l      A7, [A7 + 0x14]
00001B4A  6000 02DE                bra        +0x2E0 /* 00001E2A */
00001B4E  7001                     moveq.l    D0, 0x01
00001B50  2F00                     move.l     -[A7], D0
00001B52  204D                     movea.l    A0, A5
00001B54  D1FC FFFF 5028           add.l      A0, 0xFFFF5028
00001B5A  4850                     pea.l      [A0]
00001B5C  204C                     movea.l    A0, A4
00001B5E  226C 0060                movea.l    A1, [A4 + 0x60]
00001B62  D0E9 0150                add.w      A0, [A1 + 0x150]
00001B66  2F08                     move.l     -[A7], A0
00001B68  2049                     movea.l    A0, A1
00001B6A  2268 0154                movea.l    A1, [A0 + 0x154]
00001B6E  4E91                     jsr        [A1]
00001B70  204C                     movea.l    A0, A4
00001B72  226C 0060                movea.l    A1, [A4 + 0x60]
00001B76  D0E9 00F0                add.w      A0, [A1 + 0xF0]
00001B7A  2F08                     move.l     -[A7], A0
00001B7C  2049                     movea.l    A0, A1
00001B7E  2268 00F4                movea.l    A1, [A0 + 0xF4]
00001B82  4E91                     jsr        [A1]
00001B84  204C                     movea.l    A0, A4
00001B86  226C 0060                movea.l    A1, [A4 + 0x60]
00001B8A  D0E9 0100                add.w      A0, [A1 + 0x100]
00001B8E  2F08                     move.l     -[A7], A0
00001B90  2049                     movea.l    A0, A1
00001B92  2268 0104                movea.l    A1, [A0 + 0x104]
00001B96  4E91                     jsr        [A1]
00001B98  4FEF 0014                lea.l      A7, [A7 + 0x14]
00001B9C  6000 028C                bra        +0x28E /* 00001E2A */
00001BA0  7001                     moveq.l    D0, 0x01
00001BA2  2F00                     move.l     -[A7], D0
00001BA4  204D                     movea.l    A0, A5
00001BA6  D1FC FFFF 502E           add.l      A0, 0xFFFF502E
00001BAC  4850                     pea.l      [A0]
00001BAE  204C                     movea.l    A0, A4
00001BB0  226C 0060                movea.l    A1, [A4 + 0x60]
00001BB4  D0E9 0150                add.w      A0, [A1 + 0x150]
00001BB8  2F08                     move.l     -[A7], A0
00001BBA  2049                     movea.l    A0, A1
00001BBC  2268 0154                movea.l    A1, [A0 + 0x154]
00001BC0  4E91                     jsr        [A1]
00001BC2  204C                     movea.l    A0, A4
00001BC4  226C 0060                movea.l    A1, [A4 + 0x60]
00001BC8  D0E9 00F0                add.w      A0, [A1 + 0xF0]
00001BCC  2F08                     move.l     -[A7], A0
00001BCE  2049                     movea.l    A0, A1
00001BD0  2268 00F4                movea.l    A1, [A0 + 0xF4]
00001BD4  4E91                     jsr        [A1]
00001BD6  204C                     movea.l    A0, A4
00001BD8  226C 0060                movea.l    A1, [A4 + 0x60]
00001BDC  D0E9 0100                add.w      A0, [A1 + 0x100]
00001BE0  2F08                     move.l     -[A7], A0
00001BE2  2049                     movea.l    A0, A1
00001BE4  2268 0104                movea.l    A1, [A0 + 0x104]
00001BE8  4E91                     jsr        [A1]
00001BEA  4FEF 0014                lea.l      A7, [A7 + 0x14]
00001BEE  6000 023A                bra        +0x23C /* 00001E2A */
00001BF2  7001                     moveq.l    D0, 0x01
00001BF4  2F00                     move.l     -[A7], D0
00001BF6  204D                     movea.l    A0, A5
00001BF8  D1FC FFFF 5034           add.l      A0, 0xFFFF5034
00001BFE  4850                     pea.l      [A0]
00001C00  204C                     movea.l    A0, A4
00001C02  226C 0060                movea.l    A1, [A4 + 0x60]
00001C06  D0E9 0150                add.w      A0, [A1 + 0x150]
00001C0A  2F08                     move.l     -[A7], A0
00001C0C  2049                     movea.l    A0, A1
00001C0E  2268 0154                movea.l    A1, [A0 + 0x154]
00001C12  4E91                     jsr        [A1]
00001C14  204C                     movea.l    A0, A4
00001C16  226C 0060                movea.l    A1, [A4 + 0x60]
00001C1A  D0E9 00F0                add.w      A0, [A1 + 0xF0]
00001C1E  2F08                     move.l     -[A7], A0
00001C20  2049                     movea.l    A0, A1
00001C22  2268 00F4                movea.l    A1, [A0 + 0xF4]
00001C26  4E91                     jsr        [A1]
00001C28  204C                     movea.l    A0, A4
00001C2A  226C 0060                movea.l    A1, [A4 + 0x60]
00001C2E  D0E9 0100                add.w      A0, [A1 + 0x100]
00001C32  2F08                     move.l     -[A7], A0
00001C34  2049                     movea.l    A0, A1
00001C36  2268 0104                movea.l    A1, [A0 + 0x104]
00001C3A  4E91                     jsr        [A1]
00001C3C  4FEF 0014                lea.l      A7, [A7 + 0x14]
00001C40  6000 01E8                bra        +0x1EA /* 00001E2A */
00001C44  7001                     moveq.l    D0, 0x01
00001C46  2F00                     move.l     -[A7], D0
00001C48  204D                     movea.l    A0, A5
00001C4A  D1FC FFFF 503A           add.l      A0, 0xFFFF503A
00001C50  4850                     pea.l      [A0]
00001C52  204C                     movea.l    A0, A4
00001C54  226C 0060                movea.l    A1, [A4 + 0x60]
00001C58  D0E9 0150                add.w      A0, [A1 + 0x150]
00001C5C  2F08                     move.l     -[A7], A0
00001C5E  2049                     movea.l    A0, A1
00001C60  2268 0154                movea.l    A1, [A0 + 0x154]
00001C64  4E91                     jsr        [A1]
00001C66  204C                     movea.l    A0, A4
00001C68  226C 0060                movea.l    A1, [A4 + 0x60]
00001C6C  D0E9 00F0                add.w      A0, [A1 + 0xF0]
00001C70  2F08                     move.l     -[A7], A0
00001C72  2049                     movea.l    A0, A1
00001C74  2268 00F4                movea.l    A1, [A0 + 0xF4]
00001C78  4E91                     jsr        [A1]
00001C7A  204C                     movea.l    A0, A4
00001C7C  226C 0060                movea.l    A1, [A4 + 0x60]
00001C80  D0E9 0100                add.w      A0, [A1 + 0x100]
00001C84  2F08                     move.l     -[A7], A0
00001C86  2049                     movea.l    A0, A1
00001C88  2268 0104                movea.l    A1, [A0 + 0x104]
00001C8C  4E91                     jsr        [A1]
00001C8E  4FEF 0014                lea.l      A7, [A7 + 0x14]
00001C92  6000 0196                bra        +0x198 /* 00001E2A */
00001C96  7001                     moveq.l    D0, 0x01
00001C98  2F00                     move.l     -[A7], D0
00001C9A  204D                     movea.l    A0, A5
00001C9C  D1FC FFFF 5040           add.l      A0, 0xFFFF5040
00001CA2  4850                     pea.l      [A0]
00001CA4  204C                     movea.l    A0, A4
00001CA6  226C 0060                movea.l    A1, [A4 + 0x60]
00001CAA  D0E9 0150                add.w      A0, [A1 + 0x150]
00001CAE  2F08                     move.l     -[A7], A0
00001CB0  2049                     movea.l    A0, A1
00001CB2  2268 0154                movea.l    A1, [A0 + 0x154]
00001CB6  4E91                     jsr        [A1]
00001CB8  204C                     movea.l    A0, A4
00001CBA  226C 0060                movea.l    A1, [A4 + 0x60]
00001CBE  D0E9 00F0                add.w      A0, [A1 + 0xF0]
00001CC2  2F08                     move.l     -[A7], A0
00001CC4  2049                     movea.l    A0, A1
00001CC6  2268 00F4                movea.l    A1, [A0 + 0xF4]
00001CCA  4E91                     jsr        [A1]
00001CCC  204C                     movea.l    A0, A4
00001CCE  226C 0060                movea.l    A1, [A4 + 0x60]
00001CD2  D0E9 0100                add.w      A0, [A1 + 0x100]
00001CD6  2F08                     move.l     -[A7], A0
00001CD8  2049                     movea.l    A0, A1
00001CDA  2268 0104                movea.l    A1, [A0 + 0x104]
00001CDE  4E91                     jsr        [A1]
00001CE0  4FEF 0014                lea.l      A7, [A7 + 0x14]
00001CE4  6000 0144                bra        +0x146 /* 00001E2A */
00001CE8  7001                     moveq.l    D0, 0x01
00001CEA  2F00                     move.l     -[A7], D0
00001CEC  204D                     movea.l    A0, A5
00001CEE  D1FC FFFF 5046           add.l      A0, 0xFFFF5046
00001CF4  4850                     pea.l      [A0]
00001CF6  204C                     movea.l    A0, A4
00001CF8  226C 0060                movea.l    A1, [A4 + 0x60]
00001CFC  D0E9 0150                add.w      A0, [A1 + 0x150]
00001D00  2F08                     move.l     -[A7], A0
00001D02  2049                     movea.l    A0, A1
00001D04  2268 0154                movea.l    A1, [A0 + 0x154]
00001D08  4E91                     jsr        [A1]
00001D0A  204C                     movea.l    A0, A4
00001D0C  226C 0060                movea.l    A1, [A4 + 0x60]
00001D10  D0E9 00F0                add.w      A0, [A1 + 0xF0]
00001D14  2F08                     move.l     -[A7], A0
00001D16  2049                     movea.l    A0, A1
00001D18  2268 00F4                movea.l    A1, [A0 + 0xF4]
00001D1C  4E91                     jsr        [A1]
00001D1E  204C                     movea.l    A0, A4
00001D20  226C 0060                movea.l    A1, [A4 + 0x60]
00001D24  D0E9 0100                add.w      A0, [A1 + 0x100]
00001D28  2F08                     move.l     -[A7], A0
00001D2A  2049                     movea.l    A0, A1
00001D2C  2268 0104                movea.l    A1, [A0 + 0x104]
00001D30  4E91                     jsr        [A1]
00001D32  4FEF 0014                lea.l      A7, [A7 + 0x14]
00001D36  6000 00F2                bra        +0xF4 /* 00001E2A */
00001D3A  7001                     moveq.l    D0, 0x01
00001D3C  2F00                     move.l     -[A7], D0
00001D3E  204D                     movea.l    A0, A5
00001D40  D1FC FFFF 504A           add.l      A0, 0xFFFF504A
00001D46  4850                     pea.l      [A0]
00001D48  204C                     movea.l    A0, A4
00001D4A  226C 0060                movea.l    A1, [A4 + 0x60]
00001D4E  D0E9 0150                add.w      A0, [A1 + 0x150]
00001D52  2F08                     move.l     -[A7], A0
00001D54  2049                     movea.l    A0, A1
00001D56  2268 0154                movea.l    A1, [A0 + 0x154]
00001D5A  4E91                     jsr        [A1]
00001D5C  204C                     movea.l    A0, A4
00001D5E  226C 0060                movea.l    A1, [A4 + 0x60]
00001D62  D0E9 00F0                add.w      A0, [A1 + 0xF0]
00001D66  2F08                     move.l     -[A7], A0
00001D68  2049                     movea.l    A0, A1
00001D6A  2268 00F4                movea.l    A1, [A0 + 0xF4]
00001D6E  4E91                     jsr        [A1]
00001D70  204C                     movea.l    A0, A4
00001D72  226C 0060                movea.l    A1, [A4 + 0x60]
00001D76  D0E9 0100                add.w      A0, [A1 + 0x100]
00001D7A  2F08                     move.l     -[A7], A0
00001D7C  2049                     movea.l    A0, A1
00001D7E  2268 0104                movea.l    A1, [A0 + 0x104]
00001D82  4E91                     jsr        [A1]
00001D84  4FEF 0014                lea.l      A7, [A7 + 0x14]
00001D88  6000 00A0                bra        +0xA2 /* 00001E2A */
00001D8C  7001                     moveq.l    D0, 0x01
00001D8E  2F00                     move.l     -[A7], D0
00001D90  204D                     movea.l    A0, A5
00001D92  D1FC FFFF 5050           add.l      A0, 0xFFFF5050
00001D98  4850                     pea.l      [A0]
00001D9A  204C                     movea.l    A0, A4
00001D9C  226C 0060                movea.l    A1, [A4 + 0x60]
00001DA0  D0E9 0150                add.w      A0, [A1 + 0x150]
00001DA4  2F08                     move.l     -[A7], A0
00001DA6  2049                     movea.l    A0, A1
00001DA8  2268 0154                movea.l    A1, [A0 + 0x154]
00001DAC  4E91                     jsr        [A1]
00001DAE  204C                     movea.l    A0, A4
00001DB0  226C 0060                movea.l    A1, [A4 + 0x60]
00001DB4  D0E9 00F0                add.w      A0, [A1 + 0xF0]
00001DB8  2F08                     move.l     -[A7], A0
00001DBA  2049                     movea.l    A0, A1
00001DBC  2268 00F4                movea.l    A1, [A0 + 0xF4]
00001DC0  4E91                     jsr        [A1]
00001DC2  204C                     movea.l    A0, A4
00001DC4  226C 0060                movea.l    A1, [A4 + 0x60]
00001DC8  D0E9 0100                add.w      A0, [A1 + 0x100]
00001DCC  2F08                     move.l     -[A7], A0
00001DCE  2049                     movea.l    A0, A1
00001DD0  2268 0104                movea.l    A1, [A0 + 0x104]
00001DD4  4E91                     jsr        [A1]
00001DD6  4FEF 0014                lea.l      A7, [A7 + 0x14]
00001DDA  604E                     bra        +0x50 /* 00001E2A */
label00001DDC:
00001DDC  7001                     moveq.l    D0, 0x01
00001DDE  2F00                     move.l     -[A7], D0
00001DE0  204D                     movea.l    A0, A5
00001DE2  D1FC FFFF 5058           add.l      A0, 0xFFFF5058
00001DE8  4850                     pea.l      [A0]
00001DEA  204C                     movea.l    A0, A4
00001DEC  226C 0060                movea.l    A1, [A4 + 0x60]
00001DF0  D0E9 0150                add.w      A0, [A1 + 0x150]
00001DF4  2F08                     move.l     -[A7], A0
00001DF6  2049                     movea.l    A0, A1
00001DF8  2268 0154                movea.l    A1, [A0 + 0x154]
00001DFC  4E91                     jsr        [A1]
00001DFE  204C                     movea.l    A0, A4
00001E00  226C 0060                movea.l    A1, [A4 + 0x60]
00001E04  D0E9 00F8                add.w      A0, [A1 + 0xF8]
00001E08  2F08                     move.l     -[A7], A0
00001E0A  2049                     movea.l    A0, A1
00001E0C  2268 00FC                movea.l    A1, [A0 + 0xFC]
00001E10  4E91                     jsr        [A1]
00001E12  204C                     movea.l    A0, A4
00001E14  226C 0060                movea.l    A1, [A4 + 0x60]
00001E18  D0E9 0108                add.w      A0, [A1 + 0x108]
00001E1C  2F08                     move.l     -[A7], A0
00001E1E  2049                     movea.l    A0, A1
00001E20  2268 010C                movea.l    A1, [A0 + 0x10C]
00001E24  4E91                     jsr        [A1]
00001E26  4FEF 0014                lea.l      A7, [A7 + 0x14]
label00001E2A:
00001E2A  286E FFFC                movea.l    A4, [A6 - 0x4]
00001E2E  4E5E                     unlink     A6
00001E30  4E75                     rts
00001E32  8033 5365 7455 7042 7... dc.b       "SetUpButton__17cQuickPopupWindowFP14cButtonControls"
export_387:
00001E6A  4E56 FFCC                link       A6, -0x0034
00001E6E  48E7 0F18                movem.l    -[A7], D4,D5,D6,D7,A3,A4
00001E72  3A2E 0016                move.w     D5, [A6 + 0x16]
00001E76  2E2E 0010                move.l     D7, [A6 + 0x10]
00001E7A  286E 0008                movea.l    A4, [A6 + 0x8]
00001E7E  302E 000E                move.w     D0, [A6 + 0xE]
00001E82  48C0                     ext.l      D0
00001E84  2F00                     move.l     -[A7], D0
00001E86  2F0C                     move.l     -[A7], A4
00001E88  4EAD 12FA                jsr        [A5 + 0x12FA /* export_603, CODE:26 @ 000043A6 */]
00001E8C  486E FFE4                pea.l      [A6 - 0x1C]
00001E90  2F0C                     move.l     -[A7], A4
00001E92  4EAD 12B2                jsr        [A5 + 0x12B2 /* export_594, CODE:26 @ 00003D60 */]
00001E96  4AAC 016C                tst.l      [A4 + 0x16C]
00001E9A  4FEF 0010                lea.l      A7, [A7 + 0x10]
00001E9E  6716                     beq        +0x18 /* 00001EB6 */
00001EA0  302C 01B2                move.w     D0, [A4 + 0x1B2]
00001EA4  48C0                     ext.l      D0
00001EA6  2F00                     move.l     -[A7], D0
00001EA8  2F2C 016C                move.l     -[A7], [A4 + 0x16C]
00001EAC  2F0C                     move.l     -[A7], A4
00001EAE  4EBA FA68                jsr        [PC - 0x598 /* 00001918 */]
00001EB2  4FEF 000C                lea.l      A7, [A7 + 0xC]
label00001EB6:
00001EB6  4AAC 0170                tst.l      [A4 + 0x170]
00001EBA  6716                     beq        +0x18 /* 00001ED2 */
00001EBC  302C 01B4                move.w     D0, [A4 + 0x1B4]
00001EC0  48C0                     ext.l      D0
00001EC2  2F00                     move.l     -[A7], D0
00001EC4  2F2C 0170                move.l     -[A7], [A4 + 0x170]
00001EC8  2F0C                     move.l     -[A7], A4
00001ECA  4EBA FA4C                jsr        [PC - 0x5B4 /* 00001918 */]
00001ECE  4FEF 000C                lea.l      A7, [A7 + 0xC]
label00001ED2:
00001ED2  4AAC 0174                tst.l      [A4 + 0x174]
00001ED6  6716                     beq        +0x18 /* 00001EEE */
00001ED8  302C 01B6                move.w     D0, [A4 + 0x1B6]
00001EDC  48C0                     ext.l      D0
00001EDE  2F00                     move.l     -[A7], D0
00001EE0  2F2C 0174                move.l     -[A7], [A4 + 0x174]
00001EE4  2F0C                     move.l     -[A7], A4
00001EE6  4EBA FA30                jsr        [PC - 0x5D0 /* 00001918 */]
00001EEA  4FEF 000C                lea.l      A7, [A7 + 0xC]
label00001EEE:
00001EEE  3D7C 00AA FFD4           move.w     [A6 - 0x2C], 0xAA
00001EF4  4A6C 01B4                tst.w      [A4 + 0x1B4]
00001EF8  6678                     bne        +0x7A /* 00001F72 */
00001EFA  4A6C 01B6                tst.w      [A4 + 0x1B6]
00001EFE  6672                     bne        +0x74 /* 00001F72 */
00001F00  206C 016C                movea.l    A0, [A4 + 0x16C]
00001F04  43EE FFDC                lea.l      A1, [A6 - 0x24]
00001F08  41E8 0090                lea.l      A0, [A0 + 0x90]
00001F0C  22D8                     move.l     [A1]+, [A0]+
00001F0E  22D8                     move.l     [A1]+, [A0]+
00001F10  302E FFE6                move.w     D0, [A6 - 0x1A]
00001F14  48C0                     ext.l      D0
00001F16  206C 016C                movea.l    A0, [A4 + 0x16C]
00001F1A  47E8 0080                lea.l      A3, [A0 + 0x80]
00001F1E  322B 0016                move.w     D1, [A3 + 0x16]
00001F22  926B 0012                sub.w      D1, [A3 + 0x12]
00001F26  48C1                     ext.l      D1
00001F28  9081                     sub.l      D0, D1
00001F2A  4C7C 0800 0000 0002      divu.l     D2:D0, 0x8000000
00001F32  3D40 FFD6                move.w     [A6 - 0x2A], D0
00001F36  206C 016C                movea.l    A0, [A4 + 0x16C]
00001F3A  47E8 0080                lea.l      A3, [A0 + 0x80]
00001F3E  302E FFD4                move.w     D0, [A6 - 0x2C]
00001F42  906B 0010                sub.w      D0, [A3 + 0x10]
00001F46  48C0                     ext.l      D0
00001F48  2F00                     move.l     -[A7], D0
00001F4A  302E FFD6                move.w     D0, [A6 - 0x2A]
00001F4E  906B 0012                sub.w      D0, [A3 + 0x12]
00001F52  48C0                     ext.l      D0
00001F54  2F00                     move.l     -[A7], D0
00001F56  204B                     movea.l    A0, A3
00001F58  226B 0008                movea.l    A1, [A3 + 0x8]
00001F5C  D0E9 0040                add.w      A0, [A1 + 0x40]
00001F60  2F08                     move.l     -[A7], A0
00001F62  2049                     movea.l    A0, A1
00001F64  2268 0044                movea.l    A1, [A0 + 0x44]
00001F68  4E91                     jsr        [A1]
00001F6A  4FEF 000C                lea.l      A7, [A7 + 0xC]
00001F6E  6000 00E2                bra        +0xE4 /* 00002052 */
label00001F72:
00001F72  4A6C 01B4                tst.w      [A4 + 0x1B4]
00001F76  6700 00DA                beq        +0xDC /* 00002052 */
00001F7A  4A6C 01B6                tst.w      [A4 + 0x1B6]
00001F7E  6600 00D2                bne        +0xD4 /* 00002052 */
00001F82  302E FFE6                move.w     D0, [A6 - 0x1A]
00001F86  48C0                     ext.l      D0
00001F88  206C 016C                movea.l    A0, [A4 + 0x16C]
00001F8C  47E8 0080                lea.l      A3, [A0 + 0x80]
00001F90  322B 0016                move.w     D1, [A3 + 0x16]
00001F94  926B 0012                sub.w      D1, [A3 + 0x12]
00001F98  48C1                     ext.l      D1
00001F9A  2D40 FFD0                move.l     [A6 - 0x30], D0
00001F9E  2D41 FFCC                move.l     [A6 - 0x34], D1
00001FA2  206C 0170                movea.l    A0, [A4 + 0x170]
00001FA6  4868 0080                pea.l      [A0 + 0x80]
00001FAA  4EBA 03A0                jsr        [PC + 0x3A0 /* 0000234C */]
00001FAE  48C0                     ext.l      D0
00001FB0  222E FFCC                move.l     D1, [A6 - 0x34]
00001FB4  D081                     add.l      D0, D1
00001FB6  222E FFD0                move.l     D1, [A6 - 0x30]
00001FBA  9280                     sub.l      D1, D0
00001FBC  4C7C 1801 0000 0003      divu.l     D3:D0, 0x18010000
00001FC4  3801                     move.w     D4, D1
00001FC6  3D44 FFD6                move.w     [A6 - 0x2A], D4
00001FCA  206C 016C                movea.l    A0, [A4 + 0x16C]
00001FCE  47E8 0080                lea.l      A3, [A0 + 0x80]
00001FD2  302E FFD4                move.w     D0, [A6 - 0x2C]
00001FD6  906B 0010                sub.w      D0, [A3 + 0x10]
00001FDA  48C0                     ext.l      D0
00001FDC  2F00                     move.l     -[A7], D0
00001FDE  302E FFD6                move.w     D0, [A6 - 0x2A]
00001FE2  906B 0012                sub.w      D0, [A3 + 0x12]
00001FE6  48C0                     ext.l      D0
00001FE8  2F00                     move.l     -[A7], D0
00001FEA  204B                     movea.l    A0, A3
00001FEC  226B 0008                movea.l    A1, [A3 + 0x8]
00001FF0  D0E9 0040                add.w      A0, [A1 + 0x40]
00001FF4  2F08                     move.l     -[A7], A0
00001FF6  2049                     movea.l    A0, A1
00001FF8  2268 0044                movea.l    A1, [A0 + 0x44]
00001FFC  4E91                     jsr        [A1]
00001FFE  3004                     move.w     D0, D4
00002000  48C0                     ext.l      D0
00002002  D080                     add.l      D0, D0
00002004  206C 016C                movea.l    A0, [A4 + 0x16C]
00002008  47E8 0080                lea.l      A3, [A0 + 0x80]
0000200C  322B 0016                move.w     D1, [A3 + 0x16]
00002010  926B 0012                sub.w      D1, [A3 + 0x12]
00002014  D240                     add.w      D1, D0
00002016  3D41 FFD6                move.w     [A6 - 0x2A], D1
0000201A  206C 0170                movea.l    A0, [A4 + 0x170]
0000201E  47E8 0080                lea.l      A3, [A0 + 0x80]
00002022  302E FFD4                move.w     D0, [A6 - 0x2C]
00002026  906B 0010                sub.w      D0, [A3 + 0x10]
0000202A  48C0                     ext.l      D0
0000202C  2F00                     move.l     -[A7], D0
0000202E  302E FFD6                move.w     D0, [A6 - 0x2A]
00002032  906B 0012                sub.w      D0, [A3 + 0x12]
00002036  48C0                     ext.l      D0
00002038  2F00                     move.l     -[A7], D0
0000203A  204B                     movea.l    A0, A3
0000203C  226B 0008                movea.l    A1, [A3 + 0x8]
00002040  D0E9 0040                add.w      A0, [A1 + 0x40]
00002044  2F08                     move.l     -[A7], A0
00002046  2049                     movea.l    A0, A1
00002048  2268 0044                movea.l    A1, [A0 + 0x44]
0000204C  4E91                     jsr        [A1]
0000204E  4FEF 001C                lea.l      A7, [A7 + 0x1C]
label00002052:
00002052  204D                     movea.l    A0, A5
00002054  D1FC FFFF F110           add.l      A0, 0xFFFFF110
0000205A  4A10                     tst.b      [A0]
0000205C  671E                     beq        +0x20 /* 0000207C */
0000205E  204C                     movea.l    A0, A4
00002060  226C 0060                movea.l    A1, [A4 + 0x60]
00002064  D0E9 0210                add.w      A0, [A1 + 0x210]
00002068  2F08                     move.l     -[A7], A0
0000206A  2049                     movea.l    A0, A1
0000206C  2268 0214                movea.l    A1, [A0 + 0x214]
00002070  4E91                     jsr        [A1]
00002072  197C 0001 0182           move.b     [A4 + 0x182], 0x1
00002078  584F                     addq.w     A7, 4
0000207A  601E                     bra        +0x20 /* 0000209A */
label0000207C:
0000207C  7001                     moveq.l    D0, 0x01
0000207E  2F00                     move.l     -[A7], D0
00002080  204C                     movea.l    A0, A4
00002082  226C 0060                movea.l    A1, [A4 + 0x60]
00002086  D0E9 0108                add.w      A0, [A1 + 0x108]
0000208A  2F08                     move.l     -[A7], A0
0000208C  2049                     movea.l    A0, A1
0000208E  2268 010C                movea.l    A1, [A0 + 0x10C]
00002092  4E91                     jsr        [A1]
00002094  422C 0182                clr.b      [A4 + 0x182]
00002098  504F                     addq.w     A7, 8
label0000209A:
0000209A  426C 0180                clr.w      [A4 + 0x180]
0000209E  598F                     subq.l     A7, 4
000020A0  A975                     syscall    TickCount
000020A2  295F 01A8                move.l     [A4 + 0x1A8], [A7]+
000020A6  7000                     moveq.l    D0, 0x00
000020A8  2D40 FFFC                move.l     [A6 - 0x4], D0
000020AC  6000 023E                bra        +0x240 /* 000022EC */
label000020B0:
000020B0  558F                     subq.l     A7, 2
000020B2  70FF                     moveq.l    D0, 0xFFFFFFFF
000020B4  3F00                     move.w     -[A7], D0
000020B6  486E FFE8                pea.l      [A6 - 0x18]
000020BA  7200                     moveq.l    D1, 0x00
000020BC  2F01                     move.l     -[A7], D1
000020BE  2F2E FFFC                move.l     -[A7], [A6 - 0x4]
000020C2  A860                     syscall    WaitNextEvent
000020C4  1C1F                     move.b     D6, [A7]+
000020C6  4A2C 0182                tst.b      [A4 + 0x182]
000020CA  6728                     beq        +0x2A /* 000020F4 */
000020CC  700F                     moveq.l    D0, 0x0F
000020CE  B06E FFE8                cmp.w      D0, [A6 - 0x18]
000020D2  6600 0218                bne        +0x21A /* 000022EC */
000020D6  486E FFE8                pea.l      [A6 - 0x18]
000020DA  204C                     movea.l    A0, A4
000020DC  226C 0060                movea.l    A1, [A4 + 0x60]
000020E0  D0E9 0220                add.w      A0, [A1 + 0x220]
000020E4  2F08                     move.l     -[A7], A0
000020E6  2049                     movea.l    A0, A1
000020E8  2268 0224                movea.l    A1, [A0 + 0x224]
000020EC  4E91                     jsr        [A1]
000020EE  504F                     addq.w     A7, 8
000020F0  6000 01FA                bra        +0x1FC /* 000022EC */
label000020F4:
000020F4  4A87                     tst.l      D7
000020F6  6F18                     ble        +0x1A /* 00002110 */
000020F8  598F                     subq.l     A7, 4
000020FA  A975                     syscall    TickCount
000020FC  281F                     move.l     D4, [A7]+
000020FE  598F                     subq.l     A7, 4
00002100  A975                     syscall    TickCount
00002102  201F                     move.l     D0, [A7]+
00002104  90AC 01A8                sub.l      D0, [A4 + 0x1A8]
00002108  BE80                     cmp.l      D7, D0
0000210A  6404                     bcc        +0x6 /* 00002110 */
0000210C  3945 0180                move.w     [A4 + 0x180], D5
label00002110:
00002110  4A06                     tst.b      D6
00002112  661A                     bne        +0x1C /* 0000212E */
00002114  204C                     movea.l    A0, A4
00002116  226C 0060                movea.l    A1, [A4 + 0x60]
0000211A  D0E9 0118                add.w      A0, [A1 + 0x118]
0000211E  2F08                     move.l     -[A7], A0
00002120  2049                     movea.l    A0, A1
00002122  2268 011C                movea.l    A1, [A0 + 0x11C]
00002126  4E91                     jsr        [A1]
00002128  584F                     addq.w     A7, 4
0000212A  6000 01C0                bra        +0x1C2 /* 000022EC */
label0000212E:
0000212E  302E FFE8                move.w     D0, [A6 - 0x18]
00002132  6B00 01B8                bmi        +0x1BA /* 000022EC */
00002136  0C40 0017                cmpi.w     D0, 0x17
0000213A  6E00 01B0                bgt        +0x1B2 /* 000022EC */
0000213E  D040                     add.w      D0, D0
00002140  303B 0006                move.w     D0, [PC + D0.w + 0x6]
00002144  4EFB 0000                jmp        [PC + D0.w]
00002148  0190                     bclr       [A0], D0
0000214A  0032 01A6 00FE           ori.b      [A2 + D0.w - 0x2], 0xA6
00002150  011C                     btst       [A4]+, D0
00002152  00FE                     .incomplete
00002154  0138 01A6                btst       [0x000001A6], D0
00002158  0160                     bchg       -[A0], D0
0000215A  01A6                     bclr       -[A6], D0
0000215C  01A6                     bclr       -[A6], D0
0000215E  01A6                     bclr       -[A6], D0
00002160  01A6                     bclr       -[A6], D0
00002162  01A6                     bclr       -[A6], D0
00002164  01A6                     bclr       -[A6], D0
00002166  01A6                     bclr       -[A6], D0
00002168  01A6                     bclr       -[A6], D0
0000216A  01A6                     bclr       -[A6], D0
0000216C  01A6                     bclr       -[A6], D0
0000216E  01A6                     bclr       -[A6], D0
00002170  01A6                     bclr       -[A6], D0
00002172  01A6                     bclr       -[A6], D0
00002174  01A6                     bclr       -[A6], D0
00002176  01A6                     bclr       -[A6], D0
00002178  558F                     subq.l     A7, 2
0000217A  2F2E FFF2                move.l     -[A7], [A6 - 0xE]
0000217E  486E FFF8                pea.l      [A6 - 0x8]
00002182  A92C                     syscall    FindWindow
00002184  301F                     move.w     D0, [A7]+
00002186  6B00 0164                bmi        +0x166 /* 000022EC */
0000218A  0C40 0008                cmpi.w     D0, 0x8
0000218E  6E00 015C                bgt        +0x15E /* 000022EC */
00002192  D040                     add.w      D0, D0
00002194  303B 0006                move.w     D0, [PC + D0.w + 0x6]
00002198  4EFB 0000                jmp        [PC + D0.w]
0000219C  0152                     bchg       [A2], D0
0000219E  0152                     bchg       [A2], D0
000021A0  0152                     bchg       [A2], D0
000021A2  0018 004C                ori.b      [A0]+, 0x4C /* 'L' */
000021A6  0152                     bchg       [A2], D0
000021A8  0080 0152 0152           ori.l      D0, 0x1520152
000021AE  6000 013C                bra        +0x13E /* 000022EC */
000021B2  206E FFF8                movea.l    A0, [A6 - 0x8]
000021B6  2668 0098                movea.l    A3, [A0 + 0x98]
000021BA  B9CB                     cmpa.l     A4, A3
000021BC  670A                     beq        +0xC /* 000021C8 */
000021BE  7001                     moveq.l    D0, 0x01
000021C0  3F00                     move.w     -[A7], D0
000021C2  A9C8                     syscall    SysBeep
000021C4  6000 0126                bra        +0x128 /* 000022EC */
label000021C8:
000021C8  486E FFE8                pea.l      [A6 - 0x18]
000021CC  204C                     movea.l    A0, A4
000021CE  226C 0060                movea.l    A1, [A4 + 0x60]
000021D2  D0E9 0080                add.w      A0, [A1 + 0x80]
000021D6  2F08                     move.l     -[A7], A0
000021D8  2049                     movea.l    A0, A1
000021DA  2268 0084                movea.l    A1, [A0 + 0x84]
000021DE  4E91                     jsr        [A1]
000021E0  504F                     addq.w     A7, 8
000021E2  6000 0108                bra        +0x10A /* 000022EC */
000021E6  206E FFF8                movea.l    A0, [A6 - 0x8]
000021EA  2668 0098                movea.l    A3, [A0 + 0x98]
000021EE  B9CB                     cmpa.l     A4, A3
000021F0  670A                     beq        +0xC /* 000021FC */
000021F2  7001                     moveq.l    D0, 0x01
000021F4  3F00                     move.w     -[A7], D0
000021F6  A9C8                     syscall    SysBeep
000021F8  6000 00F2                bra        +0xF4 /* 000022EC */
label000021FC:
000021FC  486E FFE8                pea.l      [A6 - 0x18]
00002200  204C                     movea.l    A0, A4
00002202  226C 0060                movea.l    A1, [A4 + 0x60]
00002206  D0E9 0088                add.w      A0, [A1 + 0x88]
0000220A  2F08                     move.l     -[A7], A0
0000220C  2049                     movea.l    A0, A1
0000220E  2268 008C                movea.l    A1, [A0 + 0x8C]
00002212  4E91                     jsr        [A1]
00002214  504F                     addq.w     A7, 8
00002216  6000 00D4                bra        +0xD6 /* 000022EC */
0000221A  206E FFF8                movea.l    A0, [A6 - 0x8]
0000221E  2668 0098                movea.l    A3, [A0 + 0x98]
00002222  200B                     move.l     D0, A3
00002224  6700 00C6                beq        +0xC8 /* 000022EC */
00002228  558F                     subq.l     A7, 2
0000222A  2F2E FFF8                move.l     -[A7], [A6 - 0x8]
0000222E  2F2E FFF2                move.l     -[A7], [A6 - 0xE]
00002232  A91E                     syscall    TrackGoAway
00002234  4A1F                     tst.b      [A7]+
00002236  6700 00B4                beq        +0xB6 /* 000022EC */
0000223A  397C 0001 0180           move.w     [A4 + 0x180], 0x1
00002240  6000 00AA                bra        +0xAC /* 000022EC */
00002244  486E FFE8                pea.l      [A6 - 0x18]
00002248  204C                     movea.l    A0, A4
0000224A  226C 0060                movea.l    A1, [A4 + 0x60]
0000224E  D0E9 00A0                add.w      A0, [A1 + 0xA0]
00002252  2F08                     move.l     -[A7], A0
00002254  2049                     movea.l    A0, A1
00002256  2268 00A4                movea.l    A1, [A0 + 0xA4]
0000225A  4E91                     jsr        [A1]
0000225C  504F                     addq.w     A7, 8
0000225E  6000 008C                bra        +0x8E /* 000022EC */
00002262  486E FFE8                pea.l      [A6 - 0x18]
00002266  204C                     movea.l    A0, A4
00002268  226C 0060                movea.l    A1, [A4 + 0x60]
0000226C  D0E9 00A8                add.w      A0, [A1 + 0xA8]
00002270  2F08                     move.l     -[A7], A0
00002272  2049                     movea.l    A0, A1
00002274  2268 00AC                movea.l    A1, [A0 + 0xAC]
00002278  4E91                     jsr        [A1]
0000227A  504F                     addq.w     A7, 8
0000227C  606E                     bra        +0x70 /* 000022EC */
0000227E  206E FFEA                movea.l    A0, [A6 - 0x16]
00002282  2668 0098                movea.l    A3, [A0 + 0x98]
00002286  200B                     move.l     D0, A3
00002288  6762                     beq        +0x64 /* 000022EC */
0000228A  7001                     moveq.l    D0, 0x01
0000228C  2F00                     move.l     -[A7], D0
0000228E  204B                     movea.l    A0, A3
00002290  226B 0060                movea.l    A1, [A3 + 0x60]
00002294  D0E9 00B0                add.w      A0, [A1 + 0xB0]
00002298  2F08                     move.l     -[A7], A0
0000229A  2049                     movea.l    A0, A1
0000229C  2268 00B4                movea.l    A1, [A0 + 0xB4]
000022A0  4E91                     jsr        [A1]
000022A2  504F                     addq.w     A7, 8
000022A4  6046                     bra        +0x48 /* 000022EC */
000022A6  206E FFEA                movea.l    A0, [A6 - 0x16]
000022AA  2668 0098                movea.l    A3, [A0 + 0x98]
000022AE  200B                     move.l     D0, A3
000022B0  673A                     beq        +0x3C /* 000022EC */
000022B2  7001                     moveq.l    D0, 0x01
000022B4  C06E FFF6                and.w      D0, [A6 - 0xA]
000022B8  7200                     moveq.l    D1, 0x00
000022BA  1200                     move.b     D1, D0
000022BC  2F01                     move.l     -[A7], D1
000022BE  204B                     movea.l    A0, A3
000022C0  226B 0060                movea.l    A1, [A3 + 0x60]
000022C4  D0E9 00B8                add.w      A0, [A1 + 0xB8]
000022C8  2F08                     move.l     -[A7], A0
000022CA  2049                     movea.l    A0, A1
000022CC  2268 00BC                movea.l    A1, [A0 + 0xBC]
000022D0  4E91                     jsr        [A1]
000022D2  504F                     addq.w     A7, 8
000022D4  6016                     bra        +0x18 /* 000022EC */
000022D6  204C                     movea.l    A0, A4
000022D8  226C 0060                movea.l    A1, [A4 + 0x60]
000022DC  D0E9 0118                add.w      A0, [A1 + 0x118]
000022E0  2F08                     move.l     -[A7], A0
000022E2  2049                     movea.l    A0, A1
000022E4  2268 011C                movea.l    A1, [A0 + 0x11C]
000022E8  4E91                     jsr        [A1]
000022EA  584F                     addq.w     A7, 4
label000022EC:
000022EC  4A6C 0180                tst.w      [A4 + 0x180]
000022F0  6700 FDBE                beq        -0x240 /* 000020B0 */
000022F4  204C                     movea.l    A0, A4
000022F6  226C 0060                movea.l    A1, [A4 + 0x60]
000022FA  D0E9 0078                add.w      A0, [A1 + 0x78]
000022FE  2F08                     move.l     -[A7], A0
00002300  2049                     movea.l    A0, A1
00002302  2268 007C                movea.l    A1, [A0 + 0x7C]
00002306  4E91                     jsr        [A1]
00002308  302C 0180                move.w     D0, [A4 + 0x180]
0000230C  584F                     addq.w     A7, 4
0000230E  4CEE 18F0 FFB4           movem.l    D4,D5,D6,D7,A3,A4, [A6 - 0x4C]
00002314  4E5E                     unlink     A6
00002316  4E75                     rts
00002318  802F 4275 696C 6441 6... dc.b       "BuildAndWaitForAnswer__17cQuickPopupWindowFslT1"
fn0000234C:
0000234C  4E56 0000                link       A6, 0
00002350  2F0C                     move.l     -[A7], A4
00002352  286E 0008                movea.l    A4, [A6 + 0x8]
00002356  302C 0016                move.w     D0, [A4 + 0x16]
0000235A  906C 0012                sub.w      D0, [A4 + 0x12]
0000235E  286E FFFC                movea.l    A4, [A6 - 0x4]
00002362  4E5E                     unlink     A6
00002364  4E75                     rts
00002366  9757 6964 7468 5F5F 3... dc.b       "Width__12cContentLinkFv"
export_388:
00002380  4E56 0000                link       A6, 0
00002384  48E7 1018                movem.l    -[A7], D3,A3,A4
00002388  266E 000C                movea.l    A3, [A6 + 0xC]
0000238C  286E 0008                movea.l    A4, [A6 + 0x8]
00002390  200C                     move.l     D0, A4
00002392  6612                     bne        +0x14 /* 000023A6 */
00002394  4878 01CE                push.l     0x1CE
00002398  4EAD 010A                jsr        [A5 + 0x10A /* export_29, CODE:1 @ 00001C0A */]
0000239C  2840                     movea.l    A4, D0
0000239E  200C                     move.l     D0, A4
000023A0  584F                     addq.w     A7, 4
000023A2  6700 0104                beq        +0x106 /* 000024A8 */
label000023A6:
000023A6  200B                     move.l     D0, A3
000023A8  57C3                     seq        D3
000023AA  4403                     neg.b      D3
000023AC  674E                     beq        +0x50 /* 000023FC */
000023AE  264C                     movea.l    A3, A4
000023B0  47EB 01C2                lea.l      A3, [A3 + 0x1C2]
000023B4  7601                     moveq.l    D3, 0x01
000023B6  200C                     move.l     D0, A4
000023B8  D0BC 0000 01C2           add.l      D0, 0x1C2
000023BE  6614                     bne        +0x16 /* 000023D4 */
000023C0  2F03                     move.l     -[A7], D3
000023C2  700C                     moveq.l    D0, 0x0C
000023C4  2F00                     move.l     -[A7], D0
000023C6  4EAD 010A                jsr        [A5 + 0x10A /* export_29, CODE:1 @ 00001C0A */]
000023CA  588F                     addq.l     A7, 4
000023CC  261F                     move.l     D3, [A7]+
000023CE  4A80                     tst.l      D0
000023D0  6602                     bne        +0x4 /* 000023D4 */
000023D2  7600                     moveq.l    D3, 0x00
label000023D4:
000023D4  4A03                     tst.b      D3
000023D6  6718                     beq        +0x1A /* 000023F0 */
000023D8  204D                     movea.l    A0, A5
000023DA  D1FC FFFF 831E           add.l      A0, 0xFFFF831E
000023E0  2950 01CA                move.l     [A4 + 0x1CA], [A0]
000023E4  7000                     moveq.l    D0, 0x00
000023E6  2940 01C2                move.l     [A4 + 0x1C2], D0
000023EA  2940 01C6                move.l     [A4 + 0x1C6], D0
000023EE  6002                     bra        +0x4 /* 000023F2 */
label000023F0:
000023F0  7000                     moveq.l    D0, 0x00
label000023F2:
000023F2  200C                     move.l     D0, A4
000023F4  D0BC 0000 01C2           add.l      D0, 0x1C2
000023FA  6002                     bra        +0x4 /* 000023FE */
label000023FC:
000023FC  200B                     move.l     D0, A3
label000023FE:
000023FE  7000                     moveq.l    D0, 0x00
00002400  2F00                     move.l     -[A7], D0
00002402  2F3C 4169 7220           move.l     -[A7], 0x41697220 /* 'Air ' */
00002408  2F2E 0010                move.l     -[A7], [A6 + 0x10]
0000240C  2F0B                     move.l     -[A7], A3
0000240E  2F0C                     move.l     -[A7], A4
00002410  4EAD 10AA                jsr        [A5 + 0x10AA /* export_529, CODE:26 @ 0000020E */]
00002414  204D                     movea.l    A0, A5
00002416  D1FC FFFF 8322           add.l      A0, 0xFFFF8322
0000241C  2950 0060                move.l     [A4 + 0x60], [A0]
00002420  206C 0064                movea.l    A0, [A4 + 0x64]
00002424  224D                     movea.l    A1, A5
00002426  D3FC FFFF 8326           add.l      A1, 0xFFFF8326
0000242C  2151 0008                move.l     [A0 + 0x8], [A1]
00002430  204D                     movea.l    A0, A5
00002432  D1FC FFFF 832A           add.l      A0, 0xFFFF832A
00002438  2950 0070                move.l     [A4 + 0x70], [A0]
0000243C  7000                     moveq.l    D0, 0x00
0000243E  2F00                     move.l     -[A7], D0
00002440  486C 0188                pea.l      [A4 + 0x188]
00002444  4EAD 1D5A                jsr        [A5 + 0x1D5A /* export_935, CODE:36 @ 00001140 */]
00002448  204D                     movea.l    A0, A5
0000244A  D1FC FFFF 832E           add.l      A0, 0xFFFF832E
00002450  2950 0190                move.l     [A4 + 0x190], [A0]
00002454  41EC 0188                lea.l      A0, [A4 + 0x188]
00002458  224D                     movea.l    A1, A5
0000245A  D3FC FFFE 998E           add.l      A1, 0xFFFE998E
00002460  41D1                     lea.l      A0, [A1]
00002462  224D                     movea.l    A1, A5
00002464  D3FC FFFF 82EC           add.l      A1, 0xFFFF82EC
0000246A  2288                     move.l     [A1], A0
0000246C  204D                     movea.l    A0, A5
0000246E  D1FC FFFF 82F0           add.l      A0, 0xFFFF82F0
00002474  30BC 00DD                move.w     [A0], 0xDD
00002478  422C 01A6                clr.b      [A4 + 0x1A6]
0000247C  70FF                     moveq.l    D0, 0xFFFFFFFF
0000247E  2F00                     move.l     -[A7], D0
00002480  4878 0096                push.l     0x96
00002484  204C                     movea.l    A0, A4
00002486  226C 0060                movea.l    A1, [A4 + 0x60]
0000248A  D0E9 0068                add.w      A0, [A1 + 0x68]
0000248E  2F08                     move.l     -[A7], A0
00002490  2049                     movea.l    A0, A1
00002492  2268 006C                movea.l    A1, [A0 + 0x6C]
00002496  4E91                     jsr        [A1]
00002498  2F0C                     move.l     -[A7], A4
0000249A  4EBA 1DF4                jsr        [PC + 0x1DF4 /* 00004290 */]
0000249E  2F0C                     move.l     -[A7], A4
000024A0  4EBA 079E                jsr        [PC + 0x79E /* 00002C40 */]
000024A4  4FEF 0030                lea.l      A7, [A7 + 0x30]
label000024A8:
000024A8  200C                     move.l     D0, A4
000024AA  4CEE 1808 FFF4           movem.l    D3,A3,A4, [A6 - 0xC]
000024B0  4E5E                     unlink     A6
000024B2  4E75                     rts
000024B4  8020 5F5F 6374 5F5F 3... dc.b       "__ct__15cAirplaneWindowFP6cAgent"
export_389:
000024D8  4E56 0000                link       A6, 0
000024DC  48E7 0108                movem.l    -[A7], D7,A4
000024E0  2E2E 000C                move.l     D7, [A6 + 0xC]
000024E4  286E 0008                movea.l    A4, [A6 + 0x8]
000024E8  200C                     move.l     D0, A4
000024EA  6774                     beq        +0x76 /* 00002560 */
000024EC  204D                     movea.l    A0, A5
000024EE  D1FC FFFF 832A           add.l      A0, 0xFFFF832A
000024F4  2950 0070                move.l     [A4 + 0x70], [A0]
000024F8  206C 0064                movea.l    A0, [A4 + 0x64]
000024FC  224D                     movea.l    A1, A5
000024FE  D3FC FFFF 8326           add.l      A1, 0xFFFF8326
00002504  2151 0008                move.l     [A0 + 0x8], [A1]
00002508  204D                     movea.l    A0, A5
0000250A  D1FC FFFF 8322           add.l      A0, 0xFFFF8322
00002510  2950 0060                move.l     [A4 + 0x60], [A0]
00002514  200C                     move.l     D0, A4
00002516  6748                     beq        +0x4A /* 00002560 */
00002518  7002                     moveq.l    D0, 0x02
0000251A  2F00                     move.l     -[A7], D0
0000251C  486C 0188                pea.l      [A4 + 0x188]
00002520  4EAD 16CA                jsr        [A5 + 0x16CA /* export_725, CODE:32 @ 00003F94 */]
00002524  7000                     moveq.l    D0, 0x00
00002526  2F00                     move.l     -[A7], D0
00002528  2F0C                     move.l     -[A7], A4
0000252A  4EAD 10B2                jsr        [A5 + 0x10B2 /* export_530, CODE:26 @ 000003EC */]
0000252E  7002                     moveq.l    D0, 0x02
00002530  C087                     and.l      D0, D7
00002532  6718                     beq        +0x1A /* 0000254C */
00002534  7000                     moveq.l    D0, 0x00
00002536  2F00                     move.l     -[A7], D0
00002538  220C                     move.l     D1, A4
0000253A  D2BC 0000 01C2           add.l      D1, 0x1C2
00002540  2F01                     move.l     -[A7], D1
00002542  4EAD 1632                jsr        [A5 + 0x1632 /* export_706, CODE:32 @ 000036CC */]
00002546  7000                     moveq.l    D0, 0x00
00002548  504F                     addq.w     A7, 8
0000254A  6002                     bra        +0x4 /* 0000254E */
label0000254C:
0000254C  7000                     moveq.l    D0, 0x00
label0000254E:
0000254E  0807 0000                btst.b     D7, 0x0
00002552  4FEF 0010                lea.l      A7, [A7 + 0x10]
00002556  6708                     beq        +0xA /* 00002560 */
00002558  2F0C                     move.l     -[A7], A4
0000255A  4EAD 0102                jsr        [A5 + 0x102 /* export_28, CODE:1 @ 00001BE0 */]
0000255E  584F                     addq.w     A7, 4
label00002560:
00002560  4CEE 1080 FFF8           movem.l    D7,A4, [A6 - 0x8]
00002566  4E5E                     unlink     A6
00002568  4E75                     rts
0000256A  995F 5F64 745F 5F31 3... dc.b       "__dt__15cAirplaneWindowFv"
export_390:
00002586  4E56 0000                link       A6, 0
0000258A  2F0C                     move.l     -[A7], A4
0000258C  286E 0008                movea.l    A4, [A6 + 0x8]
00002590  224D                     movea.l    A1, A5
00002592  D3FC FFFE 998E           add.l      A1, 0xFFFE998E
00002598  41D1                     lea.l      A0, [A1]
0000259A  224D                     movea.l    A1, A5
0000259C  D3FC FFFF 82EC           add.l      A1, 0xFFFF82EC
000025A2  2288                     move.l     [A1], A0
000025A4  204D                     movea.l    A0, A5
000025A6  D1FC FFFF 82F0           add.l      A0, 0xFFFF82F0
000025AC  30BC 00DD                move.w     [A0], 0xDD
000025B0  2F0C                     move.l     -[A7], A4
000025B2  4EBA 1CDC                jsr        [PC + 0x1CDC /* 00004290 */]
000025B6  7001                     moveq.l    D0, 0x01
000025B8  2F00                     move.l     -[A7], D0
000025BA  204C                     movea.l    A0, A4
000025BC  226C 0060                movea.l    A1, [A4 + 0x60]
000025C0  D0E9 0108                add.w      A0, [A1 + 0x108]
000025C4  2F08                     move.l     -[A7], A0
000025C6  2049                     movea.l    A0, A1
000025C8  2268 010C                movea.l    A1, [A0 + 0x10C]
000025CC  4E91                     jsr        [A1]
000025CE  286E FFFC                movea.l    A4, [A6 - 0x4]
000025D2  4E5E                     unlink     A6
000025D4  4E75                     rts
000025D6  8024 4578 616D 696E 6... dc.b       "ExamineAirplane__15cAirplaneWindowFv"
export_391:
000025FE  4E56 0000                link       A6, 0
00002602  2F0C                     move.l     -[A7], A4
00002604  286E 0008                movea.l    A4, [A6 + 0x8]
00002608  204C                     movea.l    A0, A4
0000260A  226C 0060                movea.l    A1, [A4 + 0x60]
0000260E  D0E9 0110                add.w      A0, [A1 + 0x110]
00002612  2F08                     move.l     -[A7], A0
00002614  2049                     movea.l    A0, A1
00002616  2268 0114                movea.l    A1, [A0 + 0x114]
0000261A  4E91                     jsr        [A1]
0000261C  2F0C                     move.l     -[A7], A4
0000261E  2F3C 574E 4435           move.l     -[A7], 0x574E4435 /* 'WND5' */
00002624  204C                     movea.l    A0, A4
00002626  226C 0060                movea.l    A1, [A4 + 0x60]
0000262A  D0E9 0060                add.w      A0, [A1 + 0x60]
0000262E  2F08                     move.l     -[A7], A0
00002630  2049                     movea.l    A0, A1
00002632  2268 0064                movea.l    A1, [A0 + 0x64]
00002636  4E91                     jsr        [A1]
00002638  7001                     moveq.l    D0, 0x01
0000263A  286E FFFC                movea.l    A4, [A6 - 0x4]
0000263E  4E5E                     unlink     A6
00002640  4E75                     rts
00002642  9A43 6C6F 7365 5F5F 3... dc.b       "Close__15cAirplaneWindowFv"
export_392:
00002660  4E56 FFFC                link       A6, -0x0004
00002664  48E7 0318                movem.l    -[A7], D6,D7,A3,A4
00002668  2C2E 000C                move.l     D6, [A6 + 0xC]
0000266C  266E 0010                movea.l    A3, [A6 + 0x10]
00002670  286E 0008                movea.l    A4, [A6 + 0x8]
00002674  2006                     move.l     D0, D6
00002676  0480 436C 5761           subi.l     D0, 0x436C5761 /* 'ClWa' */
0000267C  671A                     beq        +0x1C /* 00002698 */
0000267E  0480 03D5 FCCF           subi.l     D0, 0x3D5FCCF
00002684  6754                     beq        +0x56 /* 000026DA */
00002686  5180                     subq.l     D0, 8
00002688  6700 0098                beq        +0x9A /* 00002722 */
0000268C  0480 0723 230F           subi.l     D0, 0x723230F
00002692  671E                     beq        +0x20 /* 000026B2 */
00002694  6000 055C                bra        +0x55E /* 00002BF2 */
label00002698:
00002698  204C                     movea.l    A0, A4
0000269A  226C 0060                movea.l    A1, [A4 + 0x60]
0000269E  D0E9 0110                add.w      A0, [A1 + 0x110]
000026A2  2F08                     move.l     -[A7], A0
000026A4  2049                     movea.l    A0, A1
000026A6  2268 0114                movea.l    A1, [A0 + 0x114]
000026AA  4E91                     jsr        [A1]
000026AC  584F                     addq.w     A7, 4
000026AE  6000 0542                bra        +0x544 /* 00002BF2 */
label000026B2:
000026B2  204D                     movea.l    A0, A5
000026B4  D1FC FFFF 8826           add.l      A0, 0xFFFF8826
000026BA  4A10                     tst.b      [A0]
000026BC  6714                     beq        +0x16 /* 000026D2 */
000026BE  4878 2337                push.l     0x2337 /* '#7' */
000026C2  4EAD 0202                jsr        [A5 + 0x202 /* export_60, CODE:1 @ 000045A2 */]
000026C6  204D                     movea.l    A0, A5
000026C8  D1FC FFFF 8826           add.l      A0, 0xFFFF8826
000026CE  4210                     clr.b      [A0]
000026D0  584F                     addq.w     A7, 4
label000026D2:
000026D2  422C 01A6                clr.b      [A4 + 0x1A6]
000026D6  6000 051A                bra        +0x51C /* 00002BF2 */
label000026DA:
000026DA  7008                     moveq.l    D0, 0x08
000026DC  2F00                     move.l     -[A7], D0
000026DE  2F0C                     move.l     -[A7], A4
000026E0  4EAD 11FA                jsr        [A5 + 0x11FA /* export_571, CODE:26 @ 00003354 */]
000026E4  B08B                     cmp.l      D0, A3
000026E6  504F                     addq.w     A7, 8
000026E8  661A                     bne        +0x1C /* 00002704 */
000026EA  204C                     movea.l    A0, A4
000026EC  226C 0060                movea.l    A1, [A4 + 0x60]
000026F0  D0E9 0078                add.w      A0, [A1 + 0x78]
000026F4  2F08                     move.l     -[A7], A0
000026F6  2049                     movea.l    A0, A1
000026F8  2268 007C                movea.l    A1, [A0 + 0x7C]
000026FC  4E91                     jsr        [A1]
000026FE  584F                     addq.w     A7, 4
00002700  6000 0502                bra        +0x504 /* 00002C04 */
label00002704:
00002704  7007                     moveq.l    D0, 0x07
00002706  2F00                     move.l     -[A7], D0
00002708  2F0C                     move.l     -[A7], A4
0000270A  4EAD 11FA                jsr        [A5 + 0x11FA /* export_571, CODE:26 @ 00003354 */]
0000270E  B08B                     cmp.l      D0, A3
00002710  504F                     addq.w     A7, 8
00002712  6600 04F0                bne        +0x4F2 /* 00002C04 */
00002716  2F0C                     move.l     -[A7], A4
00002718  4EBA 0BDC                jsr        [PC + 0xBDC /* 000032F6 */]
0000271C  584F                     addq.w     A7, 4
0000271E  6000 04E4                bra        +0x4E6 /* 00002C04 */
label00002722:
00002722  204D                     movea.l    A0, A5
00002724  D1FC FFFF 82EC           add.l      A0, 0xFFFF82EC
0000272A  4A90                     tst.l      [A0]
0000272C  6700 0092                beq        +0x94 /* 000027C0 */
00002730  224D                     movea.l    A1, A5
00002732  D3FC FFFF 82EC           add.l      A1, 0xFFFF82EC
00002738  2051                     movea.l    A0, [A1]
0000273A  7000                     moveq.l    D0, 0x00
0000273C  3028 0006                move.w     D0, [A0 + 0x6]
00002740  4A80                     tst.l      D0
00002742  4C7C 0800 0000 000A      divu.l     D2:D0, 0x8000000
0000274A  204D                     movea.l    A0, A5
0000274C  D1FC FFFF 82EA           add.l      A0, 0xFFFF82EA
00002752  3080                     move.w     [A0], D0
00002754  204D                     movea.l    A0, A5
00002756  D1FC FFFF 82F6           add.l      A0, 0xFFFF82F6
0000275C  3010                     move.w     D0, [A0]
0000275E  C1FC 003A                muls.w     D0, 0x3A /* ':' */
00002762  204D                     movea.l    A0, A5
00002764  D1FC FFFE 9F9C           add.l      A0, 0xFFFE9F9C
0000276A  7200                     moveq.l    D1, 0x00
0000276C  1230 0011                move.b     D1, [A0 + D0.w + 0x11]
00002770  4A81                     tst.l      D1
00002772  204D                     movea.l    A0, A5
00002774  D1FC FFFF 82E8           add.l      A0, 0xFFFF82E8
0000277A  3081                     move.w     [A0], D1
0000277C  204D                     movea.l    A0, A5
0000277E  D1FC FFFF 82F6           add.l      A0, 0xFFFF82F6
00002784  3010                     move.w     D0, [A0]
00002786  C1FC 003A                muls.w     D0, 0x3A /* ':' */
0000278A  204D                     movea.l    A0, A5
0000278C  D1FC FFFE 9F9C           add.l      A0, 0xFFFE9F9C
00002792  224D                     movea.l    A1, A5
00002794  D3FC FFFF 82E6           add.l      A1, 0xFFFF82E6
0000279A  32B0 0014                move.w     [A1], [A0 + D0.w + 0x14]
0000279E  204D                     movea.l    A0, A5
000027A0  D1FC FFFF 82F6           add.l      A0, 0xFFFF82F6
000027A6  3010                     move.w     D0, [A0]
000027A8  C1FC 003A                muls.w     D0, 0x3A /* ':' */
000027AC  204D                     movea.l    A0, A5
000027AE  D1FC FFFE 9F9C           add.l      A0, 0xFFFE9F9C
000027B4  224D                     movea.l    A1, A5
000027B6  D3FC FFFF 82E4           add.l      A1, 0xFFFF82E4
000027BC  32B0 0022                move.w     [A1], [A0 + D0.w + 0x22]
label000027C0:
000027C0  B7EC 017C                cmpa.l     A3, [A4 + 0x17C]
000027C4  6600 00AC                bne        +0xAE /* 00002872 */
000027C8  204D                     movea.l    A0, A5
000027CA  D1FC FFFF 82F0           add.l      A0, 0xFFFF82F0
000027D0  0C50 00DD                cmpi.w     [A0], 0xDD
000027D4  6700 0412                beq        +0x414 /* 00002BE8 */
000027D8  204D                     movea.l    A0, A5
000027DA  D1FC FFFF 82F6           add.l      A0, 0xFFFF82F6
000027E0  3010                     move.w     D0, [A0]
000027E2  C1FC 003A                muls.w     D0, 0x3A /* ':' */
000027E6  204D                     movea.l    A0, A5
000027E8  D1FC FFFE 9F9C           add.l      A0, 0xFFFE9F9C
000027EE  224D                     movea.l    A1, A5
000027F0  D3FC FFFF 82EA           add.l      A1, 0xFFFF82EA
000027F6  3211                     move.w     D1, [A1]
000027F8  C2F0 0022                mulu.w     D1, [A0 + D0.w + 0x22]
000027FC  2F01                     move.l     -[A7], D1
000027FE  70FF                     moveq.l    D0, 0xFFFFFFFF
00002800  2F00                     move.l     -[A7], D0
00002802  4EAD 0602                jsr        [A5 + 0x602 /* export_188, CODE:10 @ 00002E6C */]
00002806  204D                     movea.l    A0, A5
00002808  D1FC FFFF 82F6           add.l      A0, 0xFFFF82F6
0000280E  3010                     move.w     D0, [A0]
00002810  C1FC 003A                muls.w     D0, 0x3A /* ':' */
00002814  204D                     movea.l    A0, A5
00002816  D1FC FFFE 9F9C           add.l      A0, 0xFFFE9F9C
0000281C  4270 0022                clr.w      [A0 + D0.w + 0x22]
00002820  204D                     movea.l    A0, A5
00002822  D1FC FFFF 82F0           add.l      A0, 0xFFFF82F0
00002828  30BC 00DD                move.w     [A0], 0xDD
0000282C  224D                     movea.l    A1, A5
0000282E  D3FC FFFE 998E           add.l      A1, 0xFFFE998E
00002834  41D1                     lea.l      A0, [A1]
00002836  224D                     movea.l    A1, A5
00002838  D3FC FFFF 82EC           add.l      A1, 0xFFFF82EC
0000283E  2288                     move.l     [A1], A0
00002840  224D                     movea.l    A1, A5
00002842  D3FC FFFF 82EC           add.l      A1, 0xFFFF82EC
00002848  2051                     movea.l    A0, [A1]
0000284A  7000                     moveq.l    D0, 0x00
0000284C  3028 0006                move.w     D0, [A0 + 0x6]
00002850  4A80                     tst.l      D0
00002852  4C7C 0800 0000 000A      divu.l     D2:D0, 0x8000000
0000285A  204D                     movea.l    A0, A5
0000285C  D1FC FFFF 82EA           add.l      A0, 0xFFFF82EA
00002862  3080                     move.w     [A0], D0
00002864  2F0C                     move.l     -[A7], A4
00002866  4EBA 03D8                jsr        [PC + 0x3D8 /* 00002C40 */]
0000286A  4FEF 000C                lea.l      A7, [A7 + 0xC]
0000286E  6000 0378                bra        +0x37A /* 00002BE8 */
label00002872:
00002872  B7EC 0180                cmpa.l     A3, [A4 + 0x180]
00002876  6600 00AC                bne        +0xAE /* 00002924 */
0000287A  204D                     movea.l    A0, A5
0000287C  D1FC FFFF 82F0           add.l      A0, 0xFFFF82F0
00002882  0C50 00DE                cmpi.w     [A0], 0xDE
00002886  6700 0360                beq        +0x362 /* 00002BE8 */
0000288A  204D                     movea.l    A0, A5
0000288C  D1FC FFFF 82F6           add.l      A0, 0xFFFF82F6
00002892  3010                     move.w     D0, [A0]
00002894  C1FC 003A                muls.w     D0, 0x3A /* ':' */
00002898  204D                     movea.l    A0, A5
0000289A  D1FC FFFE 9F9C           add.l      A0, 0xFFFE9F9C
000028A0  224D                     movea.l    A1, A5
000028A2  D3FC FFFF 82EA           add.l      A1, 0xFFFF82EA
000028A8  3211                     move.w     D1, [A1]
000028AA  C2F0 0022                mulu.w     D1, [A0 + D0.w + 0x22]
000028AE  2F01                     move.l     -[A7], D1
000028B0  70FF                     moveq.l    D0, 0xFFFFFFFF
000028B2  2F00                     move.l     -[A7], D0
000028B4  4EAD 0602                jsr        [A5 + 0x602 /* export_188, CODE:10 @ 00002E6C */]
000028B8  204D                     movea.l    A0, A5
000028BA  D1FC FFFF 82F6           add.l      A0, 0xFFFF82F6
000028C0  3010                     move.w     D0, [A0]
000028C2  C1FC 003A                muls.w     D0, 0x3A /* ':' */
000028C6  204D                     movea.l    A0, A5
000028C8  D1FC FFFE 9F9C           add.l      A0, 0xFFFE9F9C
000028CE  4270 0022                clr.w      [A0 + D0.w + 0x22]
000028D2  204D                     movea.l    A0, A5
000028D4  D1FC FFFF 82F0           add.l      A0, 0xFFFF82F0
000028DA  30BC 00DE                move.w     [A0], 0xDE
000028DE  224D                     movea.l    A1, A5
000028E0  D3FC FFFE 99A0           add.l      A1, 0xFFFE99A0
000028E6  41D1                     lea.l      A0, [A1]
000028E8  224D                     movea.l    A1, A5
000028EA  D3FC FFFF 82EC           add.l      A1, 0xFFFF82EC
000028F0  2288                     move.l     [A1], A0
000028F2  224D                     movea.l    A1, A5
000028F4  D3FC FFFF 82EC           add.l      A1, 0xFFFF82EC
000028FA  2051                     movea.l    A0, [A1]
000028FC  7000                     moveq.l    D0, 0x00
000028FE  3028 0006                move.w     D0, [A0 + 0x6]
00002902  4A80                     tst.l      D0
00002904  4C7C 0800 0000 000A      divu.l     D2:D0, 0x8000000
0000290C  204D                     movea.l    A0, A5
0000290E  D1FC FFFF 82EA           add.l      A0, 0xFFFF82EA
00002914  3080                     move.w     [A0], D0
00002916  2F0C                     move.l     -[A7], A4
00002918  4EBA 0326                jsr        [PC + 0x326 /* 00002C40 */]
0000291C  4FEF 000C                lea.l      A7, [A7 + 0xC]
00002920  6000 02C6                bra        +0x2C8 /* 00002BE8 */
label00002924:
00002924  B7EC 0184                cmpa.l     A3, [A4 + 0x184]
00002928  6600 00AC                bne        +0xAE /* 000029D6 */
0000292C  204D                     movea.l    A0, A5
0000292E  D1FC FFFF 82F0           add.l      A0, 0xFFFF82F0
00002934  0C50 00DF                cmpi.w     [A0], 0xDF
00002938  6700 02AE                beq        +0x2B0 /* 00002BE8 */
0000293C  204D                     movea.l    A0, A5
0000293E  D1FC FFFF 82F6           add.l      A0, 0xFFFF82F6
00002944  3010                     move.w     D0, [A0]
00002946  C1FC 003A                muls.w     D0, 0x3A /* ':' */
0000294A  204D                     movea.l    A0, A5
0000294C  D1FC FFFE 9F9C           add.l      A0, 0xFFFE9F9C
00002952  224D                     movea.l    A1, A5
00002954  D3FC FFFF 82EA           add.l      A1, 0xFFFF82EA
0000295A  3211                     move.w     D1, [A1]
0000295C  C2F0 0022                mulu.w     D1, [A0 + D0.w + 0x22]
00002960  2F01                     move.l     -[A7], D1
00002962  70FF                     moveq.l    D0, 0xFFFFFFFF
00002964  2F00                     move.l     -[A7], D0
00002966  4EAD 0602                jsr        [A5 + 0x602 /* export_188, CODE:10 @ 00002E6C */]
0000296A  204D                     movea.l    A0, A5
0000296C  D1FC FFFF 82F6           add.l      A0, 0xFFFF82F6
00002972  3010                     move.w     D0, [A0]
00002974  C1FC 003A                muls.w     D0, 0x3A /* ':' */
00002978  204D                     movea.l    A0, A5
0000297A  D1FC FFFE 9F9C           add.l      A0, 0xFFFE9F9C
00002980  4270 0022                clr.w      [A0 + D0.w + 0x22]
00002984  204D                     movea.l    A0, A5
00002986  D1FC FFFF 82F0           add.l      A0, 0xFFFF82F0
0000298C  30BC 00DF                move.w     [A0], 0xDF
00002990  224D                     movea.l    A1, A5
00002992  D3FC FFFE 99B2           add.l      A1, 0xFFFE99B2
00002998  41D1                     lea.l      A0, [A1]
0000299A  224D                     movea.l    A1, A5
0000299C  D3FC FFFF 82EC           add.l      A1, 0xFFFF82EC
000029A2  2288                     move.l     [A1], A0
000029A4  224D                     movea.l    A1, A5
000029A6  D3FC FFFF 82EC           add.l      A1, 0xFFFF82EC
000029AC  2051                     movea.l    A0, [A1]
000029AE  7000                     moveq.l    D0, 0x00
000029B0  3028 0006                move.w     D0, [A0 + 0x6]
000029B4  4A80                     tst.l      D0
000029B6  4C7C 0800 0000 000A      divu.l     D2:D0, 0x8000000
000029BE  204D                     movea.l    A0, A5
000029C0  D1FC FFFF 82EA           add.l      A0, 0xFFFF82EA
000029C6  3080                     move.w     [A0], D0
000029C8  2F0C                     move.l     -[A7], A4
000029CA  4EBA 0274                jsr        [PC + 0x274 /* 00002C40 */]
000029CE  4FEF 000C                lea.l      A7, [A7 + 0xC]
000029D2  6000 0214                bra        +0x216 /* 00002BE8 */
label000029D6:
000029D6  7001                     moveq.l    D0, 0x01
000029D8  2F00                     move.l     -[A7], D0
000029DA  2F0C                     move.l     -[A7], A4
000029DC  4EAD 11FA                jsr        [A5 + 0x11FA /* export_571, CODE:26 @ 00003354 */]
000029E0  B08B                     cmp.l      D0, A3
000029E2  504F                     addq.w     A7, 8
000029E4  6600 0098                bne        +0x9A /* 00002A7E */
000029E8  7000                     moveq.l    D0, 0x00
000029EA  204D                     movea.l    A0, A5
000029EC  D1FC FFFF 82E6           add.l      A0, 0xFFFF82E6
000029F2  3010                     move.w     D0, [A0]
000029F4  223C 0000 00FF           move.l     D1, 0xFF
000029FA  9280                     sub.l      D1, D0
000029FC  204D                     movea.l    A0, A5
000029FE  D1FC FFFF 82F4           add.l      A0, 0xFFFF82F4
00002A04  3010                     move.w     D0, [A0]
00002A06  48C0                     ext.l      D0
00002A08  4C01 0800                muls.l     D0, D1
00002A0C  2F00                     move.l     -[A7], D0
00002A0E  70FF                     moveq.l    D0, 0xFFFFFFFF
00002A10  2F00                     move.l     -[A7], D0
00002A12  4EAD 05FA                jsr        [A5 + 0x5FA /* export_187, CODE:10 @ 00002C4A */]
00002A16  4A80                     tst.l      D0
00002A18  504F                     addq.w     A7, 8
00002A1A  671C                     beq        +0x1E /* 00002A38 */
00002A1C  204D                     movea.l    A0, A5
00002A1E  D1FC FFFF 82F6           add.l      A0, 0xFFFF82F6
00002A24  3010                     move.w     D0, [A0]
00002A26  C1FC 003A                muls.w     D0, 0x3A /* ':' */
00002A2A  204D                     movea.l    A0, A5
00002A2C  D1FC FFFE 9F9C           add.l      A0, 0xFFFE9F9C
00002A32  31BC 00FF 0014           move.w     [A0 + D0.w + 0x14], 0xFF
label00002A38:
00002A38  43EB 0080                lea.l      A1, [A3 + 0x80]
00002A3C  2049                     movea.l    A0, A1
00002A3E  226B 0088                movea.l    A1, [A3 + 0x88]
00002A42  D0E9 00B0                add.w      A0, [A1 + 0xB0]
00002A46  2F08                     move.l     -[A7], A0
00002A48  2049                     movea.l    A0, A1
00002A4A  2268 00B4                movea.l    A1, [A0 + 0xB4]
00002A4E  4E91                     jsr        [A1]
00002A50  2D4B FFFC                move.l     [A6 - 0x4], A3
00002A54  204B                     movea.l    A0, A3
00002A56  2248                     movea.l    A1, A0
00002A58  2269 0060                movea.l    A1, [A1 + 0x60]
00002A5C  D0E9 00E8                add.w      A0, [A1 + 0xE8]
00002A60  2F08                     move.l     -[A7], A0
00002A62  204B                     movea.l    A0, A3
00002A64  2068 0060                movea.l    A0, [A0 + 0x60]
00002A68  2268 00EC                movea.l    A1, [A0 + 0xEC]
00002A6C  4E91                     jsr        [A1]
00002A6E  2F2C 016C                move.l     -[A7], [A4 + 0x16C]
00002A72  4EAD 1F52                jsr        [A5 + 0x1F52 /* export_998, CODE:37 @ 000014C8 */]
00002A76  4FEF 000C                lea.l      A7, [A7 + 0xC]
00002A7A  6000 016C                bra        +0x16E /* 00002BE8 */
label00002A7E:
00002A7E  7002                     moveq.l    D0, 0x02
00002A80  2F00                     move.l     -[A7], D0
00002A82  2F0C                     move.l     -[A7], A4
00002A84  4EAD 11FA                jsr        [A5 + 0x11FA /* export_571, CODE:26 @ 00003354 */]
00002A88  B08B                     cmp.l      D0, A3
00002A8A  504F                     addq.w     A7, 8
00002A8C  6600 00BE                bne        +0xC0 /* 00002B4C */
00002A90  7000                     moveq.l    D0, 0x00
00002A92  204D                     movea.l    A0, A5
00002A94  D1FC FFFF 82E4           add.l      A0, 0xFFFF82E4
00002A9A  3010                     move.w     D0, [A0]
00002A9C  2E3C 0000 00FF           move.l     D7, 0xFF
00002AA2  9E80                     sub.l      D7, D0
00002AA4  7000                     moveq.l    D0, 0x00
00002AA6  204D                     movea.l    A0, A5
00002AA8  D1FC FFFF 82EA           add.l      A0, 0xFFFF82EA
00002AAE  3010                     move.w     D0, [A0]
00002AB0  4A80                     tst.l      D0
00002AB2  4C07 0000                mulu.l     D0, D7
00002AB6  2E00                     move.l     D7, D0
00002AB8  2F07                     move.l     -[A7], D7
00002ABA  70FF                     moveq.l    D0, 0xFFFFFFFF
00002ABC  2F00                     move.l     -[A7], D0
00002ABE  4EAD 05FA                jsr        [A5 + 0x5FA /* export_187, CODE:10 @ 00002C4A */]
00002AC2  4A80                     tst.l      D0
00002AC4  504F                     addq.w     A7, 8
00002AC6  6748                     beq        +0x4A /* 00002B10 */
00002AC8  204D                     movea.l    A0, A5
00002ACA  D1FC FFFF 82F6           add.l      A0, 0xFFFF82F6
00002AD0  3010                     move.w     D0, [A0]
00002AD2  C1FC 003A                muls.w     D0, 0x3A /* ':' */
00002AD6  204D                     movea.l    A0, A5
00002AD8  D1FC FFFE 9F9C           add.l      A0, 0xFFFE9F9C
00002ADE  31BC 00FF 0022           move.w     [A0 + D0.w + 0x22], 0xFF
00002AE4  204D                     movea.l    A0, A5
00002AE6  D1FC FFFF 82F6           add.l      A0, 0xFFFF82F6
00002AEC  3010                     move.w     D0, [A0]
00002AEE  C1FC 003A                muls.w     D0, 0x3A /* ':' */
00002AF2  204D                     movea.l    A0, A5
00002AF4  D1FC FFFE 9F9C           add.l      A0, 0xFFFE9F9C
00002AFA  224D                     movea.l    A1, A5
00002AFC  D3FC FFFF 82F0           add.l      A1, 0xFFFF82F0
00002B02  3191 0024                move.w     [A0 + D0.w + 0x24], [A1]
00002B06  2F2C 016C                move.l     -[A7], [A4 + 0x16C]
00002B0A  4EAD 1F52                jsr        [A5 + 0x1F52 /* export_998, CODE:37 @ 000014C8 */]
00002B0E  584F                     addq.w     A7, 4
label00002B10:
00002B10  43EB 0080                lea.l      A1, [A3 + 0x80]
00002B14  2049                     movea.l    A0, A1
00002B16  226B 0088                movea.l    A1, [A3 + 0x88]
00002B1A  D0E9 00B0                add.w      A0, [A1 + 0xB0]
00002B1E  2F08                     move.l     -[A7], A0
00002B20  2049                     movea.l    A0, A1
00002B22  2268 00B4                movea.l    A1, [A0 + 0xB4]
00002B26  4E91                     jsr        [A1]
00002B28  2D4B FFFC                move.l     [A6 - 0x4], A3
00002B2C  204B                     movea.l    A0, A3
00002B2E  2248                     movea.l    A1, A0
00002B30  2269 0060                movea.l    A1, [A1 + 0x60]
00002B34  D0E9 00E8                add.w      A0, [A1 + 0xE8]
00002B38  2F08                     move.l     -[A7], A0
00002B3A  204B                     movea.l    A0, A3
00002B3C  2068 0060                movea.l    A0, [A0 + 0x60]
00002B40  2268 00EC                movea.l    A1, [A0 + 0xEC]
00002B44  4E91                     jsr        [A1]
00002B46  504F                     addq.w     A7, 8
00002B48  6000 009E                bra        +0xA0 /* 00002BE8 */
label00002B4C:
00002B4C  7003                     moveq.l    D0, 0x03
00002B4E  2F00                     move.l     -[A7], D0
00002B50  2F0C                     move.l     -[A7], A4
00002B52  4EAD 11FA                jsr        [A5 + 0x11FA /* export_571, CODE:26 @ 00003354 */]
00002B56  B08B                     cmp.l      D0, A3
00002B58  504F                     addq.w     A7, 8
00002B5A  6600 008C                bne        +0x8E /* 00002BE8 */
00002B5E  7000                     moveq.l    D0, 0x00
00002B60  204D                     movea.l    A0, A5
00002B62  D1FC FFFF 82E8           add.l      A0, 0xFFFF82E8
00002B68  3010                     move.w     D0, [A0]
00002B6A  4A80                     tst.l      D0
00002B6C  204D                     movea.l    A0, A5
00002B6E  D1FC FFFF 82F2           add.l      A0, 0xFFFF82F2
00002B74  1210                     move.b     D1, [A0]
00002B76  49C1                     lea.l      A4, D1
00002B78  4C00 1800                muls.l     D1, D0
00002B7C  2F01                     move.l     -[A7], D1
00002B7E  70FF                     moveq.l    D0, 0xFFFFFFFF
00002B80  2F00                     move.l     -[A7], D0
00002B82  4EAD 05FA                jsr        [A5 + 0x5FA /* export_187, CODE:10 @ 00002C4A */]
00002B86  4A80                     tst.l      D0
00002B88  504F                     addq.w     A7, 8
00002B8A  671A                     beq        +0x1C /* 00002BA6 */
00002B8C  204D                     movea.l    A0, A5
00002B8E  D1FC FFFF 82F6           add.l      A0, 0xFFFF82F6
00002B94  3010                     move.w     D0, [A0]
00002B96  C1FC 003A                muls.w     D0, 0x3A /* ':' */
00002B9A  204D                     movea.l    A0, A5
00002B9C  D1FC FFFE 9F9C           add.l      A0, 0xFFFE9F9C
00002BA2  4230 0011                clr.b      [A0 + D0.w + 0x11]
label00002BA6:
00002BA6  2F2C 016C                move.l     -[A7], [A4 + 0x16C]
00002BAA  4EAD 1F52                jsr        [A5 + 0x1F52 /* export_998, CODE:37 @ 000014C8 */]
00002BAE  43EB 0080                lea.l      A1, [A3 + 0x80]
00002BB2  2049                     movea.l    A0, A1
00002BB4  226B 0088                movea.l    A1, [A3 + 0x88]
00002BB8  D0E9 00B0                add.w      A0, [A1 + 0xB0]
00002BBC  2F08                     move.l     -[A7], A0
00002BBE  2049                     movea.l    A0, A1
00002BC0  2268 00B4                movea.l    A1, [A0 + 0xB4]
00002BC4  4E91                     jsr        [A1]
00002BC6  2D4B FFFC                move.l     [A6 - 0x4], A3
00002BCA  204B                     movea.l    A0, A3
00002BCC  2248                     movea.l    A1, A0
00002BCE  2269 0060                movea.l    A1, [A1 + 0x60]
00002BD2  D0E9 00E8                add.w      A0, [A1 + 0xE8]
00002BD6  2F08                     move.l     -[A7], A0
00002BD8  204B                     movea.l    A0, A3
00002BDA  2068 0060                movea.l    A0, [A0 + 0x60]
00002BDE  2268 00EC                movea.l    A1, [A0 + 0xEC]
00002BE2  4E91                     jsr        [A1]
00002BE4  4FEF 000C                lea.l      A7, [A7 + 0xC]
label00002BE8:
00002BE8  2F0C                     move.l     -[A7], A4
00002BEA  4EBA 16A4                jsr        [PC + 0x16A4 /* 00004290 */]
00002BEE  584F                     addq.w     A7, 4
00002BF0  6012                     bra        +0x14 /* 00002C04 */
label00002BF2:
00002BF2  2F2E 0014                move.l     -[A7], [A6 + 0x14]
00002BF6  2F0B                     move.l     -[A7], A3
00002BF8  2F06                     move.l     -[A7], D6
00002BFA  2F0C                     move.l     -[A7], A4
00002BFC  4EAD 118A                jsr        [A5 + 0x118A /* export_557, CODE:26 @ 000021AC */]
00002C00  4FEF 0010                lea.l      A7, [A7 + 0x10]
label00002C04:
00002C04  4CEE 18C0 FFEC           movem.l    D6,D7,A3,A4, [A6 - 0x14]
00002C0A  4E5E                     unlink     A6
00002C0C  4E75                     rts
00002C0E  802D 4861 7342 6565 6... dc.b       "HasBeenAChange__15cAirplaneWindowFlP6cAgentPc"
fn00002C40:
00002C40  4E56 0000                link       A6, 0
00002C44  2F0C                     move.l     -[A7], A4
00002C46  286E 0008                movea.l    A4, [A6 + 0x8]
00002C4A  204D                     movea.l    A0, A5
00002C4C  D1FC FFFF 82F0           add.l      A0, 0xFFFF82F0
00002C52  3010                     move.w     D0, [A0]
00002C54  0440 00DD                subi.w     D0, 0xDD
00002C58  6710                     beq        +0x12 /* 00002C6A */
00002C5A  5340                     subq.w     D0, 1
00002C5C  6700 01B4                beq        +0x1B6 /* 00002E12 */
00002C60  5340                     subq.w     D0, 1
00002C62  6700 00DA                beq        +0xDC /* 00002D3E */
00002C66  6000 027A                bra        +0x27C /* 00002EE2 */
label00002C6A:
00002C6A  226C 017C                movea.l    A1, [A4 + 0x17C]
00002C6E  43E9 0080                lea.l      A1, [A1 + 0x80]
00002C72  2049                     movea.l    A0, A1
00002C74  226C 017C                movea.l    A1, [A4 + 0x17C]
00002C78  2269 0088                movea.l    A1, [A1 + 0x88]
00002C7C  D0E9 00A8                add.w      A0, [A1 + 0xA8]
00002C80  2F08                     move.l     -[A7], A0
00002C82  206C 017C                movea.l    A0, [A4 + 0x17C]
00002C86  2068 0088                movea.l    A0, [A0 + 0x88]
00002C8A  2268 00AC                movea.l    A1, [A0 + 0xAC]
00002C8E  4E91                     jsr        [A1]
00002C90  206C 017C                movea.l    A0, [A4 + 0x17C]
00002C94  2248                     movea.l    A1, A0
00002C96  2269 0060                movea.l    A1, [A1 + 0x60]
00002C9A  D0E9 00E8                add.w      A0, [A1 + 0xE8]
00002C9E  2F08                     move.l     -[A7], A0
00002CA0  206C 017C                movea.l    A0, [A4 + 0x17C]
00002CA4  2068 0060                movea.l    A0, [A0 + 0x60]
00002CA8  2268 00EC                movea.l    A1, [A0 + 0xEC]
00002CAC  4E91                     jsr        [A1]
00002CAE  226C 0180                movea.l    A1, [A4 + 0x180]
00002CB2  43E9 0080                lea.l      A1, [A1 + 0x80]
00002CB6  2049                     movea.l    A0, A1
00002CB8  226C 0180                movea.l    A1, [A4 + 0x180]
00002CBC  2269 0088                movea.l    A1, [A1 + 0x88]
00002CC0  D0E9 00B0                add.w      A0, [A1 + 0xB0]
00002CC4  2F08                     move.l     -[A7], A0
00002CC6  206C 0180                movea.l    A0, [A4 + 0x180]
00002CCA  2068 0088                movea.l    A0, [A0 + 0x88]
00002CCE  2268 00B4                movea.l    A1, [A0 + 0xB4]
00002CD2  4E91                     jsr        [A1]
00002CD4  206C 0180                movea.l    A0, [A4 + 0x180]
00002CD8  2248                     movea.l    A1, A0
00002CDA  2269 0060                movea.l    A1, [A1 + 0x60]
00002CDE  D0E9 00E8                add.w      A0, [A1 + 0xE8]
00002CE2  2F08                     move.l     -[A7], A0
00002CE4  206C 0180                movea.l    A0, [A4 + 0x180]
00002CE8  2068 0060                movea.l    A0, [A0 + 0x60]
00002CEC  2268 00EC                movea.l    A1, [A0 + 0xEC]
00002CF0  4E91                     jsr        [A1]
00002CF2  226C 0184                movea.l    A1, [A4 + 0x184]
00002CF6  43E9 0080                lea.l      A1, [A1 + 0x80]
00002CFA  2049                     movea.l    A0, A1
00002CFC  226C 0184                movea.l    A1, [A4 + 0x184]
00002D00  2269 0088                movea.l    A1, [A1 + 0x88]
00002D04  D0E9 00B0                add.w      A0, [A1 + 0xB0]
00002D08  2F08                     move.l     -[A7], A0
00002D0A  206C 0184                movea.l    A0, [A4 + 0x184]
00002D0E  2068 0088                movea.l    A0, [A0 + 0x88]
00002D12  2268 00B4                movea.l    A1, [A0 + 0xB4]
00002D16  4E91                     jsr        [A1]
00002D18  206C 0184                movea.l    A0, [A4 + 0x184]
00002D1C  2248                     movea.l    A1, A0
00002D1E  2269 0060                movea.l    A1, [A1 + 0x60]
00002D22  D0E9 00E8                add.w      A0, [A1 + 0xE8]
00002D26  2F08                     move.l     -[A7], A0
00002D28  206C 0184                movea.l    A0, [A4 + 0x184]
00002D2C  2068 0060                movea.l    A0, [A0 + 0x60]
00002D30  2268 00EC                movea.l    A1, [A0 + 0xEC]
00002D34  4E91                     jsr        [A1]
00002D36  4FEF 0018                lea.l      A7, [A7 + 0x18]
00002D3A  6000 01A6                bra        +0x1A8 /* 00002EE2 */
label00002D3E:
00002D3E  226C 017C                movea.l    A1, [A4 + 0x17C]
00002D42  43E9 0080                lea.l      A1, [A1 + 0x80]
00002D46  2049                     movea.l    A0, A1
00002D48  226C 017C                movea.l    A1, [A4 + 0x17C]
00002D4C  2269 0088                movea.l    A1, [A1 + 0x88]
00002D50  D0E9 00B0                add.w      A0, [A1 + 0xB0]
00002D54  2F08                     move.l     -[A7], A0
00002D56  206C 017C                movea.l    A0, [A4 + 0x17C]
00002D5A  2068 0088                movea.l    A0, [A0 + 0x88]
00002D5E  2268 00B4                movea.l    A1, [A0 + 0xB4]
00002D62  4E91                     jsr        [A1]
00002D64  206C 017C                movea.l    A0, [A4 + 0x17C]
00002D68  2248                     movea.l    A1, A0
00002D6A  2269 0060                movea.l    A1, [A1 + 0x60]
00002D6E  D0E9 00E8                add.w      A0, [A1 + 0xE8]
00002D72  2F08                     move.l     -[A7], A0
00002D74  206C 017C                movea.l    A0, [A4 + 0x17C]
00002D78  2068 0060                movea.l    A0, [A0 + 0x60]
00002D7C  2268 00EC                movea.l    A1, [A0 + 0xEC]
00002D80  4E91                     jsr        [A1]
00002D82  226C 0180                movea.l    A1, [A4 + 0x180]
00002D86  43E9 0080                lea.l      A1, [A1 + 0x80]
00002D8A  2049                     movea.l    A0, A1
00002D8C  226C 0180                movea.l    A1, [A4 + 0x180]
00002D90  2269 0088                movea.l    A1, [A1 + 0x88]
00002D94  D0E9 00B0                add.w      A0, [A1 + 0xB0]
00002D98  2F08                     move.l     -[A7], A0
00002D9A  206C 0180                movea.l    A0, [A4 + 0x180]
00002D9E  2068 0088                movea.l    A0, [A0 + 0x88]
00002DA2  2268 00B4                movea.l    A1, [A0 + 0xB4]
00002DA6  4E91                     jsr        [A1]
00002DA8  206C 0180                movea.l    A0, [A4 + 0x180]
00002DAC  2248                     movea.l    A1, A0
00002DAE  2269 0060                movea.l    A1, [A1 + 0x60]
00002DB2  D0E9 00E8                add.w      A0, [A1 + 0xE8]
00002DB6  2F08                     move.l     -[A7], A0
00002DB8  206C 0180                movea.l    A0, [A4 + 0x180]
00002DBC  2068 0060                movea.l    A0, [A0 + 0x60]
00002DC0  2268 00EC                movea.l    A1, [A0 + 0xEC]
00002DC4  4E91                     jsr        [A1]
00002DC6  226C 0184                movea.l    A1, [A4 + 0x184]
00002DCA  43E9 0080                lea.l      A1, [A1 + 0x80]
00002DCE  2049                     movea.l    A0, A1
00002DD0  226C 0184                movea.l    A1, [A4 + 0x184]
00002DD4  2269 0088                movea.l    A1, [A1 + 0x88]
00002DD8  D0E9 00A8                add.w      A0, [A1 + 0xA8]
00002DDC  2F08                     move.l     -[A7], A0
00002DDE  206C 0184                movea.l    A0, [A4 + 0x184]
00002DE2  2068 0088                movea.l    A0, [A0 + 0x88]
00002DE6  2268 00AC                movea.l    A1, [A0 + 0xAC]
00002DEA  4E91                     jsr        [A1]
00002DEC  206C 0184                movea.l    A0, [A4 + 0x184]
00002DF0  2248                     movea.l    A1, A0
00002DF2  2269 0060                movea.l    A1, [A1 + 0x60]
00002DF6  D0E9 00E8                add.w      A0, [A1 + 0xE8]
00002DFA  2F08                     move.l     -[A7], A0
00002DFC  206C 0184                movea.l    A0, [A4 + 0x184]
00002E00  2068 0060                movea.l    A0, [A0 + 0x60]
00002E04  2268 00EC                movea.l    A1, [A0 + 0xEC]
00002E08  4E91                     jsr        [A1]
00002E0A  4FEF 0018                lea.l      A7, [A7 + 0x18]
00002E0E  6000 00D2                bra        +0xD4 /* 00002EE2 */
label00002E12:
00002E12  226C 017C                movea.l    A1, [A4 + 0x17C]
00002E16  43E9 0080                lea.l      A1, [A1 + 0x80]
00002E1A  2049                     movea.l    A0, A1
00002E1C  226C 017C                movea.l    A1, [A4 + 0x17C]
00002E20  2269 0088                movea.l    A1, [A1 + 0x88]
00002E24  D0E9 00B0                add.w      A0, [A1 + 0xB0]
00002E28  2F08                     move.l     -[A7], A0
00002E2A  206C 017C                movea.l    A0, [A4 + 0x17C]
00002E2E  2068 0088                movea.l    A0, [A0 + 0x88]
00002E32  2268 00B4                movea.l    A1, [A0 + 0xB4]
00002E36  4E91                     jsr        [A1]
00002E38  206C 017C                movea.l    A0, [A4 + 0x17C]
00002E3C  2248                     movea.l    A1, A0
00002E3E  2269 0060                movea.l    A1, [A1 + 0x60]
00002E42  D0E9 00E8                add.w      A0, [A1 + 0xE8]
00002E46  2F08                     move.l     -[A7], A0
00002E48  206C 017C                movea.l    A0, [A4 + 0x17C]
00002E4C  2068 0060                movea.l    A0, [A0 + 0x60]
00002E50  2268 00EC                movea.l    A1, [A0 + 0xEC]
00002E54  4E91                     jsr        [A1]
00002E56  226C 0180                movea.l    A1, [A4 + 0x180]
00002E5A  43E9 0080                lea.l      A1, [A1 + 0x80]
00002E5E  2049                     movea.l    A0, A1
00002E60  226C 0180                movea.l    A1, [A4 + 0x180]
00002E64  2269 0088                movea.l    A1, [A1 + 0x88]
00002E68  D0E9 00A8                add.w      A0, [A1 + 0xA8]
00002E6C  2F08                     move.l     -[A7], A0
00002E6E  206C 0180                movea.l    A0, [A4 + 0x180]
00002E72  2068 0088                movea.l    A0, [A0 + 0x88]
00002E76  2268 00AC                movea.l    A1, [A0 + 0xAC]
00002E7A  4E91                     jsr        [A1]
00002E7C  206C 0180                movea.l    A0, [A4 + 0x180]
00002E80  2248                     movea.l    A1, A0
00002E82  2269 0060                movea.l    A1, [A1 + 0x60]
00002E86  D0E9 00E8                add.w      A0, [A1 + 0xE8]
00002E8A  2F08                     move.l     -[A7], A0
00002E8C  206C 0180                movea.l    A0, [A4 + 0x180]
00002E90  2068 0060                movea.l    A0, [A0 + 0x60]
00002E94  2268 00EC                movea.l    A1, [A0 + 0xEC]
00002E98  4E91                     jsr        [A1]
00002E9A  226C 0184                movea.l    A1, [A4 + 0x184]
00002E9E  43E9 0080                lea.l      A1, [A1 + 0x80]
00002EA2  2049                     movea.l    A0, A1
00002EA4  226C 0184                movea.l    A1, [A4 + 0x184]
00002EA8  2269 0088                movea.l    A1, [A1 + 0x88]
00002EAC  D0E9 00B0                add.w      A0, [A1 + 0xB0]
00002EB0  2F08                     move.l     -[A7], A0
00002EB2  206C 0184                movea.l    A0, [A4 + 0x184]
00002EB6  2068 0088                movea.l    A0, [A0 + 0x88]
00002EBA  2268 00B4                movea.l    A1, [A0 + 0xB4]
00002EBE  4E91                     jsr        [A1]
00002EC0  206C 0184                movea.l    A0, [A4 + 0x184]
00002EC4  2248                     movea.l    A1, A0
00002EC6  2269 0060                movea.l    A1, [A1 + 0x60]
00002ECA  D0E9 00E8                add.w      A0, [A1 + 0xE8]
00002ECE  2F08                     move.l     -[A7], A0
00002ED0  206C 0184                movea.l    A0, [A4 + 0x184]
00002ED4  2068 0060                movea.l    A0, [A0 + 0x60]
00002ED8  2268 00EC                movea.l    A1, [A0 + 0xEC]
00002EDC  4E91                     jsr        [A1]
00002EDE  4FEF 0018                lea.l      A7, [A7 + 0x18]
label00002EE2:
00002EE2  286E FFFC                movea.l    A4, [A6 - 0x4]
00002EE6  4E5E                     unlink     A6
00002EE8  4E75                     rts
00002EEA  8020 5570 6461 7465 4... dc.b       "UpdateIcons__15cAirplaneWindowFv"
export_393:
00002F0E  4E56 0000                link       A6, 0
00002F12  48E7 0018                movem.l    -[A7], A3,A4
00002F16  266E 0010                movea.l    A3, [A6 + 0x10]
00002F1A  286E 0008                movea.l    A4, [A6 + 0x8]
00002F1E  302E 000E                move.w     D0, [A6 + 0xE]
00002F22  0440 0009                subi.w     D0, 0x9 /* '\t' */
00002F26  6B00 011C                bmi        +0x11E /* 00003044 */
00002F2A  0C40 0003                cmpi.w     D0, 0x3
00002F2E  6E00 0114                bgt        +0x116 /* 00003044 */
00002F32  D040                     add.w      D0, D0
00002F34  303B 0006                move.w     D0, [PC + D0.w + 0x6]
00002F38  4EFB 0000                jmp        [PC + D0.w]
00002F3C  003E 0084                ori.b      <<invalid special address>>, 0x84
00002F40  00C8                     .incomplete
00002F42  000A 2F0B                ori.b      A2, 0xB
00002F46  2F0C                     move.l     -[A7], A4
00002F48  2F0C                     move.l     -[A7], A4
00002F4A  7000                     moveq.l    D0, 0x00
00002F4C  2F00                     move.l     -[A7], D0
00002F4E  2F00                     move.l     -[A7], D0
00002F50  4EBA 14C0                jsr        [PC + 0x14C0 /* 00004412 */]
00002F54  2940 016C                move.l     [A4 + 0x16C], D0
00002F58  670C                     beq        +0xE /* 00002F66 */
00002F5A  202C 016C                move.l     D0, [A4 + 0x16C]
00002F5E  D0BC 0000 0080           add.l      D0, 0x80
00002F64  6002                     bra        +0x4 /* 00002F68 */
label00002F66:
00002F66  7000                     moveq.l    D0, 0x00
label00002F68:
00002F68  2F00                     move.l     -[A7], D0
00002F6A  2F0C                     move.l     -[A7], A4
00002F6C  4EAD 11F2                jsr        [A5 + 0x11F2 /* export_570, CODE:26 @ 000032DA */]
00002F70  4FEF 001C                lea.l      A7, [A7 + 0x1C]
00002F74  6000 00CE                bra        +0xD0 /* 00003044 */
00002F78  7000                     moveq.l    D0, 0x00
00002F7A  2F00                     move.l     -[A7], D0
00002F7C  7201                     moveq.l    D1, 0x01
00002F7E  2F01                     move.l     -[A7], D1
00002F80  7009                     moveq.l    D0, 0x09
00002F82  2F00                     move.l     -[A7], D0
00002F84  7003                     moveq.l    D0, 0x03
00002F86  2F00                     move.l     -[A7], D0
00002F88  7000                     moveq.l    D0, 0x00
00002F8A  2F00                     move.l     -[A7], D0
00002F8C  2F0B                     move.l     -[A7], A3
00002F8E  2F0C                     move.l     -[A7], A4
00002F90  2F0C                     move.l     -[A7], A4
00002F92  2F00                     move.l     -[A7], D0
00002F94  2F00                     move.l     -[A7], D0
00002F96  4EAD 1A22                jsr        [A5 + 0x1A22 /* export_832, CODE:34 @ 00000ED0 */]
00002F9A  2940 0170                move.l     [A4 + 0x170], D0
00002F9E  670C                     beq        +0xE /* 00002FAC */
00002FA0  202C 0170                move.l     D0, [A4 + 0x170]
00002FA4  D0BC 0000 0080           add.l      D0, 0x80
00002FAA  6002                     bra        +0x4 /* 00002FAE */
label00002FAC:
00002FAC  7000                     moveq.l    D0, 0x00
label00002FAE:
00002FAE  2F00                     move.l     -[A7], D0
00002FB0  2F0C                     move.l     -[A7], A4
00002FB2  4EAD 11F2                jsr        [A5 + 0x11F2 /* export_570, CODE:26 @ 000032DA */]
00002FB6  4FEF 0030                lea.l      A7, [A7 + 0x30]
00002FBA  6000 0088                bra        +0x8A /* 00003044 */
00002FBE  7000                     moveq.l    D0, 0x00
00002FC0  2F00                     move.l     -[A7], D0
00002FC2  7201                     moveq.l    D1, 0x01
00002FC4  2F01                     move.l     -[A7], D1
00002FC6  7009                     moveq.l    D0, 0x09
00002FC8  2F00                     move.l     -[A7], D0
00002FCA  7003                     moveq.l    D0, 0x03
00002FCC  2F00                     move.l     -[A7], D0
00002FCE  7000                     moveq.l    D0, 0x00
00002FD0  2F00                     move.l     -[A7], D0
00002FD2  2F0B                     move.l     -[A7], A3
00002FD4  2F0C                     move.l     -[A7], A4
00002FD6  2F0C                     move.l     -[A7], A4
00002FD8  2F00                     move.l     -[A7], D0
00002FDA  2F00                     move.l     -[A7], D0
00002FDC  4EAD 1A22                jsr        [A5 + 0x1A22 /* export_832, CODE:34 @ 00000ED0 */]
00002FE0  2940 0174                move.l     [A4 + 0x174], D0
00002FE4  670C                     beq        +0xE /* 00002FF2 */
00002FE6  202C 0174                move.l     D0, [A4 + 0x174]
00002FEA  D0BC 0000 0080           add.l      D0, 0x80
00002FF0  6002                     bra        +0x4 /* 00002FF4 */
label00002FF2:
00002FF2  7000                     moveq.l    D0, 0x00
label00002FF4:
00002FF4  2F00                     move.l     -[A7], D0
00002FF6  2F0C                     move.l     -[A7], A4
00002FF8  4EAD 11F2                jsr        [A5 + 0x11F2 /* export_570, CODE:26 @ 000032DA */]
00002FFC  4FEF 0030                lea.l      A7, [A7 + 0x30]
00003000  6042                     bra        +0x44 /* 00003044 */
00003002  7000                     moveq.l    D0, 0x00
00003004  2F00                     move.l     -[A7], D0
00003006  7201                     moveq.l    D1, 0x01
00003008  2F01                     move.l     -[A7], D1
0000300A  7009                     moveq.l    D0, 0x09
0000300C  2F00                     move.l     -[A7], D0
0000300E  7003                     moveq.l    D0, 0x03
00003010  2F00                     move.l     -[A7], D0
00003012  7000                     moveq.l    D0, 0x00
00003014  2F00                     move.l     -[A7], D0
00003016  2F0B                     move.l     -[A7], A3
00003018  2F0C                     move.l     -[A7], A4
0000301A  2F0C                     move.l     -[A7], A4
0000301C  2F00                     move.l     -[A7], D0
0000301E  2F00                     move.l     -[A7], D0
00003020  4EAD 1A22                jsr        [A5 + 0x1A22 /* export_832, CODE:34 @ 00000ED0 */]
00003024  2940 0178                move.l     [A4 + 0x178], D0
00003028  670C                     beq        +0xE /* 00003036 */
0000302A  202C 0178                move.l     D0, [A4 + 0x178]
0000302E  D0BC 0000 0080           add.l      D0, 0x80
00003034  6002                     bra        +0x4 /* 00003038 */
label00003036:
00003036  7000                     moveq.l    D0, 0x00
label00003038:
00003038  2F00                     move.l     -[A7], D0
0000303A  2F0C                     move.l     -[A7], A4
0000303C  4EAD 11F2                jsr        [A5 + 0x11F2 /* export_570, CODE:26 @ 000032DA */]
00003040  4FEF 0030                lea.l      A7, [A7 + 0x30]
label00003044:
00003044  4CEE 1800 FFF8           movem.l    A3,A4, [A6 - 0x8]
0000304A  4E5E                     unlink     A6
0000304C  4E75                     rts
0000304E  8026 4E65 7755 7365 7... dc.b       "NewUserItem__15cAirplaneWindowFsR4Rect"
export_394:
00003078  4E56 0000                link       A6, 0
0000307C  48E7 0108                movem.l    -[A7], D7,A4
00003080  286E 0008                movea.l    A4, [A6 + 0x8]
00003084  4A2C 01A6                tst.b      [A4 + 0x1A6]
00003088  6606                     bne        +0x8 /* 00003090 */
0000308A  7000                     moveq.l    D0, 0x00
0000308C  6000 008C                bra        +0x8E /* 0000311A */
label00003090:
00003090  206E 000C                movea.l    A0, [A6 + 0xC]
00003094  2E3C 0000 00FF           move.l     D7, 0xFF
0000309A  CEA8 0002                and.l      D7, [A0 + 0x2]
0000309E  1007                     move.b     D0, D7
000030A0  5300                     subq.b     D0, 1
000030A2  6740                     beq        +0x42 /* 000030E4 */
000030A4  5700                     subq.b     D0, 3
000030A6  6744                     beq        +0x46 /* 000030EC */
000030A8  0400 0009                subi.b     D0, 0x9 /* '\t' */
000030AC  673E                     beq        +0x40 /* 000030EC */
000030AE  0400 000F                subi.b     D0, 0xF
000030B2  6750                     beq        +0x52 /* 00003104 */
000030B4  5300                     subq.b     D0, 1
000030B6  6754                     beq        +0x56 /* 0000310C */
000030B8  5300                     subq.b     D0, 1
000030BA  6738                     beq        +0x3A /* 000030F4 */
000030BC  5300                     subq.b     D0, 1
000030BE  673C                     beq        +0x3E /* 000030FC */
000030C0  5300                     subq.b     D0, 1
000030C2  6720                     beq        +0x22 /* 000030E4 */
000030C4  0400 0010                subi.b     D0, 0x10
000030C8  671A                     beq        +0x1C /* 000030E4 */
000030CA  5500                     subq.b     D0, 2
000030CC  672E                     beq        +0x30 /* 000030FC */
000030CE  5500                     subq.b     D0, 2
000030D0  6732                     beq        +0x34 /* 00003104 */
000030D2  5300                     subq.b     D0, 1
000030D4  6716                     beq        +0x18 /* 000030EC */
000030D6  5300                     subq.b     D0, 1
000030D8  6732                     beq        +0x34 /* 0000310C */
000030DA  5500                     subq.b     D0, 2
000030DC  6716                     beq        +0x18 /* 000030F4 */
000030DE  0400 003B                subi.b     D0, 0x3B /* ';' */
000030E2  6630                     bne        +0x32 /* 00003114 */
label000030E4:
000030E4  397C 0006 01A8           move.w     [A4 + 0x1A8], 0x6
000030EA  602C                     bra        +0x2E /* 00003118 */
label000030EC:
000030EC  397C 0005 01A8           move.w     [A4 + 0x1A8], 0x5
000030F2  6024                     bra        +0x26 /* 00003118 */
label000030F4:
000030F4  397C 0003 01A8           move.w     [A4 + 0x1A8], 0x3
000030FA  601C                     bra        +0x1E /* 00003118 */
label000030FC:
000030FC  397C 0004 01A8           move.w     [A4 + 0x1A8], 0x4
00003102  6014                     bra        +0x16 /* 00003118 */
label00003104:
00003104  397C 0001 01A8           move.w     [A4 + 0x1A8], 0x1
0000310A  600C                     bra        +0xE /* 00003118 */
label0000310C:
0000310C  397C 0002 01A8           move.w     [A4 + 0x1A8], 0x2
00003112  6004                     bra        +0x6 /* 00003118 */
label00003114:
00003114  426C 01A8                clr.w      [A4 + 0x1A8]
label00003118:
00003118  7001                     moveq.l    D0, 0x01
label0000311A:
0000311A  4CEE 1080 FFF8           movem.l    D7,A4, [A6 - 0x8]
00003120  4E5E                     unlink     A6
00003122  4E75                     rts
00003124  8029 4B65 7944 6F77 6... dc.b       "KeyDown__15cAirplaneWindowFR11EventRecord"
export_395:
00003152  4E56 0000                link       A6, 0
00003156  206E 0008                movea.l    A0, [A6 + 0x8]
0000315A  4268 01A8                clr.w      [A0 + 0x1A8]
0000315E  7000                     moveq.l    D0, 0x00
00003160  4E5E                     unlink     A6
00003162  4E75                     rts
00003164  8027 4B65 7955 705F 5... dc.b       "KeyUp__15cAirplaneWindowFR11EventRecord"
export_396:
00003190  4E56 FFFC                link       A6, -0x0004
00003194  48E7 0118                movem.l    -[A7], D7,A3,A4
00003198  3E2E 0016                move.w     D7, [A6 + 0x16]
0000319C  266E 0010                movea.l    A3, [A6 + 0x10]
000031A0  286E 0008                movea.l    A4, [A6 + 0x8]
000031A4  302E 000E                move.w     D0, [A6 + 0xE]
000031A8  5340                     subq.w     D0, 1
000031AA  6B00 00D2                bmi        +0xD4 /* 0000327E */
000031AE  0C40 0005                cmpi.w     D0, 0x5
000031B2  6E00 00CA                bgt        +0xCC /* 0000327E */
000031B6  D040                     add.w      D0, D0
000031B8  303B 0006                move.w     D0, [PC + D0.w + 0x6]
000031BC  4EFB 0000                jmp        [PC + D0.w]
000031C0  00C0                     .incomplete
000031C2  00C0                     .incomplete
000031C4  00C0                     .incomplete
000031C6  000E 004A                ori.b      A6, 0x4A /* 'J' */
000031CA  0086 7001 2F00           ori.l      D6, 0x70012F00
000031D0  48C7                     ext.l      D7
000031D2  2F07                     move.l     -[A7], D7
000031D4  2F0B                     move.l     -[A7], A3
000031D6  2F0C                     move.l     -[A7], A4
000031D8  2F0C                     move.l     -[A7], A4
000031DA  7200                     moveq.l    D1, 0x00
000031DC  2F01                     move.l     -[A7], D1
000031DE  2F01                     move.l     -[A7], D1
000031E0  4EAD 1F82                jsr        [A5 + 0x1F82 /* export_1004, CODE:37 @ 00001652 */]
000031E4  2940 017C                move.l     [A4 + 0x17C], D0
000031E8  670C                     beq        +0xE /* 000031F6 */
000031EA  202C 017C                move.l     D0, [A4 + 0x17C]
000031EE  D0BC 0000 0080           add.l      D0, 0x80
000031F4  6002                     bra        +0x4 /* 000031F8 */
label000031F6:
000031F6  7000                     moveq.l    D0, 0x00
label000031F8:
000031F8  2F00                     move.l     -[A7], D0
000031FA  2F0C                     move.l     -[A7], A4
000031FC  4EAD 11F2                jsr        [A5 + 0x11F2 /* export_570, CODE:26 @ 000032DA */]
00003200  4FEF 0024                lea.l      A7, [A7 + 0x24]
00003204  6000 00BE                bra        +0xC0 /* 000032C4 */
00003208  7001                     moveq.l    D0, 0x01
0000320A  2F00                     move.l     -[A7], D0
0000320C  48C7                     ext.l      D7
0000320E  2F07                     move.l     -[A7], D7
00003210  2F0B                     move.l     -[A7], A3
00003212  2F0C                     move.l     -[A7], A4
00003214  2F0C                     move.l     -[A7], A4
00003216  7200                     moveq.l    D1, 0x00
00003218  2F01                     move.l     -[A7], D1
0000321A  2F01                     move.l     -[A7], D1
0000321C  4EAD 1F82                jsr        [A5 + 0x1F82 /* export_1004, CODE:37 @ 00001652 */]
00003220  2940 0180                move.l     [A4 + 0x180], D0
00003224  670C                     beq        +0xE /* 00003232 */
00003226  202C 0180                move.l     D0, [A4 + 0x180]
0000322A  D0BC 0000 0080           add.l      D0, 0x80
00003230  6002                     bra        +0x4 /* 00003234 */
label00003232:
00003232  7000                     moveq.l    D0, 0x00
label00003234:
00003234  2F00                     move.l     -[A7], D0
00003236  2F0C                     move.l     -[A7], A4
00003238  4EAD 11F2                jsr        [A5 + 0x11F2 /* export_570, CODE:26 @ 000032DA */]
0000323C  4FEF 0024                lea.l      A7, [A7 + 0x24]
00003240  6000 0082                bra        +0x84 /* 000032C4 */
00003244  7001                     moveq.l    D0, 0x01
00003246  2F00                     move.l     -[A7], D0
00003248  48C7                     ext.l      D7
0000324A  2F07                     move.l     -[A7], D7
0000324C  2F0B                     move.l     -[A7], A3
0000324E  2F0C                     move.l     -[A7], A4
00003250  2F0C                     move.l     -[A7], A4
00003252  7200                     moveq.l    D1, 0x00
00003254  2F01                     move.l     -[A7], D1
00003256  2F01                     move.l     -[A7], D1
00003258  4EAD 1F82                jsr        [A5 + 0x1F82 /* export_1004, CODE:37 @ 00001652 */]
0000325C  2940 0184                move.l     [A4 + 0x184], D0
00003260  670C                     beq        +0xE /* 0000326E */
00003262  202C 0184                move.l     D0, [A4 + 0x184]
00003266  D0BC 0000 0080           add.l      D0, 0x80
0000326C  6002                     bra        +0x4 /* 00003270 */
label0000326E:
0000326E  7000                     moveq.l    D0, 0x00
label00003270:
00003270  2F00                     move.l     -[A7], D0
00003272  2F0C                     move.l     -[A7], A4
00003274  4EAD 11F2                jsr        [A5 + 0x11F2 /* export_570, CODE:26 @ 000032DA */]
00003278  4FEF 0024                lea.l      A7, [A7 + 0x24]
0000327C  6046                     bra        +0x48 /* 000032C4 */
label0000327E:
0000327E  7001                     moveq.l    D0, 0x01
00003280  2F00                     move.l     -[A7], D0
00003282  48C7                     ext.l      D7
00003284  2F07                     move.l     -[A7], D7
00003286  2F0B                     move.l     -[A7], A3
00003288  2F0C                     move.l     -[A7], A4
0000328A  2F0C                     move.l     -[A7], A4
0000328C  7200                     moveq.l    D1, 0x00
0000328E  2F01                     move.l     -[A7], D1
00003290  2F01                     move.l     -[A7], D1
00003292  4EAD 1F82                jsr        [A5 + 0x1F82 /* export_1004, CODE:37 @ 00001652 */]
00003296  2D40 FFFC                move.l     [A6 - 0x4], D0
0000329A  2F00                     move.l     -[A7], D0
0000329C  486C 0188                pea.l      [A4 + 0x188]
000032A0  4EAD 013A                jsr        [A5 + 0x13A /* export_35, CODE:1 @ 00002256 */]
000032A4  4AAE FFFC                tst.l      [A6 - 0x4]
000032A8  670C                     beq        +0xE /* 000032B6 */
000032AA  202E FFFC                move.l     D0, [A6 - 0x4]
000032AE  D0BC 0000 0080           add.l      D0, 0x80
000032B4  6002                     bra        +0x4 /* 000032B8 */
label000032B6:
000032B6  7000                     moveq.l    D0, 0x00
label000032B8:
000032B8  2F00                     move.l     -[A7], D0
000032BA  2F0C                     move.l     -[A7], A4
000032BC  4EAD 11F2                jsr        [A5 + 0x11F2 /* export_570, CODE:26 @ 000032DA */]
000032C0  4FEF 002C                lea.l      A7, [A7 + 0x2C]
label000032C4:
000032C4  4CEE 1880 FFF0           movem.l    D7,A3,A4, [A6 - 0x10]
000032CA  4E5E                     unlink     A6
000032CC  4E75                     rts
000032CE  8024 4E65 7749 636F 6... dc.b       "NewIcon__15cAirplaneWindowFsR4RectT1"
fn000032F6:
000032F6  4E56 FFF4                link       A6, -0x000C
000032FA  48E7 0318                movem.l    -[A7], D6,D7,A3,A4
000032FE  286E 0008                movea.l    A4, [A6 + 0x8]
00003302  204D                     movea.l    A0, A5
00003304  D1FC FFFF 82F6           add.l      A0, 0xFFFF82F6
0000330A  3E10                     move.w     D7, [A0]
0000330C  2F3C 4564 6974           move.l     -[A7], 0x45646974 /* 'Edit' */
00003312  224D                     movea.l    A1, A5
00003314  D3FC FFFF 7868           add.l      A1, 0xFFFF7868
0000331A  2051                     movea.l    A0, [A1]
0000331C  2F28 0128                move.l     -[A7], [A0 + 0x128]
00003320  4EAD 07FA                jsr        [A5 + 0x7FA /* export_251, CODE:13 @ 000066E8 */]
00003324  224D                     movea.l    A1, A5
00003326  D3FC FFFF 7868           add.l      A1, 0xFFFF7868
0000332C  2051                     movea.l    A0, [A1]
0000332E  2068 0128                movea.l    A0, [A0 + 0x128]
00003332  2D48 FFF4                move.l     [A6 - 0xC], A0
00003336  2668 00F4                movea.l    A3, [A0 + 0xF4]
0000333A  206B 0174                movea.l    A0, [A3 + 0x174]
0000333E  4228 015E                clr.b      [A0 + 0x15E]
00003342  48C7                     ext.l      D7
00003344  2F07                     move.l     -[A7], D7
00003346  2007                     move.l     D0, D7
00003348  C1FC 003A                muls.w     D0, 0x3A /* ':' */
0000334C  204D                     movea.l    A0, A5
0000334E  D1FC FFFE 9F9C           add.l      A0, 0xFFFE9F9C
00003354  3030 0000                move.w     D0, [A0 + D0.w]
00003358  48C0                     ext.l      D0
0000335A  2F00                     move.l     -[A7], D0
0000335C  2007                     move.l     D0, D7
0000335E  C1FC 003A                muls.w     D0, 0x3A /* ':' */
00003362  204D                     movea.l    A0, A5
00003364  D1FC FFFE 9F9C           add.l      A0, 0xFFFE9F9C
0000336A  7200                     moveq.l    D1, 0x00
0000336C  1230 0006                move.b     D1, [A0 + D0.w + 0x6]
00003370  2F01                     move.l     -[A7], D1
00003372  2007                     move.l     D0, D7
00003374  C1FC 003A                muls.w     D0, 0x3A /* ':' */
00003378  204D                     movea.l    A0, A5
0000337A  D1FC FFFE 9F9C           add.l      A0, 0xFFFE9F9C
00003380  7200                     moveq.l    D1, 0x00
00003382  1230 0005                move.b     D1, [A0 + D0.w + 0x5]
00003386  2F01                     move.l     -[A7], D1
00003388  4EAD 0612                jsr        [A5 + 0x612 /* export_190, CODE:10 @ 0000378A */]
0000338C  204D                     movea.l    A0, A5
0000338E  D1FC FFFF 7868           add.l      A0, 0xFFFF7868
00003394  2050                     movea.l    A0, [A0]
00003396  2D48 FFF8                move.l     [A6 - 0x8], A0
0000339A  2668 0128                movea.l    A3, [A0 + 0x128]
0000339E  7000                     moveq.l    D0, 0x00
000033A0  2D40 FFFC                move.l     [A6 - 0x4], D0
000033A4  2F00                     move.l     -[A7], D0
000033A6  2F0B                     move.l     -[A7], A3
000033A8  2F3C 454D 6F76           move.l     -[A7], 0x454D6F76 /* 'EMov' */
000033AE  206B 00F0                movea.l    A0, [A3 + 0xF0]
000033B2  2248                     movea.l    A1, A0
000033B4  2269 0060                movea.l    A1, [A1 + 0x60]
000033B8  D0E9 0058                add.w      A0, [A1 + 0x58]
000033BC  2F08                     move.l     -[A7], A0
000033BE  206B 00F0                movea.l    A0, [A3 + 0xF0]
000033C2  2068 0060                movea.l    A0, [A0 + 0x60]
000033C6  2268 005C                movea.l    A1, [A0 + 0x5C]
000033CA  4E91                     jsr        [A1]
000033CC  2007                     move.l     D0, D7
000033CE  C1FC 003A                muls.w     D0, 0x3A /* ':' */
000033D2  204D                     movea.l    A0, A5
000033D4  D1FC FFFE 9F9C           add.l      A0, 0xFFFE9F9C
000033DA  7200                     moveq.l    D1, 0x00
000033DC  1230 0006                move.b     D1, [A0 + D0.w + 0x6]
000033E0  2F01                     move.l     -[A7], D1
000033E2  2007                     move.l     D0, D7
000033E4  C1FC 003A                muls.w     D0, 0x3A /* ':' */
000033E8  204D                     movea.l    A0, A5
000033EA  D1FC FFFE 9F9C           add.l      A0, 0xFFFE9F9C
000033F0  7200                     moveq.l    D1, 0x00
000033F2  1230 0005                move.b     D1, [A0 + D0.w + 0x5]
000033F6  2F01                     move.l     -[A7], D1
000033F8  204D                     movea.l    A0, A5
000033FA  D1FC FFFF 7868           add.l      A0, 0xFFFF7868
00003400  2F10                     move.l     -[A7], [A0]
00003402  4EAD 13D2                jsr        [A5 + 0x13D2 /* export_630, CODE:27 @ 00001A1E */]
00003406  204D                     movea.l    A0, A5
00003408  D1FC FFFF 82FA           add.l      A0, 0xFFFF82FA
0000340E  1010                     move.b     D0, [A0]
00003410  49C0                     lea.l      A4, D0
00003412  E788                     lsl        D0, 3
00003414  3C00                     move.w     D6, D0
00003416  5C46                     addq.w     D6, 6
00003418  204D                     movea.l    A0, A5
0000341A  D1FC FFFF 82F8           add.l      A0, 0xFFFF82F8
00003420  1010                     move.b     D0, [A0]
00003422  49C0                     lea.l      A4, D0
00003424  E788                     lsl        D0, 3
00003426  3C00                     move.w     D6, D0
00003428  5846                     addq.w     D6, 4
0000342A  204D                     movea.l    A0, A5
0000342C  D1FC FFFF 8822           add.l      A0, 0xFFFF8822
00003432  7000                     moveq.l    D0, 0x00
00003434  2080                     move.l     [A0], D0
00003436  2940 01BC                move.l     [A4 + 0x1BC], D0
0000343A  2940 01AC                move.l     [A4 + 0x1AC], D0
0000343E  296C 01BC 01B0           move.l     [A4 + 0x1B0], [A4 + 0x1BC]
00003444  204D                     movea.l    A0, A5
00003446  D1FC FFFF 8812           add.l      A0, 0xFFFF8812
0000344C  4210                     clr.b      [A0]
0000344E  204D                     movea.l    A0, A5
00003450  D1FC FFFF 881A           add.l      A0, 0xFFFF881A
00003456  4250                     clr.w      [A0]
00003458  397C 000A 01AA           move.w     [A4 + 0x1AA], 0xA /* '\n' */
0000345E  204D                     movea.l    A0, A5
00003460  D1FC FFFF 8814           add.l      A0, 0xFFFF8814
00003466  4210                     clr.b      [A0]
00003468  204D                     movea.l    A0, A5
0000346A  D1FC FFFF 881C           add.l      A0, 0xFFFF881C
00003470  4250                     clr.w      [A0]
00003472  426C 01A8                clr.w      [A4 + 0x1A8]
00003476  2207                     move.l     D1, D7
00003478  C3FC 003A                muls.w     D1, 0x3A /* ':' */
0000347C  204D                     movea.l    A0, A5
0000347E  D1FC FFFE 9F9C           add.l      A0, 0xFFFE9F9C
00003484  7400                     moveq.l    D2, 0x00
00003486  1430 1005                move.b     D2, [A0 + D1.w + 0x5]
0000348A  4A82                     tst.l      D2
0000348C  204D                     movea.l    A0, A5
0000348E  D1FC FFFF 8820           add.l      A0, 0xFFFF8820
00003494  3082                     move.w     [A0], D2
00003496  2207                     move.l     D1, D7
00003498  C3FC 003A                muls.w     D1, 0x3A /* ':' */
0000349C  204D                     movea.l    A0, A5
0000349E  D1FC FFFE 9F9C           add.l      A0, 0xFFFE9F9C
000034A4  7400                     moveq.l    D2, 0x00
000034A6  1430 1006                move.b     D2, [A0 + D1.w + 0x6]
000034AA  4A82                     tst.l      D2
000034AC  204D                     movea.l    A0, A5
000034AE  D1FC FFFF 881E           add.l      A0, 0xFFFF881E
000034B4  3082                     move.w     [A0], D2
000034B6  204D                     movea.l    A0, A5
000034B8  D1FC FFFE BED2           add.l      A0, 0xFFFEBED2
000034BE  4A10                     tst.b      [A0]
000034C0  4FEF 0034                lea.l      A7, [A7 + 0x34]
000034C4  6726                     beq        +0x28 /* 000034EC */
000034C6  4878 2EE0                push.l     0x2EE0
000034CA  7001                     moveq.l    D0, 0x01
000034CC  2F00                     move.l     -[A7], D0
000034CE  7200                     moveq.l    D1, 0x00
000034D0  2F01                     move.l     -[A7], D1
000034D2  4878 2337                push.l     0x2337 /* '#7' */
000034D6  4EAD 01F2                jsr        [A5 + 0x1F2 /* export_58, CODE:1 @ 00004490 */]
000034DA  204D                     movea.l    A0, A5
000034DC  D1FC FFFF 8826           add.l      A0, 0xFFFF8826
000034E2  10BC 0001                move.b     [A0], 0x1
000034E6  4FEF 0010                lea.l      A7, [A7 + 0x10]
000034EA  600A                     bra        +0xC /* 000034F6 */
label000034EC:
000034EC  204D                     movea.l    A0, A5
000034EE  D1FC FFFF 8826           add.l      A0, 0xFFFF8826
000034F4  4210                     clr.b      [A0]
label000034F6:
000034F6  197C 0001 01A6           move.b     [A4 + 0x1A6], 0x1
000034FC  4CEE 18C0 FFE4           movem.l    D6,D7,A3,A4, [A6 - 0x1C]
00003502  4E5E                     unlink     A6
00003504  4E75                     rts
00003506  9A44 6F46 6C79 5F5F 3... dc.b       "DoFly__15cAirplaneWindowFv"
export_397:
00003524  4E56 0000                link       A6, 0
00003528  48E7 0F18                movem.l    -[A7], D4,D5,D6,D7,A3,A4
0000352C  286E 0008                movea.l    A4, [A6 + 0x8]
00003530  598F                     subq.l     A7, 4
00003532  A975                     syscall    TickCount
00003534  2A1F                     move.l     D5, [A7]+
00003536  204D                     movea.l    A0, A5
00003538  D1FC FFFF 8822           add.l      A0, 0xFFFF8822
0000353E  BA90                     cmp.l      D5, [A0]
00003540  6F1A                     ble        +0x1C /* 0000355C */
00003542  2005                     move.l     D0, D5
00003544  204D                     movea.l    A0, A5
00003546  D1FC FFFF 8822           add.l      A0, 0xFFFF8822
0000354C  9090                     sub.l      D0, [A0]
0000354E  D1AC 01BC                add.l      [A4 + 0x1BC], D0
00003552  204D                     movea.l    A0, A5
00003554  D1FC FFFF 8822           add.l      A0, 0xFFFF8822
0000355A  2085                     move.l     [A0], D5
label0000355C:
0000355C  204D                     movea.l    A0, A5
0000355E  D1FC FFFF 82F6           add.l      A0, 0xFFFF82F6
00003564  3A10                     move.w     D5, [A0]
00003566  202C 01BC                move.l     D0, [A4 + 0x1BC]
0000356A  90AC 01AC                sub.l      D0, [A4 + 0x1AC]
0000356E  721E                     moveq.l    D1, 0x1E
00003570  B280                     cmp.l      D1, D0
00003572  643A                     bcc        +0x3C /* 000035AE */
00003574  2005                     move.l     D0, D5
00003576  C1FC 003A                muls.w     D0, 0x3A /* ':' */
0000357A  204D                     movea.l    A0, A5
0000357C  D1FC FFFE 9F9C           add.l      A0, 0xFFFE9F9C
00003582  1230 0011                move.b     D1, [A0 + D0.w + 0x11]
00003586  5230 0011                addq.b     [A0 + D0.w + 0x11], 1
0000358A  2005                     move.l     D0, D5
0000358C  C1FC 003A                muls.w     D0, 0x3A /* ':' */
00003590  204D                     movea.l    A0, A5
00003592  D1FC FFFE 9F9C           add.l      A0, 0xFFFE9F9C
00003598  7200                     moveq.l    D1, 0x00
0000359A  1230 0011                move.b     D1, [A0 + D0.w + 0x11]
0000359E  0C01 00FA                cmpi.b     D1, 0xFA
000035A2  6304                     bls        +0x6 /* 000035A8 */
000035A4  422C 01A6                clr.b      [A4 + 0x1A6]
label000035A8:
000035A8  296C 01BC 01AC           move.l     [A4 + 0x1AC], [A4 + 0x1BC]
label000035AE:
000035AE  202C 01BC                move.l     D0, [A4 + 0x1BC]
000035B2  90AC 01B0                sub.l      D0, [A4 + 0x1B0]
000035B6  721E                     moveq.l    D1, 0x1E
000035B8  B280                     cmp.l      D1, D0
000035BA  6434                     bcc        +0x36 /* 000035F0 */
000035BC  2005                     move.l     D0, D5
000035BE  C1FC 003A                muls.w     D0, 0x3A /* ':' */
000035C2  204D                     movea.l    A0, A5
000035C4  D1FC FFFE 9F9C           add.l      A0, 0xFFFE9F9C
000035CA  5370 0014                subq.w     [A0 + D0.w + 0x14], 1
000035CE  4A70 0014                tst.w      [A0 + D0.w + 0x14]
000035D2  6E16                     bgt        +0x18 /* 000035EA */
000035D4  2005                     move.l     D0, D5
000035D6  C1FC 003A                muls.w     D0, 0x3A /* ':' */
000035DA  204D                     movea.l    A0, A5
000035DC  D1FC FFFE 9F9C           add.l      A0, 0xFFFE9F9C
000035E2  4270 0014                clr.w      [A0 + D0.w + 0x14]
000035E6  422C 01A6                clr.b      [A4 + 0x1A6]
label000035EA:
000035EA  296C 01BC 01B0           move.l     [A4 + 0x1B0], [A4 + 0x1BC]
label000035F0:
000035F0  204D                     movea.l    A0, A5
000035F2  D1FC FFFF 8812           add.l      A0, 0xFFFF8812
000035F8  4A10                     tst.b      [A0]
000035FA  674E                     beq        +0x50 /* 0000364A */
000035FC  202C 01BC                move.l     D0, [A4 + 0x1BC]
00003600  90AC 01B4                sub.l      D0, [A4 + 0x1B4]
00003604  7207                     moveq.l    D1, 0x07
00003606  B280                     cmp.l      D1, D0
00003608  6440                     bcc        +0x42 /* 0000364A */
0000360A  2005                     move.l     D0, D5
0000360C  C1FC 003A                muls.w     D0, 0x3A /* ':' */
00003610  204D                     movea.l    A0, A5
00003612  D1FC FFFE 9F9C           add.l      A0, 0xFFFE9F9C
00003618  7200                     moveq.l    D1, 0x00
0000361A  3230 0022                move.w     D1, [A0 + D0.w + 0x22]
0000361E  4A81                     tst.l      D1
00003620  6318                     bls        +0x1A /* 0000363A */
00003622  2005                     move.l     D0, D5
00003624  C1FC 003A                muls.w     D0, 0x3A /* ':' */
00003628  204D                     movea.l    A0, A5
0000362A  D1FC FFFE 9F9C           add.l      A0, 0xFFFE9F9C
00003630  3230 0022                move.w     D1, [A0 + D0.w + 0x22]
00003634  5370 0022                subq.w     [A0 + D0.w + 0x22], 1
00003638  600A                     bra        +0xC /* 00003644 */
label0000363A:
0000363A  204D                     movea.l    A0, A5
0000363C  D1FC FFFF 8812           add.l      A0, 0xFFFF8812
00003642  4210                     clr.b      [A0]
label00003644:
00003644  296C 01BC 01B4           move.l     [A4 + 0x1B4], [A4 + 0x1BC]
label0000364A:
0000364A  302C 01A8                move.w     D0, [A4 + 0x1A8]
0000364E  6B00 00D0                bmi        +0xD2 /* 00003720 */
00003652  0C40 0006                cmpi.w     D0, 0x6
00003656  6E00 00C8                bgt        +0xCA /* 00003720 */
0000365A  D040                     add.w      D0, D0
0000365C  303B 0006                move.w     D0, [PC + D0.w + 0x6]
00003660  4EFB 0000                jmp        [PC + D0.w]
00003664  00BE 0010 002C           ori.l      <<invalid special address>>, 0x10002C
0000366A  0046 005A                ori.w      D6, 0x5A /* 'Z' */
0000366E  0070 0076 204D           ori.w      [A0 + D2.w + 0x4D], 0x76 /* 'v' */
00003674  D1FC FFFF 881C           add.l      A0, 0xFFFF881C
0000367A  3010                     move.w     D0, [A0]
0000367C  5350                     subq.w     [A0], 1
0000367E  204D                     movea.l    A0, A5
00003680  D1FC FFFF 881C           add.l      A0, 0xFFFF881C
00003686  0250 0007                andi.w     [A0], 0x7
0000368A  6000 0094                bra        +0x96 /* 00003720 */
0000368E  204D                     movea.l    A0, A5
00003690  D1FC FFFF 881C           add.l      A0, 0xFFFF881C
00003696  3010                     move.w     D0, [A0]
00003698  5250                     addq.w     [A0], 1
0000369A  204D                     movea.l    A0, A5
0000369C  D1FC FFFF 881C           add.l      A0, 0xFFFF881C
000036A2  0250 0007                andi.w     [A0], 0x7
000036A6  6078                     bra        +0x7A /* 00003720 */
000036A8  526C 01AA                addq.w     [A4 + 0x1AA], 1
000036AC  7064                     moveq.l    D0, 0x64
000036AE  B06C 01AA                cmp.w      D0, [A4 + 0x1AA]
000036B2  6C6C                     bge        +0x6E /* 00003720 */
000036B4  397C 0064 01AA           move.w     [A4 + 0x1AA], 0x64 /* 'd' */
000036BA  6064                     bra        +0x66 /* 00003720 */
000036BC  536C 01AA                subq.w     [A4 + 0x1AA], 1
000036C0  7001                     moveq.l    D0, 0x01
000036C2  B06C 01AA                cmp.w      D0, [A4 + 0x1AA]
000036C6  6F58                     ble        +0x5A /* 00003720 */
000036C8  426C 01AA                clr.w      [A4 + 0x1AA]
000036CC  422C 01A6                clr.b      [A4 + 0x1A6]
000036D0  604E                     bra        +0x50 /* 00003720 */
000036D2  422C 01A6                clr.b      [A4 + 0x1A6]
000036D6  6048                     bra        +0x4A /* 00003720 */
000036D8  204D                     movea.l    A0, A5
000036DA  D1FC FFFF 8812           add.l      A0, 0xFFFF8812
000036E0  4A10                     tst.b      [A0]
000036E2  6626                     bne        +0x28 /* 0000370A */
000036E4  2005                     move.l     D0, D5
000036E6  C1FC 003A                muls.w     D0, 0x3A /* ':' */
000036EA  204D                     movea.l    A0, A5
000036EC  D1FC FFFE 9F9C           add.l      A0, 0xFFFE9F9C
000036F2  7200                     moveq.l    D1, 0x00
000036F4  3230 0022                move.w     D1, [A0 + D0.w + 0x22]
000036F8  4A81                     tst.l      D1
000036FA  630E                     bls        +0x10 /* 0000370A */
000036FC  204D                     movea.l    A0, A5
000036FE  D1FC FFFF 8812           add.l      A0, 0xFFFF8812
00003704  10BC 0001                move.b     [A0], 0x1
00003708  6016                     bra        +0x18 /* 00003720 */
label0000370A:
0000370A  204D                     movea.l    A0, A5
0000370C  D1FC FFFF 8812           add.l      A0, 0xFFFF8812
00003712  4A10                     tst.b      [A0]
00003714  670A                     beq        +0xC /* 00003720 */
00003716  204D                     movea.l    A0, A5
00003718  D1FC FFFF 8812           add.l      A0, 0xFFFF8812
0000371E  4210                     clr.b      [A0]
label00003720:
00003720  426C 01A8                clr.w      [A4 + 0x1A8]
00003724  204D                     movea.l    A0, A5
00003726  D1FC FFFF 881C           add.l      A0, 0xFFFF881C
0000372C  3010                     move.w     D0, [A0]
0000372E  6B00 0222                bmi        +0x224 /* 00003952 */
00003732  0C40 0007                cmpi.w     D0, 0x7
00003736  6E00 021A                bgt        +0x21C /* 00003952 */
0000373A  D040                     add.w      D0, D0
0000373C  303B 0006                move.w     D0, [PC + D0.w + 0x6]
00003740  4EFB 0000                jmp        [PC + D0.w]
00003744  0012 0040                ori.b      [A2], 0x40 /* '@' */
00003748  0096 00C4 011A           ori.l      [A6], 0xC4011A
0000374E  0148                     bchg       A0, D0
00003750  019A                     bclr       [A2]+, D0
00003752  01C2                     .incomplete
00003754  7003                     moveq.l    D0, 0x03
00003756  204D                     movea.l    A0, A5
00003758  D1FC FFFF 881E           add.l      A0, 0xFFFF881E
0000375E  B050                     cmp.w      D0, [A0]
00003760  6C10                     bge        +0x12 /* 00003772 */
00003762  204D                     movea.l    A0, A5
00003764  D1FC FFFF 881E           add.l      A0, 0xFFFF881E
0000376A  3010                     move.w     D0, [A0]
0000376C  5350                     subq.w     [A0], 1
0000376E  6000 01E2                bra        +0x1E4 /* 00003952 */
label00003772:
00003772  204D                     movea.l    A0, A5
00003774  D1FC FFFF 881C           add.l      A0, 0xFFFF881C
0000377A  30BC 0002                move.w     [A0], 0x2
0000377E  6000 01D2                bra        +0x1D4 /* 00003952 */
00003782  7003                     moveq.l    D0, 0x03
00003784  204D                     movea.l    A0, A5
00003786  D1FC FFFF 881E           add.l      A0, 0xFFFF881E
0000378C  B050                     cmp.w      D0, [A0]
0000378E  6C0E                     bge        +0x10 /* 0000379E */
00003790  204D                     movea.l    A0, A5
00003792  D1FC FFFF 881E           add.l      A0, 0xFFFF881E
00003798  3010                     move.w     D0, [A0]
0000379A  5350                     subq.w     [A0], 1
0000379C  600C                     bra        +0xE /* 000037AA */
label0000379E:
0000379E  204D                     movea.l    A0, A5
000037A0  D1FC FFFF 881C           add.l      A0, 0xFFFF881C
000037A6  30BC 0002                move.w     [A0], 0x2
label000037AA:
000037AA  705D                     moveq.l    D0, 0x5D
000037AC  204D                     movea.l    A0, A5
000037AE  D1FC FFFF 8820           add.l      A0, 0xFFFF8820
000037B4  B050                     cmp.w      D0, [A0]
000037B6  6F10                     ble        +0x12 /* 000037C8 */
000037B8  204D                     movea.l    A0, A5
000037BA  D1FC FFFF 8820           add.l      A0, 0xFFFF8820
000037C0  3010                     move.w     D0, [A0]
000037C2  5250                     addq.w     [A0], 1
000037C4  6000 018C                bra        +0x18E /* 00003952 */
label000037C8:
000037C8  204D                     movea.l    A0, A5
000037CA  D1FC FFFF 881C           add.l      A0, 0xFFFF881C
000037D0  30BC 0004                move.w     [A0], 0x4
000037D4  6000 017C                bra        +0x17E /* 00003952 */
000037D8  705D                     moveq.l    D0, 0x5D
000037DA  204D                     movea.l    A0, A5
000037DC  D1FC FFFF 8820           add.l      A0, 0xFFFF8820
000037E2  B050                     cmp.w      D0, [A0]
000037E4  6F10                     ble        +0x12 /* 000037F6 */
000037E6  204D                     movea.l    A0, A5
000037E8  D1FC FFFF 8820           add.l      A0, 0xFFFF8820
000037EE  3010                     move.w     D0, [A0]
000037F0  5250                     addq.w     [A0], 1
000037F2  6000 015E                bra        +0x160 /* 00003952 */
label000037F6:
000037F6  204D                     movea.l    A0, A5
000037F8  D1FC FFFF 881C           add.l      A0, 0xFFFF881C
000037FE  30BC 0004                move.w     [A0], 0x4
00003802  6000 014E                bra        +0x150 /* 00003952 */
00003806  705D                     moveq.l    D0, 0x5D
00003808  204D                     movea.l    A0, A5
0000380A  D1FC FFFF 881E           add.l      A0, 0xFFFF881E
00003810  B050                     cmp.w      D0, [A0]
00003812  6F0E                     ble        +0x10 /* 00003822 */
00003814  204D                     movea.l    A0, A5
00003816  D1FC FFFF 881E           add.l      A0, 0xFFFF881E
0000381C  3010                     move.w     D0, [A0]
0000381E  5250                     addq.w     [A0], 1
00003820  600C                     bra        +0xE /* 0000382E */
label00003822:
00003822  204D                     movea.l    A0, A5
00003824  D1FC FFFF 881C           add.l      A0, 0xFFFF881C
0000382A  30BC 0004                move.w     [A0], 0x4
label0000382E:
0000382E  705D                     moveq.l    D0, 0x5D
00003830  204D                     movea.l    A0, A5
00003832  D1FC FFFF 8820           add.l      A0, 0xFFFF8820
00003838  B050                     cmp.w      D0, [A0]
0000383A  6F10                     ble        +0x12 /* 0000384C */
0000383C  204D                     movea.l    A0, A5
0000383E  D1FC FFFF 8820           add.l      A0, 0xFFFF8820
00003844  3010                     move.w     D0, [A0]
00003846  5250                     addq.w     [A0], 1
00003848  6000 0108                bra        +0x10A /* 00003952 */
label0000384C:
0000384C  204D                     movea.l    A0, A5
0000384E  D1FC FFFF 881C           add.l      A0, 0xFFFF881C
00003854  30BC 0006                move.w     [A0], 0x6
00003858  6000 00F8                bra        +0xFA /* 00003952 */
0000385C  705D                     moveq.l    D0, 0x5D
0000385E  204D                     movea.l    A0, A5
00003860  D1FC FFFF 881E           add.l      A0, 0xFFFF881E
00003866  B050                     cmp.w      D0, [A0]
00003868  6F10                     ble        +0x12 /* 0000387A */
0000386A  204D                     movea.l    A0, A5
0000386C  D1FC FFFF 881E           add.l      A0, 0xFFFF881E
00003872  3010                     move.w     D0, [A0]
00003874  5250                     addq.w     [A0], 1
00003876  6000 00DA                bra        +0xDC /* 00003952 */
label0000387A:
0000387A  204D                     movea.l    A0, A5
0000387C  D1FC FFFF 881C           add.l      A0, 0xFFFF881C
00003882  30BC 0006                move.w     [A0], 0x6
00003886  6000 00CA                bra        +0xCC /* 00003952 */
0000388A  705D                     moveq.l    D0, 0x5D
0000388C  204D                     movea.l    A0, A5
0000388E  D1FC FFFF 881E           add.l      A0, 0xFFFF881E
00003894  B050                     cmp.w      D0, [A0]
00003896  6F0E                     ble        +0x10 /* 000038A6 */
00003898  204D                     movea.l    A0, A5
0000389A  D1FC FFFF 881E           add.l      A0, 0xFFFF881E
000038A0  3010                     move.w     D0, [A0]
000038A2  5250                     addq.w     [A0], 1
000038A4  600C                     bra        +0xE /* 000038B2 */
label000038A6:
000038A6  204D                     movea.l    A0, A5
000038A8  D1FC FFFF 881C           add.l      A0, 0xFFFF881C
000038AE  30BC 0006                move.w     [A0], 0x6
label000038B2:
000038B2  7003                     moveq.l    D0, 0x03
000038B4  204D                     movea.l    A0, A5
000038B6  D1FC FFFF 8820           add.l      A0, 0xFFFF8820
000038BC  B050                     cmp.w      D0, [A0]
000038BE  6C10                     bge        +0x12 /* 000038D0 */
000038C0  204D                     movea.l    A0, A5
000038C2  D1FC FFFF 8820           add.l      A0, 0xFFFF8820
000038C8  3010                     move.w     D0, [A0]
000038CA  5350                     subq.w     [A0], 1
000038CC  6000 0084                bra        +0x86 /* 00003952 */
label000038D0:
000038D0  204D                     movea.l    A0, A5
000038D2  D1FC FFFF 881C           add.l      A0, 0xFFFF881C
000038D8  4250                     clr.w      [A0]
000038DA  6076                     bra        +0x78 /* 00003952 */
000038DC  7003                     moveq.l    D0, 0x03
000038DE  204D                     movea.l    A0, A5
000038E0  D1FC FFFF 8820           add.l      A0, 0xFFFF8820
000038E6  B050                     cmp.w      D0, [A0]
000038E8  6C0E                     bge        +0x10 /* 000038F8 */
000038EA  204D                     movea.l    A0, A5
000038EC  D1FC FFFF 8820           add.l      A0, 0xFFFF8820
000038F2  3010                     move.w     D0, [A0]
000038F4  5350                     subq.w     [A0], 1
000038F6  605A                     bra        +0x5C /* 00003952 */
label000038F8:
000038F8  204D                     movea.l    A0, A5
000038FA  D1FC FFFF 881C           add.l      A0, 0xFFFF881C
00003900  4250                     clr.w      [A0]
00003902  604E                     bra        +0x50 /* 00003952 */
00003904  7003                     moveq.l    D0, 0x03
00003906  204D                     movea.l    A0, A5
00003908  D1FC FFFF 881E           add.l      A0, 0xFFFF881E
0000390E  B050                     cmp.w      D0, [A0]
00003910  6C0E                     bge        +0x10 /* 00003920 */
00003912  204D                     movea.l    A0, A5
00003914  D1FC FFFF 881E           add.l      A0, 0xFFFF881E
0000391A  3010                     move.w     D0, [A0]
0000391C  5350                     subq.w     [A0], 1
0000391E  600C                     bra        +0xE /* 0000392C */
label00003920:
00003920  204D                     movea.l    A0, A5
00003922  D1FC FFFF 881C           add.l      A0, 0xFFFF881C
00003928  30BC 0002                move.w     [A0], 0x2
label0000392C:
0000392C  7003                     moveq.l    D0, 0x03
0000392E  204D                     movea.l    A0, A5
00003930  D1FC FFFF 8820           add.l      A0, 0xFFFF8820
00003936  B050                     cmp.w      D0, [A0]
00003938  6C0E                     bge        +0x10 /* 00003948 */
0000393A  204D                     movea.l    A0, A5
0000393C  D1FC FFFF 8820           add.l      A0, 0xFFFF8820
00003942  3010                     move.w     D0, [A0]
00003944  5350                     subq.w     [A0], 1
00003946  600A                     bra        +0xC /* 00003952 */
label00003948:
00003948  204D                     movea.l    A0, A5
0000394A  D1FC FFFF 881C           add.l      A0, 0xFFFF881C
00003950  4250                     clr.w      [A0]
label00003952:
00003952  204D                     movea.l    A0, A5
00003954  D1FC FFFF 8812           add.l      A0, 0xFFFF8812
0000395A  4A10                     tst.b      [A0]
0000395C  6700 019A                beq        +0x19C /* 00003AF8 */
00003960  204D                     movea.l    A0, A5
00003962  D1FC FFFF 881C           add.l      A0, 0xFFFF881C
00003968  3010                     move.w     D0, [A0]
0000396A  6B00 018C                bmi        +0x18E /* 00003AF8 */
0000396E  0C40 0007                cmpi.w     D0, 0x7
00003972  6E00 0184                bgt        +0x186 /* 00003AF8 */
00003976  D040                     add.w      D0, D0
00003978  303B 0006                move.w     D0, [PC + D0.w + 0x6]
0000397C  4EFB 0000                jmp        [PC + D0.w]
00003980  0012 003E                ori.b      [A2], 0x3E /* '>' */
00003984  006E 009A 00CA           ori.w      [A6 + 0xCA], 0x9A
0000398A  00F6                     .incomplete
0000398C  0124                     btst       -[A4], D0
0000398E  014E                     bchg       A6, D0
00003990  204D                     movea.l    A0, A5
00003992  D1FC FFFF 8820           add.l      A0, 0xFFFF8820
00003998  224D                     movea.l    A1, A5
0000399A  D3FC FFFF 8818           add.l      A1, 0xFFFF8818
000039A0  3290                     move.w     [A1], [A0]
000039A2  204D                     movea.l    A0, A5
000039A4  D1FC FFFF 881E           add.l      A0, 0xFFFF881E
000039AA  3010                     move.w     D0, [A0]
000039AC  5440                     addq.w     D0, 2
000039AE  204D                     movea.l    A0, A5
000039B0  D1FC FFFF 8816           add.l      A0, 0xFFFF8816
000039B6  3080                     move.w     [A0], D0
000039B8  6000 013E                bra        +0x140 /* 00003AF8 */
000039BC  204D                     movea.l    A0, A5
000039BE  D1FC FFFF 8820           add.l      A0, 0xFFFF8820
000039C4  3010                     move.w     D0, [A0]
000039C6  5540                     subq.w     D0, 2
000039C8  204D                     movea.l    A0, A5
000039CA  D1FC FFFF 8818           add.l      A0, 0xFFFF8818
000039D0  3080                     move.w     [A0], D0
000039D2  204D                     movea.l    A0, A5
000039D4  D1FC FFFF 881E           add.l      A0, 0xFFFF881E
000039DA  3010                     move.w     D0, [A0]
000039DC  5440                     addq.w     D0, 2
000039DE  204D                     movea.l    A0, A5
000039E0  D1FC FFFF 8816           add.l      A0, 0xFFFF8816
000039E6  3080                     move.w     [A0], D0
000039E8  6000 010E                bra        +0x110 /* 00003AF8 */
000039EC  204D                     movea.l    A0, A5
000039EE  D1FC FFFF 8820           add.l      A0, 0xFFFF8820
000039F4  3010                     move.w     D0, [A0]
000039F6  5540                     subq.w     D0, 2
000039F8  204D                     movea.l    A0, A5
000039FA  D1FC FFFF 8818           add.l      A0, 0xFFFF8818
00003A00  3080                     move.w     [A0], D0
00003A02  204D                     movea.l    A0, A5
00003A04  D1FC FFFF 881E           add.l      A0, 0xFFFF881E
00003A0A  224D                     movea.l    A1, A5
00003A0C  D3FC FFFF 8816           add.l      A1, 0xFFFF8816
00003A12  3290                     move.w     [A1], [A0]
00003A14  6000 00E2                bra        +0xE4 /* 00003AF8 */
00003A18  204D                     movea.l    A0, A5
00003A1A  D1FC FFFF 8820           add.l      A0, 0xFFFF8820
00003A20  3010                     move.w     D0, [A0]
00003A22  5540                     subq.w     D0, 2
00003A24  204D                     movea.l    A0, A5
00003A26  D1FC FFFF 8818           add.l      A0, 0xFFFF8818
00003A2C  3080                     move.w     [A0], D0
00003A2E  204D                     movea.l    A0, A5
00003A30  D1FC FFFF 881E           add.l      A0, 0xFFFF881E
00003A36  3010                     move.w     D0, [A0]
00003A38  5540                     subq.w     D0, 2
00003A3A  204D                     movea.l    A0, A5
00003A3C  D1FC FFFF 8816           add.l      A0, 0xFFFF8816
00003A42  3080                     move.w     [A0], D0
00003A44  6000 00B2                bra        +0xB4 /* 00003AF8 */
00003A48  204D                     movea.l    A0, A5
00003A4A  D1FC FFFF 8820           add.l      A0, 0xFFFF8820
00003A50  224D                     movea.l    A1, A5
00003A52  D3FC FFFF 8818           add.l      A1, 0xFFFF8818
00003A58  3290                     move.w     [A1], [A0]
00003A5A  204D                     movea.l    A0, A5
00003A5C  D1FC FFFF 881E           add.l      A0, 0xFFFF881E
00003A62  3010                     move.w     D0, [A0]
00003A64  5540                     subq.w     D0, 2
00003A66  204D                     movea.l    A0, A5
00003A68  D1FC FFFF 8816           add.l      A0, 0xFFFF8816
00003A6E  3080                     move.w     [A0], D0
00003A70  6000 0086                bra        +0x88 /* 00003AF8 */
00003A74  204D                     movea.l    A0, A5
00003A76  D1FC FFFF 8820           add.l      A0, 0xFFFF8820
00003A7C  3010                     move.w     D0, [A0]
00003A7E  5440                     addq.w     D0, 2
00003A80  204D                     movea.l    A0, A5
00003A82  D1FC FFFF 8818           add.l      A0, 0xFFFF8818
00003A88  3080                     move.w     [A0], D0
00003A8A  204D                     movea.l    A0, A5
00003A8C  D1FC FFFF 881E           add.l      A0, 0xFFFF881E
00003A92  3010                     move.w     D0, [A0]
00003A94  5540                     subq.w     D0, 2
00003A96  204D                     movea.l    A0, A5
00003A98  D1FC FFFF 8816           add.l      A0, 0xFFFF8816
00003A9E  3080                     move.w     [A0], D0
00003AA0  6056                     bra        +0x58 /* 00003AF8 */
00003AA2  204D                     movea.l    A0, A5
00003AA4  D1FC FFFF 8820           add.l      A0, 0xFFFF8820
00003AAA  3010                     move.w     D0, [A0]
00003AAC  5440                     addq.w     D0, 2
00003AAE  204D                     movea.l    A0, A5
00003AB0  D1FC FFFF 8818           add.l      A0, 0xFFFF8818
00003AB6  3080                     move.w     [A0], D0
00003AB8  204D                     movea.l    A0, A5
00003ABA  D1FC FFFF 881E           add.l      A0, 0xFFFF881E
00003AC0  224D                     movea.l    A1, A5
00003AC2  D3FC FFFF 8816           add.l      A1, 0xFFFF8816
00003AC8  3290                     move.w     [A1], [A0]
00003ACA  602C                     bra        +0x2E /* 00003AF8 */
00003ACC  204D                     movea.l    A0, A5
00003ACE  D1FC FFFF 8820           add.l      A0, 0xFFFF8820
00003AD4  3010                     move.w     D0, [A0]
00003AD6  5440                     addq.w     D0, 2
00003AD8  204D                     movea.l    A0, A5
00003ADA  D1FC FFFF 8818           add.l      A0, 0xFFFF8818
00003AE0  3080                     move.w     [A0], D0
00003AE2  204D                     movea.l    A0, A5
00003AE4  D1FC FFFF 881E           add.l      A0, 0xFFFF881E
00003AEA  3010                     move.w     D0, [A0]
00003AEC  5440                     addq.w     D0, 2
00003AEE  204D                     movea.l    A0, A5
00003AF0  D1FC FFFF 8816           add.l      A0, 0xFFFF8816
00003AF6  3080                     move.w     [A0], D0
label00003AF8:
00003AF8  204D                     movea.l    A0, A5
00003AFA  D1FC FFFF 881E           add.l      A0, 0xFFFF881E
00003B00  3010                     move.w     D0, [A0]
00003B02  48C0                     ext.l      D0
00003B04  2F00                     move.l     -[A7], D0
00003B06  204D                     movea.l    A0, A5
00003B08  D1FC FFFF 8820           add.l      A0, 0xFFFF8820
00003B0E  3010                     move.w     D0, [A0]
00003B10  48C0                     ext.l      D0
00003B12  2F00                     move.l     -[A7], D0
00003B14  204D                     movea.l    A0, A5
00003B16  D1FC FFFF 7868           add.l      A0, 0xFFFF7868
00003B1C  2F10                     move.l     -[A7], [A0]
00003B1E  4EAD 13D2                jsr        [A5 + 0x13D2 /* export_630, CODE:27 @ 00001A1E */]
00003B22  204D                     movea.l    A0, A5
00003B24  D1FC FFFF 8814           add.l      A0, 0xFFFF8814
00003B2A  4A10                     tst.b      [A0]
00003B2C  4FEF 000C                lea.l      A7, [A7 + 0xC]
00003B30  671A                     beq        +0x1C /* 00003B4C */
00003B32  202C 01BC                move.l     D0, [A4 + 0x1BC]
00003B36  90AC 01B8                sub.l      D0, [A4 + 0x1B8]
00003B3A  7278                     moveq.l    D1, 0x78
00003B3C  B280                     cmp.l      D1, D0
00003B3E  630C                     bls        +0xE /* 00003B4C */
00003B40  204D                     movea.l    A0, A5
00003B42  D1FC FFFF 881A           add.l      A0, 0xFFFF881A
00003B48  5250                     addq.w     [A0], 1
00003B4A  6014                     bra        +0x16 /* 00003B60 */
label00003B4C:
00003B4C  204D                     movea.l    A0, A5
00003B4E  D1FC FFFF 881A           add.l      A0, 0xFFFF881A
00003B54  4250                     clr.w      [A0]
00003B56  204D                     movea.l    A0, A5
00003B58  D1FC FFFF 8814           add.l      A0, 0xFFFF8814
00003B5E  4210                     clr.b      [A0]
label00003B60:
00003B60  204D                     movea.l    A0, A5
00003B62  D1FC FFFF 8812           add.l      A0, 0xFFFF8812
00003B68  4A10                     tst.b      [A0]
00003B6A  6700 0158                beq        +0x15A /* 00003CC4 */
00003B6E  526C 01C0                addq.w     [A4 + 0x1C0], 1
00003B72  026C 0003 01C0           andi.w     [A4 + 0x1C0], 0x3
00003B78  7000                     moveq.l    D0, 0x00
00003B7A  302C 01C0                move.w     D0, [A4 + 0x1C0]
00003B7E  4A80                     tst.l      D0
00003B80  6600 0142                bne        +0x144 /* 00003CC4 */
00003B84  204D                     movea.l    A0, A5
00003B86  D1FC FFFF 881E           add.l      A0, 0xFFFF881E
00003B8C  3010                     move.w     D0, [A0]
00003B8E  48C0                     ext.l      D0
00003B90  2F00                     move.l     -[A7], D0
00003B92  204D                     movea.l    A0, A5
00003B94  D1FC FFFF 8820           add.l      A0, 0xFFFF8820
00003B9A  3010                     move.w     D0, [A0]
00003B9C  48C0                     ext.l      D0
00003B9E  2F00                     move.l     -[A7], D0
00003BA0  4EAD 03F2                jsr        [A5 + 0x3F2 /* export_122, CODE:6 @ 000039FA */]
00003BA4  4880                     ext.w      D0
00003BA6  3C00                     move.w     D6, D0
00003BA8  504F                     addq.w     A7, 8
00003BAA  6700 0118                beq        +0x11A /* 00003CC4 */
00003BAE  2005                     move.l     D0, D5
00003BB0  C1FC 003A                muls.w     D0, 0x3A /* ':' */
00003BB4  204D                     movea.l    A0, A5
00003BB6  D1FC FFFE 9F9C           add.l      A0, 0xFFFE9F9C
00003BBC  3030 0024                move.w     D0, [A0 + D0.w + 0x24]
00003BC0  0440 00DD                subi.w     D0, 0xDD
00003BC4  670E                     beq        +0x10 /* 00003BD4 */
00003BC6  5340                     subq.w     D0, 1
00003BC8  6700 00AC                beq        +0xAE /* 00003C76 */
00003BCC  5340                     subq.w     D0, 1
00003BCE  6756                     beq        +0x58 /* 00003C26 */
00003BD0  6000 00F2                bra        +0xF4 /* 00003CC4 */
label00003BD4:
00003BD4  7002                     moveq.l    D0, 0x02
00003BD6  2F00                     move.l     -[A7], D0
00003BD8  48C6                     ext.l      D6
00003BDA  2F06                     move.l     -[A7], D6
00003BDC  7203                     moveq.l    D1, 0x03
00003BDE  2F01                     move.l     -[A7], D1
00003BE0  4EAD 0532                jsr        [A5 + 0x532 /* export_162, CODE:9 @ 0000465E */]
00003BE4  2006                     move.l     D0, D6
00003BE6  C1FC 0044                muls.w     D0, 0x44 /* 'D' */
00003BEA  204D                     movea.l    A0, A5
00003BEC  D1FC FFFD AFAE           add.l      A0, 0xFFFDAFAE
00003BF2  7200                     moveq.l    D1, 0x00
00003BF4  1230 0014                move.b     D1, [A0 + D0.w + 0x14]
00003BF8  2F01                     move.l     -[A7], D1
00003BFA  48C6                     ext.l      D6
00003BFC  2F06                     move.l     -[A7], D6
00003BFE  7008                     moveq.l    D0, 0x08
00003C00  2F00                     move.l     -[A7], D0
00003C02  4EAD 0532                jsr        [A5 + 0x532 /* export_162, CODE:9 @ 0000465E */]
00003C06  2006                     move.l     D0, D6
00003C08  C1FC 0044                muls.w     D0, 0x44 /* 'D' */
00003C0C  204D                     movea.l    A0, A5
00003C0E  D1FC FFFD AFAE           add.l      A0, 0xFFFDAFAE
00003C14  1230 003C                move.b     D1, [A0 + D0.w + 0x3C]
00003C18  E209                     lsr        D1.b, 1
00003C1A  1181 003C                move.b     [A0 + D0.w + 0x3C], D1
00003C1E  4FEF 0018                lea.l      A7, [A7 + 0x18]
00003C22  6000 00A0                bra        +0xA2 /* 00003CC4 */
label00003C26:
00003C26  7002                     moveq.l    D0, 0x02
00003C28  2F00                     move.l     -[A7], D0
00003C2A  48C6                     ext.l      D6
00003C2C  2F06                     move.l     -[A7], D6
00003C2E  7203                     moveq.l    D1, 0x03
00003C30  2F01                     move.l     -[A7], D1
00003C32  4EAD 0532                jsr        [A5 + 0x532 /* export_162, CODE:9 @ 0000465E */]
00003C36  2006                     move.l     D0, D6
00003C38  C1FC 0044                muls.w     D0, 0x44 /* 'D' */
00003C3C  204D                     movea.l    A0, A5
00003C3E  D1FC FFFD AFAE           add.l      A0, 0xFFFDAFAE
00003C44  7200                     moveq.l    D1, 0x00
00003C46  1230 0016                move.b     D1, [A0 + D0.w + 0x16]
00003C4A  2F01                     move.l     -[A7], D1
00003C4C  48C6                     ext.l      D6
00003C4E  2F06                     move.l     -[A7], D6
00003C50  7006                     moveq.l    D0, 0x06
00003C52  2F00                     move.l     -[A7], D0
00003C54  4EAD 0532                jsr        [A5 + 0x532 /* export_162, CODE:9 @ 0000465E */]
00003C58  2006                     move.l     D0, D6
00003C5A  C1FC 0044                muls.w     D0, 0x44 /* 'D' */
00003C5E  204D                     movea.l    A0, A5
00003C60  D1FC FFFD AFAE           add.l      A0, 0xFFFDAFAE
00003C66  1230 003E                move.b     D1, [A0 + D0.w + 0x3E]
00003C6A  E209                     lsr        D1.b, 1
00003C6C  1181 003E                move.b     [A0 + D0.w + 0x3E], D1
00003C70  4FEF 0018                lea.l      A7, [A7 + 0x18]
00003C74  604E                     bra        +0x50 /* 00003CC4 */
label00003C76:
00003C76  7002                     moveq.l    D0, 0x02
00003C78  2F00                     move.l     -[A7], D0
00003C7A  48C6                     ext.l      D6
00003C7C  2F06                     move.l     -[A7], D6
00003C7E  7203                     moveq.l    D1, 0x03
00003C80  2F01                     move.l     -[A7], D1
00003C82  4EAD 0532                jsr        [A5 + 0x532 /* export_162, CODE:9 @ 0000465E */]
00003C86  2006                     move.l     D0, D6
00003C88  C1FC 0044                muls.w     D0, 0x44 /* 'D' */
00003C8C  204D                     movea.l    A0, A5
00003C8E  D1FC FFFD AFAE           add.l      A0, 0xFFFDAFAE
00003C94  7200                     moveq.l    D1, 0x00
00003C96  1230 0015                move.b     D1, [A0 + D0.w + 0x15]
00003C9A  2F01                     move.l     -[A7], D1
00003C9C  48C6                     ext.l      D6
00003C9E  2F06                     move.l     -[A7], D6
00003CA0  700A                     moveq.l    D0, 0x0A
00003CA2  2F00                     move.l     -[A7], D0
00003CA4  4EAD 0532                jsr        [A5 + 0x532 /* export_162, CODE:9 @ 0000465E */]
00003CA8  2006                     move.l     D0, D6
00003CAA  C1FC 0044                muls.w     D0, 0x44 /* 'D' */
00003CAE  204D                     movea.l    A0, A5
00003CB0  D1FC FFFD AFAE           add.l      A0, 0xFFFDAFAE
00003CB6  1230 003D                move.b     D1, [A0 + D0.w + 0x3D]
00003CBA  E209                     lsr        D1.b, 1
00003CBC  1181 003D                move.b     [A0 + D0.w + 0x3D], D1
00003CC0  4FEF 0018                lea.l      A7, [A7 + 0x18]
label00003CC4:
00003CC4  7000                     moveq.l    D0, 0x00
00003CC6  204D                     movea.l    A0, A5
00003CC8  D1FC FFFD AD20           add.l      A0, 0xFFFDAD20
00003CCE  1010                     move.b     D0, [A0]
00003CD0  4A80                     tst.l      D0
00003CD2  0800 0000                btst.b     D0, 0x0
00003CD6  6754                     beq        +0x56 /* 00003D2C */
00003CD8  204D                     movea.l    A0, A5
00003CDA  D1FC FFFF 881E           add.l      A0, 0xFFFF881E
00003CE0  3010                     move.w     D0, [A0]
00003CE2  48C0                     ext.l      D0
00003CE4  2F00                     move.l     -[A7], D0
00003CE6  204D                     movea.l    A0, A5
00003CE8  D1FC FFFF 8820           add.l      A0, 0xFFFF8820
00003CEE  3010                     move.w     D0, [A0]
00003CF0  48C0                     ext.l      D0
00003CF2  2F00                     move.l     -[A7], D0
00003CF4  4EAD 035A                jsr        [A5 + 0x35A /* export_103, CODE:6 @ 000021E2 */]
00003CF8  3C00                     move.w     D6, D0
00003CFA  0C46 0032                cmpi.w     D6, 0x32 /* '2' */
00003CFE  504F                     addq.w     A7, 8
00003D00  6C20                     bge        +0x22 /* 00003D22 */
00003D02  0C46 0005                cmpi.w     D6, 0x5
00003D06  6C08                     bge        +0xA /* 00003D10 */
00003D08  426C 01AA                clr.w      [A4 + 0x1AA]
00003D0C  422C 01A6                clr.b      [A4 + 0x1A6]
label00003D10:
00003D10  204D                     movea.l    A0, A5
00003D12  D1FC FFFF 8814           add.l      A0, 0xFFFF8814
00003D18  10BC 0001                move.b     [A0], 0x1
00003D1C  296C 01BC 01B8           move.l     [A4 + 0x1B8], [A4 + 0x1BC]
label00003D22:
00003D22  7000                     moveq.l    D0, 0x00
00003D24  2F00                     move.l     -[A7], D0
00003D26  4EAD 0352                jsr        [A5 + 0x352 /* export_102, CODE:6 @ 0000162C */]
00003D2A  584F                     addq.w     A7, 4
label00003D2C:
00003D2C  4A2C 01A6                tst.b      [A4 + 0x1A6]
00003D30  6600 052E                bne        +0x530 /* 00004260 */
00003D34  204D                     movea.l    A0, A5
00003D36  D1FC FFFF 8820           add.l      A0, 0xFFFF8820
00003D3C  3C10                     move.w     D6, [A0]
00003D3E  204D                     movea.l    A0, A5
00003D40  D1FC FFFF 881E           add.l      A0, 0xFFFF881E
00003D46  3E10                     move.w     D7, [A0]
00003D48  224D                     movea.l    A1, A5
00003D4A  D3FC FFFF 7868           add.l      A1, 0xFFFF7868
00003D50  2051                     movea.l    A0, [A1]
00003D52  2868 0128                movea.l    A4, [A0 + 0x128]
00003D56  266C 00F4                movea.l    A3, [A4 + 0xF4]
00003D5A  206B 0174                movea.l    A0, [A3 + 0x174]
00003D5E  117C 0001 015E           move.b     [A0 + 0x15E], 0x1
00003D64  204D                     movea.l    A0, A5
00003D66  D1FC FFFF 8826           add.l      A0, 0xFFFF8826
00003D6C  4A10                     tst.b      [A0]
00003D6E  6714                     beq        +0x16 /* 00003D84 */
00003D70  4878 2337                push.l     0x2337 /* '#7' */
00003D74  4EAD 0202                jsr        [A5 + 0x202 /* export_60, CODE:1 @ 000045A2 */]
00003D78  204D                     movea.l    A0, A5
00003D7A  D1FC FFFF 8826           add.l      A0, 0xFFFF8826
00003D80  4210                     clr.b      [A0]
00003D82  584F                     addq.w     A7, 4
label00003D84:
00003D84  3007                     move.w     D0, D7
00003D86  E640                     asr        D0.w, 3
00003D88  3206                     move.w     D1, D6
00003D8A  E641                     asr        D1.w, 3
00003D8C  C3FC 000C                muls.w     D1, 0xC
00003D90  204D                     movea.l    A0, A5
00003D92  D1FC FFFF 0394           add.l      A0, 0xFFFF0394
00003D98  D041                     add.w      D0, D1
00003D9A  7200                     moveq.l    D1, 0x00
00003D9C  1230 0000                move.b     D1, [A0 + D0.w]
00003DA0  700F                     moveq.l    D0, 0x0F
00003DA2  C001                     and.b      D0, D1
00003DA4  7200                     moveq.l    D1, 0x00
00003DA6  1200                     move.b     D1, D0
00003DA8  0C41 0005                cmpi.w     D1, 0x5
00003DAC  6600 016E                bne        +0x170 /* 00003F1C */
00003DB0  2005                     move.l     D0, D5
00003DB2  C1FC 003A                muls.w     D0, 0x3A /* ':' */
00003DB6  204D                     movea.l    A0, A5
00003DB8  D1FC FFFE 9F9C           add.l      A0, 0xFFFE9F9C
00003DBE  1030 0034                move.b     D0, [A0 + D0.w + 0x34]
00003DC2  4880                     ext.w      D0
00003DC4  3C00                     move.w     D6, D0
00003DC6  3806                     move.w     D4, D6
00003DC8  2005                     move.l     D0, D5
00003DCA  C1FC 003A                muls.w     D0, 0x3A /* ':' */
00003DCE  204D                     movea.l    A0, A5
00003DD0  D1FC FFFE 9F9C           add.l      A0, 0xFFFE9F9C
00003DD6  1030 0035                move.b     D0, [A0 + D0.w + 0x35]
00003DDA  4880                     ext.w      D0
00003DDC  3E00                     move.w     D7, D0
00003DDE  2006                     move.l     D0, D6
00003DE0  C1FC 00C0                muls.w     D0, 0xC0
00003DE4  204D                     movea.l    A0, A5
00003DE6  D1FC FFFE 42D4           add.l      A0, 0xFFFE42D4
00003DEC  2207                     move.l     D1, D7
00003DEE  D241                     add.w      D1, D1
00003DF0  D240                     add.w      D1, D0
00003DF2  31BC 0047 1000           move.w     [A0 + D1.w], 0x47 /* 'G' */
00003DF8  48C6                     ext.l      D6
00003DFA  2006                     move.l     D0, D6
00003DFC  C1FC 00C0                muls.w     D0, 0xC0
00003E00  204D                     movea.l    A0, A5
00003E02  D1FC FFFE 4394           add.l      A0, 0xFFFE4394
00003E08  2207                     move.l     D1, D7
00003E0A  D241                     add.w      D1, D1
00003E0C  D240                     add.w      D1, D0
00003E0E  31BC 0048 1000           move.w     [A0 + D1.w], 0x48 /* 'H' */
00003E14  48C7                     ext.l      D7
00003E16  2006                     move.l     D0, D6
00003E18  C1FC 00C0                muls.w     D0, 0xC0
00003E1C  204D                     movea.l    A0, A5
00003E1E  D1FC FFFE 42D4           add.l      A0, 0xFFFE42D4
00003E24  2207                     move.l     D1, D7
00003E26  D241                     add.w      D1, D1
00003E28  D240                     add.w      D1, D0
00003E2A  31BC 006F 1002           move.w     [A0 + D1.w + 0x2], 0x6F /* 'o' */
00003E30  48C7                     ext.l      D7
00003E32  48C6                     ext.l      D6
00003E34  2006                     move.l     D0, D6
00003E36  C1FC 00C0                muls.w     D0, 0xC0
00003E3A  204D                     movea.l    A0, A5
00003E3C  D1FC FFFE 4394           add.l      A0, 0xFFFE4394
00003E42  2207                     move.l     D1, D7
00003E44  D241                     add.w      D1, D1
00003E46  D240                     add.w      D1, D0
00003E48  31BC 0070 1002           move.w     [A0 + D1.w + 0x2], 0x70 /* 'p' */
00003E4E  2006                     move.l     D0, D6
00003E50  C1FC 00C0                muls.w     D0, 0xC0
00003E54  204D                     movea.l    A0, A5
00003E56  D1FC FFFE 42D4           add.l      A0, 0xFFFE42D4
00003E5C  2207                     move.l     D1, D7
00003E5E  D241                     add.w      D1, D1
00003E60  D240                     add.w      D1, D0
00003E62  0270 BFFF 1000           andi.w     [A0 + D1.w], 0xBFFF
00003E68  48C6                     ext.l      D6
00003E6A  2006                     move.l     D0, D6
00003E6C  C1FC 00C0                muls.w     D0, 0xC0
00003E70  204D                     movea.l    A0, A5
00003E72  D1FC FFFE 4394           add.l      A0, 0xFFFE4394
00003E78  2207                     move.l     D1, D7
00003E7A  D241                     add.w      D1, D1
00003E7C  D240                     add.w      D1, D0
00003E7E  0270 BFFF 1000           andi.w     [A0 + D1.w], 0xBFFF
00003E84  48C7                     ext.l      D7
00003E86  2006                     move.l     D0, D6
00003E88  C1FC 00C0                muls.w     D0, 0xC0
00003E8C  204D                     movea.l    A0, A5
00003E8E  D1FC FFFE 42D4           add.l      A0, 0xFFFE42D4
00003E94  2207                     move.l     D1, D7
00003E96  D241                     add.w      D1, D1
00003E98  D240                     add.w      D1, D0
00003E9A  0270 BFFF 1002           andi.w     [A0 + D1.w + 0x2], 0xBFFF
00003EA0  48C7                     ext.l      D7
00003EA2  48C6                     ext.l      D6
00003EA4  2006                     move.l     D0, D6
00003EA6  C1FC 00C0                muls.w     D0, 0xC0
00003EAA  204D                     movea.l    A0, A5
00003EAC  D1FC FFFE 4394           add.l      A0, 0xFFFE4394
00003EB2  2207                     move.l     D1, D7
00003EB4  D241                     add.w      D1, D1
00003EB6  D240                     add.w      D1, D0
00003EB8  0270 BFFF 1002           andi.w     [A0 + D1.w + 0x2], 0xBFFF
00003EBE  204D                     movea.l    A0, A5
00003EC0  D1FC FFFF 82FA           add.l      A0, 0xFFFF82FA
00003EC6  1010                     move.b     D0, [A0]
00003EC8  49C0                     lea.l      A4, D0
00003ECA  E788                     lsl        D0, 3
00003ECC  9840                     sub.w      D4, D0
00003ECE  0C44 0003                cmpi.w     D4, 0x3
00003ED2  6620                     bne        +0x22 /* 00003EF4 */
00003ED4  3007                     move.w     D0, D7
00003ED6  E640                     asr        D0.w, 3
00003ED8  3206                     move.w     D1, D6
00003EDA  E641                     asr        D1.w, 3
00003EDC  C3FC 000C                muls.w     D1, 0xC
00003EE0  204D                     movea.l    A0, A5
00003EE2  D1FC FFFF 0394           add.l      A0, 0xFFFF0394
00003EE8  D041                     add.w      D0, D1
00003EEA  0030 0020 0000           ori.b      [A0 + D0.w], 0x20 /* ' ' */
00003EF0  6000 036E                bra        +0x370 /* 00004260 */
label00003EF4:
00003EF4  0C44 0005                cmpi.w     D4, 0x5
00003EF8  6600 0366                bne        +0x368 /* 00004260 */
00003EFC  3007                     move.w     D0, D7
00003EFE  E640                     asr        D0.w, 3
00003F00  3206                     move.w     D1, D6
00003F02  E641                     asr        D1.w, 3
00003F04  C3FC 000C                muls.w     D1, 0xC
00003F08  204D                     movea.l    A0, A5
00003F0A  D1FC FFFF 0394           add.l      A0, 0xFFFF0394
00003F10  D041                     add.w      D0, D1
00003F12  0030 0040 0000           ori.b      [A0 + D0.w], 0x40 /* '@' */
00003F18  6000 0346                bra        +0x348 /* 00004260 */
label00003F1C:
00003F1C  204D                     movea.l    A0, A5
00003F1E  D1FC FFFF 82FC           add.l      A0, 0xFFFF82FC
00003F24  4850                     pea.l      [A0]
00003F26  4EAD 0742                jsr        [A5 + 0x742 /* export_228, CODE:12 @ 000045BA */]
00003F2A  2006                     move.l     D0, D6
00003F2C  C1FC 00C0                muls.w     D0, 0xC0
00003F30  204D                     movea.l    A0, A5
00003F32  D1FC FFFE 42D4           add.l      A0, 0xFFFE42D4
00003F38  2207                     move.l     D1, D7
00003F3A  D241                     add.w      D1, D1
00003F3C  D240                     add.w      D1, D0
00003F3E  31BC 0049 1000           move.w     [A0 + D1.w], 0x49 /* 'I' */
00003F44  48C6                     ext.l      D6
00003F46  2006                     move.l     D0, D6
00003F48  C1FC 00C0                muls.w     D0, 0xC0
00003F4C  204D                     movea.l    A0, A5
00003F4E  D1FC FFFE 4394           add.l      A0, 0xFFFE4394
00003F54  2207                     move.l     D1, D7
00003F56  D241                     add.w      D1, D1
00003F58  D240                     add.w      D1, D0
00003F5A  31BC 004A 1000           move.w     [A0 + D1.w], 0x4A /* 'J' */
00003F60  48C7                     ext.l      D7
00003F62  2006                     move.l     D0, D6
00003F64  C1FC 00C0                muls.w     D0, 0xC0
00003F68  204D                     movea.l    A0, A5
00003F6A  D1FC FFFE 42D4           add.l      A0, 0xFFFE42D4
00003F70  2207                     move.l     D1, D7
00003F72  D241                     add.w      D1, D1
00003F74  D240                     add.w      D1, D0
00003F76  31BC 0071 1002           move.w     [A0 + D1.w + 0x2], 0x71 /* 'q' */
00003F7C  48C7                     ext.l      D7
00003F7E  48C6                     ext.l      D6
00003F80  2006                     move.l     D0, D6
00003F82  C1FC 00C0                muls.w     D0, 0xC0
00003F86  204D                     movea.l    A0, A5
00003F88  D1FC FFFE 4394           add.l      A0, 0xFFFE4394
00003F8E  2207                     move.l     D1, D7
00003F90  D241                     add.w      D1, D1
00003F92  D240                     add.w      D1, D0
00003F94  31BC 0072 1002           move.w     [A0 + D1.w + 0x2], 0x72 /* 'r' */
00003F9A  2006                     move.l     D0, D6
00003F9C  C1FC 00C0                muls.w     D0, 0xC0
00003FA0  204D                     movea.l    A0, A5
00003FA2  D1FC FFFE 42D4           add.l      A0, 0xFFFE42D4
00003FA8  2207                     move.l     D1, D7
00003FAA  D241                     add.w      D1, D1
00003FAC  D240                     add.w      D1, D0
00003FAE  0270 BFFF 1000           andi.w     [A0 + D1.w], 0xBFFF
00003FB4  48C6                     ext.l      D6
00003FB6  2006                     move.l     D0, D6
00003FB8  C1FC 00C0                muls.w     D0, 0xC0
00003FBC  204D                     movea.l    A0, A5
00003FBE  D1FC FFFE 4394           add.l      A0, 0xFFFE4394
00003FC4  2207                     move.l     D1, D7
00003FC6  D241                     add.w      D1, D1
00003FC8  D240                     add.w      D1, D0
00003FCA  0270 BFFF 1000           andi.w     [A0 + D1.w], 0xBFFF
00003FD0  48C7                     ext.l      D7
00003FD2  2006                     move.l     D0, D6
00003FD4  C1FC 00C0                muls.w     D0, 0xC0
00003FD8  204D                     movea.l    A0, A5
00003FDA  D1FC FFFE 42D4           add.l      A0, 0xFFFE42D4
00003FE0  2207                     move.l     D1, D7
00003FE2  D241                     add.w      D1, D1
00003FE4  D240                     add.w      D1, D0
00003FE6  0270 BFFF 1002           andi.w     [A0 + D1.w + 0x2], 0xBFFF
00003FEC  48C7                     ext.l      D7
00003FEE  48C6                     ext.l      D6
00003FF0  2006                     move.l     D0, D6
00003FF2  C1FC 00C0                muls.w     D0, 0xC0
00003FF6  204D                     movea.l    A0, A5
00003FF8  D1FC FFFE 4394           add.l      A0, 0xFFFE4394
00003FFE  2207                     move.l     D1, D7
00004000  D241                     add.w      D1, D1
00004002  D240                     add.w      D1, D0
00004004  0270 BFFF 1002           andi.w     [A0 + D1.w + 0x2], 0xBFFF
0000400A  2005                     move.l     D0, D5
0000400C  C1FC 003A                muls.w     D0, 0x3A /* ':' */
00004010  204D                     movea.l    A0, A5
00004012  D1FC FFFE 9F9C           add.l      A0, 0xFFFE9F9C
00004018  1030 0034                move.b     D0, [A0 + D0.w + 0x34]
0000401C  4880                     ext.w      D0
0000401E  3C00                     move.w     D6, D0
00004020  3806                     move.w     D4, D6
00004022  2005                     move.l     D0, D5
00004024  C1FC 003A                muls.w     D0, 0x3A /* ':' */
00004028  204D                     movea.l    A0, A5
0000402A  D1FC FFFE 9F9C           add.l      A0, 0xFFFE9F9C
00004030  1030 0035                move.b     D0, [A0 + D0.w + 0x35]
00004034  4880                     ext.w      D0
00004036  3E00                     move.w     D7, D0
00004038  2006                     move.l     D0, D6
0000403A  C1FC 00C0                muls.w     D0, 0xC0
0000403E  204D                     movea.l    A0, A5
00004040  D1FC FFFE 42D4           add.l      A0, 0xFFFE42D4
00004046  2207                     move.l     D1, D7
00004048  D241                     add.w      D1, D1
0000404A  D240                     add.w      D1, D0
0000404C  7000                     moveq.l    D0, 0x00
0000404E  3030 1000                move.w     D0, [A0 + D1.w]
00004052  323C F800                move.w     D1, 0xF800
00004056  C240                     and.w      D1, D0
00004058  7000                     moveq.l    D0, 0x00
0000405A  3001                     move.w     D0, D1
0000405C  4A80                     tst.l      D0
0000405E  204D                     movea.l    A0, A5
00004060  D1FC FFFF 7942           add.l      A0, 0xFFFF7942
00004066  3210                     move.w     D1, [A0]
00004068  48C1                     ext.l      D1
0000406A  5081                     addq.l     D1, 8
0000406C  8280                     or.l       D1, D0
0000406E  203C FFFF BFFF           move.l     D0, 0xFFFFBFFF
00004074  C081                     and.l      D0, D1
00004076  2206                     move.l     D1, D6
00004078  C3FC 00C0                muls.w     D1, 0xC0
0000407C  204D                     movea.l    A0, A5
0000407E  D1FC FFFE 42D4           add.l      A0, 0xFFFE42D4
00004084  2407                     move.l     D2, D7
00004086  D442                     add.w      D2, D2
00004088  D441                     add.w      D2, D1
0000408A  3180 2000                move.w     [A0 + D2.w], D0
0000408E  48C6                     ext.l      D6
00004090  2006                     move.l     D0, D6
00004092  C1FC 00C0                muls.w     D0, 0xC0
00004096  204D                     movea.l    A0, A5
00004098  D1FC FFFE 4394           add.l      A0, 0xFFFE4394
0000409E  2207                     move.l     D1, D7
000040A0  D241                     add.w      D1, D1
000040A2  D240                     add.w      D1, D0
000040A4  7000                     moveq.l    D0, 0x00
000040A6  3030 1000                move.w     D0, [A0 + D1.w]
000040AA  323C F800                move.w     D1, 0xF800
000040AE  C240                     and.w      D1, D0
000040B0  7000                     moveq.l    D0, 0x00
000040B2  3001                     move.w     D0, D1
000040B4  4A80                     tst.l      D0
000040B6  204D                     movea.l    A0, A5
000040B8  D1FC FFFF 7942           add.l      A0, 0xFFFF7942
000040BE  3210                     move.w     D1, [A0]
000040C0  48C1                     ext.l      D1
000040C2  5081                     addq.l     D1, 8
000040C4  8280                     or.l       D1, D0
000040C6  203C FFFF BFFF           move.l     D0, 0xFFFFBFFF
000040CC  C081                     and.l      D0, D1
000040CE  48C6                     ext.l      D6
000040D0  2206                     move.l     D1, D6
000040D2  C3FC 00C0                muls.w     D1, 0xC0
000040D6  204D                     movea.l    A0, A5
000040D8  D1FC FFFE 4394           add.l      A0, 0xFFFE4394
000040DE  2407                     move.l     D2, D7
000040E0  D442                     add.w      D2, D2
000040E2  D441                     add.w      D2, D1
000040E4  3180 2000                move.w     [A0 + D2.w], D0
000040E8  48C7                     ext.l      D7
000040EA  2006                     move.l     D0, D6
000040EC  C1FC 00C0                muls.w     D0, 0xC0
000040F0  204D                     movea.l    A0, A5
000040F2  D1FC FFFE 42D4           add.l      A0, 0xFFFE42D4
000040F8  2207                     move.l     D1, D7
000040FA  D241                     add.w      D1, D1
000040FC  D240                     add.w      D1, D0
000040FE  7000                     moveq.l    D0, 0x00
00004100  3030 1002                move.w     D0, [A0 + D1.w + 0x2]
00004104  323C F800                move.w     D1, 0xF800
00004108  C240                     and.w      D1, D0
0000410A  7000                     moveq.l    D0, 0x00
0000410C  3001                     move.w     D0, D1
0000410E  4A80                     tst.l      D0
00004110  204D                     movea.l    A0, A5
00004112  D1FC FFFF 7942           add.l      A0, 0xFFFF7942
00004118  3210                     move.w     D1, [A0]
0000411A  48C1                     ext.l      D1
0000411C  5081                     addq.l     D1, 8
0000411E  8280                     or.l       D1, D0
00004120  203C FFFF BFFF           move.l     D0, 0xFFFFBFFF
00004126  C081                     and.l      D0, D1
00004128  48C7                     ext.l      D7
0000412A  2206                     move.l     D1, D6
0000412C  C3FC 00C0                muls.w     D1, 0xC0
00004130  204D                     movea.l    A0, A5
00004132  D1FC FFFE 42D4           add.l      A0, 0xFFFE42D4
00004138  2407                     move.l     D2, D7
0000413A  D442                     add.w      D2, D2
0000413C  D441                     add.w      D2, D1
0000413E  3180 2002                move.w     [A0 + D2.w + 0x2], D0
00004142  48C7                     ext.l      D7
00004144  48C6                     ext.l      D6
00004146  2006                     move.l     D0, D6
00004148  C1FC 00C0                muls.w     D0, 0xC0
0000414C  204D                     movea.l    A0, A5
0000414E  D1FC FFFE 4394           add.l      A0, 0xFFFE4394
00004154  2207                     move.l     D1, D7
00004156  D241                     add.w      D1, D1
00004158  D240                     add.w      D1, D0
0000415A  7000                     moveq.l    D0, 0x00
0000415C  3030 1002                move.w     D0, [A0 + D1.w + 0x2]
00004160  323C F800                move.w     D1, 0xF800
00004164  C240                     and.w      D1, D0
00004166  7000                     moveq.l    D0, 0x00
00004168  3001                     move.w     D0, D1
0000416A  4A80                     tst.l      D0
0000416C  204D                     movea.l    A0, A5
0000416E  D1FC FFFF 7942           add.l      A0, 0xFFFF7942
00004174  3210                     move.w     D1, [A0]
00004176  48C1                     ext.l      D1
00004178  5081                     addq.l     D1, 8
0000417A  8280                     or.l       D1, D0
0000417C  203C FFFF BFFF           move.l     D0, 0xFFFFBFFF
00004182  C081                     and.l      D0, D1
00004184  48C7                     ext.l      D7
00004186  48C6                     ext.l      D6
00004188  2206                     move.l     D1, D6
0000418A  C3FC 00C0                muls.w     D1, 0xC0
0000418E  204D                     movea.l    A0, A5
00004190  D1FC FFFE 4394           add.l      A0, 0xFFFE4394
00004196  2407                     move.l     D2, D7
00004198  D442                     add.w      D2, D2
0000419A  D441                     add.w      D2, D1
0000419C  3180 2002                move.w     [A0 + D2.w + 0x2], D0
000041A0  48C5                     ext.l      D5
000041A2  2F05                     move.l     -[A7], D5
000041A4  2005                     move.l     D0, D5
000041A6  C1FC 003A                muls.w     D0, 0x3A /* ':' */
000041AA  204D                     movea.l    A0, A5
000041AC  D1FC FFFE 9F9C           add.l      A0, 0xFFFE9F9C
000041B2  3030 0000                move.w     D0, [A0 + D0.w]
000041B6  48C0                     ext.l      D0
000041B8  2F00                     move.l     -[A7], D0
000041BA  2005                     move.l     D0, D5
000041BC  C1FC 003A                muls.w     D0, 0x3A /* ':' */
000041C0  204D                     movea.l    A0, A5
000041C2  D1FC FFFE 9F9C           add.l      A0, 0xFFFE9F9C
000041C8  7200                     moveq.l    D1, 0x00
000041CA  1230 0006                move.b     D1, [A0 + D0.w + 0x6]
000041CE  2F01                     move.l     -[A7], D1
000041D0  2005                     move.l     D0, D5
000041D2  C1FC 003A                muls.w     D0, 0x3A /* ':' */
000041D6  204D                     movea.l    A0, A5
000041D8  D1FC FFFE 9F9C           add.l      A0, 0xFFFE9F9C
000041DE  7200                     moveq.l    D1, 0x00
000041E0  1230 0005                move.b     D1, [A0 + D0.w + 0x5]
000041E4  2F01                     move.l     -[A7], D1
000041E6  4EAD 0612                jsr        [A5 + 0x612 /* export_190, CODE:10 @ 0000378A */]
000041EA  2005                     move.l     D0, D5
000041EC  C1FC 003A                muls.w     D0, 0x3A /* ':' */
000041F0  204D                     movea.l    A0, A5
000041F2  D1FC FFFE 9F9C           add.l      A0, 0xFFFE9F9C
000041F8  3030 0000                move.w     D0, [A0 + D0.w]
000041FC  48C0                     ext.l      D0
000041FE  2F00                     move.l     -[A7], D0
00004200  48C5                     ext.l      D5
00004202  2F05                     move.l     -[A7], D5
00004204  4EAD 04EA                jsr        [A5 + 0x4EA /* export_153, CODE:9 @ 00000000 */]
00004208  3004                     move.w     D0, D4
0000420A  E640                     asr        D0.w, 3
0000420C  48C0                     ext.l      D0
0000420E  E788                     lsl        D0, 3
00004210  3204                     move.w     D1, D4
00004212  9240                     sub.w      D1, D0
00004214  3801                     move.w     D4, D1
00004216  0C44 0003                cmpi.w     D4, 0x3
0000421A  4FEF 001C                lea.l      A7, [A7 + 0x1C]
0000421E  661E                     bne        +0x20 /* 0000423E */
00004220  3007                     move.w     D0, D7
00004222  E640                     asr        D0.w, 3
00004224  3206                     move.w     D1, D6
00004226  E641                     asr        D1.w, 3
00004228  C3FC 000C                muls.w     D1, 0xC
0000422C  204D                     movea.l    A0, A5
0000422E  D1FC FFFF 0394           add.l      A0, 0xFFFF0394
00004234  D041                     add.w      D0, D1
00004236  0230 00DF 0000           andi.b     [A0 + D0.w], 0xDF
0000423C  6022                     bra        +0x24 /* 00004260 */
label0000423E:
0000423E  0C44 0005                cmpi.w     D4, 0x5
00004242  661C                     bne        +0x1E /* 00004260 */
00004244  3007                     move.w     D0, D7
00004246  E640                     asr        D0.w, 3
00004248  3206                     move.w     D1, D6
0000424A  E641                     asr        D1.w, 3
0000424C  C3FC 000C                muls.w     D1, 0xC
00004250  204D                     movea.l    A0, A5
00004252  D1FC FFFF 0394           add.l      A0, 0xFFFF0394
00004258  D041                     add.w      D0, D1
0000425A  0230 00BF 0000           andi.b     [A0 + D0.w], 0xBF
label00004260:
00004260  4CEE 18F0 FFE8           movem.l    D4,D5,D6,D7,A3,A4, [A6 - 0x18]
00004266  4E5E                     unlink     A6
00004268  4E75                     rts
0000426A  8021 5570 6461 7465 4... dc.b       "UpdateFlying__15cAirplaneWindowFv"
fn00004290:
00004290  4E56 0000                link       A6, 0
00004294  2F0C                     move.l     -[A7], A4
00004296  286E 0008                movea.l    A4, [A6 + 0x8]
0000429A  224D                     movea.l    A1, A5
0000429C  D3FC FFFF 82EC           add.l      A1, 0xFFFF82EC
000042A2  2051                     movea.l    A0, [A1]
000042A4  7000                     moveq.l    D0, 0x00
000042A6  3028 0006                move.w     D0, [A0 + 0x6]
000042AA  4A80                     tst.l      D0
000042AC  4C7C 0800 0000 000A      divu.l     D2:D0, 0x8000000
000042B4  204D                     movea.l    A0, A5
000042B6  D1FC FFFF 82EA           add.l      A0, 0xFFFF82EA
000042BC  3080                     move.w     [A0], D0
000042BE  204D                     movea.l    A0, A5
000042C0  D1FC FFFF 82F6           add.l      A0, 0xFFFF82F6
000042C6  3010                     move.w     D0, [A0]
000042C8  C1FC 003A                muls.w     D0, 0x3A /* ':' */
000042CC  204D                     movea.l    A0, A5
000042CE  D1FC FFFE 9F9C           add.l      A0, 0xFFFE9F9C
000042D4  7200                     moveq.l    D1, 0x00
000042D6  1230 0011                move.b     D1, [A0 + D0.w + 0x11]
000042DA  4A81                     tst.l      D1
000042DC  204D                     movea.l    A0, A5
000042DE  D1FC FFFF 82E8           add.l      A0, 0xFFFF82E8
000042E4  3081                     move.w     [A0], D1
000042E6  204D                     movea.l    A0, A5
000042E8  D1FC FFFF 82F6           add.l      A0, 0xFFFF82F6
000042EE  3010                     move.w     D0, [A0]
000042F0  C1FC 003A                muls.w     D0, 0x3A /* ':' */
000042F4  204D                     movea.l    A0, A5
000042F6  D1FC FFFE 9F9C           add.l      A0, 0xFFFE9F9C
000042FC  224D                     movea.l    A1, A5
000042FE  D3FC FFFF 82E6           add.l      A1, 0xFFFF82E6
00004304  32B0 0014                move.w     [A1], [A0 + D0.w + 0x14]
00004308  204D                     movea.l    A0, A5
0000430A  D1FC FFFF 82F6           add.l      A0, 0xFFFF82F6
00004310  3010                     move.w     D0, [A0]
00004312  C1FC 003A                muls.w     D0, 0x3A /* ':' */
00004316  204D                     movea.l    A0, A5
00004318  D1FC FFFE 9F9C           add.l      A0, 0xFFFE9F9C
0000431E  224D                     movea.l    A1, A5
00004320  D3FC FFFF 82E4           add.l      A1, 0xFFFF82E4
00004326  32B0 0022                move.w     [A1], [A0 + D0.w + 0x22]
0000432A  204D                     movea.l    A0, A5
0000432C  D1FC FFFF 82F4           add.l      A0, 0xFFFF82F4
00004332  3010                     move.w     D0, [A0]
00004334  48C0                     ext.l      D0
00004336  7200                     moveq.l    D1, 0x00
00004338  204D                     movea.l    A0, A5
0000433A  D1FC FFFF 82E6           add.l      A0, 0xFFFF82E6
00004340  3210                     move.w     D1, [A0]
00004342  243C 0000 00FF           move.l     D2, 0xFF
00004348  9481                     sub.l      D2, D1
0000434A  4C00 2800                muls.l     D2, D0
0000434E  2F02                     move.l     -[A7], D2
00004350  206C 0170                movea.l    A0, [A4 + 0x170]
00004354  4868 012A                pea.l      [A0 + 0x12A]
00004358  4EAD 17CA                jsr        [A5 + 0x17CA /* export_757, CODE:32 @ 00005476 */]
0000435C  2F2C 0170                move.l     -[A7], [A4 + 0x170]
00004360  4EAD 1F52                jsr        [A5 + 0x1F52 /* export_998, CODE:37 @ 000014C8 */]
00004364  7000                     moveq.l    D0, 0x00
00004366  204D                     movea.l    A0, A5
00004368  D1FC FFFF 82EA           add.l      A0, 0xFFFF82EA
0000436E  3010                     move.w     D0, [A0]
00004370  4A80                     tst.l      D0
00004372  204D                     movea.l    A0, A5
00004374  D1FC FFFF 82F6           add.l      A0, 0xFFFF82F6
0000437A  3210                     move.w     D1, [A0]
0000437C  C3FC 003A                muls.w     D1, 0x3A /* ':' */
00004380  204D                     movea.l    A0, A5
00004382  D1FC FFFE 9F9C           add.l      A0, 0xFFFE9F9C
00004388  7400                     moveq.l    D2, 0x00
0000438A  3430 1022                move.w     D2, [A0 + D1.w + 0x22]
0000438E  223C 0000 00FF           move.l     D1, 0xFF
00004394  9282                     sub.l      D1, D2
00004396  4C00 1800                muls.l     D1, D0
0000439A  2F01                     move.l     -[A7], D1
0000439C  206C 0174                movea.l    A0, [A4 + 0x174]
000043A0  4868 012A                pea.l      [A0 + 0x12A]
000043A4  4EAD 17CA                jsr        [A5 + 0x17CA /* export_757, CODE:32 @ 00005476 */]
000043A8  2F2C 0174                move.l     -[A7], [A4 + 0x174]
000043AC  4EAD 1F52                jsr        [A5 + 0x1F52 /* export_998, CODE:37 @ 000014C8 */]
000043B0  7000                     moveq.l    D0, 0x00
000043B2  204D                     movea.l    A0, A5
000043B4  D1FC FFFF 82E8           add.l      A0, 0xFFFF82E8
000043BA  3010                     move.w     D0, [A0]
000043BC  4A80                     tst.l      D0
000043BE  204D                     movea.l    A0, A5
000043C0  D1FC FFFF 82F2           add.l      A0, 0xFFFF82F2
000043C6  1210                     move.b     D1, [A0]
000043C8  49C1                     lea.l      A4, D1
000043CA  4C00 1800                muls.l     D1, D0
000043CE  2F01                     move.l     -[A7], D1
000043D0  206C 0178                movea.l    A0, [A4 + 0x178]
000043D4  4868 012A                pea.l      [A0 + 0x12A]
000043D8  4EAD 17CA                jsr        [A5 + 0x17CA /* export_757, CODE:32 @ 00005476 */]
000043DC  2F2C 0178                move.l     -[A7], [A4 + 0x178]
000043E0  4EAD 1F52                jsr        [A5 + 0x1F52 /* export_998, CODE:37 @ 000014C8 */]
000043E4  286E FFFC                movea.l    A4, [A6 - 0x4]
000043E8  4E5E                     unlink     A6
000043EA  4E75                     rts
000043EC  8021 5570 6461 7465 5... dc.b       "UpdatePrices__15cAirplaneWindowFv"
fn00004412:
00004412  4E56 0000                link       A6, 0
00004416  48E7 1018                movem.l    -[A7], D3,A3,A4
0000441A  266E 000C                movea.l    A3, [A6 + 0xC]
0000441E  286E 0008                movea.l    A4, [A6 + 0x8]
00004422  200C                     move.l     D0, A4
00004424  6612                     bne        +0x14 /* 00004438 */
00004426  4878 0142                push.l     0x142
0000442A  4EAD 010A                jsr        [A5 + 0x10A /* export_29, CODE:1 @ 00001C0A */]
0000442E  2840                     movea.l    A4, D0
00004430  200C                     move.l     D0, A4
00004432  584F                     addq.w     A7, 4
00004434  6700 00AE                beq        +0xB0 /* 000044E4 */
label00004438:
00004438  200B                     move.l     D0, A3
0000443A  57C3                     seq        D3
0000443C  4403                     neg.b      D3
0000443E  674E                     beq        +0x50 /* 0000448E */
00004440  264C                     movea.l    A3, A4
00004442  47EB 0136                lea.l      A3, [A3 + 0x136]
00004446  7601                     moveq.l    D3, 0x01
00004448  200C                     move.l     D0, A4
0000444A  D0BC 0000 0136           add.l      D0, 0x136
00004450  6614                     bne        +0x16 /* 00004466 */
00004452  2F03                     move.l     -[A7], D3
00004454  700C                     moveq.l    D0, 0x0C
00004456  2F00                     move.l     -[A7], D0
00004458  4EAD 010A                jsr        [A5 + 0x10A /* export_29, CODE:1 @ 00001C0A */]
0000445C  588F                     addq.l     A7, 4
0000445E  261F                     move.l     D3, [A7]+
00004460  4A80                     tst.l      D0
00004462  6602                     bne        +0x4 /* 00004466 */
00004464  7600                     moveq.l    D3, 0x00
label00004466:
00004466  4A03                     tst.b      D3
00004468  6718                     beq        +0x1A /* 00004482 */
0000446A  204D                     movea.l    A0, A5
0000446C  D1FC FFFF 831E           add.l      A0, 0xFFFF831E
00004472  2950 013E                move.l     [A4 + 0x13E], [A0]
00004476  7000                     moveq.l    D0, 0x00
00004478  2940 0136                move.l     [A4 + 0x136], D0
0000447C  2940 013A                move.l     [A4 + 0x13A], D0
00004480  6002                     bra        +0x4 /* 00004484 */
label00004482:
00004482  7000                     moveq.l    D0, 0x00
label00004484:
00004484  200C                     move.l     D0, A4
00004486  D0BC 0000 0136           add.l      D0, 0x136
0000448C  6002                     bra        +0x4 /* 00004490 */
label0000448E:
0000448E  200B                     move.l     D0, A3
label00004490:
00004490  7000                     moveq.l    D0, 0x00
00004492  2F00                     move.l     -[A7], D0
00004494  2F00                     move.l     -[A7], D0
00004496  2F00                     move.l     -[A7], D0
00004498  2F2E 0018                move.l     -[A7], [A6 + 0x18]
0000449C  2F2E 0014                move.l     -[A7], [A6 + 0x14]
000044A0  2F2E 0010                move.l     -[A7], [A6 + 0x10]
000044A4  2F0B                     move.l     -[A7], A3
000044A6  2F0C                     move.l     -[A7], A4
000044A8  4EAD 019A                jsr        [A5 + 0x19A /* export_47, CODE:1 @ 00002D3A */]
000044AC  204D                     movea.l    A0, A5
000044AE  D1FC FFFF 8332           add.l      A0, 0xFFFF8332
000044B4  2950 0060                move.l     [A4 + 0x60], [A0]
000044B8  204D                     movea.l    A0, A5
000044BA  D1FC FFFF 8336           add.l      A0, 0xFFFF8336
000044C0  2950 0088                move.l     [A4 + 0x88], [A0]
000044C4  204D                     movea.l    A0, A5
000044C6  D1FC FFFF 833A           add.l      A0, 0xFFFF833A
000044CC  2950 0070                move.l     [A4 + 0x70], [A0]
000044D0  206C 0064                movea.l    A0, [A4 + 0x64]
000044D4  224D                     movea.l    A1, A5
000044D6  D3FC FFFF 833E           add.l      A1, 0xFFFF833E
000044DC  2151 0008                move.l     [A0 + 0x8], [A1]
000044E0  4FEF 0020                lea.l      A7, [A7 + 0x20]
label000044E4:
000044E4  200C                     move.l     D0, A4
000044E6  4CEE 1808 FFF4           movem.l    D3,A3,A4, [A6 - 0xC]
000044EC  4E5E                     unlink     A6
000044EE  4E75                     rts
000044F0  8033 5F5F 6374 5F5F 3... dc.b       "__ct__19cAirplaneMetersItemFP6cAgentP7cWindowR4Rect"
export_398:
00004528  4E56 0000                link       A6, 0
0000452C  48E7 0108                movem.l    -[A7], D7,A4
00004530  2E2E 000C                move.l     D7, [A6 + 0xC]
00004534  286E 0008                movea.l    A4, [A6 + 0x8]
00004538  200C                     move.l     D0, A4
0000453A  6772                     beq        +0x74 /* 000045AE */
0000453C  206C 0064                movea.l    A0, [A4 + 0x64]
00004540  224D                     movea.l    A1, A5
00004542  D3FC FFFF 833E           add.l      A1, 0xFFFF833E
00004548  2151 0008                move.l     [A0 + 0x8], [A1]
0000454C  204D                     movea.l    A0, A5
0000454E  D1FC FFFF 833A           add.l      A0, 0xFFFF833A
00004554  2950 0070                move.l     [A4 + 0x70], [A0]
00004558  204D                     movea.l    A0, A5
0000455A  D1FC FFFF 8336           add.l      A0, 0xFFFF8336
00004560  2950 0088                move.l     [A4 + 0x88], [A0]
00004564  204D                     movea.l    A0, A5
00004566  D1FC FFFF 8332           add.l      A0, 0xFFFF8332
0000456C  2950 0060                move.l     [A4 + 0x60], [A0]
00004570  200C                     move.l     D0, A4
00004572  673A                     beq        +0x3C /* 000045AE */
00004574  7000                     moveq.l    D0, 0x00
00004576  2F00                     move.l     -[A7], D0
00004578  2F0C                     move.l     -[A7], A4
0000457A  4EAD 01A2                jsr        [A5 + 0x1A2 /* export_48, CODE:1 @ 00002EC4 */]
0000457E  7002                     moveq.l    D0, 0x02
00004580  C087                     and.l      D0, D7
00004582  6718                     beq        +0x1A /* 0000459C */
00004584  7000                     moveq.l    D0, 0x00
00004586  2F00                     move.l     -[A7], D0
00004588  220C                     move.l     D1, A4
0000458A  D2BC 0000 0136           add.l      D1, 0x136
00004590  2F01                     move.l     -[A7], D1
00004592  4EAD 1632                jsr        [A5 + 0x1632 /* export_706, CODE:32 @ 000036CC */]
00004596  7000                     moveq.l    D0, 0x00
00004598  504F                     addq.w     A7, 8
0000459A  6002                     bra        +0x4 /* 0000459E */
label0000459C:
0000459C  7000                     moveq.l    D0, 0x00
label0000459E:
0000459E  0807 0000                btst.b     D7, 0x0
000045A2  504F                     addq.w     A7, 8
000045A4  6708                     beq        +0xA /* 000045AE */
000045A6  2F0C                     move.l     -[A7], A4
000045A8  4EAD 0102                jsr        [A5 + 0x102 /* export_28, CODE:1 @ 00001BE0 */]
000045AC  584F                     addq.w     A7, 4
label000045AE:
000045AE  4CEE 1080 FFF8           movem.l    D7,A4, [A6 - 0x8]
000045B4  4E5E                     unlink     A6
000045B6  4E75                     rts
000045B8  9D5F 5F64 745F 5F31 3... dc.b       "__dt__19cAirplaneMetersItemFv"
export_399:
000045D8  4E56 FE18                link       A6, -0x01E8
000045DC  48E7 0F18                movem.l    -[A7], D4,D5,D6,D7,A3,A4
000045E0  286E 0008                movea.l    A4, [A6 + 0x8]
000045E4  7000                     moveq.l    D0, 0x00
000045E6  2F00                     move.l     -[A7], D0
000045E8  2F00                     move.l     -[A7], D0
000045EA  486E FF94                pea.l      [A6 - 0x6C]
000045EE  4EAD 15AA                jsr        [A5 + 0x15AA /* export_689, CODE:32 @ 0000234A */]
000045F2  7000                     moveq.l    D0, 0x00
000045F4  2F00                     move.l     -[A7], D0
000045F6  486E FFC6                pea.l      [A6 - 0x3A]
000045FA  4EAD 15BA                jsr        [A5 + 0x15BA /* export_691, CODE:32 @ 000025FA */]
000045FE  41EE FFF8                lea.l      A0, [A6 - 0x8]
00004602  43EC 0090                lea.l      A1, [A4 + 0x90]
00004606  20D9                     move.l     [A0]+, [A1]+
00004608  20D9                     move.l     [A0]+, [A1]+
0000460A  266C 0112                movea.l    A3, [A4 + 0x112]
0000460E  41EB 009C                lea.l      A0, [A3 + 0x9C]
00004612  43EE FFC6                lea.l      A1, [A6 - 0x3A]
00004616  22D8                     move.l     [A1]+, [A0]+
00004618  32D8                     move.w     [A1]+, [A0]+
0000461A  486E FFC6                pea.l      [A6 - 0x3A]
0000461E  AA15                     syscall    RGBBackColor
00004620  486E FFF8                pea.l      [A6 - 0x8]
00004624  302E FFFA                move.w     D0, [A6 - 0x6]
00004628  48C0                     ext.l      D0
0000462A  4480                     neg.l      D0
0000462C  3F00                     move.w     -[A7], D0
0000462E  302E FFF8                move.w     D0, [A6 - 0x8]
00004632  48C0                     ext.l      D0
00004634  4480                     neg.l      D0
00004636  3F00                     move.w     -[A7], D0
00004638  A8A8                     syscall    OffsetRect
0000463A  486E FFF8                pea.l      [A6 - 0x8]
0000463E  A8A3                     syscall    EraseRect
00004640  486E FF94                pea.l      [A6 - 0x6C]
00004644  AA14                     syscall    RGBForeColor
00004646  7002                     moveq.l    D0, 0x02
00004648  3F00                     move.w     -[A7], D0
0000464A  3F00                     move.w     -[A7], D0
0000464C  A89B                     syscall    PenSize
0000464E  486E FFF8                pea.l      [A6 - 0x8]
00004652  A8A1                     syscall    FrameRect
00004654  7001                     moveq.l    D0, 0x01
00004656  3F00                     move.w     -[A7], D0
00004658  3F00                     move.w     -[A7], D0
0000465A  A89B                     syscall    PenSize
0000465C  4878 01FE                push.l     0x1FE
00004660  2F0C                     move.l     -[A7], A4
00004662  7000                     moveq.l    D0, 0x00
00004664  2F00                     move.l     -[A7], D0
00004666  486E FE18                pea.l      [A6 - 0x1E8]
0000466A  4EAD 1982                jsr        [A5 + 0x1982 /* export_812, CODE:33 @ 0000205A */]
0000466E  3A2E FEB2                move.w     D5, [A6 - 0x14E]
00004672  9A6E FEAE                sub.w      D5, [A6 - 0x152]
00004676  302E FEB4                move.w     D0, [A6 - 0x14C]
0000467A  906E FEB0                sub.w      D0, [A6 - 0x150]
0000467E  3D40 FF40                move.w     [A6 - 0xC0], D0
00004682  7000                     moveq.l    D0, 0x00
00004684  2F00                     move.l     -[A7], D0
00004686  2F00                     move.l     -[A7], D0
00004688  7209                     moveq.l    D1, 0x09
0000468A  2F01                     move.l     -[A7], D1
0000468C  7003                     moveq.l    D0, 0x03
0000468E  2F00                     move.l     -[A7], D0
00004690  7000                     moveq.l    D0, 0x00
00004692  2F00                     move.l     -[A7], D0
00004694  2F00                     move.l     -[A7], D0
00004696  486E FF42                pea.l      [A6 - 0xBE]
0000469A  4EAD 1922                jsr        [A5 + 0x1922 /* export_800, CODE:33 @ 00000FF6 */]
0000469E  204D                     movea.l    A0, A5
000046A0  D1FC FFFF 82F6           add.l      A0, 0xFFFF82F6
000046A6  3010                     move.w     D0, [A0]
000046A8  C1FC 003A                muls.w     D0, 0x3A /* ':' */
000046AC  204D                     movea.l    A0, A5
000046AE  D1FC FFFE 9F9C           add.l      A0, 0xFFFE9F9C
000046B4  7200                     moveq.l    D1, 0x00
000046B6  1230 0011                move.b     D1, [A0 + D0.w + 0x11]
000046BA  4A81                     tst.l      D1
000046BC  204D                     movea.l    A0, A5
000046BE  D1FC FFFF 82E8           add.l      A0, 0xFFFF82E8
000046C4  3081                     move.w     [A0], D1
000046C6  204D                     movea.l    A0, A5
000046C8  D1FC FFFF 82F6           add.l      A0, 0xFFFF82F6
000046CE  3010                     move.w     D0, [A0]
000046D0  C1FC 003A                muls.w     D0, 0x3A /* ':' */
000046D4  204D                     movea.l    A0, A5
000046D6  D1FC FFFE 9F9C           add.l      A0, 0xFFFE9F9C
000046DC  224D                     movea.l    A1, A5
000046DE  D3FC FFFF 82E6           add.l      A1, 0xFFFF82E6
000046E4  32B0 0014                move.w     [A1], [A0 + D0.w + 0x14]
000046E8  204D                     movea.l    A0, A5
000046EA  D1FC FFFF 82F6           add.l      A0, 0xFFFF82F6
000046F0  3010                     move.w     D0, [A0]
000046F2  C1FC 003A                muls.w     D0, 0x3A /* ':' */
000046F6  204D                     movea.l    A0, A5
000046F8  D1FC FFFE 9F9C           add.l      A0, 0xFFFE9F9C
000046FE  224D                     movea.l    A1, A5
00004700  D3FC FFFF 82E4           add.l      A1, 0xFFFF82E4
00004706  32B0 0022                move.w     [A1], [A0 + D0.w + 0x22]
0000470A  3D7C 0001 FF64           move.w     [A6 - 0x9C], 0x1
00004710  486E FF42                pea.l      [A6 - 0xBE]
00004714  4EAD 1932                jsr        [A5 + 0x1932 /* export_802, CODE:33 @ 000010EA */]
00004718  1D7C 0001 FF66           move.b     [A6 - 0x9A], 0x1
0000471E  302E FFFE                move.w     D0, [A6 - 0x2]
00004722  48C0                     ext.l      D0
00004724  322E FF40                move.w     D1, [A6 - 0xC0]
00004728  48C1                     ext.l      D1
0000472A  9081                     sub.l      D0, D1
0000472C  4C7C 0800 0000 0002      divu.l     D2:D0, 0x8000000
00004734  3C00                     move.w     D6, D0
00004736  7E05                     moveq.l    D7, 0x05
00004738  3007                     move.w     D0, D7
0000473A  906E FEAE                sub.w      D0, [A6 - 0x152]
0000473E  48C0                     ext.l      D0
00004740  2F00                     move.l     -[A7], D0
00004742  3006                     move.w     D0, D6
00004744  906E FEB0                sub.w      D0, [A6 - 0x150]
00004748  48C0                     ext.l      D0
0000474A  2F00                     move.l     -[A7], D0
0000474C  43EE FE9E                lea.l      A1, [A6 - 0x162]
00004750  2049                     movea.l    A0, A1
00004752  226E FEA6                movea.l    A1, [A6 - 0x15A]
00004756  D0E9 0040                add.w      A0, [A1 + 0x40]
0000475A  2F08                     move.l     -[A7], A0
0000475C  2049                     movea.l    A0, A1
0000475E  2268 0044                movea.l    A1, [A0 + 0x44]
00004762  4E91                     jsr        [A1]
00004764  7000                     moveq.l    D0, 0x00
00004766  204D                     movea.l    A0, A5
00004768  D1FC FFFF 82E6           add.l      A0, 0xFFFF82E6
0000476E  3010                     move.w     D0, [A0]
00004770  4A80                     tst.l      D0
00004772  4C7C 0800 0000 0034      divu.l     D4:D0, 0x8000000
0000477A  D07C 0226                add.w      D0, 0x226
0000477E  48C0                     ext.l      D0
00004780  2F00                     move.l     -[A7], D0
00004782  486E FE18                pea.l      [A6 - 0x1E8]
00004786  4EAD 199A                jsr        [A5 + 0x199A /* export_815, CODE:33 @ 00002366 */]
0000478A  486E FE18                pea.l      [A6 - 0x1E8]
0000478E  4EAD 1992                jsr        [A5 + 0x1992 /* export_814, CODE:33 @ 00002302 */]
00004792  486E FF8C                pea.l      [A6 - 0x74]
00004796  3F06                     move.w     -[A7], D6
00004798  3007                     move.w     D0, D7
0000479A  D045                     add.w      D0, D5
0000479C  5640                     addq.w     D0, 3
0000479E  3F00                     move.w     -[A7], D0
000047A0  302E FF40                move.w     D0, [A6 - 0xC0]
000047A4  D046                     add.w      D0, D6
000047A6  3F00                     move.w     -[A7], D0
000047A8  3007                     move.w     D0, D7
000047AA  D045                     add.w      D0, D5
000047AC  D07C 000A                add.w      D0, 0xA /* '\n' */
000047B0  3F00                     move.w     -[A7], D0
000047B2  A8A7                     syscall    SetRect
000047B4  486E FF42                pea.l      [A6 - 0xBE]
000047B8  4EAD 1782                jsr        [A5 + 0x1782 /* export_748, CODE:32 @ 00004E1E */]
000047BC  4204                     clr.b      D4
000047BE  7000                     moveq.l    D0, 0x00
000047C0  1004                     move.b     D0, D4
000047C2  2F00                     move.l     -[A7], D0
000047C4  2F2E FF56                move.l     -[A7], [A6 - 0xAA]
000047C8  204D                     movea.l    A0, A5
000047CA  D1FC FFFF 8308           add.l      A0, 0xFFFF8308
000047D0  4850                     pea.l      [A0]
000047D2  486E FF42                pea.l      [A6 - 0xBE]
000047D6  4EAD 178A                jsr        [A5 + 0x178A /* export_749, CODE:32 @ 00004E80 */]
000047DA  7000                     moveq.l    D0, 0x00
000047DC  2F00                     move.l     -[A7], D0
000047DE  7201                     moveq.l    D1, 0x01
000047E0  2F01                     move.l     -[A7], D1
000047E2  486E FF8C                pea.l      [A6 - 0x74]
000047E6  486E FF42                pea.l      [A6 - 0xBE]
000047EA  4EAD 193A                jsr        [A5 + 0x193A /* export_803, CODE:33 @ 00001176 */]
000047EE  7E47                     moveq.l    D7, 0x47
000047F0  3007                     move.w     D0, D7
000047F2  906E FEAE                sub.w      D0, [A6 - 0x152]
000047F6  48C0                     ext.l      D0
000047F8  2F00                     move.l     -[A7], D0
000047FA  3006                     move.w     D0, D6
000047FC  906E FEB0                sub.w      D0, [A6 - 0x150]
00004800  48C0                     ext.l      D0
00004802  2F00                     move.l     -[A7], D0
00004804  43EE FE9E                lea.l      A1, [A6 - 0x162]
00004808  2049                     movea.l    A0, A1
0000480A  226E FEA6                movea.l    A1, [A6 - 0x15A]
0000480E  D0E9 0040                add.w      A0, [A1 + 0x40]
00004812  2F08                     move.l     -[A7], A0
00004814  2049                     movea.l    A0, A1
00004816  2268 0044                movea.l    A1, [A0 + 0x44]
0000481A  4E91                     jsr        [A1]
0000481C  7000                     moveq.l    D0, 0x00
0000481E  204D                     movea.l    A0, A5
00004820  D1FC FFFF 82E4           add.l      A0, 0xFFFF82E4
00004826  3010                     move.w     D0, [A0]
00004828  4A80                     tst.l      D0
0000482A  4C7C 0800 0000 0034      divu.l     D4:D0, 0x8000000
00004832  D07C 0226                add.w      D0, 0x226
00004836  48C0                     ext.l      D0
00004838  2F00                     move.l     -[A7], D0
0000483A  486E FE18                pea.l      [A6 - 0x1E8]
0000483E  4EAD 199A                jsr        [A5 + 0x199A /* export_815, CODE:33 @ 00002366 */]
00004842  486E FE18                pea.l      [A6 - 0x1E8]
00004846  4EAD 1992                jsr        [A5 + 0x1992 /* export_814, CODE:33 @ 00002302 */]
0000484A  486E FF8C                pea.l      [A6 - 0x74]
0000484E  3F06                     move.w     -[A7], D6
00004850  3007                     move.w     D0, D7
00004852  D045                     add.w      D0, D5
00004854  5640                     addq.w     D0, 3
00004856  3F00                     move.w     -[A7], D0
00004858  302E FF40                move.w     D0, [A6 - 0xC0]
0000485C  D046                     add.w      D0, D6
0000485E  3F00                     move.w     -[A7], D0
00004860  3007                     move.w     D0, D7
00004862  D045                     add.w      D0, D5
00004864  D07C 000A                add.w      D0, 0xA /* '\n' */
00004868  3F00                     move.w     -[A7], D0
0000486A  A8A7                     syscall    SetRect
0000486C  486E FF42                pea.l      [A6 - 0xBE]
00004870  4EAD 1782                jsr        [A5 + 0x1782 /* export_748, CODE:32 @ 00004E1E */]
00004874  4204                     clr.b      D4
00004876  7000                     moveq.l    D0, 0x00
00004878  1004                     move.b     D0, D4
0000487A  2F00                     move.l     -[A7], D0
0000487C  2F2E FF56                move.l     -[A7], [A6 - 0xAA]
00004880  204D                     movea.l    A0, A5
00004882  D1FC FFFF 830E           add.l      A0, 0xFFFF830E
00004888  4850                     pea.l      [A0]
0000488A  486E FF42                pea.l      [A6 - 0xBE]
0000488E  4EAD 178A                jsr        [A5 + 0x178A /* export_749, CODE:32 @ 00004E80 */]
00004892  7000                     moveq.l    D0, 0x00
00004894  2F00                     move.l     -[A7], D0
00004896  7201                     moveq.l    D1, 0x01
00004898  2F01                     move.l     -[A7], D1
0000489A  486E FF8C                pea.l      [A6 - 0x74]
0000489E  486E FF42                pea.l      [A6 - 0xBE]
000048A2  4EAD 193A                jsr        [A5 + 0x193A /* export_803, CODE:33 @ 00001176 */]
000048A6  3E3C 0088                move.w     D7, 0x88
000048AA  3007                     move.w     D0, D7
000048AC  906E FEAE                sub.w      D0, [A6 - 0x152]
000048B0  48C0                     ext.l      D0
000048B2  2F00                     move.l     -[A7], D0
000048B4  3006                     move.w     D0, D6
000048B6  906E FEB0                sub.w      D0, [A6 - 0x150]
000048BA  48C0                     ext.l      D0
000048BC  2F00                     move.l     -[A7], D0
000048BE  43EE FE9E                lea.l      A1, [A6 - 0x162]
000048C2  2049                     movea.l    A0, A1
000048C4  226E FEA6                movea.l    A1, [A6 - 0x15A]
000048C8  D0E9 0040                add.w      A0, [A1 + 0x40]
000048CC  2F08                     move.l     -[A7], A0
000048CE  2049                     movea.l    A0, A1
000048D0  2268 0044                movea.l    A1, [A0 + 0x44]
000048D4  4E91                     jsr        [A1]
000048D6  7000                     moveq.l    D0, 0x00
000048D8  204D                     movea.l    A0, A5
000048DA  D1FC FFFF 82E8           add.l      A0, 0xFFFF82E8
000048E0  3010                     move.w     D0, [A0]
000048E2  4A80                     tst.l      D0
000048E4  4C7C 0800 0000 0034      divu.l     D4:D0, 0x8000000
000048EC  D07C 01FE                add.w      D0, 0x1FE
000048F0  48C0                     ext.l      D0
000048F2  2F00                     move.l     -[A7], D0
000048F4  486E FE18                pea.l      [A6 - 0x1E8]
000048F8  4EAD 199A                jsr        [A5 + 0x199A /* export_815, CODE:33 @ 00002366 */]
000048FC  486E FE18                pea.l      [A6 - 0x1E8]
00004900  4EAD 1992                jsr        [A5 + 0x1992 /* export_814, CODE:33 @ 00002302 */]
00004904  486E FF8C                pea.l      [A6 - 0x74]
00004908  3F06                     move.w     -[A7], D6
0000490A  3007                     move.w     D0, D7
0000490C  D045                     add.w      D0, D5
0000490E  5640                     addq.w     D0, 3
00004910  3F00                     move.w     -[A7], D0
00004912  302E FF40                move.w     D0, [A6 - 0xC0]
00004916  D046                     add.w      D0, D6
00004918  3F00                     move.w     -[A7], D0
0000491A  3007                     move.w     D0, D7
0000491C  D045                     add.w      D0, D5
0000491E  D07C 000A                add.w      D0, 0xA /* '\n' */
00004922  3F00                     move.w     -[A7], D0
00004924  A8A7                     syscall    SetRect
00004926  486E FF42                pea.l      [A6 - 0xBE]
0000492A  4EAD 1782                jsr        [A5 + 0x1782 /* export_748, CODE:32 @ 00004E1E */]
0000492E  4204                     clr.b      D4
00004930  7000                     moveq.l    D0, 0x00
00004932  1004                     move.b     D0, D4
00004934  2F00                     move.l     -[A7], D0
00004936  2F2E FF56                move.l     -[A7], [A6 - 0xAA]
0000493A  204D                     movea.l    A0, A5
0000493C  D1FC FFFF 8316           add.l      A0, 0xFFFF8316
00004942  4850                     pea.l      [A0]
00004944  486E FF42                pea.l      [A6 - 0xBE]
00004948  4EAD 178A                jsr        [A5 + 0x178A /* export_749, CODE:32 @ 00004E80 */]
0000494C  7000                     moveq.l    D0, 0x00
0000494E  2F00                     move.l     -[A7], D0
00004950  7201                     moveq.l    D1, 0x01
00004952  2F01                     move.l     -[A7], D1
00004954  486E FF8C                pea.l      [A6 - 0x74]
00004958  486E FF42                pea.l      [A6 - 0xBE]
0000495C  4EAD 193A                jsr        [A5 + 0x193A /* export_803, CODE:33 @ 00001176 */]
00004960  7002                     moveq.l    D0, 0x02
00004962  2F00                     move.l     -[A7], D0
00004964  486E FF42                pea.l      [A6 - 0xBE]
00004968  4EAD 192A                jsr        [A5 + 0x192A /* export_801, CODE:33 @ 00001084 */]
0000496C  7002                     moveq.l    D0, 0x02
0000496E  2F00                     move.l     -[A7], D0
00004970  486E FE18                pea.l      [A6 - 0x1E8]
00004974  4EAD 198A                jsr        [A5 + 0x198A /* export_813, CODE:33 @ 00002246 */]
00004978  7002                     moveq.l    D0, 0x02
0000497A  2F00                     move.l     -[A7], D0
0000497C  486E FFC6                pea.l      [A6 - 0x3A]
00004980  4EAD 15D2                jsr        [A5 + 0x15D2 /* export_694, CODE:32 @ 000029D6 */]
00004984  7002                     moveq.l    D0, 0x02
00004986  2F00                     move.l     -[A7], D0
00004988  486E FF94                pea.l      [A6 - 0x6C]
0000498C  4EAD 15D2                jsr        [A5 + 0x15D2 /* export_694, CODE:32 @ 000029D6 */]
00004990  4CEE 18F0 FE00           movem.l    D4,D5,D6,D7,A3,A4, [A6 - 0x200]
00004996  4E5E                     unlink     A6
00004998  4E75                     rts
0000499A  8028 4472 6177 496E 7... dc.b       "DrawIntoNotepad__19cAirplaneMetersItemFv"
