# near model CODE resource
# jump table entries: 792-841 (50 of them)
export_99:
00000000  4E56 0000                link       A6, 0
00000004  7000                     moveq.l    D0, 0x00
00000006  204D                     movea.l    A0, A5
00000008  D1FC FFFD CEC6           add.l      A0, 0xFFFDCEC6
0000000E  3010                     move.w     D0, [A0]
00000010  0C40 0005                cmpi.w     D0, 0x5
00000014  636A                     bls        +0x6C /* 00000080 */
00000016  7000                     moveq.l    D0, 0x00
00000018  204D                     movea.l    A0, A5
0000001A  D1FC FFFD CEC6           add.l      A0, 0xFFFDCEC6
00000020  3010                     move.w     D0, [A0]
00000022  0C40 0007                cmpi.w     D0, 0x7
00000026  6458                     bcc        +0x5A /* 00000080 */
00000028  558F                     subq.l     A7, 2
0000002A  A861                     syscall    Random
0000002C  707F                     moveq.l    D0, 0x7F
0000002E  C05F                     and.w      D0, [A7]+
00000030  7200                     moveq.l    D1, 0x00
00000032  3200                     move.w     D1, D0
00000034  7031                     moveq.l    D0, 0x31
00000036  B081                     cmp.l      D0, D1
00000038  660C                     bne        +0xE /* 00000046 */
0000003A  7006                     moveq.l    D0, 0x06
0000003C  2F00                     move.l     -[A7], D0
0000003E  4EBA 00F6                jsr        [PC + 0xF6 /* 00000136 */]
00000042  584F                     addq.w     A7, 4
00000044  601E                     bra        +0x20 /* 00000064 */
label00000046:
00000046  558F                     subq.l     A7, 2
00000048  A861                     syscall    Random
0000004A  303C 00FF                move.w     D0, 0xFF
0000004E  C05F                     and.w      D0, [A7]+
00000050  7200                     moveq.l    D1, 0x00
00000052  3200                     move.w     D1, D0
00000054  7037                     moveq.l    D0, 0x37
00000056  B081                     cmp.l      D0, D1
00000058  660A                     bne        +0xC /* 00000064 */
0000005A  7001                     moveq.l    D0, 0x01
0000005C  2F00                     move.l     -[A7], D0
0000005E  4EBA 00D6                jsr        [PC + 0xD6 /* 00000136 */]
00000062  584F                     addq.w     A7, 4
label00000064:
00000064  558F                     subq.l     A7, 2
00000066  A861                     syscall    Random
00000068  703F                     moveq.l    D0, 0x3F
0000006A  C05F                     and.w      D0, [A7]+
0000006C  7200                     moveq.l    D1, 0x00
0000006E  3200                     move.w     D1, D0
00000070  7021                     moveq.l    D0, 0x21
00000072  B081                     cmp.l      D0, D1
00000074  660A                     bne        +0xC /* 00000080 */
00000076  7004                     moveq.l    D0, 0x04
00000078  2F00                     move.l     -[A7], D0
0000007A  4EBA 00BA                jsr        [PC + 0xBA /* 00000136 */]
0000007E  584F                     addq.w     A7, 4
label00000080:
00000080  700D                     moveq.l    D0, 0x0D
00000082  204D                     movea.l    A0, A5
00000084  D1FC FFFE 8AEC           add.l      A0, 0xFFFE8AEC
0000008A  B010                     cmp.b      D0, [A0]
0000008C  6C16                     bge        +0x18 /* 000000A4 */
0000008E  204D                     movea.l    A0, A5
00000090  D1FC FFFD AD1E           add.l      A0, 0xFFFDAD1E
00000096  4A10                     tst.b      [A0]
00000098  660A                     bne        +0xC /* 000000A4 */
0000009A  7003                     moveq.l    D0, 0x03
0000009C  2F00                     move.l     -[A7], D0
0000009E  4EBA 0096                jsr        [PC + 0x96 /* 00000136 */]
000000A2  584F                     addq.w     A7, 4
label000000A4:
000000A4  204D                     movea.l    A0, A5
000000A6  D1FC FFFE 8AEC           add.l      A0, 0xFFFE8AEC
000000AC  4A10                     tst.b      [A0]
000000AE  6C0A                     bge        +0xC /* 000000BA */
000000B0  7002                     moveq.l    D0, 0x02
000000B2  2F00                     move.l     -[A7], D0
000000B4  4EBA 0080                jsr        [PC + 0x80 /* 00000136 */]
000000B8  584F                     addq.w     A7, 4
label000000BA:
000000BA  7000                     moveq.l    D0, 0x00
000000BC  204D                     movea.l    A0, A5
000000BE  D1FC FFFD AD20           add.l      A0, 0xFFFDAD20
000000C4  1010                     move.b     D0, [A0]
000000C6  7204                     moveq.l    D1, 0x04
000000C8  C200                     and.b      D1, D0
000000CA  6726                     beq        +0x28 /* 000000F2 */
000000CC  7009                     moveq.l    D0, 0x09
000000CE  204D                     movea.l    A0, A5
000000D0  D1FC FFFE 8AEC           add.l      A0, 0xFFFE8AEC
000000D6  B010                     cmp.b      D0, [A0]
000000D8  6D18                     blt        +0x1A /* 000000F2 */
000000DA  7003                     moveq.l    D0, 0x03
000000DC  204D                     movea.l    A0, A5
000000DE  D1FC FFFD AD1E           add.l      A0, 0xFFFDAD1E
000000E4  B010                     cmp.b      D0, [A0]
000000E6  6C0A                     bge        +0xC /* 000000F2 */
000000E8  7003                     moveq.l    D0, 0x03
000000EA  2F00                     move.l     -[A7], D0
000000EC  4EBA 0DC4                jsr        [PC + 0xDC4 /* 00000EB2 */]
000000F0  584F                     addq.w     A7, 4
label000000F2:
000000F2  7000                     moveq.l    D0, 0x00
000000F4  204D                     movea.l    A0, A5
000000F6  D1FC FFFD AD20           add.l      A0, 0xFFFDAD20
000000FC  1010                     move.b     D0, [A0]
000000FE  7202                     moveq.l    D1, 0x02
00000100  C200                     and.b      D1, D0
00000102  6718                     beq        +0x1A /* 0000011C */
00000104  7003                     moveq.l    D0, 0x03
00000106  204D                     movea.l    A0, A5
00000108  D1FC FFFE 8AEC           add.l      A0, 0xFFFE8AEC
0000010E  B010                     cmp.b      D0, [A0]
00000110  6E0A                     bgt        +0xC /* 0000011C */
00000112  7002                     moveq.l    D0, 0x02
00000114  2F00                     move.l     -[A7], D0
00000116  4EBA 0D9A                jsr        [PC + 0xD9A /* 00000EB2 */]
0000011A  584F                     addq.w     A7, 4
label0000011C:
0000011C  4E5E                     unlink     A6
0000011E  4E75                     rts
00000120  9364 6973 6173 7465 7... dc.b       "disastermanager__Fv"
export_100:
fn00000136:
00000136  4E56 FEE0                link       A6, -0x0120
0000013A  48E7 1F18                movem.l    -[A7], D3,D4,D5,D6,D7,A3,A4
0000013E  1A2E 000B                move.b     D5, [A6 + 0xB]
00000142  204D                     movea.l    A0, A5
00000144  D1FC FFFD AD22           add.l      A0, 0xFFFDAD22
0000014A  4A10                     tst.b      [A0]
0000014C  6606                     bne        +0x8 /* 00000154 */
0000014E  7000                     moveq.l    D0, 0x00
00000150  6000 0D40                bra        +0xD42 /* 00000E92 */
label00000154:
00000154  49C5                     lea.l      A4, D5
00000156  2F05                     move.l     -[A7], D5
00000158  4EBA 57E0                jsr        [PC + 0x57E0 /* 0000593A */]
0000015C  1005                     move.b     D0, D5
0000015E  5300                     subq.b     D0, 1
00000160  584F                     addq.w     A7, 4
00000162  6B00 0D1A                bmi        +0xD1C /* 00000E7E */
00000166  0C00 0007                cmpi.b     D0, 0x7
0000016A  6E00 0D12                bgt        +0xD14 /* 00000E7E */
0000016E  7200                     moveq.l    D1, 0x00
00000170  1200                     move.b     D1, D0
00000172  D241                     add.w      D1, D1
00000174  323B 1006                move.w     D1, [PC + D1.w + 0x6]
00000178  4EFB 1000                jmp        [PC + D1.w]
0000017C  0544                     bchg       D4, D2
0000017E  0752                     bchg       [A2], D3
00000180  09CE                     .incomplete
00000182  0ADC                     .incomplete
00000184  0012 0174                ori.b      [A2], 0x74 /* 't' */
00000188  028A 04E0 7000           andi.l     A2, 0x4E07000
0000018E  204D                     movea.l    A0, A5
00000190  D1FC FFFD AD20           add.l      A0, 0xFFFDAD20
00000196  1010                     move.b     D0, [A0]
00000198  7210                     moveq.l    D1, 0x10
0000019A  C200                     and.b      D1, D0
0000019C  6706                     beq        +0x8 /* 000001A4 */
0000019E  7000                     moveq.l    D0, 0x00
000001A0  6000 0CF0                bra        +0xCF2 /* 00000E92 */
label000001A4:
000001A4  7000                     moveq.l    D0, 0x00
000001A6  204D                     movea.l    A0, A5
000001A8  D1FC FFFD AD20           add.l      A0, 0xFFFDAD20
000001AE  1010                     move.b     D0, [A0]
000001B0  7220                     moveq.l    D1, 0x20
000001B2  C200                     and.b      D1, D0
000001B4  670A                     beq        +0xC /* 000001C0 */
000001B6  7004                     moveq.l    D0, 0x04
000001B8  2F00                     move.l     -[A7], D0
000001BA  4EBA 0CF6                jsr        [PC + 0xCF6 /* 00000EB2 */]
000001BE  584F                     addq.w     A7, 4
label000001C0:
000001C0  204D                     movea.l    A0, A5
000001C2  D1FC FFFD AD20           add.l      A0, 0xFFFDAD20
000001C8  0010 0010                ori.b      [A0], 0x10
000001CC  204D                     movea.l    A0, A5
000001CE  D1FC FFFD AC0A           add.l      A0, 0xFFFDAC0A
000001D4  4850                     pea.l      [A0]
000001D6  4EAD 0742                jsr        [A5 + 0x742 /* export_228, CODE:12 @ 000045BA */]
000001DA  486E FF00                pea.l      [A6 - 0x100]
000001DE  7031                     moveq.l    D0, 0x31
000001E0  2F00                     move.l     -[A7], D0
000001E2  204D                     movea.l    A0, A5
000001E4  D1FC FFFD AC14           add.l      A0, 0xFFFDAC14
000001EA  4850                     pea.l      [A0]
000001EC  4EBA 302E                jsr        [PC + 0x302E /* 0000321C */]
000001F0  204D                     movea.l    A0, A5
000001F2  D1FC FFFE BED6           add.l      A0, 0xFFFEBED6
000001F8  4A10                     tst.b      [A0]
000001FA  4FEF 0010                lea.l      A7, [A7 + 0x10]
000001FE  6724                     beq        +0x26 /* 00000224 */
00000200  7001                     moveq.l    D0, 0x01
00000202  2F00                     move.l     -[A7], D0
00000204  7200                     moveq.l    D1, 0x00
00000206  2F01                     move.l     -[A7], D1
00000208  4878 0096                push.l     0x96
0000020C  4878 00C0                push.l     0xC0
00000210  2F01                     move.l     -[A7], D1
00000212  2F00                     move.l     -[A7], D0
00000214  7038                     moveq.l    D0, 0x38
00000216  2F00                     move.l     -[A7], D0
00000218  486E FF00                pea.l      [A6 - 0x100]
0000021C  4EAD 0862                jsr        [A5 + 0x862 /* export_264, CODE:14 @ 000059C4 */]
00000220  4FEF 0020                lea.l      A7, [A7 + 0x20]
label00000224:
00000224  701C                     moveq.l    D0, 0x1C
00000226  204D                     movea.l    A0, A5
00000228  D1FC FFFE D546           add.l      A0, 0xFFFED546
0000022E  B090                     cmp.l      D0, [A0]
00000230  6C18                     bge        +0x1A /* 0000024A */
00000232  204D                     movea.l    A0, A5
00000234  D1FC FFFE D549           add.l      A0, 0xFFFED549
0000023A  1010                     move.b     D0, [A0]
0000023C  721C                     moveq.l    D1, 0x1C
0000023E  9001                     sub.b      D0, D1
00000240  204D                     movea.l    A0, A5
00000242  D1FC FFFE D640           add.l      A0, 0xFFFED640
00000248  1080                     move.b     [A0], D0
label0000024A:
0000024A  204D                     movea.l    A0, A5
0000024C  D1FC FFFF 720C           add.l      A0, 0xFFFF720C
00000252  2650                     movea.l    A3, [A0]
00000254  2F2B 00B4                move.l     -[A7], [A3 + 0xB4]
00000258  7005                     moveq.l    D0, 0x05
0000025A  3F00                     move.w     -[A7], D0
0000025C  7212                     moveq.l    D1, 0x12
0000025E  3F01                     move.w     -[A7], D1
00000260  A944                     syscall    SetItmMark
00000262  204D                     movea.l    A0, A5
00000264  D1FC FFFF 720C           add.l      A0, 0xFFFF720C
0000026A  2650                     movea.l    A3, [A0]
0000026C  2F2B 00B4                move.l     -[A7], [A3 + 0xB4]
00000270  7007                     moveq.l    D0, 0x07
00000272  3F00                     move.w     -[A7], D0
00000274  7200                     moveq.l    D1, 0x00
00000276  3F01                     move.w     -[A7], D1
00000278  A944                     syscall    SetItmMark
0000027A  204D                     movea.l    A0, A5
0000027C  D1FC FFFD AD22           add.l      A0, 0xFFFDAD22
00000282  10BC 0001                move.b     [A0], 0x1
00000286  4245                     clr.w      D5
00000288  7C01                     moveq.l    D6, 0x01
0000028A  6052                     bra        +0x54 /* 000002DE */
label0000028C:
0000028C  2006                     move.l     D0, D6
0000028E  C1FC 0044                muls.w     D0, 0x44 /* 'D' */
00000292  204D                     movea.l    A0, A5
00000294  D1FC FFFD AFAE           add.l      A0, 0xFFFDAFAE
0000029A  323C 0100                move.w     D1, 0x100
0000029E  C270 0006                and.w      D1, [A0 + D0.w + 0x6]
000002A2  6736                     beq        +0x38 /* 000002DA */
000002A4  2006                     move.l     D0, D6
000002A6  C1FC 0044                muls.w     D0, 0x44 /* 'D' */
000002AA  204D                     movea.l    A0, A5
000002AC  D1FC FFFD AFAE           add.l      A0, 0xFFFDAFAE
000002B2  1030 000E                move.b     D0, [A0 + D0.w + 0xE]
000002B6  4880                     ext.w      D0
000002B8  EF40                     asl        D0.w, 7
000002BA  204D                     movea.l    A0, A5
000002BC  D1FC FFFD CED4           add.l      A0, 0xFFFDCED4
000002C2  4A30 0048                tst.b      [A0 + D0.w + 0x48]
000002C6  670E                     beq        +0x10 /* 000002D6 */
000002C8  4878 00FF                push.l     0xFF
000002CC  48C6                     ext.l      D6
000002CE  2F06                     move.l     -[A7], D6
000002D0  4EBA 34A0                jsr        [PC + 0x34A0 /* 00003772 */]
000002D4  504F                     addq.w     A7, 8
label000002D6:
000002D6  3005                     move.w     D0, D5
000002D8  5245                     addq.w     D5, 1
label000002DA:
000002DA  3006                     move.w     D0, D6
000002DC  5246                     addq.w     D6, 1
label000002DE:
000002DE  204D                     movea.l    A0, A5
000002E0  D1FC FFFD AFAC           add.l      A0, 0xFFFDAFAC
000002E6  BA50                     cmp.w      D5, [A0]
000002E8  6DA2                     blt        -0x5C /* 0000028C */
000002EA  6000 0B92                bra        +0xB94 /* 00000E7E */
000002EE  7000                     moveq.l    D0, 0x00
000002F0  204D                     movea.l    A0, A5
000002F2  D1FC FFFD AD20           add.l      A0, 0xFFFDAD20
000002F8  1010                     move.b     D0, [A0]
000002FA  7208                     moveq.l    D1, 0x08
000002FC  C200                     and.b      D1, D0
000002FE  6706                     beq        +0x8 /* 00000306 */
00000300  7000                     moveq.l    D0, 0x00
00000302  6000 0B8E                bra        +0xB90 /* 00000E92 */
label00000306:
00000306  7000                     moveq.l    D0, 0x00
00000308  204D                     movea.l    A0, A5
0000030A  D1FC FFFD AD20           add.l      A0, 0xFFFDAD20
00000310  1010                     move.b     D0, [A0]
00000312  4A80                     tst.l      D0
00000314  0800 0000                btst.b     D0, 0x0
00000318  6706                     beq        +0x8 /* 00000320 */
0000031A  7000                     moveq.l    D0, 0x00
0000031C  6000 0B74                bra        +0xB76 /* 00000E92 */
label00000320:
00000320  7000                     moveq.l    D0, 0x00
00000322  204D                     movea.l    A0, A5
00000324  D1FC FFFD AD20           add.l      A0, 0xFFFDAD20
0000032A  1010                     move.b     D0, [A0]
0000032C  7220                     moveq.l    D1, 0x20
0000032E  C200                     and.b      D1, D0
00000330  670A                     beq        +0xC /* 0000033C */
00000332  7004                     moveq.l    D0, 0x04
00000334  2F00                     move.l     -[A7], D0
00000336  4EBA 0B7A                jsr        [PC + 0xB7A /* 00000EB2 */]
0000033A  584F                     addq.w     A7, 4
label0000033C:
0000033C  204D                     movea.l    A0, A5
0000033E  D1FC FFFD AD20           add.l      A0, 0xFFFDAD20
00000344  0010 0008                ori.b      [A0], 0x8
00000348  204D                     movea.l    A0, A5
0000034A  D1FC FFFD AC20           add.l      A0, 0xFFFDAC20
00000350  4850                     pea.l      [A0]
00000352  4EAD 0742                jsr        [A5 + 0x742 /* export_228, CODE:12 @ 000045BA */]
00000356  486E FF00                pea.l      [A6 - 0x100]
0000035A  7030                     moveq.l    D0, 0x30
0000035C  2F00                     move.l     -[A7], D0
0000035E  204D                     movea.l    A0, A5
00000360  D1FC FFFD AC2A           add.l      A0, 0xFFFDAC2A
00000366  4850                     pea.l      [A0]
00000368  4EBA 2EB2                jsr        [PC + 0x2EB2 /* 0000321C */]
0000036C  204D                     movea.l    A0, A5
0000036E  D1FC FFFE BED6           add.l      A0, 0xFFFEBED6
00000374  4A10                     tst.b      [A0]
00000376  4FEF 0010                lea.l      A7, [A7 + 0x10]
0000037A  6724                     beq        +0x26 /* 000003A0 */
0000037C  7001                     moveq.l    D0, 0x01
0000037E  2F00                     move.l     -[A7], D0
00000380  7200                     moveq.l    D1, 0x00
00000382  2F01                     move.l     -[A7], D1
00000384  4878 0096                push.l     0x96
00000388  4878 00C0                push.l     0xC0
0000038C  2F01                     move.l     -[A7], D1
0000038E  2F00                     move.l     -[A7], D0
00000390  7039                     moveq.l    D0, 0x39
00000392  2F00                     move.l     -[A7], D0
00000394  486E FF00                pea.l      [A6 - 0x100]
00000398  4EAD 0862                jsr        [A5 + 0x862 /* export_264, CODE:14 @ 000059C4 */]
0000039C  4FEF 0020                lea.l      A7, [A7 + 0x20]
label000003A0:
000003A0  701E                     moveq.l    D0, 0x1E
000003A2  204D                     movea.l    A0, A5
000003A4  D1FC FFFE D54C           add.l      A0, 0xFFFED54C
000003AA  B010                     cmp.b      D0, [A0]
000003AC  6F16                     ble        +0x18 /* 000003C4 */
000003AE  7028                     moveq.l    D0, 0x28
000003B0  204D                     movea.l    A0, A5
000003B2  D1FC FFFE D54C           add.l      A0, 0xFFFED54C
000003B8  9010                     sub.b      D0, [A0]
000003BA  204D                     movea.l    A0, A5
000003BC  D1FC FFFE D824           add.l      A0, 0xFFFED824
000003C2  1080                     move.b     [A0], D0
label000003C4:
000003C4  204D                     movea.l    A0, A5
000003C6  D1FC FFFF 720C           add.l      A0, 0xFFFF720C
000003CC  2650                     movea.l    A3, [A0]
000003CE  2F2B 00B4                move.l     -[A7], [A3 + 0xB4]
000003D2  7006                     moveq.l    D0, 0x06
000003D4  3F00                     move.w     -[A7], D0
000003D6  7212                     moveq.l    D1, 0x12
000003D8  3F01                     move.w     -[A7], D1
000003DA  A944                     syscall    SetItmMark
000003DC  204D                     movea.l    A0, A5
000003DE  D1FC FFFF 720C           add.l      A0, 0xFFFF720C
000003E4  2650                     movea.l    A3, [A0]
000003E6  2F2B 00B4                move.l     -[A7], [A3 + 0xB4]
000003EA  7007                     moveq.l    D0, 0x07
000003EC  3F00                     move.w     -[A7], D0
000003EE  7200                     moveq.l    D1, 0x00
000003F0  3F01                     move.w     -[A7], D1
000003F2  A944                     syscall    SetItmMark
000003F4  204D                     movea.l    A0, A5
000003F6  D1FC FFFD AD22           add.l      A0, 0xFFFDAD22
000003FC  10BC 0001                move.b     [A0], 0x1
00000400  6000 0A7C                bra        +0xA7E /* 00000E7E */
00000404  7000                     moveq.l    D0, 0x00
00000406  204D                     movea.l    A0, A5
00000408  D1FC FFFD AD20           add.l      A0, 0xFFFDAD20
0000040E  1010                     move.b     D0, [A0]
00000410  7240                     moveq.l    D1, 0x40
00000412  C200                     and.b      D1, D0
00000414  6706                     beq        +0x8 /* 0000041C */
00000416  7000                     moveq.l    D0, 0x00
00000418  6000 0A78                bra        +0xA7A /* 00000E92 */
label0000041C:
0000041C  4EBA 33BA                jsr        [PC + 0x33BA /* 000037D8 */]
00000420  3800                     move.w     D4, D0
00000422  6606                     bne        +0x8 /* 0000042A */
00000424  7000                     moveq.l    D0, 0x00
00000426  6000 0A6A                bra        +0xA6C /* 00000E92 */
label0000042A:
0000042A  2004                     move.l     D0, D4
0000042C  C1FC 0044                muls.w     D0, 0x44 /* 'D' */
00000430  204D                     movea.l    A0, A5
00000432  D1FC FFFD AFAE           add.l      A0, 0xFFFDAFAE
00000438  1030 000E                move.b     D0, [A0 + D0.w + 0xE]
0000043C  4880                     ext.w      D0
0000043E  EF40                     asl        D0.w, 7
00000440  204D                     movea.l    A0, A5
00000442  D1FC FFFD CED4           add.l      A0, 0xFFFDCED4
00000448  7200                     moveq.l    D1, 0x00
0000044A  1230 003E                move.b     D1, [A0 + D0.w + 0x3E]
0000044E  7002                     moveq.l    D0, 0x02
00000450  C001                     and.b      D0, D1
00000452  6606                     bne        +0x8 /* 0000045A */
00000454  7000                     moveq.l    D0, 0x00
00000456  6000 0A3A                bra        +0xA3C /* 00000E92 */
label0000045A:
0000045A  7000                     moveq.l    D0, 0x00
0000045C  2F00                     move.l     -[A7], D0
0000045E  204D                     movea.l    A0, A5
00000460  D1FC FFFD AC36           add.l      A0, 0xFFFDAC36
00000466  4850                     pea.l      [A0]
00000468  4EAD 073A                jsr        [A5 + 0x73A /* export_227, CODE:12 @ 00004474 */]
0000046C  204D                     movea.l    A0, A5
0000046E  D1FC FFFD AD20           add.l      A0, 0xFFFDAD20
00000474  0010 0040                ori.b      [A0], 0x40 /* '@' */
00000478  486E FF00                pea.l      [A6 - 0x100]
0000047C  7032                     moveq.l    D0, 0x32
0000047E  2F00                     move.l     -[A7], D0
00000480  204D                     movea.l    A0, A5
00000482  D1FC FFFD AC42           add.l      A0, 0xFFFDAC42
00000488  4850                     pea.l      [A0]
0000048A  4EBA 2D90                jsr        [PC + 0x2D90 /* 0000321C */]
0000048E  7001                     moveq.l    D0, 0x01
00000490  2F00                     move.l     -[A7], D0
00000492  7200                     moveq.l    D1, 0x00
00000494  2F01                     move.l     -[A7], D1
00000496  4878 0096                push.l     0x96
0000049A  4878 00C0                push.l     0xC0
0000049E  2F01                     move.l     -[A7], D1
000004A0  2F00                     move.l     -[A7], D0
000004A2  7041                     moveq.l    D0, 0x41
000004A4  2F00                     move.l     -[A7], D0
000004A6  486E FF00                pea.l      [A6 - 0x100]
000004AA  4EAD 0862                jsr        [A5 + 0x862 /* export_264, CODE:14 @ 000059C4 */]
000004AE  2004                     move.l     D0, D4
000004B0  C1FC 0044                muls.w     D0, 0x44 /* 'D' */
000004B4  204D                     movea.l    A0, A5
000004B6  D1FC FFFD AFAE           add.l      A0, 0xFFFDAFAE
000004BC  1030 000A                move.b     D0, [A0 + D0.w + 0xA]
000004C0  4880                     ext.w      D0
000004C2  3A00                     move.w     D5, D0
000004C4  2004                     move.l     D0, D4
000004C6  C1FC 0044                muls.w     D0, 0x44 /* 'D' */
000004CA  204D                     movea.l    A0, A5
000004CC  D1FC FFFD AFAE           add.l      A0, 0xFFFDAFAE
000004D2  1030 000B                move.b     D0, [A0 + D0.w + 0xB]
000004D6  4880                     ext.w      D0
000004D8  3E00                     move.w     D7, D0
000004DA  700A                     moveq.l    D0, 0x0A
000004DC  2F00                     move.l     -[A7], D0
000004DE  48C4                     ext.l      D4
000004E0  2F04                     move.l     -[A7], D4
000004E2  4EBA 328E                jsr        [PC + 0x328E /* 00003772 */]
000004E6  3C05                     move.w     D6, D5
000004E8  5446                     addq.w     D6, 2
000004EA  4FEF 003C                lea.l      A7, [A7 + 0x3C]
000004EE  607C                     bra        +0x7E /* 0000056C */
label000004F0:
000004F0  48C7                     ext.l      D7
000004F2  2006                     move.l     D0, D6
000004F4  C1FC 00C0                muls.w     D0, 0xC0
000004F8  204D                     movea.l    A0, A5
000004FA  D1FC FFFE 42D4           add.l      A0, 0xFFFE42D4
00000500  2207                     move.l     D1, D7
00000502  D241                     add.w      D1, D1
00000504  D240                     add.w      D1, D0
00000506  7000                     moveq.l    D0, 0x00
00000508  3030 1008                move.w     D0, [A0 + D1.w + 0x8]
0000050C  323C F800                move.w     D1, 0xF800
00000510  C240                     and.w      D1, D0
00000512  7000                     moveq.l    D0, 0x00
00000514  3001                     move.w     D0, D1
00000516  48C6                     ext.l      D6
00000518  48C5                     ext.l      D5
0000051A  2205                     move.l     D1, D5
0000051C  5481                     addq.l     D1, 2
0000051E  2406                     move.l     D2, D6
00000520  9481                     sub.l      D2, D1
00000522  D4BC 0000 00D3           add.l      D2, 0xD3
00000528  8480                     or.l       D2, D0
0000052A  203C FFFF BFFF           move.l     D0, 0xFFFFBFFF
00000530  C082                     and.l      D0, D2
00000532  48C7                     ext.l      D7
00000534  2206                     move.l     D1, D6
00000536  C3FC 00C0                muls.w     D1, 0xC0
0000053A  204D                     movea.l    A0, A5
0000053C  D1FC FFFE 42D4           add.l      A0, 0xFFFE42D4
00000542  2407                     move.l     D2, D7
00000544  D442                     add.w      D2, D2
00000546  D441                     add.w      D2, D1
00000548  3180 2008                move.w     [A0 + D2.w + 0x8], D0
0000054C  48C7                     ext.l      D7
0000054E  2006                     move.l     D0, D6
00000550  C1FC 00C0                muls.w     D0, 0xC0
00000554  204D                     movea.l    A0, A5
00000556  D1FC FFFE 42D4           add.l      A0, 0xFFFE42D4
0000055C  2207                     move.l     D1, D7
0000055E  D241                     add.w      D1, D1
00000560  D240                     add.w      D1, D0
00000562  0270 BFFF 1008           andi.w     [A0 + D1.w + 0x8], 0xBFFF
00000568  3006                     move.w     D0, D6
0000056A  5246                     addq.w     D6, 1
label0000056C:
0000056C  48C6                     ext.l      D6
0000056E  48C5                     ext.l      D5
00000570  2005                     move.l     D0, D5
00000572  5E80                     addq.l     D0, 7
00000574  B086                     cmp.l      D0, D6
00000576  6E00 FF78                bgt        -0x86 /* 000004F0 */
0000057A  48C7                     ext.l      D7
0000057C  48C5                     ext.l      D5
0000057E  2005                     move.l     D0, D5
00000580  C1FC 00C0                muls.w     D0, 0xC0
00000584  204D                     movea.l    A0, A5
00000586  D1FC FFFE 45D4           add.l      A0, 0xFFFE45D4
0000058C  2207                     move.l     D1, D7
0000058E  D241                     add.w      D1, D1
00000590  D240                     add.w      D1, D0
00000592  7000                     moveq.l    D0, 0x00
00000594  3030 1006                move.w     D0, [A0 + D1.w + 0x6]
00000598  323C F800                move.w     D1, 0xF800
0000059C  C240                     and.w      D1, D0
0000059E  7000                     moveq.l    D0, 0x00
000005A0  3001                     move.w     D0, D1
000005A2  323C 00D2                move.w     D1, 0xD2
000005A6  8240                     or.w       D1, D0
000005A8  303C BFFF                move.w     D0, 0xBFFF
000005AC  C041                     and.w      D0, D1
000005AE  48C7                     ext.l      D7
000005B0  48C5                     ext.l      D5
000005B2  2205                     move.l     D1, D5
000005B4  C3FC 00C0                muls.w     D1, 0xC0
000005B8  204D                     movea.l    A0, A5
000005BA  D1FC FFFE 45D4           add.l      A0, 0xFFFE45D4
000005C0  2407                     move.l     D2, D7
000005C2  D442                     add.w      D2, D2
000005C4  D441                     add.w      D2, D1
000005C6  3180 2006                move.w     [A0 + D2.w + 0x6], D0
000005CA  48C7                     ext.l      D7
000005CC  48C5                     ext.l      D5
000005CE  2005                     move.l     D0, D5
000005D0  C1FC 00C0                muls.w     D0, 0xC0
000005D4  204D                     movea.l    A0, A5
000005D6  D1FC FFFE 45D4           add.l      A0, 0xFFFE45D4
000005DC  2207                     move.l     D1, D7
000005DE  D241                     add.w      D1, D1
000005E0  D240                     add.w      D1, D0
000005E2  0270 BFFF 1006           andi.w     [A0 + D1.w + 0x6], 0xBFFF
000005E8  48C7                     ext.l      D7
000005EA  48C5                     ext.l      D5
000005EC  2005                     move.l     D0, D5
000005EE  C1FC 00C0                muls.w     D0, 0xC0
000005F2  204D                     movea.l    A0, A5
000005F4  D1FC FFFE 45D4           add.l      A0, 0xFFFE45D4
000005FA  2207                     move.l     D1, D7
000005FC  D241                     add.w      D1, D1
000005FE  D240                     add.w      D1, D0
00000600  7000                     moveq.l    D0, 0x00
00000602  3030 100A                move.w     D0, [A0 + D1.w + 0xA]
00000606  323C F800                move.w     D1, 0xF800
0000060A  C240                     and.w      D1, D0
0000060C  7000                     moveq.l    D0, 0x00
0000060E  3001                     move.w     D0, D1
00000610  323C 00D8                move.w     D1, 0xD8
00000614  8240                     or.w       D1, D0
00000616  303C BFFF                move.w     D0, 0xBFFF
0000061A  C041                     and.w      D0, D1
0000061C  48C7                     ext.l      D7
0000061E  48C5                     ext.l      D5
00000620  2205                     move.l     D1, D5
00000622  C3FC 00C0                muls.w     D1, 0xC0
00000626  204D                     movea.l    A0, A5
00000628  D1FC FFFE 45D4           add.l      A0, 0xFFFE45D4
0000062E  2407                     move.l     D2, D7
00000630  D442                     add.w      D2, D2
00000632  D441                     add.w      D2, D1
00000634  3180 200A                move.w     [A0 + D2.w + 0xA], D0
00000638  48C7                     ext.l      D7
0000063A  48C5                     ext.l      D5
0000063C  2005                     move.l     D0, D5
0000063E  C1FC 00C0                muls.w     D0, 0xC0
00000642  204D                     movea.l    A0, A5
00000644  D1FC FFFE 45D4           add.l      A0, 0xFFFE45D4
0000064A  2207                     move.l     D1, D7
0000064C  D241                     add.w      D1, D1
0000064E  D240                     add.w      D1, D0
00000650  0270 BFFF 100A           andi.w     [A0 + D1.w + 0xA], 0xBFFF
00000656  6000 0826                bra        +0x828 /* 00000E7E */
0000065A  7000                     moveq.l    D0, 0x00
0000065C  204D                     movea.l    A0, A5
0000065E  D1FC FFFD AD20           add.l      A0, 0xFFFDAD20
00000664  1010                     move.b     D0, [A0]
00000666  323C 0080                move.w     D1, 0x80
0000066A  C200                     and.b      D1, D0
0000066C  6706                     beq        +0x8 /* 00000674 */
0000066E  7000                     moveq.l    D0, 0x00
00000670  6000 0820                bra        +0x822 /* 00000E92 */
label00000674:
00000674  204D                     movea.l    A0, A5
00000676  D1FC FFFD AD20           add.l      A0, 0xFFFDAD20
0000067C  0010 0080                ori.b      [A0], 0x80
00000680  486E FF00                pea.l      [A6 - 0x100]
00000684  7033                     moveq.l    D0, 0x33
00000686  2F00                     move.l     -[A7], D0
00000688  204D                     movea.l    A0, A5
0000068A  D1FC FFFD AC4E           add.l      A0, 0xFFFDAC4E
00000690  4850                     pea.l      [A0]
00000692  4EBA 2B88                jsr        [PC + 0x2B88 /* 0000321C */]
00000696  7001                     moveq.l    D0, 0x01
00000698  2F00                     move.l     -[A7], D0
0000069A  7200                     moveq.l    D1, 0x00
0000069C  2F01                     move.l     -[A7], D1
0000069E  4878 0096                push.l     0x96
000006A2  4878 00C0                push.l     0xC0
000006A6  2F01                     move.l     -[A7], D1
000006A8  2F00                     move.l     -[A7], D0
000006AA  703B                     moveq.l    D0, 0x3B
000006AC  2F00                     move.l     -[A7], D0
000006AE  486E FF00                pea.l      [A6 - 0x100]
000006B2  4EAD 0862                jsr        [A5 + 0x862 /* export_264, CODE:14 @ 000059C4 */]
000006B6  4FEF 002C                lea.l      A7, [A7 + 0x2C]
000006BA  6000 07C2                bra        +0x7C4 /* 00000E7E */
000006BE  7000                     moveq.l    D0, 0x00
000006C0  204D                     movea.l    A0, A5
000006C2  D1FC FFFD AD20           add.l      A0, 0xFFFDAD20
000006C8  1010                     move.b     D0, [A0]
000006CA  4A80                     tst.l      D0
000006CC  0800 0000                btst.b     D0, 0x0
000006D0  6706                     beq        +0x8 /* 000006D8 */
000006D2  7000                     moveq.l    D0, 0x00
000006D4  6000 07BC                bra        +0x7BE /* 00000E92 */
label000006D8:
000006D8  7000                     moveq.l    D0, 0x00
000006DA  204D                     movea.l    A0, A5
000006DC  D1FC FFFD AD20           add.l      A0, 0xFFFDAD20
000006E2  1010                     move.b     D0, [A0]
000006E4  7220                     moveq.l    D1, 0x20
000006E6  C200                     and.b      D1, D0
000006E8  670A                     beq        +0xC /* 000006F4 */
000006EA  7004                     moveq.l    D0, 0x04
000006EC  2F00                     move.l     -[A7], D0
000006EE  4EBA 07C2                jsr        [PC + 0x7C2 /* 00000EB2 */]
000006F2  584F                     addq.w     A7, 4
label000006F4:
000006F4  204D                     movea.l    A0, A5
000006F6  D1FC FFFD AD20           add.l      A0, 0xFFFDAD20
000006FC  0010 0001                ori.b      [A0], 0x1
00000700  486E FF00                pea.l      [A6 - 0x100]
00000704  7034                     moveq.l    D0, 0x34
00000706  2F00                     move.l     -[A7], D0
00000708  204D                     movea.l    A0, A5
0000070A  D1FC FFFD AC5A           add.l      A0, 0xFFFDAC5A
00000710  4850                     pea.l      [A0]
00000712  4EBA 2B08                jsr        [PC + 0x2B08 /* 0000321C */]
00000716  204D                     movea.l    A0, A5
00000718  D1FC FFFD AC66           add.l      A0, 0xFFFDAC66
0000071E  4850                     pea.l      [A0]
00000720  4EAD 0742                jsr        [A5 + 0x742 /* export_228, CODE:12 @ 000045BA */]
00000724  7001                     moveq.l    D0, 0x01
00000726  2F00                     move.l     -[A7], D0
00000728  7200                     moveq.l    D1, 0x00
0000072A  2F01                     move.l     -[A7], D1
0000072C  4878 0096                push.l     0x96
00000730  4878 00C0                push.l     0xC0
00000734  2F01                     move.l     -[A7], D1
00000736  2F00                     move.l     -[A7], D0
00000738  703F                     moveq.l    D0, 0x3F
0000073A  2F00                     move.l     -[A7], D0
0000073C  486E FF00                pea.l      [A6 - 0x100]
00000740  4EAD 0862                jsr        [A5 + 0x862 /* export_264, CODE:14 @ 000059C4 */]
00000744  558F                     subq.l     A7, 2
00000746  A861                     syscall    Random
00000748  703F                     moveq.l    D0, 0x3F
0000074A  C05F                     and.w      D0, [A7]+
0000074C  D07C 0010                add.w      D0, 0x10
00000750  204D                     movea.l    A0, A5
00000752  D1FC FFFD AD1A           add.l      A0, 0xFFFDAD1A
00000758  3080                     move.w     [A0], D0
0000075A  558F                     subq.l     A7, 2
0000075C  A861                     syscall    Random
0000075E  703F                     moveq.l    D0, 0x3F
00000760  C05F                     and.w      D0, [A7]+
00000762  D07C 0010                add.w      D0, 0x10
00000766  204D                     movea.l    A0, A5
00000768  D1FC FFFD AD18           add.l      A0, 0xFFFDAD18
0000076E  3080                     move.w     [A0], D0
00000770  558F                     subq.l     A7, 2
00000772  A861                     syscall    Random
00000774  7001                     moveq.l    D0, 0x01
00000776  C05F                     and.w      D0, [A7]+
00000778  204D                     movea.l    A0, A5
0000077A  D1FC FFFD AD16           add.l      A0, 0xFFFDAD16
00000780  1080                     move.b     [A0], D0
00000782  558F                     subq.l     A7, 2
00000784  A861                     syscall    Random
00000786  7001                     moveq.l    D0, 0x01
00000788  C05F                     and.w      D0, [A7]+
0000078A  204D                     movea.l    A0, A5
0000078C  D1FC FFFD AD14           add.l      A0, 0xFFFDAD14
00000792  1080                     move.b     [A0], D0
00000794  558F                     subq.l     A7, 2
00000796  A861                     syscall    Random
00000798  301F                     move.w     D0, [A7]+
0000079A  0800 0000                btst.b     D0, 0x0
0000079E  4FEF 0030                lea.l      A7, [A7 + 0x30]
000007A2  6718                     beq        +0x1A /* 000007BC */
000007A4  204D                     movea.l    A0, A5
000007A6  D1FC FFFD AD16           add.l      A0, 0xFFFDAD16
000007AC  1010                     move.b     D0, [A0]
000007AE  4880                     ext.w      D0
000007B0  4440                     neg.w      D0
000007B2  204D                     movea.l    A0, A5
000007B4  D1FC FFFD AD16           add.l      A0, 0xFFFDAD16
000007BA  1080                     move.b     [A0], D0
label000007BC:
000007BC  558F                     subq.l     A7, 2
000007BE  A861                     syscall    Random
000007C0  301F                     move.w     D0, [A7]+
000007C2  0800 0000                btst.b     D0, 0x0
000007C6  6718                     beq        +0x1A /* 000007E0 */
000007C8  204D                     movea.l    A0, A5
000007CA  D1FC FFFD AD14           add.l      A0, 0xFFFDAD14
000007D0  1010                     move.b     D0, [A0]
000007D2  4880                     ext.w      D0
000007D4  4440                     neg.w      D0
000007D6  204D                     movea.l    A0, A5
000007D8  D1FC FFFD AD14           add.l      A0, 0xFFFDAD14
000007DE  1080                     move.b     [A0], D0
label000007E0:
000007E0  204D                     movea.l    A0, A5
000007E2  D1FC FFFD CEBE           add.l      A0, 0xFFFDCEBE
000007E8  224D                     movea.l    A1, A5
000007EA  D3FC FFFD CE2E           add.l      A1, 0xFFFDCE2E
000007F0  2290                     move.l     [A1], [A0]
000007F2  204D                     movea.l    A0, A5
000007F4  D1FC FFFD AD1A           add.l      A0, 0xFFFDAD1A
000007FA  224D                     movea.l    A1, A5
000007FC  D3FC FFFD AD12           add.l      A1, 0xFFFDAD12
00000802  3290                     move.w     [A1], [A0]
00000804  204D                     movea.l    A0, A5
00000806  D1FC FFFD AD18           add.l      A0, 0xFFFDAD18
0000080C  224D                     movea.l    A1, A5
0000080E  D3FC FFFD AD10           add.l      A1, 0xFFFDAD10
00000814  3290                     move.w     [A1], [A0]
00000816  204D                     movea.l    A0, A5
00000818  D1FC FFFE 8AE4           add.l      A0, 0xFFFE8AE4
0000081E  4A10                     tst.b      [A0]
00000820  672E                     beq        +0x30 /* 00000850 */
00000822  204D                     movea.l    A0, A5
00000824  D1FC FFFD AD18           add.l      A0, 0xFFFDAD18
0000082A  3010                     move.w     D0, [A0]
0000082C  48C0                     ext.l      D0
0000082E  2F00                     move.l     -[A7], D0
00000830  204D                     movea.l    A0, A5
00000832  D1FC FFFD AD1A           add.l      A0, 0xFFFDAD1A
00000838  3010                     move.w     D0, [A0]
0000083A  48C0                     ext.l      D0
0000083C  2F00                     move.l     -[A7], D0
0000083E  204D                     movea.l    A0, A5
00000840  D1FC FFFF 7868           add.l      A0, 0xFFFF7868
00000846  2F10                     move.l     -[A7], [A0]
00000848  4EAD 13D2                jsr        [A5 + 0x13D2 /* export_630, CODE:27 @ 00001A1E */]
0000084C  4FEF 000C                lea.l      A7, [A7 + 0xC]
label00000850:
00000850  204D                     movea.l    A0, A5
00000852  D1FC FFFF 720C           add.l      A0, 0xFFFF720C
00000858  2650                     movea.l    A3, [A0]
0000085A  2F2B 00B4                move.l     -[A7], [A3 + 0xB4]
0000085E  7001                     moveq.l    D0, 0x01
00000860  3F00                     move.w     -[A7], D0
00000862  7212                     moveq.l    D1, 0x12
00000864  3F01                     move.w     -[A7], D1
00000866  A944                     syscall    SetItmMark
00000868  204D                     movea.l    A0, A5
0000086A  D1FC FFFF 720C           add.l      A0, 0xFFFF720C
00000870  2650                     movea.l    A3, [A0]
00000872  2F2B 00B4                move.l     -[A7], [A3 + 0xB4]
00000876  7007                     moveq.l    D0, 0x07
00000878  3F00                     move.w     -[A7], D0
0000087A  7200                     moveq.l    D1, 0x00
0000087C  3F01                     move.w     -[A7], D1
0000087E  A944                     syscall    SetItmMark
00000880  204D                     movea.l    A0, A5
00000882  D1FC FFFF 720C           add.l      A0, 0xFFFF720C
00000888  2050                     movea.l    A0, [A0]
0000088A  2D48 FEE0                move.l     [A6 - 0x120], A0
0000088E  2668 00C8                movea.l    A3, [A0 + 0xC8]
00000892  206B 0084                movea.l    A0, [A3 + 0x84]
00000896  7000                     moveq.l    D0, 0x00
00000898  1028 006E                move.b     D0, [A0 + 0x6E]
0000089C  0C40 0001                cmpi.w     D0, 0x1
000008A0  57C3                     seq        D3
000008A2  4403                     neg.b      D3
000008A4  6714                     beq        +0x16 /* 000008BA */
000008A6  286B 016C                movea.l    A4, [A3 + 0x16C]
000008AA  422C 0132                clr.b      [A4 + 0x132]
000008AE  2F0C                     move.l     -[A7], A4
000008B0  4EAD 1F52                jsr        [A5 + 0x1F52 /* export_998, CODE:37 @ 000014C8 */]
000008B4  7000                     moveq.l    D0, 0x00
000008B6  584F                     addq.w     A7, 4
000008B8  6002                     bra        +0x4 /* 000008BC */
label000008BA:
000008BA  7000                     moveq.l    D0, 0x00
label000008BC:
000008BC  204D                     movea.l    A0, A5
000008BE  D1FC FFFD AD22           add.l      A0, 0xFFFDAD22
000008C4  10BC 0001                move.b     [A0], 0x1
000008C8  6000 05B4                bra        +0x5B6 /* 00000E7E */
000008CC  7000                     moveq.l    D0, 0x00
000008CE  204D                     movea.l    A0, A5
000008D0  D1FC FFFD AD20           add.l      A0, 0xFFFDAD20
000008D6  1010                     move.b     D0, [A0]
000008D8  7202                     moveq.l    D1, 0x02
000008DA  C200                     and.b      D1, D0
000008DC  6706                     beq        +0x8 /* 000008E4 */
000008DE  7000                     moveq.l    D0, 0x00
000008E0  6000 05B0                bra        +0x5B2 /* 00000E92 */
label000008E4:
000008E4  204D                     movea.l    A0, A5
000008E6  D1FC FFFD AD20           add.l      A0, 0xFFFDAD20
000008EC  0010 0002                ori.b      [A0], 0x2
000008F0  486E FF00                pea.l      [A6 - 0x100]
000008F4  7035                     moveq.l    D0, 0x35
000008F6  2F00                     move.l     -[A7], D0
000008F8  204D                     movea.l    A0, A5
000008FA  D1FC FFFD AC72           add.l      A0, 0xFFFDAC72
00000900  4850                     pea.l      [A0]
00000902  4EBA 2918                jsr        [PC + 0x2918 /* 0000321C */]
00000906  204D                     movea.l    A0, A5
00000908  D1FC FFFE BED6           add.l      A0, 0xFFFEBED6
0000090E  4A10                     tst.b      [A0]
00000910  4FEF 000C                lea.l      A7, [A7 + 0xC]
00000914  6724                     beq        +0x26 /* 0000093A */
00000916  7001                     moveq.l    D0, 0x01
00000918  2F00                     move.l     -[A7], D0
0000091A  7200                     moveq.l    D1, 0x00
0000091C  2F01                     move.l     -[A7], D1
0000091E  4878 0096                push.l     0x96
00000922  4878 00C0                push.l     0xC0
00000926  2F01                     move.l     -[A7], D1
00000928  2F00                     move.l     -[A7], D0
0000092A  703A                     moveq.l    D0, 0x3A
0000092C  2F00                     move.l     -[A7], D0
0000092E  486E FF00                pea.l      [A6 - 0x100]
00000932  4EAD 0862                jsr        [A5 + 0x862 /* export_264, CODE:14 @ 000059C4 */]
00000936  4FEF 0020                lea.l      A7, [A7 + 0x20]
label0000093A:
0000093A  4246                     clr.w      D6
label0000093C:
0000093C  4247                     clr.w      D7
label0000093E:
0000093E  2006                     move.l     D0, D6
00000940  C1FC 00C0                muls.w     D0, 0xC0
00000944  204D                     movea.l    A0, A5
00000946  D1FC FFFE 42D4           add.l      A0, 0xFFFE42D4
0000094C  2207                     move.l     D1, D7
0000094E  D241                     add.w      D1, D1
00000950  D240                     add.w      D1, D0
00000952  7000                     moveq.l    D0, 0x00
00000954  3030 1000                move.w     D0, [A0 + D1.w]
00000958  323C 3000                move.w     D1, 0x3000 /* '0\0' */
0000095C  C240                     and.w      D1, D0
0000095E  6700 0184                beq        +0x186 /* 00000AE4 */
00000962  1007                     move.b     D0, D7
00000964  49C0                     lea.l      A4, D0
00000966  2F00                     move.l     -[A7], D0
00000968  1006                     move.b     D0, D6
0000096A  49C0                     lea.l      A4, D0
0000096C  2F00                     move.l     -[A7], D0
0000096E  4EAD 088A                jsr        [A5 + 0x88A /* export_269, CODE:15 @ 00000000 */]
00000972  0C40 0003                cmpi.w     D0, 0x3
00000976  504F                     addq.w     A7, 8
00000978  6D00 016A                blt        +0x16C /* 00000AE4 */
0000097C  2006                     move.l     D0, D6
0000097E  C1FC 00C0                muls.w     D0, 0xC0
00000982  204D                     movea.l    A0, A5
00000984  D1FC FFFE 42D4           add.l      A0, 0xFFFE42D4
0000098A  2207                     move.l     D1, D7
0000098C  D241                     add.w      D1, D1
0000098E  D240                     add.w      D1, D0
00000990  7000                     moveq.l    D0, 0x00
00000992  3030 1000                move.w     D0, [A0 + D1.w]
00000996  323C 07FF                move.w     D1, 0x7FF
0000099A  C240                     and.w      D1, D0
0000099C  7000                     moveq.l    D0, 0x00
0000099E  3001                     move.w     D0, D1
000009A0  4A80                     tst.l      D0
000009A2  204D                     movea.l    A0, A5
000009A4  D1FC FFFF 79BC           add.l      A0, 0xFFFF79BC
000009AA  3210                     move.w     D1, [A0]
000009AC  48C1                     ext.l      D1
000009AE  B280                     cmp.l      D1, D0
000009B0  6E46                     bgt        +0x48 /* 000009F8 */
000009B2  2006                     move.l     D0, D6
000009B4  C1FC 00C0                muls.w     D0, 0xC0
000009B8  204D                     movea.l    A0, A5
000009BA  D1FC FFFE 42D4           add.l      A0, 0xFFFE42D4
000009C0  2207                     move.l     D1, D7
000009C2  D241                     add.w      D1, D1
000009C4  D240                     add.w      D1, D0
000009C6  7000                     moveq.l    D0, 0x00
000009C8  3030 1000                move.w     D0, [A0 + D1.w]
000009CC  323C 07FF                move.w     D1, 0x7FF
000009D0  C240                     and.w      D1, D0
000009D2  7000                     moveq.l    D0, 0x00
000009D4  3001                     move.w     D0, D1
000009D6  4A80                     tst.l      D0
000009D8  204D                     movea.l    A0, A5
000009DA  D1FC FFFF 79BC           add.l      A0, 0xFFFF79BC
000009E0  3210                     move.w     D1, [A0]
000009E2  48C1                     ext.l      D1
000009E4  7400                     moveq.l    D2, 0x00
000009E6  204D                     movea.l    A0, A5
000009E8  D1FC FFFF 78DF           add.l      A0, 0xFFFF78DF
000009EE  1410                     move.b     D2, [A0]
000009F0  D481                     add.l      D2, D1
000009F2  B480                     cmp.l      D2, D0
000009F4  6E00 00EE                bgt        +0xF0 /* 00000AE4 */
label000009F8:
000009F8  2006                     move.l     D0, D6
000009FA  C1FC 00C0                muls.w     D0, 0xC0
000009FE  204D                     movea.l    A0, A5
00000A00  D1FC FFFE 42D4           add.l      A0, 0xFFFE42D4
00000A06  2207                     move.l     D1, D7
00000A08  D241                     add.w      D1, D1
00000A0A  D240                     add.w      D1, D0
00000A0C  7000                     moveq.l    D0, 0x00
00000A0E  3030 1000                move.w     D0, [A0 + D1.w]
00000A12  323C 07FF                move.w     D1, 0x7FF
00000A16  C240                     and.w      D1, D0
00000A18  7000                     moveq.l    D0, 0x00
00000A1A  3001                     move.w     D0, D1
00000A1C  4A80                     tst.l      D0
00000A1E  204D                     movea.l    A0, A5
00000A20  D1FC FFFF 7A42           add.l      A0, 0xFFFF7A42
00000A26  3210                     move.w     D1, [A0]
00000A28  48C1                     ext.l      D1
00000A2A  B280                     cmp.l      D1, D0
00000A2C  6E44                     bgt        +0x46 /* 00000A72 */
00000A2E  2006                     move.l     D0, D6
00000A30  C1FC 00C0                muls.w     D0, 0xC0
00000A34  204D                     movea.l    A0, A5
00000A36  D1FC FFFE 42D4           add.l      A0, 0xFFFE42D4
00000A3C  2207                     move.l     D1, D7
00000A3E  D241                     add.w      D1, D1
00000A40  D240                     add.w      D1, D0
00000A42  7000                     moveq.l    D0, 0x00
00000A44  3030 1000                move.w     D0, [A0 + D1.w]
00000A48  323C 07FF                move.w     D1, 0x7FF
00000A4C  C240                     and.w      D1, D0
00000A4E  7000                     moveq.l    D0, 0x00
00000A50  3001                     move.w     D0, D1
00000A52  4A80                     tst.l      D0
00000A54  204D                     movea.l    A0, A5
00000A56  D1FC FFFF 7A42           add.l      A0, 0xFFFF7A42
00000A5C  3210                     move.w     D1, [A0]
00000A5E  48C1                     ext.l      D1
00000A60  7400                     moveq.l    D2, 0x00
00000A62  204D                     movea.l    A0, A5
00000A64  D1FC FFFF 7922           add.l      A0, 0xFFFF7922
00000A6A  1410                     move.b     D2, [A0]
00000A6C  D481                     add.l      D2, D1
00000A6E  B480                     cmp.l      D2, D0
00000A70  6E72                     bgt        +0x74 /* 00000AE4 */
label00000A72:
00000A72  2006                     move.l     D0, D6
00000A74  C1FC 00C0                muls.w     D0, 0xC0
00000A78  204D                     movea.l    A0, A5
00000A7A  D1FC FFFE 42D4           add.l      A0, 0xFFFE42D4
00000A80  2207                     move.l     D1, D7
00000A82  D241                     add.w      D1, D1
00000A84  D240                     add.w      D1, D0
00000A86  7000                     moveq.l    D0, 0x00
00000A88  3030 1000                move.w     D0, [A0 + D1.w]
00000A8C  323C F800                move.w     D1, 0xF800
00000A90  C240                     and.w      D1, D0
00000A92  7000                     moveq.l    D0, 0x00
00000A94  3001                     move.w     D0, D1
00000A96  4A80                     tst.l      D0
00000A98  204D                     movea.l    A0, A5
00000A9A  D1FC FFFF 7942           add.l      A0, 0xFFFF7942
00000AA0  3210                     move.w     D1, [A0]
00000AA2  48C1                     ext.l      D1
00000AA4  740D                     moveq.l    D2, 0x0D
00000AA6  D282                     add.l      D1, D2
00000AA8  8280                     or.l       D1, D0
00000AAA  203C FFFF BFFF           move.l     D0, 0xFFFFBFFF
00000AB0  C081                     and.l      D0, D1
00000AB2  2206                     move.l     D1, D6
00000AB4  C3FC 00C0                muls.w     D1, 0xC0
00000AB8  204D                     movea.l    A0, A5
00000ABA  D1FC FFFE 42D4           add.l      A0, 0xFFFE42D4
00000AC0  2607                     move.l     D3, D7
00000AC2  D643                     add.w      D3, D3
00000AC4  D641                     add.w      D3, D1
00000AC6  3180 3000                move.w     [A0 + D3.w], D0
00000ACA  2006                     move.l     D0, D6
00000ACC  C1FC 00C0                muls.w     D0, 0xC0
00000AD0  204D                     movea.l    A0, A5
00000AD2  D1FC FFFE 42D4           add.l      A0, 0xFFFE42D4
00000AD8  2207                     move.l     D1, D7
00000ADA  D241                     add.w      D1, D1
00000ADC  D240                     add.w      D1, D0
00000ADE  0270 DFFF 1000           andi.w     [A0 + D1.w], 0xDFFF
label00000AE4:
00000AE4  3007                     move.w     D0, D7
00000AE6  5247                     addq.w     D7, 1
00000AE8  0C47 0060                cmpi.w     D7, 0x60 /* '`' */
00000AEC  6D00 FE50                blt        -0x1AE /* 0000093E */
00000AF0  3006                     move.w     D0, D6
00000AF2  5246                     addq.w     D6, 1
00000AF4  0C46 0060                cmpi.w     D6, 0x60 /* '`' */
00000AF8  6D00 FE42                blt        -0x1BC /* 0000093C */
00000AFC  4EAD 089A                jsr        [A5 + 0x89A /* export_271, CODE:15 @ 00000A94 */]
00000B00  204D                     movea.l    A0, A5
00000B02  D1FC FFFF 720C           add.l      A0, 0xFFFF720C
00000B08  2050                     movea.l    A0, [A0]
00000B0A  2D48 FEE4                move.l     [A6 - 0x11C], A0
00000B0E  2F28 00B4                move.l     -[A7], [A0 + 0xB4]
00000B12  7001                     moveq.l    D0, 0x01
00000B14  3F00                     move.w     -[A7], D0
00000B16  7212                     moveq.l    D1, 0x12
00000B18  3F01                     move.w     -[A7], D1
00000B1A  A944                     syscall    SetItmMark
00000B1C  204D                     movea.l    A0, A5
00000B1E  D1FC FFFF 720C           add.l      A0, 0xFFFF720C
00000B24  2050                     movea.l    A0, [A0]
00000B26  2D48 FEE8                move.l     [A6 - 0x118], A0
00000B2A  2F28 00B4                move.l     -[A7], [A0 + 0xB4]
00000B2E  7007                     moveq.l    D0, 0x07
00000B30  3F00                     move.w     -[A7], D0
00000B32  7200                     moveq.l    D1, 0x00
00000B34  3F01                     move.w     -[A7], D1
00000B36  A944                     syscall    SetItmMark
00000B38  204D                     movea.l    A0, A5
00000B3A  D1FC FFFD AD22           add.l      A0, 0xFFFDAD22
00000B40  10BC 0001                move.b     [A0], 0x1
00000B44  6000 0338                bra        +0x33A /* 00000E7E */
00000B48  7000                     moveq.l    D0, 0x00
00000B4A  204D                     movea.l    A0, A5
00000B4C  D1FC FFFD AD20           add.l      A0, 0xFFFDAD20
00000B52  1010                     move.b     D0, [A0]
00000B54  7204                     moveq.l    D1, 0x04
00000B56  C200                     and.b      D1, D0
00000B58  6706                     beq        +0x8 /* 00000B60 */
00000B5A  7000                     moveq.l    D0, 0x00
00000B5C  6000 0334                bra        +0x336 /* 00000E92 */
label00000B60:
00000B60  204D                     movea.l    A0, A5
00000B62  D1FC FFFD AD1E           add.l      A0, 0xFFFDAD1E
00000B68  4210                     clr.b      [A0]
00000B6A  204D                     movea.l    A0, A5
00000B6C  D1FC FFFD AD20           add.l      A0, 0xFFFDAD20
00000B72  0010 0004                ori.b      [A0], 0x4
00000B76  486E FF00                pea.l      [A6 - 0x100]
00000B7A  7036                     moveq.l    D0, 0x36
00000B7C  2F00                     move.l     -[A7], D0
00000B7E  204D                     movea.l    A0, A5
00000B80  D1FC FFFD AC7E           add.l      A0, 0xFFFDAC7E
00000B86  4850                     pea.l      [A0]
00000B88  4EBA 2692                jsr        [PC + 0x2692 /* 0000321C */]
00000B8C  204D                     movea.l    A0, A5
00000B8E  D1FC FFFD AC8A           add.l      A0, 0xFFFDAC8A
00000B94  4850                     pea.l      [A0]
00000B96  4EAD 0742                jsr        [A5 + 0x742 /* export_228, CODE:12 @ 000045BA */]
00000B9A  204D                     movea.l    A0, A5
00000B9C  D1FC FFFE BED6           add.l      A0, 0xFFFEBED6
00000BA2  4A10                     tst.b      [A0]
00000BA4  4FEF 0010                lea.l      A7, [A7 + 0x10]
00000BA8  6724                     beq        +0x26 /* 00000BCE */
00000BAA  7001                     moveq.l    D0, 0x01
00000BAC  2F00                     move.l     -[A7], D0
00000BAE  7200                     moveq.l    D1, 0x00
00000BB0  2F01                     move.l     -[A7], D1
00000BB2  4878 0096                push.l     0x96
00000BB6  4878 00C0                push.l     0xC0
00000BBA  2F01                     move.l     -[A7], D1
00000BBC  2F00                     move.l     -[A7], D0
00000BBE  703E                     moveq.l    D0, 0x3E
00000BC0  2F00                     move.l     -[A7], D0
00000BC2  486E FF00                pea.l      [A6 - 0x100]
00000BC6  4EAD 0862                jsr        [A5 + 0x862 /* export_264, CODE:14 @ 000059C4 */]
00000BCA  4FEF 0020                lea.l      A7, [A7 + 0x20]
label00000BCE:
00000BCE  204D                     movea.l    A0, A5
00000BD0  D1FC FFFD ACFA           add.l      A0, 0xFFFDACFA
00000BD6  4250                     clr.w      [A0]
00000BD8  204D                     movea.l    A0, A5
00000BDA  D1FC FFFD ACFC           add.l      A0, 0xFFFDACFC
00000BE0  4250                     clr.w      [A0]
00000BE2  204D                     movea.l    A0, A5
00000BE4  D1FC FFFD ACF6           add.l      A0, 0xFFFDACF6
00000BEA  4250                     clr.w      [A0]
00000BEC  204D                     movea.l    A0, A5
00000BEE  D1FC FFFD ACF8           add.l      A0, 0xFFFDACF8
00000BF4  4250                     clr.w      [A0]
00000BF6  204D                     movea.l    A0, A5
00000BF8  D1FC FFFD ACF4           add.l      A0, 0xFFFDACF4
00000BFE  10BC 0001                move.b     [A0], 0x1
00000C02  204D                     movea.l    A0, A5
00000C04  D1FC FFFD AD24           add.l      A0, 0xFFFDAD24
00000C0A  10BC 0004                move.b     [A0], 0x4
00000C0E  204D                     movea.l    A0, A5
00000C10  D1FC FFFF 720C           add.l      A0, 0xFFFF720C
00000C16  2050                     movea.l    A0, [A0]
00000C18  2D48 FEEC                move.l     [A6 - 0x114], A0
00000C1C  2F28 00B4                move.l     -[A7], [A0 + 0xB4]
00000C20  7004                     moveq.l    D0, 0x04
00000C22  3F00                     move.w     -[A7], D0
00000C24  7212                     moveq.l    D1, 0x12
00000C26  3F01                     move.w     -[A7], D1
00000C28  A944                     syscall    SetItmMark
00000C2A  204D                     movea.l    A0, A5
00000C2C  D1FC FFFF 720C           add.l      A0, 0xFFFF720C
00000C32  2050                     movea.l    A0, [A0]
00000C34  2D48 FEF0                move.l     [A6 - 0x110], A0
00000C38  2F28 00B4                move.l     -[A7], [A0 + 0xB4]
00000C3C  7007                     moveq.l    D0, 0x07
00000C3E  3F00                     move.w     -[A7], D0
00000C40  7200                     moveq.l    D1, 0x00
00000C42  3F01                     move.w     -[A7], D1
00000C44  A944                     syscall    SetItmMark
00000C46  204D                     movea.l    A0, A5
00000C48  D1FC FFFD AD22           add.l      A0, 0xFFFDAD22
00000C4E  10BC 0001                move.b     [A0], 0x1
00000C52  6000 022A                bra        +0x22C /* 00000E7E */
00000C56  7000                     moveq.l    D0, 0x00
00000C58  204D                     movea.l    A0, A5
00000C5A  D1FC FFFD AD20           add.l      A0, 0xFFFDAD20
00000C60  1010                     move.b     D0, [A0]
00000C62  7220                     moveq.l    D1, 0x20
00000C64  C200                     and.b      D1, D0
00000C66  6612                     bne        +0x14 /* 00000C7A */
00000C68  7000                     moveq.l    D0, 0x00
00000C6A  204D                     movea.l    A0, A5
00000C6C  D1FC FFFD AD20           add.l      A0, 0xFFFDAD20
00000C72  1010                     move.b     D0, [A0]
00000C74  7201                     moveq.l    D1, 0x01
00000C76  C200                     and.b      D1, D0
00000C78  6706                     beq        +0x8 /* 00000C80 */
label00000C7A:
00000C7A  7000                     moveq.l    D0, 0x00
00000C7C  6000 0214                bra        +0x216 /* 00000E92 */
label00000C80:
00000C80  4EBA 2B56                jsr        [PC + 0x2B56 /* 000037D8 */]
00000C84  204D                     movea.l    A0, A5
00000C86  D1FC FFFD AD0E           add.l      A0, 0xFFFDAD0E
00000C8C  3080                     move.w     [A0], D0
00000C8E  204D                     movea.l    A0, A5
00000C90  D1FC FFFD AD0E           add.l      A0, 0xFFFDAD0E
00000C96  4A50                     tst.w      [A0]
00000C98  6606                     bne        +0x8 /* 00000CA0 */
00000C9A  7000                     moveq.l    D0, 0x00
00000C9C  6000 01F4                bra        +0x1F6 /* 00000E92 */
label00000CA0:
00000CA0  204D                     movea.l    A0, A5
00000CA2  D1FC FFFD AD0E           add.l      A0, 0xFFFDAD0E
00000CA8  3010                     move.w     D0, [A0]
00000CAA  C1FC 0044                muls.w     D0, 0x44 /* 'D' */
00000CAE  204D                     movea.l    A0, A5
00000CB0  D1FC FFFD AFAE           add.l      A0, 0xFFFDAFAE
00000CB6  1030 000A                move.b     D0, [A0 + D0.w + 0xA]
00000CBA  4880                     ext.w      D0
00000CBC  204D                     movea.l    A0, A5
00000CBE  D1FC FFFD AD0A           add.l      A0, 0xFFFDAD0A
00000CC4  3080                     move.w     [A0], D0
00000CC6  204D                     movea.l    A0, A5
00000CC8  D1FC FFFD AD0E           add.l      A0, 0xFFFDAD0E
00000CCE  3010                     move.w     D0, [A0]
00000CD0  C1FC 0044                muls.w     D0, 0x44 /* 'D' */
00000CD4  204D                     movea.l    A0, A5
00000CD6  D1FC FFFD AFAE           add.l      A0, 0xFFFDAFAE
00000CDC  1030 000B                move.b     D0, [A0 + D0.w + 0xB]
00000CE0  4880                     ext.w      D0
00000CE2  204D                     movea.l    A0, A5
00000CE4  D1FC FFFD AD08           add.l      A0, 0xFFFDAD08
00000CEA  3080                     move.w     [A0], D0
00000CEC  204D                     movea.l    A0, A5
00000CEE  D1FC FFFD AD20           add.l      A0, 0xFFFDAD20
00000CF4  0010 0020                ori.b      [A0], 0x20 /* ' ' */
00000CF8  486E FF00                pea.l      [A6 - 0x100]
00000CFC  7037                     moveq.l    D0, 0x37
00000CFE  2F00                     move.l     -[A7], D0
00000D00  204D                     movea.l    A0, A5
00000D02  D1FC FFFD AC94           add.l      A0, 0xFFFDAC94
00000D08  4850                     pea.l      [A0]
00000D0A  4EBA 2510                jsr        [PC + 0x2510 /* 0000321C */]
00000D0E  204D                     movea.l    A0, A5
00000D10  D1FC FFFD ACA0           add.l      A0, 0xFFFDACA0
00000D16  4850                     pea.l      [A0]
00000D18  4EAD 0742                jsr        [A5 + 0x742 /* export_228, CODE:12 @ 000045BA */]
00000D1C  204D                     movea.l    A0, A5
00000D1E  D1FC FFFE BED6           add.l      A0, 0xFFFEBED6
00000D24  4A10                     tst.b      [A0]
00000D26  4FEF 0010                lea.l      A7, [A7 + 0x10]
00000D2A  6724                     beq        +0x26 /* 00000D50 */
00000D2C  7001                     moveq.l    D0, 0x01
00000D2E  2F00                     move.l     -[A7], D0
00000D30  7200                     moveq.l    D1, 0x00
00000D32  2F01                     move.l     -[A7], D1
00000D34  4878 0096                push.l     0x96
00000D38  4878 00C0                push.l     0xC0
00000D3C  2F01                     move.l     -[A7], D1
00000D3E  2F00                     move.l     -[A7], D0
00000D40  702F                     moveq.l    D0, 0x2F
00000D42  2F00                     move.l     -[A7], D0
00000D44  486E FF00                pea.l      [A6 - 0x100]
00000D48  4EAD 0862                jsr        [A5 + 0x862 /* export_264, CODE:14 @ 000059C4 */]
00000D4C  4FEF 0020                lea.l      A7, [A7 + 0x20]
label00000D50:
00000D50  204D                     movea.l    A0, A5
00000D52  D1FC FFFD AD0A           add.l      A0, 0xFFFDAD0A
00000D58  224D                     movea.l    A1, A5
00000D5A  D3FC FFFD AD02           add.l      A1, 0xFFFDAD02
00000D60  3290                     move.w     [A1], [A0]
00000D62  204D                     movea.l    A0, A5
00000D64  D1FC FFFD AD08           add.l      A0, 0xFFFDAD08
00000D6A  224D                     movea.l    A1, A5
00000D6C  D3FC FFFD AD00           add.l      A1, 0xFFFDAD00
00000D72  3290                     move.w     [A1], [A0]
00000D74  204D                     movea.l    A0, A5
00000D76  D1FC FFFE 8AE4           add.l      A0, 0xFFFE8AE4
00000D7C  4A10                     tst.b      [A0]
00000D7E  674E                     beq        +0x50 /* 00000DCE */
00000D80  204D                     movea.l    A0, A5
00000D82  D1FC FFFD AD0E           add.l      A0, 0xFFFDAD0E
00000D88  3010                     move.w     D0, [A0]
00000D8A  C1FC 0044                muls.w     D0, 0x44 /* 'D' */
00000D8E  204D                     movea.l    A0, A5
00000D90  D1FC FFFD AFAE           add.l      A0, 0xFFFDAFAE
00000D96  1030 000B                move.b     D0, [A0 + D0.w + 0xB]
00000D9A  49C0                     lea.l      A4, D0
00000D9C  2F00                     move.l     -[A7], D0
00000D9E  204D                     movea.l    A0, A5
00000DA0  D1FC FFFD AD0E           add.l      A0, 0xFFFDAD0E
00000DA6  3010                     move.w     D0, [A0]
00000DA8  C1FC 0044                muls.w     D0, 0x44 /* 'D' */
00000DAC  204D                     movea.l    A0, A5
00000DAE  D1FC FFFD AFAE           add.l      A0, 0xFFFDAFAE
00000DB4  1030 000A                move.b     D0, [A0 + D0.w + 0xA]
00000DB8  49C0                     lea.l      A4, D0
00000DBA  2F00                     move.l     -[A7], D0
00000DBC  204D                     movea.l    A0, A5
00000DBE  D1FC FFFF 7868           add.l      A0, 0xFFFF7868
00000DC4  2F10                     move.l     -[A7], [A0]
00000DC6  4EAD 13D2                jsr        [A5 + 0x13D2 /* export_630, CODE:27 @ 00001A1E */]
00000DCA  4FEF 000C                lea.l      A7, [A7 + 0xC]
label00000DCE:
00000DCE  204D                     movea.l    A0, A5
00000DD0  D1FC FFFF 720C           add.l      A0, 0xFFFF720C
00000DD6  2050                     movea.l    A0, [A0]
00000DD8  2D48 FEF4                move.l     [A6 - 0x10C], A0
00000DDC  2F28 00B4                move.l     -[A7], [A0 + 0xB4]
00000DE0  7002                     moveq.l    D0, 0x02
00000DE2  3F00                     move.w     -[A7], D0
00000DE4  7212                     moveq.l    D1, 0x12
00000DE6  3F01                     move.w     -[A7], D1
00000DE8  A944                     syscall    SetItmMark
00000DEA  204D                     movea.l    A0, A5
00000DEC  D1FC FFFF 720C           add.l      A0, 0xFFFF720C
00000DF2  2050                     movea.l    A0, [A0]
00000DF4  2D48 FEF8                move.l     [A6 - 0x108], A0
00000DF8  2F28 00B4                move.l     -[A7], [A0 + 0xB4]
00000DFC  7007                     moveq.l    D0, 0x07
00000DFE  3F00                     move.w     -[A7], D0
00000E00  7200                     moveq.l    D1, 0x00
00000E02  3F01                     move.w     -[A7], D1
00000E04  A944                     syscall    SetItmMark
00000E06  204D                     movea.l    A0, A5
00000E08  D1FC FFFF 720C           add.l      A0, 0xFFFF720C
00000E0E  2050                     movea.l    A0, [A0]
00000E10  2D48 FEFC                move.l     [A6 - 0x104], A0
00000E14  2668 00C8                movea.l    A3, [A0 + 0xC8]
00000E18  206B 0084                movea.l    A0, [A3 + 0x84]
00000E1C  7000                     moveq.l    D0, 0x00
00000E1E  1028 006E                move.b     D0, [A0 + 0x6E]
00000E22  0C40 0001                cmpi.w     D0, 0x1
00000E26  57C3                     seq        D3
00000E28  4403                     neg.b      D3
00000E2A  6714                     beq        +0x16 /* 00000E40 */
00000E2C  286B 016C                movea.l    A4, [A3 + 0x16C]
00000E30  422C 0132                clr.b      [A4 + 0x132]
00000E34  2F0C                     move.l     -[A7], A4
00000E36  4EAD 1F52                jsr        [A5 + 0x1F52 /* export_998, CODE:37 @ 000014C8 */]
00000E3A  7000                     moveq.l    D0, 0x00
00000E3C  584F                     addq.w     A7, 4
00000E3E  6002                     bra        +0x4 /* 00000E42 */
label00000E40:
00000E40  7000                     moveq.l    D0, 0x00
label00000E42:
00000E42  204D                     movea.l    A0, A5
00000E44  D1FC FFFD AD22           add.l      A0, 0xFFFDAD22
00000E4A  10BC 0001                move.b     [A0], 0x1
00000E4E  204D                     movea.l    A0, A5
00000E50  D1FC FFFD ACF2           add.l      A0, 0xFFFDACF2
00000E56  10BC 0001                move.b     [A0], 0x1
00000E5A  204D                     movea.l    A0, A5
00000E5C  D1FC FFFD CEBE           add.l      A0, 0xFFFDCEBE
00000E62  224D                     movea.l    A1, A5
00000E64  D3FC FFFD CE26           add.l      A1, 0xFFFDCE26
00000E6A  2290                     move.l     [A1], [A0]
00000E6C  204D                     movea.l    A0, A5
00000E6E  D1FC FFFD CEBE           add.l      A0, 0xFFFDCEBE
00000E74  224D                     movea.l    A1, A5
00000E76  D3FC FFFD CE2A           add.l      A1, 0xFFFDCE2A
00000E7C  2290                     move.l     [A1], [A0]
label00000E7E:
00000E7E  204D                     movea.l    A0, A5
00000E80  D1FC FFFD CEBE           add.l      A0, 0xFFFDCEBE
00000E86  224D                     movea.l    A1, A5
00000E88  D3FC FFFD CE1E           add.l      A1, 0xFFFDCE1E
00000E8E  2290                     move.l     [A1], [A0]
00000E90  7001                     moveq.l    D0, 0x01
label00000E92:
00000E92  4CEE 18F8 FEC4           movem.l    D3,D4,D5,D6,D7,A3,A4, [A6 - 0x13C]
00000E98  4E5E                     unlink     A6
00000E9A  4E75                     rts
00000E9C  9263 7265 6174 6564 6... dc.b       "createdisaster__Fc"
export_101:
fn00000EB2:
00000EB2  4E56 FEE8                link       A6, -0x0118
00000EB6  48E7 1318                movem.l    -[A7], D3,D6,D7,A3,A4
00000EBA  204D                     movea.l    A0, A5
00000EBC  D1FC FFFD ACFE           add.l      A0, 0xFFFDACFE
00000EC2  4210                     clr.b      [A0]
00000EC4  102E 000B                move.b     D0, [A6 + 0xB]
00000EC8  5300                     subq.b     D0, 1
00000ECA  6B00 0740                bmi        +0x742 /* 0000160C */
00000ECE  0C00 0006                cmpi.b     D0, 0x6
00000ED2  6E00 0738                bgt        +0x73A /* 0000160C */
00000ED6  7200                     moveq.l    D1, 0x00
00000ED8  1200                     move.b     D1, D0
00000EDA  D241                     add.w      D1, D1
00000EDC  323B 1006                move.w     D1, [PC + D1.w + 0x6]
00000EE0  4EFB 1000                jmp        [PC + D1.w]
00000EE4  00CE                     .incomplete
00000EE6  01CA                     .incomplete
00000EE8  0412 0696                subi.b     [A2], 0x96
00000EEC  0010 0060                ori.b      [A0], 0x60 /* '`' */
00000EF0  0038 204D D1FC           ori.b      [0xFFFFD1FC], 0x4D /* 'M' */
00000EF6  FFFF                     .invalid   <<F/7/7>>
00000EF8  720C                     moveq.l    D1, 0x0C
00000EFA  2650                     movea.l    A3, [A0]
00000EFC  2F2B 00B4                move.l     -[A7], [A3 + 0xB4]
00000F00  7005                     moveq.l    D0, 0x05
00000F02  3F00                     move.w     -[A7], D0
00000F04  7200                     moveq.l    D1, 0x00
00000F06  3F01                     move.w     -[A7], D1
00000F08  A944                     syscall    SetItmMark
00000F0A  204D                     movea.l    A0, A5
00000F0C  D1FC FFFD AD20           add.l      A0, 0xFFFDAD20
00000F12  0210 00EF                andi.b     [A0], 0xEF
00000F16  6000 06F4                bra        +0x6F6 /* 0000160C */
00000F1A  204D                     movea.l    A0, A5
00000F1C  D1FC FFFF 720C           add.l      A0, 0xFFFF720C
00000F22  2650                     movea.l    A3, [A0]
00000F24  2F2B 00B4                move.l     -[A7], [A3 + 0xB4]
00000F28  7008                     moveq.l    D0, 0x08
00000F2A  3F00                     move.w     -[A7], D0
00000F2C  7200                     moveq.l    D1, 0x00
00000F2E  3F01                     move.w     -[A7], D1
00000F30  A944                     syscall    SetItmMark
00000F32  204D                     movea.l    A0, A5
00000F34  D1FC FFFD AD20           add.l      A0, 0xFFFDAD20
00000F3A  0210 00BF                andi.b     [A0], 0xBF
00000F3E  6000 06CC                bra        +0x6CE /* 0000160C */
00000F42  204D                     movea.l    A0, A5
00000F44  D1FC FFFE BED6           add.l      A0, 0xFFFEBED6
00000F4A  4A10                     tst.b      [A0]
00000F4C  673A                     beq        +0x3C /* 00000F88 */
00000F4E  486E FF00                pea.l      [A6 - 0x100]
00000F52  7039                     moveq.l    D0, 0x39
00000F54  2F00                     move.l     -[A7], D0
00000F56  204D                     movea.l    A0, A5
00000F58  D1FC FFFD ACAA           add.l      A0, 0xFFFDACAA
00000F5E  4850                     pea.l      [A0]
00000F60  4EBA 22BA                jsr        [PC + 0x22BA /* 0000321C */]
00000F64  7001                     moveq.l    D0, 0x01
00000F66  2F00                     move.l     -[A7], D0
00000F68  7200                     moveq.l    D1, 0x00
00000F6A  2F01                     move.l     -[A7], D1
00000F6C  4878 0096                push.l     0x96
00000F70  4878 00C0                push.l     0xC0
00000F74  2F01                     move.l     -[A7], D1
00000F76  2F00                     move.l     -[A7], D0
00000F78  7039                     moveq.l    D0, 0x39
00000F7A  2F00                     move.l     -[A7], D0
00000F7C  486E FF00                pea.l      [A6 - 0x100]
00000F80  4EAD 0862                jsr        [A5 + 0x862 /* export_264, CODE:14 @ 000059C4 */]
00000F84  4FEF 002C                lea.l      A7, [A7 + 0x2C]
label00000F88:
00000F88  204D                     movea.l    A0, A5
00000F8A  D1FC FFFD AD20           add.l      A0, 0xFFFDAD20
00000F90  0210 00F7                andi.b     [A0], 0xF7
00000F94  204D                     movea.l    A0, A5
00000F96  D1FC FFFF 720C           add.l      A0, 0xFFFF720C
00000F9C  2650                     movea.l    A3, [A0]
00000F9E  2F2B 00B4                move.l     -[A7], [A3 + 0xB4]
00000FA2  7006                     moveq.l    D0, 0x06
00000FA4  3F00                     move.w     -[A7], D0
00000FA6  7200                     moveq.l    D1, 0x00
00000FA8  3F01                     move.w     -[A7], D1
00000FAA  A944                     syscall    SetItmMark
00000FAC  6000 065E                bra        +0x660 /* 0000160C */
00000FB0  204D                     movea.l    A0, A5
00000FB2  D1FC FFFD CEBE           add.l      A0, 0xFFFDCEBE
00000FB8  2010                     move.l     D0, [A0]
00000FBA  204D                     movea.l    A0, A5
00000FBC  D1FC FFFD CE2E           add.l      A0, 0xFFFDCE2E
00000FC2  9090                     sub.l      D0, [A0]
00000FC4  0C80 0000 0708           cmpi.l     D0, 0x708
00000FCA  6406                     bcc        +0x8 /* 00000FD2 */
00000FCC  7000                     moveq.l    D0, 0x00
00000FCE  6000 063E                bra        +0x640 /* 0000160E */
label00000FD2:
00000FD2  204D                     movea.l    A0, A5
00000FD4  D1FC FFFF 720C           add.l      A0, 0xFFFF720C
00000FDA  2650                     movea.l    A3, [A0]
00000FDC  2F2B 00B4                move.l     -[A7], [A3 + 0xB4]
00000FE0  7001                     moveq.l    D0, 0x01
00000FE2  3F00                     move.w     -[A7], D0
00000FE4  7200                     moveq.l    D1, 0x00
00000FE6  3F01                     move.w     -[A7], D1
00000FE8  A944                     syscall    SetItmMark
00000FEA  204D                     movea.l    A0, A5
00000FEC  D1FC FFFD AD20           add.l      A0, 0xFFFDAD20
00000FF2  0210 00FE                andi.b     [A0], 0xFE
00000FF6  204D                     movea.l    A0, A5
00000FF8  D1FC FFFE BED6           add.l      A0, 0xFFFEBED6
00000FFE  4A10                     tst.b      [A0]
00001000  673A                     beq        +0x3C /* 0000103C */
00001002  486E FF00                pea.l      [A6 - 0x100]
00001006  7014                     moveq.l    D0, 0x14
00001008  2F00                     move.l     -[A7], D0
0000100A  204D                     movea.l    A0, A5
0000100C  D1FC FFFD ACB6           add.l      A0, 0xFFFDACB6
00001012  4850                     pea.l      [A0]
00001014  4EBA 2206                jsr        [PC + 0x2206 /* 0000321C */]
00001018  7001                     moveq.l    D0, 0x01
0000101A  2F00                     move.l     -[A7], D0
0000101C  7200                     moveq.l    D1, 0x00
0000101E  2F01                     move.l     -[A7], D1
00001020  4878 0096                push.l     0x96
00001024  4878 00C0                push.l     0xC0
00001028  2F01                     move.l     -[A7], D1
0000102A  2F00                     move.l     -[A7], D0
0000102C  703F                     moveq.l    D0, 0x3F
0000102E  2F00                     move.l     -[A7], D0
00001030  486E FF00                pea.l      [A6 - 0x100]
00001034  4EAD 0862                jsr        [A5 + 0x862 /* export_264, CODE:14 @ 000059C4 */]
00001038  4FEF 002C                lea.l      A7, [A7 + 0x2C]
label0000103C:
0000103C  204D                     movea.l    A0, A5
0000103E  D1FC FFFF 720C           add.l      A0, 0xFFFF720C
00001044  2050                     movea.l    A0, [A0]
00001046  2D48 FEE8                move.l     [A6 - 0x118], A0
0000104A  2668 00C8                movea.l    A3, [A0 + 0xC8]
0000104E  206B 0084                movea.l    A0, [A3 + 0x84]
00001052  7000                     moveq.l    D0, 0x00
00001054  1028 006E                move.b     D0, [A0 + 0x6E]
00001058  0C40 0001                cmpi.w     D0, 0x1
0000105C  57C3                     seq        D3
0000105E  4403                     neg.b      D3
00001060  6714                     beq        +0x16 /* 00001076 */
00001062  286B 016C                movea.l    A4, [A3 + 0x16C]
00001066  422C 0132                clr.b      [A4 + 0x132]
0000106A  2F0C                     move.l     -[A7], A4
0000106C  4EAD 1F52                jsr        [A5 + 0x1F52 /* export_998, CODE:37 @ 000014C8 */]
00001070  7000                     moveq.l    D0, 0x00
00001072  584F                     addq.w     A7, 4
00001074  6002                     bra        +0x4 /* 00001078 */
label00001076:
00001076  7000                     moveq.l    D0, 0x00
label00001078:
00001078  4246                     clr.w      D6
0000107A  7660                     moveq.l    D3, 0x60
label0000107C:
0000107C  4247                     clr.w      D7
label0000107E:
0000107E  2006                     move.l     D0, D6
00001080  C1FC 00C0                muls.w     D0, 0xC0
00001084  204D                     movea.l    A0, A5
00001086  D1FC FFFE 42D4           add.l      A0, 0xFFFE42D4
0000108C  2207                     move.l     D1, D7
0000108E  D241                     add.w      D1, D1
00001090  D240                     add.w      D1, D0
00001092  0270 BFFF 1000           andi.w     [A0 + D1.w], 0xBFFF
00001098  3007                     move.w     D0, D7
0000109A  5247                     addq.w     D7, 1
0000109C  B647                     cmp.w      D3, D7
0000109E  6EDE                     bgt        -0x20 /* 0000107E */
000010A0  3006                     move.w     D0, D6
000010A2  5246                     addq.w     D6, 1
000010A4  B646                     cmp.w      D3, D6
000010A6  6ED4                     bgt        -0x2A /* 0000107C */
000010A8  6000 0562                bra        +0x564 /* 0000160C */
000010AC  204D                     movea.l    A0, A5
000010AE  D1FC FFFD AD20           add.l      A0, 0xFFFDAD20
000010B4  0210 00FD                andi.b     [A0], 0xFD
000010B8  4246                     clr.w      D6
label000010BA:
000010BA  4247                     clr.w      D7
label000010BC:
000010BC  2006                     move.l     D0, D6
000010BE  C1FC 00C0                muls.w     D0, 0xC0
000010C2  204D                     movea.l    A0, A5
000010C4  D1FC FFFE 42D4           add.l      A0, 0xFFFE42D4
000010CA  2207                     move.l     D1, D7
000010CC  D241                     add.w      D1, D1
000010CE  D240                     add.w      D1, D0
000010D0  7000                     moveq.l    D0, 0x00
000010D2  3030 1000                move.w     D0, [A0 + D1.w]
000010D6  323C 1000                move.w     D1, 0x1000
000010DA  C240                     and.w      D1, D0
000010DC  6700 018E                beq        +0x190 /* 0000126C */
000010E0  2006                     move.l     D0, D6
000010E2  C1FC 00C0                muls.w     D0, 0xC0
000010E6  204D                     movea.l    A0, A5
000010E8  D1FC FFFE 42D4           add.l      A0, 0xFFFE42D4
000010EE  2207                     move.l     D1, D7
000010F0  D241                     add.w      D1, D1
000010F2  D240                     add.w      D1, D0
000010F4  7000                     moveq.l    D0, 0x00
000010F6  3030 1000                move.w     D0, [A0 + D1.w]
000010FA  323C 2000                move.w     D1, 0x2000 /* ' \0' */
000010FE  C240                     and.w      D1, D0
00001100  6600 016A                bne        +0x16C /* 0000126C */
00001104  2006                     move.l     D0, D6
00001106  C1FC 00C0                muls.w     D0, 0xC0
0000110A  204D                     movea.l    A0, A5
0000110C  D1FC FFFE 42D4           add.l      A0, 0xFFFE42D4
00001112  2207                     move.l     D1, D7
00001114  D241                     add.w      D1, D1
00001116  D240                     add.w      D1, D0
00001118  7000                     moveq.l    D0, 0x00
0000111A  3030 1000                move.w     D0, [A0 + D1.w]
0000111E  323C 07FF                move.w     D1, 0x7FF
00001122  C240                     and.w      D1, D0
00001124  7000                     moveq.l    D0, 0x00
00001126  3001                     move.w     D0, D1
00001128  4A80                     tst.l      D0
0000112A  204D                     movea.l    A0, A5
0000112C  D1FC FFFF 79BC           add.l      A0, 0xFFFF79BC
00001132  3210                     move.w     D1, [A0]
00001134  48C1                     ext.l      D1
00001136  B280                     cmp.l      D1, D0
00001138  6E46                     bgt        +0x48 /* 00001180 */
0000113A  2006                     move.l     D0, D6
0000113C  C1FC 00C0                muls.w     D0, 0xC0
00001140  204D                     movea.l    A0, A5
00001142  D1FC FFFE 42D4           add.l      A0, 0xFFFE42D4
00001148  2207                     move.l     D1, D7
0000114A  D241                     add.w      D1, D1
0000114C  D240                     add.w      D1, D0
0000114E  7000                     moveq.l    D0, 0x00
00001150  3030 1000                move.w     D0, [A0 + D1.w]
00001154  323C 07FF                move.w     D1, 0x7FF
00001158  C240                     and.w      D1, D0
0000115A  7000                     moveq.l    D0, 0x00
0000115C  3001                     move.w     D0, D1
0000115E  4A80                     tst.l      D0
00001160  204D                     movea.l    A0, A5
00001162  D1FC FFFF 79BC           add.l      A0, 0xFFFF79BC
00001168  3210                     move.w     D1, [A0]
0000116A  48C1                     ext.l      D1
0000116C  7400                     moveq.l    D2, 0x00
0000116E  204D                     movea.l    A0, A5
00001170  D1FC FFFF 78DF           add.l      A0, 0xFFFF78DF
00001176  1410                     move.b     D2, [A0]
00001178  D481                     add.l      D2, D1
0000117A  B480                     cmp.l      D2, D0
0000117C  6E00 00D4                bgt        +0xD6 /* 00001252 */
label00001180:
00001180  2006                     move.l     D0, D6
00001182  C1FC 00C0                muls.w     D0, 0xC0
00001186  204D                     movea.l    A0, A5
00001188  D1FC FFFE 42D4           add.l      A0, 0xFFFE42D4
0000118E  2207                     move.l     D1, D7
00001190  D241                     add.w      D1, D1
00001192  D240                     add.w      D1, D0
00001194  7000                     moveq.l    D0, 0x00
00001196  3030 1000                move.w     D0, [A0 + D1.w]
0000119A  323C 07FF                move.w     D1, 0x7FF
0000119E  C240                     and.w      D1, D0
000011A0  7000                     moveq.l    D0, 0x00
000011A2  3001                     move.w     D0, D1
000011A4  4A80                     tst.l      D0
000011A6  204D                     movea.l    A0, A5
000011A8  D1FC FFFF 7A42           add.l      A0, 0xFFFF7A42
000011AE  3210                     move.w     D1, [A0]
000011B0  48C1                     ext.l      D1
000011B2  B280                     cmp.l      D1, D0
000011B4  6E44                     bgt        +0x46 /* 000011FA */
000011B6  2006                     move.l     D0, D6
000011B8  C1FC 00C0                muls.w     D0, 0xC0
000011BC  204D                     movea.l    A0, A5
000011BE  D1FC FFFE 42D4           add.l      A0, 0xFFFE42D4
000011C4  2207                     move.l     D1, D7
000011C6  D241                     add.w      D1, D1
000011C8  D240                     add.w      D1, D0
000011CA  7000                     moveq.l    D0, 0x00
000011CC  3030 1000                move.w     D0, [A0 + D1.w]
000011D0  323C 07FF                move.w     D1, 0x7FF
000011D4  C240                     and.w      D1, D0
000011D6  7000                     moveq.l    D0, 0x00
000011D8  3001                     move.w     D0, D1
000011DA  4A80                     tst.l      D0
000011DC  204D                     movea.l    A0, A5
000011DE  D1FC FFFF 7A42           add.l      A0, 0xFFFF7A42
000011E4  3210                     move.w     D1, [A0]
000011E6  48C1                     ext.l      D1
000011E8  7400                     moveq.l    D2, 0x00
000011EA  204D                     movea.l    A0, A5
000011EC  D1FC FFFF 7922           add.l      A0, 0xFFFF7922
000011F2  1410                     move.b     D2, [A0]
000011F4  D481                     add.l      D2, D1
000011F6  B480                     cmp.l      D2, D0
000011F8  6E58                     bgt        +0x5A /* 00001252 */
label000011FA:
000011FA  2006                     move.l     D0, D6
000011FC  C1FC 00C0                muls.w     D0, 0xC0
00001200  204D                     movea.l    A0, A5
00001202  D1FC FFFE 42D4           add.l      A0, 0xFFFE42D4
00001208  2207                     move.l     D1, D7
0000120A  D241                     add.w      D1, D1
0000120C  D240                     add.w      D1, D0
0000120E  7000                     moveq.l    D0, 0x00
00001210  3030 1000                move.w     D0, [A0 + D1.w]
00001214  323C F800                move.w     D1, 0xF800
00001218  C240                     and.w      D1, D0
0000121A  7000                     moveq.l    D0, 0x00
0000121C  3001                     move.w     D0, D1
0000121E  4A80                     tst.l      D0
00001220  204D                     movea.l    A0, A5
00001222  D1FC FFFF 7944           add.l      A0, 0xFFFF7944
00001228  3210                     move.w     D1, [A0]
0000122A  48C1                     ext.l      D1
0000122C  740F                     moveq.l    D2, 0x0F
0000122E  D282                     add.l      D1, D2
00001230  8280                     or.l       D1, D0
00001232  203C FFFF BFFF           move.l     D0, 0xFFFFBFFF
00001238  C081                     and.l      D0, D1
0000123A  2206                     move.l     D1, D6
0000123C  C3FC 00C0                muls.w     D1, 0xC0
00001240  204D                     movea.l    A0, A5
00001242  D1FC FFFE 42D4           add.l      A0, 0xFFFE42D4
00001248  2607                     move.l     D3, D7
0000124A  D643                     add.w      D3, D3
0000124C  D641                     add.w      D3, D1
0000124E  3180 3000                move.w     [A0 + D3.w], D0
label00001252:
00001252  2006                     move.l     D0, D6
00001254  C1FC 00C0                muls.w     D0, 0xC0
00001258  204D                     movea.l    A0, A5
0000125A  D1FC FFFE 42D4           add.l      A0, 0xFFFE42D4
00001260  2207                     move.l     D1, D7
00001262  D241                     add.w      D1, D1
00001264  D240                     add.w      D1, D0
00001266  0070 2000 1000           ori.w      [A0 + D1.w], 0x2000 /* ' \0' */
label0000126C:
0000126C  3007                     move.w     D0, D7
0000126E  5247                     addq.w     D7, 1
00001270  0C47 0060                cmpi.w     D7, 0x60 /* '`' */
00001274  6D00 FE46                blt        -0x1B8 /* 000010BC */
00001278  3006                     move.w     D0, D6
0000127A  5246                     addq.w     D6, 1
0000127C  0C46 0060                cmpi.w     D6, 0x60 /* '`' */
00001280  6D00 FE38                blt        -0x1C6 /* 000010BA */
00001284  204D                     movea.l    A0, A5
00001286  D1FC FFFF 720C           add.l      A0, 0xFFFF720C
0000128C  2050                     movea.l    A0, [A0]
0000128E  2D48 FEEC                move.l     [A6 - 0x114], A0
00001292  2F28 00B4                move.l     -[A7], [A0 + 0xB4]
00001296  7003                     moveq.l    D0, 0x03
00001298  3F00                     move.w     -[A7], D0
0000129A  7200                     moveq.l    D1, 0x00
0000129C  3F01                     move.w     -[A7], D1
0000129E  A944                     syscall    SetItmMark
000012A0  4EAD 089A                jsr        [A5 + 0x89A /* export_271, CODE:15 @ 00000A94 */]
000012A4  486E FF00                pea.l      [A6 - 0x100]
000012A8  703A                     moveq.l    D0, 0x3A
000012AA  2F00                     move.l     -[A7], D0
000012AC  204D                     movea.l    A0, A5
000012AE  D1FC FFFD ACC2           add.l      A0, 0xFFFDACC2
000012B4  4850                     pea.l      [A0]
000012B6  4EBA 1F64                jsr        [PC + 0x1F64 /* 0000321C */]
000012BA  204D                     movea.l    A0, A5
000012BC  D1FC FFFE BED6           add.l      A0, 0xFFFEBED6
000012C2  4A10                     tst.b      [A0]
000012C4  4FEF 000C                lea.l      A7, [A7 + 0xC]
000012C8  6700 0342                beq        +0x344 /* 0000160C */
000012CC  7001                     moveq.l    D0, 0x01
000012CE  2F00                     move.l     -[A7], D0
000012D0  7200                     moveq.l    D1, 0x00
000012D2  2F01                     move.l     -[A7], D1
000012D4  4878 0096                push.l     0x96
000012D8  4878 00C0                push.l     0xC0
000012DC  2F01                     move.l     -[A7], D1
000012DE  2F00                     move.l     -[A7], D0
000012E0  703A                     moveq.l    D0, 0x3A
000012E2  2F00                     move.l     -[A7], D0
000012E4  486E FF00                pea.l      [A6 - 0x100]
000012E8  4EAD 0862                jsr        [A5 + 0x862 /* export_264, CODE:14 @ 000059C4 */]
000012EC  4FEF 0020                lea.l      A7, [A7 + 0x20]
000012F0  6000 031A                bra        +0x31C /* 0000160C */
000012F4  204D                     movea.l    A0, A5
000012F6  D1FC FFFD AD20           add.l      A0, 0xFFFDAD20
000012FC  0210 00FB                andi.b     [A0], 0xFB
00001300  4246                     clr.w      D6
label00001302:
00001302  4247                     clr.w      D7
label00001304:
00001304  2006                     move.l     D0, D6
00001306  C1FC 00C0                muls.w     D0, 0xC0
0000130A  204D                     movea.l    A0, A5
0000130C  D1FC FFFE 42D4           add.l      A0, 0xFFFE42D4
00001312  2207                     move.l     D1, D7
00001314  D241                     add.w      D1, D1
00001316  D240                     add.w      D1, D0
00001318  7000                     moveq.l    D0, 0x00
0000131A  3030 1000                move.w     D0, [A0 + D1.w]
0000131E  323C 1000                move.w     D1, 0x1000
00001322  C240                     and.w      D1, D0
00001324  6600 0178                bne        +0x17A /* 0000149E */
00001328  2006                     move.l     D0, D6
0000132A  C1FC 00C0                muls.w     D0, 0xC0
0000132E  204D                     movea.l    A0, A5
00001330  D1FC FFFE 42D4           add.l      A0, 0xFFFE42D4
00001336  2207                     move.l     D1, D7
00001338  D241                     add.w      D1, D1
0000133A  D240                     add.w      D1, D0
0000133C  7000                     moveq.l    D0, 0x00
0000133E  3030 1000                move.w     D0, [A0 + D1.w]
00001342  323C 2000                move.w     D1, 0x2000 /* ' \0' */
00001346  C240                     and.w      D1, D0
00001348  6700 0154                beq        +0x156 /* 0000149E */
0000134C  2006                     move.l     D0, D6
0000134E  C1FC 00C0                muls.w     D0, 0xC0
00001352  204D                     movea.l    A0, A5
00001354  D1FC FFFE 42D4           add.l      A0, 0xFFFE42D4
0000135A  2207                     move.l     D1, D7
0000135C  D241                     add.w      D1, D1
0000135E  D240                     add.w      D1, D0
00001360  7000                     moveq.l    D0, 0x00
00001362  3030 1000                move.w     D0, [A0 + D1.w]
00001366  323C 07FF                move.w     D1, 0x7FF
0000136A  C240                     and.w      D1, D0
0000136C  7000                     moveq.l    D0, 0x00
0000136E  3001                     move.w     D0, D1
00001370  4A80                     tst.l      D0
00001372  204D                     movea.l    A0, A5
00001374  D1FC FFFF 79BC           add.l      A0, 0xFFFF79BC
0000137A  3210                     move.w     D1, [A0]
0000137C  48C1                     ext.l      D1
0000137E  B280                     cmp.l      D1, D0
00001380  6E46                     bgt        +0x48 /* 000013C8 */
00001382  2006                     move.l     D0, D6
00001384  C1FC 00C0                muls.w     D0, 0xC0
00001388  204D                     movea.l    A0, A5
0000138A  D1FC FFFE 42D4           add.l      A0, 0xFFFE42D4
00001390  2207                     move.l     D1, D7
00001392  D241                     add.w      D1, D1
00001394  D240                     add.w      D1, D0
00001396  7000                     moveq.l    D0, 0x00
00001398  3030 1000                move.w     D0, [A0 + D1.w]
0000139C  323C 07FF                move.w     D1, 0x7FF
000013A0  C240                     and.w      D1, D0
000013A2  7000                     moveq.l    D0, 0x00
000013A4  3001                     move.w     D0, D1
000013A6  4A80                     tst.l      D0
000013A8  204D                     movea.l    A0, A5
000013AA  D1FC FFFF 79BC           add.l      A0, 0xFFFF79BC
000013B0  3210                     move.w     D1, [A0]
000013B2  48C1                     ext.l      D1
000013B4  7400                     moveq.l    D2, 0x00
000013B6  204D                     movea.l    A0, A5
000013B8  D1FC FFFF 78DF           add.l      A0, 0xFFFF78DF
000013BE  1410                     move.b     D2, [A0]
000013C0  D481                     add.l      D2, D1
000013C2  B480                     cmp.l      D2, D0
000013C4  6E00 00A4                bgt        +0xA6 /* 0000146A */
label000013C8:
000013C8  2006                     move.l     D0, D6
000013CA  C1FC 00C0                muls.w     D0, 0xC0
000013CE  204D                     movea.l    A0, A5
000013D0  D1FC FFFE 42D4           add.l      A0, 0xFFFE42D4
000013D6  2207                     move.l     D1, D7
000013D8  D241                     add.w      D1, D1
000013DA  D240                     add.w      D1, D0
000013DC  7000                     moveq.l    D0, 0x00
000013DE  3030 1000                move.w     D0, [A0 + D1.w]
000013E2  323C 07FF                move.w     D1, 0x7FF
000013E6  C240                     and.w      D1, D0
000013E8  7000                     moveq.l    D0, 0x00
000013EA  3001                     move.w     D0, D1
000013EC  4A80                     tst.l      D0
000013EE  204D                     movea.l    A0, A5
000013F0  D1FC FFFF 7A42           add.l      A0, 0xFFFF7A42
000013F6  3210                     move.w     D1, [A0]
000013F8  48C1                     ext.l      D1
000013FA  B280                     cmp.l      D1, D0
000013FC  6E44                     bgt        +0x46 /* 00001442 */
000013FE  2006                     move.l     D0, D6
00001400  C1FC 00C0                muls.w     D0, 0xC0
00001404  204D                     movea.l    A0, A5
00001406  D1FC FFFE 42D4           add.l      A0, 0xFFFE42D4
0000140C  2207                     move.l     D1, D7
0000140E  D241                     add.w      D1, D1
00001410  D240                     add.w      D1, D0
00001412  7000                     moveq.l    D0, 0x00
00001414  3030 1000                move.w     D0, [A0 + D1.w]
00001418  323C 07FF                move.w     D1, 0x7FF
0000141C  C240                     and.w      D1, D0
0000141E  7000                     moveq.l    D0, 0x00
00001420  3001                     move.w     D0, D1
00001422  4A80                     tst.l      D0
00001424  204D                     movea.l    A0, A5
00001426  D1FC FFFF 7A42           add.l      A0, 0xFFFF7A42
0000142C  3210                     move.w     D1, [A0]
0000142E  48C1                     ext.l      D1
00001430  7400                     moveq.l    D2, 0x00
00001432  204D                     movea.l    A0, A5
00001434  D1FC FFFF 7922           add.l      A0, 0xFFFF7922
0000143A  1410                     move.b     D2, [A0]
0000143C  D481                     add.l      D2, D1
0000143E  B480                     cmp.l      D2, D0
00001440  6E28                     bgt        +0x2A /* 0000146A */
label00001442:
00001442  204D                     movea.l    A0, A5
00001444  D1FC FFFF 7942           add.l      A0, 0xFFFF7942
0000144A  3010                     move.w     D0, [A0]
0000144C  48C0                     ext.l      D0
0000144E  720D                     moveq.l    D1, 0x0D
00001450  D081                     add.l      D0, D1
00001452  2406                     move.l     D2, D6
00001454  C5FC 00C0                muls.w     D2, 0xC0
00001458  204D                     movea.l    A0, A5
0000145A  D1FC FFFE 42D4           add.l      A0, 0xFFFE42D4
00001460  2607                     move.l     D3, D7
00001462  D643                     add.w      D3, D3
00001464  D642                     add.w      D3, D2
00001466  3180 3000                move.w     [A0 + D3.w], D0
label0000146A:
0000146A  2006                     move.l     D0, D6
0000146C  C1FC 00C0                muls.w     D0, 0xC0
00001470  204D                     movea.l    A0, A5
00001472  D1FC FFFE 42D4           add.l      A0, 0xFFFE42D4
00001478  2207                     move.l     D1, D7
0000147A  D241                     add.w      D1, D1
0000147C  D240                     add.w      D1, D0
0000147E  0270 DFFF 1000           andi.w     [A0 + D1.w], 0xDFFF
00001484  2006                     move.l     D0, D6
00001486  C1FC 00C0                muls.w     D0, 0xC0
0000148A  204D                     movea.l    A0, A5
0000148C  D1FC FFFE 42D4           add.l      A0, 0xFFFE42D4
00001492  2207                     move.l     D1, D7
00001494  D241                     add.w      D1, D1
00001496  D240                     add.w      D1, D0
00001498  0270 BFFF 1000           andi.w     [A0 + D1.w], 0xBFFF
label0000149E:
0000149E  3007                     move.w     D0, D7
000014A0  5247                     addq.w     D7, 1
000014A2  0C47 0060                cmpi.w     D7, 0x60 /* '`' */
000014A6  6D00 FE5C                blt        -0x1A2 /* 00001304 */
000014AA  3006                     move.w     D0, D6
000014AC  5246                     addq.w     D6, 1
000014AE  0C46 0060                cmpi.w     D6, 0x60 /* '`' */
000014B2  6D00 FE4E                blt        -0x1B0 /* 00001302 */
000014B6  204D                     movea.l    A0, A5
000014B8  D1FC FFFF 720C           add.l      A0, 0xFFFF720C
000014BE  2050                     movea.l    A0, [A0]
000014C0  2D48 FEF0                move.l     [A6 - 0x110], A0
000014C4  2F28 00B4                move.l     -[A7], [A0 + 0xB4]
000014C8  7004                     moveq.l    D0, 0x04
000014CA  3F00                     move.w     -[A7], D0
000014CC  7200                     moveq.l    D1, 0x00
000014CE  3F01                     move.w     -[A7], D1
000014D0  A944                     syscall    SetItmMark
000014D2  4EAD 089A                jsr        [A5 + 0x89A /* export_271, CODE:15 @ 00000A94 */]
000014D6  486E FF00                pea.l      [A6 - 0x100]
000014DA  7038                     moveq.l    D0, 0x38
000014DC  2F00                     move.l     -[A7], D0
000014DE  204D                     movea.l    A0, A5
000014E0  D1FC FFFD ACCE           add.l      A0, 0xFFFDACCE
000014E6  4850                     pea.l      [A0]
000014E8  4EBA 1D32                jsr        [PC + 0x1D32 /* 0000321C */]
000014EC  204D                     movea.l    A0, A5
000014EE  D1FC FFFE BED6           add.l      A0, 0xFFFEBED6
000014F4  4A10                     tst.b      [A0]
000014F6  4FEF 000C                lea.l      A7, [A7 + 0xC]
000014FA  6724                     beq        +0x26 /* 00001520 */
000014FC  7001                     moveq.l    D0, 0x01
000014FE  2F00                     move.l     -[A7], D0
00001500  7200                     moveq.l    D1, 0x00
00001502  2F01                     move.l     -[A7], D1
00001504  4878 0096                push.l     0x96
00001508  4878 00C0                push.l     0xC0
0000150C  2F01                     move.l     -[A7], D1
0000150E  2F00                     move.l     -[A7], D0
00001510  703E                     moveq.l    D0, 0x3E
00001512  2F00                     move.l     -[A7], D0
00001514  486E FF00                pea.l      [A6 - 0x100]
00001518  4EAD 0862                jsr        [A5 + 0x862 /* export_264, CODE:14 @ 000059C4 */]
0000151C  4FEF 0020                lea.l      A7, [A7 + 0x20]
label00001520:
00001520  204D                     movea.l    A0, A5
00001522  D1FC FFFD AD1E           add.l      A0, 0xFFFDAD1E
00001528  10BC FFF8                move.b     [A0], 0xF8
0000152C  204D                     movea.l    A0, A5
0000152E  D1FC FFFD AD24           add.l      A0, 0xFFFDAD24
00001534  4210                     clr.b      [A0]
00001536  204D                     movea.l    A0, A5
00001538  D1FC FFFF 720C           add.l      A0, 0xFFFF720C
0000153E  2050                     movea.l    A0, [A0]
00001540  2D48 FEF4                move.l     [A6 - 0x10C], A0
00001544  2668 00C8                movea.l    A3, [A0 + 0xC8]
00001548  206B 0084                movea.l    A0, [A3 + 0x84]
0000154C  7000                     moveq.l    D0, 0x00
0000154E  1028 006E                move.b     D0, [A0 + 0x6E]
00001552  0C40 0001                cmpi.w     D0, 0x1
00001556  57C3                     seq        D3
00001558  4403                     neg.b      D3
0000155A  6716                     beq        +0x18 /* 00001572 */
0000155C  286B 016C                movea.l    A4, [A3 + 0x16C]
00001560  422C 0132                clr.b      [A4 + 0x132]
00001564  2F0C                     move.l     -[A7], A4
00001566  4EAD 1F52                jsr        [A5 + 0x1F52 /* export_998, CODE:37 @ 000014C8 */]
0000156A  7000                     moveq.l    D0, 0x00
0000156C  584F                     addq.w     A7, 4
0000156E  6000 009C                bra        +0x9E /* 0000160C */
label00001572:
00001572  7000                     moveq.l    D0, 0x00
00001574  6000 0096                bra        +0x98 /* 0000160C */
00001578  204D                     movea.l    A0, A5
0000157A  D1FC FFFD AD20           add.l      A0, 0xFFFDAD20
00001580  0210 00DF                andi.b     [A0], 0xDF
00001584  204D                     movea.l    A0, A5
00001586  D1FC FFFF 720C           add.l      A0, 0xFFFF720C
0000158C  2050                     movea.l    A0, [A0]
0000158E  2D48 FEF8                move.l     [A6 - 0x108], A0
00001592  2F28 00B4                move.l     -[A7], [A0 + 0xB4]
00001596  7002                     moveq.l    D0, 0x02
00001598  3F00                     move.w     -[A7], D0
0000159A  7200                     moveq.l    D1, 0x00
0000159C  3F01                     move.w     -[A7], D1
0000159E  A944                     syscall    SetItmMark
000015A0  204D                     movea.l    A0, A5
000015A2  D1FC FFFF 720C           add.l      A0, 0xFFFF720C
000015A8  2050                     movea.l    A0, [A0]
000015AA  2D48 FEFC                move.l     [A6 - 0x104], A0
000015AE  2668 00C8                movea.l    A3, [A0 + 0xC8]
000015B2  206B 0084                movea.l    A0, [A3 + 0x84]
000015B6  7000                     moveq.l    D0, 0x00
000015B8  1028 006E                move.b     D0, [A0 + 0x6E]
000015BC  0C40 0001                cmpi.w     D0, 0x1
000015C0  57C3                     seq        D3
000015C2  4403                     neg.b      D3
000015C4  6714                     beq        +0x16 /* 000015DA */
000015C6  286B 016C                movea.l    A4, [A3 + 0x16C]
000015CA  422C 0132                clr.b      [A4 + 0x132]
000015CE  2F0C                     move.l     -[A7], A4
000015D0  4EAD 1F52                jsr        [A5 + 0x1F52 /* export_998, CODE:37 @ 000014C8 */]
000015D4  7000                     moveq.l    D0, 0x00
000015D6  584F                     addq.w     A7, 4
000015D8  6002                     bra        +0x4 /* 000015DC */
label000015DA:
000015DA  7000                     moveq.l    D0, 0x00
label000015DC:
000015DC  4246                     clr.w      D6
000015DE  7660                     moveq.l    D3, 0x60
label000015E0:
000015E0  4247                     clr.w      D7
label000015E2:
000015E2  2006                     move.l     D0, D6
000015E4  C1FC 00C0                muls.w     D0, 0xC0
000015E8  204D                     movea.l    A0, A5
000015EA  D1FC FFFE 42D4           add.l      A0, 0xFFFE42D4
000015F0  2207                     move.l     D1, D7
000015F2  D241                     add.w      D1, D1
000015F4  D240                     add.w      D1, D0
000015F6  0270 BFFF 1000           andi.w     [A0 + D1.w], 0xBFFF
000015FC  3007                     move.w     D0, D7
000015FE  5247                     addq.w     D7, 1
00001600  B647                     cmp.w      D3, D7
00001602  6EDE                     bgt        -0x20 /* 000015E2 */
00001604  3006                     move.w     D0, D6
00001606  5246                     addq.w     D6, 1
00001608  B646                     cmp.w      D3, D6
0000160A  6ED4                     bgt        -0x2A /* 000015E0 */
label0000160C:
0000160C  7001                     moveq.l    D0, 0x01
label0000160E:
0000160E  4CEE 18C8 FED4           movem.l    D3,D6,D7,A3,A4, [A6 - 0x12C]
00001614  4E5E                     unlink     A6
00001616  4E75                     rts
00001618  906B 696C 6C64 6973 6... dc.b       "killdisaster__Fc"
export_102:
0000162C  4E56 FFEC                link       A6, -0x0014
00001630  48E7 1318                movem.l    -[A7], D3,D6,D7,A3,A4
00001634  7000                     moveq.l    D0, 0x00
00001636  204D                     movea.l    A0, A5
00001638  D1FC FFFD AD20           add.l      A0, 0xFFFDAD20
0000163E  1010                     move.b     D0, [A0]
00001640  7210                     moveq.l    D1, 0x10
00001642  C200                     and.b      D1, D0
00001644  6716                     beq        +0x18 /* 0000165C */
00001646  204D                     movea.l    A0, A5
00001648  D1FC FFFE D640           add.l      A0, 0xFFFED640
0000164E  4A10                     tst.b      [A0]
00001650  660A                     bne        +0xC /* 0000165C */
00001652  7005                     moveq.l    D0, 0x05
00001654  2F00                     move.l     -[A7], D0
00001656  4EBA F85A                jsr        [PC - 0x7A6 /* 00000EB2 */]
0000165A  584F                     addq.w     A7, 4
label0000165C:
0000165C  7000                     moveq.l    D0, 0x00
0000165E  204D                     movea.l    A0, A5
00001660  D1FC FFFD AD20           add.l      A0, 0xFFFDAD20
00001666  1010                     move.b     D0, [A0]
00001668  7240                     moveq.l    D1, 0x40
0000166A  C200                     and.b      D1, D0
0000166C  670A                     beq        +0xC /* 00001678 */
0000166E  7007                     moveq.l    D0, 0x07
00001670  2F00                     move.l     -[A7], D0
00001672  4EBA F83E                jsr        [PC - 0x7C2 /* 00000EB2 */]
00001676  584F                     addq.w     A7, 4
label00001678:
00001678  7000                     moveq.l    D0, 0x00
0000167A  204D                     movea.l    A0, A5
0000167C  D1FC FFFD AD20           add.l      A0, 0xFFFDAD20
00001682  1010                     move.b     D0, [A0]
00001684  7208                     moveq.l    D1, 0x08
00001686  C200                     and.b      D1, D0
00001688  6700 009A                beq        +0x9C /* 00001724 */
0000168C  204D                     movea.l    A0, A5
0000168E  D1FC FFFD CEBE           add.l      A0, 0xFFFDCEBE
00001694  2010                     move.l     D0, [A0]
00001696  204D                     movea.l    A0, A5
00001698  D1FC FFFD CE1A           add.l      A0, 0xFFFDCE1A
0000169E  9090                     sub.l      D0, [A0]
000016A0  204D                     movea.l    A0, A5
000016A2  D1FC FFFD CE4A           add.l      A0, 0xFFFDCE4A
000016A8  B090                     cmp.l      D0, [A0]
000016AA  6378                     bls        +0x7A /* 00001724 */
000016AC  4246                     clr.w      D6
000016AE  7E01                     moveq.l    D7, 0x01
000016B0  6066                     bra        +0x68 /* 00001718 */
label000016B2:
000016B2  2007                     move.l     D0, D7
000016B4  C1FC 0044                muls.w     D0, 0x44 /* 'D' */
000016B8  204D                     movea.l    A0, A5
000016BA  D1FC FFFD AFAE           add.l      A0, 0xFFFDAFAE
000016C0  323C 0100                move.w     D1, 0x100
000016C4  C270 0006                and.w      D1, [A0 + D0.w + 0x6]
000016C8  674A                     beq        +0x4C /* 00001714 */
000016CA  48C7                     ext.l      D7
000016CC  2F07                     move.l     -[A7], D7
000016CE  4EAD 08CA                jsr        [A5 + 0x8CA /* export_277, CODE:15 @ 00002526 */]
000016D2  2207                     move.l     D1, D7
000016D4  C3FC 0044                muls.w     D1, 0x44 /* 'D' */
000016D8  204D                     movea.l    A0, A5
000016DA  D1FC FFFD AFAE           add.l      A0, 0xFFFDAFAE
000016E0  1180 1039                move.b     [A0 + D1.w + 0x39], D0
000016E4  2007                     move.l     D0, D7
000016E6  C1FC 0044                muls.w     D0, 0x44 /* 'D' */
000016EA  204D                     movea.l    A0, A5
000016EC  D1FC FFFD AFAE           add.l      A0, 0xFFFDAFAE
000016F2  7208                     moveq.l    D1, 0x08
000016F4  B230 0039                cmp.b      D1, [A0 + D0.w + 0x39]
000016F8  584F                     addq.w     A7, 4
000016FA  6F14                     ble        +0x16 /* 00001710 */
000016FC  7001                     moveq.l    D0, 0x01
000016FE  2F00                     move.l     -[A7], D0
00001700  48C7                     ext.l      D7
00001702  2F07                     move.l     -[A7], D7
00001704  720D                     moveq.l    D1, 0x0D
00001706  2F01                     move.l     -[A7], D1
00001708  4EAD 0532                jsr        [A5 + 0x532 /* export_162, CODE:9 @ 0000465E */]
0000170C  4FEF 000C                lea.l      A7, [A7 + 0xC]
label00001710:
00001710  3007                     move.w     D0, D7
00001712  5247                     addq.w     D7, 1
label00001714:
00001714  3006                     move.w     D0, D6
00001716  5246                     addq.w     D6, 1
label00001718:
00001718  204D                     movea.l    A0, A5
0000171A  D1FC FFFD AFAC           add.l      A0, 0xFFFDAFAC
00001720  BC50                     cmp.w      D6, [A0]
00001722  6D8E                     blt        -0x70 /* 000016B2 */
label00001724:
00001724  7000                     moveq.l    D0, 0x00
00001726  204D                     movea.l    A0, A5
00001728  D1FC FFFD AD20           add.l      A0, 0xFFFDAD20
0000172E  1010                     move.b     D0, [A0]
00001730  7220                     moveq.l    D1, 0x20
00001732  C200                     and.b      D1, D0
00001734  6700 03F2                beq        +0x3F4 /* 00001B28 */
00001738  204D                     movea.l    A0, A5
0000173A  D1FC FFFD ACF2           add.l      A0, 0xFFFDACF2
00001740  4A10                     tst.b      [A0]
00001742  671C                     beq        +0x1E /* 00001760 */
00001744  204D                     movea.l    A0, A5
00001746  D1FC FFFD ACF2           add.l      A0, 0xFFFDACF2
0000174C  4210                     clr.b      [A0]
0000174E  204D                     movea.l    A0, A5
00001750  D1FC FFFD CEBE           add.l      A0, 0xFFFDCEBE
00001756  224D                     movea.l    A1, A5
00001758  D3FC FFFD CE26           add.l      A1, 0xFFFDCE26
0000175E  2290                     move.l     [A1], [A0]
label00001760:
00001760  204D                     movea.l    A0, A5
00001762  D1FC FFFD CEBE           add.l      A0, 0xFFFDCEBE
00001768  2010                     move.l     D0, [A0]
0000176A  204D                     movea.l    A0, A5
0000176C  D1FC FFFD CE2A           add.l      A0, 0xFFFDCE2A
00001772  9090                     sub.l      D0, [A0]
00001774  204D                     movea.l    A0, A5
00001776  D1FC FFFD CE22           add.l      A0, 0xFFFDCE22
0000177C  B090                     cmp.l      D0, [A0]
0000177E  6300 03A8                bls        +0x3AA /* 00001B28 */
00001782  204D                     movea.l    A0, A5
00001784  D1FC FFFD AD0C           add.l      A0, 0xFFFDAD0C
0000178A  1010                     move.b     D0, [A0]
0000178C  5210                     addq.b     [A0], 1
0000178E  7003                     moveq.l    D0, 0x03
00001790  204D                     movea.l    A0, A5
00001792  D1FC FFFD AD0C           add.l      A0, 0xFFFDAD0C
00001798  B010                     cmp.b      D0, [A0]
0000179A  6C00 02A6                bge        +0x2A8 /* 00001A42 */
0000179E  204D                     movea.l    A0, A5
000017A0  D1FC FFFD AD0C           add.l      A0, 0xFFFDAD0C
000017A6  4210                     clr.b      [A0]
000017A8  204D                     movea.l    A0, A5
000017AA  D1FC FFFD AD0A           add.l      A0, 0xFFFDAD0A
000017B0  224D                     movea.l    A1, A5
000017B2  D3FC FFFD AD02           add.l      A1, 0xFFFDAD02
000017B8  3290                     move.w     [A1], [A0]
000017BA  204D                     movea.l    A0, A5
000017BC  D1FC FFFD AD08           add.l      A0, 0xFFFDAD08
000017C2  224D                     movea.l    A1, A5
000017C4  D3FC FFFD AD00           add.l      A1, 0xFFFDAD00
000017CA  3290                     move.w     [A1], [A0]
000017CC  204D                     movea.l    A0, A5
000017CE  D1FC FFFD AD08           add.l      A0, 0xFFFDAD08
000017D4  3010                     move.w     D0, [A0]
000017D6  5440                     addq.w     D0, 2
000017D8  48C0                     ext.l      D0
000017DA  2F00                     move.l     -[A7], D0
000017DC  204D                     movea.l    A0, A5
000017DE  D1FC FFFD AD0A           add.l      A0, 0xFFFDAD0A
000017E4  3010                     move.w     D0, [A0]
000017E6  5240                     addq.w     D0, 1
000017E8  48C0                     ext.l      D0
000017EA  2F00                     move.l     -[A7], D0
000017EC  4EAD 02D2                jsr        [A5 + 0x2D2 /* export_86, CODE:3 @ 000039E0 */]
000017F0  204D                     movea.l    A0, A5
000017F2  D1FC FFFD AD08           add.l      A0, 0xFFFDAD08
000017F8  3010                     move.w     D0, [A0]
000017FA  5440                     addq.w     D0, 2
000017FC  48C0                     ext.l      D0
000017FE  2F00                     move.l     -[A7], D0
00001800  204D                     movea.l    A0, A5
00001802  D1FC FFFD AD0A           add.l      A0, 0xFFFDAD0A
00001808  3010                     move.w     D0, [A0]
0000180A  5440                     addq.w     D0, 2
0000180C  48C0                     ext.l      D0
0000180E  2F00                     move.l     -[A7], D0
00001810  4EAD 02D2                jsr        [A5 + 0x2D2 /* export_86, CODE:3 @ 000039E0 */]
00001814  204D                     movea.l    A0, A5
00001816  D1FC FFFD AD08           add.l      A0, 0xFFFDAD08
0000181C  3010                     move.w     D0, [A0]
0000181E  5240                     addq.w     D0, 1
00001820  48C0                     ext.l      D0
00001822  2F00                     move.l     -[A7], D0
00001824  204D                     movea.l    A0, A5
00001826  D1FC FFFD AD0A           add.l      A0, 0xFFFDAD0A
0000182C  3010                     move.w     D0, [A0]
0000182E  5240                     addq.w     D0, 1
00001830  48C0                     ext.l      D0
00001832  2F00                     move.l     -[A7], D0
00001834  4EAD 02D2                jsr        [A5 + 0x2D2 /* export_86, CODE:3 @ 000039E0 */]
00001838  204D                     movea.l    A0, A5
0000183A  D1FC FFFD AD08           add.l      A0, 0xFFFDAD08
00001840  3010                     move.w     D0, [A0]
00001842  5240                     addq.w     D0, 1
00001844  48C0                     ext.l      D0
00001846  2F00                     move.l     -[A7], D0
00001848  204D                     movea.l    A0, A5
0000184A  D1FC FFFD AD0A           add.l      A0, 0xFFFDAD0A
00001850  3010                     move.w     D0, [A0]
00001852  48C0                     ext.l      D0
00001854  2F00                     move.l     -[A7], D0
00001856  4EAD 02D2                jsr        [A5 + 0x2D2 /* export_86, CODE:3 @ 000039E0 */]
0000185A  204D                     movea.l    A0, A5
0000185C  D1FC FFFD AD0A           add.l      A0, 0xFFFDAD0A
00001862  224D                     movea.l    A1, A5
00001864  D3FC FFFD AD02           add.l      A1, 0xFFFDAD02
0000186A  3290                     move.w     [A1], [A0]
0000186C  204D                     movea.l    A0, A5
0000186E  D1FC FFFD AD08           add.l      A0, 0xFFFDAD08
00001874  224D                     movea.l    A1, A5
00001876  D3FC FFFD AD00           add.l      A1, 0xFFFDAD00
0000187C  3290                     move.w     [A1], [A0]
0000187E  558F                     subq.l     A7, 2
00001880  A861                     syscall    Random
00001882  7001                     moveq.l    D0, 0x01
00001884  C05F                     and.w      D0, [A7]+
00001886  204D                     movea.l    A0, A5
00001888  D1FC FFFD AD06           add.l      A0, 0xFFFDAD06
0000188E  1080                     move.b     [A0], D0
00001890  204D                     movea.l    A0, A5
00001892  D1FC FFFD AD06           add.l      A0, 0xFFFDAD06
00001898  4A10                     tst.b      [A0]
0000189A  4FEF 0020                lea.l      A7, [A7 + 0x20]
0000189E  660C                     bne        +0xE /* 000018AC */
000018A0  204D                     movea.l    A0, A5
000018A2  D1FC FFFD AD06           add.l      A0, 0xFFFDAD06
000018A8  10BC FFFF                move.b     [A0], 0xFF
label000018AC:
000018AC  558F                     subq.l     A7, 2
000018AE  A861                     syscall    Random
000018B0  7001                     moveq.l    D0, 0x01
000018B2  C05F                     and.w      D0, [A7]+
000018B4  204D                     movea.l    A0, A5
000018B6  D1FC FFFD AD04           add.l      A0, 0xFFFDAD04
000018BC  1080                     move.b     [A0], D0
000018BE  204D                     movea.l    A0, A5
000018C0  D1FC FFFD AD04           add.l      A0, 0xFFFDAD04
000018C6  4A10                     tst.b      [A0]
000018C8  660C                     bne        +0xE /* 000018D6 */
000018CA  204D                     movea.l    A0, A5
000018CC  D1FC FFFD AD04           add.l      A0, 0xFFFDAD04
000018D2  10BC FFFF                move.b     [A0], 0xFF
label000018D6:
000018D6  204D                     movea.l    A0, A5
000018D8  D1FC FFFD AD06           add.l      A0, 0xFFFDAD06
000018DE  1010                     move.b     D0, [A0]
000018E0  4880                     ext.w      D0
000018E2  204D                     movea.l    A0, A5
000018E4  D1FC FFFD AD0A           add.l      A0, 0xFFFDAD0A
000018EA  D150                     add.w      [A0], D0
000018EC  204D                     movea.l    A0, A5
000018EE  D1FC FFFD AD04           add.l      A0, 0xFFFDAD04
000018F4  1010                     move.b     D0, [A0]
000018F6  4880                     ext.w      D0
000018F8  204D                     movea.l    A0, A5
000018FA  D1FC FFFD AD08           add.l      A0, 0xFFFDAD08
00001900  D150                     add.w      [A0], D0
00001902  204D                     movea.l    A0, A5
00001904  D1FC FFFD AD0E           add.l      A0, 0xFFFDAD0E
0000190A  3010                     move.w     D0, [A0]
0000190C  C1FC 0044                muls.w     D0, 0x44 /* 'D' */
00001910  204D                     movea.l    A0, A5
00001912  D1FC FFFD AFAE           add.l      A0, 0xFFFDAFAE
00001918  1030 000A                move.b     D0, [A0 + D0.w + 0xA]
0000191C  4880                     ext.w      D0
0000191E  5A40                     addq.w     D0, 5
00001920  204D                     movea.l    A0, A5
00001922  D1FC FFFD AD0A           add.l      A0, 0xFFFDAD0A
00001928  B050                     cmp.w      D0, [A0]
0000192A  6C28                     bge        +0x2A /* 00001954 */
0000192C  204D                     movea.l    A0, A5
0000192E  D1FC FFFD AD0E           add.l      A0, 0xFFFDAD0E
00001934  3010                     move.w     D0, [A0]
00001936  C1FC 0044                muls.w     D0, 0x44 /* 'D' */
0000193A  204D                     movea.l    A0, A5
0000193C  D1FC FFFD AFAE           add.l      A0, 0xFFFDAFAE
00001942  1030 000A                move.b     D0, [A0 + D0.w + 0xA]
00001946  4880                     ext.w      D0
00001948  5A40                     addq.w     D0, 5
0000194A  204D                     movea.l    A0, A5
0000194C  D1FC FFFD AD0A           add.l      A0, 0xFFFDAD0A
00001952  3080                     move.w     [A0], D0
label00001954:
00001954  204D                     movea.l    A0, A5
00001956  D1FC FFFD AD0E           add.l      A0, 0xFFFDAD0E
0000195C  3010                     move.w     D0, [A0]
0000195E  C1FC 0044                muls.w     D0, 0x44 /* 'D' */
00001962  204D                     movea.l    A0, A5
00001964  D1FC FFFD AFAE           add.l      A0, 0xFFFDAFAE
0000196A  1030 000A                move.b     D0, [A0 + D0.w + 0xA]
0000196E  4880                     ext.w      D0
00001970  204D                     movea.l    A0, A5
00001972  D1FC FFFD AD0A           add.l      A0, 0xFFFDAD0A
00001978  B050                     cmp.w      D0, [A0]
0000197A  6F26                     ble        +0x28 /* 000019A2 */
0000197C  204D                     movea.l    A0, A5
0000197E  D1FC FFFD AD0E           add.l      A0, 0xFFFDAD0E
00001984  3010                     move.w     D0, [A0]
00001986  C1FC 0044                muls.w     D0, 0x44 /* 'D' */
0000198A  204D                     movea.l    A0, A5
0000198C  D1FC FFFD AFAE           add.l      A0, 0xFFFDAFAE
00001992  1030 000A                move.b     D0, [A0 + D0.w + 0xA]
00001996  4880                     ext.w      D0
00001998  204D                     movea.l    A0, A5
0000199A  D1FC FFFD AD0A           add.l      A0, 0xFFFDAD0A
000019A0  3080                     move.w     [A0], D0
label000019A2:
000019A2  204D                     movea.l    A0, A5
000019A4  D1FC FFFD AD0E           add.l      A0, 0xFFFDAD0E
000019AA  3010                     move.w     D0, [A0]
000019AC  C1FC 0044                muls.w     D0, 0x44 /* 'D' */
000019B0  204D                     movea.l    A0, A5
000019B2  D1FC FFFD AFAE           add.l      A0, 0xFFFDAFAE
000019B8  1030 000B                move.b     D0, [A0 + D0.w + 0xB]
000019BC  4880                     ext.w      D0
000019BE  5A40                     addq.w     D0, 5
000019C0  204D                     movea.l    A0, A5
000019C2  D1FC FFFD AD08           add.l      A0, 0xFFFDAD08
000019C8  B050                     cmp.w      D0, [A0]
000019CA  6C28                     bge        +0x2A /* 000019F4 */
000019CC  204D                     movea.l    A0, A5
000019CE  D1FC FFFD AD0E           add.l      A0, 0xFFFDAD0E
000019D4  3010                     move.w     D0, [A0]
000019D6  C1FC 0044                muls.w     D0, 0x44 /* 'D' */
000019DA  204D                     movea.l    A0, A5
000019DC  D1FC FFFD AFAE           add.l      A0, 0xFFFDAFAE
000019E2  1030 000B                move.b     D0, [A0 + D0.w + 0xB]
000019E6  4880                     ext.w      D0
000019E8  5A40                     addq.w     D0, 5
000019EA  204D                     movea.l    A0, A5
000019EC  D1FC FFFD AD08           add.l      A0, 0xFFFDAD08
000019F2  3080                     move.w     [A0], D0
label000019F4:
000019F4  204D                     movea.l    A0, A5
000019F6  D1FC FFFD AD0E           add.l      A0, 0xFFFDAD0E
000019FC  3010                     move.w     D0, [A0]
000019FE  C1FC 0044                muls.w     D0, 0x44 /* 'D' */
00001A02  204D                     movea.l    A0, A5
00001A04  D1FC FFFD AFAE           add.l      A0, 0xFFFDAFAE
00001A0A  1030 000B                move.b     D0, [A0 + D0.w + 0xB]
00001A0E  4880                     ext.w      D0
00001A10  204D                     movea.l    A0, A5
00001A12  D1FC FFFD AD08           add.l      A0, 0xFFFDAD08
00001A18  B050                     cmp.w      D0, [A0]
00001A1A  6F26                     ble        +0x28 /* 00001A42 */
00001A1C  204D                     movea.l    A0, A5
00001A1E  D1FC FFFD AD0E           add.l      A0, 0xFFFDAD0E
00001A24  3010                     move.w     D0, [A0]
00001A26  C1FC 0044                muls.w     D0, 0x44 /* 'D' */
00001A2A  204D                     movea.l    A0, A5
00001A2C  D1FC FFFD AFAE           add.l      A0, 0xFFFDAFAE
00001A32  1030 000B                move.b     D0, [A0 + D0.w + 0xB]
00001A36  4880                     ext.w      D0
00001A38  204D                     movea.l    A0, A5
00001A3A  D1FC FFFD AD08           add.l      A0, 0xFFFDAD08
00001A40  3080                     move.w     [A0], D0
label00001A42:
00001A42  204D                     movea.l    A0, A5
00001A44  D1FC FFFD CEBE           add.l      A0, 0xFFFDCEBE
00001A4A  224D                     movea.l    A1, A5
00001A4C  D3FC FFFD CE2A           add.l      A1, 0xFFFDCE2A
00001A52  2290                     move.l     [A1], [A0]
00001A54  204D                     movea.l    A0, A5
00001A56  D1FC FFFD CEBE           add.l      A0, 0xFFFDCEBE
00001A5C  2010                     move.l     D0, [A0]
00001A5E  204D                     movea.l    A0, A5
00001A60  D1FC FFFD CE26           add.l      A0, 0xFFFDCE26
00001A66  9090                     sub.l      D0, [A0]
00001A68  0C80 0000 0258           cmpi.l     D0, 0x258
00001A6E  630A                     bls        +0xC /* 00001A7A */
00001A70  7004                     moveq.l    D0, 0x04
00001A72  2F00                     move.l     -[A7], D0
00001A74  4EBA F43C                jsr        [PC - 0xBC4 /* 00000EB2 */]
00001A78  584F                     addq.w     A7, 4
label00001A7A:
00001A7A  4246                     clr.w      D6
00001A7C  7660                     moveq.l    D3, 0x60
label00001A7E:
00001A7E  4247                     clr.w      D7
label00001A80:
00001A80  2006                     move.l     D0, D6
00001A82  C1FC 00C0                muls.w     D0, 0xC0
00001A86  204D                     movea.l    A0, A5
00001A88  D1FC FFFE 42D4           add.l      A0, 0xFFFE42D4
00001A8E  2207                     move.l     D1, D7
00001A90  D241                     add.w      D1, D1
00001A92  D240                     add.w      D1, D0
00001A94  0270 BFFF 1000           andi.w     [A0 + D1.w], 0xBFFF
00001A9A  3007                     move.w     D0, D7
00001A9C  5247                     addq.w     D7, 1
00001A9E  B647                     cmp.w      D3, D7
00001AA0  6EDE                     bgt        -0x20 /* 00001A80 */
00001AA2  3006                     move.w     D0, D6
00001AA4  5246                     addq.w     D6, 1
00001AA6  B646                     cmp.w      D3, D6
00001AA8  6ED4                     bgt        -0x2A /* 00001A7E */
00001AAA  204D                     movea.l    A0, A5
00001AAC  D1FC FFFF 720C           add.l      A0, 0xFFFF720C
00001AB2  2050                     movea.l    A0, [A0]
00001AB4  2D48 FFF4                move.l     [A6 - 0xC], A0
00001AB8  2868 00C8                movea.l    A4, [A0 + 0xC8]
00001ABC  206C 0084                movea.l    A0, [A4 + 0x84]
00001AC0  7000                     moveq.l    D0, 0x00
00001AC2  1028 006E                move.b     D0, [A0 + 0x6E]
00001AC6  0C40 0001                cmpi.w     D0, 0x1
00001ACA  57C3                     seq        D3
00001ACC  4403                     neg.b      D3
00001ACE  6714                     beq        +0x16 /* 00001AE4 */
00001AD0  266C 016C                movea.l    A3, [A4 + 0x16C]
00001AD4  422B 0132                clr.b      [A3 + 0x132]
00001AD8  2F0B                     move.l     -[A7], A3
00001ADA  4EAD 1F52                jsr        [A5 + 0x1F52 /* export_998, CODE:37 @ 000014C8 */]
00001ADE  7000                     moveq.l    D0, 0x00
00001AE0  584F                     addq.w     A7, 4
00001AE2  6002                     bra        +0x4 /* 00001AE6 */
label00001AE4:
00001AE4  7000                     moveq.l    D0, 0x00
label00001AE6:
00001AE6  204D                     movea.l    A0, A5
00001AE8  D1FC FFFF 7868           add.l      A0, 0xFFFF7868
00001AEE  2050                     movea.l    A0, [A0]
00001AF0  2D48 FFF8                move.l     [A6 - 0x8], A0
00001AF4  2668 0128                movea.l    A3, [A0 + 0x128]
00001AF8  7000                     moveq.l    D0, 0x00
00001AFA  2840                     movea.l    A4, D0
00001AFC  2F0C                     move.l     -[A7], A4
00001AFE  2F0B                     move.l     -[A7], A3
00001B00  2F3C 454D 6F76           move.l     -[A7], 0x454D6F76 /* 'EMov' */
00001B06  206B 00F0                movea.l    A0, [A3 + 0xF0]
00001B0A  2248                     movea.l    A1, A0
00001B0C  2269 0060                movea.l    A1, [A1 + 0x60]
00001B10  D0E9 0058                add.w      A0, [A1 + 0x58]
00001B14  2F08                     move.l     -[A7], A0
00001B16  206B 00F0                movea.l    A0, [A3 + 0xF0]
00001B1A  2068 0060                movea.l    A0, [A0 + 0x60]
00001B1E  2268 005C                movea.l    A1, [A0 + 0x5C]
00001B22  4E91                     jsr        [A1]
00001B24  4FEF 0010                lea.l      A7, [A7 + 0x10]
label00001B28:
00001B28  7000                     moveq.l    D0, 0x00
00001B2A  204D                     movea.l    A0, A5
00001B2C  D1FC FFFD AD20           add.l      A0, 0xFFFDAD20
00001B32  1010                     move.b     D0, [A0]
00001B34  7202                     moveq.l    D1, 0x02
00001B36  C200                     and.b      D1, D0
00001B38  7000                     moveq.l    D0, 0x00
00001B3A  204D                     movea.l    A0, A5
00001B3C  D1FC FFFD AD20           add.l      A0, 0xFFFDAD20
00001B42  1010                     move.b     D0, [A0]
00001B44  4A80                     tst.l      D0
00001B46  0800 0000                btst.b     D0, 0x0
00001B4A  6700 0274                beq        +0x276 /* 00001DC0 */
00001B4E  204D                     movea.l    A0, A5
00001B50  D1FC FFFD CEBE           add.l      A0, 0xFFFDCEBE
00001B56  2010                     move.l     D0, [A0]
00001B58  204D                     movea.l    A0, A5
00001B5A  D1FC FFFD CE32           add.l      A0, 0xFFFDCE32
00001B60  9090                     sub.l      D0, [A0]
00001B62  204D                     movea.l    A0, A5
00001B64  D1FC FFFD CE22           add.l      A0, 0xFFFDCE22
00001B6A  B090                     cmp.l      D0, [A0]
00001B6C  6300 0252                bls        +0x254 /* 00001DC0 */
00001B70  7003                     moveq.l    D0, 0x03
00001B72  204D                     movea.l    A0, A5
00001B74  D1FC FFFD AD1C           add.l      A0, 0xFFFDAD1C
00001B7A  B010                     cmp.b      D0, [A0]
00001B7C  6600 0176                bne        +0x178 /* 00001CF4 */
00001B80  204D                     movea.l    A0, A5
00001B82  D1FC FFFD AD1C           add.l      A0, 0xFFFDAD1C
00001B88  4210                     clr.b      [A0]
00001B8A  204D                     movea.l    A0, A5
00001B8C  D1FC FFFD AD1A           add.l      A0, 0xFFFDAD1A
00001B92  224D                     movea.l    A1, A5
00001B94  D3FC FFFD AD12           add.l      A1, 0xFFFDAD12
00001B9A  3290                     move.w     [A1], [A0]
00001B9C  204D                     movea.l    A0, A5
00001B9E  D1FC FFFD AD18           add.l      A0, 0xFFFDAD18
00001BA4  224D                     movea.l    A1, A5
00001BA6  D3FC FFFD AD10           add.l      A1, 0xFFFDAD10
00001BAC  3290                     move.w     [A1], [A0]
00001BAE  204D                     movea.l    A0, A5
00001BB0  D1FC FFFD AD16           add.l      A0, 0xFFFDAD16
00001BB6  1010                     move.b     D0, [A0]
00001BB8  4880                     ext.w      D0
00001BBA  204D                     movea.l    A0, A5
00001BBC  D1FC FFFD AD1A           add.l      A0, 0xFFFDAD1A
00001BC2  D150                     add.w      [A0], D0
00001BC4  204D                     movea.l    A0, A5
00001BC6  D1FC FFFD AD14           add.l      A0, 0xFFFDAD14
00001BCC  1010                     move.b     D0, [A0]
00001BCE  4880                     ext.w      D0
00001BD0  204D                     movea.l    A0, A5
00001BD2  D1FC FFFD AD18           add.l      A0, 0xFFFDAD18
00001BD8  D150                     add.w      [A0], D0
00001BDA  204D                     movea.l    A0, A5
00001BDC  D1FC FFFD AD18           add.l      A0, 0xFFFDAD18
00001BE2  4850                     pea.l      [A0]
00001BE4  204D                     movea.l    A0, A5
00001BE6  D1FC FFFD AD1A           add.l      A0, 0xFFFDAD1A
00001BEC  4850                     pea.l      [A0]
00001BEE  4EAD 086A                jsr        [A5 + 0x86A /* export_265, CODE:14 @ 00005A2C */]
00001BF2  204D                     movea.l    A0, A5
00001BF4  D1FC FFFD AD18           add.l      A0, 0xFFFDAD18
00001BFA  3010                     move.w     D0, [A0]
00001BFC  5440                     addq.w     D0, 2
00001BFE  48C0                     ext.l      D0
00001C00  2F00                     move.l     -[A7], D0
00001C02  204D                     movea.l    A0, A5
00001C04  D1FC FFFD AD1A           add.l      A0, 0xFFFDAD1A
00001C0A  3010                     move.w     D0, [A0]
00001C0C  5240                     addq.w     D0, 1
00001C0E  48C0                     ext.l      D0
00001C10  2F00                     move.l     -[A7], D0
00001C12  4EAD 02D2                jsr        [A5 + 0x2D2 /* export_86, CODE:3 @ 000039E0 */]
00001C16  7056                     moveq.l    D0, 0x56
00001C18  204D                     movea.l    A0, A5
00001C1A  D1FC FFFD AD18           add.l      A0, 0xFFFDAD18
00001C20  B050                     cmp.w      D0, [A0]
00001C22  4FEF 0010                lea.l      A7, [A7 + 0x10]
00001C26  6C0E                     bge        +0x10 /* 00001C36 */
00001C28  204D                     movea.l    A0, A5
00001C2A  D1FC FFFD AD14           add.l      A0, 0xFFFDAD14
00001C30  10BC FFFF                move.b     [A0], 0xFF
00001C34  601A                     bra        +0x1C /* 00001C50 */
label00001C36:
00001C36  700A                     moveq.l    D0, 0x0A
00001C38  204D                     movea.l    A0, A5
00001C3A  D1FC FFFD AD18           add.l      A0, 0xFFFDAD18
00001C40  B050                     cmp.w      D0, [A0]
00001C42  6F0C                     ble        +0xE /* 00001C50 */
00001C44  204D                     movea.l    A0, A5
00001C46  D1FC FFFD AD14           add.l      A0, 0xFFFDAD14
00001C4C  10BC 0001                move.b     [A0], 0x1
label00001C50:
00001C50  558F                     subq.l     A7, 2
00001C52  A861                     syscall    Random
00001C54  700F                     moveq.l    D0, 0x0F
00001C56  C05F                     and.w      D0, [A7]+
00001C58  7200                     moveq.l    D1, 0x00
00001C5A  3200                     move.w     D1, D0
00001C5C  7006                     moveq.l    D0, 0x06
00001C5E  B081                     cmp.l      D0, D1
00001C60  666C                     bne        +0x6E /* 00001CCE */
00001C62  558F                     subq.l     A7, 2
00001C64  A861                     syscall    Random
00001C66  7001                     moveq.l    D0, 0x01
00001C68  C05F                     and.w      D0, [A7]+
00001C6A  204D                     movea.l    A0, A5
00001C6C  D1FC FFFD AD16           add.l      A0, 0xFFFDAD16
00001C72  1080                     move.b     [A0], D0
00001C74  558F                     subq.l     A7, 2
00001C76  A861                     syscall    Random
00001C78  7001                     moveq.l    D0, 0x01
00001C7A  C05F                     and.w      D0, [A7]+
00001C7C  204D                     movea.l    A0, A5
00001C7E  D1FC FFFD AD14           add.l      A0, 0xFFFDAD14
00001C84  1080                     move.b     [A0], D0
00001C86  558F                     subq.l     A7, 2
00001C88  A861                     syscall    Random
00001C8A  301F                     move.w     D0, [A7]+
00001C8C  0800 0000                btst.b     D0, 0x0
00001C90  6718                     beq        +0x1A /* 00001CAA */
00001C92  204D                     movea.l    A0, A5
00001C94  D1FC FFFD AD16           add.l      A0, 0xFFFDAD16
00001C9A  1010                     move.b     D0, [A0]
00001C9C  4880                     ext.w      D0
00001C9E  4440                     neg.w      D0
00001CA0  204D                     movea.l    A0, A5
00001CA2  D1FC FFFD AD16           add.l      A0, 0xFFFDAD16
00001CA8  1080                     move.b     [A0], D0
label00001CAA:
00001CAA  558F                     subq.l     A7, 2
00001CAC  A861                     syscall    Random
00001CAE  301F                     move.w     D0, [A7]+
00001CB0  0800 0000                btst.b     D0, 0x0
00001CB4  6718                     beq        +0x1A /* 00001CCE */
00001CB6  204D                     movea.l    A0, A5
00001CB8  D1FC FFFD AD14           add.l      A0, 0xFFFDAD14
00001CBE  1010                     move.b     D0, [A0]
00001CC0  4880                     ext.w      D0
00001CC2  4440                     neg.w      D0
00001CC4  204D                     movea.l    A0, A5
00001CC6  D1FC FFFD AD14           add.l      A0, 0xFFFDAD14
00001CCC  1080                     move.b     [A0], D0
label00001CCE:
00001CCE  204D                     movea.l    A0, A5
00001CD0  D1FC FFFD AD1A           add.l      A0, 0xFFFDAD1A
00001CD6  224D                     movea.l    A1, A5
00001CD8  D3FC FFFD AD12           add.l      A1, 0xFFFDAD12
00001CDE  3290                     move.w     [A1], [A0]
00001CE0  204D                     movea.l    A0, A5
00001CE2  D1FC FFFD AD18           add.l      A0, 0xFFFDAD18
00001CE8  224D                     movea.l    A1, A5
00001CEA  D3FC FFFD AD10           add.l      A1, 0xFFFDAD10
00001CF0  3290                     move.w     [A1], [A0]
00001CF2  600C                     bra        +0xE /* 00001D00 */
label00001CF4:
00001CF4  204D                     movea.l    A0, A5
00001CF6  D1FC FFFD AD1C           add.l      A0, 0xFFFDAD1C
00001CFC  1010                     move.b     D0, [A0]
00001CFE  5210                     addq.b     [A0], 1
label00001D00:
00001D00  204D                     movea.l    A0, A5
00001D02  D1FC FFFD CEBE           add.l      A0, 0xFFFDCEBE
00001D08  224D                     movea.l    A1, A5
00001D0A  D3FC FFFD CE32           add.l      A1, 0xFFFDCE32
00001D10  2290                     move.l     [A1], [A0]
00001D12  4246                     clr.w      D6
00001D14  7660                     moveq.l    D3, 0x60
label00001D16:
00001D16  4247                     clr.w      D7
label00001D18:
00001D18  2006                     move.l     D0, D6
00001D1A  C1FC 00C0                muls.w     D0, 0xC0
00001D1E  204D                     movea.l    A0, A5
00001D20  D1FC FFFE 42D4           add.l      A0, 0xFFFE42D4
00001D26  2207                     move.l     D1, D7
00001D28  D241                     add.w      D1, D1
00001D2A  D240                     add.w      D1, D0
00001D2C  0270 BFFF 1000           andi.w     [A0 + D1.w], 0xBFFF
00001D32  3007                     move.w     D0, D7
00001D34  5247                     addq.w     D7, 1
00001D36  B647                     cmp.w      D3, D7
00001D38  6EDE                     bgt        -0x20 /* 00001D18 */
00001D3A  3006                     move.w     D0, D6
00001D3C  5246                     addq.w     D6, 1
00001D3E  B646                     cmp.w      D3, D6
00001D40  6ED4                     bgt        -0x2A /* 00001D16 */
00001D42  204D                     movea.l    A0, A5
00001D44  D1FC FFFF 720C           add.l      A0, 0xFFFF720C
00001D4A  2050                     movea.l    A0, [A0]
00001D4C  2D48 FFF4                move.l     [A6 - 0xC], A0
00001D50  2868 00C8                movea.l    A4, [A0 + 0xC8]
00001D54  206C 0084                movea.l    A0, [A4 + 0x84]
00001D58  7000                     moveq.l    D0, 0x00
00001D5A  1028 006E                move.b     D0, [A0 + 0x6E]
00001D5E  0C40 0001                cmpi.w     D0, 0x1
00001D62  57C3                     seq        D3
00001D64  4403                     neg.b      D3
00001D66  6714                     beq        +0x16 /* 00001D7C */
00001D68  266C 016C                movea.l    A3, [A4 + 0x16C]
00001D6C  422B 0132                clr.b      [A3 + 0x132]
00001D70  2F0B                     move.l     -[A7], A3
00001D72  4EAD 1F52                jsr        [A5 + 0x1F52 /* export_998, CODE:37 @ 000014C8 */]
00001D76  7000                     moveq.l    D0, 0x00
00001D78  584F                     addq.w     A7, 4
00001D7A  6002                     bra        +0x4 /* 00001D7E */
label00001D7C:
00001D7C  7000                     moveq.l    D0, 0x00
label00001D7E:
00001D7E  204D                     movea.l    A0, A5
00001D80  D1FC FFFF 7868           add.l      A0, 0xFFFF7868
00001D86  2050                     movea.l    A0, [A0]
00001D88  2D48 FFF8                move.l     [A6 - 0x8], A0
00001D8C  2668 0128                movea.l    A3, [A0 + 0x128]
00001D90  7000                     moveq.l    D0, 0x00
00001D92  2840                     movea.l    A4, D0
00001D94  2F0C                     move.l     -[A7], A4
00001D96  2F0B                     move.l     -[A7], A3
00001D98  2F3C 454D 6F76           move.l     -[A7], 0x454D6F76 /* 'EMov' */
00001D9E  206B 00F0                movea.l    A0, [A3 + 0xF0]
00001DA2  2248                     movea.l    A1, A0
00001DA4  2269 0060                movea.l    A1, [A1 + 0x60]
00001DA8  D0E9 0058                add.w      A0, [A1 + 0x58]
00001DAC  2F08                     move.l     -[A7], A0
00001DAE  206B 00F0                movea.l    A0, [A3 + 0xF0]
00001DB2  2068 0060                movea.l    A0, [A0 + 0x60]
00001DB6  2268 005C                movea.l    A1, [A0 + 0x5C]
00001DBA  4E91                     jsr        [A1]
00001DBC  4FEF 0010                lea.l      A7, [A7 + 0x10]
label00001DC0:
00001DC0  7000                     moveq.l    D0, 0x00
00001DC2  204D                     movea.l    A0, A5
00001DC4  D1FC FFFD AD20           add.l      A0, 0xFFFDAD20
00001DCA  1010                     move.b     D0, [A0]
00001DCC  7204                     moveq.l    D1, 0x04
00001DCE  C200                     and.b      D1, D0
00001DD0  6700 03E0                beq        +0x3E2 /* 000021B2 */
00001DD4  7008                     moveq.l    D0, 0x08
00001DD6  204D                     movea.l    A0, A5
00001DD8  D1FC FFFD AD1E           add.l      A0, 0xFFFDAD1E
00001DDE  B010                     cmp.b      D0, [A0]
00001DE0  6C10                     bge        +0x12 /* 00001DF2 */
00001DE2  7003                     moveq.l    D0, 0x03
00001DE4  2F00                     move.l     -[A7], D0
00001DE6  4EBA F0CA                jsr        [PC - 0xF36 /* 00000EB2 */]
00001DEA  7000                     moveq.l    D0, 0x00
00001DEC  584F                     addq.w     A7, 4
00001DEE  6000 03D2                bra        +0x3D4 /* 000021C2 */
label00001DF2:
00001DF2  4246                     clr.w      D6
label00001DF4:
00001DF4  204D                     movea.l    A0, A5
00001DF6  D1FC FFFD ACF4           add.l      A0, 0xFFFDACF4
00001DFC  4A10                     tst.b      [A0]
00001DFE  6700 03A2                beq        +0x3A4 /* 000021A2 */
00001E02  204D                     movea.l    A0, A5
00001E04  D1FC FFFD ACFC           add.l      A0, 0xFFFDACFC
00001E0A  3010                     move.w     D0, [A0]
00001E0C  C1FC 00C0                muls.w     D0, 0xC0
00001E10  204D                     movea.l    A0, A5
00001E12  D1FC FFFE 42D4           add.l      A0, 0xFFFE42D4
00001E18  224D                     movea.l    A1, A5
00001E1A  D3FC FFFD ACFA           add.l      A1, 0xFFFDACFA
00001E20  3211                     move.w     D1, [A1]
00001E22  D241                     add.w      D1, D1
00001E24  D240                     add.w      D1, D0
00001E26  7000                     moveq.l    D0, 0x00
00001E28  3030 1000                move.w     D0, [A0 + D1.w]
00001E2C  323C 1000                move.w     D1, 0x1000
00001E30  C240                     and.w      D1, D0
00001E32  6700 0326                beq        +0x328 /* 0000215A */
00001E36  204D                     movea.l    A0, A5
00001E38  D1FC FFFD ACFC           add.l      A0, 0xFFFDACFC
00001E3E  3010                     move.w     D0, [A0]
00001E40  5540                     subq.w     D0, 2
00001E42  3D40 FFFC                move.w     [A6 - 0x4], D0
00001E46  6000 02F8                bra        +0x2FA /* 00002140 */
label00001E4A:
00001E4A  204D                     movea.l    A0, A5
00001E4C  D1FC FFFD ACFA           add.l      A0, 0xFFFDACFA
00001E52  3010                     move.w     D0, [A0]
00001E54  5340                     subq.w     D0, 1
00001E56  3D40 FFFE                move.w     [A6 - 0x2], D0
00001E5A  6000 02C2                bra        +0x2C4 /* 0000211E */
label00001E5E:
00001E5E  486E FFFE                pea.l      [A6 - 0x2]
00001E62  486E FFFC                pea.l      [A6 - 0x4]
00001E66  4EAD 086A                jsr        [A5 + 0x86A /* export_265, CODE:14 @ 00005A2C */]
00001E6A  302E FFFE                move.w     D0, [A6 - 0x2]
00001E6E  48C0                     ext.l      D0
00001E70  2F00                     move.l     -[A7], D0
00001E72  302E FFFC                move.w     D0, [A6 - 0x4]
00001E76  48C0                     ext.l      D0
00001E78  2F00                     move.l     -[A7], D0
00001E7A  4EBA 1B7E                jsr        [PC + 0x1B7E /* 000039FA */]
00001E7E  4880                     ext.w      D0
00001E80  3E00                     move.w     D7, D0
00001E82  4FEF 0010                lea.l      A7, [A7 + 0x10]
00001E86  6700 0098                beq        +0x9A /* 00001F20 */
00001E8A  2007                     move.l     D0, D7
00001E8C  C1FC 0044                muls.w     D0, 0x44 /* 'D' */
00001E90  204D                     movea.l    A0, A5
00001E92  D1FC FFFD AFAE           add.l      A0, 0xFFFDAFAE
00001E98  4A30 0002                tst.b      [A0 + D0.w + 0x2]
00001E9C  6716                     beq        +0x18 /* 00001EB4 */
00001E9E  2007                     move.l     D0, D7
00001EA0  C1FC 0044                muls.w     D0, 0x44 /* 'D' */
00001EA4  204D                     movea.l    A0, A5
00001EA6  D1FC FFFD AFAE           add.l      A0, 0xFFFDAFAE
00001EAC  7204                     moveq.l    D1, 0x04
00001EAE  B230 0002                cmp.b      D1, [A0 + D0.w + 0x2]
00001EB2  666C                     bne        +0x6E /* 00001F20 */
label00001EB4:
00001EB4  48C7                     ext.l      D7
00001EB6  2F07                     move.l     -[A7], D7
00001EB8  4EBA 1C16                jsr        [PC + 0x1C16 /* 00003AD0 */]
00001EBC  48C7                     ext.l      D7
00001EBE  2F07                     move.l     -[A7], D7
00001EC0  4EBA 1D62                jsr        [PC + 0x1D62 /* 00003C24 */]
00001EC4  204D                     movea.l    A0, A5
00001EC6  D1FC FFFD ACDA           add.l      A0, 0xFFFDACDA
00001ECC  4850                     pea.l      [A0]
00001ECE  4EAD 0742                jsr        [A5 + 0x742 /* export_228, CODE:12 @ 000045BA */]
00001ED2  204D                     movea.l    A0, A5
00001ED4  D1FC FFFD AFAC           add.l      A0, 0xFFFDAFAC
00001EDA  4A50                     tst.w      [A0]
00001EDC  4FEF 000C                lea.l      A7, [A7 + 0xC]
00001EE0  663E                     bne        +0x40 /* 00001F20 */
00001EE2  204D                     movea.l    A0, A5
00001EE4  D1FC FFFF 2042           add.l      A0, 0xFFFF2042
00001EEA  2850                     movea.l    A4, [A0]
00001EEC  4AAC 0170                tst.l      [A4 + 0x170]
00001EF0  56C3                     sne        D3
00001EF2  4403                     neg.b      D3
00001EF4  6728                     beq        +0x2A /* 00001F1E */
00001EF6  206C 0170                movea.l    A0, [A4 + 0x170]
00001EFA  2248                     movea.l    A1, A0
00001EFC  2269 0060                movea.l    A1, [A1 + 0x60]
00001F00  D0E9 0078                add.w      A0, [A1 + 0x78]
00001F04  2F08                     move.l     -[A7], A0
00001F06  206C 0170                movea.l    A0, [A4 + 0x170]
00001F0A  2068 0060                movea.l    A0, [A0 + 0x60]
00001F0E  2268 007C                movea.l    A1, [A0 + 0x7C]
00001F12  4E91                     jsr        [A1]
00001F14  7200                     moveq.l    D1, 0x00
00001F16  1200                     move.b     D1, D0
00001F18  4A81                     tst.l      D1
00001F1A  584F                     addq.w     A7, 4
00001F1C  6002                     bra        +0x4 /* 00001F20 */
label00001F1E:
00001F1E  7200                     moveq.l    D1, 0x00
label00001F20:
00001F20  7001                     moveq.l    D0, 0x01
00001F22  2F00                     move.l     -[A7], D0
00001F24  2F00                     move.l     -[A7], D0
00001F26  322E FFFE                move.w     D1, [A6 - 0x2]
00001F2A  48C1                     ext.l      D1
00001F2C  2F01                     move.l     -[A7], D1
00001F2E  322E FFFC                move.w     D1, [A6 - 0x4]
00001F32  48C1                     ext.l      D1
00001F34  2F01                     move.l     -[A7], D1
00001F36  4EAD 0932                jsr        [A5 + 0x932 /* export_290, CODE:16 @ 00000802 */]
00001F3A  3E00                     move.w     D7, D0
00001F3C  4FEF 0010                lea.l      A7, [A7 + 0x10]
00001F40  6700 0116                beq        +0x118 /* 00002058 */
00001F44  2007                     move.l     D0, D7
00001F46  C1FC 0046                muls.w     D0, 0x46 /* 'F' */
00001F4A  204D                     movea.l    A0, A5
00001F4C  D1FC FFFE D880           add.l      A0, 0xFFFED880
00001F52  7200                     moveq.l    D1, 0x00
00001F54  3230 0000                move.w     D1, [A0 + D0.w]
00001F58  7047                     moveq.l    D0, 0x47
00001F5A  B081                     cmp.l      D0, D1
00001F5C  6632                     bne        +0x34 /* 00001F90 */
00001F5E  2007                     move.l     D0, D7
00001F60  C1FC 0046                muls.w     D0, 0x46 /* 'F' */
00001F64  204D                     movea.l    A0, A5
00001F66  D1FC FFFE D880           add.l      A0, 0xFFFED880
00001F6C  7200                     moveq.l    D1, 0x00
00001F6E  1230 0005                move.b     D1, [A0 + D0.w + 0x5]
00001F72  2F01                     move.l     -[A7], D1
00001F74  2007                     move.l     D0, D7
00001F76  C1FC 0046                muls.w     D0, 0x46 /* 'F' */
00001F7A  204D                     movea.l    A0, A5
00001F7C  D1FC FFFE D880           add.l      A0, 0xFFFED880
00001F82  7200                     moveq.l    D1, 0x00
00001F84  1230 0004                move.b     D1, [A0 + D0.w + 0x4]
00001F88  2F01                     move.l     -[A7], D1
00001F8A  4EAD 08AA                jsr        [A5 + 0x8AA /* export_273, CODE:15 @ 00001D06 */]
00001F8E  504F                     addq.w     A7, 8
label00001F90:
00001F90  2007                     move.l     D0, D7
00001F92  C1FC 0046                muls.w     D0, 0x46 /* 'F' */
00001F96  204D                     movea.l    A0, A5
00001F98  D1FC FFFE D880           add.l      A0, 0xFFFED880
00001F9E  7200                     moveq.l    D1, 0x00
00001FA0  3230 0000                move.w     D1, [A0 + D0.w]
00001FA4  7046                     moveq.l    D0, 0x46
00001FA6  B081                     cmp.l      D0, D1
00001FA8  6632                     bne        +0x34 /* 00001FDC */
00001FAA  2007                     move.l     D0, D7
00001FAC  C1FC 0046                muls.w     D0, 0x46 /* 'F' */
00001FB0  204D                     movea.l    A0, A5
00001FB2  D1FC FFFE D880           add.l      A0, 0xFFFED880
00001FB8  7200                     moveq.l    D1, 0x00
00001FBA  1230 0005                move.b     D1, [A0 + D0.w + 0x5]
00001FBE  2F01                     move.l     -[A7], D1
00001FC0  2007                     move.l     D0, D7
00001FC2  C1FC 0046                muls.w     D0, 0x46 /* 'F' */
00001FC6  204D                     movea.l    A0, A5
00001FC8  D1FC FFFE D880           add.l      A0, 0xFFFED880
00001FCE  7200                     moveq.l    D1, 0x00
00001FD0  1230 0004                move.b     D1, [A0 + D0.w + 0x4]
00001FD4  2F01                     move.l     -[A7], D1
00001FD6  4EAD 08AA                jsr        [A5 + 0x8AA /* export_273, CODE:15 @ 00001D06 */]
00001FDA  504F                     addq.w     A7, 8
label00001FDC:
00001FDC  48C7                     ext.l      D7
00001FDE  2F07                     move.l     -[A7], D7
00001FE0  4EAD 0922                jsr        [A5 + 0x922 /* export_288, CODE:16 @ 0000045C */]
00001FE4  2007                     move.l     D0, D7
00001FE6  C1FC 0046                muls.w     D0, 0x46 /* 'F' */
00001FEA  204D                     movea.l    A0, A5
00001FEC  D1FC FFFE D880           add.l      A0, 0xFFFED880
00001FF2  3030 0000                move.w     D0, [A0 + D0.w]
00001FF6  48C0                     ext.l      D0
00001FF8  2F00                     move.l     -[A7], D0
00001FFA  48C7                     ext.l      D7
00001FFC  2F07                     move.l     -[A7], D7
00001FFE  4EAD 04EA                jsr        [A5 + 0x4EA /* export_153, CODE:9 @ 00000000 */]
00002002  204D                     movea.l    A0, A5
00002004  D1FC FFFD ACE6           add.l      A0, 0xFFFDACE6
0000200A  4850                     pea.l      [A0]
0000200C  4EAD 0742                jsr        [A5 + 0x742 /* export_228, CODE:12 @ 000045BA */]
00002010  204D                     movea.l    A0, A5
00002012  D1FC FFFF 720C           add.l      A0, 0xFFFF720C
00002018  2050                     movea.l    A0, [A0]
0000201A  2D48 FFEC                move.l     [A6 - 0x14], A0
0000201E  2068 00C8                movea.l    A0, [A0 + 0xC8]
00002022  2D48 FFF0                move.l     [A6 - 0x10], A0
00002026  2068 0084                movea.l    A0, [A0 + 0x84]
0000202A  7000                     moveq.l    D0, 0x00
0000202C  1028 006E                move.b     D0, [A0 + 0x6E]
00002030  0C40 0001                cmpi.w     D0, 0x1
00002034  57C3                     seq        D3
00002036  4403                     neg.b      D3
00002038  6718                     beq        +0x1A /* 00002052 */
0000203A  206E FFF0                movea.l    A0, [A6 - 0x10]
0000203E  2668 016C                movea.l    A3, [A0 + 0x16C]
00002042  422B 0132                clr.b      [A3 + 0x132]
00002046  2F0B                     move.l     -[A7], A3
00002048  4EAD 1F52                jsr        [A5 + 0x1F52 /* export_998, CODE:37 @ 000014C8 */]
0000204C  7000                     moveq.l    D0, 0x00
0000204E  584F                     addq.w     A7, 4
00002050  6002                     bra        +0x4 /* 00002054 */
label00002052:
00002052  7000                     moveq.l    D0, 0x00
label00002054:
00002054  4FEF 0010                lea.l      A7, [A7 + 0x10]
label00002058:
00002058  302E FFFC                move.w     D0, [A6 - 0x4]
0000205C  C1FC 00C0                muls.w     D0, 0xC0
00002060  204D                     movea.l    A0, A5
00002062  D1FC FFFE 42D4           add.l      A0, 0xFFFE42D4
00002068  322E FFFE                move.w     D1, [A6 - 0x2]
0000206C  D241                     add.w      D1, D1
0000206E  D240                     add.w      D1, D0
00002070  7000                     moveq.l    D0, 0x00
00002072  3030 1000                move.w     D0, [A0 + D1.w]
00002076  323C 07FF                move.w     D1, 0x7FF
0000207A  C240                     and.w      D1, D0
0000207C  7000                     moveq.l    D0, 0x00
0000207E  3001                     move.w     D0, D1
00002080  4A80                     tst.l      D0
00002082  204D                     movea.l    A0, A5
00002084  D1FC FFFF 7A42           add.l      A0, 0xFFFF7A42
0000208A  3210                     move.w     D1, [A0]
0000208C  48C1                     ext.l      D1
0000208E  B280                     cmp.l      D1, D0
00002090  6E48                     bgt        +0x4A /* 000020DA */
00002092  302E FFFC                move.w     D0, [A6 - 0x4]
00002096  C1FC 00C0                muls.w     D0, 0xC0
0000209A  204D                     movea.l    A0, A5
0000209C  D1FC FFFE 42D4           add.l      A0, 0xFFFE42D4
000020A2  322E FFFE                move.w     D1, [A6 - 0x2]
000020A6  D241                     add.w      D1, D1
000020A8  D240                     add.w      D1, D0
000020AA  7000                     moveq.l    D0, 0x00
000020AC  3030 1000                move.w     D0, [A0 + D1.w]
000020B0  323C 07FF                move.w     D1, 0x7FF
000020B4  C240                     and.w      D1, D0
000020B6  7000                     moveq.l    D0, 0x00
000020B8  3001                     move.w     D0, D1
000020BA  4A80                     tst.l      D0
000020BC  204D                     movea.l    A0, A5
000020BE  D1FC FFFF 7A42           add.l      A0, 0xFFFF7A42
000020C4  3210                     move.w     D1, [A0]
000020C6  48C1                     ext.l      D1
000020C8  7400                     moveq.l    D2, 0x00
000020CA  204D                     movea.l    A0, A5
000020CC  D1FC FFFF 7922           add.l      A0, 0xFFFF7922
000020D2  1410                     move.b     D2, [A0]
000020D4  D481                     add.l      D2, D1
000020D6  B480                     cmp.l      D2, D0
000020D8  6E3C                     bgt        +0x3E /* 00002116 */
label000020DA:
000020DA  302E FFFC                move.w     D0, [A6 - 0x4]
000020DE  C1FC 00C0                muls.w     D0, 0xC0
000020E2  204D                     movea.l    A0, A5
000020E4  D1FC FFFE 42D4           add.l      A0, 0xFFFE42D4
000020EA  322E FFFE                move.w     D1, [A6 - 0x2]
000020EE  D241                     add.w      D1, D1
000020F0  D240                     add.w      D1, D0
000020F2  0070 2000 1000           ori.w      [A0 + D1.w], 0x2000 /* ' \0' */
000020F8  302E FFFC                move.w     D0, [A6 - 0x4]
000020FC  C1FC 00C0                muls.w     D0, 0xC0
00002100  204D                     movea.l    A0, A5
00002102  D1FC FFFE 42D4           add.l      A0, 0xFFFE42D4
00002108  322E FFFE                move.w     D1, [A6 - 0x2]
0000210C  D241                     add.w      D1, D1
0000210E  D240                     add.w      D1, D0
00002110  0270 BFFF 1000           andi.w     [A0 + D1.w], 0xBFFF
label00002116:
00002116  302E FFFE                move.w     D0, [A6 - 0x2]
0000211A  526E FFFE                addq.w     [A6 - 0x2], 1
label0000211E:
0000211E  204D                     movea.l    A0, A5
00002120  D1FC FFFD ACFA           add.l      A0, 0xFFFDACFA
00002126  3010                     move.w     D0, [A0]
00002128  48C0                     ext.l      D0
0000212A  5480                     addq.l     D0, 2
0000212C  322E FFFE                move.w     D1, [A6 - 0x2]
00002130  48C1                     ext.l      D1
00002132  B081                     cmp.l      D0, D1
00002134  6E00 FD28                bgt        -0x2D6 /* 00001E5E */
00002138  302E FFFC                move.w     D0, [A6 - 0x4]
0000213C  526E FFFC                addq.w     [A6 - 0x4], 1
label00002140:
00002140  204D                     movea.l    A0, A5
00002142  D1FC FFFD ACFC           add.l      A0, 0xFFFDACFC
00002148  3010                     move.w     D0, [A0]
0000214A  48C0                     ext.l      D0
0000214C  5280                     addq.l     D0, 1
0000214E  322E FFFC                move.w     D1, [A6 - 0x4]
00002152  48C1                     ext.l      D1
00002154  B081                     cmp.l      D0, D1
00002156  6E00 FCF2                bgt        -0x30C /* 00001E4A */
label0000215A:
0000215A  204D                     movea.l    A0, A5
0000215C  D1FC FFFD ACFA           add.l      A0, 0xFFFDACFA
00002162  3010                     move.w     D0, [A0]
00002164  5250                     addq.w     [A0], 1
00002166  705E                     moveq.l    D0, 0x5E
00002168  204D                     movea.l    A0, A5
0000216A  D1FC FFFD ACFA           add.l      A0, 0xFFFDACFA
00002170  B050                     cmp.w      D0, [A0]
00002172  6E2E                     bgt        +0x30 /* 000021A2 */
00002174  204D                     movea.l    A0, A5
00002176  D1FC FFFD ACFA           add.l      A0, 0xFFFDACFA
0000217C  4250                     clr.w      [A0]
0000217E  204D                     movea.l    A0, A5
00002180  D1FC FFFD ACFC           add.l      A0, 0xFFFDACFC
00002186  3010                     move.w     D0, [A0]
00002188  5250                     addq.w     [A0], 1
0000218A  705E                     moveq.l    D0, 0x5E
0000218C  204D                     movea.l    A0, A5
0000218E  D1FC FFFD ACFC           add.l      A0, 0xFFFDACFC
00002194  B050                     cmp.w      D0, [A0]
00002196  6E0A                     bgt        +0xC /* 000021A2 */
00002198  204D                     movea.l    A0, A5
0000219A  D1FC FFFD ACF4           add.l      A0, 0xFFFDACF4
000021A0  4210                     clr.b      [A0]
label000021A2:
000021A2  3006                     move.w     D0, D6
000021A4  5246                     addq.w     D6, 1
000021A6  0C46 0040                cmpi.w     D6, 0x40 /* '@' */
000021AA  6D00 FC48                blt        -0x3B6 /* 00001DF4 */
000021AE  4EAD 089A                jsr        [A5 + 0x89A /* export_271, CODE:15 @ 00000A94 */]
label000021B2:
000021B2  7000                     moveq.l    D0, 0x00
000021B4  204D                     movea.l    A0, A5
000021B6  D1FC FFFD AD20           add.l      A0, 0xFFFDAD20
000021BC  1010                     move.b     D0, [A0]
000021BE  7205                     moveq.l    D1, 0x05
000021C0  C200                     and.b      D1, D0
label000021C2:
000021C2  4CEE 18C8 FFD8           movem.l    D3,D6,D7,A3,A4, [A6 - 0x28]
000021C8  4E5E                     unlink     A6
000021CA  4E75                     rts
000021CC  9275 7064 6174 6564 6... dc.b       "updatedisaster__Fc"
export_103:
000021E2  4E56 0000                link       A6, 0
000021E6  7000                     moveq.l    D0, 0x00
000021E8  204D                     movea.l    A0, A5
000021EA  D1FC FFFD AD20           add.l      A0, 0xFFFDAD20
000021F0  1010                     move.b     D0, [A0]
000021F2  4A80                     tst.l      D0
000021F4  0800 0000                btst.b     D0, 0x0
000021F8  6736                     beq        +0x38 /* 00002230 */
000021FA  204D                     movea.l    A0, A5
000021FC  D1FC FFFD AD19           add.l      A0, 0xFFFDAD19
00002202  1010                     move.b     D0, [A0]
00002204  49C0                     lea.l      A4, D0
00002206  2F00                     move.l     -[A7], D0
00002208  204D                     movea.l    A0, A5
0000220A  D1FC FFFD AD1B           add.l      A0, 0xFFFDAD1B
00002210  1010                     move.b     D0, [A0]
00002212  49C0                     lea.l      A4, D0
00002214  2F00                     move.l     -[A7], D0
00002216  102E 000F                move.b     D0, [A6 + 0xF]
0000221A  49C0                     lea.l      A4, D0
0000221C  2F00                     move.l     -[A7], D0
0000221E  102E 000B                move.b     D0, [A6 + 0xB]
00002222  49C0                     lea.l      A4, D0
00002224  2F00                     move.l     -[A7], D0
00002226  4EAD 056A                jsr        [A5 + 0x56A /* export_169, CODE:10 @ 00000510 */]
0000222A  4FEF 0010                lea.l      A7, [A7 + 0x10]
0000222E  6002                     bra        +0x4 /* 00002232 */
label00002230:
00002230  7000                     moveq.l    D0, 0x00
label00002232:
00002232  4E5E                     unlink     A6
00002234  4E75                     rts
00002236  9467 6574 746F 726E 6... dc.b       "gettornadodist__FsT1"
export_104:
0000224E  4E56 0000                link       A6, 0
00002252  7000                     moveq.l    D0, 0x00
00002254  204D                     movea.l    A0, A5
00002256  D1FC FFFD AD20           add.l      A0, 0xFFFDAD20
0000225C  1010                     move.b     D0, [A0]
0000225E  7204                     moveq.l    D1, 0x04
00002260  C200                     and.b      D1, D0
00002262  670C                     beq        +0xE /* 00002270 */
00002264  204D                     movea.l    A0, A5
00002266  D1FC FFFD AD1E           add.l      A0, 0xFFFDAD1E
0000226C  1010                     move.b     D0, [A0]
0000226E  5210                     addq.b     [A0], 1
label00002270:
00002270  4E5E                     unlink     A6
00002272  4E75                     rts
00002274  9673 696D 6469 7361 7... dc.b       "simdisasterweeklys__Fv"
export_105:
0000228E  4E56 FFFC                link       A6, -0x0004
00002292  48E7 0F08                movem.l    -[A7], D4,D5,D6,D7,A4
00002296  286E 0010                movea.l    A4, [A6 + 0x10]
0000229A  382E 000A                move.w     D4, [A6 + 0xA]
0000229E  7000                     moveq.l    D0, 0x00
000022A0  302E 000A                move.w     D0, [A6 + 0xA]
000022A4  223C 0000 00F0           move.l     D1, 0xF0
000022AA  9280                     sub.l      D1, D0
000022AC  3D41 FFFC                move.w     [A6 - 0x4], D1
000022B0  7000                     moveq.l    D0, 0x00
000022B2  302E 000A                move.w     D0, [A6 + 0xA]
000022B6  4A80                     tst.l      D0
000022B8  4C3C 0800 0000 00C4      mulu.l     D0, 0x8000000
000022C0  322E 000E                move.w     D1, [A6 + 0xE]
000022C4  48C1                     ext.l      D1
000022C6  E389                     lsl        D1, 1
000022C8  2C01                     move.l     D6, D1
000022CA  DC80                     add.l      D6, D0
000022CC  558F                     subq.l     A7, 2
000022CE  204D                     movea.l    A0, A5
000022D0  D1FC FFFF 7822           add.l      A0, 0xFFFF7822
000022D6  4850                     pea.l      [A0]
000022D8  7000                     moveq.l    D0, 0x00
000022DA  1F00                     move.b     -[A7], D0
000022DC  486E FFFE                pea.l      [A6 - 0x2]
000022E0  303C 0002                move.w     D0, 0x2
000022E4  AA52                     syscall    HFSPinaforeDispatch/HighLevelFSDispatch
000022E6  3A1F                     move.w     D5, [A7]+
000022E8  6704                     beq        +0x6 /* 000022EE */
000022EA  7000                     moveq.l    D0, 0x00
000022EC  6068                     bra        +0x6A /* 00002356 */
label000022EE:
000022EE  3E2E 000A                move.w     D7, [A6 + 0xA]
label000022F2:
000022F2  558F                     subq.l     A7, 2
000022F4  3F2E FFFE                move.w     -[A7], [A6 - 0x2]
000022F8  7001                     moveq.l    D0, 0x01
000022FA  3F00                     move.w     -[A7], D0
000022FC  2F06                     move.l     -[A7], D6
000022FE  4EAD 00C2                jsr        [A5 + 0xC2 /* export_20, CODE:1 @ 000012EA */]
00002302  3A1F                     move.w     D5, [A7]+
00002304  6704                     beq        +0x6 /* 0000230A */
00002306  7000                     moveq.l    D0, 0x00
00002308  604C                     bra        +0x4E /* 00002356 */
label0000230A:
0000230A  302E FFFE                move.w     D0, [A6 - 0x2]
0000230E  48C0                     ext.l      D0
00002310  2F00                     move.l     -[A7], D0
00002312  7001                     moveq.l    D0, 0x01
00002314  2F00                     move.l     -[A7], D0
00002316  7202                     moveq.l    D1, 0x02
00002318  2F01                     move.l     -[A7], D1
0000231A  7400                     moveq.l    D2, 0x00
0000231C  3407                     move.w     D2, D7
0000231E  4874 2A00                pea.l      [A4 + D2 * 2]
00002322  4EAD 1412                jsr        [A5 + 0x1412 /* export_638, CODE:27 @ 00002B38 */]
00002326  0686 0000 00C4           addi.l     D6, 0xC4
0000232C  3007                     move.w     D0, D7
0000232E  5247                     addq.w     D7, 1
00002330  4FEF 0010                lea.l      A7, [A7 + 0x10]
00002334  7000                     moveq.l    D0, 0x00
00002336  3007                     move.w     D0, D7
00002338  7200                     moveq.l    D1, 0x00
0000233A  3204                     move.w     D1, D4
0000233C  7400                     moveq.l    D2, 0x00
0000233E  342E FFFC                move.w     D2, [A6 - 0x4]
00002342  D481                     add.l      D2, D1
00002344  B480                     cmp.l      D2, D0
00002346  62AA                     bhi        -0x54 /* 000022F2 */
00002348  558F                     subq.l     A7, 2
0000234A  3F2E FFFE                move.w     -[A7], [A6 - 0x2]
0000234E  4EAD 007A                jsr        [A5 + 0x7A /* export_11, CODE:1 @ 0000118E */]
00002352  7000                     moveq.l    D0, 0x00
00002354  544F                     addq.w     A7, 2
label00002356:
00002356  4CEE 10F0 FFE8           movem.l    D4,D5,D6,D7,A4, [A6 - 0x18]
0000235C  4E5E                     unlink     A6
0000235E  4E75                     rts
00002360  9772 6561 645F 7363 6... dc.b       "read_sched_year__FUssPs"
export_106:
0000237A  4E56 FFFC                link       A6, -0x0004
0000237E  48E7 0F08                movem.l    -[A7], D4,D5,D6,D7,A4
00002382  286E 0010                movea.l    A4, [A6 + 0x10]
00002386  382E 000A                move.w     D4, [A6 + 0xA]
0000238A  303C 00F0                move.w     D0, 0xF0
0000238E  906E 000A                sub.w      D0, [A6 + 0xA]
00002392  3D40 FFFC                move.w     [A6 - 0x4], D0
00002396  7C00                     moveq.l    D6, 0x00
00002398  3C2E 000A                move.w     D6, [A6 + 0xA]
0000239C  2206                     move.l     D1, D6
0000239E  4C3C 1800 0000 00C4      mulu.l     D0, 0x18000000
000023A6  2C01                     move.l     D6, D1
000023A8  302E 000E                move.w     D0, [A6 + 0xE]
000023AC  48C0                     ext.l      D0
000023AE  E388                     lsl        D0, 1
000023B0  DC80                     add.l      D6, D0
000023B2  558F                     subq.l     A7, 2
000023B4  204D                     movea.l    A0, A5
000023B6  D1FC FFFF 7822           add.l      A0, 0xFFFF7822
000023BC  4850                     pea.l      [A0]
000023BE  7000                     moveq.l    D0, 0x00
000023C0  1F00                     move.b     -[A7], D0
000023C2  486E FFFE                pea.l      [A6 - 0x2]
000023C6  303C 0002                move.w     D0, 0x2
000023CA  AA52                     syscall    HFSPinaforeDispatch/HighLevelFSDispatch
000023CC  3A1F                     move.w     D5, [A7]+
000023CE  6704                     beq        +0x6 /* 000023D4 */
000023D0  7000                     moveq.l    D0, 0x00
000023D2  6066                     bra        +0x68 /* 0000243A */
label000023D4:
000023D4  3E2E 000A                move.w     D7, [A6 + 0xA]
label000023D8:
000023D8  558F                     subq.l     A7, 2
000023DA  3F2E FFFE                move.w     -[A7], [A6 - 0x2]
000023DE  7001                     moveq.l    D0, 0x01
000023E0  3F00                     move.w     -[A7], D0
000023E2  2F06                     move.l     -[A7], D6
000023E4  4EAD 00C2                jsr        [A5 + 0xC2 /* export_20, CODE:1 @ 000012EA */]
000023E8  3A1F                     move.w     D5, [A7]+
000023EA  6704                     beq        +0x6 /* 000023F0 */
000023EC  7000                     moveq.l    D0, 0x00
000023EE  604A                     bra        +0x4C /* 0000243A */
label000023F0:
000023F0  302E FFFE                move.w     D0, [A6 - 0x2]
000023F4  48C0                     ext.l      D0
000023F6  2F00                     move.l     -[A7], D0
000023F8  7001                     moveq.l    D0, 0x01
000023FA  2F00                     move.l     -[A7], D0
000023FC  7202                     moveq.l    D1, 0x02
000023FE  2F01                     move.l     -[A7], D1
00002400  7400                     moveq.l    D2, 0x00
00002402  3407                     move.w     D2, D7
00002404  4874 2A00                pea.l      [A4 + D2 * 2]
00002408  4EAD 141A                jsr        [A5 + 0x141A /* export_639, CODE:27 @ 00002B78 */]
0000240C  0686 0000 00C4           addi.l     D6, 0xC4
00002412  3007                     move.w     D0, D7
00002414  5247                     addq.w     D7, 1
00002416  4FEF 0010                lea.l      A7, [A7 + 0x10]
0000241A  7000                     moveq.l    D0, 0x00
0000241C  3007                     move.w     D0, D7
0000241E  48C4                     ext.l      D4
00002420  322E FFFC                move.w     D1, [A6 - 0x4]
00002424  48C1                     ext.l      D1
00002426  D284                     add.l      D1, D4
00002428  B280                     cmp.l      D1, D0
0000242A  6EAC                     bgt        -0x52 /* 000023D8 */
0000242C  558F                     subq.l     A7, 2
0000242E  3F2E FFFE                move.w     -[A7], [A6 - 0x2]
00002432  4EAD 007A                jsr        [A5 + 0x7A /* export_11, CODE:1 @ 0000118E */]
00002436  7000                     moveq.l    D0, 0x00
00002438  544F                     addq.w     A7, 2
label0000243A:
0000243A  4CEE 10F0 FFE8           movem.l    D4,D5,D6,D7,A4, [A6 - 0x18]
00002440  4E5E                     unlink     A6
00002442  4E75                     rts
00002444  9877 7269 7465 5F73 6... dc.b       "write_sched_year__FUssPs"
export_107:
00002460  4E56 FFFE                link       A6, -0x0002
00002464  48E7 0300                movem.l    -[A7], D6,D7
00002468  7000                     moveq.l    D0, 0x00
0000246A  302E 000A                move.w     D0, [A6 + 0xA]
0000246E  4A80                     tst.l      D0
00002470  4C3C 0800 0000 00C4      mulu.l     D0, 0x8000000
00002478  2E00                     move.l     D7, D0
0000247A  E58F                     lsl        D7, 2
0000247C  7000                     moveq.l    D0, 0x00
0000247E  302E 000E                move.w     D0, [A6 + 0xE]
00002482  4A80                     tst.l      D0
00002484  4C3C 0800 0000 00C4      mulu.l     D0, 0x8000000
0000248C  DE80                     add.l      D7, D0
0000248E  302E 0012                move.w     D0, [A6 + 0x12]
00002492  48C0                     ext.l      D0
00002494  E388                     lsl        D0, 1
00002496  DE80                     add.l      D7, D0
00002498  558F                     subq.l     A7, 2
0000249A  204D                     movea.l    A0, A5
0000249C  D1FC FFFF 7822           add.l      A0, 0xFFFF7822
000024A2  4850                     pea.l      [A0]
000024A4  7000                     moveq.l    D0, 0x00
000024A6  1F00                     move.b     -[A7], D0
000024A8  486E FFFE                pea.l      [A6 - 0x2]
000024AC  303C 0002                move.w     D0, 0x2
000024B0  AA52                     syscall    HFSPinaforeDispatch/HighLevelFSDispatch
000024B2  3C1F                     move.w     D6, [A7]+
000024B4  6704                     beq        +0x6 /* 000024BA */
000024B6  7000                     moveq.l    D0, 0x00
000024B8  6040                     bra        +0x42 /* 000024FA */
label000024BA:
000024BA  558F                     subq.l     A7, 2
000024BC  3F2E FFFE                move.w     -[A7], [A6 - 0x2]
000024C0  7001                     moveq.l    D0, 0x01
000024C2  3F00                     move.w     -[A7], D0
000024C4  2F07                     move.l     -[A7], D7
000024C6  4EAD 00C2                jsr        [A5 + 0xC2 /* export_20, CODE:1 @ 000012EA */]
000024CA  3C1F                     move.w     D6, [A7]+
000024CC  6704                     beq        +0x6 /* 000024D2 */
000024CE  7000                     moveq.l    D0, 0x00
000024D0  6028                     bra        +0x2A /* 000024FA */
label000024D2:
000024D2  302E FFFE                move.w     D0, [A6 - 0x2]
000024D6  48C0                     ext.l      D0
000024D8  2F00                     move.l     -[A7], D0
000024DA  7001                     moveq.l    D0, 0x01
000024DC  2F00                     move.l     -[A7], D0
000024DE  7202                     moveq.l    D1, 0x02
000024E0  2F01                     move.l     -[A7], D1
000024E2  486E 0016                pea.l      [A6 + 0x16]
000024E6  4EAD 141A                jsr        [A5 + 0x141A /* export_639, CODE:27 @ 00002B78 */]
000024EA  558F                     subq.l     A7, 2
000024EC  3F2E FFFE                move.w     -[A7], [A6 - 0x2]
000024F0  4EAD 007A                jsr        [A5 + 0x7A /* export_11, CODE:1 @ 0000118E */]
000024F4  7000                     moveq.l    D0, 0x00
000024F6  4FEF 0012                lea.l      A7, [A7 + 0x12]
label000024FA:
000024FA  4CEE 00C0 FFF6           movem.l    D6,D7, [A6 - 0xA]
00002500  4E5E                     unlink     A6
00002502  4E75                     rts
00002504  9A77 7269 7465 5F73 6... dc.b       "write_sched_week__FUsT1sT3"
export_108:
00002522  4E56 FFFE                link       A6, -0x0002
00002526  48E7 0F08                movem.l    -[A7], D4,D5,D6,D7,A4
0000252A  286E 000C                movea.l    A4, [A6 + 0xC]
0000252E  182E 000B                move.b     D4, [A6 + 0xB]
00002532  558F                     subq.l     A7, 2
00002534  204D                     movea.l    A0, A5
00002536  D1FC FFFF 7822           add.l      A0, 0xFFFF7822
0000253C  4850                     pea.l      [A0]
0000253E  7000                     moveq.l    D0, 0x00
00002540  1F00                     move.b     -[A7], D0
00002542  486E FFFE                pea.l      [A6 - 0x2]
00002546  303C 0002                move.w     D0, 0x2
0000254A  AA52                     syscall    HFSPinaforeDispatch/HighLevelFSDispatch
0000254C  3A1F                     move.w     D5, [A7]+
0000254E  6704                     beq        +0x6 /* 00002554 */
00002550  7000                     moveq.l    D0, 0x00
00002552  6070                     bra        +0x72 /* 000025C4 */
label00002554:
00002554  4247                     clr.w      D7
00002556  6054                     bra        +0x56 /* 000025AC */
label00002558:
00002558  7000                     moveq.l    D0, 0x00
0000255A  3007                     move.w     D0, D7
0000255C  4A80                     tst.l      D0
0000255E  4C3C 0800 0000 00C4      mulu.l     D0, 0x8000000
00002566  49C4                     lea.l      A4, D4
00002568  2204                     move.l     D1, D4
0000256A  E389                     lsl        D1, 1
0000256C  2C01                     move.l     D6, D1
0000256E  DC80                     add.l      D6, D0
00002570  558F                     subq.l     A7, 2
00002572  3F2E FFFE                move.w     -[A7], [A6 - 0x2]
00002576  7001                     moveq.l    D0, 0x01
00002578  3F00                     move.w     -[A7], D0
0000257A  2F06                     move.l     -[A7], D6
0000257C  4EAD 00C2                jsr        [A5 + 0xC2 /* export_20, CODE:1 @ 000012EA */]
00002580  3A1F                     move.w     D5, [A7]+
00002582  6704                     beq        +0x6 /* 00002588 */
00002584  7000                     moveq.l    D0, 0x00
00002586  603C                     bra        +0x3E /* 000025C4 */
label00002588:
00002588  302E FFFE                move.w     D0, [A6 - 0x2]
0000258C  48C0                     ext.l      D0
0000258E  2F00                     move.l     -[A7], D0
00002590  7001                     moveq.l    D0, 0x01
00002592  2F00                     move.l     -[A7], D0
00002594  7202                     moveq.l    D1, 0x02
00002596  2F01                     move.l     -[A7], D1
00002598  7400                     moveq.l    D2, 0x00
0000259A  3407                     move.w     D2, D7
0000259C  4874 2A00                pea.l      [A4 + D2 * 2]
000025A0  4EAD 141A                jsr        [A5 + 0x141A /* export_639, CODE:27 @ 00002B78 */]
000025A4  4FEF 0010                lea.l      A7, [A7 + 0x10]
000025A8  3007                     move.w     D0, D7
000025AA  5247                     addq.w     D7, 1
label000025AC:
000025AC  7000                     moveq.l    D0, 0x00
000025AE  3007                     move.w     D0, D7
000025B0  0C40 00F0                cmpi.w     D0, 0xF0
000025B4  65A2                     bcs        -0x5C /* 00002558 */
000025B6  558F                     subq.l     A7, 2
000025B8  3F2E FFFE                move.w     -[A7], [A6 - 0x2]
000025BC  4EAD 007A                jsr        [A5 + 0x7A /* export_11, CODE:1 @ 0000118E */]
000025C0  7000                     moveq.l    D0, 0x00
000025C2  544F                     addq.w     A7, 2
label000025C4:
000025C4  4CEE 10F0 FFEA           movem.l    D4,D5,D6,D7,A4, [A6 - 0x16]
000025CA  4E5E                     unlink     A6
000025CC  4E75                     rts
000025CE  9777 7269 7465 5F73 6... dc.b       "write_sched_field__FcPs"
export_109:
000025E8  4E56 FFFE                link       A6, -0x0002
000025EC  48E7 0F08                movem.l    -[A7], D4,D5,D6,D7,A4
000025F0  286E 000C                movea.l    A4, [A6 + 0xC]
000025F4  182E 000B                move.b     D4, [A6 + 0xB]
000025F8  558F                     subq.l     A7, 2
000025FA  204D                     movea.l    A0, A5
000025FC  D1FC FFFF 7822           add.l      A0, 0xFFFF7822
00002602  4850                     pea.l      [A0]
00002604  7000                     moveq.l    D0, 0x00
00002606  1F00                     move.b     -[A7], D0
00002608  486E FFFE                pea.l      [A6 - 0x2]
0000260C  303C 0002                move.w     D0, 0x2
00002610  AA52                     syscall    HFSPinaforeDispatch/HighLevelFSDispatch
00002612  3A1F                     move.w     D5, [A7]+
00002614  6704                     beq        +0x6 /* 0000261A */
00002616  7000                     moveq.l    D0, 0x00
00002618  6070                     bra        +0x72 /* 0000268A */
label0000261A:
0000261A  4247                     clr.w      D7
0000261C  6054                     bra        +0x56 /* 00002672 */
label0000261E:
0000261E  7000                     moveq.l    D0, 0x00
00002620  3007                     move.w     D0, D7
00002622  4A80                     tst.l      D0
00002624  4C3C 0800 0000 00C4      mulu.l     D0, 0x8000000
0000262C  49C4                     lea.l      A4, D4
0000262E  2204                     move.l     D1, D4
00002630  E389                     lsl        D1, 1
00002632  2C01                     move.l     D6, D1
00002634  DC80                     add.l      D6, D0
00002636  558F                     subq.l     A7, 2
00002638  3F2E FFFE                move.w     -[A7], [A6 - 0x2]
0000263C  7001                     moveq.l    D0, 0x01
0000263E  3F00                     move.w     -[A7], D0
00002640  2F06                     move.l     -[A7], D6
00002642  4EAD 00C2                jsr        [A5 + 0xC2 /* export_20, CODE:1 @ 000012EA */]
00002646  3A1F                     move.w     D5, [A7]+
00002648  6704                     beq        +0x6 /* 0000264E */
0000264A  7000                     moveq.l    D0, 0x00
0000264C  603C                     bra        +0x3E /* 0000268A */
label0000264E:
0000264E  302E FFFE                move.w     D0, [A6 - 0x2]
00002652  48C0                     ext.l      D0
00002654  2F00                     move.l     -[A7], D0
00002656  7001                     moveq.l    D0, 0x01
00002658  2F00                     move.l     -[A7], D0
0000265A  7202                     moveq.l    D1, 0x02
0000265C  2F01                     move.l     -[A7], D1
0000265E  7400                     moveq.l    D2, 0x00
00002660  3407                     move.w     D2, D7
00002662  4874 2A00                pea.l      [A4 + D2 * 2]
00002666  4EAD 1412                jsr        [A5 + 0x1412 /* export_638, CODE:27 @ 00002B38 */]
0000266A  4FEF 0010                lea.l      A7, [A7 + 0x10]
0000266E  3007                     move.w     D0, D7
00002670  5247                     addq.w     D7, 1
label00002672:
00002672  7000                     moveq.l    D0, 0x00
00002674  3007                     move.w     D0, D7
00002676  0C40 00F0                cmpi.w     D0, 0xF0
0000267A  65A2                     bcs        -0x5C /* 0000261E */
0000267C  558F                     subq.l     A7, 2
0000267E  3F2E FFFE                move.w     -[A7], [A6 - 0x2]
00002682  4EAD 007A                jsr        [A5 + 0x7A /* export_11, CODE:1 @ 0000118E */]
00002686  7000                     moveq.l    D0, 0x00
00002688  544F                     addq.w     A7, 2
label0000268A:
0000268A  4CEE 10F0 FFEA           movem.l    D4,D5,D6,D7,A4, [A6 - 0x16]
00002690  4E5E                     unlink     A6
00002692  4E75                     rts
00002694  9672 6561 645F 7363 6... dc.b       "read_sched_field__FcPs"
export_110:
000026AE  4E56 FFFC                link       A6, -0x0004
000026B2  48E7 0300                movem.l    -[A7], D6,D7
000026B6  7000                     moveq.l    D0, 0x00
000026B8  302E 000A                move.w     D0, [A6 + 0xA]
000026BC  4A80                     tst.l      D0
000026BE  4C3C 0800 0000 00C4      mulu.l     D0, 0x8000000
000026C6  2E00                     move.l     D7, D0
000026C8  E58F                     lsl        D7, 2
000026CA  7000                     moveq.l    D0, 0x00
000026CC  302E 000E                move.w     D0, [A6 + 0xE]
000026D0  4A80                     tst.l      D0
000026D2  4C3C 0800 0000 00C4      mulu.l     D0, 0x8000000
000026DA  DE80                     add.l      D7, D0
000026DC  302E 0012                move.w     D0, [A6 + 0x12]
000026E0  48C0                     ext.l      D0
000026E2  E388                     lsl        D0, 1
000026E4  DE80                     add.l      D7, D0
000026E6  558F                     subq.l     A7, 2
000026E8  204D                     movea.l    A0, A5
000026EA  D1FC FFFF 7822           add.l      A0, 0xFFFF7822
000026F0  4850                     pea.l      [A0]
000026F2  7000                     moveq.l    D0, 0x00
000026F4  1F00                     move.b     -[A7], D0
000026F6  486E FFFE                pea.l      [A6 - 0x2]
000026FA  303C 0002                move.w     D0, 0x2
000026FE  AA52                     syscall    HFSPinaforeDispatch/HighLevelFSDispatch
00002700  3C1F                     move.w     D6, [A7]+
00002702  6710                     beq        +0x12 /* 00002714 */
00002704  204D                     movea.l    A0, A5
00002706  D1FC FFFD AF3C           add.l      A0, 0xFFFDAF3C
0000270C  4850                     pea.l      [A0]
0000270E  ABFF                     syscall    DebugStr
00002710  7000                     moveq.l    D0, 0x00
00002712  6042                     bra        +0x44 /* 00002756 */
label00002714:
00002714  558F                     subq.l     A7, 2
00002716  3F2E FFFE                move.w     -[A7], [A6 - 0x2]
0000271A  7001                     moveq.l    D0, 0x01
0000271C  3F00                     move.w     -[A7], D0
0000271E  2F07                     move.l     -[A7], D7
00002720  4EAD 00C2                jsr        [A5 + 0xC2 /* export_20, CODE:1 @ 000012EA */]
00002724  3C1F                     move.w     D6, [A7]+
00002726  6704                     beq        +0x6 /* 0000272C */
00002728  7000                     moveq.l    D0, 0x00
0000272A  602A                     bra        +0x2C /* 00002756 */
label0000272C:
0000272C  302E FFFE                move.w     D0, [A6 - 0x2]
00002730  48C0                     ext.l      D0
00002732  2F00                     move.l     -[A7], D0
00002734  7001                     moveq.l    D0, 0x01
00002736  2F00                     move.l     -[A7], D0
00002738  7202                     moveq.l    D1, 0x02
0000273A  2F01                     move.l     -[A7], D1
0000273C  486E FFFC                pea.l      [A6 - 0x4]
00002740  4EAD 1412                jsr        [A5 + 0x1412 /* export_638, CODE:27 @ 00002B38 */]
00002744  558F                     subq.l     A7, 2
00002746  3F2E FFFE                move.w     -[A7], [A6 - 0x2]
0000274A  4EAD 007A                jsr        [A5 + 0x7A /* export_11, CODE:1 @ 0000118E */]
0000274E  302E FFFC                move.w     D0, [A6 - 0x4]
00002752  4FEF 0012                lea.l      A7, [A7 + 0x12]
label00002756:
00002756  4CEE 00C0 FFF4           movem.l    D6,D7, [A6 - 0xC]
0000275C  4E5E                     unlink     A6
0000275E  4E75                     rts
00002760  9772 6561 645F 7363 6... dc.b       "read_sched_week__FUsT1s"
export_111:
fn0000277A:
0000277A  4E56 FFFE                link       A6, -0x0002
0000277E  48E7 0700                movem.l    -[A7], D5,D6,D7
00002782  4246                     clr.w      D6
00002784  7000                     moveq.l    D0, 0x00
00002786  302E 000A                move.w     D0, [A6 + 0xA]
0000278A  4A80                     tst.l      D0
0000278C  4C3C 0800 0000 00C4      mulu.l     D0, 0x8000000
00002794  2A00                     move.l     D5, D0
00002796  E58D                     lsl        D5, 2
00002798  558F                     subq.l     A7, 2
0000279A  204D                     movea.l    A0, A5
0000279C  D1FC FFFF 7822           add.l      A0, 0xFFFF7822
000027A2  4850                     pea.l      [A0]
000027A4  7000                     moveq.l    D0, 0x00
000027A6  1F00                     move.b     -[A7], D0
000027A8  486E FFFE                pea.l      [A6 - 0x2]
000027AC  303C 0002                move.w     D0, 0x2
000027B0  AA52                     syscall    HFSPinaforeDispatch/HighLevelFSDispatch
000027B2  3E1F                     move.w     D7, [A7]+
000027B4  6704                     beq        +0x6 /* 000027BA */
000027B6  7000                     moveq.l    D0, 0x00
000027B8  6040                     bra        +0x42 /* 000027FA */
label000027BA:
000027BA  558F                     subq.l     A7, 2
000027BC  3F2E FFFE                move.w     -[A7], [A6 - 0x2]
000027C0  7001                     moveq.l    D0, 0x01
000027C2  3F00                     move.w     -[A7], D0
000027C4  2F05                     move.l     -[A7], D5
000027C6  4EAD 00C2                jsr        [A5 + 0xC2 /* export_20, CODE:1 @ 000012EA */]
000027CA  3E1F                     move.w     D7, [A7]+
000027CC  6704                     beq        +0x6 /* 000027D2 */
000027CE  7000                     moveq.l    D0, 0x00
000027D0  6028                     bra        +0x2A /* 000027FA */
label000027D2:
000027D2  302E FFFE                move.w     D0, [A6 - 0x2]
000027D6  48C0                     ext.l      D0
000027D8  2F00                     move.l     -[A7], D0
000027DA  4878 0498                push.l     0x498
000027DE  7002                     moveq.l    D0, 0x02
000027E0  2F00                     move.l     -[A7], D0
000027E2  2F2E 000C                move.l     -[A7], [A6 + 0xC]
000027E6  4EAD 1412                jsr        [A5 + 0x1412 /* export_638, CODE:27 @ 00002B38 */]
000027EA  558F                     subq.l     A7, 2
000027EC  3F2E FFFE                move.w     -[A7], [A6 - 0x2]
000027F0  4EAD 007A                jsr        [A5 + 0x7A /* export_11, CODE:1 @ 0000118E */]
000027F4  3006                     move.w     D0, D6
000027F6  4FEF 0012                lea.l      A7, [A7 + 0x12]
label000027FA:
000027FA  4CEE 00E0 FFF2           movem.l    D5,D6,D7, [A6 - 0xE]
00002800  4E5E                     unlink     A6
00002802  4E75                     rts
00002804  9872 6561 645F 7363 6... dc.b       "read_sched_trimth__FUsPs"
export_112:
00002820  4E56 FFFE                link       A6, -0x0002
00002824  48E7 0300                movem.l    -[A7], D6,D7
00002828  7000                     moveq.l    D0, 0x00
0000282A  302E 000A                move.w     D0, [A6 + 0xA]
0000282E  4A80                     tst.l      D0
00002830  4C3C 0800 0000 00C4      mulu.l     D0, 0x8000000
00002838  2C00                     move.l     D6, D0
0000283A  E58E                     lsl        D6, 2
0000283C  558F                     subq.l     A7, 2
0000283E  204D                     movea.l    A0, A5
00002840  D1FC FFFF 7822           add.l      A0, 0xFFFF7822
00002846  4850                     pea.l      [A0]
00002848  7000                     moveq.l    D0, 0x00
0000284A  1F00                     move.b     -[A7], D0
0000284C  486E FFFE                pea.l      [A6 - 0x2]
00002850  303C 0002                move.w     D0, 0x2
00002854  AA52                     syscall    HFSPinaforeDispatch/HighLevelFSDispatch
00002856  3E1F                     move.w     D7, [A7]+
00002858  6704                     beq        +0x6 /* 0000285E */
0000285A  7000                     moveq.l    D0, 0x00
0000285C  6040                     bra        +0x42 /* 0000289E */
label0000285E:
0000285E  558F                     subq.l     A7, 2
00002860  3F2E FFFE                move.w     -[A7], [A6 - 0x2]
00002864  7001                     moveq.l    D0, 0x01
00002866  3F00                     move.w     -[A7], D0
00002868  2F06                     move.l     -[A7], D6
0000286A  4EAD 00C2                jsr        [A5 + 0xC2 /* export_20, CODE:1 @ 000012EA */]
0000286E  3E1F                     move.w     D7, [A7]+
00002870  6704                     beq        +0x6 /* 00002876 */
00002872  7000                     moveq.l    D0, 0x00
00002874  6028                     bra        +0x2A /* 0000289E */
label00002876:
00002876  302E FFFE                move.w     D0, [A6 - 0x2]
0000287A  48C0                     ext.l      D0
0000287C  2F00                     move.l     -[A7], D0
0000287E  4878 0498                push.l     0x498
00002882  7002                     moveq.l    D0, 0x02
00002884  2F00                     move.l     -[A7], D0
00002886  2F2E 000C                move.l     -[A7], [A6 + 0xC]
0000288A  4EAD 141A                jsr        [A5 + 0x141A /* export_639, CODE:27 @ 00002B78 */]
0000288E  558F                     subq.l     A7, 2
00002890  3F2E FFFE                move.w     -[A7], [A6 - 0x2]
00002894  4EAD 007A                jsr        [A5 + 0x7A /* export_11, CODE:1 @ 0000118E */]
00002898  7000                     moveq.l    D0, 0x00
0000289A  4FEF 0012                lea.l      A7, [A7 + 0x12]
label0000289E:
0000289E  4CEE 00C0 FFF6           movem.l    D6,D7, [A6 - 0xA]
000028A4  4E5E                     unlink     A6
000028A6  4E75                     rts
000028A8  9977 7269 7465 5F73 6... dc.b       "write_sched_trimth__FUsPs"
export_113:
000028C4  4E56 FFFE                link       A6, -0x0002
000028C8  48E7 1100                movem.l    -[A7], D3,D7
000028CC  558F                     subq.l     A7, 2
000028CE  204D                     movea.l    A0, A5
000028D0  D1FC FFFF 7822           add.l      A0, 0xFFFF7822
000028D6  4850                     pea.l      [A0]
000028D8  7000                     moveq.l    D0, 0x00
000028DA  1F00                     move.b     -[A7], D0
000028DC  486E FFFE                pea.l      [A6 - 0x2]
000028E0  303C 0002                move.w     D0, 0x2
000028E4  AA52                     syscall    HFSPinaforeDispatch/HighLevelFSDispatch
000028E6  3E1F                     move.w     D7, [A7]+
000028E8  6704                     beq        +0x6 /* 000028EE */
000028EA  7000                     moveq.l    D0, 0x00
000028EC  603E                     bra        +0x40 /* 0000292C */
label000028EE:
000028EE  4247                     clr.w      D7
000028F0  6026                     bra        +0x28 /* 00002918 */
label000028F2:
000028F2  302E FFFE                move.w     D0, [A6 - 0x2]
000028F6  48C0                     ext.l      D0
000028F8  2F00                     move.l     -[A7], D0
000028FA  4878 0498                push.l     0x498
000028FE  7002                     moveq.l    D0, 0x02
00002900  2F00                     move.l     -[A7], D0
00002902  204D                     movea.l    A0, A5
00002904  D1FC FFFE C3CE           add.l      A0, 0xFFFEC3CE
0000290A  4850                     pea.l      [A0]
0000290C  4EAD 141A                jsr        [A5 + 0x141A /* export_639, CODE:27 @ 00002B78 */]
00002910  4FEF 0010                lea.l      A7, [A7 + 0x10]
00002914  3007                     move.w     D0, D7
00002916  5247                     addq.w     D7, 1
label00002918:
00002918  0C47 0014                cmpi.w     D7, 0x14
0000291C  6DD4                     blt        -0x2A /* 000028F2 */
0000291E  558F                     subq.l     A7, 2
00002920  3F2E FFFE                move.w     -[A7], [A6 - 0x2]
00002924  4EAD 007A                jsr        [A5 + 0x7A /* export_11, CODE:1 @ 0000118E */]
00002928  7000                     moveq.l    D0, 0x00
0000292A  544F                     addq.w     A7, 2
label0000292C:
0000292C  4CEE 0088 FFF6           movem.l    D3,D7, [A6 - 0xA]
00002932  4E5E                     unlink     A6
00002934  4E75                     rts
00002936  9669 6E69 745F 7363 6... dc.b       "init_sched_history__Fv"
export_114:
00002950  4E56 FD88                link       A6, -0x0278
00002954  48E7 0F18                movem.l    -[A7], D4,D5,D6,D7,A3,A4
00002958  47EE FDA6                lea.l      A3, [A6 - 0x25A]
0000295C  49EE FE08                lea.l      A4, [A6 - 0x1F8]
00002960  42AB 005C                clr.l      [A3 + 0x5C]
00002964  42AB 0058                clr.l      [A3 + 0x58]
00002968  42AB 0054                clr.l      [A3 + 0x54]
0000296C  42AB 0050                clr.l      [A3 + 0x50]
00002970  42AB 004C                clr.l      [A3 + 0x4C]
00002974  42AB 0048                clr.l      [A3 + 0x48]
00002978  42AB 0044                clr.l      [A3 + 0x44]
0000297C  42AB 0040                clr.l      [A3 + 0x40]
00002980  42AB 003C                clr.l      [A3 + 0x3C]
00002984  42AB 0038                clr.l      [A3 + 0x38]
00002988  42AB 0034                clr.l      [A3 + 0x34]
0000298C  42AB 0030                clr.l      [A3 + 0x30]
00002990  42AB 002C                clr.l      [A3 + 0x2C]
00002994  42AB 0028                clr.l      [A3 + 0x28]
00002998  42AB 0024                clr.l      [A3 + 0x24]
0000299C  42AB 0020                clr.l      [A3 + 0x20]
000029A0  42AB 001C                clr.l      [A3 + 0x1C]
000029A4  42AB 0018                clr.l      [A3 + 0x18]
000029A8  42AB 0014                clr.l      [A3 + 0x14]
000029AC  42AB 0010                clr.l      [A3 + 0x10]
000029B0  42AB 000C                clr.l      [A3 + 0xC]
000029B4  42AB 0008                clr.l      [A3 + 0x8]
000029B8  42AB 0004                clr.l      [A3 + 0x4]
000029BC  4293                     clr.l      [A3]
000029BE  42AC 01DE                clr.l      [A4 + 0x1DE]
000029C2  42AC 01DA                clr.l      [A4 + 0x1DA]
000029C6  42AC 01D6                clr.l      [A4 + 0x1D6]
000029CA  42AC 01D2                clr.l      [A4 + 0x1D2]
000029CE  42AC 01CE                clr.l      [A4 + 0x1CE]
000029D2  42AC 01CA                clr.l      [A4 + 0x1CA]
000029D6  42AC 01C6                clr.l      [A4 + 0x1C6]
000029DA  42AC 01C2                clr.l      [A4 + 0x1C2]
000029DE  42AC 01BE                clr.l      [A4 + 0x1BE]
000029E2  42AC 01BA                clr.l      [A4 + 0x1BA]
000029E6  42AC 01B6                clr.l      [A4 + 0x1B6]
000029EA  42AC 01B2                clr.l      [A4 + 0x1B2]
000029EE  42AC 01AE                clr.l      [A4 + 0x1AE]
000029F2  42AC 01AA                clr.l      [A4 + 0x1AA]
000029F6  42AC 01A6                clr.l      [A4 + 0x1A6]
000029FA  42AC 01A2                clr.l      [A4 + 0x1A2]
000029FE  42AC 019E                clr.l      [A4 + 0x19E]
00002A02  42AC 019A                clr.l      [A4 + 0x19A]
00002A06  42AC 0196                clr.l      [A4 + 0x196]
00002A0A  42AC 0192                clr.l      [A4 + 0x192]
00002A0E  42AC 018E                clr.l      [A4 + 0x18E]
00002A12  42AC 018A                clr.l      [A4 + 0x18A]
00002A16  42AC 0186                clr.l      [A4 + 0x186]
00002A1A  42AC 0182                clr.l      [A4 + 0x182]
00002A1E  42AC 017E                clr.l      [A4 + 0x17E]
00002A22  42AC 017A                clr.l      [A4 + 0x17A]
00002A26  42AC 0176                clr.l      [A4 + 0x176]
00002A2A  42AC 0172                clr.l      [A4 + 0x172]
00002A2E  42AC 016E                clr.l      [A4 + 0x16E]
00002A32  42AC 016A                clr.l      [A4 + 0x16A]
00002A36  42AC 0166                clr.l      [A4 + 0x166]
00002A3A  42AC 0162                clr.l      [A4 + 0x162]
00002A3E  42AC 015E                clr.l      [A4 + 0x15E]
00002A42  42AC 015A                clr.l      [A4 + 0x15A]
00002A46  42AC 0156                clr.l      [A4 + 0x156]
00002A4A  42AC 0152                clr.l      [A4 + 0x152]
00002A4E  42AC 014E                clr.l      [A4 + 0x14E]
00002A52  42AC 014A                clr.l      [A4 + 0x14A]
00002A56  42AC 0146                clr.l      [A4 + 0x146]
00002A5A  42AC 0142                clr.l      [A4 + 0x142]
00002A5E  42AC 013E                clr.l      [A4 + 0x13E]
00002A62  42AC 013A                clr.l      [A4 + 0x13A]
00002A66  42AC 0136                clr.l      [A4 + 0x136]
00002A6A  42AC 0132                clr.l      [A4 + 0x132]
00002A6E  42AC 012E                clr.l      [A4 + 0x12E]
00002A72  42AC 012A                clr.l      [A4 + 0x12A]
00002A76  42AC 0126                clr.l      [A4 + 0x126]
00002A7A  42AC 0122                clr.l      [A4 + 0x122]
00002A7E  42AC 011E                clr.l      [A4 + 0x11E]
00002A82  42AC 011A                clr.l      [A4 + 0x11A]
00002A86  42AC 0116                clr.l      [A4 + 0x116]
00002A8A  42AC 0112                clr.l      [A4 + 0x112]
00002A8E  42AC 010E                clr.l      [A4 + 0x10E]
00002A92  42AC 010A                clr.l      [A4 + 0x10A]
00002A96  42AC 0106                clr.l      [A4 + 0x106]
00002A9A  42AC 0102                clr.l      [A4 + 0x102]
00002A9E  42AC 00FE                clr.l      [A4 + 0xFE]
00002AA2  42AC 00FA                clr.l      [A4 + 0xFA]
00002AA6  42AC 00F6                clr.l      [A4 + 0xF6]
00002AAA  42AC 00F2                clr.l      [A4 + 0xF2]
00002AAE  42AC 00EE                clr.l      [A4 + 0xEE]
00002AB2  42AC 00EA                clr.l      [A4 + 0xEA]
00002AB6  42AC 00E6                clr.l      [A4 + 0xE6]
00002ABA  42AC 00E2                clr.l      [A4 + 0xE2]
00002ABE  42AC 00DE                clr.l      [A4 + 0xDE]
00002AC2  42AC 00DA                clr.l      [A4 + 0xDA]
00002AC6  42AC 00D6                clr.l      [A4 + 0xD6]
00002ACA  42AC 00D2                clr.l      [A4 + 0xD2]
00002ACE  42AC 00CE                clr.l      [A4 + 0xCE]
00002AD2  42AC 00CA                clr.l      [A4 + 0xCA]
00002AD6  42AC 00C6                clr.l      [A4 + 0xC6]
00002ADA  42AC 00C2                clr.l      [A4 + 0xC2]
00002ADE  42AC 00BE                clr.l      [A4 + 0xBE]
00002AE2  42AC 00BA                clr.l      [A4 + 0xBA]
00002AE6  42AC 00B6                clr.l      [A4 + 0xB6]
00002AEA  42AC 00B2                clr.l      [A4 + 0xB2]
00002AEE  42AC 00AE                clr.l      [A4 + 0xAE]
00002AF2  42AC 00AA                clr.l      [A4 + 0xAA]
00002AF6  42AC 00A6                clr.l      [A4 + 0xA6]
00002AFA  42AC 00A2                clr.l      [A4 + 0xA2]
00002AFE  42AC 009E                clr.l      [A4 + 0x9E]
00002B02  42AC 009A                clr.l      [A4 + 0x9A]
00002B06  42AC 0096                clr.l      [A4 + 0x96]
00002B0A  42AC 0092                clr.l      [A4 + 0x92]
00002B0E  42AC 008E                clr.l      [A4 + 0x8E]
00002B12  42AC 008A                clr.l      [A4 + 0x8A]
00002B16  42AC 0086                clr.l      [A4 + 0x86]
00002B1A  42AC 0082                clr.l      [A4 + 0x82]
00002B1E  42AC 007E                clr.l      [A4 + 0x7E]
00002B22  42AC 007A                clr.l      [A4 + 0x7A]
00002B26  42AC 0076                clr.l      [A4 + 0x76]
00002B2A  42AC 0072                clr.l      [A4 + 0x72]
00002B2E  42AC 006E                clr.l      [A4 + 0x6E]
00002B32  42AC 006A                clr.l      [A4 + 0x6A]
00002B36  42AC 0066                clr.l      [A4 + 0x66]
00002B3A  42AC 0062                clr.l      [A4 + 0x62]
00002B3E  42AC 005E                clr.l      [A4 + 0x5E]
00002B42  42AC 005A                clr.l      [A4 + 0x5A]
00002B46  42AC 0056                clr.l      [A4 + 0x56]
00002B4A  42AC 0052                clr.l      [A4 + 0x52]
00002B4E  42AC 004E                clr.l      [A4 + 0x4E]
00002B52  42AC 004A                clr.l      [A4 + 0x4A]
00002B56  42AC 0046                clr.l      [A4 + 0x46]
00002B5A  42AC 0042                clr.l      [A4 + 0x42]
00002B5E  42AC 003E                clr.l      [A4 + 0x3E]
00002B62  42AC 003A                clr.l      [A4 + 0x3A]
00002B66  42AC 0036                clr.l      [A4 + 0x36]
00002B6A  42AC 0032                clr.l      [A4 + 0x32]
00002B6E  42AC 002E                clr.l      [A4 + 0x2E]
00002B72  42AC 002A                clr.l      [A4 + 0x2A]
00002B76  42AC 0026                clr.l      [A4 + 0x26]
00002B7A  42AC 0022                clr.l      [A4 + 0x22]
00002B7E  42AC 001E                clr.l      [A4 + 0x1E]
00002B82  42AC 001A                clr.l      [A4 + 0x1A]
00002B86  42AC 0016                clr.l      [A4 + 0x16]
00002B8A  42AC 0012                clr.l      [A4 + 0x12]
00002B8E  42AC 000E                clr.l      [A4 + 0xE]
00002B92  42AC 000A                clr.l      [A4 + 0xA]
00002B96  42AC 0006                clr.l      [A4 + 0x6]
00002B9A  42AC 0002                clr.l      [A4 + 0x2]
00002B9E  4254                     clr.w      [A4]
00002BA0  3D7C 00D1 FD94           move.w     [A6 - 0x26C], 0xD1
00002BA6  1D7C 0001 FD97           move.b     [A6 - 0x269], 0x1
00002BAC  426E FD9C                clr.w      [A6 - 0x264]
00002BB0  422E FFF5                clr.b      [A6 - 0xB]
00002BB4  2D7C 0000 B884 FFF6      move.l     [A6 - 0xA], 0xB884
00002BBC  202E FFF6                move.l     D0, [A6 - 0xA]
00002BC0  A11E                     syscall    NewPtr, flags=1
00002BC2  2D48 FFF0                move.l     [A6 - 0x10], A0
00002BC6  2008                     move.l     D0, A0
00002BC8  6638                     bne        +0x3A /* 00002C02 */
00002BCA  598F                     subq.l     A7, 4
00002BCC  2F2E FFF6                move.l     -[A7], [A6 - 0xA]
00002BD0  486E FD88                pea.l      [A6 - 0x278]
00002BD4  3F3C 001D                move.w     -[A7], 0x1D
00002BD8  A88F                     syscall    OSDispatch
00002BDA  2D5F FFFA                move.l     [A6 - 0x6], [A7]+
00002BDE  6606                     bne        +0x8 /* 00002BE6 */
00002BE0  7000                     moveq.l    D0, 0x00
00002BE2  6000 057A                bra        +0x57C /* 0000315E */
label00002BE6:
00002BE6  2F2E FFFA                move.l     -[A7], [A6 - 0x6]
00002BEA  486E FD88                pea.l      [A6 - 0x278]
00002BEE  3F3C 001E                move.w     -[A7], 0x1E
00002BF2  A88F                     syscall    OSDispatch
00002BF4  1D7C 0001 FFF5           move.b     [A6 - 0xB], 0x1
00002BFA  206E FFFA                movea.l    A0, [A6 - 0x6]
00002BFE  2D50 FFF0                move.l     [A6 - 0x10], [A0]
label00002C02:
00002C02  2D7C 0000 24C0 FD8C      move.l     [A6 - 0x274], 0x24C0
00002C0A  7000                     moveq.l    D0, 0x00
00002C0C  2D40 FD90                move.l     [A6 - 0x270], D0
00002C10  558F                     subq.l     A7, 2
00002C12  204D                     movea.l    A0, A5
00002C14  D1FC FFFF 7822           add.l      A0, 0xFFFF7822
00002C1A  4850                     pea.l      [A0]
00002C1C  7000                     moveq.l    D0, 0x00
00002C1E  1F00                     move.b     -[A7], D0
00002C20  486E FD8A                pea.l      [A6 - 0x276]
00002C24  303C 0002                move.w     D0, 0x2
00002C28  AA52                     syscall    HFSPinaforeDispatch/HighLevelFSDispatch
00002C2A  3D5F FFFE                move.w     [A6 - 0x2], [A7]+
00002C2E  6706                     beq        +0x8 /* 00002C36 */
00002C30  7000                     moveq.l    D0, 0x00
00002C32  6000 052A                bra        +0x52C /* 0000315E */
label00002C36:
00002C36  558F                     subq.l     A7, 2
00002C38  3F2E FD8A                move.w     -[A7], [A6 - 0x276]
00002C3C  7001                     moveq.l    D0, 0x01
00002C3E  3F00                     move.w     -[A7], D0
00002C40  2F2E FD8C                move.l     -[A7], [A6 - 0x274]
00002C44  4EAD 00C2                jsr        [A5 + 0xC2 /* export_20, CODE:1 @ 000012EA */]
00002C48  3D5F FFFE                move.w     [A6 - 0x2], [A7]+
00002C4C  6706                     beq        +0x8 /* 00002C54 */
00002C4E  7000                     moveq.l    D0, 0x00
00002C50  6000 050C                bra        +0x50E /* 0000315E */
label00002C54:
00002C54  302E FD8A                move.w     D0, [A6 - 0x276]
00002C58  48C0                     ext.l      D0
00002C5A  2F00                     move.l     -[A7], D0
00002C5C  4878 4980                push.l     0x4980
00002C60  7002                     moveq.l    D0, 0x02
00002C62  2F00                     move.l     -[A7], D0
00002C64  2F2E FFF0                move.l     -[A7], [A6 - 0x10]
00002C68  4EAD 1412                jsr        [A5 + 0x1412 /* export_638, CODE:27 @ 00002B38 */]
00002C6C  3D7C 0001 FD98           move.w     [A6 - 0x268], 0x1
00002C72  426E FD9A                clr.w      [A6 - 0x266]
00002C76  206E FFF0                movea.l    A0, [A6 - 0x10]
00002C7A  2D48 FFEC                move.l     [A6 - 0x14], A0
00002C7E  4FEF 0010                lea.l      A7, [A7 + 0x10]
00002C82  6000 042A                bra        +0x42C /* 000030AE */
label00002C86:
00002C86  302E FD98                move.w     D0, [A6 - 0x268]
00002C8A  C1FC 0044                muls.w     D0, 0x44 /* 'D' */
00002C8E  204D                     movea.l    A0, A5
00002C90  D1FC FFFD AFAE           add.l      A0, 0xFFFDAFAE
00002C96  323C 0100                move.w     D1, 0x100
00002C9A  C270 0006                and.w      D1, [A0 + D0.w + 0x6]
00002C9E  6700 0406                beq        +0x408 /* 000030A6 */
00002CA2  3E3C 00C0                move.w     D7, 0xC0
00002CA6  600A                     bra        +0xC /* 00002CB2 */
label00002CA8:
00002CA8  39BC 00D1 7200           move.w     [A4 + D7.w * 2], 0xD1
00002CAE  3007                     move.w     D0, D7
00002CB0  5247                     addq.w     D7, 1
label00002CB2:
00002CB2  7000                     moveq.l    D0, 0x00
00002CB4  3007                     move.w     D0, D7
00002CB6  0C40 00F0                cmpi.w     D0, 0xF0
00002CBA  65EC                     bcs        -0x12 /* 00002CA8 */
00002CBC  4247                     clr.w      D7
00002CBE  602C                     bra        +0x2E /* 00002CEC */
label00002CC0:
00002CC0  7000                     moveq.l    D0, 0x00
00002CC2  3007                     move.w     D0, D7
00002CC4  7262                     moveq.l    D1, 0x62
00002CC6  4C01 0800                muls.l     D0, D1
00002CCA  7200                     moveq.l    D1, 0x00
00002CCC  322E FD98                move.w     D1, [A6 - 0x268]
00002CD0  5381                     subq.l     D1, 1
00002CD2  D280                     add.l      D1, D0
00002CD4  3D41 FFEA                move.w     [A6 - 0x16], D1
00002CD8  7000                     moveq.l    D0, 0x00
00002CDA  302E FFEA                move.w     D0, [A6 - 0x16]
00002CDE  206E FFEC                movea.l    A0, [A6 - 0x14]
00002CE2  39B0 0A00 7200           move.w     [A4 + D7.w * 2], [A0 + D0 * 2]
00002CE8  3007                     move.w     D0, D7
00002CEA  5247                     addq.w     D7, 1
label00002CEC:
00002CEC  7000                     moveq.l    D0, 0x00
00002CEE  3007                     move.w     D0, D7
00002CF0  0C40 00C0                cmpi.w     D0, 0xC0
00002CF4  65CA                     bcs        -0x34 /* 00002CC0 */
00002CF6  302E FD98                move.w     D0, [A6 - 0x268]
00002CFA  C1FC 0044                muls.w     D0, 0x44 /* 'D' */
00002CFE  204D                     movea.l    A0, A5
00002D00  D1FC FFFD AFAE           add.l      A0, 0xFFFDAFAE
00002D06  1030 000E                move.b     D0, [A0 + D0.w + 0xE]
00002D0A  4880                     ext.w      D0
00002D0C  3D40 FE06                move.w     [A6 - 0x1FA], D0
00002D10  3D7C 00EF FD9C           move.w     [A6 - 0x264], 0xEF
00002D16  1D7C 0001 FD97           move.b     [A6 - 0x269], 0x1
00002D1C  6000 036E                bra        +0x370 /* 0000308C */
label00002D20:
00002D20  302E FE06                move.w     D0, [A6 - 0x1FA]
00002D24  EF40                     asl        D0.w, 7
00002D26  204D                     movea.l    A0, A5
00002D28  D1FC FFFD CED4           add.l      A0, 0xFFFDCED4
00002D2E  7200                     moveq.l    D1, 0x00
00002D30  1230 003E                move.b     D1, [A0 + D0.w + 0x3E]
00002D34  4A81                     tst.l      D1
00002D36  0801 0000                btst.b     D1, 0x0
00002D3A  6700 0182                beq        +0x184 /* 00002EBE */
00002D3E  302E FD9C                move.w     D0, [A6 - 0x264]
00002D42  7200                     moveq.l    D1, 0x00
00002D44  3234 0200                move.w     D1, [A4 + D0.w * 2]
00002D48  4A81                     tst.l      D1
00002D4A  204D                     movea.l    A0, A5
00002D4C  D1FC FFFF 794E           add.l      A0, 0xFFFF794E
00002D52  3010                     move.w     D0, [A0]
00002D54  48C0                     ext.l      D0
00002D56  B081                     cmp.l      D0, D1
00002D58  6600 032A                bne        +0x32C /* 00003084 */
00002D5C  422E FD97                clr.b      [A6 - 0x269]
00002D60  3C2E FE06                move.w     D6, [A6 - 0x1FA]
00002D64  426E FDA4                clr.w      [A6 - 0x25C]
00002D68  3006                     move.w     D0, D6
00002D6A  D07C 0012                add.w      D0, 0x12
00002D6E  D040                     add.w      D0, D0
00002D70  204D                     movea.l    A0, A5
00002D72  D1FC FFFF 7942           add.l      A0, 0xFFFF7942
00002D78  3D70 0000 FD9E           move.w     [A6 - 0x262], [A0 + D0.w]
00002D7E  2006                     move.l     D0, D6
00002D80  EF40                     asl        D0.w, 7
00002D82  204D                     movea.l    A0, A5
00002D84  D1FC FFFD CED4           add.l      A0, 0xFFFDCED4
00002D8A  3D70 001A FDA0           move.w     [A6 - 0x260], [A0 + D0.w + 0x1A]
00002D90  2006                     move.l     D0, D6
00002D92  EF40                     asl        D0.w, 7
00002D94  204D                     movea.l    A0, A5
00002D96  D1FC FFFD CED4           add.l      A0, 0xFFFDCED4
00002D9C  7200                     moveq.l    D1, 0x00
00002D9E  1230 0038                move.b     D1, [A0 + D0.w + 0x38]
00002DA2  3001                     move.w     D0, D1
00002DA4  3D40 FDA2                move.w     [A6 - 0x25E], D0
00002DA8  5440                     addq.w     D0, 2
00002DAA  3D40 FDA4                move.w     [A6 - 0x25C], D0
00002DAE  36BC 01B8                move.w     [A3], 0x1B8
00002DB2  4247                     clr.w      D7
00002DB4  605E                     bra        +0x60 /* 00002E14 */
label00002DB6:
00002DB6  2006                     move.l     D0, D6
00002DB8  EF40                     asl        D0.w, 7
00002DBA  204D                     movea.l    A0, A5
00002DBC  D1FC FFFD CED4           add.l      A0, 0xFFFDCED4
00002DC2  7200                     moveq.l    D1, 0x00
00002DC4  1230 0038                move.b     D1, [A0 + D0.w + 0x38]
00002DC8  2006                     move.l     D0, D6
00002DCA  EF40                     asl        D0.w, 7
00002DCC  204D                     movea.l    A0, A5
00002DCE  D1FC FFFD CED4           add.l      A0, 0xFFFDCED4
00002DD4  7400                     moveq.l    D2, 0x00
00002DD6  1430 0042                move.b     D2, [A0 + D0.w + 0x42]
00002DDA  5542                     subq.w     D2, 2
00002DDC  D441                     add.w      D2, D1
00002DDE  2006                     move.l     D0, D6
00002DE0  EF40                     asl        D0.w, 7
00002DE2  204D                     movea.l    A0, A5
00002DE4  D1FC FFFD CED4           add.l      A0, 0xFFFDCED4
00002DEA  7200                     moveq.l    D1, 0x00
00002DEC  1230 0042                move.b     D1, [A0 + D0.w + 0x42]
00002DF0  48C2                     ext.l      D2
00002DF2  85C1                     divs.w     D2, D1
00002DF4  3802                     move.w     D4, D2
00002DF6  7000                     moveq.l    D0, 0x00
00002DF8  3007                     move.w     D0, D7
00002DFA  80C4                     divu.w     D0, D4
00002DFC  3800                     move.w     D4, D0
00002DFE  302E FDA0                move.w     D0, [A6 - 0x260]
00002E02  D06E FD9E                add.w      D0, [A6 - 0x262]
00002E06  D044                     add.w      D0, D4
00002E08  3207                     move.w     D1, D7
00002E0A  5241                     addq.w     D1, 1
00002E0C  3780 1200                move.w     [A3 + D1.w * 2], D0
00002E10  3007                     move.w     D0, D7
00002E12  5247                     addq.w     D7, 1
label00002E14:
00002E14  BE6E FDA2                cmp.w      D7, [A6 - 0x25E]
00002E18  659C                     bcs        -0x62 /* 00002DB6 */
00002E1A  302E FDA2                move.w     D0, [A6 - 0x25E]
00002E1E  5240                     addq.w     D0, 1
00002E20  37BC 01B8 0200           move.w     [A3 + D0.w * 2], 0x1B8
00002E26  3E2E FD9C                move.w     D7, [A6 - 0x264]
00002E2A  4245                     clr.w      D5
00002E2C  6048                     bra        +0x4A /* 00002E76 */
label00002E2E:
00002E2E  BA6E FDA4                cmp.w      D5, [A6 - 0x25C]
00002E32  6534                     bcs        +0x36 /* 00002E68 */
00002E34  2006                     move.l     D0, D6
00002E36  EF40                     asl        D0.w, 7
00002E38  204D                     movea.l    A0, A5
00002E3A  D1FC FFFD CED4           add.l      A0, 0xFFFDCED4
00002E40  7200                     moveq.l    D1, 0x00
00002E42  1230 003E                move.b     D1, [A0 + D0.w + 0x3E]
00002E46  4A81                     tst.l      D1
00002E48  0801 0000                btst.b     D1, 0x0
00002E4C  6718                     beq        +0x1A /* 00002E66 */
00002E4E  2006                     move.l     D0, D6
00002E50  EF40                     asl        D0.w, 7
00002E52  204D                     movea.l    A0, A5
00002E54  D1FC FFFD CED4           add.l      A0, 0xFFFDCED4
00002E5A  1030 0012                move.b     D0, [A0 + D0.w + 0x12]
00002E5E  4880                     ext.w      D0
00002E60  3A00                     move.w     D5, D0
00002E62  5245                     addq.w     D5, 1
00002E64  6002                     bra        +0x4 /* 00002E68 */
label00002E66:
00002E66  4245                     clr.w      D5
label00002E68:
00002E68  39B3 5200 7200           move.w     [A4 + D7.w * 2], [A3 + D5.w * 2]
00002E6E  3007                     move.w     D0, D7
00002E70  5247                     addq.w     D7, 1
00002E72  3005                     move.w     D0, D5
00002E74  5245                     addq.w     D5, 1
label00002E76:
00002E76  7000                     moveq.l    D0, 0x00
00002E78  3007                     move.w     D0, D7
00002E7A  0C40 00F0                cmpi.w     D0, 0xF0
00002E7E  65AE                     bcs        -0x50 /* 00002E2E */
00002E80  4247                     clr.w      D7
00002E82  602C                     bra        +0x2E /* 00002EB0 */
label00002E84:
00002E84  7000                     moveq.l    D0, 0x00
00002E86  3007                     move.w     D0, D7
00002E88  7262                     moveq.l    D1, 0x62
00002E8A  4C01 0800                muls.l     D0, D1
00002E8E  7200                     moveq.l    D1, 0x00
00002E90  322E FD98                move.w     D1, [A6 - 0x268]
00002E94  5381                     subq.l     D1, 1
00002E96  D280                     add.l      D1, D0
00002E98  3D41 FFEA                move.w     [A6 - 0x16], D1
00002E9C  7000                     moveq.l    D0, 0x00
00002E9E  302E FFEA                move.w     D0, [A6 - 0x16]
00002EA2  206E FFEC                movea.l    A0, [A6 - 0x14]
00002EA6  31B4 7200 0A00           move.w     [A0 + D0 * 2], [A4 + D7.w * 2]
00002EAC  3007                     move.w     D0, D7
00002EAE  5247                     addq.w     D7, 1
label00002EB0:
00002EB0  7000                     moveq.l    D0, 0x00
00002EB2  3007                     move.w     D0, D7
00002EB4  0C40 00F0                cmpi.w     D0, 0xF0
00002EB8  65CA                     bcs        -0x34 /* 00002E84 */
00002EBA  6000 01C8                bra        +0x1CA /* 00003084 */
label00002EBE:
00002EBE  302E FD9C                move.w     D0, [A6 - 0x264]
00002EC2  7200                     moveq.l    D1, 0x00
00002EC4  3234 0200                move.w     D1, [A4 + D0.w * 2]
00002EC8  4A81                     tst.l      D1
00002ECA  204D                     movea.l    A0, A5
00002ECC  D1FC FFFF 79F0           add.l      A0, 0xFFFF79F0
00002ED2  3010                     move.w     D0, [A0]
00002ED4  48C0                     ext.l      D0
00002ED6  B081                     cmp.l      D0, D1
00002ED8  6E00 01AA                bgt        +0x1AC /* 00003084 */
00002EDC  302E FD9C                move.w     D0, [A6 - 0x264]
00002EE0  7200                     moveq.l    D1, 0x00
00002EE2  3234 0200                move.w     D1, [A4 + D0.w * 2]
00002EE6  4A81                     tst.l      D1
00002EE8  204D                     movea.l    A0, A5
00002EEA  D1FC FFFF 79F0           add.l      A0, 0xFFFF79F0
00002EF0  3010                     move.w     D0, [A0]
00002EF2  48C0                     ext.l      D0
00002EF4  7410                     moveq.l    D2, 0x10
00002EF6  D082                     add.l      D0, D2
00002EF8  B081                     cmp.l      D0, D1
00002EFA  6F00 0188                ble        +0x18A /* 00003084 */
00002EFE  422E FD97                clr.b      [A6 - 0x269]
00002F02  302E FD9C                move.w     D0, [A6 - 0x264]
00002F06  7200                     moveq.l    D1, 0x00
00002F08  3234 0200                move.w     D1, [A4 + D0.w * 2]
00002F0C  4A81                     tst.l      D1
00002F0E  204D                     movea.l    A0, A5
00002F10  D1FC FFFF 79F0           add.l      A0, 0xFFFF79F0
00002F16  3010                     move.w     D0, [A0]
00002F18  48C0                     ext.l      D0
00002F1A  2C01                     move.l     D6, D1
00002F1C  9C80                     sub.l      D6, D0
00002F1E  426E FDA4                clr.w      [A6 - 0x25C]
00002F22  3006                     move.w     D0, D6
00002F24  D07C 0012                add.w      D0, 0x12
00002F28  D040                     add.w      D0, D0
00002F2A  204D                     movea.l    A0, A5
00002F2C  D1FC FFFF 7942           add.l      A0, 0xFFFF7942
00002F32  3D70 0000 FD9E           move.w     [A6 - 0x262], [A0 + D0.w]
00002F38  2006                     move.l     D0, D6
00002F3A  EF40                     asl        D0.w, 7
00002F3C  204D                     movea.l    A0, A5
00002F3E  D1FC FFFD CED4           add.l      A0, 0xFFFDCED4
00002F44  3D70 001A FDA0           move.w     [A6 - 0x260], [A0 + D0.w + 0x1A]
00002F4A  2006                     move.l     D0, D6
00002F4C  EF40                     asl        D0.w, 7
00002F4E  204D                     movea.l    A0, A5
00002F50  D1FC FFFD CED4           add.l      A0, 0xFFFDCED4
00002F56  7200                     moveq.l    D1, 0x00
00002F58  1230 0038                move.b     D1, [A0 + D0.w + 0x38]
00002F5C  3001                     move.w     D0, D1
00002F5E  3D40 FDA2                move.w     [A6 - 0x25E], D0
00002F62  5440                     addq.w     D0, 2
00002F64  3D40 FDA4                move.w     [A6 - 0x25C], D0
00002F68  3006                     move.w     D0, D6
00002F6A  D07C 0057                add.w      D0, 0x57 /* 'W' */
00002F6E  D040                     add.w      D0, D0
00002F70  204D                     movea.l    A0, A5
00002F72  D1FC FFFF 7942           add.l      A0, 0xFFFF7942
00002F78  36B0 0000                move.w     [A3], [A0 + D0.w]
00002F7C  4247                     clr.w      D7
00002F7E  605E                     bra        +0x60 /* 00002FDE */
label00002F80:
00002F80  2006                     move.l     D0, D6
00002F82  EF40                     asl        D0.w, 7
00002F84  204D                     movea.l    A0, A5
00002F86  D1FC FFFD CED4           add.l      A0, 0xFFFDCED4
00002F8C  7200                     moveq.l    D1, 0x00
00002F8E  1230 0038                move.b     D1, [A0 + D0.w + 0x38]
00002F92  2006                     move.l     D0, D6
00002F94  EF40                     asl        D0.w, 7
00002F96  204D                     movea.l    A0, A5
00002F98  D1FC FFFD CED4           add.l      A0, 0xFFFDCED4
00002F9E  7400                     moveq.l    D2, 0x00
00002FA0  1430 0042                move.b     D2, [A0 + D0.w + 0x42]
00002FA4  5542                     subq.w     D2, 2
00002FA6  D441                     add.w      D2, D1
00002FA8  2006                     move.l     D0, D6
00002FAA  EF40                     asl        D0.w, 7
00002FAC  204D                     movea.l    A0, A5
00002FAE  D1FC FFFD CED4           add.l      A0, 0xFFFDCED4
00002FB4  7200                     moveq.l    D1, 0x00
00002FB6  1230 0042                move.b     D1, [A0 + D0.w + 0x42]
00002FBA  48C2                     ext.l      D2
00002FBC  85C1                     divs.w     D2, D1
00002FBE  3802                     move.w     D4, D2
00002FC0  7000                     moveq.l    D0, 0x00
00002FC2  3007                     move.w     D0, D7
00002FC4  80C4                     divu.w     D0, D4
00002FC6  3800                     move.w     D4, D0
00002FC8  302E FDA0                move.w     D0, [A6 - 0x260]
00002FCC  D06E FD9E                add.w      D0, [A6 - 0x262]
00002FD0  D044                     add.w      D0, D4
00002FD2  3207                     move.w     D1, D7
00002FD4  5241                     addq.w     D1, 1
00002FD6  3780 1200                move.w     [A3 + D1.w * 2], D0
00002FDA  3007                     move.w     D0, D7
00002FDC  5247                     addq.w     D7, 1
label00002FDE:
00002FDE  BE6E FDA2                cmp.w      D7, [A6 - 0x25E]
00002FE2  659C                     bcs        -0x62 /* 00002F80 */
00002FE4  302E FDA2                move.w     D0, [A6 - 0x25E]
00002FE8  5240                     addq.w     D0, 1
00002FEA  37BC 01B8 0200           move.w     [A3 + D0.w * 2], 0x1B8
00002FF0  3E2E FD9C                move.w     D7, [A6 - 0x264]
00002FF4  4245                     clr.w      D5
00002FF6  6048                     bra        +0x4A /* 00003040 */
label00002FF8:
00002FF8  BA6E FDA4                cmp.w      D5, [A6 - 0x25C]
00002FFC  6534                     bcs        +0x36 /* 00003032 */
00002FFE  2006                     move.l     D0, D6
00003000  EF40                     asl        D0.w, 7
00003002  204D                     movea.l    A0, A5
00003004  D1FC FFFD CED4           add.l      A0, 0xFFFDCED4
0000300A  7200                     moveq.l    D1, 0x00
0000300C  1230 003E                move.b     D1, [A0 + D0.w + 0x3E]
00003010  4A81                     tst.l      D1
00003012  0801 0000                btst.b     D1, 0x0
00003016  6718                     beq        +0x1A /* 00003030 */
00003018  2006                     move.l     D0, D6
0000301A  EF40                     asl        D0.w, 7
0000301C  204D                     movea.l    A0, A5
0000301E  D1FC FFFD CED4           add.l      A0, 0xFFFDCED4
00003024  1030 0012                move.b     D0, [A0 + D0.w + 0x12]
00003028  4880                     ext.w      D0
0000302A  3A00                     move.w     D5, D0
0000302C  5245                     addq.w     D5, 1
0000302E  6002                     bra        +0x4 /* 00003032 */
label00003030:
00003030  4245                     clr.w      D5
label00003032:
00003032  39B3 5200 7200           move.w     [A4 + D7.w * 2], [A3 + D5.w * 2]
00003038  3007                     move.w     D0, D7
0000303A  5247                     addq.w     D7, 1
0000303C  3005                     move.w     D0, D5
0000303E  5245                     addq.w     D5, 1
label00003040:
00003040  7000                     moveq.l    D0, 0x00
00003042  3007                     move.w     D0, D7
00003044  0C40 00F0                cmpi.w     D0, 0xF0
00003048  65AE                     bcs        -0x50 /* 00002FF8 */
0000304A  4247                     clr.w      D7
0000304C  602C                     bra        +0x2E /* 0000307A */
label0000304E:
0000304E  7000                     moveq.l    D0, 0x00
00003050  3007                     move.w     D0, D7
00003052  7262                     moveq.l    D1, 0x62
00003054  4C01 0800                muls.l     D0, D1
00003058  7200                     moveq.l    D1, 0x00
0000305A  322E FD98                move.w     D1, [A6 - 0x268]
0000305E  5381                     subq.l     D1, 1
00003060  D280                     add.l      D1, D0
00003062  3D41 FFEA                move.w     [A6 - 0x16], D1
00003066  7000                     moveq.l    D0, 0x00
00003068  302E FFEA                move.w     D0, [A6 - 0x16]
0000306C  206E FFEC                movea.l    A0, [A6 - 0x14]
00003070  31B4 7200 0A00           move.w     [A0 + D0 * 2], [A4 + D7.w * 2]
00003076  3007                     move.w     D0, D7
00003078  5247                     addq.w     D7, 1
label0000307A:
0000307A  7000                     moveq.l    D0, 0x00
0000307C  3007                     move.w     D0, D7
0000307E  0C40 00F0                cmpi.w     D0, 0xF0
00003082  65CA                     bcs        -0x34 /* 0000304E */
label00003084:
00003084  302E FD9C                move.w     D0, [A6 - 0x264]
00003088  536E FD9C                subq.w     [A6 - 0x264], 1
label0000308C:
0000308C  7000                     moveq.l    D0, 0x00
0000308E  302E FD9C                move.w     D0, [A6 - 0x264]
00003092  4A80                     tst.l      D0
00003094  6508                     bcs        +0xA /* 0000309E */
00003096  4A2E FD97                tst.b      [A6 - 0x269]
0000309A  6600 FC84                bne        -0x37A /* 00002D20 */
label0000309E:
0000309E  302E FD9A                move.w     D0, [A6 - 0x266]
000030A2  526E FD9A                addq.w     [A6 - 0x266], 1
label000030A6:
000030A6  302E FD98                move.w     D0, [A6 - 0x268]
000030AA  526E FD98                addq.w     [A6 - 0x268], 1
label000030AE:
000030AE  7000                     moveq.l    D0, 0x00
000030B0  302E FD9A                move.w     D0, [A6 - 0x266]
000030B4  4A80                     tst.l      D0
000030B6  204D                     movea.l    A0, A5
000030B8  D1FC FFFD AFAC           add.l      A0, 0xFFFDAFAC
000030BE  3210                     move.w     D1, [A0]
000030C0  48C1                     ext.l      D1
000030C2  B280                     cmp.l      D1, D0
000030C4  6E00 FBC0                bgt        -0x43E /* 00002C86 */
000030C8  558F                     subq.l     A7, 2
000030CA  3F2E FD8A                move.w     -[A7], [A6 - 0x276]
000030CE  7001                     moveq.l    D0, 0x01
000030D0  3F00                     move.w     -[A7], D0
000030D2  7200                     moveq.l    D1, 0x00
000030D4  2F01                     move.l     -[A7], D1
000030D6  4EAD 00C2                jsr        [A5 + 0xC2 /* export_20, CODE:1 @ 000012EA */]
000030DA  3D5F FFFE                move.w     [A6 - 0x2], [A7]+
000030DE  6704                     beq        +0x6 /* 000030E4 */
000030E0  7000                     moveq.l    D0, 0x00
000030E2  607A                     bra        +0x7C /* 0000315E */
label000030E4:
000030E4  558F                     subq.l     A7, 2
000030E6  3F2E FD8A                move.w     -[A7], [A6 - 0x276]
000030EA  7000                     moveq.l    D0, 0x00
000030EC  2F00                     move.l     -[A7], D0
000030EE  4EAD 00BA                jsr        [A5 + 0xBA /* export_19, CODE:1 @ 000012CA */]
000030F2  3D5F FFFE                move.w     [A6 - 0x2], [A7]+
000030F6  6704                     beq        +0x6 /* 000030FC */
000030F8  7000                     moveq.l    D0, 0x00
000030FA  6062                     bra        +0x64 /* 0000315E */
label000030FC:
000030FC  302E FD8A                move.w     D0, [A6 - 0x276]
00003100  48C0                     ext.l      D0
00003102  2F00                     move.l     -[A7], D0
00003104  4878 5BE0                push.l     0x5BE0
00003108  7002                     moveq.l    D0, 0x02
0000310A  2F00                     move.l     -[A7], D0
0000310C  2F2E FFF0                move.l     -[A7], [A6 - 0x10]
00003110  4EAD 141A                jsr        [A5 + 0x141A /* export_639, CODE:27 @ 00002B78 */]
00003114  558F                     subq.l     A7, 2
00003116  3F2E FD8A                move.w     -[A7], [A6 - 0x276]
0000311A  4EAD 007A                jsr        [A5 + 0x7A /* export_11, CODE:1 @ 0000118E */]
0000311E  4A2E FFF5                tst.b      [A6 - 0xB]
00003122  4FEF 0012                lea.l      A7, [A7 + 0x12]
00003126  6710                     beq        +0x12 /* 00003138 */
00003128  2F2E FFFA                move.l     -[A7], [A6 - 0x6]
0000312C  486E FD88                pea.l      [A6 - 0x278]
00003130  3F3C 0020                move.w     -[A7], 0x20 /* ' ' */
00003134  A88F                     syscall    OSDispatch
00003136  6006                     bra        +0x8 /* 0000313E */
label00003138:
00003138  206E FFF0                movea.l    A0, [A6 - 0x10]
0000313C  A01F                     syscall    DisposPtr/DisposePtr
label0000313E:
0000313E  204D                     movea.l    A0, A5
00003140  D1FC FFFE C3CE           add.l      A0, 0xFFFEC3CE
00003146  4850                     pea.l      [A0]
00003148  7000                     moveq.l    D0, 0x00
0000314A  204D                     movea.l    A0, A5
0000314C  D1FC FFFE C3CC           add.l      A0, 0xFFFEC3CC
00003152  1010                     move.b     D0, [A0]
00003154  2F00                     move.l     -[A7], D0
00003156  4EBA F622                jsr        [PC - 0x9DE /* 0000277A */]
0000315A  7000                     moveq.l    D0, 0x00
0000315C  504F                     addq.w     A7, 8
label0000315E:
0000315E  4CEE 18F0 FD70           movem.l    D4,D5,D6,D7,A3,A4, [A6 - 0x290]
00003164  4E5E                     unlink     A6
00003166  4E75                     rts
00003168  8E73 6C69 6465 6179 6... dc.b       "slideayear__Fv"
export_115:
0000317A  4E56 FFFC                link       A6, -0x0004
0000317E  48E7 1118                movem.l    -[A7], D3,D7,A3,A4
00003182  286E 000C                movea.l    A4, [A6 + 0xC]
00003186  598F                     subq.l     A7, 4
00003188  2F3C 5369 6D44           move.l     -[A7], 0x53696D44 /* 'SimD' */
0000318E  204D                     movea.l    A0, A5
00003190  D1FC FFFD AF6C           add.l      A0, 0xFFFDAF6C
00003196  4850                     pea.l      [A0]
00003198  A9A1                     syscall    GetNamedResource
0000319A  265F                     movea.l    A3, [A7]+
0000319C  200B                     move.l     D0, A3
0000319E  6604                     bne        +0x6 /* 000031A4 */
000031A0  7000                     moveq.l    D0, 0x00
000031A2  6058                     bra        +0x5A /* 000031FC */
label000031A4:
000031A4  204B                     movea.l    A0, A3
000031A6  A064                     syscall    MoveHHi
000031A8  A029                     syscall    HLock
000031AA  2D53 FFFC                move.l     [A6 - 0x4], [A3]
000031AE  7000                     moveq.l    D0, 0x00
000031B0  102E 000B                move.b     D0, [A6 + 0xB]
000031B4  48C0                     ext.l      D0
000031B6  ED80                     asl        D0, 6
000031B8  206E FFFC                movea.l    A0, [A6 - 0x4]
000031BC  D0C0                     add.w      A0, D0
000031BE  224C                     movea.l    A1, A4
000031C0  7040                     moveq.l    D0, 0x40
000031C2  A02E                     syscall    BlockMove/BlockMoveData
000031C4  4247                     clr.w      D7
000031C6  763F                     moveq.l    D3, 0x3F
000031C8  6020                     bra        +0x22 /* 000031EA */
label000031CA:
000031CA  7040                     moveq.l    D0, 0x40
000031CC  B034 7000                cmp.b      D0, [A4 + D7.w]
000031D0  6710                     beq        +0x12 /* 000031E2 */
000031D2  700D                     moveq.l    D0, 0x0D
000031D4  B034 7000                cmp.b      D0, [A4 + D7.w]
000031D8  6708                     beq        +0xA /* 000031E2 */
000031DA  700A                     moveq.l    D0, 0x0A
000031DC  B034 7000                cmp.b      D0, [A4 + D7.w]
000031E0  6604                     bne        +0x6 /* 000031E6 */
label000031E2:
000031E2  4234 7000                clr.b      [A4 + D7.w]
label000031E6:
000031E6  3007                     move.w     D0, D7
000031E8  5247                     addq.w     D7, 1
label000031EA:
000031EA  B647                     cmp.w      D3, D7
000031EC  6EDC                     bgt        -0x22 /* 000031CA */
000031EE  422C 003F                clr.b      [A4 + 0x3F]
000031F2  204B                     movea.l    A0, A3
000031F4  A02A                     syscall    HUnlock
000031F6  2F0B                     move.l     -[A7], A3
000031F8  A9A3                     syscall    ReleaseResource
000031FA  7001                     moveq.l    D0, 0x01
label000031FC:
000031FC  4CEE 1888 FFEC           movem.l    D3,D7,A3,A4, [A6 - 0x14]
00003202  4E5E                     unlink     A6
00003204  4E75                     rts
00003206  9372 6561 6471 6D65 7... dc.b       "readqmessage__FUcPc"
export_116:
fn0000321C:
0000321C  4E56 FFDA                link       A6, -0x0026
00003220  48E7 1318                movem.l    -[A7], D3,D6,D7,A3,A4
00003224  7001                     moveq.l    D0, 0x01
00003226  2F00                     move.l     -[A7], D0
00003228  2F2E 0008                move.l     -[A7], [A6 + 0x8]
0000322C  486E FFDA                pea.l      [A6 - 0x26]
00003230  4EAD 1772                jsr        [A5 + 0x1772 /* export_746, CODE:32 @ 00004CE0 */]
00003234  598F                     subq.l     A7, 4
00003236  2F3C 5369 6D44           move.l     -[A7], 0x53696D44 /* 'SimD' */
0000323C  486E FFDA                pea.l      [A6 - 0x26]
00003240  4EAD 1792                jsr        [A5 + 0x1792 /* export_750, CODE:32 @ 000050C2 */]
00003244  224D                     movea.l    A1, A5
00003246  D3FC FFFF FB4A           add.l      A1, 0xFFFFFB4A
0000324C  41D1                     lea.l      A0, [A1]
0000324E  588F                     addq.l     A7, 4
00003250  2F08                     move.l     -[A7], A0
00003252  A9A1                     syscall    GetNamedResource
00003254  2D5F FFF8                move.l     [A6 - 0x8], [A7]+
00003258  4FEF 000C                lea.l      A7, [A7 + 0xC]
0000325C  6616                     bne        +0x18 /* 00003274 */
0000325E  4207                     clr.b      D7
00003260  7002                     moveq.l    D0, 0x02
00003262  2F00                     move.l     -[A7], D0
00003264  486E FFDA                pea.l      [A6 - 0x26]
00003268  4EAD 177A                jsr        [A5 + 0x177A /* export_747, CODE:32 @ 00004DBC */]
0000326C  1007                     move.b     D0, D7
0000326E  504F                     addq.w     A7, 8
00003270  6000 00B8                bra        +0xBA /* 0000332A */
label00003274:
00003274  206E FFF8                movea.l    A0, [A6 - 0x8]
00003278  A064                     syscall    MoveHHi
0000327A  A029                     syscall    HLock
0000327C  302E 000E                move.w     D0, [A6 + 0xE]
00003280  48C0                     ext.l      D0
00003282  E180                     asl        D0, 8
00003284  206E FFF8                movea.l    A0, [A6 - 0x8]
00003288  2050                     movea.l    A0, [A0]
0000328A  49F0 0800                lea.l      A4, [A0 + D0]
0000328E  266E 0010                movea.l    A3, [A6 + 0x10]
00003292  2D4B FFFC                move.l     [A6 - 0x4], A3
00003296  7E01                     moveq.l    D7, 0x01
00003298  4246                     clr.w      D6
0000329A  363C 00FF                move.w     D3, 0xFF
0000329E  6054                     bra        +0x56 /* 000032F4 */
label000032A0:
000032A0  707E                     moveq.l    D0, 0x7E
000032A2  B014                     cmp.b      D0, [A4]
000032A4  6608                     bne        +0xA /* 000032AE */
000032A6  16FC 000D                move.b     [A3]+, 0xD /* '\r' */
000032AA  524C                     addq.w     A4, 1
000032AC  6042                     bra        +0x44 /* 000032F0 */
label000032AE:
000032AE  7000                     moveq.l    D0, 0x00
000032B0  1014                     move.b     D0, [A4]
000032B2  224D                     movea.l    A1, A5
000032B4  D3FC FFFF F088           add.l      A1, 0xFFFFF088
000032BA  2051                     movea.l    A0, [A1]
000032BC  7257                     moveq.l    D1, 0x57
000032BE  C230 0000                and.b      D1, [A0 + D0.w]
000032C2  6718                     beq        +0x1A /* 000032DC */
000032C4  7040                     moveq.l    D0, 0x40
000032C6  B014                     cmp.b      D0, [A4]
000032C8  6712                     beq        +0x14 /* 000032DC */
000032CA  7060                     moveq.l    D0, 0x60
000032CC  B014                     cmp.b      D0, [A4]
000032CE  670C                     beq        +0xE /* 000032DC */
000032D0  7020                     moveq.l    D0, 0x20
000032D2  B014                     cmp.b      D0, [A4]
000032D4  6706                     beq        +0x8 /* 000032DC */
000032D6  16DC                     move.b     [A3]+, [A4]+
000032D8  7E01                     moveq.l    D7, 0x01
000032DA  6014                     bra        +0x16 /* 000032F0 */
label000032DC:
000032DC  4A07                     tst.b      D7
000032DE  670E                     beq        +0x10 /* 000032EE */
000032E0  2D4B FFFC                move.l     [A6 - 0x4], A3
000032E4  4207                     clr.b      D7
000032E6  16FC 0020                move.b     [A3]+, 0x20 /* ' ' */
000032EA  524C                     addq.w     A4, 1
000032EC  6002                     bra        +0x4 /* 000032F0 */
label000032EE:
000032EE  524C                     addq.w     A4, 1
label000032F0:
000032F0  3006                     move.w     D0, D6
000032F2  5246                     addq.w     D6, 1
label000032F4:
000032F4  B646                     cmp.w      D3, D6
000032F6  6EA8                     bgt        -0x56 /* 000032A0 */
000032F8  206E FFFC                movea.l    A0, [A6 - 0x4]
000032FC  4210                     clr.b      [A0]
000032FE  206E 0010                movea.l    A0, [A6 + 0x10]
00003302  4228 00FE                clr.b      [A0 + 0xFE]
00003306  206E 0010                movea.l    A0, [A6 + 0x10]
0000330A  4228 00FF                clr.b      [A0 + 0xFF]
0000330E  206E FFF8                movea.l    A0, [A6 - 0x8]
00003312  A02A                     syscall    HUnlock
00003314  2F2E FFF8                move.l     -[A7], [A6 - 0x8]
00003318  A9A3                     syscall    ReleaseResource
0000331A  7002                     moveq.l    D0, 0x02
0000331C  2F00                     move.l     -[A7], D0
0000331E  486E FFDA                pea.l      [A6 - 0x26]
00003322  4EAD 177A                jsr        [A5 + 0x177A /* export_747, CODE:32 @ 00004DBC */]
00003326  7001                     moveq.l    D0, 0x01
00003328  504F                     addq.w     A7, 8
label0000332A:
0000332A  4CEE 18C8 FFC6           movem.l    D3,D6,D7,A3,A4, [A6 - 0x3A]
00003330  4E5E                     unlink     A6
00003332  4E75                     rts
00003334  9267 6574 6461 7474 6... dc.b       "getdattext__FPcsT1"
export_117:
0000334A  4E56 FFFC                link       A6, -0x0004
0000334E  48E7 1118                movem.l    -[A7], D3,D7,A3,A4
00003352  598F                     subq.l     A7, 4
00003354  2F3C 5369 6D44           move.l     -[A7], 0x53696D44 /* 'SimD' */
0000335A  204D                     movea.l    A0, A5
0000335C  D1FC FFFD AF7A           add.l      A0, 0xFFFDAF7A
00003362  4850                     pea.l      [A0]
00003364  A9A1                     syscall    GetNamedResource
00003366  2D5F FFFC                move.l     [A6 - 0x4], [A7]+
0000336A  672E                     beq        +0x30 /* 0000339A */
0000336C  204D                     movea.l    A0, A5
0000336E  D1FC FFFE FC14           add.l      A0, 0xFFFEFC14
00003374  49D0                     lea.l      A4, [A0]
00003376  206E FFFC                movea.l    A0, [A6 - 0x4]
0000337A  2650                     movea.l    A3, [A0]
0000337C  4247                     clr.w      D7
0000337E  363C 03C0                move.w     D3, 0x3C0
00003382  600C                     bra        +0xE /* 00003390 */
label00003384:
00003384  195B 0001                move.b     [A4 + 0x1], [A3]+
00003388  189B                     move.b     [A4], [A3]+
0000338A  548C                     addq.l     A4, 2
0000338C  3007                     move.w     D0, D7
0000338E  5247                     addq.w     D7, 1
label00003390:
00003390  B647                     cmp.w      D3, D7
00003392  6EF0                     bgt        -0xE /* 00003384 */
00003394  2F2E FFFC                move.l     -[A7], [A6 - 0x4]
00003398  A9A3                     syscall    ReleaseResource
label0000339A:
0000339A  4CEE 1888 FFEC           movem.l    D3,D7,A3,A4, [A6 - 0x14]
000033A0  4E5E                     unlink     A6
000033A2  4E75                     rts
000033A4  9572 6561 6474 6F77 6... dc.b       "readtowntemplates__Fv"
export_118:
000033BC  4E56 FFDE                link       A6, -0x0022
000033C0  48E7 1308                movem.l    -[A7], D3,D6,D7,A4
000033C4  7000                     moveq.l    D0, 0x00
000033C6  2F00                     move.l     -[A7], D0
000033C8  204D                     movea.l    A0, A5
000033CA  D1FC FFFD AF88           add.l      A0, 0xFFFDAF88
000033D0  4850                     pea.l      [A0]
000033D2  486E FFDE                pea.l      [A6 - 0x22]
000033D6  4EAD 1772                jsr        [A5 + 0x1772 /* export_746, CODE:32 @ 00004CE0 */]
000033DA  102E 000B                move.b     D0, [A6 + 0xB]
000033DE  49C0                     lea.l      A4, D0
000033E0  2F00                     move.l     -[A7], D0
000033E2  486E FFDE                pea.l      [A6 - 0x22]
000033E6  4EAD 17FA                jsr        [A5 + 0x17FA /* export_763, CODE:32 @ 000057BC */]
000033EA  7000                     moveq.l    D0, 0x00
000033EC  2F00                     move.l     -[A7], D0
000033EE  2F2E FFF2                move.l     -[A7], [A6 - 0xE]
000033F2  204D                     movea.l    A0, A5
000033F4  D1FC FFFD AF8E           add.l      A0, 0xFFFDAF8E
000033FA  4850                     pea.l      [A0]
000033FC  486E FFDE                pea.l      [A6 - 0x22]
00003400  4EAD 178A                jsr        [A5 + 0x178A /* export_749, CODE:32 @ 00004E80 */]
00003404  598F                     subq.l     A7, 4
00003406  2F3C 5369 6D44           move.l     -[A7], 0x53696D44 /* 'SimD' */
0000340C  486E FFDE                pea.l      [A6 - 0x22]
00003410  4EAD 1792                jsr        [A5 + 0x1792 /* export_750, CODE:32 @ 000050C2 */]
00003414  224D                     movea.l    A1, A5
00003416  D3FC FFFF FB4A           add.l      A1, 0xFFFFFB4A
0000341C  41D1                     lea.l      A0, [A1]
0000341E  588F                     addq.l     A7, 4
00003420  2F08                     move.l     -[A7], A0
00003422  A9A1                     syscall    GetNamedResource
00003424  285F                     movea.l    A4, [A7]+
00003426  2D54 FFFC                move.l     [A6 - 0x4], [A4]
0000342A  4247                     clr.w      D7
0000342C  4FEF 0024                lea.l      A7, [A7 + 0x24]
00003430  605C                     bra        +0x5E /* 0000348E */
label00003432:
00003432  486E FFFC                pea.l      [A6 - 0x4]
00003436  4EBA 0256                jsr        [PC + 0x256 /* 0000368E */]
0000343A  204D                     movea.l    A0, A5
0000343C  D1FC FFFE D642           add.l      A0, 0xFFFED642
00003442  1180 7000                move.b     [A0 + D7.w], D0
00003446  486E FFFC                pea.l      [A6 - 0x4]
0000344A  4EBA 0242                jsr        [PC + 0x242 /* 0000368E */]
0000344E  48C7                     ext.l      D7
00003450  204D                     movea.l    A0, A5
00003452  D1FC FFFE D643           add.l      A0, 0xFFFED643
00003458  1180 7000                move.b     [A0 + D7.w], D0
0000345C  486E FFFC                pea.l      [A6 - 0x4]
00003460  4EBA 022C                jsr        [PC + 0x22C /* 0000368E */]
00003464  48C7                     ext.l      D7
00003466  204D                     movea.l    A0, A5
00003468  D1FC FFFE D644           add.l      A0, 0xFFFED644
0000346E  1180 7000                move.b     [A0 + D7.w], D0
00003472  486E FFFC                pea.l      [A6 - 0x4]
00003476  4EBA 0216                jsr        [PC + 0x216 /* 0000368E */]
0000347A  48C7                     ext.l      D7
0000347C  204D                     movea.l    A0, A5
0000347E  D1FC FFFE D645           add.l      A0, 0xFFFED645
00003484  1180 7000                move.b     [A0 + D7.w], D0
00003488  4FEF 0010                lea.l      A7, [A7 + 0x10]
0000348C  5847                     addq.w     D7, 4
label0000348E:
0000348E  0C47 00F0                cmpi.w     D7, 0xF0
00003492  6D9E                     blt        -0x60 /* 00003432 */
00003494  2F0C                     move.l     -[A7], A4
00003496  A9A3                     syscall    ReleaseResource
00003498  486E FFDE                pea.l      [A6 - 0x22]
0000349C  4EAD 1782                jsr        [A5 + 0x1782 /* export_748, CODE:32 @ 00004E1E */]
000034A0  4206                     clr.b      D6
000034A2  7000                     moveq.l    D0, 0x00
000034A4  1006                     move.b     D0, D6
000034A6  2F00                     move.l     -[A7], D0
000034A8  2F2E FFF2                move.l     -[A7], [A6 - 0xE]
000034AC  204D                     movea.l    A0, A5
000034AE  D1FC FFFD AF94           add.l      A0, 0xFFFDAF94
000034B4  4850                     pea.l      [A0]
000034B6  486E FFDE                pea.l      [A6 - 0x22]
000034BA  4EAD 178A                jsr        [A5 + 0x178A /* export_749, CODE:32 @ 00004E80 */]
000034BE  102E 0013                move.b     D0, [A6 + 0x13]
000034C2  49C0                     lea.l      A4, D0
000034C4  2F00                     move.l     -[A7], D0
000034C6  486E FFDE                pea.l      [A6 - 0x22]
000034CA  4EAD 17FA                jsr        [A5 + 0x17FA /* export_763, CODE:32 @ 000057BC */]
000034CE  7000                     moveq.l    D0, 0x00
000034D0  2F00                     move.l     -[A7], D0
000034D2  2F2E FFF2                move.l     -[A7], [A6 - 0xE]
000034D6  204D                     movea.l    A0, A5
000034D8  D1FC FFFD AF9A           add.l      A0, 0xFFFDAF9A
000034DE  4850                     pea.l      [A0]
000034E0  486E FFDE                pea.l      [A6 - 0x22]
000034E4  4EAD 178A                jsr        [A5 + 0x178A /* export_749, CODE:32 @ 00004E80 */]
000034E8  598F                     subq.l     A7, 4
000034EA  2F3C 5369 6D44           move.l     -[A7], 0x53696D44 /* 'SimD' */
000034F0  486E FFDE                pea.l      [A6 - 0x22]
000034F4  4EAD 1792                jsr        [A5 + 0x1792 /* export_750, CODE:32 @ 000050C2 */]
000034F8  224D                     movea.l    A1, A5
000034FA  D3FC FFFF FB4A           add.l      A1, 0xFFFFFB4A
00003500  41D1                     lea.l      A0, [A1]
00003502  588F                     addq.l     A7, 4
00003504  2F08                     move.l     -[A7], A0
00003506  A9A1                     syscall    GetNamedResource
00003508  285F                     movea.l    A4, [A7]+
0000350A  2D54 FFFC                move.l     [A6 - 0x4], [A4]
0000350E  4247                     clr.w      D7
00003510  4FEF 002C                lea.l      A7, [A7 + 0x2C]
label00003514:
00003514  486E FFFC                pea.l      [A6 - 0x4]
00003518  4EBA 0174                jsr        [PC + 0x174 /* 0000368E */]
0000351C  204D                     movea.l    A0, A5
0000351E  D1FC FFFE D734           add.l      A0, 0xFFFED734
00003524  1180 7000                move.b     [A0 + D7.w], D0
00003528  486E FFFC                pea.l      [A6 - 0x4]
0000352C  4EBA 0160                jsr        [PC + 0x160 /* 0000368E */]
00003530  48C7                     ext.l      D7
00003532  204D                     movea.l    A0, A5
00003534  D1FC FFFE D735           add.l      A0, 0xFFFED735
0000353A  1180 7000                move.b     [A0 + D7.w], D0
0000353E  486E FFFC                pea.l      [A6 - 0x4]
00003542  4EBA 014A                jsr        [PC + 0x14A /* 0000368E */]
00003546  48C7                     ext.l      D7
00003548  204D                     movea.l    A0, A5
0000354A  D1FC FFFE D736           add.l      A0, 0xFFFED736
00003550  1180 7000                move.b     [A0 + D7.w], D0
00003554  486E FFFC                pea.l      [A6 - 0x4]
00003558  4EBA 0134                jsr        [PC + 0x134 /* 0000368E */]
0000355C  48C7                     ext.l      D7
0000355E  204D                     movea.l    A0, A5
00003560  D1FC FFFE D737           add.l      A0, 0xFFFED737
00003566  1180 7000                move.b     [A0 + D7.w], D0
0000356A  4FEF 0010                lea.l      A7, [A7 + 0x10]
0000356E  5847                     addq.w     D7, 4
00003570  0C47 00F0                cmpi.w     D7, 0xF0
00003574  6D9E                     blt        -0x60 /* 00003514 */
00003576  2F0C                     move.l     -[A7], A4
00003578  A9A3                     syscall    ReleaseResource
0000357A  486E FFDE                pea.l      [A6 - 0x22]
0000357E  4EAD 1782                jsr        [A5 + 0x1782 /* export_748, CODE:32 @ 00004E1E */]
00003582  4206                     clr.b      D6
00003584  7000                     moveq.l    D0, 0x00
00003586  1006                     move.b     D0, D6
00003588  2F00                     move.l     -[A7], D0
0000358A  2F2E FFF2                move.l     -[A7], [A6 - 0xE]
0000358E  204D                     movea.l    A0, A5
00003590  D1FC FFFD AFA0           add.l      A0, 0xFFFDAFA0
00003596  4850                     pea.l      [A0]
00003598  486E FFDE                pea.l      [A6 - 0x22]
0000359C  4EAD 178A                jsr        [A5 + 0x178A /* export_749, CODE:32 @ 00004E80 */]
000035A0  102E 000F                move.b     D0, [A6 + 0xF]
000035A4  49C0                     lea.l      A4, D0
000035A6  2F00                     move.l     -[A7], D0
000035A8  486E FFDE                pea.l      [A6 - 0x22]
000035AC  4EAD 17FA                jsr        [A5 + 0x17FA /* export_763, CODE:32 @ 000057BC */]
000035B0  7000                     moveq.l    D0, 0x00
000035B2  2F00                     move.l     -[A7], D0
000035B4  2F2E FFF2                move.l     -[A7], [A6 - 0xE]
000035B8  204D                     movea.l    A0, A5
000035BA  D1FC FFFD AFA6           add.l      A0, 0xFFFDAFA6
000035C0  4850                     pea.l      [A0]
000035C2  486E FFDE                pea.l      [A6 - 0x22]
000035C6  4EAD 178A                jsr        [A5 + 0x178A /* export_749, CODE:32 @ 00004E80 */]
000035CA  598F                     subq.l     A7, 4
000035CC  2F3C 5369 6D44           move.l     -[A7], 0x53696D44 /* 'SimD' */
000035D2  486E FFDE                pea.l      [A6 - 0x22]
000035D6  4EAD 1792                jsr        [A5 + 0x1792 /* export_750, CODE:32 @ 000050C2 */]
000035DA  224D                     movea.l    A1, A5
000035DC  D3FC FFFF FB4A           add.l      A1, 0xFFFFFB4A
000035E2  41D1                     lea.l      A0, [A1]
000035E4  588F                     addq.l     A7, 4
000035E6  2F08                     move.l     -[A7], A0
000035E8  A9A1                     syscall    GetNamedResource
000035EA  285F                     movea.l    A4, [A7]+
000035EC  2D54 FFFC                move.l     [A6 - 0x4], [A4]
000035F0  4247                     clr.w      D7
000035F2  4FEF 002C                lea.l      A7, [A7 + 0x2C]
label000035F6:
000035F6  486E FFFC                pea.l      [A6 - 0x4]
000035FA  4EBA 0092                jsr        [PC + 0x92 /* 0000368E */]
000035FE  204D                     movea.l    A0, A5
00003600  D1FC FFFE D54E           add.l      A0, 0xFFFED54E
00003606  1180 7000                move.b     [A0 + D7.w], D0
0000360A  486E FFFC                pea.l      [A6 - 0x4]
0000360E  4EBA 007E                jsr        [PC + 0x7E /* 0000368E */]
00003612  48C7                     ext.l      D7
00003614  204D                     movea.l    A0, A5
00003616  D1FC FFFE D54F           add.l      A0, 0xFFFED54F
0000361C  1180 7000                move.b     [A0 + D7.w], D0
00003620  486E FFFC                pea.l      [A6 - 0x4]
00003624  4EBA 0068                jsr        [PC + 0x68 /* 0000368E */]
00003628  48C7                     ext.l      D7
0000362A  204D                     movea.l    A0, A5
0000362C  D1FC FFFE D550           add.l      A0, 0xFFFED550
00003632  1180 7000                move.b     [A0 + D7.w], D0
00003636  486E FFFC                pea.l      [A6 - 0x4]
0000363A  4EBA 0052                jsr        [PC + 0x52 /* 0000368E */]
0000363E  48C7                     ext.l      D7
00003640  204D                     movea.l    A0, A5
00003642  D1FC FFFE D551           add.l      A0, 0xFFFED551
00003648  1180 7000                move.b     [A0 + D7.w], D0
0000364C  4FEF 0010                lea.l      A7, [A7 + 0x10]
00003650  5847                     addq.w     D7, 4
00003652  0C47 00F0                cmpi.w     D7, 0xF0
00003656  6D9E                     blt        -0x60 /* 000035F6 */
00003658  2F0C                     move.l     -[A7], A4
0000365A  A9A3                     syscall    ReleaseResource
0000365C  7002                     moveq.l    D0, 0x02
0000365E  2F00                     move.l     -[A7], D0
00003660  486E FFDE                pea.l      [A6 - 0x22]
00003664  4EAD 177A                jsr        [A5 + 0x177A /* export_747, CODE:32 @ 00004DBC */]
00003668  504F                     addq.w     A7, 8
0000366A  4CEE 10C8 FFCE           movem.l    D3,D6,D7,A4, [A6 - 0x32]
00003670  4E5E                     unlink     A6
00003672  4E75                     rts
00003674  9772 6561 6472 6169 6... dc.b       "readraintempwind__FcN21"
fn0000368E:
0000368E  4E56 0000                link       A6, 0
00003692  48E7 0118                movem.l    -[A7], D7,A3,A4
00003696  266E 0008                movea.l    A3, [A6 + 0x8]
0000369A  2853                     movea.l    A4, [A3]
0000369C  6002                     bra        +0x4 /* 000036A0 */
label0000369E:
0000369E  524C                     addq.w     A4, 1
label000036A0:
000036A0  7030                     moveq.l    D0, 0x30
000036A2  B014                     cmp.b      D0, [A4]
000036A4  6EF8                     bgt        -0x6 /* 0000369E */
000036A6  7039                     moveq.l    D0, 0x39
000036A8  B014                     cmp.b      D0, [A4]
000036AA  6DF2                     blt        -0xC /* 0000369E */
000036AC  1014                     move.b     D0, [A4]
000036AE  7230                     moveq.l    D1, 0x30
000036B0  9001                     sub.b      D0, D1
000036B2  1E00                     move.b     D7, D0
000036B4  524C                     addq.w     A4, 1
000036B6  7030                     moveq.l    D0, 0x30
000036B8  B014                     cmp.b      D0, [A4]
000036BA  6E1A                     bgt        +0x1C /* 000036D6 */
000036BC  7039                     moveq.l    D0, 0x39
000036BE  B014                     cmp.b      D0, [A4]
000036C0  6D14                     blt        +0x16 /* 000036D6 */
000036C2  4887                     ext.w      D7
000036C4  DE47                     add.w      D7, D7
000036C6  3007                     move.w     D0, D7
000036C8  E54F                     lsl        D7.w, 2
000036CA  DE40                     add.w      D7, D0
000036CC  1014                     move.b     D0, [A4]
000036CE  7230                     moveq.l    D1, 0x30
000036D0  9001                     sub.b      D0, D1
000036D2  DE00                     add.b      D7, D0
000036D4  524C                     addq.w     A4, 1
label000036D6:
000036D6  268C                     move.l     [A3], A4
000036D8  1007                     move.b     D0, D7
000036DA  4CEE 1880 FFF4           movem.l    D7,A3,A4, [A6 - 0xC]
000036E0  4E5E                     unlink     A6
000036E2  4E75                     rts
000036E4  8F73 6361 6E44 6967 6... dc.b       "scanDigit__FPPc"
export_119:
000036F6  4E56 0000                link       A6, 0
000036FA  48E7 0F00                movem.l    -[A7], D4,D5,D6,D7
000036FE  382E 000A                move.w     D4, [A6 + 0xA]
00003702  3C2E 000E                move.w     D6, [A6 + 0xE]
00003706  3A04                     move.w     D5, D4
00003708  603E                     bra        +0x40 /* 00003748 */
label0000370A:
0000370A  3E06                     move.w     D7, D6
0000370C  602A                     bra        +0x2C /* 00003738 */
label0000370E:
0000370E  2005                     move.l     D0, D5
00003710  C1FC 00C0                muls.w     D0, 0xC0
00003714  204D                     movea.l    A0, A5
00003716  D1FC FFFD FAD4           add.l      A0, 0xFFFDFAD4
0000371C  2207                     move.l     D1, D7
0000371E  D241                     add.w      D1, D1
00003720  D240                     add.w      D1, D0
00003722  7000                     moveq.l    D0, 0x00
00003724  3030 1000                move.w     D0, [A0 + D1.w]
00003728  323C 1000                move.w     D1, 0x1000
0000372C  C240                     and.w      D1, D0
0000372E  6704                     beq        +0x6 /* 00003734 */
00003730  7001                     moveq.l    D0, 0x01
00003732  6022                     bra        +0x24 /* 00003756 */
label00003734:
00003734  3007                     move.w     D0, D7
00003736  5247                     addq.w     D7, 1
label00003738:
00003738  48C7                     ext.l      D7
0000373A  48C6                     ext.l      D6
0000373C  2006                     move.l     D0, D6
0000373E  5080                     addq.l     D0, 8
00003740  B087                     cmp.l      D0, D7
00003742  6ECA                     bgt        -0x34 /* 0000370E */
00003744  3005                     move.w     D0, D5
00003746  5245                     addq.w     D5, 1
label00003748:
00003748  48C5                     ext.l      D5
0000374A  48C4                     ext.l      D4
0000374C  2004                     move.l     D0, D4
0000374E  5080                     addq.l     D0, 8
00003750  B085                     cmp.l      D0, D5
00003752  6EB6                     bgt        -0x48 /* 0000370A */
00003754  7000                     moveq.l    D0, 0x00
label00003756:
00003756  4CEE 00F0 FFF0           movem.l    D4,D5,D6,D7, [A6 - 0x10]
0000375C  4E5E                     unlink     A6
0000375E  4E75                     rts
00003760  8F63 686B 3466 6965 6... dc.b       "chk4field__FsT1"
export_120:
fn00003772:
00003772  4E56 0000                link       A6, 0
00003776  48E7 0308                movem.l    -[A7], D6,D7,A4
0000377A  204D                     movea.l    A0, A5
0000377C  D1FC FFFD AFAE           add.l      A0, 0xFFFDAFAE
00003782  49D0                     lea.l      A4, [A0]
00003784  3C2E 000A                move.w     D6, [A6 + 0xA]
00003788  2006                     move.l     D0, D6
0000378A  C1FC 0044                muls.w     D0, 0x44 /* 'D' */
0000378E  7E00                     moveq.l    D7, 0x00
00003790  3E34 0012                move.w     D7, [A4 + D0.w + 0x12]
00003794  7000                     moveq.l    D0, 0x00
00003796  302E 000E                move.w     D0, [A6 + 0xE]
0000379A  DE80                     add.l      D7, D0
0000379C  0C87 0000 FFFF           cmpi.l     D7, 0xFFFF
000037A2  6306                     bls        +0x8 /* 000037AA */
000037A4  2E3C 0000 FFFF           move.l     D7, 0xFFFF
label000037AA:
000037AA  2006                     move.l     D0, D6
000037AC  C1FC 0044                muls.w     D0, 0x44 /* 'D' */
000037B0  3987 0012                move.w     [A4 + D0.w + 0x12], D7
000037B4  7001                     moveq.l    D0, 0x01
000037B6  4CEE 10C0 FFF4           movem.l    D6,D7,A4, [A6 - 0xC]
000037BC  4E5E                     unlink     A6
000037BE  4E75                     rts
000037C0  9469 6E63 6669 656C 6... dc.b       "incfielddamage__FsUs"
fn000037D8:
000037D8  4E56 0000                link       A6, 0
000037DC  48E7 0708                movem.l    -[A7], D5,D6,D7,A4
000037E0  204D                     movea.l    A0, A5
000037E2  D1FC FFFD AFAE           add.l      A0, 0xFFFDAFAE
000037E8  49D0                     lea.l      A4, [A0]
000037EA  204D                     movea.l    A0, A5
000037EC  D1FC FFFD AFAC           add.l      A0, 0xFFFDAFAC
000037F2  4A50                     tst.w      [A0]
000037F4  6604                     bne        +0x6 /* 000037FA */
000037F6  7000                     moveq.l    D0, 0x00
000037F8  6056                     bra        +0x58 /* 00003850 */
label000037FA:
000037FA  204D                     movea.l    A0, A5
000037FC  D1FC FFFD AFAC           add.l      A0, 0xFFFDAFAC
00003802  3C10                     move.w     D6, [A0]
00003804  558F                     subq.l     A7, 2
00003806  A861                     syscall    Random
00003808  301F                     move.w     D0, [A7]+
0000380A  48C0                     ext.l      D0
0000380C  2F00                     move.l     -[A7], D0
0000380E  4EAD 145A                jsr        [A5 + 0x145A /* export_647, CODE:31 @ 00000000 */]
00003812  48C6                     ext.l      D6
00003814  4C46 0801                divs.l     D1:D0, D6
00003818  3A01                     move.w     D5, D1
0000381A  584F                     addq.w     A7, 4
0000381C  6602                     bne        +0x4 /* 00003820 */
0000381E  7A01                     moveq.l    D5, 0x01
label00003820:
00003820  4246                     clr.w      D6
00003822  7E01                     moveq.l    D7, 0x01
00003824  6020                     bra        +0x22 /* 00003846 */
label00003826:
00003826  2007                     move.l     D0, D7
00003828  C1FC 0044                muls.w     D0, 0x44 /* 'D' */
0000382C  323C 0100                move.w     D1, 0x100
00003830  C274 0006                and.w      D1, [A4 + D0.w + 0x6]
00003834  670C                     beq        +0xE /* 00003842 */
00003836  3006                     move.w     D0, D6
00003838  5246                     addq.w     D6, 1
0000383A  BA46                     cmp.w      D5, D6
0000383C  6604                     bne        +0x6 /* 00003842 */
0000383E  3007                     move.w     D0, D7
00003840  600E                     bra        +0x10 /* 00003850 */
label00003842:
00003842  3007                     move.w     D0, D7
00003844  5247                     addq.w     D7, 1
label00003846:
00003846  BA46                     cmp.w      D5, D6
00003848  6EDC                     bgt        -0x22 /* 00003826 */
0000384A  4A47                     tst.w      D7
0000384C  6602                     bne        +0x4 /* 00003850 */
0000384E  7000                     moveq.l    D0, 0x00
label00003850:
00003850  4CEE 10E0 FFF0           movem.l    D5,D6,D7,A4, [A6 - 0x10]
00003856  4E5E                     unlink     A6
00003858  4E75                     rts
0000385A  9267 6574 7261 6E64 6... dc.b       "getrandomfield__Fv"
export_121:
00003870  4E56 FFFC                link       A6, -0x0004
00003874  48E7 0F08                movem.l    -[A7], D4,D5,D6,D7,A4
00003878  204D                     movea.l    A0, A5
0000387A  D1FC FFFD AFAE           add.l      A0, 0xFFFDAFAE
00003880  49D0                     lea.l      A4, [A0]
00003882  3C2E 000E                move.w     D6, [A6 + 0xE]
00003886  3E2E 000A                move.w     D7, [A6 + 0xA]
0000388A  422E FFFD                clr.b      [A6 - 0x3]
0000388E  1D7C 0001 FFFC           move.b     [A6 - 0x4], 0x1
00003894  6000 012C                bra        +0x12E /* 000039C2 */
label00003898:
00003898  102E FFFC                move.b     D0, [A6 - 0x4]
0000389C  4880                     ext.w      D0
0000389E  C1FC 0044                muls.w     D0, 0x44 /* 'D' */
000038A2  323C 0100                move.w     D1, 0x100
000038A6  C274 0006                and.w      D1, [A4 + D0.w + 0x6]
000038AA  6700 010E                beq        +0x110 /* 000039BA */
000038AE  102E FFFC                move.b     D0, [A6 - 0x4]
000038B2  4880                     ext.w      D0
000038B4  C1FC 0044                muls.w     D0, 0x44 /* 'D' */
000038B8  1A34 000B                move.b     D5, [A4 + D0.w + 0xB]
000038BC  102E FFFC                move.b     D0, [A6 - 0x4]
000038C0  4880                     ext.w      D0
000038C2  C1FC 0044                muls.w     D0, 0x44 /* 'D' */
000038C6  1834 000A                move.b     D4, [A4 + D0.w + 0xA]
000038CA  1004                     move.b     D0, D4
000038CC  5000                     addq.b     D0, 8
000038CE  1D40 FFFE                move.b     [A6 - 0x2], D0
000038D2  1005                     move.b     D0, D5
000038D4  5000                     addq.b     D0, 8
000038D6  1D40 FFFF                move.b     [A6 - 0x1], D0
000038DA  4884                     ext.w      D4
000038DC  B847                     cmp.w      D4, D7
000038DE  6E1C                     bgt        +0x1E /* 000038FC */
000038E0  102E FFFE                move.b     D0, [A6 - 0x2]
000038E4  4880                     ext.w      D0
000038E6  B047                     cmp.w      D0, D7
000038E8  6F12                     ble        +0x14 /* 000038FC */
000038EA  4885                     ext.w      D5
000038EC  BA46                     cmp.w      D5, D6
000038EE  6E0C                     bgt        +0xE /* 000038FC */
000038F0  102E FFFF                move.b     D0, [A6 - 0x1]
000038F4  4880                     ext.w      D0
000038F6  B046                     cmp.w      D0, D6
000038F8  6E00 00B2                bgt        +0xB4 /* 000039AC */
label000038FC:
000038FC  48C7                     ext.l      D7
000038FE  302E 0012                move.w     D0, [A6 + 0x12]
00003902  48C0                     ext.l      D0
00003904  D087                     add.l      D0, D7
00003906  49C4                     lea.l      A4, D4
00003908  B880                     cmp.l      D4, D0
0000390A  6E24                     bgt        +0x26 /* 00003930 */
0000390C  48C7                     ext.l      D7
0000390E  302E 0012                move.w     D0, [A6 + 0x12]
00003912  48C0                     ext.l      D0
00003914  D087                     add.l      D0, D7
00003916  122E FFFE                move.b     D1, [A6 - 0x2]
0000391A  49C1                     lea.l      A4, D1
0000391C  B280                     cmp.l      D1, D0
0000391E  6F10                     ble        +0x12 /* 00003930 */
00003920  4885                     ext.w      D5
00003922  BA46                     cmp.w      D5, D6
00003924  6E0A                     bgt        +0xC /* 00003930 */
00003926  102E FFFF                move.b     D0, [A6 - 0x1]
0000392A  4880                     ext.w      D0
0000392C  B046                     cmp.w      D0, D6
0000392E  6E7C                     bgt        +0x7E /* 000039AC */
label00003930:
00003930  4884                     ext.w      D4
00003932  B847                     cmp.w      D4, D7
00003934  6E2E                     bgt        +0x30 /* 00003964 */
00003936  102E FFFE                move.b     D0, [A6 - 0x2]
0000393A  4880                     ext.w      D0
0000393C  B047                     cmp.w      D0, D7
0000393E  6F24                     ble        +0x26 /* 00003964 */
00003940  48C6                     ext.l      D6
00003942  302E 0016                move.w     D0, [A6 + 0x16]
00003946  48C0                     ext.l      D0
00003948  D086                     add.l      D0, D6
0000394A  49C5                     lea.l      A4, D5
0000394C  BA80                     cmp.l      D5, D0
0000394E  6E14                     bgt        +0x16 /* 00003964 */
00003950  48C6                     ext.l      D6
00003952  302E 0016                move.w     D0, [A6 + 0x16]
00003956  48C0                     ext.l      D0
00003958  D086                     add.l      D0, D6
0000395A  122E FFFF                move.b     D1, [A6 - 0x1]
0000395E  49C1                     lea.l      A4, D1
00003960  B280                     cmp.l      D1, D0
00003962  6E48                     bgt        +0x4A /* 000039AC */
label00003964:
00003964  48C7                     ext.l      D7
00003966  302E 0012                move.w     D0, [A6 + 0x12]
0000396A  48C0                     ext.l      D0
0000396C  D087                     add.l      D0, D7
0000396E  49C4                     lea.l      A4, D4
00003970  B880                     cmp.l      D4, D0
00003972  6E3E                     bgt        +0x40 /* 000039B2 */
00003974  48C7                     ext.l      D7
00003976  302E 0012                move.w     D0, [A6 + 0x12]
0000397A  48C0                     ext.l      D0
0000397C  D087                     add.l      D0, D7
0000397E  122E FFFE                move.b     D1, [A6 - 0x2]
00003982  49C1                     lea.l      A4, D1
00003984  B280                     cmp.l      D1, D0
00003986  6F2A                     ble        +0x2C /* 000039B2 */
00003988  48C6                     ext.l      D6
0000398A  302E 0016                move.w     D0, [A6 + 0x16]
0000398E  48C0                     ext.l      D0
00003990  D086                     add.l      D0, D6
00003992  49C5                     lea.l      A4, D5
00003994  BA80                     cmp.l      D5, D0
00003996  6E1A                     bgt        +0x1C /* 000039B2 */
00003998  48C6                     ext.l      D6
0000399A  302E 0016                move.w     D0, [A6 + 0x16]
0000399E  48C0                     ext.l      D0
000039A0  D086                     add.l      D0, D6
000039A2  122E FFFF                move.b     D1, [A6 - 0x1]
000039A6  49C1                     lea.l      A4, D1
000039A8  B280                     cmp.l      D1, D0
000039AA  6F06                     ble        +0x8 /* 000039B2 */
label000039AC:
000039AC  102E FFFC                move.b     D0, [A6 - 0x4]
000039B0  6026                     bra        +0x28 /* 000039D8 */
label000039B2:
000039B2  102E FFFD                move.b     D0, [A6 - 0x3]
000039B6  522E FFFD                addq.b     [A6 - 0x3], 1
label000039BA:
000039BA  102E FFFC                move.b     D0, [A6 - 0x4]
000039BE  522E FFFC                addq.b     [A6 - 0x4], 1
label000039C2:
000039C2  102E FFFD                move.b     D0, [A6 - 0x3]
000039C6  4880                     ext.w      D0
000039C8  204D                     movea.l    A0, A5
000039CA  D1FC FFFD AFAC           add.l      A0, 0xFFFDAFAC
000039D0  B050                     cmp.w      D0, [A0]
000039D2  6D00 FEC4                blt        -0x13A /* 00003898 */
000039D6  7000                     moveq.l    D0, 0x00
label000039D8:
000039D8  4CEE 10F0 FFE8           movem.l    D4,D5,D6,D7,A4, [A6 - 0x18]
000039DE  4E5E                     unlink     A6
000039E0  4E75                     rts
000039E2  9566 696E 6466 6965 6... dc.b       "findfieldrange__FsN31"
export_122:
fn000039FA:
000039FA  4E56 0000                link       A6, 0
000039FE  48E7 0F08                movem.l    -[A7], D4,D5,D6,D7,A4
00003A02  382E 000E                move.w     D4, [A6 + 0xE]
00003A06  3A2E 000A                move.w     D5, [A6 + 0xA]
00003A0A  204D                     movea.l    A0, A5
00003A0C  D1FC FFFD AFAE           add.l      A0, 0xFFFDAFAE
00003A12  49D0                     lea.l      A4, [A0]
00003A14  4206                     clr.b      D6
00003A16  7E01                     moveq.l    D7, 0x01
00003A18  6000 0088                bra        +0x8A /* 00003AA2 */
label00003A1C:
00003A1C  4887                     ext.w      D7
00003A1E  2007                     move.l     D0, D7
00003A20  C1FC 0044                muls.w     D0, 0x44 /* 'D' */
00003A24  323C 0100                move.w     D1, 0x100
00003A28  C274 0006                and.w      D1, [A4 + D0.w + 0x6]
00003A2C  6770                     beq        +0x72 /* 00003A9E */
00003A2E  4887                     ext.w      D7
00003A30  2007                     move.l     D0, D7
00003A32  C1FC 0044                muls.w     D0, 0x44 /* 'D' */
00003A36  1034 000A                move.b     D0, [A4 + D0.w + 0xA]
00003A3A  4880                     ext.w      D0
00003A3C  B045                     cmp.w      D0, D5
00003A3E  6E5A                     bgt        +0x5C /* 00003A9A */
00003A40  4887                     ext.w      D7
00003A42  2007                     move.l     D0, D7
00003A44  C1FC 0044                muls.w     D0, 0x44 /* 'D' */
00003A48  1034 000A                move.b     D0, [A4 + D0.w + 0xA]
00003A4C  4880                     ext.w      D0
00003A4E  4887                     ext.w      D7
00003A50  2207                     move.l     D1, D7
00003A52  C3FC 0044                muls.w     D1, 0x44 /* 'D' */
00003A56  1234 100C                move.b     D1, [A4 + D1.w + 0xC]
00003A5A  4881                     ext.w      D1
00003A5C  D240                     add.w      D1, D0
00003A5E  B245                     cmp.w      D1, D5
00003A60  6F38                     ble        +0x3A /* 00003A9A */
00003A62  4887                     ext.w      D7
00003A64  2007                     move.l     D0, D7
00003A66  C1FC 0044                muls.w     D0, 0x44 /* 'D' */
00003A6A  1034 000B                move.b     D0, [A4 + D0.w + 0xB]
00003A6E  4880                     ext.w      D0
00003A70  B044                     cmp.w      D0, D4
00003A72  6E26                     bgt        +0x28 /* 00003A9A */
00003A74  4887                     ext.w      D7
00003A76  2007                     move.l     D0, D7
00003A78  C1FC 0044                muls.w     D0, 0x44 /* 'D' */
00003A7C  1034 000B                move.b     D0, [A4 + D0.w + 0xB]
00003A80  4880                     ext.w      D0
00003A82  4887                     ext.w      D7
00003A84  2207                     move.l     D1, D7
00003A86  C3FC 0044                muls.w     D1, 0x44 /* 'D' */
00003A8A  1234 100D                move.b     D1, [A4 + D1.w + 0xD]
00003A8E  4881                     ext.w      D1
00003A90  D240                     add.w      D1, D0
00003A92  B244                     cmp.w      D1, D4
00003A94  6F04                     ble        +0x6 /* 00003A9A */
00003A96  1007                     move.b     D0, D7
00003A98  601A                     bra        +0x1C /* 00003AB4 */
label00003A9A:
00003A9A  1006                     move.b     D0, D6
00003A9C  5206                     addq.b     D6, 1
label00003A9E:
00003A9E  1007                     move.b     D0, D7
00003AA0  5207                     addq.b     D7, 1
label00003AA2:
00003AA2  4886                     ext.w      D6
00003AA4  204D                     movea.l    A0, A5
00003AA6  D1FC FFFD AFAC           add.l      A0, 0xFFFDAFAC
00003AAC  BC50                     cmp.w      D6, [A0]
00003AAE  6D00 FF6C                blt        -0x92 /* 00003A1C */
00003AB2  7000                     moveq.l    D0, 0x00
label00003AB4:
00003AB4  4CEE 10F0 FFEC           movem.l    D4,D5,D6,D7,A4, [A6 - 0x14]
00003ABA  4E5E                     unlink     A6
00003ABC  4E75                     rts
00003ABE  8F66 696E 6466 6965 6... dc.b       "findfield__FsT1"
export_123:
fn00003AD0:
00003AD0  4E56 FFFC                link       A6, -0x0004
00003AD4  48E7 0F08                movem.l    -[A7], D4,D5,D6,D7,A4
00003AD8  204D                     movea.l    A0, A5
00003ADA  D1FC FFFD AFAE           add.l      A0, 0xFFFDAFAE
00003AE0  49D0                     lea.l      A4, [A0]
00003AE2  3C2E 000A                move.w     D6, [A6 + 0xA]
00003AE6  2006                     move.l     D0, D6
00003AE8  C1FC 0044                muls.w     D0, 0x44 /* 'D' */
00003AEC  4A34 0002                tst.b      [A4 + D0.w + 0x2]
00003AF0  6764                     beq        +0x66 /* 00003B56 */
00003AF2  2006                     move.l     D0, D6
00003AF4  C1FC 0044                muls.w     D0, 0x44 /* 'D' */
00003AF8  4A74 002A                tst.w      [A4 + D0.w + 0x2A]
00003AFC  6726                     beq        +0x28 /* 00003B24 */
00003AFE  2006                     move.l     D0, D6
00003B00  C1FC 0044                muls.w     D0, 0x44 /* 'D' */
00003B04  3034 002A                move.w     D0, [A4 + D0.w + 0x2A]
00003B08  48C0                     ext.l      D0
00003B0A  2F00                     move.l     -[A7], D0
00003B0C  4EAD 0582                jsr        [A5 + 0x582 /* export_172, CODE:10 @ 0000113C */]
00003B10  2006                     move.l     D0, D6
00003B12  C1FC 0044                muls.w     D0, 0x44 /* 'D' */
00003B16  3034 002A                move.w     D0, [A4 + D0.w + 0x2A]
00003B1A  48C0                     ext.l      D0
00003B1C  2F00                     move.l     -[A7], D0
00003B1E  4EAD 0562                jsr        [A5 + 0x562 /* export_168, CODE:10 @ 0000042C */]
00003B22  504F                     addq.w     A7, 8
label00003B24:
00003B24  2006                     move.l     D0, D6
00003B26  C1FC 0044                muls.w     D0, 0x44 /* 'D' */
00003B2A  4A74 002C                tst.w      [A4 + D0.w + 0x2C]
00003B2E  6726                     beq        +0x28 /* 00003B56 */
00003B30  2006                     move.l     D0, D6
00003B32  C1FC 0044                muls.w     D0, 0x44 /* 'D' */
00003B36  3034 002C                move.w     D0, [A4 + D0.w + 0x2C]
00003B3A  48C0                     ext.l      D0
00003B3C  2F00                     move.l     -[A7], D0
00003B3E  4EAD 0582                jsr        [A5 + 0x582 /* export_172, CODE:10 @ 0000113C */]
00003B42  2006                     move.l     D0, D6
00003B44  C1FC 0044                muls.w     D0, 0x44 /* 'D' */
00003B48  3034 002C                move.w     D0, [A4 + D0.w + 0x2C]
00003B4C  48C0                     ext.l      D0
00003B4E  2F00                     move.l     -[A7], D0
00003B50  4EAD 0562                jsr        [A5 + 0x562 /* export_168, CODE:10 @ 0000042C */]
00003B54  504F                     addq.w     A7, 8
label00003B56:
00003B56  2006                     move.l     D0, D6
00003B58  C1FC 0044                muls.w     D0, 0x44 /* 'D' */
00003B5C  1034 000A                move.b     D0, [A4 + D0.w + 0xA]
00003B60  4880                     ext.w      D0
00003B62  3D40 FFFC                move.w     [A6 - 0x4], D0
00003B66  2006                     move.l     D0, D6
00003B68  C1FC 0044                muls.w     D0, 0x44 /* 'D' */
00003B6C  1034 000B                move.b     D0, [A4 + D0.w + 0xB]
00003B70  4880                     ext.w      D0
00003B72  3A00                     move.w     D5, D0
00003B74  2006                     move.l     D0, D6
00003B76  C1FC 0044                muls.w     D0, 0x44 /* 'D' */
00003B7A  1034 000C                move.b     D0, [A4 + D0.w + 0xC]
00003B7E  4880                     ext.w      D0
00003B80  3D40 FFFE                move.w     [A6 - 0x2], D0
00003B84  2006                     move.l     D0, D6
00003B86  C1FC 0044                muls.w     D0, 0x44 /* 'D' */
00003B8A  1034 000D                move.b     D0, [A4 + D0.w + 0xD]
00003B8E  4880                     ext.w      D0
00003B90  3800                     move.w     D4, D0
00003B92  3C2E FFFC                move.w     D6, [A6 - 0x4]
00003B96  605C                     bra        +0x5E /* 00003BF4 */
label00003B98:
00003B98  3E05                     move.w     D7, D5
00003B9A  6046                     bra        +0x48 /* 00003BE2 */
label00003B9C:
00003B9C  48C7                     ext.l      D7
00003B9E  2F07                     move.l     -[A7], D7
00003BA0  48C6                     ext.l      D6
00003BA2  2F06                     move.l     -[A7], D6
00003BA4  4EAD 087A                jsr        [A5 + 0x87A /* export_267, CODE:14 @ 00005AE0 */]
00003BA8  2006                     move.l     D0, D6
00003BAA  C1FC 00C0                muls.w     D0, 0xC0
00003BAE  204D                     movea.l    A0, A5
00003BB0  D1FC FFFD FAD4           add.l      A0, 0xFFFDFAD4
00003BB6  2207                     move.l     D1, D7
00003BB8  D241                     add.w      D1, D1
00003BBA  D240                     add.w      D1, D0
00003BBC  0270 EFFF 1000           andi.w     [A0 + D1.w], 0xEFFF
00003BC2  2006                     move.l     D0, D6
00003BC4  C1FC 00C0                muls.w     D0, 0xC0
00003BC8  204D                     movea.l    A0, A5
00003BCA  D1FC FFFE 42D4           add.l      A0, 0xFFFE42D4
00003BD0  2207                     move.l     D1, D7
00003BD2  D241                     add.w      D1, D1
00003BD4  D240                     add.w      D1, D0
00003BD6  0270 BFFF 1000           andi.w     [A0 + D1.w], 0xBFFF
00003BDC  504F                     addq.w     A7, 8
00003BDE  3007                     move.w     D0, D7
00003BE0  5247                     addq.w     D7, 1
label00003BE2:
00003BE2  48C7                     ext.l      D7
00003BE4  48C5                     ext.l      D5
00003BE6  48C4                     ext.l      D4
00003BE8  2005                     move.l     D0, D5
00003BEA  D084                     add.l      D0, D4
00003BEC  B087                     cmp.l      D0, D7
00003BEE  6EAC                     bgt        -0x52 /* 00003B9C */
00003BF0  3006                     move.w     D0, D6
00003BF2  5246                     addq.w     D6, 1
label00003BF4:
00003BF4  48C6                     ext.l      D6
00003BF6  302E FFFC                move.w     D0, [A6 - 0x4]
00003BFA  48C0                     ext.l      D0
00003BFC  322E FFFE                move.w     D1, [A6 - 0x2]
00003C00  48C1                     ext.l      D1
00003C02  D280                     add.l      D1, D0
00003C04  B286                     cmp.l      D1, D6
00003C06  6E90                     bgt        -0x6E /* 00003B98 */
00003C08  4CEE 10F0 FFE8           movem.l    D4,D5,D6,D7,A4, [A6 - 0x18]
00003C0E  4E5E                     unlink     A6
00003C10  4E75                     rts
00003C12  8F65 7261 7365 5F66 6... dc.b       "erase_field__Fs"
export_124:
fn00003C24:
00003C24  4E56 0000                link       A6, 0
00003C28  2F0C                     move.l     -[A7], A4
00003C2A  204D                     movea.l    A0, A5
00003C2C  D1FC FFFD AFAE           add.l      A0, 0xFFFDAFAE
00003C32  49D0                     lea.l      A4, [A0]
00003C34  302E 000A                move.w     D0, [A6 + 0xA]
00003C38  C1FC 0044                muls.w     D0, 0x44 /* 'D' */
00003C3C  0274 FEFF 0006           andi.w     [A4 + D0.w + 0x6], 0xFEFF
00003C42  204D                     movea.l    A0, A5
00003C44  D1FC FFFD AFAC           add.l      A0, 0xFFFDAFAC
00003C4A  5350                     subq.w     [A0], 1
00003C4C  286E FFFC                movea.l    A4, [A6 - 0x4]
00003C50  4E5E                     unlink     A6
00003C52  4E75                     rts
00003C54  8F64 656C 6574 6566 6... dc.b       "deletefield__Fs"
fn00003C66:
00003C66  4E56 FFF4                link       A6, -0x000C
00003C6A  48E7 1F18                movem.l    -[A7], D3,D4,D5,D6,D7,A3,A4
00003C6E  204D                     movea.l    A0, A5
00003C70  D1FC FFFD AFAE           add.l      A0, 0xFFFDAFAE
00003C76  47D0                     lea.l      A3, [A0]
00003C78  382E 000E                move.w     D4, [A6 + 0xE]
00003C7C  1D7C 0001 FFFF           move.b     [A6 - 0x1], 0x1
label00003C82:
00003C82  102E FFFF                move.b     D0, [A6 - 0x1]
00003C86  4880                     ext.w      D0
00003C88  C1FC 0044                muls.w     D0, 0x44 /* 'D' */
00003C8C  323C 0100                move.w     D1, 0x100
00003C90  C273 0006                and.w      D1, [A3 + D0.w + 0x6]
00003C94  6600 044E                bne        +0x450 /* 000040E4 */
00003C98  204D                     movea.l    A0, A5
00003C9A  D1FC FFFD AFAC           add.l      A0, 0xFFFDAFAC
00003CA0  5250                     addq.w     [A0], 1
00003CA2  102E FFFF                move.b     D0, [A6 - 0x1]
00003CA6  4880                     ext.w      D0
00003CA8  C1FC 0044                muls.w     D0, 0x44 /* 'D' */
00003CAC  4273 002A                clr.w      [A3 + D0.w + 0x2A]
00003CB0  102E FFFF                move.b     D0, [A6 - 0x1]
00003CB4  4880                     ext.w      D0
00003CB6  C1FC 0044                muls.w     D0, 0x44 /* 'D' */
00003CBA  17AE 000B 000A           move.b     [A3 + D0.w + 0xA], [A6 + 0xB]
00003CC0  102E FFFF                move.b     D0, [A6 - 0x1]
00003CC4  4880                     ext.w      D0
00003CC6  C1FC 0044                muls.w     D0, 0x44 /* 'D' */
00003CCA  1784 000B                move.b     [A3 + D0.w + 0xB], D4
00003CCE  102E FFFF                move.b     D0, [A6 - 0x1]
00003CD2  4880                     ext.w      D0
00003CD4  C1FC 0044                muls.w     D0, 0x44 /* 'D' */
00003CD8  17AE 0013 000C           move.b     [A3 + D0.w + 0xC], [A6 + 0x13]
00003CDE  102E FFFF                move.b     D0, [A6 - 0x1]
00003CE2  4880                     ext.w      D0
00003CE4  C1FC 0044                muls.w     D0, 0x44 /* 'D' */
00003CE8  17AE 0017 000D           move.b     [A3 + D0.w + 0xD], [A6 + 0x17]
00003CEE  102E FFFF                move.b     D0, [A6 - 0x1]
00003CF2  4880                     ext.w      D0
00003CF4  C1FC 0044                muls.w     D0, 0x44 /* 'D' */
00003CF8  4233 000E                clr.b      [A3 + D0.w + 0xE]
00003CFC  102E FFFF                move.b     D0, [A6 - 0x1]
00003D00  4880                     ext.w      D0
00003D02  C1FC 0044                muls.w     D0, 0x44 /* 'D' */
00003D06  4273 0006                clr.w      [A3 + D0.w + 0x6]
00003D0A  102E FFFF                move.b     D0, [A6 - 0x1]
00003D0E  4880                     ext.w      D0
00003D10  C1FC 0044                muls.w     D0, 0x44 /* 'D' */
00003D14  37BC 0180 0008           move.w     [A3 + D0.w + 0x8], 0x180
00003D1A  102E FFFF                move.b     D0, [A6 - 0x1]
00003D1E  4880                     ext.w      D0
00003D20  C1FC 0044                muls.w     D0, 0x44 /* 'D' */
00003D24  4273 0012                clr.w      [A3 + D0.w + 0x12]
00003D28  102E FFFF                move.b     D0, [A6 - 0x1]
00003D2C  4880                     ext.w      D0
00003D2E  C1FC 0044                muls.w     D0, 0x44 /* 'D' */
00003D32  4273 0024                clr.w      [A3 + D0.w + 0x24]
00003D36  102E FFFF                move.b     D0, [A6 - 0x1]
00003D3A  4880                     ext.w      D0
00003D3C  C1FC 0044                muls.w     D0, 0x44 /* 'D' */
00003D40  204D                     movea.l    A0, A5
00003D42  D1FC FFFD AFAC           add.l      A0, 0xFFFDAFAC
00003D48  3790 0000                move.w     [A3 + D0.w], [A0]
00003D4C  102E FFFF                move.b     D0, [A6 - 0x1]
00003D50  4880                     ext.w      D0
00003D52  C1FC 0044                muls.w     D0, 0x44 /* 'D' */
00003D56  17AE 001B 0002           move.b     [A3 + D0.w + 0x2], [A6 + 0x1B]
00003D5C  102E FFFF                move.b     D0, [A6 - 0x1]
00003D60  4880                     ext.w      D0
00003D62  C1FC 0044                muls.w     D0, 0x44 /* 'D' */
00003D66  4233 0003                clr.b      [A3 + D0.w + 0x3]
00003D6A  102E FFFF                move.b     D0, [A6 - 0x1]
00003D6E  4880                     ext.w      D0
00003D70  C1FC 0044                muls.w     D0, 0x44 /* 'D' */
00003D74  4233 0004                clr.b      [A3 + D0.w + 0x4]
00003D78  102E FFFF                move.b     D0, [A6 - 0x1]
00003D7C  4880                     ext.w      D0
00003D7E  C1FC 0044                muls.w     D0, 0x44 /* 'D' */
00003D82  4233 0005                clr.b      [A3 + D0.w + 0x5]
00003D86  102E FFFF                move.b     D0, [A6 - 0x1]
00003D8A  4880                     ext.w      D0
00003D8C  C1FC 0044                muls.w     D0, 0x44 /* 'D' */
00003D90  4233 0021                clr.b      [A3 + D0.w + 0x21]
00003D94  102E FFFF                move.b     D0, [A6 - 0x1]
00003D98  4880                     ext.w      D0
00003D9A  C1FC 0044                muls.w     D0, 0x44 /* 'D' */
00003D9E  4233 0022                clr.b      [A3 + D0.w + 0x22]
00003DA2  102E FFFF                move.b     D0, [A6 - 0x1]
00003DA6  4880                     ext.w      D0
00003DA8  C1FC 0044                muls.w     D0, 0x44 /* 'D' */
00003DAC  0073 0100 0006           ori.w      [A3 + D0.w + 0x6], 0x100
00003DB2  102E FFFF                move.b     D0, [A6 - 0x1]
00003DB6  4880                     ext.w      D0
00003DB8  C1FC 0044                muls.w     D0, 0x44 /* 'D' */
00003DBC  4273 0026                clr.w      [A3 + D0.w + 0x26]
00003DC0  48C4                     ext.l      D4
00003DC2  2004                     move.l     D0, D4
00003DC4  5880                     addq.l     D0, 4
00003DC6  E680                     asr        D0, 3
00003DC8  322E 000A                move.w     D1, [A6 + 0xA]
00003DCC  48C1                     ext.l      D1
00003DCE  5881                     addq.l     D1, 4
00003DD0  E681                     asr        D1, 3
00003DD2  C3FC 000C                muls.w     D1, 0xC
00003DD6  204D                     movea.l    A0, A5
00003DD8  D1FC FFFE 94E2           add.l      A0, 0xFFFE94E2
00003DDE  D041                     add.w      D0, D1
00003DE0  122E FFFF                move.b     D1, [A6 - 0x1]
00003DE4  4881                     ext.w      D1
00003DE6  C3FC 0044                muls.w     D1, 0x44 /* 'D' */
00003DEA  17B0 0000 101C           move.b     [A3 + D1.w + 0x1C], [A0 + D0.w]
00003DF0  48C4                     ext.l      D4
00003DF2  2004                     move.l     D0, D4
00003DF4  5880                     addq.l     D0, 4
00003DF6  E680                     asr        D0, 3
00003DF8  322E 000A                move.w     D1, [A6 + 0xA]
00003DFC  48C1                     ext.l      D1
00003DFE  5881                     addq.l     D1, 4
00003E00  E681                     asr        D1, 3
00003E02  C3FC 000C                muls.w     D1, 0xC
00003E06  204D                     movea.l    A0, A5
00003E08  D1FC FFFE 94E2           add.l      A0, 0xFFFE94E2
00003E0E  D041                     add.w      D0, D1
00003E10  122E FFFF                move.b     D1, [A6 - 0x1]
00003E14  4881                     ext.w      D1
00003E16  C3FC 0044                muls.w     D1, 0x44 /* 'D' */
00003E1A  17B0 0000 101D           move.b     [A3 + D1.w + 0x1D], [A0 + D0.w]
00003E20  102E FFFF                move.b     D0, [A6 - 0x1]
00003E24  4880                     ext.w      D0
00003E26  C1FC 0044                muls.w     D0, 0x44 /* 'D' */
00003E2A  17BC 0041 001E           move.b     [A3 + D0.w + 0x1E], 0x41 /* 'A' */
00003E30  102E FFFF                move.b     D0, [A6 - 0x1]
00003E34  4880                     ext.w      D0
00003E36  C1FC 0044                muls.w     D0, 0x44 /* 'D' */
00003E3A  17BC 0050 001F           move.b     [A3 + D0.w + 0x1F], 0x50 /* 'P' */
00003E40  102E FFFF                move.b     D0, [A6 - 0x1]
00003E44  4880                     ext.w      D0
00003E46  C1FC 0044                muls.w     D0, 0x44 /* 'D' */
00003E4A  4233 0020                clr.b      [A3 + D0.w + 0x20]
00003E4E  48C4                     ext.l      D4
00003E50  2004                     move.l     D0, D4
00003E52  5880                     addq.l     D0, 4
00003E54  E680                     asr        D0, 3
00003E56  322E 000A                move.w     D1, [A6 + 0xA]
00003E5A  48C1                     ext.l      D1
00003E5C  5881                     addq.l     D1, 4
00003E5E  E681                     asr        D1, 3
00003E60  C3FC 000C                muls.w     D1, 0xC
00003E64  204D                     movea.l    A0, A5
00003E66  D1FC FFFE 9722           add.l      A0, 0xFFFE9722
00003E6C  D041                     add.w      D0, D1
00003E6E  122E FFFF                move.b     D1, [A6 - 0x1]
00003E72  4881                     ext.w      D1
00003E74  C3FC 0044                muls.w     D1, 0x44 /* 'D' */
00003E78  17B0 0000 1014           move.b     [A3 + D1.w + 0x14], [A0 + D0.w]
00003E7E  48C4                     ext.l      D4
00003E80  2004                     move.l     D0, D4
00003E82  5880                     addq.l     D0, 4
00003E84  E680                     asr        D0, 3
00003E86  322E 000A                move.w     D1, [A6 + 0xA]
00003E8A  48C1                     ext.l      D1
00003E8C  5881                     addq.l     D1, 4
00003E8E  E681                     asr        D1, 3
00003E90  C3FC 000C                muls.w     D1, 0xC
00003E94  204D                     movea.l    A0, A5
00003E96  D1FC FFFE 9602           add.l      A0, 0xFFFE9602
00003E9C  D041                     add.w      D0, D1
00003E9E  122E FFFF                move.b     D1, [A6 - 0x1]
00003EA2  4881                     ext.w      D1
00003EA4  C3FC 0044                muls.w     D1, 0x44 /* 'D' */
00003EA8  17B0 0000 1015           move.b     [A3 + D1.w + 0x15], [A0 + D0.w]
00003EAE  48C4                     ext.l      D4
00003EB0  2004                     move.l     D0, D4
00003EB2  5880                     addq.l     D0, 4
00003EB4  E680                     asr        D0, 3
00003EB6  322E 000A                move.w     D1, [A6 + 0xA]
00003EBA  48C1                     ext.l      D1
00003EBC  5881                     addq.l     D1, 4
00003EBE  E681                     asr        D1, 3
00003EC0  C3FC 000C                muls.w     D1, 0xC
00003EC4  204D                     movea.l    A0, A5
00003EC6  D1FC FFFE 9692           add.l      A0, 0xFFFE9692
00003ECC  D041                     add.w      D0, D1
00003ECE  122E FFFF                move.b     D1, [A6 - 0x1]
00003ED2  4881                     ext.w      D1
00003ED4  C3FC 0044                muls.w     D1, 0x44 /* 'D' */
00003ED8  17B0 0000 1016           move.b     [A3 + D1.w + 0x16], [A0 + D0.w]
00003EDE  102E FFFF                move.b     D0, [A6 - 0x1]
00003EE2  4880                     ext.w      D0
00003EE4  C1FC 0044                muls.w     D0, 0x44 /* 'D' */
00003EE8  4273 0030                clr.w      [A3 + D0.w + 0x30]
00003EEC  102E FFFF                move.b     D0, [A6 - 0x1]
00003EF0  4880                     ext.w      D0
00003EF2  C1FC 0044                muls.w     D0, 0x44 /* 'D' */
00003EF6  4233 0033                clr.b      [A3 + D0.w + 0x33]
00003EFA  102E FFFF                move.b     D0, [A6 - 0x1]
00003EFE  4880                     ext.w      D0
00003F00  C1FC 0044                muls.w     D0, 0x44 /* 'D' */
00003F04  4233 0034                clr.b      [A3 + D0.w + 0x34]
00003F08  102E FFFF                move.b     D0, [A6 - 0x1]
00003F0C  4880                     ext.w      D0
00003F0E  C1FC 0044                muls.w     D0, 0x44 /* 'D' */
00003F12  4273 0036                clr.w      [A3 + D0.w + 0x36]
00003F16  102E FFFF                move.b     D0, [A6 - 0x1]
00003F1A  4880                     ext.w      D0
00003F1C  C1FC 0044                muls.w     D0, 0x44 /* 'D' */
00003F20  4233 0038                clr.b      [A3 + D0.w + 0x38]
00003F24  102E FFFF                move.b     D0, [A6 - 0x1]
00003F28  4880                     ext.w      D0
00003F2A  C1FC 0044                muls.w     D0, 0x44 /* 'D' */
00003F2E  4233 0039                clr.b      [A3 + D0.w + 0x39]
00003F32  102E FFFF                move.b     D0, [A6 - 0x1]
00003F36  4880                     ext.w      D0
00003F38  C1FC 0044                muls.w     D0, 0x44 /* 'D' */
00003F3C  37BC 01F4 003A           move.w     [A3 + D0.w + 0x3A], 0x1F4
00003F42  102E FFFF                move.b     D0, [A6 - 0x1]
00003F46  4880                     ext.w      D0
00003F48  C1FC 0044                muls.w     D0, 0x44 /* 'D' */
00003F4C  4233 003C                clr.b      [A3 + D0.w + 0x3C]
00003F50  102E FFFF                move.b     D0, [A6 - 0x1]
00003F54  4880                     ext.w      D0
00003F56  C1FC 0044                muls.w     D0, 0x44 /* 'D' */
00003F5A  4233 003E                clr.b      [A3 + D0.w + 0x3E]
00003F5E  102E FFFF                move.b     D0, [A6 - 0x1]
00003F62  4880                     ext.w      D0
00003F64  C1FC 0044                muls.w     D0, 0x44 /* 'D' */
00003F68  4233 003D                clr.b      [A3 + D0.w + 0x3D]
00003F6C  102E FFFF                move.b     D0, [A6 - 0x1]
00003F70  4880                     ext.w      D0
00003F72  C1FC 0044                muls.w     D0, 0x44 /* 'D' */
00003F76  4273 0040                clr.w      [A3 + D0.w + 0x40]
00003F7A  102E FFFF                move.b     D0, [A6 - 0x1]
00003F7E  4880                     ext.w      D0
00003F80  C1FC 0044                muls.w     D0, 0x44 /* 'D' */
00003F84  17BC 00FF 0042           move.b     [A3 + D0.w + 0x42], 0xFF
00003F8A  102E FFFF                move.b     D0, [A6 - 0x1]
00003F8E  4880                     ext.w      D0
00003F90  C1FC 0044                muls.w     D0, 0x44 /* 'D' */
00003F94  17BC 00FF 0043           move.b     [A3 + D0.w + 0x43], 0xFF
00003F9A  3C2E 000A                move.w     D6, [A6 + 0xA]
00003F9E  6000 009A                bra        +0x9C /* 0000403A */
label00003FA2:
00003FA2  3E04                     move.w     D7, D4
00003FA4  607E                     bra        +0x80 /* 00004024 */
label00003FA6:
00003FA6  2006                     move.l     D0, D6
00003FA8  C1FC 00C0                muls.w     D0, 0xC0
00003FAC  204D                     movea.l    A0, A5
00003FAE  D1FC FFFD FAD4           add.l      A0, 0xFFFDFAD4
00003FB4  2207                     move.l     D1, D7
00003FB6  D241                     add.w      D1, D1
00003FB8  D240                     add.w      D1, D0
00003FBA  0070 1000 1000           ori.w      [A0 + D1.w], 0x1000
00003FC0  2006                     move.l     D0, D6
00003FC2  C1FC 00C0                muls.w     D0, 0xC0
00003FC6  204D                     movea.l    A0, A5
00003FC8  D1FC FFFE 42D4           add.l      A0, 0xFFFE42D4
00003FCE  2207                     move.l     D1, D7
00003FD0  D241                     add.w      D1, D1
00003FD2  D240                     add.w      D1, D0
00003FD4  0270 BFFF 1000           andi.w     [A0 + D1.w], 0xBFFF
00003FDA  2006                     move.l     D0, D6
00003FDC  C1FC 00C0                muls.w     D0, 0xC0
00003FE0  204D                     movea.l    A0, A5
00003FE2  D1FC FFFE 42D4           add.l      A0, 0xFFFE42D4
00003FE8  2207                     move.l     D1, D7
00003FEA  D241                     add.w      D1, D1
00003FEC  D240                     add.w      D1, D0
00003FEE  7000                     moveq.l    D0, 0x00
00003FF0  3030 1000                move.w     D0, [A0 + D1.w]
00003FF4  323C F800                move.w     D1, 0xF800
00003FF8  C240                     and.w      D1, D0
00003FFA  7000                     moveq.l    D0, 0x00
00003FFC  3001                     move.w     D0, D1
00003FFE  7224                     moveq.l    D1, 0x24
00004000  8240                     or.w       D1, D0
00004002  303C BFFF                move.w     D0, 0xBFFF
00004006  C041                     and.w      D0, D1
00004008  2206                     move.l     D1, D6
0000400A  C3FC 00C0                muls.w     D1, 0xC0
0000400E  204D                     movea.l    A0, A5
00004010  D1FC FFFE 42D4           add.l      A0, 0xFFFE42D4
00004016  2407                     move.l     D2, D7
00004018  D442                     add.w      D2, D2
0000401A  D441                     add.w      D2, D1
0000401C  3180 2000                move.w     [A0 + D2.w], D0
00004020  3007                     move.w     D0, D7
00004022  5247                     addq.w     D7, 1
label00004024:
00004024  48C7                     ext.l      D7
00004026  48C4                     ext.l      D4
00004028  302E 0016                move.w     D0, [A6 + 0x16]
0000402C  48C0                     ext.l      D0
0000402E  D084                     add.l      D0, D4
00004030  B087                     cmp.l      D0, D7
00004032  6E00 FF72                bgt        -0x8C /* 00003FA6 */
00004036  3006                     move.w     D0, D6
00004038  5246                     addq.w     D6, 1
label0000403A:
0000403A  48C6                     ext.l      D6
0000403C  302E 000A                move.w     D0, [A6 + 0xA]
00004040  48C0                     ext.l      D0
00004042  322E 0012                move.w     D1, [A6 + 0x12]
00004046  48C1                     ext.l      D1
00004048  D280                     add.l      D1, D0
0000404A  B286                     cmp.l      D1, D6
0000404C  6E00 FF54                bgt        -0xAA /* 00003FA2 */
00004050  426E FFF4                clr.w      [A6 - 0xC]
00004054  7460                     moveq.l    D2, 0x60
00004056  6030                     bra        +0x32 /* 00004088 */
label00004058:
00004058  4245                     clr.w      D5
0000405A  6020                     bra        +0x22 /* 0000407C */
label0000405C:
0000405C  302E FFF4                move.w     D0, [A6 - 0xC]
00004060  C1FC 00C0                muls.w     D0, 0xC0
00004064  204D                     movea.l    A0, A5
00004066  D1FC FFFE 42D4           add.l      A0, 0xFFFE42D4
0000406C  2205                     move.l     D1, D5
0000406E  D241                     add.w      D1, D1
00004070  D240                     add.w      D1, D0
00004072  0270 BFFF 1000           andi.w     [A0 + D1.w], 0xBFFF
00004078  3005                     move.w     D0, D5
0000407A  5245                     addq.w     D5, 1
label0000407C:
0000407C  B445                     cmp.w      D2, D5
0000407E  6EDC                     bgt        -0x22 /* 0000405C */
00004080  302E FFF4                move.w     D0, [A6 - 0xC]
00004084  526E FFF4                addq.w     [A6 - 0xC], 1
label00004088:
00004088  B46E FFF4                cmp.w      D2, [A6 - 0xC]
0000408C  6ECA                     bgt        -0x34 /* 00004058 */
0000408E  204D                     movea.l    A0, A5
00004090  D1FC FFFF 7868           add.l      A0, 0xFFFF7868
00004096  2050                     movea.l    A0, [A0]
00004098  2D48 FFF6                move.l     [A6 - 0xA], A0
0000409C  2868 0128                movea.l    A4, [A0 + 0x128]
000040A0  7000                     moveq.l    D0, 0x00
000040A2  2D40 FFFA                move.l     [A6 - 0x6], D0
000040A6  2F00                     move.l     -[A7], D0
000040A8  2F0C                     move.l     -[A7], A4
000040AA  2F3C 454D 6F76           move.l     -[A7], 0x454D6F76 /* 'EMov' */
000040B0  206C 00F0                movea.l    A0, [A4 + 0xF0]
000040B4  2248                     movea.l    A1, A0
000040B6  2269 0060                movea.l    A1, [A1 + 0x60]
000040BA  D0E9 0058                add.w      A0, [A1 + 0x58]
000040BE  2F08                     move.l     -[A7], A0
000040C0  206C 00F0                movea.l    A0, [A4 + 0xF0]
000040C4  2068 0060                movea.l    A0, [A0 + 0x60]
000040C8  2268 005C                movea.l    A1, [A0 + 0x5C]
000040CC  4E91                     jsr        [A1]
000040CE  102E FFFF                move.b     D0, [A6 - 0x1]
000040D2  49C0                     lea.l      A4, D0
000040D4  2F00                     move.l     -[A7], D0
000040D6  4EAD 0522                jsr        [A5 + 0x522 /* export_160, CODE:9 @ 00003696 */]
000040DA  102E FFFF                move.b     D0, [A6 - 0x1]
000040DE  4FEF 0014                lea.l      A7, [A7 + 0x14]
000040E2  6012                     bra        +0x14 /* 000040F6 */
label000040E4:
000040E4  102E FFFF                move.b     D0, [A6 - 0x1]
000040E8  522E FFFF                addq.b     [A6 - 0x1], 1
000040EC  7062                     moveq.l    D0, 0x62
000040EE  B02E FFFF                cmp.b      D0, [A6 - 0x1]
000040F2  6E00 FB8E                bgt        -0x470 /* 00003C82 */
label000040F6:
000040F6  4CEE 18F8 FFD8           movem.l    D3,D4,D5,D6,D7,A3,A4, [A6 - 0x28]
000040FC  4E5E                     unlink     A6
000040FE  4E75                     rts
00004100  9263 7265 6174 6566 6... dc.b       "createfield__FsN41"
fn00004116:
00004116  4E56 FFFC                link       A6, -0x0004
0000411A  48E7 0F00                movem.l    -[A7], D4,D5,D6,D7
0000411E  382E 0016                move.w     D4, [A6 + 0x16]
00004122  3A2E 000E                move.w     D5, [A6 + 0xE]
00004126  3C2E 000A                move.w     D6, [A6 + 0xA]
0000412A  6000 059A                bra        +0x59C /* 000046C6 */
label0000412E:
0000412E  3E05                     move.w     D7, D5
00004130  6000 0580                bra        +0x582 /* 000046B2 */
label00004134:
00004134  204D                     movea.l    A0, A5
00004136  D1FC FFFE BECA           add.l      A0, 0xFFFEBECA
0000413C  4A10                     tst.b      [A0]
0000413E  6700 04A8                beq        +0x4AA /* 000045E8 */
00004142  2006                     move.l     D0, D6
00004144  C1FC 00C0                muls.w     D0, 0xC0
00004148  204D                     movea.l    A0, A5
0000414A  D1FC FFFE 42D4           add.l      A0, 0xFFFE42D4
00004150  2207                     move.l     D1, D7
00004152  D241                     add.w      D1, D1
00004154  D240                     add.w      D1, D0
00004156  7000                     moveq.l    D0, 0x00
00004158  3030 1000                move.w     D0, [A0 + D1.w]
0000415C  323C 07FF                move.w     D1, 0x7FF
00004160  C240                     and.w      D1, D0
00004162  7000                     moveq.l    D0, 0x00
00004164  3001                     move.w     D0, D1
00004166  4A80                     tst.l      D0
00004168  204D                     movea.l    A0, A5
0000416A  D1FC FFFF 7942           add.l      A0, 0xFFFF7942
00004170  3210                     move.w     D1, [A0]
00004172  48C1                     ext.l      D1
00004174  B280                     cmp.l      D1, D0
00004176  6E46                     bgt        +0x48 /* 000041BE */
00004178  2006                     move.l     D0, D6
0000417A  C1FC 00C0                muls.w     D0, 0xC0
0000417E  204D                     movea.l    A0, A5
00004180  D1FC FFFE 42D4           add.l      A0, 0xFFFE42D4
00004186  2207                     move.l     D1, D7
00004188  D241                     add.w      D1, D1
0000418A  D240                     add.w      D1, D0
0000418C  7000                     moveq.l    D0, 0x00
0000418E  3030 1000                move.w     D0, [A0 + D1.w]
00004192  323C 07FF                move.w     D1, 0x7FF
00004196  C240                     and.w      D1, D0
00004198  7000                     moveq.l    D0, 0x00
0000419A  3001                     move.w     D0, D1
0000419C  4A80                     tst.l      D0
0000419E  204D                     movea.l    A0, A5
000041A0  D1FC FFFF 7942           add.l      A0, 0xFFFF7942
000041A6  3210                     move.w     D1, [A0]
000041A8  48C1                     ext.l      D1
000041AA  7400                     moveq.l    D2, 0x00
000041AC  204D                     movea.l    A0, A5
000041AE  D1FC FFFF 78A2           add.l      A0, 0xFFFF78A2
000041B4  1410                     move.b     D2, [A0]
000041B6  D481                     add.l      D2, D1
000041B8  B480                     cmp.l      D2, D0
000041BA  6E00 03E0                bgt        +0x3E2 /* 0000459C */
label000041BE:
000041BE  2006                     move.l     D0, D6
000041C0  C1FC 00C0                muls.w     D0, 0xC0
000041C4  204D                     movea.l    A0, A5
000041C6  D1FC FFFE 42D4           add.l      A0, 0xFFFE42D4
000041CC  2207                     move.l     D1, D7
000041CE  D241                     add.w      D1, D1
000041D0  D240                     add.w      D1, D0
000041D2  7000                     moveq.l    D0, 0x00
000041D4  3030 1000                move.w     D0, [A0 + D1.w]
000041D8  323C 07FF                move.w     D1, 0x7FF
000041DC  C240                     and.w      D1, D0
000041DE  7000                     moveq.l    D0, 0x00
000041E0  3001                     move.w     D0, D1
000041E2  4A80                     tst.l      D0
000041E4  204D                     movea.l    A0, A5
000041E6  D1FC FFFF 7A64           add.l      A0, 0xFFFF7A64
000041EC  3210                     move.w     D1, [A0]
000041EE  48C1                     ext.l      D1
000041F0  B280                     cmp.l      D1, D0
000041F2  6E46                     bgt        +0x48 /* 0000423A */
000041F4  2006                     move.l     D0, D6
000041F6  C1FC 00C0                muls.w     D0, 0xC0
000041FA  204D                     movea.l    A0, A5
000041FC  D1FC FFFE 42D4           add.l      A0, 0xFFFE42D4
00004202  2207                     move.l     D1, D7
00004204  D241                     add.w      D1, D1
00004206  D240                     add.w      D1, D0
00004208  7000                     moveq.l    D0, 0x00
0000420A  3030 1000                move.w     D0, [A0 + D1.w]
0000420E  323C 07FF                move.w     D1, 0x7FF
00004212  C240                     and.w      D1, D0
00004214  7000                     moveq.l    D0, 0x00
00004216  3001                     move.w     D0, D1
00004218  4A80                     tst.l      D0
0000421A  204D                     movea.l    A0, A5
0000421C  D1FC FFFF 7A64           add.l      A0, 0xFFFF7A64
00004222  3210                     move.w     D1, [A0]
00004224  48C1                     ext.l      D1
00004226  7400                     moveq.l    D2, 0x00
00004228  204D                     movea.l    A0, A5
0000422A  D1FC FFFF 7933           add.l      A0, 0xFFFF7933
00004230  1410                     move.b     D2, [A0]
00004232  D481                     add.l      D2, D1
00004234  B480                     cmp.l      D2, D0
00004236  6E00 0364                bgt        +0x366 /* 0000459C */
label0000423A:
0000423A  2006                     move.l     D0, D6
0000423C  C1FC 00C0                muls.w     D0, 0xC0
00004240  204D                     movea.l    A0, A5
00004242  D1FC FFFE 42D4           add.l      A0, 0xFFFE42D4
00004248  2207                     move.l     D1, D7
0000424A  D241                     add.w      D1, D1
0000424C  D240                     add.w      D1, D0
0000424E  7000                     moveq.l    D0, 0x00
00004250  3030 1000                move.w     D0, [A0 + D1.w]
00004254  323C 07FF                move.w     D1, 0x7FF
00004258  C240                     and.w      D1, D0
0000425A  7000                     moveq.l    D0, 0x00
0000425C  3001                     move.w     D0, D1
0000425E  4A80                     tst.l      D0
00004260  204D                     movea.l    A0, A5
00004262  D1FC FFFF 79DE           add.l      A0, 0xFFFF79DE
00004268  3210                     move.w     D1, [A0]
0000426A  48C1                     ext.l      D1
0000426C  B280                     cmp.l      D1, D0
0000426E  6E46                     bgt        +0x48 /* 000042B6 */
00004270  2006                     move.l     D0, D6
00004272  C1FC 00C0                muls.w     D0, 0xC0
00004276  204D                     movea.l    A0, A5
00004278  D1FC FFFE 42D4           add.l      A0, 0xFFFE42D4
0000427E  2207                     move.l     D1, D7
00004280  D241                     add.w      D1, D1
00004282  D240                     add.w      D1, D0
00004284  7000                     moveq.l    D0, 0x00
00004286  3030 1000                move.w     D0, [A0 + D1.w]
0000428A  323C 07FF                move.w     D1, 0x7FF
0000428E  C240                     and.w      D1, D0
00004290  7000                     moveq.l    D0, 0x00
00004292  3001                     move.w     D0, D1
00004294  4A80                     tst.l      D0
00004296  204D                     movea.l    A0, A5
00004298  D1FC FFFF 79DE           add.l      A0, 0xFFFF79DE
0000429E  3210                     move.w     D1, [A0]
000042A0  48C1                     ext.l      D1
000042A2  7400                     moveq.l    D2, 0x00
000042A4  204D                     movea.l    A0, A5
000042A6  D1FC FFFF 78F0           add.l      A0, 0xFFFF78F0
000042AC  1410                     move.b     D2, [A0]
000042AE  D481                     add.l      D2, D1
000042B0  B480                     cmp.l      D2, D0
000042B2  6E00 02E8                bgt        +0x2EA /* 0000459C */
label000042B6:
000042B6  2006                     move.l     D0, D6
000042B8  C1FC 00C0                muls.w     D0, 0xC0
000042BC  204D                     movea.l    A0, A5
000042BE  D1FC FFFE 42D4           add.l      A0, 0xFFFE42D4
000042C4  2207                     move.l     D1, D7
000042C6  D241                     add.w      D1, D1
000042C8  D240                     add.w      D1, D0
000042CA  7000                     moveq.l    D0, 0x00
000042CC  3030 1000                move.w     D0, [A0 + D1.w]
000042D0  323C 07FF                move.w     D1, 0x7FF
000042D4  C240                     and.w      D1, D0
000042D6  7000                     moveq.l    D0, 0x00
000042D8  3001                     move.w     D0, D1
000042DA  4A80                     tst.l      D0
000042DC  204D                     movea.l    A0, A5
000042DE  D1FC FFFF 794C           add.l      A0, 0xFFFF794C
000042E4  3210                     move.w     D1, [A0]
000042E6  48C1                     ext.l      D1
000042E8  B280                     cmp.l      D1, D0
000042EA  6E46                     bgt        +0x48 /* 00004332 */
000042EC  2006                     move.l     D0, D6
000042EE  C1FC 00C0                muls.w     D0, 0xC0
000042F2  204D                     movea.l    A0, A5
000042F4  D1FC FFFE 42D4           add.l      A0, 0xFFFE42D4
000042FA  2207                     move.l     D1, D7
000042FC  D241                     add.w      D1, D1
000042FE  D240                     add.w      D1, D0
00004300  7000                     moveq.l    D0, 0x00
00004302  3030 1000                move.w     D0, [A0 + D1.w]
00004306  323C 07FF                move.w     D1, 0x7FF
0000430A  C240                     and.w      D1, D0
0000430C  7000                     moveq.l    D0, 0x00
0000430E  3001                     move.w     D0, D1
00004310  4A80                     tst.l      D0
00004312  204D                     movea.l    A0, A5
00004314  D1FC FFFF 794C           add.l      A0, 0xFFFF794C
0000431A  3210                     move.w     D1, [A0]
0000431C  48C1                     ext.l      D1
0000431E  7400                     moveq.l    D2, 0x00
00004320  204D                     movea.l    A0, A5
00004322  D1FC FFFF 78A7           add.l      A0, 0xFFFF78A7
00004328  1410                     move.b     D2, [A0]
0000432A  D481                     add.l      D2, D1
0000432C  B480                     cmp.l      D2, D0
0000432E  6E00 026C                bgt        +0x26E /* 0000459C */
label00004332:
00004332  2006                     move.l     D0, D6
00004334  C1FC 00C0                muls.w     D0, 0xC0
00004338  204D                     movea.l    A0, A5
0000433A  D1FC FFFE 42D4           add.l      A0, 0xFFFE42D4
00004340  2207                     move.l     D1, D7
00004342  D241                     add.w      D1, D1
00004344  D240                     add.w      D1, D0
00004346  7000                     moveq.l    D0, 0x00
00004348  3030 1000                move.w     D0, [A0 + D1.w]
0000434C  323C 07FF                move.w     D1, 0x7FF
00004350  C240                     and.w      D1, D0
00004352  7000                     moveq.l    D0, 0x00
00004354  3001                     move.w     D0, D1
00004356  4A80                     tst.l      D0
00004358  204D                     movea.l    A0, A5
0000435A  D1FC FFFF 794A           add.l      A0, 0xFFFF794A
00004360  3210                     move.w     D1, [A0]
00004362  48C1                     ext.l      D1
00004364  B280                     cmp.l      D1, D0
00004366  6E46                     bgt        +0x48 /* 000043AE */
00004368  2006                     move.l     D0, D6
0000436A  C1FC 00C0                muls.w     D0, 0xC0
0000436E  204D                     movea.l    A0, A5
00004370  D1FC FFFE 42D4           add.l      A0, 0xFFFE42D4
00004376  2207                     move.l     D1, D7
00004378  D241                     add.w      D1, D1
0000437A  D240                     add.w      D1, D0
0000437C  7000                     moveq.l    D0, 0x00
0000437E  3030 1000                move.w     D0, [A0 + D1.w]
00004382  323C 07FF                move.w     D1, 0x7FF
00004386  C240                     and.w      D1, D0
00004388  7000                     moveq.l    D0, 0x00
0000438A  3001                     move.w     D0, D1
0000438C  4A80                     tst.l      D0
0000438E  204D                     movea.l    A0, A5
00004390  D1FC FFFF 794A           add.l      A0, 0xFFFF794A
00004396  3210                     move.w     D1, [A0]
00004398  48C1                     ext.l      D1
0000439A  7400                     moveq.l    D2, 0x00
0000439C  204D                     movea.l    A0, A5
0000439E  D1FC FFFF 78A6           add.l      A0, 0xFFFF78A6
000043A4  1410                     move.b     D2, [A0]
000043A6  D481                     add.l      D2, D1
000043A8  B480                     cmp.l      D2, D0
000043AA  6E00 01F0                bgt        +0x1F2 /* 0000459C */
label000043AE:
000043AE  2006                     move.l     D0, D6
000043B0  C1FC 00C0                muls.w     D0, 0xC0
000043B4  204D                     movea.l    A0, A5
000043B6  D1FC FFFE 42D4           add.l      A0, 0xFFFE42D4
000043BC  2207                     move.l     D1, D7
000043BE  D241                     add.w      D1, D1
000043C0  D240                     add.w      D1, D0
000043C2  7000                     moveq.l    D0, 0x00
000043C4  3030 1000                move.w     D0, [A0 + D1.w]
000043C8  323C 07FF                move.w     D1, 0x7FF
000043CC  C240                     and.w      D1, D0
000043CE  7000                     moveq.l    D0, 0x00
000043D0  3001                     move.w     D0, D1
000043D2  4A80                     tst.l      D0
000043D4  204D                     movea.l    A0, A5
000043D6  D1FC FFFF 79E8           add.l      A0, 0xFFFF79E8
000043DC  3210                     move.w     D1, [A0]
000043DE  48C1                     ext.l      D1
000043E0  B280                     cmp.l      D1, D0
000043E2  6E46                     bgt        +0x48 /* 0000442A */
000043E4  2006                     move.l     D0, D6
000043E6  C1FC 00C0                muls.w     D0, 0xC0
000043EA  204D                     movea.l    A0, A5
000043EC  D1FC FFFE 42D4           add.l      A0, 0xFFFE42D4
000043F2  2207                     move.l     D1, D7
000043F4  D241                     add.w      D1, D1
000043F6  D240                     add.w      D1, D0
000043F8  7000                     moveq.l    D0, 0x00
000043FA  3030 1000                move.w     D0, [A0 + D1.w]
000043FE  323C 07FF                move.w     D1, 0x7FF
00004402  C240                     and.w      D1, D0
00004404  7000                     moveq.l    D0, 0x00
00004406  3001                     move.w     D0, D1
00004408  4A80                     tst.l      D0
0000440A  204D                     movea.l    A0, A5
0000440C  D1FC FFFF 79E8           add.l      A0, 0xFFFF79E8
00004412  3210                     move.w     D1, [A0]
00004414  48C1                     ext.l      D1
00004416  7400                     moveq.l    D2, 0x00
00004418  204D                     movea.l    A0, A5
0000441A  D1FC FFFF 78F5           add.l      A0, 0xFFFF78F5
00004420  1410                     move.b     D2, [A0]
00004422  D481                     add.l      D2, D1
00004424  B480                     cmp.l      D2, D0
00004426  6E00 0174                bgt        +0x176 /* 0000459C */
label0000442A:
0000442A  2006                     move.l     D0, D6
0000442C  C1FC 00C0                muls.w     D0, 0xC0
00004430  204D                     movea.l    A0, A5
00004432  D1FC FFFE 42D4           add.l      A0, 0xFFFE42D4
00004438  2207                     move.l     D1, D7
0000443A  D241                     add.w      D1, D1
0000443C  D240                     add.w      D1, D0
0000443E  7000                     moveq.l    D0, 0x00
00004440  3030 1000                move.w     D0, [A0 + D1.w]
00004444  323C 07FF                move.w     D1, 0x7FF
00004448  C240                     and.w      D1, D0
0000444A  7000                     moveq.l    D0, 0x00
0000444C  3001                     move.w     D0, D1
0000444E  4A80                     tst.l      D0
00004450  204D                     movea.l    A0, A5
00004452  D1FC FFFF 79EA           add.l      A0, 0xFFFF79EA
00004458  3210                     move.w     D1, [A0]
0000445A  48C1                     ext.l      D1
0000445C  B280                     cmp.l      D1, D0
0000445E  6E46                     bgt        +0x48 /* 000044A6 */
00004460  2006                     move.l     D0, D6
00004462  C1FC 00C0                muls.w     D0, 0xC0
00004466  204D                     movea.l    A0, A5
00004468  D1FC FFFE 42D4           add.l      A0, 0xFFFE42D4
0000446E  2207                     move.l     D1, D7
00004470  D241                     add.w      D1, D1
00004472  D240                     add.w      D1, D0
00004474  7000                     moveq.l    D0, 0x00
00004476  3030 1000                move.w     D0, [A0 + D1.w]
0000447A  323C 07FF                move.w     D1, 0x7FF
0000447E  C240                     and.w      D1, D0
00004480  7000                     moveq.l    D0, 0x00
00004482  3001                     move.w     D0, D1
00004484  4A80                     tst.l      D0
00004486  204D                     movea.l    A0, A5
00004488  D1FC FFFF 79EA           add.l      A0, 0xFFFF79EA
0000448E  3210                     move.w     D1, [A0]
00004490  48C1                     ext.l      D1
00004492  7400                     moveq.l    D2, 0x00
00004494  204D                     movea.l    A0, A5
00004496  D1FC FFFF 78F6           add.l      A0, 0xFFFF78F6
0000449C  1410                     move.b     D2, [A0]
0000449E  D481                     add.l      D2, D1
000044A0  B480                     cmp.l      D2, D0
000044A2  6E00 00F8                bgt        +0xFA /* 0000459C */
label000044A6:
000044A6  2006                     move.l     D0, D6
000044A8  C1FC 00C0                muls.w     D0, 0xC0
000044AC  204D                     movea.l    A0, A5
000044AE  D1FC FFFE 42D4           add.l      A0, 0xFFFE42D4
000044B4  2207                     move.l     D1, D7
000044B6  D241                     add.w      D1, D1
000044B8  D240                     add.w      D1, D0
000044BA  7000                     moveq.l    D0, 0x00
000044BC  3030 1000                move.w     D0, [A0 + D1.w]
000044C0  323C 07FF                move.w     D1, 0x7FF
000044C4  C240                     and.w      D1, D0
000044C6  7000                     moveq.l    D0, 0x00
000044C8  3001                     move.w     D0, D1
000044CA  4A80                     tst.l      D0
000044CC  204D                     movea.l    A0, A5
000044CE  D1FC FFFF 79B2           add.l      A0, 0xFFFF79B2
000044D4  3210                     move.w     D1, [A0]
000044D6  48C1                     ext.l      D1
000044D8  B280                     cmp.l      D1, D0
000044DA  6E44                     bgt        +0x46 /* 00004520 */
000044DC  2006                     move.l     D0, D6
000044DE  C1FC 00C0                muls.w     D0, 0xC0
000044E2  204D                     movea.l    A0, A5
000044E4  D1FC FFFE 42D4           add.l      A0, 0xFFFE42D4
000044EA  2207                     move.l     D1, D7
000044EC  D241                     add.w      D1, D1
000044EE  D240                     add.w      D1, D0
000044F0  7000                     moveq.l    D0, 0x00
000044F2  3030 1000                move.w     D0, [A0 + D1.w]
000044F6  323C 07FF                move.w     D1, 0x7FF
000044FA  C240                     and.w      D1, D0
000044FC  7000                     moveq.l    D0, 0x00
000044FE  3001                     move.w     D0, D1
00004500  4A80                     tst.l      D0
00004502  204D                     movea.l    A0, A5
00004504  D1FC FFFF 79B2           add.l      A0, 0xFFFF79B2
0000450A  3210                     move.w     D1, [A0]
0000450C  48C1                     ext.l      D1
0000450E  7400                     moveq.l    D2, 0x00
00004510  204D                     movea.l    A0, A5
00004512  D1FC FFFF 78DA           add.l      A0, 0xFFFF78DA
00004518  1410                     move.b     D2, [A0]
0000451A  D481                     add.l      D2, D1
0000451C  B480                     cmp.l      D2, D0
0000451E  6E7C                     bgt        +0x7E /* 0000459C */
label00004520:
00004520  2006                     move.l     D0, D6
00004522  C1FC 00C0                muls.w     D0, 0xC0
00004526  204D                     movea.l    A0, A5
00004528  D1FC FFFE 42D4           add.l      A0, 0xFFFE42D4
0000452E  2207                     move.l     D1, D7
00004530  D241                     add.w      D1, D1
00004532  D240                     add.w      D1, D0
00004534  7000                     moveq.l    D0, 0x00
00004536  3030 1000                move.w     D0, [A0 + D1.w]
0000453A  323C 07FF                move.w     D1, 0x7FF
0000453E  C240                     and.w      D1, D0
00004540  7000                     moveq.l    D0, 0x00
00004542  3001                     move.w     D0, D1
00004544  4A80                     tst.l      D0
00004546  204D                     movea.l    A0, A5
00004548  D1FC FFFF 79BE           add.l      A0, 0xFFFF79BE
0000454E  3210                     move.w     D1, [A0]
00004550  48C1                     ext.l      D1
00004552  B280                     cmp.l      D1, D0
00004554  6E00 008C                bgt        +0x8E /* 000045E2 */
00004558  2006                     move.l     D0, D6
0000455A  C1FC 00C0                muls.w     D0, 0xC0
0000455E  204D                     movea.l    A0, A5
00004560  D1FC FFFE 42D4           add.l      A0, 0xFFFE42D4
00004566  2207                     move.l     D1, D7
00004568  D241                     add.w      D1, D1
0000456A  D240                     add.w      D1, D0
0000456C  7000                     moveq.l    D0, 0x00
0000456E  3030 1000                move.w     D0, [A0 + D1.w]
00004572  323C 07FF                move.w     D1, 0x7FF
00004576  C240                     and.w      D1, D0
00004578  7000                     moveq.l    D0, 0x00
0000457A  3001                     move.w     D0, D1
0000457C  4A80                     tst.l      D0
0000457E  204D                     movea.l    A0, A5
00004580  D1FC FFFF 79BE           add.l      A0, 0xFFFF79BE
00004586  3210                     move.w     D1, [A0]
00004588  48C1                     ext.l      D1
0000458A  7400                     moveq.l    D2, 0x00
0000458C  204D                     movea.l    A0, A5
0000458E  D1FC FFFF 78E0           add.l      A0, 0xFFFF78E0
00004594  1410                     move.b     D2, [A0]
00004596  D481                     add.l      D2, D1
00004598  B480                     cmp.l      D2, D0
0000459A  6F46                     ble        +0x48 /* 000045E2 */
label0000459C:
0000459C  2006                     move.l     D0, D6
0000459E  C1FC 00C0                muls.w     D0, 0xC0
000045A2  204D                     movea.l    A0, A5
000045A4  D1FC FFFE 42D4           add.l      A0, 0xFFFE42D4
000045AA  2207                     move.l     D1, D7
000045AC  D241                     add.w      D1, D1
000045AE  D240                     add.w      D1, D0
000045B0  7000                     moveq.l    D0, 0x00
000045B2  3030 1000                move.w     D0, [A0 + D1.w]
000045B6  323C 0800                move.w     D1, 0x800
000045BA  C240                     and.w      D1, D0
000045BC  6624                     bne        +0x26 /* 000045E2 */
000045BE  2006                     move.l     D0, D6
000045C0  C1FC 00C0                muls.w     D0, 0xC0
000045C4  204D                     movea.l    A0, A5
000045C6  D1FC FFFD FAD4           add.l      A0, 0xFFFDFAD4
000045CC  2207                     move.l     D1, D7
000045CE  D241                     add.w      D1, D1
000045D0  D240                     add.w      D1, D0
000045D2  7000                     moveq.l    D0, 0x00
000045D4  3030 1000                move.w     D0, [A0 + D1.w]
000045D8  323C 0800                move.w     D1, 0x800
000045DC  C240                     and.w      D1, D0
000045DE  6600 00CE                bne        +0xD0 /* 000046AE */
label000045E2:
000045E2  7000                     moveq.l    D0, 0x00
000045E4  6000 0176                bra        +0x178 /* 0000475C */
label000045E8:
000045E8  2006                     move.l     D0, D6
000045EA  C1FC 00C0                muls.w     D0, 0xC0
000045EE  204D                     movea.l    A0, A5
000045F0  D1FC FFFE 42D4           add.l      A0, 0xFFFE42D4
000045F6  2207                     move.l     D1, D7
000045F8  D241                     add.w      D1, D1
000045FA  D240                     add.w      D1, D0
000045FC  7000                     moveq.l    D0, 0x00
000045FE  3030 1000                move.w     D0, [A0 + D1.w]
00004602  323C 07FF                move.w     D1, 0x7FF
00004606  C240                     and.w      D1, D0
00004608  7000                     moveq.l    D0, 0x00
0000460A  3001                     move.w     D0, D1
0000460C  4A80                     tst.l      D0
0000460E  204D                     movea.l    A0, A5
00004610  D1FC FFFF 7942           add.l      A0, 0xFFFF7942
00004616  3210                     move.w     D1, [A0]
00004618  48C1                     ext.l      D1
0000461A  B280                     cmp.l      D1, D0
0000461C  6E00 008A                bgt        +0x8C /* 000046A8 */
00004620  2006                     move.l     D0, D6
00004622  C1FC 00C0                muls.w     D0, 0xC0
00004626  204D                     movea.l    A0, A5
00004628  D1FC FFFE 42D4           add.l      A0, 0xFFFE42D4
0000462E  2207                     move.l     D1, D7
00004630  D241                     add.w      D1, D1
00004632  D240                     add.w      D1, D0
00004634  7000                     moveq.l    D0, 0x00
00004636  3030 1000                move.w     D0, [A0 + D1.w]
0000463A  323C 07FF                move.w     D1, 0x7FF
0000463E  C240                     and.w      D1, D0
00004640  7000                     moveq.l    D0, 0x00
00004642  3001                     move.w     D0, D1
00004644  4A80                     tst.l      D0
00004646  204D                     movea.l    A0, A5
00004648  D1FC FFFF 7942           add.l      A0, 0xFFFF7942
0000464E  3210                     move.w     D1, [A0]
00004650  48C1                     ext.l      D1
00004652  7400                     moveq.l    D2, 0x00
00004654  204D                     movea.l    A0, A5
00004656  D1FC FFFF 78A2           add.l      A0, 0xFFFF78A2
0000465C  1410                     move.b     D2, [A0]
0000465E  D481                     add.l      D2, D1
00004660  B480                     cmp.l      D2, D0
00004662  6F44                     ble        +0x46 /* 000046A8 */
00004664  2006                     move.l     D0, D6
00004666  C1FC 00C0                muls.w     D0, 0xC0
0000466A  204D                     movea.l    A0, A5
0000466C  D1FC FFFE 42D4           add.l      A0, 0xFFFE42D4
00004672  2207                     move.l     D1, D7
00004674  D241                     add.w      D1, D1
00004676  D240                     add.w      D1, D0
00004678  7000                     moveq.l    D0, 0x00
0000467A  3030 1000                move.w     D0, [A0 + D1.w]
0000467E  323C 0800                move.w     D1, 0x800
00004682  C240                     and.w      D1, D0
00004684  6622                     bne        +0x24 /* 000046A8 */
00004686  2006                     move.l     D0, D6
00004688  C1FC 00C0                muls.w     D0, 0xC0
0000468C  204D                     movea.l    A0, A5
0000468E  D1FC FFFD FAD4           add.l      A0, 0xFFFDFAD4
00004694  2207                     move.l     D1, D7
00004696  D241                     add.w      D1, D1
00004698  D240                     add.w      D1, D0
0000469A  7000                     moveq.l    D0, 0x00
0000469C  3030 1000                move.w     D0, [A0 + D1.w]
000046A0  323C 0800                move.w     D1, 0x800
000046A4  C240                     and.w      D1, D0
000046A6  6606                     bne        +0x8 /* 000046AE */
label000046A8:
000046A8  7000                     moveq.l    D0, 0x00
000046AA  6000 00B0                bra        +0xB2 /* 0000475C */
label000046AE:
000046AE  3007                     move.w     D0, D7
000046B0  5247                     addq.w     D7, 1
label000046B2:
000046B2  48C7                     ext.l      D7
000046B4  48C5                     ext.l      D5
000046B6  48C4                     ext.l      D4
000046B8  2005                     move.l     D0, D5
000046BA  D084                     add.l      D0, D4
000046BC  B087                     cmp.l      D0, D7
000046BE  6E00 FA74                bgt        -0x58A /* 00004134 */
000046C2  3006                     move.w     D0, D6
000046C4  5246                     addq.w     D6, 1
label000046C6:
000046C6  48C6                     ext.l      D6
000046C8  302E 000A                move.w     D0, [A6 + 0xA]
000046CC  48C0                     ext.l      D0
000046CE  322E 0012                move.w     D1, [A6 + 0x12]
000046D2  48C1                     ext.l      D1
000046D4  D280                     add.l      D1, D0
000046D6  B286                     cmp.l      D1, D6
000046D8  6E00 FA54                bgt        -0x5AA /* 0000412E */
000046DC  3C2E 000A                move.w     D6, [A6 + 0xA]
000046E0  5346                     subq.w     D6, 1
000046E2  6060                     bra        +0x62 /* 00004744 */
label000046E4:
000046E4  3E05                     move.w     D7, D5
000046E6  5347                     subq.w     D7, 1
000046E8  6046                     bra        +0x48 /* 00004730 */
label000046EA:
000046EA  486E FFFE                pea.l      [A6 - 0x2]
000046EE  486E FFFC                pea.l      [A6 - 0x4]
000046F2  48C7                     ext.l      D7
000046F4  2F07                     move.l     -[A7], D7
000046F6  48C6                     ext.l      D6
000046F8  2F06                     move.l     -[A7], D6
000046FA  4EAD 0872                jsr        [A5 + 0x872 /* export_266, CODE:14 @ 00005A7C */]
000046FE  302E FFFC                move.w     D0, [A6 - 0x4]
00004702  C1FC 00C0                muls.w     D0, 0xC0
00004706  204D                     movea.l    A0, A5
00004708  D1FC FFFD FAD4           add.l      A0, 0xFFFDFAD4
0000470E  322E FFFE                move.w     D1, [A6 - 0x2]
00004712  D241                     add.w      D1, D1
00004714  D240                     add.w      D1, D0
00004716  7000                     moveq.l    D0, 0x00
00004718  3030 1000                move.w     D0, [A0 + D1.w]
0000471C  323C 1000                move.w     D1, 0x1000
00004720  C240                     and.w      D1, D0
00004722  4FEF 0010                lea.l      A7, [A7 + 0x10]
00004726  6704                     beq        +0x6 /* 0000472C */
00004728  7000                     moveq.l    D0, 0x00
0000472A  6030                     bra        +0x32 /* 0000475C */
label0000472C:
0000472C  3007                     move.w     D0, D7
0000472E  5247                     addq.w     D7, 1
label00004730:
00004730  48C7                     ext.l      D7
00004732  48C5                     ext.l      D5
00004734  48C4                     ext.l      D4
00004736  2005                     move.l     D0, D5
00004738  D084                     add.l      D0, D4
0000473A  5280                     addq.l     D0, 1
0000473C  B087                     cmp.l      D0, D7
0000473E  6EAA                     bgt        -0x54 /* 000046EA */
00004740  3006                     move.w     D0, D6
00004742  5246                     addq.w     D6, 1
label00004744:
00004744  48C6                     ext.l      D6
00004746  302E 000A                move.w     D0, [A6 + 0xA]
0000474A  48C0                     ext.l      D0
0000474C  322E 0012                move.w     D1, [A6 + 0x12]
00004750  48C1                     ext.l      D1
00004752  D280                     add.l      D1, D0
00004754  5281                     addq.l     D1, 1
00004756  B286                     cmp.l      D1, D6
00004758  6E8A                     bgt        -0x74 /* 000046E4 */
0000475A  7001                     moveq.l    D0, 0x01
label0000475C:
0000475C  4CEE 00F0 FFEC           movem.l    D4,D5,D6,D7, [A6 - 0x14]
00004762  4E5E                     unlink     A6
00004764  4E75                     rts
00004766  9273 6361 6E74 6572 7... dc.b       "scanterrain__FsN31"
export_125:
0000477C  4E56 0000                link       A6, 0
00004780  48E7 0300                movem.l    -[A7], D6,D7
00004784  3C2E 000E                move.w     D6, [A6 + 0xE]
00004788  3E2E 000A                move.w     D7, [A6 + 0xA]
0000478C  7008                     moveq.l    D0, 0x08
0000478E  2F00                     move.l     -[A7], D0
00004790  2F00                     move.l     -[A7], D0
00004792  48C6                     ext.l      D6
00004794  2F06                     move.l     -[A7], D6
00004796  48C7                     ext.l      D7
00004798  2F07                     move.l     -[A7], D7
0000479A  4EBA F97A                jsr        [PC - 0x686 /* 00004116 */]
0000479E  4A00                     tst.b      D0
000047A0  4FEF 0010                lea.l      A7, [A7 + 0x10]
000047A4  671E                     beq        +0x20 /* 000047C4 */
000047A6  7000                     moveq.l    D0, 0x00
000047A8  2F00                     move.l     -[A7], D0
000047AA  7208                     moveq.l    D1, 0x08
000047AC  2F01                     move.l     -[A7], D1
000047AE  2F01                     move.l     -[A7], D1
000047B0  48C6                     ext.l      D6
000047B2  2F06                     move.l     -[A7], D6
000047B4  48C7                     ext.l      D7
000047B6  2F07                     move.l     -[A7], D7
000047B8  4EBA F4AC                jsr        [PC - 0xB54 /* 00003C66 */]
000047BC  4880                     ext.w      D0
000047BE  4FEF 0014                lea.l      A7, [A7 + 0x14]
000047C2  6002                     bra        +0x4 /* 000047C6 */
label000047C4:
000047C4  7000                     moveq.l    D0, 0x00
label000047C6:
000047C6  4CEE 00C0 FFF8           movem.l    D6,D7, [A6 - 0x8]
000047CC  4E5E                     unlink     A6
000047CE  4E75                     rts
000047D0  906D 616B 6566 6965 6... dc.b       "makefield__FsN21"
export_126:
000047E4  4E56 FFF8                link       A6, -0x0008
000047E8  48E7 0F08                movem.l    -[A7], D4,D5,D6,D7,A4
000047EC  204D                     movea.l    A0, A5
000047EE  D1FC FFFD AFAE           add.l      A0, 0xFFFDAFAE
000047F4  49D0                     lea.l      A4, [A0]
000047F6  2A3C 000F 4240           move.l     D5, 0xF4240
000047FC  2C3C 000F 4240           move.l     D6, 0xF4240
00004802  422E FFFF                clr.b      [A6 - 0x1]
00004806  7E01                     moveq.l    D7, 0x01
00004808  4244                     clr.w      D4
0000480A  6000 00B6                bra        +0xB8 /* 000048C2 */
label0000480E:
0000480E  2007                     move.l     D0, D7
00004810  C1FC 0044                muls.w     D0, 0x44 /* 'D' */
00004814  323C 0100                move.w     D1, 0x100
00004818  C274 0006                and.w      D1, [A4 + D0.w + 0x6]
0000481C  6700 008C                beq        +0x8E /* 000048AA */
00004820  2007                     move.l     D0, D7
00004822  C1FC 0044                muls.w     D0, 0x44 /* 'D' */
00004826  1034 000E                move.b     D0, [A4 + D0.w + 0xE]
0000482A  4880                     ext.w      D0
0000482C  EF40                     asl        D0.w, 7
0000482E  204D                     movea.l    A0, A5
00004830  D1FC FFFD CED4           add.l      A0, 0xFFFDCED4
00004836  7200                     moveq.l    D1, 0x00
00004838  1230 003E                move.b     D1, [A0 + D0.w + 0x3E]
0000483C  7004                     moveq.l    D0, 0x04
0000483E  C001                     and.b      D0, D1
00004840  6668                     bne        +0x6A /* 000048AA */
00004842  2007                     move.l     D0, D7
00004844  C1FC 0044                muls.w     D0, 0x44 /* 'D' */
00004848  1034 000B                move.b     D0, [A4 + D0.w + 0xB]
0000484C  49C0                     lea.l      A4, D0
0000484E  2F00                     move.l     -[A7], D0
00004850  2007                     move.l     D0, D7
00004852  C1FC 0044                muls.w     D0, 0x44 /* 'D' */
00004856  1034 000A                move.b     D0, [A4 + D0.w + 0xA]
0000485A  49C0                     lea.l      A4, D0
0000485C  2F00                     move.l     -[A7], D0
0000485E  102E 000F                move.b     D0, [A6 + 0xF]
00004862  49C0                     lea.l      A4, D0
00004864  2F00                     move.l     -[A7], D0
00004866  102E 000B                move.b     D0, [A6 + 0xB]
0000486A  49C0                     lea.l      A4, D0
0000486C  2F00                     move.l     -[A7], D0
0000486E  4EAD 056A                jsr        [A5 + 0x56A /* export_169, CODE:10 @ 00000510 */]
00004872  48C0                     ext.l      D0
00004874  2C00                     move.l     D6, D0
00004876  BA86                     cmp.l      D5, D6
00004878  4FEF 0010                lea.l      A7, [A7 + 0x10]
0000487C  6F2C                     ble        +0x2E /* 000048AA */
0000487E  2A06                     move.l     D5, D6
00004880  2007                     move.l     D0, D7
00004882  C1FC 0044                muls.w     D0, 0x44 /* 'D' */
00004886  1034 000A                move.b     D0, [A4 + D0.w + 0xA]
0000488A  4880                     ext.w      D0
0000488C  3D40 FFF8                move.w     [A6 - 0x8], D0
00004890  2007                     move.l     D0, D7
00004892  C1FC 0044                muls.w     D0, 0x44 /* 'D' */
00004896  1034 000B                move.b     D0, [A4 + D0.w + 0xB]
0000489A  4880                     ext.w      D0
0000489C  3D40 FFFA                move.w     [A6 - 0x6], D0
000048A0  3D47 FFFC                move.w     [A6 - 0x4], D7
000048A4  1D7C 0001 FFFF           move.b     [A6 - 0x1], 0x1
label000048AA:
000048AA  2007                     move.l     D0, D7
000048AC  C1FC 0044                muls.w     D0, 0x44 /* 'D' */
000048B0  323C 0100                move.w     D1, 0x100
000048B4  C274 0006                and.w      D1, [A4 + D0.w + 0x6]
000048B8  6704                     beq        +0x6 /* 000048BE */
000048BA  3004                     move.w     D0, D4
000048BC  5244                     addq.w     D4, 1
label000048BE:
000048BE  3007                     move.w     D0, D7
000048C0  5247                     addq.w     D7, 1
label000048C2:
000048C2  204D                     movea.l    A0, A5
000048C4  D1FC FFFD AFAC           add.l      A0, 0xFFFDAFAC
000048CA  B850                     cmp.w      D4, [A0]
000048CC  6D00 FF40                blt        -0xBE /* 0000480E */
000048D0  4A2E FFFF                tst.b      [A6 - 0x1]
000048D4  6706                     beq        +0x8 /* 000048DC */
000048D6  302E FFFC                move.w     D0, [A6 - 0x4]
000048DA  6002                     bra        +0x4 /* 000048DE */
label000048DC:
000048DC  7000                     moveq.l    D0, 0x00
label000048DE:
000048DE  4CEE 10F0 FFE4           movem.l    D4,D5,D6,D7,A4, [A6 - 0x1C]
000048E4  4E5E                     unlink     A6
000048E6  4E75                     rts
000048E8  9666 696E 6463 6C6F 7... dc.b       "findclosestfield__FsT1"
export_127:
fn00004902:
00004902  4E56 0000                link       A6, 0
00004906  48E7 0F08                movem.l    -[A7], D4,D5,D6,D7,A4
0000490A  204D                     movea.l    A0, A5
0000490C  D1FC FFFD AFAE           add.l      A0, 0xFFFDAFAE
00004912  49D0                     lea.l      A4, [A0]
00004914  3C2E 000A                move.w     D6, [A6 + 0xA]
00004918  2006                     move.l     D0, D6
0000491A  C1FC 0044                muls.w     D0, 0x44 /* 'D' */
0000491E  4A34 0002                tst.b      [A4 + D0.w + 0x2]
00004922  6606                     bne        +0x8 /* 0000492A */
00004924  7000                     moveq.l    D0, 0x00
00004926  6000 00C8                bra        +0xCA /* 000049F0 */
label0000492A:
0000492A  2006                     move.l     D0, D6
0000492C  C1FC 0044                muls.w     D0, 0x44 /* 'D' */
00004930  1034 000E                move.b     D0, [A4 + D0.w + 0xE]
00004934  4880                     ext.w      D0
00004936  3E00                     move.w     D7, D0
00004938  48C6                     ext.l      D6
0000493A  2F06                     move.l     -[A7], D6
0000493C  4EBA 01DA                jsr        [PC + 0x1DA /* 00004B18 */]
00004940  3A00                     move.w     D5, D0
00004942  2006                     move.l     D0, D6
00004944  C1FC 0044                muls.w     D0, 0x44 /* 'D' */
00004948  7200                     moveq.l    D1, 0x00
0000494A  3234 0030                move.w     D1, [A4 + D0.w + 0x30]
0000494E  4A81                     tst.l      D1
00004950  584F                     addq.w     A7, 4
00004952  6652                     bne        +0x54 /* 000049A6 */
00004954  2007                     move.l     D0, D7
00004956  C1FC 0012                muls.w     D0, 0x12
0000495A  204D                     movea.l    A0, A5
0000495C  D1FC FFFE 9C5E           add.l      A0, 0xFFFE9C5E
00004962  7200                     moveq.l    D1, 0x00
00004964  3230 0006                move.w     D1, [A0 + D0.w + 0x6]
00004968  4A81                     tst.l      D1
0000496A  4C7C 1801 0000 000A      divu.l     D2:D0, 0x18010000
00004972  7000                     moveq.l    D0, 0x00
00004974  3001                     move.w     D0, D1
00004976  2F00                     move.l     -[A7], D0
00004978  7000                     moveq.l    D0, 0x00
0000497A  2F00                     move.l     -[A7], D0
0000497C  7200                     moveq.l    D1, 0x00
0000497E  3205                     move.w     D1, D5
00004980  2F01                     move.l     -[A7], D1
00004982  2207                     move.l     D1, D7
00004984  EF41                     asl        D1.w, 7
00004986  204D                     movea.l    A0, A5
00004988  D1FC FFFD CED4           add.l      A0, 0xFFFDCED4
0000498E  7400                     moveq.l    D2, 0x00
00004990  3430 1020                move.w     D2, [A0 + D1.w + 0x20]
00004994  2F02                     move.l     -[A7], D2
00004996  48C7                     ext.l      D7
00004998  2F07                     move.l     -[A7], D7
0000499A  4EBA 04C8                jsr        [PC + 0x4C8 /* 00004E64 */]
0000499E  2800                     move.l     D4, D0
000049A0  4FEF 0014                lea.l      A7, [A7 + 0x14]
000049A4  6048                     bra        +0x4A /* 000049EE */
label000049A6:
000049A6  2006                     move.l     D0, D6
000049A8  C1FC 0044                muls.w     D0, 0x44 /* 'D' */
000049AC  7200                     moveq.l    D1, 0x00
000049AE  3234 0030                move.w     D1, [A4 + D0.w + 0x30]
000049B2  4A81                     tst.l      D1
000049B4  4C7C 1801 0000 000A      divu.l     D2:D0, 0x18010000
000049BC  7000                     moveq.l    D0, 0x00
000049BE  3001                     move.w     D0, D1
000049C0  2F00                     move.l     -[A7], D0
000049C2  7000                     moveq.l    D0, 0x00
000049C4  2F00                     move.l     -[A7], D0
000049C6  7200                     moveq.l    D1, 0x00
000049C8  3205                     move.w     D1, D5
000049CA  2F01                     move.l     -[A7], D1
000049CC  2207                     move.l     D1, D7
000049CE  EF41                     asl        D1.w, 7
000049D0  204D                     movea.l    A0, A5
000049D2  D1FC FFFD CED4           add.l      A0, 0xFFFDCED4
000049D8  7400                     moveq.l    D2, 0x00
000049DA  3430 1020                move.w     D2, [A0 + D1.w + 0x20]
000049DE  2F02                     move.l     -[A7], D2
000049E0  48C7                     ext.l      D7
000049E2  2F07                     move.l     -[A7], D7
000049E4  4EBA 047E                jsr        [PC + 0x47E /* 00004E64 */]
000049E8  2800                     move.l     D4, D0
000049EA  4FEF 0014                lea.l      A7, [A7 + 0x14]
label000049EE:
000049EE  2004                     move.l     D0, D4
label000049F0:
000049F0  4CEE 10F0 FFEC           movem.l    D4,D5,D6,D7,A4, [A6 - 0x14]
000049F6  4E5E                     unlink     A6
000049F8  4E75                     rts
000049FA  9367 6574 5F66 6965 6... dc.b       "get_field_value__Fs"
export_128:
fn00004A10:
00004A10  4E56 FFFE                link       A6, -0x0002
00004A14  48E7 0F08                movem.l    -[A7], D4,D5,D6,D7,A4
00004A18  204D                     movea.l    A0, A5
00004A1A  D1FC FFFD AFAE           add.l      A0, 0xFFFDAFAE
00004A20  49D0                     lea.l      A4, [A0]
00004A22  3C2E 000A                move.w     D6, [A6 + 0xA]
00004A26  2006                     move.l     D0, D6
00004A28  C1FC 0044                muls.w     D0, 0x44 /* 'D' */
00004A2C  4A34 0002                tst.b      [A4 + D0.w + 0x2]
00004A30  6606                     bne        +0x8 /* 00004A38 */
00004A32  7000                     moveq.l    D0, 0x00
00004A34  6000 00BC                bra        +0xBE /* 00004AF2 */
label00004A38:
00004A38  2006                     move.l     D0, D6
00004A3A  C1FC 0044                muls.w     D0, 0x44 /* 'D' */
00004A3E  1034 0022                move.b     D0, [A4 + D0.w + 0x22]
00004A42  4880                     ext.w      D0
00004A44  3D40 FFFE                move.w     [A6 - 0x2], D0
00004A48  2006                     move.l     D0, D6
00004A4A  C1FC 0044                muls.w     D0, 0x44 /* 'D' */
00004A4E  1034 000E                move.b     D0, [A4 + D0.w + 0xE]
00004A52  4880                     ext.w      D0
00004A54  3E00                     move.w     D7, D0
00004A56  2007                     move.l     D0, D7
00004A58  EF40                     asl        D0.w, 7
00004A5A  204D                     movea.l    A0, A5
00004A5C  D1FC FFFD CED4           add.l      A0, 0xFFFDCED4
00004A62  7800                     moveq.l    D4, 0x00
00004A64  1830 0038                move.b     D4, [A0 + D0.w + 0x38]
00004A68  2007                     move.l     D0, D7
00004A6A  EF40                     asl        D0.w, 7
00004A6C  204D                     movea.l    A0, A5
00004A6E  D1FC FFFD CED4           add.l      A0, 0xFFFDCED4
00004A74  7A00                     moveq.l    D5, 0x00
00004A76  1A30 0042                move.b     D5, [A0 + D0.w + 0x42]
00004A7A  2007                     move.l     D0, D7
00004A7C  EF40                     asl        D0.w, 7
00004A7E  204D                     movea.l    A0, A5
00004A80  D1FC FFFD CED4           add.l      A0, 0xFFFDCED4
00004A86  7200                     moveq.l    D1, 0x00
00004A88  3230 001E                move.w     D1, [A0 + D0.w + 0x1E]
00004A8C  4A81                     tst.l      D1
00004A8E  6328                     bls        +0x2A /* 00004AB8 */
00004A90  2006                     move.l     D0, D6
00004A92  C1FC 0044                muls.w     D0, 0x44 /* 'D' */
00004A96  7200                     moveq.l    D1, 0x00
00004A98  3234 0026                move.w     D1, [A4 + D0.w + 0x26]
00004A9C  2007                     move.l     D0, D7
00004A9E  EF40                     asl        D0.w, 7
00004AA0  204D                     movea.l    A0, A5
00004AA2  D1FC FFFD CED4           add.l      A0, 0xFFFDCED4
00004AA8  7400                     moveq.l    D2, 0x00
00004AAA  3430 001E                move.w     D2, [A0 + D0.w + 0x1E]
00004AAE  5482                     addq.l     D2, 2
00004AB0  4C42 1001                divu.l     D1:D1, D2
00004AB4  1A01                     move.b     D5, D1
00004AB6  6002                     bra        +0x4 /* 00004ABA */
label00004AB8:
00004AB8  4205                     clr.b      D5
label00004ABA:
00004ABA  302E FFFE                move.w     D0, [A6 - 0x2]
00004ABE  48C0                     ext.l      D0
00004AC0  49C5                     lea.l      A4, D5
00004AC2  2E00                     move.l     D7, D0
00004AC4  9E85                     sub.l      D7, D5
00004AC6  7010                     moveq.l    D0, 0x10
00004AC8  E1AF                     lsl        D7, D0
00004ACA  48C4                     ext.l      D4
00004ACC  2007                     move.l     D0, D7
00004ACE  4C44 0000                divu.l     D0:D0, D4
00004AD2  2E00                     move.l     D7, D0
00004AD4  0C87 0000 FFFF           cmpi.l     D7, 0xFFFF
00004ADA  6306                     bls        +0x8 /* 00004AE2 */
00004ADC  3C3C FFFF                move.w     D6, 0xFFFF
00004AE0  6002                     bra        +0x4 /* 00004AE4 */
label00004AE2:
00004AE2  3C07                     move.w     D6, D7
label00004AE4:
00004AE4  7000                     moveq.l    D0, 0x00
00004AE6  3006                     move.w     D0, D6
00004AE8  0C40 2000                cmpi.w     D0, 0x2000 /* ' \0' */
00004AEC  6402                     bcc        +0x4 /* 00004AF0 */
00004AEE  4246                     clr.w      D6
label00004AF0:
00004AF0  3006                     move.w     D0, D6
label00004AF2:
00004AF2  4CEE 10F0 FFEA           movem.l    D4,D5,D6,D7,A4, [A6 - 0x16]
00004AF8  4E5E                     unlink     A6
00004AFA  4E75                     rts
00004AFC  9967 6574 5F66 6965 6... dc.b       "get_field_bigmaturity__Fs"
export_129:
fn00004B18:
00004B18  4E56 0000                link       A6, 0
00004B1C  48E7 0708                movem.l    -[A7], D5,D6,D7,A4
00004B20  204D                     movea.l    A0, A5
00004B22  D1FC FFFD AFAE           add.l      A0, 0xFFFDAFAE
00004B28  49D0                     lea.l      A4, [A0]
00004B2A  3A2E 000A                move.w     D5, [A6 + 0xA]
00004B2E  7E00                     moveq.l    D7, 0x00
00004B30  4246                     clr.w      D6
00004B32  48C5                     ext.l      D5
00004B34  2F05                     move.l     -[A7], D5
00004B36  4EBA FED8                jsr        [PC - 0x128 /* 00004A10 */]
00004B3A  323C FFFF                move.w     D1, 0xFFFF
00004B3E  9240                     sub.w      D1, D0
00004B40  7E00                     moveq.l    D7, 0x00
00004B42  3E01                     move.w     D7, D1
00004B44  2005                     move.l     D0, D5
00004B46  C1FC 0044                muls.w     D0, 0x44 /* 'D' */
00004B4A  7200                     moveq.l    D1, 0x00
00004B4C  3234 0012                move.w     D1, [A4 + D0.w + 0x12]
00004B50  DE81                     add.l      D7, D1
00004B52  0C87 0000 FFFF           cmpi.l     D7, 0xFFFF
00004B58  6306                     bls        +0x8 /* 00004B60 */
00004B5A  3C3C FFFF                move.w     D6, 0xFFFF
00004B5E  6002                     bra        +0x4 /* 00004B62 */
label00004B60:
00004B60  3C07                     move.w     D6, D7
label00004B62:
00004B62  3006                     move.w     D0, D6
00004B64  4CEE 10E0 FFF0           movem.l    D5,D6,D7,A4, [A6 - 0x10]
00004B6A  4E5E                     unlink     A6
00004B6C  4E75                     rts
00004B6E  9467 6574 5F66 6965 6... dc.b       "get_field_damage__Fs"
export_130:
00004B86  4E56 0000                link       A6, 0
00004B8A  48E7 0708                movem.l    -[A7], D5,D6,D7,A4
00004B8E  204D                     movea.l    A0, A5
00004B90  D1FC FFFD AFAE           add.l      A0, 0xFFFDAFAE
00004B96  49D0                     lea.l      A4, [A0]
00004B98  3A2E 000A                move.w     D5, [A6 + 0xA]
00004B9C  2005                     move.l     D0, D5
00004B9E  C1FC 0044                muls.w     D0, 0x44 /* 'D' */
00004BA2  4A34 0002                tst.b      [A4 + D0.w + 0x2]
00004BA6  6618                     bne        +0x1A /* 00004BC0 */
00004BA8  700A                     moveq.l    D0, 0x0A
00004BAA  2F00                     move.l     -[A7], D0
00004BAC  48C5                     ext.l      D5
00004BAE  2F05                     move.l     -[A7], D5
00004BB0  7201                     moveq.l    D1, 0x01
00004BB2  2F01                     move.l     -[A7], D1
00004BB4  4EAD 0532                jsr        [A5 + 0x532 /* export_162, CODE:9 @ 0000465E */]
00004BB8  4FEF 000C                lea.l      A7, [A7 + 0xC]
00004BBC  6000 0168                bra        +0x16A /* 00004D26 */
label00004BC0:
00004BC0  7002                     moveq.l    D0, 0x02
00004BC2  2F00                     move.l     -[A7], D0
00004BC4  4EAD 02F2                jsr        [A5 + 0x2F2 /* export_90, CODE:3 @ 000062C4 */]
00004BC8  2005                     move.l     D0, D5
00004BCA  C1FC 0044                muls.w     D0, 0x44 /* 'D' */
00004BCE  7204                     moveq.l    D1, 0x04
00004BD0  B234 0002                cmp.b      D1, [A4 + D0.w + 0x2]
00004BD4  584F                     addq.w     A7, 4
00004BD6  6614                     bne        +0x16 /* 00004BEC */
00004BD8  7046                     moveq.l    D0, 0x46
00004BDA  2F00                     move.l     -[A7], D0
00004BDC  48C5                     ext.l      D5
00004BDE  2F05                     move.l     -[A7], D5
00004BE0  7201                     moveq.l    D1, 0x01
00004BE2  2F01                     move.l     -[A7], D1
00004BE4  4EAD 0532                jsr        [A5 + 0x532 /* export_162, CODE:9 @ 0000465E */]
00004BE8  4FEF 000C                lea.l      A7, [A7 + 0xC]
label00004BEC:
00004BEC  2005                     move.l     D0, D5
00004BEE  C1FC 0044                muls.w     D0, 0x44 /* 'D' */
00004BF2  4234 0002                clr.b      [A4 + D0.w + 0x2]
00004BF6  2005                     move.l     D0, D5
00004BF8  C1FC 0044                muls.w     D0, 0x44 /* 'D' */
00004BFC  4234 0003                clr.b      [A4 + D0.w + 0x3]
00004C00  2005                     move.l     D0, D5
00004C02  C1FC 0044                muls.w     D0, 0x44 /* 'D' */
00004C06  4274 0012                clr.w      [A4 + D0.w + 0x12]
00004C0A  48C5                     ext.l      D5
00004C0C  2F05                     move.l     -[A7], D5
00004C0E  4EAD 0522                jsr        [A5 + 0x522 /* export_160, CODE:9 @ 00003696 */]
00004C12  2005                     move.l     D0, D5
00004C14  C1FC 0044                muls.w     D0, 0x44 /* 'D' */
00004C18  1034 000A                move.b     D0, [A4 + D0.w + 0xA]
00004C1C  4880                     ext.w      D0
00004C1E  3C00                     move.w     D6, D0
00004C20  584F                     addq.w     A7, 4
00004C22  6000 00E2                bra        +0xE4 /* 00004D06 */
label00004C26:
00004C26  2005                     move.l     D0, D5
00004C28  C1FC 0044                muls.w     D0, 0x44 /* 'D' */
00004C2C  1034 000B                move.b     D0, [A4 + D0.w + 0xB]
00004C30  4880                     ext.w      D0
00004C32  3E00                     move.w     D7, D0
00004C34  6000 00AC                bra        +0xAE /* 00004CE2 */
label00004C38:
00004C38  2006                     move.l     D0, D6
00004C3A  C1FC 00C0                muls.w     D0, 0xC0
00004C3E  204D                     movea.l    A0, A5
00004C40  D1FC FFFE 42D4           add.l      A0, 0xFFFE42D4
00004C46  2207                     move.l     D1, D7
00004C48  D241                     add.w      D1, D1
00004C4A  D240                     add.w      D1, D0
00004C4C  7000                     moveq.l    D0, 0x00
00004C4E  3030 1000                move.w     D0, [A0 + D1.w]
00004C52  323C 07FF                move.w     D1, 0x7FF
00004C56  C240                     and.w      D1, D0
00004C58  7000                     moveq.l    D0, 0x00
00004C5A  3001                     move.w     D0, D1
00004C5C  4A80                     tst.l      D0
00004C5E  204D                     movea.l    A0, A5
00004C60  D1FC FFFF 7966           add.l      A0, 0xFFFF7966
00004C66  3210                     move.w     D1, [A0]
00004C68  48C1                     ext.l      D1
00004C6A  B280                     cmp.l      D1, D0
00004C6C  6E70                     bgt        +0x72 /* 00004CDE */
00004C6E  2006                     move.l     D0, D6
00004C70  C1FC 00C0                muls.w     D0, 0xC0
00004C74  204D                     movea.l    A0, A5
00004C76  D1FC FFFE 42D4           add.l      A0, 0xFFFE42D4
00004C7C  2207                     move.l     D1, D7
00004C7E  D241                     add.w      D1, D1
00004C80  D240                     add.w      D1, D0
00004C82  7000                     moveq.l    D0, 0x00
00004C84  3030 1000                move.w     D0, [A0 + D1.w]
00004C88  323C 07FF                move.w     D1, 0x7FF
00004C8C  C240                     and.w      D1, D0
00004C8E  7000                     moveq.l    D0, 0x00
00004C90  3001                     move.w     D0, D1
00004C92  0C40 032F                cmpi.w     D0, 0x32F
00004C96  6246                     bhi        +0x48 /* 00004CDE */
00004C98  2006                     move.l     D0, D6
00004C9A  C1FC 00C0                muls.w     D0, 0xC0
00004C9E  204D                     movea.l    A0, A5
00004CA0  D1FC FFFE 42D4           add.l      A0, 0xFFFE42D4
00004CA6  2207                     move.l     D1, D7
00004CA8  D241                     add.w      D1, D1
00004CAA  D240                     add.w      D1, D0
00004CAC  7000                     moveq.l    D0, 0x00
00004CAE  3030 1000                move.w     D0, [A0 + D1.w]
00004CB2  323C F800                move.w     D1, 0xF800
00004CB6  C240                     and.w      D1, D0
00004CB8  7000                     moveq.l    D0, 0x00
00004CBA  3001                     move.w     D0, D1
00004CBC  7222                     moveq.l    D1, 0x22
00004CBE  8240                     or.w       D1, D0
00004CC0  303C BFFF                move.w     D0, 0xBFFF
00004CC4  C041                     and.w      D0, D1
00004CC6  2206                     move.l     D1, D6
00004CC8  C3FC 00C0                muls.w     D1, 0xC0
00004CCC  204D                     movea.l    A0, A5
00004CCE  D1FC FFFE 42D4           add.l      A0, 0xFFFE42D4
00004CD4  2407                     move.l     D2, D7
00004CD6  D442                     add.w      D2, D2
00004CD8  D441                     add.w      D2, D1
00004CDA  3180 2000                move.w     [A0 + D2.w], D0
label00004CDE:
00004CDE  3007                     move.w     D0, D7
00004CE0  5247                     addq.w     D7, 1
label00004CE2:
00004CE2  2005                     move.l     D0, D5
00004CE4  C1FC 0044                muls.w     D0, 0x44 /* 'D' */
00004CE8  1034 000B                move.b     D0, [A4 + D0.w + 0xB]
00004CEC  4880                     ext.w      D0
00004CEE  2205                     move.l     D1, D5
00004CF0  C3FC 0044                muls.w     D1, 0x44 /* 'D' */
00004CF4  1234 100D                move.b     D1, [A4 + D1.w + 0xD]
00004CF8  4881                     ext.w      D1
00004CFA  D240                     add.w      D1, D0
00004CFC  B247                     cmp.w      D1, D7
00004CFE  6E00 FF38                bgt        -0xC6 /* 00004C38 */
00004D02  3006                     move.w     D0, D6
00004D04  5246                     addq.w     D6, 1
label00004D06:
00004D06  2005                     move.l     D0, D5
00004D08  C1FC 0044                muls.w     D0, 0x44 /* 'D' */
00004D0C  1034 000A                move.b     D0, [A4 + D0.w + 0xA]
00004D10  4880                     ext.w      D0
00004D12  2205                     move.l     D1, D5
00004D14  C3FC 0044                muls.w     D1, 0x44 /* 'D' */
00004D18  1234 100C                move.b     D1, [A4 + D1.w + 0xC]
00004D1C  4881                     ext.w      D1
00004D1E  D240                     add.w      D1, D0
00004D20  B246                     cmp.w      D1, D6
00004D22  6E00 FF02                bgt        -0xFC /* 00004C26 */
label00004D26:
00004D26  4CEE 10E0 FFF0           movem.l    D5,D6,D7,A4, [A6 - 0x10]
00004D2C  4E5E                     unlink     A6
00004D2E  4E75                     rts
00004D30  9473 6574 5F66 6965 6... dc.b       "set_field_fallow__Fs"
export_131:
00004D48  4E56 FFFE                link       A6, -0x0002
00004D4C  48E7 0F00                movem.l    -[A7], D4,D5,D6,D7
00004D50  3C2E 000A                move.w     D6, [A6 + 0xA]
00004D54  2006                     move.l     D0, D6
00004D56  C1FC 000C                muls.w     D0, 0xC
00004D5A  204D                     movea.l    A0, A5
00004D5C  D1FC FFFD 9400           add.l      A0, 0xFFFD9400
00004D62  3D70 0002 FFFE           move.w     [A6 - 0x2], [A0 + D0.w + 0x2]
00004D68  2006                     move.l     D0, D6
00004D6A  C1FC 000C                muls.w     D0, 0xC
00004D6E  204D                     movea.l    A0, A5
00004D70  D1FC FFFD 9400           add.l      A0, 0xFFFD9400
00004D76  3830 0004                move.w     D4, [A0 + D0.w + 0x4]
00004D7A  2006                     move.l     D0, D6
00004D7C  C1FC 000C                muls.w     D0, 0xC
00004D80  204D                     movea.l    A0, A5
00004D82  D1FC FFFD 9400           add.l      A0, 0xFFFD9400
00004D88  3A30 0006                move.w     D5, [A0 + D0.w + 0x6]
00004D8C  2006                     move.l     D0, D6
00004D8E  C1FC 000C                muls.w     D0, 0xC
00004D92  204D                     movea.l    A0, A5
00004D94  D1FC FFFD 9400           add.l      A0, 0xFFFD9400
00004D9A  720E                     moveq.l    D1, 0x0E
00004D9C  3030 0004                move.w     D0, [A0 + D0.w + 0x4]
00004DA0  E268                     lsr        D0.w, D1
00004DA2  7200                     moveq.l    D1, 0x00
00004DA4  3200                     move.w     D1, D0
00004DA6  7003                     moveq.l    D0, 0x03
00004DA8  9081                     sub.l      D0, D1
00004DAA  206E 000C                movea.l    A0, [A6 + 0xC]
00004DAE  3080                     move.w     [A0], D0
00004DB0  2006                     move.l     D0, D6
00004DB2  C1FC 000C                muls.w     D0, 0xC
00004DB6  204D                     movea.l    A0, A5
00004DB8  D1FC FFFD 9400           add.l      A0, 0xFFFD9400
00004DBE  3E30 0000                move.w     D7, [A0 + D0.w]
00004DC2  0C47 00A8                cmpi.w     D7, 0xA8
00004DC6  6D56                     blt        +0x58 /* 00004E1E */
00004DC8  0C47 00BF                cmpi.w     D7, 0xBF
00004DCC  6E50                     bgt        +0x52 /* 00004E1E */
00004DCE  48C7                     ext.l      D7
00004DD0  2007                     move.l     D0, D7
00004DD2  C1FC 0012                muls.w     D0, 0x12
00004DD6  204D                     movea.l    A0, A5
00004DD8  D1FC FFFE 908E           add.l      A0, 0xFFFE908E
00004DDE  7200                     moveq.l    D1, 0x00
00004DE0  3230 0006                move.w     D1, [A0 + D0.w + 0x6]
00004DE4  4A81                     tst.l      D1
00004DE6  4C7C 1801 0000 000A      divu.l     D2:D0, 0x18010000
00004DEE  7000                     moveq.l    D0, 0x00
00004DF0  3001                     move.w     D0, D1
00004DF2  2F00                     move.l     -[A7], D0
00004DF4  7000                     moveq.l    D0, 0x00
00004DF6  3005                     move.w     D0, D5
00004DF8  2F00                     move.l     -[A7], D0
00004DFA  7000                     moveq.l    D0, 0x00
00004DFC  3004                     move.w     D0, D4
00004DFE  2F00                     move.l     -[A7], D0
00004E00  7000                     moveq.l    D0, 0x00
00004E02  302E FFFE                move.w     D0, [A6 - 0x2]
00004E06  2F00                     move.l     -[A7], D0
00004E08  3007                     move.w     D0, D7
00004E0A  907C 00A8                sub.w      D0, 0xA8
00004E0E  48C0                     ext.l      D0
00004E10  2F00                     move.l     -[A7], D0
00004E12  4EBA 0050                jsr        [PC + 0x50 /* 00004E64 */]
00004E16  2C00                     move.l     D6, D0
00004E18  4FEF 0014                lea.l      A7, [A7 + 0x14]
00004E1C  6024                     bra        +0x26 /* 00004E42 */
label00004E1E:
00004E1E  0C47 00C0                cmpi.w     D7, 0xC0
00004E22  6D1E                     blt        +0x20 /* 00004E42 */
00004E24  0C47 00D7                cmpi.w     D7, 0xD7
00004E28  6E18                     bgt        +0x1A /* 00004E42 */
00004E2A  48C7                     ext.l      D7
00004E2C  2007                     move.l     D0, D7
00004E2E  C1FC 0012                muls.w     D0, 0x12
00004E32  204D                     movea.l    A0, A5
00004E34  D1FC FFFE 8D64           add.l      A0, 0xFFFE8D64
00004E3A  7C00                     moveq.l    D6, 0x00
00004E3C  3C30 0006                move.w     D6, [A0 + D0.w + 0x6]
00004E40  4A86                     tst.l      D6
label00004E42:
00004E42  2006                     move.l     D0, D6
00004E44  4CEE 00F0 FFEE           movem.l    D4,D5,D6,D7, [A6 - 0x12]
00004E4A  4E5E                     unlink     A6
00004E4C  4E75                     rts
00004E4E  9367 6574 6372 6F70 7... dc.b       "getcropvalue__FsPUs"
fn00004E64:
00004E64  4E56 FFFE                link       A6, -0x0002
00004E68  48E7 0F00                movem.l    -[A7], D4,D5,D6,D7
00004E6C  382E 0012                move.w     D4, [A6 + 0x12]
00004E70  7E00                     moveq.l    D7, 0x00
00004E72  7A00                     moveq.l    D5, 0x00
00004E74  3A2E 001A                move.w     D5, [A6 + 0x1A]
00004E78  CAEE 000E                mulu.w     D5, [A6 + 0xE]
00004E7C  303C FFFF                move.w     D0, 0xFFFF
00004E80  9044                     sub.w      D0, D4
00004E82  3D40 FFFE                move.w     [A6 - 0x2], D0
00004E86  7000                     moveq.l    D0, 0x00
00004E88  302E FFFE                move.w     D0, [A6 - 0x2]
00004E8C  4A80                     tst.l      D0
00004E8E  4C05 0000                mulu.l     D0, D5
00004E92  2C00                     move.l     D6, D0
00004E94  7010                     moveq.l    D0, 0x10
00004E96  E0AE                     lsr        D6, D0
00004E98  0C86 0000 FFFF           cmpi.l     D6, 0xFFFF
00004E9E  6308                     bls        +0xA /* 00004EA8 */
00004EA0  2E3C 0000 FFFF           move.l     D7, 0xFFFF
00004EA6  6002                     bra        +0x4 /* 00004EAA */
label00004EA8:
00004EA8  2E06                     move.l     D7, D6
label00004EAA:
00004EAA  7000                     moveq.l    D0, 0x00
00004EAC  3004                     move.w     D0, D4
00004EAE  0C40 C738                cmpi.w     D0, 0xC738
00004EB2  6302                     bls        +0x4 /* 00004EB6 */
00004EB4  7E00                     moveq.l    D7, 0x00
label00004EB6:
00004EB6  2007                     move.l     D0, D7
00004EB8  4CEE 00F0 FFEE           movem.l    D4,D5,D6,D7, [A6 - 0x12]
00004EBE  4E5E                     unlink     A6
00004EC0  4E75                     rts
00004EC2  9767 6574 5F68 6172 7... dc.b       "get_harv_value__FsUsN32"
export_132:
00004EDC  4E56 0000                link       A6, 0
00004EE0  48E7 0708                movem.l    -[A7], D5,D6,D7,A4
00004EE4  204D                     movea.l    A0, A5
00004EE6  D1FC FFFD AFAE           add.l      A0, 0xFFFDAFAE
00004EEC  49D0                     lea.l      A4, [A0]
00004EEE  3C2E 000A                move.w     D6, [A6 + 0xA]
00004EF2  4207                     clr.b      D7
00004EF4  2006                     move.l     D0, D6
00004EF6  C1FC 0044                muls.w     D0, 0x44 /* 'D' */
00004EFA  1034 000E                move.b     D0, [A4 + D0.w + 0xE]
00004EFE  4880                     ext.w      D0
00004F00  3A00                     move.w     D5, D0
00004F02  2006                     move.l     D0, D6
00004F04  C1FC 0044                muls.w     D0, 0x44 /* 'D' */
00004F08  1E34 001D                move.b     D7, [A4 + D0.w + 0x1D]
00004F0C  2006                     move.l     D0, D6
00004F0E  C1FC 0044                muls.w     D0, 0x44 /* 'D' */
00004F12  1987 001C                move.b     [A4 + D0.w + 0x1C], D7
00004F16  1007                     move.b     D0, D7
00004F18  4CEE 10E0 FFF0           movem.l    D5,D6,D7,A4, [A6 - 0x10]
00004F1E  4E5E                     unlink     A6
00004F20  4E75                     rts
00004F22  9967 6574 5F66 6965 6... dc.b       "get_field_soilquality__Fs"
export_133:
00004F3E  4E56 0000                link       A6, 0
00004F42  48E7 0700                movem.l    -[A7], D5,D6,D7
00004F46  3A2E 000E                move.w     D5, [A6 + 0xE]
00004F4A  3C2E 000A                move.w     D6, [A6 + 0xA]
00004F4E  2006                     move.l     D0, D6
00004F50  C1FC 000C                muls.w     D0, 0xC
00004F54  204D                     movea.l    A0, A5
00004F56  D1FC FFFE 9692           add.l      A0, 0xFFFE9692
00004F5C  2205                     move.l     D1, D5
00004F5E  D240                     add.w      D1, D0
00004F60  7000                     moveq.l    D0, 0x00
00004F62  1030 1000                move.b     D0, [A0 + D1.w]
00004F66  322E 0012                move.w     D1, [A6 + 0x12]
00004F6A  48C1                     ext.l      D1
00004F6C  2E01                     move.l     D7, D1
00004F6E  DE80                     add.l      D7, D0
00004F70  7000                     moveq.l    D0, 0x00
00004F72  3007                     move.w     D0, D7
00004F74  0C40 00FF                cmpi.w     D0, 0xFF
00004F78  6304                     bls        +0x6 /* 00004F7E */
00004F7A  3E3C 00FF                move.w     D7, 0xFF
label00004F7E:
00004F7E  2006                     move.l     D0, D6
00004F80  C1FC 000C                muls.w     D0, 0xC
00004F84  204D                     movea.l    A0, A5
00004F86  D1FC FFFE 9692           add.l      A0, 0xFFFE9692
00004F8C  2205                     move.l     D1, D5
00004F8E  D240                     add.w      D1, D0
00004F90  1187 1000                move.b     [A0 + D1.w], D7
00004F94  4CEE 00E0 FFF4           movem.l    D5,D6,D7, [A6 - 0xC]
00004F9A  4E5E                     unlink     A6
00004F9C  4E75                     rts
00004F9E  9769 6E63 676C 6F62 6... dc.b       "incglobaldisease__FsN21"
export_134:
00004FB8  4E56 0000                link       A6, 0
00004FBC  48E7 0700                movem.l    -[A7], D5,D6,D7
00004FC0  3A2E 0012                move.w     D5, [A6 + 0x12]
00004FC4  3C2E 000E                move.w     D6, [A6 + 0xE]
00004FC8  3E2E 000A                move.w     D7, [A6 + 0xA]
00004FCC  2007                     move.l     D0, D7
00004FCE  C1FC 000C                muls.w     D0, 0xC
00004FD2  204D                     movea.l    A0, A5
00004FD4  D1FC FFFE 9692           add.l      A0, 0xFFFE9692
00004FDA  2206                     move.l     D1, D6
00004FDC  D240                     add.w      D1, D0
00004FDE  7000                     moveq.l    D0, 0x00
00004FE0  1030 1000                move.b     D0, [A0 + D1.w]
00004FE4  B045                     cmp.w      D0, D5
00004FE6  6E18                     bgt        +0x1A /* 00005000 */
00004FE8  2007                     move.l     D0, D7
00004FEA  C1FC 000C                muls.w     D0, 0xC
00004FEE  204D                     movea.l    A0, A5
00004FF0  D1FC FFFE 9692           add.l      A0, 0xFFFE9692
00004FF6  2206                     move.l     D1, D6
00004FF8  D240                     add.w      D1, D0
00004FFA  9B30 1000                sub.b      [A0 + D1.w], D5
00004FFE  6016                     bra        +0x18 /* 00005016 */
label00005000:
00005000  2007                     move.l     D0, D7
00005002  C1FC 000C                muls.w     D0, 0xC
00005006  204D                     movea.l    A0, A5
00005008  D1FC FFFE 9692           add.l      A0, 0xFFFE9692
0000500E  2206                     move.l     D1, D6
00005010  D240                     add.w      D1, D0
00005012  4230 1000                clr.b      [A0 + D1.w]
label00005016:
00005016  4CEE 00E0 FFF4           movem.l    D5,D6,D7, [A6 - 0xC]
0000501C  4E5E                     unlink     A6
0000501E  4E75                     rts
00005020  9764 6563 676C 6F62 6... dc.b       "decglobaldisease__FsN21"
export_135:
0000503A  4E56 0000                link       A6, 0
0000503E  48E7 0700                movem.l    -[A7], D5,D6,D7
00005042  3A2E 000E                move.w     D5, [A6 + 0xE]
00005046  3C2E 000A                move.w     D6, [A6 + 0xA]
0000504A  2006                     move.l     D0, D6
0000504C  C1FC 000C                muls.w     D0, 0xC
00005050  204D                     movea.l    A0, A5
00005052  D1FC FFFE 9722           add.l      A0, 0xFFFE9722
00005058  2205                     move.l     D1, D5
0000505A  D240                     add.w      D1, D0
0000505C  7000                     moveq.l    D0, 0x00
0000505E  1030 1000                move.b     D0, [A0 + D1.w]
00005062  322E 0012                move.w     D1, [A6 + 0x12]
00005066  48C1                     ext.l      D1
00005068  2E01                     move.l     D7, D1
0000506A  DE80                     add.l      D7, D0
0000506C  7000                     moveq.l    D0, 0x00
0000506E  3007                     move.w     D0, D7
00005070  0C40 00FF                cmpi.w     D0, 0xFF
00005074  6304                     bls        +0x6 /* 0000507A */
00005076  3E3C 00FF                move.w     D7, 0xFF
label0000507A:
0000507A  2006                     move.l     D0, D6
0000507C  C1FC 000C                muls.w     D0, 0xC
00005080  204D                     movea.l    A0, A5
00005082  D1FC FFFE 9722           add.l      A0, 0xFFFE9722
00005088  2205                     move.l     D1, D5
0000508A  D240                     add.w      D1, D0
0000508C  1187 1000                move.b     [A0 + D1.w], D7
00005090  4CEE 00E0 FFF4           movem.l    D5,D6,D7, [A6 - 0xC]
00005096  4E5E                     unlink     A6
00005098  4E75                     rts
0000509A  9569 6E63 676C 6F62 6... dc.b       "incglobalpests__FsN21"
export_136:
000050B2  4E56 0000                link       A6, 0
000050B6  48E7 0700                movem.l    -[A7], D5,D6,D7
000050BA  3A2E 0012                move.w     D5, [A6 + 0x12]
000050BE  3C2E 000E                move.w     D6, [A6 + 0xE]
000050C2  3E2E 000A                move.w     D7, [A6 + 0xA]
000050C6  2007                     move.l     D0, D7
000050C8  C1FC 000C                muls.w     D0, 0xC
000050CC  204D                     movea.l    A0, A5
000050CE  D1FC FFFE 9722           add.l      A0, 0xFFFE9722
000050D4  2206                     move.l     D1, D6
000050D6  D240                     add.w      D1, D0
000050D8  7000                     moveq.l    D0, 0x00
000050DA  1030 1000                move.b     D0, [A0 + D1.w]
000050DE  B045                     cmp.w      D0, D5
000050E0  6E18                     bgt        +0x1A /* 000050FA */
000050E2  2007                     move.l     D0, D7
000050E4  C1FC 000C                muls.w     D0, 0xC
000050E8  204D                     movea.l    A0, A5
000050EA  D1FC FFFE 9722           add.l      A0, 0xFFFE9722
000050F0  2206                     move.l     D1, D6
000050F2  D240                     add.w      D1, D0
000050F4  9B30 1000                sub.b      [A0 + D1.w], D5
000050F8  6016                     bra        +0x18 /* 00005110 */
label000050FA:
000050FA  2007                     move.l     D0, D7
000050FC  C1FC 000C                muls.w     D0, 0xC
00005100  204D                     movea.l    A0, A5
00005102  D1FC FFFE 9722           add.l      A0, 0xFFFE9722
00005108  2206                     move.l     D1, D6
0000510A  D240                     add.w      D1, D0
0000510C  4230 1000                clr.b      [A0 + D1.w]
label00005110:
00005110  4CEE 00E0 FFF4           movem.l    D5,D6,D7, [A6 - 0xC]
00005116  4E5E                     unlink     A6
00005118  4E75                     rts
0000511A  9564 6563 676C 6F62 6... dc.b       "decglobalpests__FsN21"
export_137:
00005132  4E56 0000                link       A6, 0
00005136  48E7 0700                movem.l    -[A7], D5,D6,D7
0000513A  3A2E 000E                move.w     D5, [A6 + 0xE]
0000513E  3C2E 000A                move.w     D6, [A6 + 0xA]
00005142  2006                     move.l     D0, D6
00005144  C1FC 000C                muls.w     D0, 0xC
00005148  204D                     movea.l    A0, A5
0000514A  D1FC FFFE 9602           add.l      A0, 0xFFFE9602
00005150  2205                     move.l     D1, D5
00005152  D240                     add.w      D1, D0
00005154  7000                     moveq.l    D0, 0x00
00005156  1030 1000                move.b     D0, [A0 + D1.w]
0000515A  322E 0012                move.w     D1, [A6 + 0x12]
0000515E  48C1                     ext.l      D1
00005160  2E01                     move.l     D7, D1
00005162  DE80                     add.l      D7, D0
00005164  7000                     moveq.l    D0, 0x00
00005166  3007                     move.w     D0, D7
00005168  0C40 00FF                cmpi.w     D0, 0xFF
0000516C  6304                     bls        +0x6 /* 00005172 */
0000516E  3E3C 00FF                move.w     D7, 0xFF
label00005172:
00005172  2006                     move.l     D0, D6
00005174  C1FC 000C                muls.w     D0, 0xC
00005178  204D                     movea.l    A0, A5
0000517A  D1FC FFFE 9602           add.l      A0, 0xFFFE9602
00005180  2205                     move.l     D1, D5
00005182  D240                     add.w      D1, D0
00005184  1187 1000                move.b     [A0 + D1.w], D7
00005188  4CEE 00E0 FFF4           movem.l    D5,D6,D7, [A6 - 0xC]
0000518E  4E5E                     unlink     A6
00005190  4E75                     rts
00005192  9569 6E63 676C 6F62 6... dc.b       "incglobalweeds__FsN21"
export_138:
000051AA  4E56 0000                link       A6, 0
000051AE  48E7 0700                movem.l    -[A7], D5,D6,D7
000051B2  3A2E 000E                move.w     D5, [A6 + 0xE]
000051B6  3C2E 000A                move.w     D6, [A6 + 0xA]
000051BA  2006                     move.l     D0, D6
000051BC  C1FC 000C                muls.w     D0, 0xC
000051C0  204D                     movea.l    A0, A5
000051C2  D1FC FFFE 94E2           add.l      A0, 0xFFFE94E2
000051C8  2205                     move.l     D1, D5
000051CA  D240                     add.w      D1, D0
000051CC  7000                     moveq.l    D0, 0x00
000051CE  1030 1000                move.b     D0, [A0 + D1.w]
000051D2  322E 0012                move.w     D1, [A6 + 0x12]
000051D6  48C1                     ext.l      D1
000051D8  2E01                     move.l     D7, D1
000051DA  DE80                     add.l      D7, D0
000051DC  7000                     moveq.l    D0, 0x00
000051DE  3007                     move.w     D0, D7
000051E0  0C40 00FF                cmpi.w     D0, 0xFF
000051E4  6304                     bls        +0x6 /* 000051EA */
000051E6  3E3C 00FF                move.w     D7, 0xFF
label000051EA:
000051EA  2006                     move.l     D0, D6
000051EC  C1FC 000C                muls.w     D0, 0xC
000051F0  204D                     movea.l    A0, A5
000051F2  D1FC FFFE 94E2           add.l      A0, 0xFFFE94E2
000051F8  2205                     move.l     D1, D5
000051FA  D240                     add.w      D1, D0
000051FC  1187 1000                move.b     [A0 + D1.w], D7
00005200  4CEE 00E0 FFF4           movem.l    D5,D6,D7, [A6 - 0xC]
00005206  4E5E                     unlink     A6
00005208  4E75                     rts
0000520A  9969 6E63 676C 6F62 6... dc.b       "incglobalnutrients__FsN21"
export_139:
00005226  4E56 0000                link       A6, 0
0000522A  48E7 0700                movem.l    -[A7], D5,D6,D7
0000522E  3A2E 0012                move.w     D5, [A6 + 0x12]
00005232  3C2E 000E                move.w     D6, [A6 + 0xE]
00005236  3E2E 000A                move.w     D7, [A6 + 0xA]
0000523A  2007                     move.l     D0, D7
0000523C  C1FC 000C                muls.w     D0, 0xC
00005240  204D                     movea.l    A0, A5
00005242  D1FC FFFE 94E2           add.l      A0, 0xFFFE94E2
00005248  2206                     move.l     D1, D6
0000524A  D240                     add.w      D1, D0
0000524C  7000                     moveq.l    D0, 0x00
0000524E  1030 1000                move.b     D0, [A0 + D1.w]
00005252  B045                     cmp.w      D0, D5
00005254  6E18                     bgt        +0x1A /* 0000526E */
00005256  2007                     move.l     D0, D7
00005258  C1FC 000C                muls.w     D0, 0xC
0000525C  204D                     movea.l    A0, A5
0000525E  D1FC FFFE 94E2           add.l      A0, 0xFFFE94E2
00005264  2206                     move.l     D1, D6
00005266  D240                     add.w      D1, D0
00005268  9B30 1000                sub.b      [A0 + D1.w], D5
0000526C  6016                     bra        +0x18 /* 00005284 */
label0000526E:
0000526E  2007                     move.l     D0, D7
00005270  C1FC 000C                muls.w     D0, 0xC
00005274  204D                     movea.l    A0, A5
00005276  D1FC FFFE 94E2           add.l      A0, 0xFFFE94E2
0000527C  2206                     move.l     D1, D6
0000527E  D240                     add.w      D1, D0
00005280  4230 1000                clr.b      [A0 + D1.w]
label00005284:
00005284  4CEE 00E0 FFF4           movem.l    D5,D6,D7, [A6 - 0xC]
0000528A  4E5E                     unlink     A6
0000528C  4E75                     rts
0000528E  9964 6563 676C 6F62 6... dc.b       "decglobalnutrients__FsN21"
export_140:
000052AA  4E56 0000                link       A6, 0
000052AE  48E7 0700                movem.l    -[A7], D5,D6,D7
000052B2  3A2E 0012                move.w     D5, [A6 + 0x12]
000052B6  3C2E 000E                move.w     D6, [A6 + 0xE]
000052BA  3E2E 000A                move.w     D7, [A6 + 0xA]
000052BE  2007                     move.l     D0, D7
000052C0  C1FC 000C                muls.w     D0, 0xC
000052C4  204D                     movea.l    A0, A5
000052C6  D1FC FFFE 9602           add.l      A0, 0xFFFE9602
000052CC  2206                     move.l     D1, D6
000052CE  D240                     add.w      D1, D0
000052D0  7000                     moveq.l    D0, 0x00
000052D2  1030 1000                move.b     D0, [A0 + D1.w]
000052D6  B045                     cmp.w      D0, D5
000052D8  6E18                     bgt        +0x1A /* 000052F2 */
000052DA  2007                     move.l     D0, D7
000052DC  C1FC 000C                muls.w     D0, 0xC
000052E0  204D                     movea.l    A0, A5
000052E2  D1FC FFFE 9602           add.l      A0, 0xFFFE9602
000052E8  2206                     move.l     D1, D6
000052EA  D240                     add.w      D1, D0
000052EC  9B30 1000                sub.b      [A0 + D1.w], D5
000052F0  6016                     bra        +0x18 /* 00005308 */
label000052F2:
000052F2  2007                     move.l     D0, D7
000052F4  C1FC 000C                muls.w     D0, 0xC
000052F8  204D                     movea.l    A0, A5
000052FA  D1FC FFFE 9602           add.l      A0, 0xFFFE9602
00005300  2206                     move.l     D1, D6
00005302  D240                     add.w      D1, D0
00005304  4230 1000                clr.b      [A0 + D1.w]
label00005308:
00005308  4CEE 00E0 FFF4           movem.l    D5,D6,D7, [A6 - 0xC]
0000530E  4E5E                     unlink     A6
00005310  4E75                     rts
00005312  9564 6563 676C 6F62 6... dc.b       "decglobalweeds__FsN21"
export_141:
0000532A  4E56 0000                link       A6, 0
0000532E  48E7 0700                movem.l    -[A7], D5,D6,D7
00005332  3A2E 000E                move.w     D5, [A6 + 0xE]
00005336  3C2E 000A                move.w     D6, [A6 + 0xA]
0000533A  2006                     move.l     D0, D6
0000533C  C1FC 000C                muls.w     D0, 0xC
00005340  204D                     movea.l    A0, A5
00005342  D1FC FFFE 9572           add.l      A0, 0xFFFE9572
00005348  2205                     move.l     D1, D5
0000534A  D240                     add.w      D1, D0
0000534C  7000                     moveq.l    D0, 0x00
0000534E  1030 1000                move.b     D0, [A0 + D1.w]
00005352  322E 0012                move.w     D1, [A6 + 0x12]
00005356  48C1                     ext.l      D1
00005358  2E01                     move.l     D7, D1
0000535A  DE80                     add.l      D7, D0
0000535C  7000                     moveq.l    D0, 0x00
0000535E  3007                     move.w     D0, D7
00005360  0C40 00FF                cmpi.w     D0, 0xFF
00005364  6304                     bls        +0x6 /* 0000536A */
00005366  3E3C 00FF                move.w     D7, 0xFF
label0000536A:
0000536A  2006                     move.l     D0, D6
0000536C  C1FC 000C                muls.w     D0, 0xC
00005370  204D                     movea.l    A0, A5
00005372  D1FC FFFE 9572           add.l      A0, 0xFFFE9572
00005378  2205                     move.l     D1, D5
0000537A  D240                     add.w      D1, D0
0000537C  1187 1000                move.b     [A0 + D1.w], D7
00005380  4CEE 00E0 FFF4           movem.l    D5,D6,D7, [A6 - 0xC]
00005386  4E5E                     unlink     A6
00005388  4E75                     rts
0000538A  9669 6E63 676C 6F62 6... dc.b       "incglobaltoxins__FsN21"
export_142:
000053A4  4E56 0000                link       A6, 0
000053A8  48E7 0700                movem.l    -[A7], D5,D6,D7
000053AC  3A2E 0012                move.w     D5, [A6 + 0x12]
000053B0  3C2E 000E                move.w     D6, [A6 + 0xE]
000053B4  3E2E 000A                move.w     D7, [A6 + 0xA]
000053B8  2007                     move.l     D0, D7
000053BA  C1FC 000C                muls.w     D0, 0xC
000053BE  204D                     movea.l    A0, A5
000053C0  D1FC FFFE 9572           add.l      A0, 0xFFFE9572
000053C6  2206                     move.l     D1, D6
000053C8  D240                     add.w      D1, D0
000053CA  7000                     moveq.l    D0, 0x00
000053CC  1030 1000                move.b     D0, [A0 + D1.w]
000053D0  B045                     cmp.w      D0, D5
000053D2  6E18                     bgt        +0x1A /* 000053EC */
000053D4  2007                     move.l     D0, D7
000053D6  C1FC 000C                muls.w     D0, 0xC
000053DA  204D                     movea.l    A0, A5
000053DC  D1FC FFFE 9572           add.l      A0, 0xFFFE9572
000053E2  2206                     move.l     D1, D6
000053E4  D240                     add.w      D1, D0
000053E6  9B30 1000                sub.b      [A0 + D1.w], D5
000053EA  6016                     bra        +0x18 /* 00005402 */
label000053EC:
000053EC  2007                     move.l     D0, D7
000053EE  C1FC 000C                muls.w     D0, 0xC
000053F2  204D                     movea.l    A0, A5
000053F4  D1FC FFFE 9572           add.l      A0, 0xFFFE9572
000053FA  2206                     move.l     D1, D6
000053FC  D240                     add.w      D1, D0
000053FE  4230 1000                clr.b      [A0 + D1.w]
label00005402:
00005402  4CEE 00E0 FFF4           movem.l    D5,D6,D7, [A6 - 0xC]
00005408  4E5E                     unlink     A6
0000540A  4E75                     rts
0000540C  9664 6563 676C 6F62 6... dc.b       "decglobaltoxins__FsN21"
export_143:
00005426  4E56 0000                link       A6, 0
0000542A  48E7 0308                movem.l    -[A7], D6,D7,A4
0000542E  204D                     movea.l    A0, A5
00005430  D1FC FFFD AFAE           add.l      A0, 0xFFFDAFAE
00005436  49D0                     lea.l      A4, [A0]
00005438  4246                     clr.w      D6
0000543A  7E01                     moveq.l    D7, 0x01
0000543C  602A                     bra        +0x2C /* 00005468 */
label0000543E:
0000543E  2007                     move.l     D0, D7
00005440  C1FC 0044                muls.w     D0, 0x44 /* 'D' */
00005444  323C 0100                move.w     D1, 0x100
00005448  C274 0006                and.w      D1, [A4 + D0.w + 0x6]
0000544C  6716                     beq        +0x18 /* 00005464 */
0000544E  48C7                     ext.l      D7
00005450  2F07                     move.l     -[A7], D7
00005452  4EAD 051A                jsr        [A5 + 0x51A /* export_159, CODE:9 @ 0000306C */]
00005456  48C7                     ext.l      D7
00005458  2F07                     move.l     -[A7], D7
0000545A  4EAD 0522                jsr        [A5 + 0x522 /* export_160, CODE:9 @ 00003696 */]
0000545E  3006                     move.w     D0, D6
00005460  5246                     addq.w     D6, 1
00005462  504F                     addq.w     A7, 8
label00005464:
00005464  3007                     move.w     D0, D7
00005466  5247                     addq.w     D7, 1
label00005468:
00005468  204D                     movea.l    A0, A5
0000546A  D1FC FFFD AFAC           add.l      A0, 0xFFFDAFAC
00005470  BC50                     cmp.w      D6, [A0]
00005472  6DCA                     blt        -0x34 /* 0000543E */
00005474  4CEE 10C0 FFF4           movem.l    D6,D7,A4, [A6 - 0xC]
0000547A  4E5E                     unlink     A6
0000547C  4E75                     rts
0000547E  9364 6F61 6C6C 6669 6... dc.b       "doallfieldwater__Fv"
export_144:
00005494  4E56 0000                link       A6, 0
00005498  48E7 0F08                movem.l    -[A7], D4,D5,D6,D7,A4
0000549C  204D                     movea.l    A0, A5
0000549E  D1FC FFFD C9B8           add.l      A0, 0xFFFDC9B8
000054A4  49D0                     lea.l      A4, [A0]
000054A6  302E 000A                move.w     D0, [A6 + 0xA]
000054AA  C1FC 0012                muls.w     D0, 0x12
000054AE  204D                     movea.l    A0, A5
000054B0  D1FC FFFE 9C5E           add.l      A0, 0xFFFE9C5E
000054B6  3C30 0006                move.w     D6, [A0 + D0.w + 0x6]
000054BA  3E06                     move.w     D7, D6
000054BC  E44F                     lsr        D7.w, 2
000054BE  4204                     clr.b      D4
000054C0  6000 0112                bra        +0x114 /* 000055D4 */
label000054C4:
000054C4  7000                     moveq.l    D0, 0x00
000054C6  1004                     move.b     D0, D4
000054C8  322E 000A                move.w     D1, [A6 + 0xA]
000054CC  C3FC 003C                muls.w     D1, 0x3C /* '<' */
000054D0  D040                     add.w      D0, D0
000054D2  D041                     add.w      D0, D1
000054D4  3986 0000                move.w     [A4 + D0.w], D6
000054D8  558F                     subq.l     A7, 2
000054DA  A861                     syscall    Random
000054DC  7A07                     moveq.l    D5, 0x07
000054DE  CA5F                     and.w      D5, [A7]+
000054E0  204D                     movea.l    A0, A5
000054E2  D1FC FFFD CD78           add.l      A0, 0xFFFDCD78
000054E8  1010                     move.b     D0, [A0]
000054EA  670E                     beq        +0x10 /* 000054FA */
000054EC  5300                     subq.b     D0, 1
000054EE  6752                     beq        +0x54 /* 00005542 */
000054F0  5300                     subq.b     D0, 1
000054F2  6700 008E                beq        +0x90 /* 00005582 */
000054F6  6000 00CE                bra        +0xD0 /* 000055C6 */
label000054FA:
000054FA  0C05 0003                cmpi.b     D5, 0x3
000054FE  6F20                     ble        +0x22 /* 00005520 */
00005500  558F                     subq.l     A7, 2
00005502  A861                     syscall    Random
00005504  301F                     move.w     D0, [A7]+
00005506  0800 0000                btst.b     D0, 0x0
0000550A  6700 00BA                beq        +0xBC /* 000055C6 */
0000550E  558F                     subq.l     A7, 2
00005510  A861                     syscall    Random
00005512  7001                     moveq.l    D0, 0x01
00005514  C05F                     and.w      D0, [A7]+
00005516  C0C7                     mulu.w     D0, D7
00005518  D047                     add.w      D0, D7
0000551A  DC40                     add.w      D6, D0
0000551C  6000 00A8                bra        +0xAA /* 000055C6 */
label00005520:
00005520  558F                     subq.l     A7, 2
00005522  A861                     syscall    Random
00005524  301F                     move.w     D0, [A7]+
00005526  0800 0000                btst.b     D0, 0x0
0000552A  6700 009A                beq        +0x9C /* 000055C6 */
0000552E  558F                     subq.l     A7, 2
00005530  A861                     syscall    Random
00005532  7001                     moveq.l    D0, 0x01
00005534  C05F                     and.w      D0, [A7]+
00005536  C0C7                     mulu.w     D0, D7
00005538  3207                     move.w     D1, D7
0000553A  9240                     sub.w      D1, D0
0000553C  9C41                     sub.w      D6, D1
0000553E  6000 0086                bra        +0x88 /* 000055C6 */
label00005542:
00005542  0C05 0001                cmpi.b     D5, 0x1
00005546  6F1C                     ble        +0x1E /* 00005564 */
00005548  558F                     subq.l     A7, 2
0000554A  A861                     syscall    Random
0000554C  301F                     move.w     D0, [A7]+
0000554E  0800 0000                btst.b     D0, 0x0
00005552  6772                     beq        +0x74 /* 000055C6 */
00005554  558F                     subq.l     A7, 2
00005556  A861                     syscall    Random
00005558  7001                     moveq.l    D0, 0x01
0000555A  C05F                     and.w      D0, [A7]+
0000555C  C0C7                     mulu.w     D0, D7
0000555E  D047                     add.w      D0, D7
00005560  DC40                     add.w      D6, D0
00005562  6062                     bra        +0x64 /* 000055C6 */
label00005564:
00005564  558F                     subq.l     A7, 2
00005566  A861                     syscall    Random
00005568  301F                     move.w     D0, [A7]+
0000556A  0800 0000                btst.b     D0, 0x0
0000556E  6756                     beq        +0x58 /* 000055C6 */
00005570  558F                     subq.l     A7, 2
00005572  A861                     syscall    Random
00005574  7001                     moveq.l    D0, 0x01
00005576  C05F                     and.w      D0, [A7]+
00005578  C0C7                     mulu.w     D0, D7
0000557A  3207                     move.w     D1, D7
0000557C  9240                     sub.w      D1, D0
0000557E  9C41                     sub.w      D6, D1
00005580  6044                     bra        +0x46 /* 000055C6 */
label00005582:
00005582  0C05 0005                cmpi.b     D5, 0x5
00005586  6F3E                     ble        +0x40 /* 000055C6 */
00005588  0C05 0001                cmpi.b     D5, 0x1
0000558C  6F1C                     ble        +0x1E /* 000055AA */
0000558E  558F                     subq.l     A7, 2
00005590  A861                     syscall    Random
00005592  301F                     move.w     D0, [A7]+
00005594  0800 0000                btst.b     D0, 0x0
00005598  672C                     beq        +0x2E /* 000055C6 */
0000559A  558F                     subq.l     A7, 2
0000559C  A861                     syscall    Random
0000559E  7001                     moveq.l    D0, 0x01
000055A0  C05F                     and.w      D0, [A7]+
000055A2  C0C7                     mulu.w     D0, D7
000055A4  D047                     add.w      D0, D7
000055A6  DC40                     add.w      D6, D0
000055A8  601C                     bra        +0x1E /* 000055C6 */
label000055AA:
000055AA  558F                     subq.l     A7, 2
000055AC  A861                     syscall    Random
000055AE  301F                     move.w     D0, [A7]+
000055B0  0800 0000                btst.b     D0, 0x0
000055B4  6710                     beq        +0x12 /* 000055C6 */
000055B6  558F                     subq.l     A7, 2
000055B8  A861                     syscall    Random
000055BA  7001                     moveq.l    D0, 0x01
000055BC  C05F                     and.w      D0, [A7]+
000055BE  C0C7                     mulu.w     D0, D7
000055C0  3207                     move.w     D1, D7
000055C2  9240                     sub.w      D1, D0
000055C4  9C41                     sub.w      D6, D1
label000055C6:
000055C6  7000                     moveq.l    D0, 0x00
000055C8  3006                     move.w     D0, D6
000055CA  4A80                     tst.l      D0
000055CC  6402                     bcc        +0x4 /* 000055D0 */
000055CE  7C05                     moveq.l    D6, 0x05
label000055D0:
000055D0  1004                     move.b     D0, D4
000055D2  5204                     addq.b     D4, 1
label000055D4:
000055D4  7000                     moveq.l    D0, 0x00
000055D6  1004                     move.b     D0, D4
000055D8  0C00 001E                cmpi.b     D0, 0x1E
000055DC  6500 FEE6                bcs        -0x118 /* 000054C4 */
000055E0  4CEE 10F0 FFEC           movem.l    D4,D5,D6,D7,A4, [A6 - 0x14]
000055E6  4E5E                     unlink     A6
000055E8  4E75                     rts
000055EA  9266 696C 6C66 7574 7... dc.b       "fillfutrarrays__Fs"
export_145:
00005600  4E56 FFFE                link       A6, -0x0002
00005604  48E7 1F18                movem.l    -[A7], D3,D4,D5,D6,D7,A3,A4
00005608  204D                     movea.l    A0, A5
0000560A  D1FC FFFD C9B8           add.l      A0, 0xFFFDC9B8
00005610  49D0                     lea.l      A4, [A0]
00005612  558F                     subq.l     A7, 2
00005614  A861                     syscall    Random
00005616  700F                     moveq.l    D0, 0x0F
00005618  C05F                     and.w      D0, [A7]+
0000561A  3D40 FFFE                move.w     [A6 - 0x2], D0
0000561E  700D                     moveq.l    D0, 0x0D
00005620  B06E FFFE                cmp.w      D0, [A6 - 0x2]
00005624  6E22                     bgt        +0x24 /* 00005648 */
00005626  558F                     subq.l     A7, 2
00005628  A861                     syscall    Random
0000562A  301F                     move.w     D0, [A7]+
0000562C  48C0                     ext.l      D0
0000562E  2F00                     move.l     -[A7], D0
00005630  4EAD 145A                jsr        [A5 + 0x145A /* export_647, CODE:31 @ 00000000 */]
00005634  4C7C 0801 0000 0003      divu.l     D3:D0, 0x8010000
0000563C  204D                     movea.l    A0, A5
0000563E  D1FC FFFD CD78           add.l      A0, 0xFFFDCD78
00005644  1081                     move.b     [A0], D1
00005646  584F                     addq.w     A7, 4
label00005648:
00005648  700C                     moveq.l    D0, 0x0C
0000564A  204D                     movea.l    A0, A5
0000564C  D1FC FFFD C9B6           add.l      A0, 0xFFFDC9B6
00005652  B010                     cmp.b      D0, [A0]
00005654  6C2E                     bge        +0x30 /* 00005684 */
00005656  204D                     movea.l    A0, A5
00005658  D1FC FFFD CD78           add.l      A0, 0xFFFDCD78
0000565E  1010                     move.b     D0, [A0]
00005660  5210                     addq.b     [A0], 1
00005662  7002                     moveq.l    D0, 0x02
00005664  204D                     movea.l    A0, A5
00005666  D1FC FFFD CD78           add.l      A0, 0xFFFDCD78
0000566C  B010                     cmp.b      D0, [A0]
0000566E  6C0A                     bge        +0xC /* 0000567A */
00005670  204D                     movea.l    A0, A5
00005672  D1FC FFFD CD78           add.l      A0, 0xFFFDCD78
00005678  4210                     clr.b      [A0]
label0000567A:
0000567A  204D                     movea.l    A0, A5
0000567C  D1FC FFFD C9B6           add.l      A0, 0xFFFDC9B6
00005682  4210                     clr.b      [A0]
label00005684:
00005684  4246                     clr.w      D6
label00005686:
00005686  4247                     clr.w      D7
00005688  741D                     moveq.l    D2, 0x1D
label0000568A:
0000568A  48C7                     ext.l      D7
0000568C  2006                     move.l     D0, D6
0000568E  C1FC 003C                muls.w     D0, 0x3C /* '<' */
00005692  2207                     move.l     D1, D7
00005694  D241                     add.w      D1, D1
00005696  D240                     add.w      D1, D0
00005698  2006                     move.l     D0, D6
0000569A  C1FC 003C                muls.w     D0, 0x3C /* '<' */
0000569E  2607                     move.l     D3, D7
000056A0  D643                     add.w      D3, D3
000056A2  D640                     add.w      D3, D0
000056A4  39B4 1002 3000           move.w     [A4 + D3.w], [A4 + D1.w + 0x2]
000056AA  3007                     move.w     D0, D7
000056AC  5247                     addq.w     D7, 1
000056AE  B447                     cmp.w      D2, D7
000056B0  6ED8                     bgt        -0x26 /* 0000568A */
000056B2  2006                     move.l     D0, D6
000056B4  C1FC 003C                muls.w     D0, 0x3C /* '<' */
000056B8  3A34 003A                move.w     D5, [A4 + D0.w + 0x3A]
000056BC  3805                     move.w     D4, D5
000056BE  E644                     asr        D4.w, 3
000056C0  4A45                     tst.w      D5
000056C2  6602                     bne        +0x4 /* 000056C6 */
000056C4  7A01                     moveq.l    D5, 0x01
label000056C6:
000056C6  558F                     subq.l     A7, 2
000056C8  A861                     syscall    Random
000056CA  7007                     moveq.l    D0, 0x07
000056CC  C05F                     and.w      D0, [A7]+
000056CE  3D40 FFFE                move.w     [A6 - 0x2], D0
000056D2  204D                     movea.l    A0, A5
000056D4  D1FC FFFD CD78           add.l      A0, 0xFFFDCD78
000056DA  1010                     move.b     D0, [A0]
000056DC  670C                     beq        +0xE /* 000056EA */
000056DE  5300                     subq.b     D0, 1
000056E0  6744                     beq        +0x46 /* 00005726 */
000056E2  5300                     subq.b     D0, 1
000056E4  677A                     beq        +0x7C /* 00005760 */
000056E6  6000 00B0                bra        +0xB2 /* 00005798 */
label000056EA:
000056EA  7003                     moveq.l    D0, 0x03
000056EC  B06E FFFE                cmp.w      D0, [A6 - 0x2]
000056F0  6C1C                     bge        +0x1E /* 0000570E */
000056F2  558F                     subq.l     A7, 2
000056F4  A861                     syscall    Random
000056F6  7003                     moveq.l    D0, 0x03
000056F8  C05F                     and.w      D0, [A7]+
000056FA  7200                     moveq.l    D1, 0x00
000056FC  3200                     move.w     D1, D0
000056FE  48C4                     ext.l      D4
00005700  4C04 1800                muls.l     D1, D4
00005704  3005                     move.w     D0, D5
00005706  9041                     sub.w      D0, D1
00005708  3A00                     move.w     D5, D0
0000570A  6000 008C                bra        +0x8E /* 00005798 */
label0000570E:
0000570E  558F                     subq.l     A7, 2
00005710  A861                     syscall    Random
00005712  7003                     moveq.l    D0, 0x03
00005714  C05F                     and.w      D0, [A7]+
00005716  7200                     moveq.l    D1, 0x00
00005718  3200                     move.w     D1, D0
0000571A  48C4                     ext.l      D4
0000571C  4C04 1800                muls.l     D1, D4
00005720  D245                     add.w      D1, D5
00005722  3A01                     move.w     D5, D1
00005724  6072                     bra        +0x74 /* 00005798 */
label00005726:
00005726  7001                     moveq.l    D0, 0x01
00005728  B06E FFFE                cmp.w      D0, [A6 - 0x2]
0000572C  6C1A                     bge        +0x1C /* 00005748 */
0000572E  558F                     subq.l     A7, 2
00005730  A861                     syscall    Random
00005732  7003                     moveq.l    D0, 0x03
00005734  C05F                     and.w      D0, [A7]+
00005736  7200                     moveq.l    D1, 0x00
00005738  3200                     move.w     D1, D0
0000573A  48C4                     ext.l      D4
0000573C  4C04 1800                muls.l     D1, D4
00005740  3005                     move.w     D0, D5
00005742  9041                     sub.w      D0, D1
00005744  3A00                     move.w     D5, D0
00005746  6050                     bra        +0x52 /* 00005798 */
label00005748:
00005748  558F                     subq.l     A7, 2
0000574A  A861                     syscall    Random
0000574C  7003                     moveq.l    D0, 0x03
0000574E  C05F                     and.w      D0, [A7]+
00005750  7200                     moveq.l    D1, 0x00
00005752  3200                     move.w     D1, D0
00005754  48C4                     ext.l      D4
00005756  4C04 1800                muls.l     D1, D4
0000575A  D245                     add.w      D1, D5
0000575C  3A01                     move.w     D5, D1
0000575E  6038                     bra        +0x3A /* 00005798 */
label00005760:
00005760  7005                     moveq.l    D0, 0x05
00005762  B06E FFFE                cmp.w      D0, [A6 - 0x2]
00005766  6C1A                     bge        +0x1C /* 00005782 */
00005768  558F                     subq.l     A7, 2
0000576A  A861                     syscall    Random
0000576C  7003                     moveq.l    D0, 0x03
0000576E  C05F                     and.w      D0, [A7]+
00005770  7200                     moveq.l    D1, 0x00
00005772  3200                     move.w     D1, D0
00005774  48C4                     ext.l      D4
00005776  4C04 1800                muls.l     D1, D4
0000577A  3005                     move.w     D0, D5
0000577C  9041                     sub.w      D0, D1
0000577E  3A00                     move.w     D5, D0
00005780  6016                     bra        +0x18 /* 00005798 */
label00005782:
00005782  558F                     subq.l     A7, 2
00005784  A861                     syscall    Random
00005786  7003                     moveq.l    D0, 0x03
00005788  C05F                     and.w      D0, [A7]+
0000578A  7200                     moveq.l    D1, 0x00
0000578C  3200                     move.w     D1, D0
0000578E  48C4                     ext.l      D4
00005790  4C04 1800                muls.l     D1, D4
00005794  D245                     add.w      D1, D5
00005796  3A01                     move.w     D5, D1
label00005798:
00005798  48C5                     ext.l      D5
0000579A  2006                     move.l     D0, D6
0000579C  EF40                     asl        D0.w, 7
0000579E  204D                     movea.l    A0, A5
000057A0  D1FC FFFD CED4           add.l      A0, 0xFFFDCED4
000057A6  7200                     moveq.l    D1, 0x00
000057A8  3230 0022                move.w     D1, [A0 + D0.w + 0x22]
000057AC  E389                     lsl        D1, 1
000057AE  B285                     cmp.l      D1, D5
000057B0  6416                     bcc        +0x18 /* 000057C8 */
000057B2  2006                     move.l     D0, D6
000057B4  EF40                     asl        D0.w, 7
000057B6  204D                     movea.l    A0, A5
000057B8  D1FC FFFD CED4           add.l      A0, 0xFFFDCED4
000057BE  7200                     moveq.l    D1, 0x00
000057C0  3230 0022                move.w     D1, [A0 + D0.w + 0x22]
000057C4  2A01                     move.l     D5, D1
000057C6  E38D                     lsl        D5, 1
label000057C8:
000057C8  48C5                     ext.l      D5
000057CA  2006                     move.l     D0, D6
000057CC  EF40                     asl        D0.w, 7
000057CE  204D                     movea.l    A0, A5
000057D0  D1FC FFFD CED4           add.l      A0, 0xFFFDCED4
000057D6  3030 0022                move.w     D0, [A0 + D0.w + 0x22]
000057DA  E248                     lsr        D0.w, 1
000057DC  7200                     moveq.l    D1, 0x00
000057DE  3200                     move.w     D1, D0
000057E0  B285                     cmp.l      D1, D5
000057E2  6F12                     ble        +0x14 /* 000057F6 */
000057E4  2006                     move.l     D0, D6
000057E6  EF40                     asl        D0.w, 7
000057E8  204D                     movea.l    A0, A5
000057EA  D1FC FFFD CED4           add.l      A0, 0xFFFDCED4
000057F0  3A30 0022                move.w     D5, [A0 + D0.w + 0x22]
000057F4  E24D                     lsr        D5.w, 1
label000057F6:
000057F6  0C45 000A                cmpi.w     D5, 0xA /* '\n' */
000057FA  6C0E                     bge        +0x10 /* 0000580A */
000057FC  7A0A                     moveq.l    D5, 0x0A
000057FE  204D                     movea.l    A0, A5
00005800  D1FC FFFD CD78           add.l      A0, 0xFFFDCD78
00005806  10BC 0001                move.b     [A0], 0x1
label0000580A:
0000580A  2006                     move.l     D0, D6
0000580C  C1FC 003C                muls.w     D0, 0x3C /* '<' */
00005810  3985 003A                move.w     [A4 + D0.w + 0x3A], D5
00005814  2006                     move.l     D0, D6
00005816  C1FC 0012                muls.w     D0, 0x12
0000581A  204D                     movea.l    A0, A5
0000581C  D1FC FFFE 9C5E           add.l      A0, 0xFFFE9C5E
00005822  3185 0006                move.w     [A0 + D0.w + 0x6], D5
00005826  2006                     move.l     D0, D6
00005828  C1FC 0012                muls.w     D0, 0x12
0000582C  204D                     movea.l    A0, A5
0000582E  D1FC FFFE 9AE4           add.l      A0, 0xFFFE9AE4
00005834  3185 0006                move.w     [A0 + D0.w + 0x6], D5
00005838  3005                     move.w     D0, D5
0000583A  E440                     asr        D0.w, 2
0000583C  2206                     move.l     D1, D6
0000583E  C3FC 0012                muls.w     D1, 0x12
00005842  204D                     movea.l    A0, A5
00005844  D1FC FFFE 99C4           add.l      A0, 0xFFFE99C4
0000584A  3180 1006                move.w     [A0 + D1.w + 0x6], D0
0000584E  2006                     move.l     D0, D6
00005850  C1FC 0012                muls.w     D0, 0x12
00005854  204D                     movea.l    A0, A5
00005856  D1FC FFFE 99C4           add.l      A0, 0xFFFE99C4
0000585C  7200                     moveq.l    D1, 0x00
0000585E  3230 0006                move.w     D1, [A0 + D0.w + 0x6]
00005862  0C41 0005                cmpi.w     D1, 0x5
00005866  6414                     bcc        +0x16 /* 0000587C */
00005868  2006                     move.l     D0, D6
0000586A  C1FC 0012                muls.w     D0, 0x12
0000586E  204D                     movea.l    A0, A5
00005870  D1FC FFFE 99C4           add.l      A0, 0xFFFE99C4
00005876  31BC 0005 0006           move.w     [A0 + D0.w + 0x6], 0x5
label0000587C:
0000587C  3006                     move.w     D0, D6
0000587E  5246                     addq.w     D6, 1
00005880  0C46 0010                cmpi.w     D6, 0x10
00005884  6D00 FE00                blt        -0x1FE /* 00005686 */
00005888  224D                     movea.l    A1, A5
0000588A  D3FC FFFF 7868           add.l      A1, 0xFFFF7868
00005890  2051                     movea.l    A0, [A1]
00005892  2868 0128                movea.l    A4, [A0 + 0x128]
00005896  2F2C 00E4                move.l     -[A7], [A4 + 0xE4]
0000589A  4EAD 0BC2                jsr        [A5 + 0xBC2 /* export_372, CODE:18 @ 000074FA */]
0000589E  224D                     movea.l    A1, A5
000058A0  D3FC FFFF 7868           add.l      A1, 0xFFFF7868
000058A6  2051                     movea.l    A0, [A1]
000058A8  2868 0128                movea.l    A4, [A0 + 0x128]
000058AC  266C 00CC                movea.l    A3, [A4 + 0xCC]
000058B0  302B 019A                move.w     D0, [A3 + 0x19A]
000058B4  48C0                     ext.l      D0
000058B6  2F00                     move.l     -[A7], D0
000058B8  2F0B                     move.l     -[A7], A3
000058BA  4EAD 0BFA                jsr        [A5 + 0xBFA /* export_379, CODE:19 @ 0000048A */]
000058BE  4FEF 000C                lea.l      A7, [A7 + 0xC]
000058C2  4CEE 18F8 FFE2           movem.l    D3,D4,D5,D6,D7,A3,A4, [A6 - 0x1E]
000058C8  4E5E                     unlink     A6
000058CA  4E75                     rts
000058CC  8E73 696D 6675 7475 7... dc.b       "simfutures__Fv"
export_146:
000058DE  4E56 0000                link       A6, 0
000058E2  48E7 0308                movem.l    -[A7], D6,D7,A4
000058E6  204D                     movea.l    A0, A5
000058E8  D1FC FFFD C9B8           add.l      A0, 0xFFFDC9B8
000058EE  49D0                     lea.l      A4, [A0]
000058F0  1C2E 000B                move.b     D6, [A6 + 0xB]
000058F4  4886                     ext.w      D6
000058F6  2006                     move.l     D0, D6
000058F8  C1FC 003C                muls.w     D0, 0x3C /* '<' */
000058FC  3E34 003A                move.w     D7, [A4 + D0.w + 0x3A]
00005900  3007                     move.w     D0, D7
00005902  E440                     asr        D0.w, 2
00005904  3207                     move.w     D1, D7
00005906  9240                     sub.w      D1, D0
00005908  3E01                     move.w     D7, D1
0000590A  4886                     ext.w      D6
0000590C  2006                     move.l     D0, D6
0000590E  C1FC 003C                muls.w     D0, 0x3C /* '<' */
00005912  3987 003A                move.w     [A4 + D0.w + 0x3A], D7
00005916  4CEE 10C0 FFF4           movem.l    D6,D7,A4, [A6 - 0xC]
0000591C  4E5E                     unlink     A6
0000591E  4E75                     rts
00005920  9664 6563 5F66 7574 7... dc.b       "dec_future_price__FcT1"
fn0000593A:
0000593A  4E56 0000                link       A6, 0
0000593E  48E7 1108                movem.l    -[A7], D3,D7,A4
00005942  204D                     movea.l    A0, A5
00005944  D1FC FFFD C9B8           add.l      A0, 0xFFFDC9B8
0000594A  49D0                     lea.l      A4, [A0]
0000594C  102E 000B                move.b     D0, [A6 + 0xB]
00005950  5300                     subq.b     D0, 1
00005952  6B00 0258                bmi        +0x25A /* 00005BAC */
00005956  0C00 0007                cmpi.b     D0, 0x7
0000595A  6E00 0250                bgt        +0x252 /* 00005BAC */
0000595E  7200                     moveq.l    D1, 0x00
00005960  1200                     move.b     D1, D0
00005962  D241                     add.w      D1, D1
00005964  323B 1006                move.w     D1, [PC + D1.w + 0x6]
00005968  4EFB 1000                jmp        [PC + D1.w]
0000596C  0242 0016                andi.w     D2, 0x16
00005970  00A2 0242 012E           ori.l      -[A2], 0x242012E
00005976  01BA 0242                bclr       [PC + 0x242 /* 00005BBA, value 0x5F707269 '_pri', cstring "_price_disaster__Fc" */], D0
0000597A  0242 6000                andi.w     D2, 0x6000 /* '`\0' */
0000597E  022E 4247 7610           andi.b     [A6 + 0x7610], 0x47 /* 'G' */
label00005984:
00005984  2007                     move.l     D0, D7
00005986  EF40                     asl        D0.w, 7
00005988  204D                     movea.l    A0, A5
0000598A  D1FC FFFD CED4           add.l      A0, 0xFFFDCED4
00005990  4A30 0047                tst.b      [A0 + D0.w + 0x47]
00005994  6768                     beq        +0x6A /* 000059FE */
00005996  2007                     move.l     D0, D7
00005998  C1FC 003C                muls.w     D0, 0x3C /* '<' */
0000599C  2207                     move.l     D1, D7
0000599E  C3FC 003C                muls.w     D1, 0x3C /* '<' */
000059A2  2407                     move.l     D2, D7
000059A4  EF42                     asl        D2.w, 7
000059A6  204D                     movea.l    A0, A5
000059A8  D1FC FFFD CED4           add.l      A0, 0xFFFDCED4
000059AE  1430 2047                move.b     D2, [A0 + D2.w + 0x47]
000059B2  3234 103A                move.w     D1, [A4 + D1.w + 0x3A]
000059B6  E469                     lsr        D1.w, D2
000059B8  D374 003A                add.w      [A4 + D0.w + 0x3A], D1
000059BC  2007                     move.l     D0, D7
000059BE  C1FC 003C                muls.w     D0, 0x3C /* '<' */
000059C2  7200                     moveq.l    D1, 0x00
000059C4  3234 003A                move.w     D1, [A4 + D0.w + 0x3A]
000059C8  2007                     move.l     D0, D7
000059CA  EF40                     asl        D0.w, 7
000059CC  204D                     movea.l    A0, A5
000059CE  D1FC FFFD CED4           add.l      A0, 0xFFFDCED4
000059D4  7400                     moveq.l    D2, 0x00
000059D6  3430 0022                move.w     D2, [A0 + D0.w + 0x22]
000059DA  E58A                     lsl        D2, 2
000059DC  B481                     cmp.l      D2, D1
000059DE  641E                     bcc        +0x20 /* 000059FE */
000059E0  2007                     move.l     D0, D7
000059E2  EF40                     asl        D0.w, 7
000059E4  204D                     movea.l    A0, A5
000059E6  D1FC FFFD CED4           add.l      A0, 0xFFFDCED4
000059EC  7200                     moveq.l    D1, 0x00
000059EE  3230 0022                move.w     D1, [A0 + D0.w + 0x22]
000059F2  E589                     lsl        D1, 2
000059F4  2007                     move.l     D0, D7
000059F6  C1FC 003C                muls.w     D0, 0x3C /* '<' */
000059FA  3981 003A                move.w     [A4 + D0.w + 0x3A], D1
label000059FE:
000059FE  3007                     move.w     D0, D7
00005A00  5247                     addq.w     D7, 1
00005A02  B647                     cmp.w      D3, D7
00005A04  6E00 FF7E                bgt        -0x80 /* 00005984 */
00005A08  6000 01A2                bra        +0x1A4 /* 00005BAC */
00005A0C  4247                     clr.w      D7
00005A0E  7610                     moveq.l    D3, 0x10
label00005A10:
00005A10  2007                     move.l     D0, D7
00005A12  EF40                     asl        D0.w, 7
00005A14  204D                     movea.l    A0, A5
00005A16  D1FC FFFD CED4           add.l      A0, 0xFFFDCED4
00005A1C  4A30 0046                tst.b      [A0 + D0.w + 0x46]
00005A20  6768                     beq        +0x6A /* 00005A8A */
00005A22  2007                     move.l     D0, D7
00005A24  C1FC 003C                muls.w     D0, 0x3C /* '<' */
00005A28  2207                     move.l     D1, D7
00005A2A  C3FC 003C                muls.w     D1, 0x3C /* '<' */
00005A2E  2407                     move.l     D2, D7
00005A30  EF42                     asl        D2.w, 7
00005A32  204D                     movea.l    A0, A5
00005A34  D1FC FFFD CED4           add.l      A0, 0xFFFDCED4
00005A3A  1430 2046                move.b     D2, [A0 + D2.w + 0x46]
00005A3E  3234 103A                move.w     D1, [A4 + D1.w + 0x3A]
00005A42  E469                     lsr        D1.w, D2
00005A44  D374 003A                add.w      [A4 + D0.w + 0x3A], D1
00005A48  2007                     move.l     D0, D7
00005A4A  C1FC 003C                muls.w     D0, 0x3C /* '<' */
00005A4E  7200                     moveq.l    D1, 0x00
00005A50  3234 003A                move.w     D1, [A4 + D0.w + 0x3A]
00005A54  2007                     move.l     D0, D7
00005A56  EF40                     asl        D0.w, 7
00005A58  204D                     movea.l    A0, A5
00005A5A  D1FC FFFD CED4           add.l      A0, 0xFFFDCED4
00005A60  7400                     moveq.l    D2, 0x00
00005A62  3430 0022                move.w     D2, [A0 + D0.w + 0x22]
00005A66  E58A                     lsl        D2, 2
00005A68  B481                     cmp.l      D2, D1
00005A6A  641E                     bcc        +0x20 /* 00005A8A */
00005A6C  2007                     move.l     D0, D7
00005A6E  EF40                     asl        D0.w, 7
00005A70  204D                     movea.l    A0, A5
00005A72  D1FC FFFD CED4           add.l      A0, 0xFFFDCED4
00005A78  7200                     moveq.l    D1, 0x00
00005A7A  3230 0022                move.w     D1, [A0 + D0.w + 0x22]
00005A7E  E589                     lsl        D1, 2
00005A80  2007                     move.l     D0, D7
00005A82  C1FC 003C                muls.w     D0, 0x3C /* '<' */
00005A86  3981 003A                move.w     [A4 + D0.w + 0x3A], D1
label00005A8A:
00005A8A  3007                     move.w     D0, D7
00005A8C  5247                     addq.w     D7, 1
00005A8E  B647                     cmp.w      D3, D7
00005A90  6E00 FF7E                bgt        -0x80 /* 00005A10 */
00005A94  6000 0116                bra        +0x118 /* 00005BAC */
00005A98  4247                     clr.w      D7
00005A9A  7610                     moveq.l    D3, 0x10
label00005A9C:
00005A9C  2007                     move.l     D0, D7
00005A9E  EF40                     asl        D0.w, 7
00005AA0  204D                     movea.l    A0, A5
00005AA2  D1FC FFFD CED4           add.l      A0, 0xFFFDCED4
00005AA8  4A30 0048                tst.b      [A0 + D0.w + 0x48]
00005AAC  6768                     beq        +0x6A /* 00005B16 */
00005AAE  2007                     move.l     D0, D7
00005AB0  C1FC 003C                muls.w     D0, 0x3C /* '<' */
00005AB4  2207                     move.l     D1, D7
00005AB6  C3FC 003C                muls.w     D1, 0x3C /* '<' */
00005ABA  2407                     move.l     D2, D7
00005ABC  EF42                     asl        D2.w, 7
00005ABE  204D                     movea.l    A0, A5
00005AC0  D1FC FFFD CED4           add.l      A0, 0xFFFDCED4
00005AC6  1430 2048                move.b     D2, [A0 + D2.w + 0x48]
00005ACA  3234 103A                move.w     D1, [A4 + D1.w + 0x3A]
00005ACE  E469                     lsr        D1.w, D2
00005AD0  D374 003A                add.w      [A4 + D0.w + 0x3A], D1
00005AD4  2007                     move.l     D0, D7
00005AD6  C1FC 003C                muls.w     D0, 0x3C /* '<' */
00005ADA  7200                     moveq.l    D1, 0x00
00005ADC  3234 003A                move.w     D1, [A4 + D0.w + 0x3A]
00005AE0  2007                     move.l     D0, D7
00005AE2  EF40                     asl        D0.w, 7
00005AE4  204D                     movea.l    A0, A5
00005AE6  D1FC FFFD CED4           add.l      A0, 0xFFFDCED4
00005AEC  7400                     moveq.l    D2, 0x00
00005AEE  3430 0022                move.w     D2, [A0 + D0.w + 0x22]
00005AF2  E58A                     lsl        D2, 2
00005AF4  B481                     cmp.l      D2, D1
00005AF6  641E                     bcc        +0x20 /* 00005B16 */
00005AF8  2007                     move.l     D0, D7
00005AFA  EF40                     asl        D0.w, 7
00005AFC  204D                     movea.l    A0, A5
00005AFE  D1FC FFFD CED4           add.l      A0, 0xFFFDCED4
00005B04  7200                     moveq.l    D1, 0x00
00005B06  3230 0022                move.w     D1, [A0 + D0.w + 0x22]
00005B0A  E589                     lsl        D1, 2
00005B0C  2007                     move.l     D0, D7
00005B0E  C1FC 003C                muls.w     D0, 0x3C /* '<' */
00005B12  3981 003A                move.w     [A4 + D0.w + 0x3A], D1
label00005B16:
00005B16  3007                     move.w     D0, D7
00005B18  5247                     addq.w     D7, 1
00005B1A  B647                     cmp.w      D3, D7
00005B1C  6E00 FF7E                bgt        -0x80 /* 00005A9C */
00005B20  6000 008A                bra        +0x8C /* 00005BAC */
00005B24  4247                     clr.w      D7
00005B26  7610                     moveq.l    D3, 0x10
label00005B28:
00005B28  2007                     move.l     D0, D7
00005B2A  EF40                     asl        D0.w, 7
00005B2C  204D                     movea.l    A0, A5
00005B2E  D1FC FFFD CED4           add.l      A0, 0xFFFDCED4
00005B34  4A30 0048                tst.b      [A0 + D0.w + 0x48]
00005B38  6768                     beq        +0x6A /* 00005BA2 */
00005B3A  2007                     move.l     D0, D7
00005B3C  C1FC 003C                muls.w     D0, 0x3C /* '<' */
00005B40  2207                     move.l     D1, D7
00005B42  C3FC 003C                muls.w     D1, 0x3C /* '<' */
00005B46  2407                     move.l     D2, D7
00005B48  EF42                     asl        D2.w, 7
00005B4A  204D                     movea.l    A0, A5
00005B4C  D1FC FFFD CED4           add.l      A0, 0xFFFDCED4
00005B52  1430 2048                move.b     D2, [A0 + D2.w + 0x48]
00005B56  3234 103A                move.w     D1, [A4 + D1.w + 0x3A]
00005B5A  E469                     lsr        D1.w, D2
00005B5C  D374 003A                add.w      [A4 + D0.w + 0x3A], D1
00005B60  2007                     move.l     D0, D7
00005B62  C1FC 003C                muls.w     D0, 0x3C /* '<' */
00005B66  7200                     moveq.l    D1, 0x00
00005B68  3234 003A                move.w     D1, [A4 + D0.w + 0x3A]
00005B6C  2007                     move.l     D0, D7
00005B6E  EF40                     asl        D0.w, 7
00005B70  204D                     movea.l    A0, A5
00005B72  D1FC FFFD CED4           add.l      A0, 0xFFFDCED4
00005B78  7400                     moveq.l    D2, 0x00
00005B7A  3430 0022                move.w     D2, [A0 + D0.w + 0x22]
00005B7E  E58A                     lsl        D2, 2
00005B80  B481                     cmp.l      D2, D1
00005B82  641E                     bcc        +0x20 /* 00005BA2 */
00005B84  2007                     move.l     D0, D7
00005B86  EF40                     asl        D0.w, 7
00005B88  204D                     movea.l    A0, A5
00005B8A  D1FC FFFD CED4           add.l      A0, 0xFFFDCED4
00005B90  7200                     moveq.l    D1, 0x00
00005B92  3230 0022                move.w     D1, [A0 + D0.w + 0x22]
00005B96  E589                     lsl        D1, 2
00005B98  2007                     move.l     D0, D7
00005B9A  C1FC 003C                muls.w     D0, 0x3C /* '<' */
00005B9E  3981 003A                move.w     [A4 + D0.w + 0x3A], D1
label00005BA2:
00005BA2  3007                     move.w     D0, D7
00005BA4  5247                     addq.w     D7, 1
00005BA6  B647                     cmp.w      D3, D7
00005BA8  6E00 FF7E                bgt        -0x80 /* 00005B28 */
label00005BAC:
00005BAC  4CEE 1088 FFF4           movem.l    D3,D7,A4, [A6 - 0xC]
00005BB2  4E5E                     unlink     A6
00005BB4  4E75                     rts
00005BB6  9669 6E63 5F70 7269 6... dc.b       "inc_price_disaster__Fc"
export_147:
00005BD0  4E56 0000                link       A6, 0
00005BD4  48E7 0700                movem.l    -[A7], D5,D6,D7
00005BD8  7A00                     moveq.l    D5, 0x00
00005BDA  4246                     clr.w      D6
00005BDC  7E01                     moveq.l    D7, 0x01
00005BDE  6044                     bra        +0x46 /* 00005C24 */
label00005BE0:
00005BE0  2007                     move.l     D0, D7
00005BE2  C1FC 0044                muls.w     D0, 0x44 /* 'D' */
00005BE6  204D                     movea.l    A0, A5
00005BE8  D1FC FFFD AFAE           add.l      A0, 0xFFFDAFAE
00005BEE  323C 0100                move.w     D1, 0x100
00005BF2  C270 0006                and.w      D1, [A0 + D0.w + 0x6]
00005BF6  6728                     beq        +0x2A /* 00005C20 */
00005BF8  2007                     move.l     D0, D7
00005BFA  C1FC 0044                muls.w     D0, 0x44 /* 'D' */
00005BFE  204D                     movea.l    A0, A5
00005C00  D1FC FFFD AFAE           add.l      A0, 0xFFFDAFAE
00005C06  7200                     moveq.l    D1, 0x00
00005C08  3230 0030                move.w     D1, [A0 + D0.w + 0x30]
00005C0C  4A81                     tst.l      D1
00005C0E  630C                     bls        +0xE /* 00005C1C */
00005C10  48C7                     ext.l      D7
00005C12  2F07                     move.l     -[A7], D7
00005C14  4EBA ECEC                jsr        [PC - 0x1314 /* 00004902 */]
00005C18  DA80                     add.l      D5, D0
00005C1A  584F                     addq.w     A7, 4
label00005C1C:
00005C1C  3006                     move.w     D0, D6
00005C1E  5246                     addq.w     D6, 1
label00005C20:
00005C20  3007                     move.w     D0, D7
00005C22  5247                     addq.w     D7, 1
label00005C24:
00005C24  204D                     movea.l    A0, A5
00005C26  D1FC FFFD AFAC           add.l      A0, 0xFFFDAFAC
00005C2C  BC50                     cmp.w      D6, [A0]
00005C2E  6DB0                     blt        -0x4E /* 00005BE0 */
00005C30  2005                     move.l     D0, D5
00005C32  4CEE 00E0 FFF4           movem.l    D5,D6,D7, [A6 - 0xC]
00005C38  4E5E                     unlink     A6
00005C3A  4E75                     rts
00005C3C  9463 616C 6366 7574 7... dc.b       "calcfutureassets__Fv"
export_148:
00005C54  4E56 FFE2                link       A6, -0x001E
00005C58  48E7 1F18                movem.l    -[A7], D3,D4,D5,D6,D7,A3,A4
00005C5C  1E2E 000B                move.b     D7, [A6 + 0xB]
00005C60  7CFF                     moveq.l    D6, 0xFFFFFFFF
00005C62  4887                     ext.w      D7
00005C64  2007                     move.l     D0, D7
00005C66  C1FC 0044                muls.w     D0, 0x44 /* 'D' */
00005C6A  204D                     movea.l    A0, A5
00005C6C  D1FC FFFD AFAE           add.l      A0, 0xFFFDAFAE
00005C72  1030 000E                move.b     D0, [A0 + D0.w + 0xE]
00005C76  4880                     ext.w      D0
00005C78  3A00                     move.w     D5, D0
00005C7A  4887                     ext.w      D7
00005C7C  2007                     move.l     D0, D7
00005C7E  C1FC 0044                muls.w     D0, 0x44 /* 'D' */
00005C82  204D                     movea.l    A0, A5
00005C84  D1FC FFFD AFAE           add.l      A0, 0xFFFDAFAE
00005C8A  1030 0003                move.b     D0, [A0 + D0.w + 0x3]
00005C8E  6B00 241A                bmi        +0x241C /* 000080AA */
00005C92  0C00 0010                cmpi.b     D0, 0x10
00005C96  6E00 2412                bgt        +0x2414 /* 000080AA */
00005C9A  7200                     moveq.l    D1, 0x00
00005C9C  1200                     move.b     D1, D0
00005C9E  D241                     add.w      D1, D1
00005CA0  323B 1006                move.w     D1, [PC + D1.w + 0x6]
00005CA4  4EFB 1000                jmp        [PC + D1.w]
00005CA8  0024 00F6                ori.b      -[A4], 0xF6
00005CAC  01D6                     .incomplete
00005CAE  02A6 03A4 04C4           andi.l     -[A6], 0x3A404C4
00005CB4  0DC4                     .incomplete
00005CB6  115C 2404                move.b     [A0 + 0x2404], [A4]+
00005CBA  2404                     move.l     D2, D4
00005CBC  1348 13BA                move.b     [A1 + 0x13BA], A0
00005CC0  148A                     move.b     [A2], A2
00005CC2  16C2                     move.b     [A3]+, D2
00005CC4  187E                     movea.b    A4, <<invalid special address>>
00005CC6  1E38 21D2                move.b     D7, [0x000021D2]
00005CCA  2005                     move.l     D0, D5
00005CCC  EF40                     asl        D0.w, 7
00005CCE  204D                     movea.l    A0, A5
00005CD0  D1FC FFFD CED4           add.l      A0, 0xFFFDCED4
00005CD6  7200                     moveq.l    D1, 0x00
00005CD8  1230 0039                move.b     D1, [A0 + D0.w + 0x39]
00005CDC  0C41 0001                cmpi.w     D1, 0x1
00005CE0  4887                     ext.w      D7
00005CE2  2007                     move.l     D0, D7
00005CE4  C1FC 0044                muls.w     D0, 0x44 /* 'D' */
00005CE8  204D                     movea.l    A0, A5
00005CEA  D1FC FFFD AFAE           add.l      A0, 0xFFFDAFAE
00005CF0  1030 000B                move.b     D0, [A0 + D0.w + 0xB]
00005CF4  49C0                     lea.l      A4, D0
00005CF6  2F00                     move.l     -[A7], D0
00005CF8  4887                     ext.w      D7
00005CFA  2007                     move.l     D0, D7
00005CFC  C1FC 0044                muls.w     D0, 0x44 /* 'D' */
00005D00  204D                     movea.l    A0, A5
00005D02  D1FC FFFD AFAE           add.l      A0, 0xFFFDAFAE
00005D08  1030 000A                move.b     D0, [A0 + D0.w + 0xA]
00005D0C  49C0                     lea.l      A4, D0
00005D0E  2F00                     move.l     -[A7], D0
00005D10  7004                     moveq.l    D0, 0x04
00005D12  2F00                     move.l     -[A7], D0
00005D14  4EAD 05D2                jsr        [A5 + 0x5D2 /* export_182, CODE:10 @ 00002702 */]
00005D18  3A00                     move.w     D5, D0
00005D1A  4FEF 000C                lea.l      A7, [A7 + 0xC]
00005D1E  660E                     bne        +0x10 /* 00005D2E */
00005D20  7003                     moveq.l    D0, 0x03
00005D22  2F00                     move.l     -[A7], D0
00005D24  4EAD 032A                jsr        [A5 + 0x32A /* export_97, CODE:5 @ 00000560 */]
00005D28  584F                     addq.w     A7, 4
00005D2A  6000 237E                bra        +0x2380 /* 000080AA */
label00005D2E:
00005D2E  2005                     move.l     D0, D5
00005D30  C1FC 003A                muls.w     D0, 0x3A /* ':' */
00005D34  204D                     movea.l    A0, A5
00005D36  D1FC FFFE 9F9C           add.l      A0, 0xFFFE9F9C
00005D3C  0070 0008 0002           ori.w      [A0 + D0.w + 0x2], 0x8
00005D42  2005                     move.l     D0, D5
00005D44  C1FC 003A                muls.w     D0, 0x3A /* ':' */
00005D48  204D                     movea.l    A0, A5
00005D4A  D1FC FFFE 9F9C           add.l      A0, 0xFFFE9F9C
00005D50  1187 0032                move.b     [A0 + D0.w + 0x32], D7
00005D54  4887                     ext.w      D7
00005D56  2007                     move.l     D0, D7
00005D58  C1FC 0044                muls.w     D0, 0x44 /* 'D' */
00005D5C  204D                     movea.l    A0, A5
00005D5E  D1FC FFFD AFAE           add.l      A0, 0xFFFDAFAE
00005D64  3185 002A                move.w     [A0 + D0.w + 0x2A], D5
00005D68  2005                     move.l     D0, D5
00005D6A  C1FC 003A                muls.w     D0, 0x3A /* ':' */
00005D6E  204D                     movea.l    A0, A5
00005D70  D1FC FFFE 9F9C           add.l      A0, 0xFFFE9F9C
00005D76  224D                     movea.l    A1, A5
00005D78  D3FC FFFD CEC2           add.l      A1, 0xFFFDCEC2
00005D7E  2191 001E                move.l     [A0 + D0.w + 0x1E], [A1]
00005D82  4887                     ext.w      D7
00005D84  2007                     move.l     D0, D7
00005D86  C1FC 0044                muls.w     D0, 0x44 /* 'D' */
00005D8A  204D                     movea.l    A0, A5
00005D8C  D1FC FFFD AFAE           add.l      A0, 0xFFFDAFAE
00005D92  11BC 0001 0003           move.b     [A0 + D0.w + 0x3], 0x1
00005D98  6000 2310                bra        +0x2312 /* 000080AA */
00005D9C  4887                     ext.w      D7
00005D9E  2007                     move.l     D0, D7
00005DA0  C1FC 0044                muls.w     D0, 0x44 /* 'D' */
00005DA4  204D                     movea.l    A0, A5
00005DA6  D1FC FFFD AFAE           add.l      A0, 0xFFFDAFAE
00005DAC  1030 000B                move.b     D0, [A0 + D0.w + 0xB]
00005DB0  49C0                     lea.l      A4, D0
00005DB2  2F00                     move.l     -[A7], D0
00005DB4  4887                     ext.w      D7
00005DB6  2007                     move.l     D0, D7
00005DB8  C1FC 0044                muls.w     D0, 0x44 /* 'D' */
00005DBC  204D                     movea.l    A0, A5
00005DBE  D1FC FFFD AFAE           add.l      A0, 0xFFFDAFAE
00005DC4  1030 000A                move.b     D0, [A0 + D0.w + 0xA]
00005DC8  49C0                     lea.l      A4, D0
00005DCA  2F00                     move.l     -[A7], D0
00005DCC  7005                     moveq.l    D0, 0x05
00005DCE  2F00                     move.l     -[A7], D0
00005DD0  4EAD 05D2                jsr        [A5 + 0x5D2 /* export_182, CODE:10 @ 00002702 */]
00005DD4  3C00                     move.w     D6, D0
00005DD6  4FEF 000C                lea.l      A7, [A7 + 0xC]
00005DDA  660E                     bne        +0x10 /* 00005DEA */
00005DDC  7001                     moveq.l    D0, 0x01
00005DDE  2F00                     move.l     -[A7], D0
00005DE0  4EAD 032A                jsr        [A5 + 0x32A /* export_97, CODE:5 @ 00000560 */]
00005DE4  584F                     addq.w     A7, 4
00005DE6  6000 22C2                bra        +0x22C4 /* 000080AA */
label00005DEA:
00005DEA  4887                     ext.w      D7
00005DEC  2007                     move.l     D0, D7
00005DEE  C1FC 0044                muls.w     D0, 0x44 /* 'D' */
00005DF2  204D                     movea.l    A0, A5
00005DF4  D1FC FFFD AFAE           add.l      A0, 0xFFFDAFAE
00005DFA  3A30 002A                move.w     D5, [A0 + D0.w + 0x2A]
00005DFE  4887                     ext.w      D7
00005E00  2007                     move.l     D0, D7
00005E02  C1FC 0044                muls.w     D0, 0x44 /* 'D' */
00005E06  204D                     movea.l    A0, A5
00005E08  D1FC FFFD AFAE           add.l      A0, 0xFFFDAFAE
00005E0E  3186 002E                move.w     [A0 + D0.w + 0x2E], D6
00005E12  2006                     move.l     D0, D6
00005E14  C1FC 003A                muls.w     D0, 0x3A /* ':' */
00005E18  204D                     movea.l    A0, A5
00005E1A  D1FC FFFE 9F9C           add.l      A0, 0xFFFE9F9C
00005E20  7200                     moveq.l    D1, 0x00
00005E22  1230 0006                move.b     D1, [A0 + D0.w + 0x6]
00005E26  2F01                     move.l     -[A7], D1
00005E28  2006                     move.l     D0, D6
00005E2A  C1FC 003A                muls.w     D0, 0x3A /* ':' */
00005E2E  204D                     movea.l    A0, A5
00005E30  D1FC FFFE 9F9C           add.l      A0, 0xFFFE9F9C
00005E36  7200                     moveq.l    D1, 0x00
00005E38  1230 0005                move.b     D1, [A0 + D0.w + 0x5]
00005E3C  5341                     subq.w     D1, 1
00005E3E  48C1                     ext.l      D1
00005E40  2F01                     move.l     -[A7], D1
00005E42  48C5                     ext.l      D5
00005E44  2F05                     move.l     -[A7], D5
00005E46  4EAD 055A                jsr        [A5 + 0x55A /* export_167, CODE:10 @ 00000348 */]
00005E4A  2005                     move.l     D0, D5
00005E4C  C1FC 003A                muls.w     D0, 0x3A /* ':' */
00005E50  204D                     movea.l    A0, A5
00005E52  D1FC FFFE 9F9C           add.l      A0, 0xFFFE9F9C
00005E58  0070 1000 0002           ori.w      [A0 + D0.w + 0x2], 0x1000
00005E5E  4887                     ext.w      D7
00005E60  2007                     move.l     D0, D7
00005E62  C1FC 0044                muls.w     D0, 0x44 /* 'D' */
00005E66  204D                     movea.l    A0, A5
00005E68  D1FC FFFD AFAE           add.l      A0, 0xFFFDAFAE
00005E6E  11BC 0002 0003           move.b     [A0 + D0.w + 0x3], 0x2
00005E74  4FEF 000C                lea.l      A7, [A7 + 0xC]
00005E78  6000 2230                bra        +0x2232 /* 000080AA */
00005E7C  4887                     ext.w      D7
00005E7E  2007                     move.l     D0, D7
00005E80  C1FC 0044                muls.w     D0, 0x44 /* 'D' */
00005E84  204D                     movea.l    A0, A5
00005E86  D1FC FFFD AFAE           add.l      A0, 0xFFFDAFAE
00005E8C  1030 000B                move.b     D0, [A0 + D0.w + 0xB]
00005E90  49C0                     lea.l      A4, D0
00005E92  2F00                     move.l     -[A7], D0
00005E94  4887                     ext.w      D7
00005E96  2007                     move.l     D0, D7
00005E98  C1FC 0044                muls.w     D0, 0x44 /* 'D' */
00005E9C  204D                     movea.l    A0, A5
00005E9E  D1FC FFFD AFAE           add.l      A0, 0xFFFDAFAE
00005EA4  1030 000A                move.b     D0, [A0 + D0.w + 0xA]
00005EA8  49C0                     lea.l      A4, D0
00005EAA  2F00                     move.l     -[A7], D0
00005EAC  7007                     moveq.l    D0, 0x07
00005EAE  2F00                     move.l     -[A7], D0
00005EB0  4EAD 05D2                jsr        [A5 + 0x5D2 /* export_182, CODE:10 @ 00002702 */]
00005EB4  3800                     move.w     D4, D0
00005EB6  4FEF 000C                lea.l      A7, [A7 + 0xC]
00005EBA  660E                     bne        +0x10 /* 00005ECA */
00005EBC  701E                     moveq.l    D0, 0x1E
00005EBE  2F00                     move.l     -[A7], D0
00005EC0  4EAD 032A                jsr        [A5 + 0x32A /* export_97, CODE:5 @ 00000560 */]
00005EC4  584F                     addq.w     A7, 4
00005EC6  6000 21E2                bra        +0x21E4 /* 000080AA */
label00005ECA:
00005ECA  2004                     move.l     D0, D4
00005ECC  C1FC 003A                muls.w     D0, 0x3A /* ':' */
00005ED0  204D                     movea.l    A0, A5
00005ED2  D1FC FFFE 9F9C           add.l      A0, 0xFFFE9F9C
00005ED8  0070 0008 0002           ori.w      [A0 + D0.w + 0x2], 0x8
00005EDE  4887                     ext.w      D7
00005EE0  2007                     move.l     D0, D7
00005EE2  C1FC 0044                muls.w     D0, 0x44 /* 'D' */
00005EE6  204D                     movea.l    A0, A5
00005EE8  D1FC FFFD AFAE           add.l      A0, 0xFFFDAFAE
00005EEE  3184 002C                move.w     [A0 + D0.w + 0x2C], D4
00005EF2  486E FFF0                pea.l      [A6 - 0x10]
00005EF6  486E FFEE                pea.l      [A6 - 0x12]
00005EFA  49C7                     lea.l      A4, D7
00005EFC  2F07                     move.l     -[A7], D7
00005EFE  4EAD 053A                jsr        [A5 + 0x53A /* export_163, CODE:9 @ 00004C80 */]
00005F02  302E FFF0                move.w     D0, [A6 - 0x10]
00005F06  48C0                     ext.l      D0
00005F08  2F00                     move.l     -[A7], D0
00005F0A  302E FFEE                move.w     D0, [A6 - 0x12]
00005F0E  48C0                     ext.l      D0
00005F10  2F00                     move.l     -[A7], D0
00005F12  48C4                     ext.l      D4
00005F14  2F04                     move.l     -[A7], D4
00005F16  4EAD 055A                jsr        [A5 + 0x55A /* export_167, CODE:10 @ 00000348 */]
00005F1A  2004                     move.l     D0, D4
00005F1C  C1FC 003A                muls.w     D0, 0x3A /* ':' */
00005F20  204D                     movea.l    A0, A5
00005F22  D1FC FFFE 9F9C           add.l      A0, 0xFFFE9F9C
00005F28  0070 1000 0002           ori.w      [A0 + D0.w + 0x2], 0x1000
00005F2E  4887                     ext.w      D7
00005F30  2007                     move.l     D0, D7
00005F32  C1FC 0044                muls.w     D0, 0x44 /* 'D' */
00005F36  204D                     movea.l    A0, A5
00005F38  D1FC FFFD AFAE           add.l      A0, 0xFFFDAFAE
00005F3E  11BC 0003 0003           move.b     [A0 + D0.w + 0x3], 0x3
00005F44  4FEF 0018                lea.l      A7, [A7 + 0x18]
00005F48  6000 2160                bra        +0x2162 /* 000080AA */
00005F4C  4887                     ext.w      D7
00005F4E  2007                     move.l     D0, D7
00005F50  C1FC 0044                muls.w     D0, 0x44 /* 'D' */
00005F54  204D                     movea.l    A0, A5
00005F56  D1FC FFFD AFAE           add.l      A0, 0xFFFDAFAE
00005F5C  3030 002A                move.w     D0, [A0 + D0.w + 0x2A]
00005F60  C1FC 003A                muls.w     D0, 0x3A /* ':' */
00005F64  204D                     movea.l    A0, A5
00005F66  D1FC FFFE 9F9C           add.l      A0, 0xFFFE9F9C
00005F6C  7200                     moveq.l    D1, 0x00
00005F6E  3230 0002                move.w     D1, [A0 + D0.w + 0x2]
00005F72  7002                     moveq.l    D0, 0x02
00005F74  C041                     and.w      D0, D1
00005F76  6706                     beq        +0x8 /* 00005F7E */
00005F78  7000                     moveq.l    D0, 0x00
00005F7A  6000 2130                bra        +0x2132 /* 000080AC */
label00005F7E:
00005F7E  4887                     ext.w      D7
00005F80  2007                     move.l     D0, D7
00005F82  C1FC 0044                muls.w     D0, 0x44 /* 'D' */
00005F86  204D                     movea.l    A0, A5
00005F88  D1FC FFFD AFAE           add.l      A0, 0xFFFDAFAE
00005F8E  3A30 002A                move.w     D5, [A0 + D0.w + 0x2A]
00005F92  4887                     ext.w      D7
00005F94  2007                     move.l     D0, D7
00005F96  C1FC 0044                muls.w     D0, 0x44 /* 'D' */
00005F9A  204D                     movea.l    A0, A5
00005F9C  D1FC FFFD AFAE           add.l      A0, 0xFFFDAFAE
00005FA2  3C30 002E                move.w     D6, [A0 + D0.w + 0x2E]
00005FA6  4887                     ext.w      D7
00005FA8  2007                     move.l     D0, D7
00005FAA  C1FC 0044                muls.w     D0, 0x44 /* 'D' */
00005FAE  204D                     movea.l    A0, A5
00005FB0  D1FC FFFD AFAE           add.l      A0, 0xFFFDAFAE
00005FB6  4270 002E                clr.w      [A0 + D0.w + 0x2E]
00005FBA  48C6                     ext.l      D6
00005FBC  2F06                     move.l     -[A7], D6
00005FBE  4EAD 0582                jsr        [A5 + 0x582 /* export_172, CODE:10 @ 0000113C */]
00005FC2  48C5                     ext.l      D5
00005FC4  2F05                     move.l     -[A7], D5
00005FC6  4EAD 0582                jsr        [A5 + 0x582 /* export_172, CODE:10 @ 0000113C */]
00005FCA  48C6                     ext.l      D6
00005FCC  2F06                     move.l     -[A7], D6
00005FCE  48C5                     ext.l      D5
00005FD0  2F05                     move.l     -[A7], D5
00005FD2  4EAD 05BA                jsr        [A5 + 0x5BA /* export_179, CODE:10 @ 0000209E */]
00005FD6  486E FFF0                pea.l      [A6 - 0x10]
00005FDA  486E FFEE                pea.l      [A6 - 0x12]
00005FDE  49C7                     lea.l      A4, D7
00005FE0  2F07                     move.l     -[A7], D7
00005FE2  4EAD 053A                jsr        [A5 + 0x53A /* export_163, CODE:9 @ 00004C80 */]
00005FE6  302E FFF0                move.w     D0, [A6 - 0x10]
00005FEA  48C0                     ext.l      D0
00005FEC  2F00                     move.l     -[A7], D0
00005FEE  302E FFEE                move.w     D0, [A6 - 0x12]
00005FF2  48C0                     ext.l      D0
00005FF4  2F00                     move.l     -[A7], D0
00005FF6  48C5                     ext.l      D5
00005FF8  2F05                     move.l     -[A7], D5
00005FFA  4EAD 055A                jsr        [A5 + 0x55A /* export_167, CODE:10 @ 00000348 */]
00005FFE  2005                     move.l     D0, D5
00006000  C1FC 003A                muls.w     D0, 0x3A /* ':' */
00006004  204D                     movea.l    A0, A5
00006006  D1FC FFFE 9F9C           add.l      A0, 0xFFFE9F9C
0000600C  0070 1000 0002           ori.w      [A0 + D0.w + 0x2], 0x1000
00006012  4887                     ext.w      D7
00006014  2007                     move.l     D0, D7
00006016  C1FC 0044                muls.w     D0, 0x44 /* 'D' */
0000601A  204D                     movea.l    A0, A5
0000601C  D1FC FFFD AFAE           add.l      A0, 0xFFFDAFAE
00006022  11BC 0004 0003           move.b     [A0 + D0.w + 0x3], 0x4
00006028  2005                     move.l     D0, D5
0000602A  C1FC 003A                muls.w     D0, 0x3A /* ':' */
0000602E  204D                     movea.l    A0, A5
00006030  D1FC FFFE 9F9C           add.l      A0, 0xFFFE9F9C
00006036  224D                     movea.l    A1, A5
00006038  D3FC FFFD CEC2           add.l      A1, 0xFFFDCEC2
0000603E  2191 001E                move.l     [A0 + D0.w + 0x1E], [A1]
00006042  4FEF 0028                lea.l      A7, [A7 + 0x28]
00006046  6000 2062                bra        +0x2064 /* 000080AA */
0000604A  4887                     ext.w      D7
0000604C  2007                     move.l     D0, D7
0000604E  C1FC 0044                muls.w     D0, 0x44 /* 'D' */
00006052  204D                     movea.l    A0, A5
00006054  D1FC FFFD AFAE           add.l      A0, 0xFFFDAFAE
0000605A  3030 002A                move.w     D0, [A0 + D0.w + 0x2A]
0000605E  C1FC 003A                muls.w     D0, 0x3A /* ':' */
00006062  204D                     movea.l    A0, A5
00006064  D1FC FFFE 9F9C           add.l      A0, 0xFFFE9F9C
0000606A  7200                     moveq.l    D1, 0x00
0000606C  3230 0002                move.w     D1, [A0 + D0.w + 0x2]
00006070  7002                     moveq.l    D0, 0x02
00006072  C041                     and.w      D0, D1
00006074  662C                     bne        +0x2E /* 000060A2 */
00006076  4887                     ext.w      D7
00006078  2007                     move.l     D0, D7
0000607A  C1FC 0044                muls.w     D0, 0x44 /* 'D' */
0000607E  204D                     movea.l    A0, A5
00006080  D1FC FFFD AFAE           add.l      A0, 0xFFFDAFAE
00006086  3030 002C                move.w     D0, [A0 + D0.w + 0x2C]
0000608A  C1FC 003A                muls.w     D0, 0x3A /* ':' */
0000608E  204D                     movea.l    A0, A5
00006090  D1FC FFFE 9F9C           add.l      A0, 0xFFFE9F9C
00006096  7200                     moveq.l    D1, 0x00
00006098  3230 0002                move.w     D1, [A0 + D0.w + 0x2]
0000609C  7002                     moveq.l    D0, 0x02
0000609E  C041                     and.w      D0, D1
000060A0  6706                     beq        +0x8 /* 000060A8 */
label000060A2:
000060A2  7000                     moveq.l    D0, 0x00
000060A4  6000 2006                bra        +0x2008 /* 000080AC */
label000060A8:
000060A8  4887                     ext.w      D7
000060AA  2007                     move.l     D0, D7
000060AC  C1FC 0044                muls.w     D0, 0x44 /* 'D' */
000060B0  204D                     movea.l    A0, A5
000060B2  D1FC FFFD AFAE           add.l      A0, 0xFFFDAFAE
000060B8  3A30 002A                move.w     D5, [A0 + D0.w + 0x2A]
000060BC  2005                     move.l     D0, D5
000060BE  C1FC 003A                muls.w     D0, 0x3A /* ':' */
000060C2  204D                     movea.l    A0, A5
000060C4  D1FC FFFE 9F9C           add.l      A0, 0xFFFE9F9C
000060CA  3C30 0030                move.w     D6, [A0 + D0.w + 0x30]
000060CE  4887                     ext.w      D7
000060D0  2007                     move.l     D0, D7
000060D2  C1FC 0044                muls.w     D0, 0x44 /* 'D' */
000060D6  204D                     movea.l    A0, A5
000060D8  D1FC FFFD AFAE           add.l      A0, 0xFFFDAFAE
000060DE  11BC 0005 0003           move.b     [A0 + D0.w + 0x3], 0x5
000060E4  48C5                     ext.l      D5
000060E6  2F05                     move.l     -[A7], D5
000060E8  4EAD 0582                jsr        [A5 + 0x582 /* export_172, CODE:10 @ 0000113C */]
000060EC  7002                     moveq.l    D0, 0x02
000060EE  2F00                     move.l     -[A7], D0
000060F0  48C5                     ext.l      D5
000060F2  2F05                     move.l     -[A7], D5
000060F4  4EAD 059A                jsr        [A5 + 0x59A /* export_175, CODE:10 @ 00001B82 */]
000060F8  4887                     ext.w      D7
000060FA  2007                     move.l     D0, D7
000060FC  C1FC 0044                muls.w     D0, 0x44 /* 'D' */
00006100  204D                     movea.l    A0, A5
00006102  D1FC FFFD AFAE           add.l      A0, 0xFFFDAFAE
00006108  2205                     move.l     D1, D5
0000610A  C3FC 003A                muls.w     D1, 0x3A /* ':' */
0000610E  224D                     movea.l    A1, A5
00006110  D3FC FFFE 9F9C           add.l      A1, 0xFFFE9F9C
00006116  13B0 000A 1005           move.b     [A1 + D1.w + 0x5], [A0 + D0.w + 0xA]
0000611C  4887                     ext.w      D7
0000611E  2007                     move.l     D0, D7
00006120  C1FC 0044                muls.w     D0, 0x44 /* 'D' */
00006124  204D                     movea.l    A0, A5
00006126  D1FC FFFD AFAE           add.l      A0, 0xFFFDAFAE
0000612C  2205                     move.l     D1, D5
0000612E  C3FC 003A                muls.w     D1, 0x3A /* ':' */
00006132  224D                     movea.l    A1, A5
00006134  D3FC FFFE 9F9C           add.l      A1, 0xFFFE9F9C
0000613A  13B0 000B 1006           move.b     [A1 + D1.w + 0x6], [A0 + D0.w + 0xB]
00006140  48C5                     ext.l      D5
00006142  2F05                     move.l     -[A7], D5
00006144  4EAD 05C2                jsr        [A5 + 0x5C2 /* export_180, CODE:10 @ 000023EE */]
00006148  2005                     move.l     D0, D5
0000614A  C1FC 003A                muls.w     D0, 0x3A /* ':' */
0000614E  204D                     movea.l    A0, A5
00006150  D1FC FFFE 9F9C           add.l      A0, 0xFFFE9F9C
00006156  224D                     movea.l    A1, A5
00006158  D3FC FFFD CEC2           add.l      A1, 0xFFFDCEC2
0000615E  2191 001E                move.l     [A0 + D0.w + 0x1E], [A1]
00006162  4FEF 0010                lea.l      A7, [A7 + 0x10]
00006166  6000 1F42                bra        +0x1F44 /* 000080AA */
0000616A  4887                     ext.w      D7
0000616C  2007                     move.l     D0, D7
0000616E  C1FC 0044                muls.w     D0, 0x44 /* 'D' */
00006172  204D                     movea.l    A0, A5
00006174  D1FC FFFD AFAE           add.l      A0, 0xFFFDAFAE
0000617A  3030 002A                move.w     D0, [A0 + D0.w + 0x2A]
0000617E  C1FC 003A                muls.w     D0, 0x3A /* ':' */
00006182  204D                     movea.l    A0, A5
00006184  D1FC FFFE 9F9C           add.l      A0, 0xFFFE9F9C
0000618A  224D                     movea.l    A1, A5
0000618C  D3FC FFFD CEC2           add.l      A1, 0xFFFDCEC2
00006192  2211                     move.l     D1, [A1]
00006194  92B0 001E                sub.l      D1, [A0 + D0.w + 0x1E]
00006198  7001                     moveq.l    D0, 0x01
0000619A  B081                     cmp.l      D0, D1
0000619C  6306                     bls        +0x8 /* 000061A4 */
0000619E  7000                     moveq.l    D0, 0x00
000061A0  6000 1F0A                bra        +0x1F0C /* 000080AC */
label000061A4:
000061A4  4887                     ext.w      D7
000061A6  2007                     move.l     D0, D7
000061A8  C1FC 0044                muls.w     D0, 0x44 /* 'D' */
000061AC  204D                     movea.l    A0, A5
000061AE  D1FC FFFD AFAE           add.l      A0, 0xFFFDAFAE
000061B4  3030 002A                move.w     D0, [A0 + D0.w + 0x2A]
000061B8  C1FC 003A                muls.w     D0, 0x3A /* ':' */
000061BC  204D                     movea.l    A0, A5
000061BE  D1FC FFFE 9F9C           add.l      A0, 0xFFFE9F9C
000061C4  224D                     movea.l    A1, A5
000061C6  D3FC FFFD CEC2           add.l      A1, 0xFFFDCEC2
000061CC  2191 001E                move.l     [A0 + D0.w + 0x1E], [A1]
000061D0  4887                     ext.w      D7
000061D2  2007                     move.l     D0, D7
000061D4  C1FC 0044                muls.w     D0, 0x44 /* 'D' */
000061D8  204D                     movea.l    A0, A5
000061DA  D1FC FFFD AFAE           add.l      A0, 0xFFFDAFAE
000061E0  3A30 002A                move.w     D5, [A0 + D0.w + 0x2A]
000061E4  2005                     move.l     D0, D5
000061E6  C1FC 003A                muls.w     D0, 0x3A /* ':' */
000061EA  204D                     movea.l    A0, A5
000061EC  D1FC FFFE 9F9C           add.l      A0, 0xFFFE9F9C
000061F2  3C30 0030                move.w     D6, [A0 + D0.w + 0x30]
000061F6  4887                     ext.w      D7
000061F8  2007                     move.l     D0, D7
000061FA  C1FC 0044                muls.w     D0, 0x44 /* 'D' */
000061FE  204D                     movea.l    A0, A5
00006200  D1FC FFFD AFAE           add.l      A0, 0xFFFDAFAE
00006206  3830 002C                move.w     D4, [A0 + D0.w + 0x2C]
0000620A  2006                     move.l     D0, D6
0000620C  C1FC 003A                muls.w     D0, 0x3A /* ':' */
00006210  204D                     movea.l    A0, A5
00006212  D1FC FFFE 9F9C           add.l      A0, 0xFFFE9F9C
00006218  11BC 0001 002C           move.b     [A0 + D0.w + 0x2C], 0x1
0000621E  4887                     ext.w      D7
00006220  2007                     move.l     D0, D7
00006222  C1FC 0044                muls.w     D0, 0x44 /* 'D' */
00006226  204D                     movea.l    A0, A5
00006228  D1FC FFFD AFAE           add.l      A0, 0xFFFDAFAE
0000622E  1030 000E                move.b     D0, [A0 + D0.w + 0xE]
00006232  4880                     ext.w      D0
00006234  EF40                     asl        D0.w, 7
00006236  204D                     movea.l    A0, A5
00006238  D1FC FFFD CED4           add.l      A0, 0xFFFDCED4
0000623E  7200                     moveq.l    D1, 0x00
00006240  1230 003E                move.b     D1, [A0 + D0.w + 0x3E]
00006244  4A81                     tst.l      D1
00006246  0801 0000                btst.b     D1, 0x0
0000624A  6714                     beq        +0x16 /* 00006260 */
0000624C  70FF                     moveq.l    D0, 0xFFFFFFFF
0000624E  2F00                     move.l     -[A7], D0
00006250  48C5                     ext.l      D5
00006252  2F05                     move.l     -[A7], D5
00006254  4EAD 0592                jsr        [A5 + 0x592 /* export_174, CODE:10 @ 000017A4 */]
00006258  3D40 FFF2                move.w     [A6 - 0xE], D0
0000625C  504F                     addq.w     A7, 8
0000625E  6012                     bra        +0x14 /* 00006272 */
label00006260:
00006260  7024                     moveq.l    D0, 0x24
00006262  2F00                     move.l     -[A7], D0
00006264  48C5                     ext.l      D5
00006266  2F05                     move.l     -[A7], D5
00006268  4EAD 0592                jsr        [A5 + 0x592 /* export_174, CODE:10 @ 000017A4 */]
0000626C  3D40 FFF2                move.w     [A6 - 0xE], D0
00006270  504F                     addq.w     A7, 8
label00006272:
00006272  4A6E FFF2                tst.w      [A6 - 0xE]
00006276  6700 1E32                beq        +0x1E34 /* 000080AA */
0000627A  4887                     ext.w      D7
0000627C  2007                     move.l     D0, D7
0000627E  C1FC 0044                muls.w     D0, 0x44 /* 'D' */
00006282  204D                     movea.l    A0, A5
00006284  D1FC FFFD AFAE           add.l      A0, 0xFFFDAFAE
0000628A  1030 000E                move.b     D0, [A0 + D0.w + 0xE]
0000628E  4880                     ext.w      D0
00006290  EF40                     asl        D0.w, 7
00006292  204D                     movea.l    A0, A5
00006294  D1FC FFFD CED4           add.l      A0, 0xFFFDCED4
0000629A  3D70 0020 FFFE           move.w     [A6 - 0x2], [A0 + D0.w + 0x20]
000062A0  4887                     ext.w      D7
000062A2  2007                     move.l     D0, D7
000062A4  C1FC 0044                muls.w     D0, 0x44 /* 'D' */
000062A8  204D                     movea.l    A0, A5
000062AA  D1FC FFFD AFAE           add.l      A0, 0xFFFDAFAE
000062B0  4270 0040                clr.w      [A0 + D0.w + 0x40]
000062B4  4887                     ext.w      D7
000062B6  2007                     move.l     D0, D7
000062B8  C1FC 0044                muls.w     D0, 0x44 /* 'D' */
000062BC  204D                     movea.l    A0, A5
000062BE  D1FC FFFD AFAE           add.l      A0, 0xFFFDAFAE
000062C4  11BC 00FF 0042           move.b     [A0 + D0.w + 0x42], 0xFF
000062CA  4887                     ext.w      D7
000062CC  2007                     move.l     D0, D7
000062CE  C1FC 0044                muls.w     D0, 0x44 /* 'D' */
000062D2  204D                     movea.l    A0, A5
000062D4  D1FC FFFD AFAE           add.l      A0, 0xFFFDAFAE
000062DA  11BC 00FF 0043           move.b     [A0 + D0.w + 0x43], 0xFF
000062E0  4887                     ext.w      D7
000062E2  2007                     move.l     D0, D7
000062E4  C1FC 0044                muls.w     D0, 0x44 /* 'D' */
000062E8  204D                     movea.l    A0, A5
000062EA  D1FC FFFD AFAE           add.l      A0, 0xFFFDAFAE
000062F0  7200                     moveq.l    D1, 0x00
000062F2  3230 0030                move.w     D1, [A0 + D0.w + 0x30]
000062F6  4A81                     tst.l      D1
000062F8  6300 025C                bls        +0x25E /* 00006556 */
000062FC  4887                     ext.w      D7
000062FE  2007                     move.l     D0, D7
00006300  C1FC 0044                muls.w     D0, 0x44 /* 'D' */
00006304  204D                     movea.l    A0, A5
00006306  D1FC FFFD AFAE           add.l      A0, 0xFFFDAFAE
0000630C  1030 000E                move.b     D0, [A0 + D0.w + 0xE]
00006310  4880                     ext.w      D0
00006312  C1FC 0012                muls.w     D0, 0x12
00006316  204D                     movea.l    A0, A5
00006318  D1FC FFFE 9C5E           add.l      A0, 0xFFFE9C5E
0000631E  3230 0004                move.w     D1, [A0 + D0.w + 0x4]
00006322  5370 0004                subq.w     [A0 + D0.w + 0x4], 1
00006326  49C7                     lea.l      A4, D7
00006328  2F07                     move.l     -[A7], D7
0000632A  4EBA E5D6                jsr        [PC - 0x1A2A /* 00004902 */]
0000632E  2D40 FFF6                move.l     [A6 - 0xA], D0
00006332  4887                     ext.w      D7
00006334  2007                     move.l     D0, D7
00006336  C1FC 0044                muls.w     D0, 0x44 /* 'D' */
0000633A  204D                     movea.l    A0, A5
0000633C  D1FC FFFD AFAE           add.l      A0, 0xFFFDAFAE
00006342  4270 0030                clr.w      [A0 + D0.w + 0x30]
00006346  49C7                     lea.l      A4, D7
00006348  2F07                     move.l     -[A7], D7
0000634A  4EBA E5B6                jsr        [PC - 0x1A4A /* 00004902 */]
0000634E  2D40 FFFA                move.l     [A6 - 0x6], D0
00006352  202E FFF6                move.l     D0, [A6 - 0xA]
00006356  B0AE FFFA                cmp.l      D0, [A6 - 0x6]
0000635A  504F                     addq.w     A7, 8
0000635C  6414                     bcc        +0x16 /* 00006372 */
0000635E  202E FFFA                move.l     D0, [A6 - 0x6]
00006362  90AE FFF6                sub.l      D0, [A6 - 0xA]
00006366  204D                     movea.l    A0, A5
00006368  D1FC FFFE BD3A           add.l      A0, 0xFFFEBD3A
0000636E  D190                     add.l      [A0], D0
00006370  6012                     bra        +0x14 /* 00006384 */
label00006372:
00006372  202E FFF6                move.l     D0, [A6 - 0xA]
00006376  90AE FFFA                sub.l      D0, [A6 - 0x6]
0000637A  204D                     movea.l    A0, A5
0000637C  D1FC FFFE BD52           add.l      A0, 0xFFFEBD52
00006382  D190                     add.l      [A0], D0
label00006384:
00006384  2F2E FFF6                move.l     -[A7], [A6 - 0xA]
00006388  4878 00A8                push.l     0xA8
0000638C  4EAD 0602                jsr        [A5 + 0x602 /* export_188, CODE:10 @ 00002E6C */]
00006390  202E FFF6                move.l     D0, [A6 - 0xA]
00006394  204D                     movea.l    A0, A5
00006396  D1FC FFFE BD7A           add.l      A0, 0xFFFEBD7A
0000639C  D190                     add.l      [A0], D0
0000639E  4887                     ext.w      D7
000063A0  2007                     move.l     D0, D7
000063A2  C1FC 0044                muls.w     D0, 0x44 /* 'D' */
000063A6  204D                     movea.l    A0, A5
000063A8  D1FC FFFD AFAE           add.l      A0, 0xFFFDAFAE
000063AE  4270 0030                clr.w      [A0 + D0.w + 0x30]
000063B2  2006                     move.l     D0, D6
000063B4  C1FC 003A                muls.w     D0, 0x3A /* ':' */
000063B8  204D                     movea.l    A0, A5
000063BA  D1FC FFFE 9F9C           add.l      A0, 0xFFFE9F9C
000063C0  4230 002C                clr.b      [A0 + D0.w + 0x2C]
000063C4  2006                     move.l     D0, D6
000063C6  C1FC 003A                muls.w     D0, 0x3A /* ':' */
000063CA  204D                     movea.l    A0, A5
000063CC  D1FC FFFE 9F9C           add.l      A0, 0xFFFE9F9C
000063D2  4230 002C                clr.b      [A0 + D0.w + 0x2C]
000063D6  2004                     move.l     D0, D4
000063D8  C1FC 003A                muls.w     D0, 0x3A /* ':' */
000063DC  204D                     movea.l    A0, A5
000063DE  D1FC FFFE 9F9C           add.l      A0, 0xFFFE9F9C
000063E4  4230 002C                clr.b      [A0 + D0.w + 0x2C]
000063E8  2004                     move.l     D0, D4
000063EA  C1FC 003A                muls.w     D0, 0x3A /* ':' */
000063EE  204D                     movea.l    A0, A5
000063F0  D1FC FFFE 9F9C           add.l      A0, 0xFFFE9F9C
000063F6  1030 0035                move.b     D0, [A0 + D0.w + 0x35]
000063FA  49C0                     lea.l      A4, D0
000063FC  2F00                     move.l     -[A7], D0
000063FE  2004                     move.l     D0, D4
00006400  C1FC 003A                muls.w     D0, 0x3A /* ':' */
00006404  204D                     movea.l    A0, A5
00006406  D1FC FFFE 9F9C           add.l      A0, 0xFFFE9F9C
0000640C  1030 0034                move.b     D0, [A0 + D0.w + 0x34]
00006410  49C0                     lea.l      A4, D0
00006412  2F00                     move.l     -[A7], D0
00006414  48C4                     ext.l      D4
00006416  2F04                     move.l     -[A7], D4
00006418  4EAD 055A                jsr        [A5 + 0x55A /* export_167, CODE:10 @ 00000348 */]
0000641C  2004                     move.l     D0, D4
0000641E  C1FC 003A                muls.w     D0, 0x3A /* ':' */
00006422  204D                     movea.l    A0, A5
00006424  D1FC FFFE 9F9C           add.l      A0, 0xFFFE9F9C
0000642A  0070 0200 0002           ori.w      [A0 + D0.w + 0x2], 0x200
00006430  4887                     ext.w      D7
00006432  2007                     move.l     D0, D7
00006434  C1FC 0044                muls.w     D0, 0x44 /* 'D' */
00006438  204D                     movea.l    A0, A5
0000643A  D1FC FFFD AFAE           add.l      A0, 0xFFFDAFAE
00006440  4230 0003                clr.b      [A0 + D0.w + 0x3]
00006444  4887                     ext.w      D7
00006446  2007                     move.l     D0, D7
00006448  C1FC 0044                muls.w     D0, 0x44 /* 'D' */
0000644C  204D                     movea.l    A0, A5
0000644E  D1FC FFFD AFAE           add.l      A0, 0xFFFDAFAE
00006454  4270 002C                clr.w      [A0 + D0.w + 0x2C]
00006458  4887                     ext.w      D7
0000645A  2007                     move.l     D0, D7
0000645C  C1FC 0044                muls.w     D0, 0x44 /* 'D' */
00006460  204D                     movea.l    A0, A5
00006462  D1FC FFFD AFAE           add.l      A0, 0xFFFDAFAE
00006468  4270 0026                clr.w      [A0 + D0.w + 0x26]
0000646C  4887                     ext.w      D7
0000646E  2007                     move.l     D0, D7
00006470  C1FC 0044                muls.w     D0, 0x44 /* 'D' */
00006474  204D                     movea.l    A0, A5
00006476  D1FC FFFD AFAE           add.l      A0, 0xFFFDAFAE
0000647C  4270 0028                clr.w      [A0 + D0.w + 0x28]
00006480  4887                     ext.w      D7
00006482  2007                     move.l     D0, D7
00006484  C1FC 0044                muls.w     D0, 0x44 /* 'D' */
00006488  204D                     movea.l    A0, A5
0000648A  D1FC FFFD AFAE           add.l      A0, 0xFFFDAFAE
00006490  4270 0012                clr.w      [A0 + D0.w + 0x12]
00006494  4887                     ext.w      D7
00006496  2007                     move.l     D0, D7
00006498  C1FC 0044                muls.w     D0, 0x44 /* 'D' */
0000649C  204D                     movea.l    A0, A5
0000649E  D1FC FFFD AFAE           add.l      A0, 0xFFFDAFAE
000064A4  4230 0021                clr.b      [A0 + D0.w + 0x21]
000064A8  4887                     ext.w      D7
000064AA  2007                     move.l     D0, D7
000064AC  C1FC 0044                muls.w     D0, 0x44 /* 'D' */
000064B0  204D                     movea.l    A0, A5
000064B2  D1FC FFFD AFAE           add.l      A0, 0xFFFDAFAE
000064B8  1030 000E                move.b     D0, [A0 + D0.w + 0xE]
000064BC  4880                     ext.w      D0
000064BE  EF40                     asl        D0.w, 7
000064C0  204D                     movea.l    A0, A5
000064C2  D1FC FFFD CED4           add.l      A0, 0xFFFDCED4
000064C8  7200                     moveq.l    D1, 0x00
000064CA  1230 003E                move.b     D1, [A0 + D0.w + 0x3E]
000064CE  4A81                     tst.l      D1
000064D0  0801 0000                btst.b     D1, 0x0
000064D4  4FEF 0014                lea.l      A7, [A7 + 0x14]
000064D8  6750                     beq        +0x52 /* 0000652A */
000064DA  4887                     ext.w      D7
000064DC  2007                     move.l     D0, D7
000064DE  C1FC 0044                muls.w     D0, 0x44 /* 'D' */
000064E2  204D                     movea.l    A0, A5
000064E4  D1FC FFFD AFAE           add.l      A0, 0xFFFDAFAE
000064EA  1030 000E                move.b     D0, [A0 + D0.w + 0xE]
000064EE  4880                     ext.w      D0
000064F0  EF40                     asl        D0.w, 7
000064F2  204D                     movea.l    A0, A5
000064F4  D1FC FFFD CED4           add.l      A0, 0xFFFDCED4
000064FA  4887                     ext.w      D7
000064FC  2207                     move.l     D1, D7
000064FE  C3FC 0044                muls.w     D1, 0x44 /* 'D' */
00006502  224D                     movea.l    A1, A5
00006504  D3FC FFFD AFAE           add.l      A1, 0xFFFDAFAE
0000650A  13B0 0012 1022           move.b     [A1 + D1.w + 0x22], [A0 + D0.w + 0x12]
00006510  4887                     ext.w      D7
00006512  2007                     move.l     D0, D7
00006514  C1FC 0044                muls.w     D0, 0x44 /* 'D' */
00006518  204D                     movea.l    A0, A5
0000651A  D1FC FFFD AFAE           add.l      A0, 0xFFFDAFAE
00006520  11BC 0004 0002           move.b     [A0 + D0.w + 0x2], 0x4
00006526  6000 0374                bra        +0x376 /* 0000689C */
label0000652A:
0000652A  4887                     ext.w      D7
0000652C  2007                     move.l     D0, D7
0000652E  C1FC 0044                muls.w     D0, 0x44 /* 'D' */
00006532  204D                     movea.l    A0, A5
00006534  D1FC FFFD AFAE           add.l      A0, 0xFFFDAFAE
0000653A  4230 0022                clr.b      [A0 + D0.w + 0x22]
0000653E  4887                     ext.w      D7
00006540  2007                     move.l     D0, D7
00006542  C1FC 0044                muls.w     D0, 0x44 /* 'D' */
00006546  204D                     movea.l    A0, A5
00006548  D1FC FFFD AFAE           add.l      A0, 0xFFFDAFAE
0000654E  4230 0002                clr.b      [A0 + D0.w + 0x2]
00006552  6000 0348                bra        +0x34A /* 0000689C */
label00006556:
00006556  49C7                     lea.l      A4, D7
00006558  2F07                     move.l     -[A7], D7
0000655A  4EBA E3A6                jsr        [PC - 0x1C5A /* 00004902 */]
0000655E  2D40 FFF6                move.l     [A6 - 0xA], D0
00006562  4887                     ext.w      D7
00006564  2007                     move.l     D0, D7
00006566  C1FC 0044                muls.w     D0, 0x44 /* 'D' */
0000656A  204D                     movea.l    A0, A5
0000656C  D1FC FFFD AFAE           add.l      A0, 0xFFFDAFAE
00006572  4870 0043                pea.l      [A0 + D0.w + 0x43]
00006576  4887                     ext.w      D7
00006578  2007                     move.l     D0, D7
0000657A  C1FC 0044                muls.w     D0, 0x44 /* 'D' */
0000657E  204D                     movea.l    A0, A5
00006580  D1FC FFFD AFAE           add.l      A0, 0xFFFDAFAE
00006586  4870 0042                pea.l      [A0 + D0.w + 0x42]
0000658A  2004                     move.l     D0, D4
0000658C  C1FC 003A                muls.w     D0, 0x3A /* ':' */
00006590  204D                     movea.l    A0, A5
00006592  D1FC FFFE 9F9C           add.l      A0, 0xFFFE9F9C
00006598  7200                     moveq.l    D1, 0x00
0000659A  1230 0006                move.b     D1, [A0 + D0.w + 0x6]
0000659E  2F01                     move.l     -[A7], D1
000065A0  2004                     move.l     D0, D4
000065A2  C1FC 003A                muls.w     D0, 0x3A /* ':' */
000065A6  204D                     movea.l    A0, A5
000065A8  D1FC FFFE 9F9C           add.l      A0, 0xFFFE9F9C
000065AE  7200                     moveq.l    D1, 0x00
000065B0  1230 0005                move.b     D1, [A0 + D0.w + 0x5]
000065B4  2F01                     move.l     -[A7], D1
000065B6  4EAD 095A                jsr        [A5 + 0x95A /* export_295, CODE:16 @ 00001CB8 */]
000065BA  3D40 FFEC                move.w     [A6 - 0x14], D0
000065BE  4FEF 0014                lea.l      A7, [A7 + 0x14]
000065C2  6700 0156                beq        +0x158 /* 0000671A */
000065C6  4887                     ext.w      D7
000065C8  2007                     move.l     D0, D7
000065CA  C1FC 0044                muls.w     D0, 0x44 /* 'D' */
000065CE  204D                     movea.l    A0, A5
000065D0  D1FC FFFD AFAE           add.l      A0, 0xFFFDAFAE
000065D6  31AE FFEC 0040           move.w     [A0 + D0.w + 0x40], [A6 - 0x14]
000065DC  49C7                     lea.l      A4, D7
000065DE  2F07                     move.l     -[A7], D7
000065E0  4EBA E536                jsr        [PC - 0x1ACA /* 00004B18 */]
000065E4  2204                     move.l     D1, D4
000065E6  C3FC 003A                muls.w     D1, 0x3A /* ':' */
000065EA  204D                     movea.l    A0, A5
000065EC  D1FC FFFE 9F9C           add.l      A0, 0xFFFE9F9C
000065F2  3180 1022                move.w     [A0 + D1.w + 0x22], D0
000065F6  2005                     move.l     D0, D5
000065F8  C1FC 003A                muls.w     D0, 0x3A /* ':' */
000065FC  204D                     movea.l    A0, A5
000065FE  D1FC FFFE 9F9C           add.l      A0, 0xFFFE9F9C
00006604  2204                     move.l     D1, D4
00006606  C3FC 003A                muls.w     D1, 0x3A /* ':' */
0000660A  224D                     movea.l    A1, A5
0000660C  D3FC FFFE 9F9C           add.l      A1, 0xFFFE9F9C
00006612  33B0 0014 1014           move.w     [A1 + D1.w + 0x14], [A0 + D0.w + 0x14]
00006618  7005                     moveq.l    D0, 0x05
0000661A  2F00                     move.l     -[A7], D0
0000661C  4EAD 032A                jsr        [A5 + 0x32A /* export_97, CODE:5 @ 00000560 */]
00006620  2004                     move.l     D0, D4
00006622  C1FC 003A                muls.w     D0, 0x3A /* ':' */
00006626  204D                     movea.l    A0, A5
00006628  D1FC FFFE 9F9C           add.l      A0, 0xFFFE9F9C
0000662E  11BC 0001 002C           move.b     [A0 + D0.w + 0x2C], 0x1
00006634  2006                     move.l     D0, D6
00006636  C1FC 003A                muls.w     D0, 0x3A /* ':' */
0000663A  204D                     movea.l    A0, A5
0000663C  D1FC FFFE 9F9C           add.l      A0, 0xFFFE9F9C
00006642  4230 002C                clr.b      [A0 + D0.w + 0x2C]
00006646  4887                     ext.w      D7
00006648  2007                     move.l     D0, D7
0000664A  C1FC 0044                muls.w     D0, 0x44 /* 'D' */
0000664E  204D                     movea.l    A0, A5
00006650  D1FC FFFD AFAE           add.l      A0, 0xFFFDAFAE
00006656  1030 000E                move.b     D0, [A0 + D0.w + 0xE]
0000665A  4880                     ext.w      D0
0000665C  D07C 00A8                add.w      D0, 0xA8
00006660  2204                     move.l     D1, D4
00006662  C3FC 003A                muls.w     D1, 0x3A /* ':' */
00006666  204D                     movea.l    A0, A5
00006668  D1FC FFFE 9F9C           add.l      A0, 0xFFFE9F9C
0000666E  3180 1024                move.w     [A0 + D1.w + 0x24], D0
00006672  4887                     ext.w      D7
00006674  2007                     move.l     D0, D7
00006676  C1FC 0044                muls.w     D0, 0x44 /* 'D' */
0000667A  204D                     movea.l    A0, A5
0000667C  D1FC FFFD AFAE           add.l      A0, 0xFFFDAFAE
00006682  1030 000E                move.b     D0, [A0 + D0.w + 0xE]
00006686  4880                     ext.w      D0
00006688  C1FC 0012                muls.w     D0, 0x12
0000668C  204D                     movea.l    A0, A5
0000668E  D1FC FFFE 9AE4           add.l      A0, 0xFFFE9AE4
00006694  D0C0                     add.w      A0, D0
00006696  2004                     move.l     D0, D4
00006698  C1FC 003A                muls.w     D0, 0x3A /* ':' */
0000669C  224D                     movea.l    A1, A5
0000669E  D3FC FFFE 9F9C           add.l      A1, 0xFFFE9F9C
000066A4  2388 0028                move.l     [A1 + D0.w + 0x28], A0
000066A8  486E FFF0                pea.l      [A6 - 0x10]
000066AC  486E FFEE                pea.l      [A6 - 0x12]
000066B0  302E FFEC                move.w     D0, [A6 - 0x14]
000066B4  48C0                     ext.l      D0
000066B6  2F00                     move.l     -[A7], D0
000066B8  4EAD 0972                jsr        [A5 + 0x972 /* export_298, CODE:16 @ 0000221E */]
000066BC  302E FFF0                move.w     D0, [A6 - 0x10]
000066C0  48C0                     ext.l      D0
000066C2  2F00                     move.l     -[A7], D0
000066C4  302E FFEE                move.w     D0, [A6 - 0x12]
000066C8  48C0                     ext.l      D0
000066CA  2F00                     move.l     -[A7], D0
000066CC  48C4                     ext.l      D4
000066CE  2F04                     move.l     -[A7], D4
000066D0  4EAD 055A                jsr        [A5 + 0x55A /* export_167, CODE:10 @ 00000348 */]
000066D4  2004                     move.l     D0, D4
000066D6  C1FC 003A                muls.w     D0, 0x3A /* ':' */
000066DA  204D                     movea.l    A0, A5
000066DC  D1FC FFFE 9F9C           add.l      A0, 0xFFFE9F9C
000066E2  0070 1000 0002           ori.w      [A0 + D0.w + 0x2], 0x1000
000066E8  2004                     move.l     D0, D4
000066EA  C1FC 003A                muls.w     D0, 0x3A /* ':' */
000066EE  204D                     movea.l    A0, A5
000066F0  D1FC FFFE 9F9C           add.l      A0, 0xFFFE9F9C
000066F6  31AE FFEC 002E           move.w     [A0 + D0.w + 0x2E], [A6 - 0x14]
000066FC  4887                     ext.w      D7
000066FE  2007                     move.l     D0, D7
00006700  C1FC 0044                muls.w     D0, 0x44 /* 'D' */
00006704  204D                     movea.l    A0, A5
00006706  D1FC FFFD AFAE           add.l      A0, 0xFFFDAFAE
0000670C  11BC 0006 0003           move.b     [A0 + D0.w + 0x3], 0x6
00006712  4FEF 0020                lea.l      A7, [A7 + 0x20]
00006716  6000 0184                bra        +0x186 /* 0000689C */
label0000671A:
0000671A  49C7                     lea.l      A4, D7
0000671C  2F07                     move.l     -[A7], D7
0000671E  4EBA E1E2                jsr        [PC - 0x1E1E /* 00004902 */]
00006722  2D40 FFF6                move.l     [A6 - 0xA], D0
00006726  2F00                     move.l     -[A7], D0
00006728  4878 00A8                push.l     0xA8
0000672C  4EAD 0602                jsr        [A5 + 0x602 /* export_188, CODE:10 @ 00002E6C */]
00006730  202E FFF6                move.l     D0, [A6 - 0xA]
00006734  204D                     movea.l    A0, A5
00006736  D1FC FFFE BD7A           add.l      A0, 0xFFFEBD7A
0000673C  D190                     add.l      [A0], D0
0000673E  4887                     ext.w      D7
00006740  2007                     move.l     D0, D7
00006742  C1FC 0044                muls.w     D0, 0x44 /* 'D' */
00006746  204D                     movea.l    A0, A5
00006748  D1FC FFFD AFAE           add.l      A0, 0xFFFDAFAE
0000674E  1030 000E                move.b     D0, [A0 + D0.w + 0xE]
00006752  4880                     ext.w      D0
00006754  EF40                     asl        D0.w, 7
00006756  204D                     movea.l    A0, A5
00006758  D1FC FFFD CED4           add.l      A0, 0xFFFDCED4
0000675E  3D70 0020 FFFE           move.w     [A6 - 0x2], [A0 + D0.w + 0x20]
00006764  49C7                     lea.l      A4, D7
00006766  2F07                     move.l     -[A7], D7
00006768  4EBA E3AE                jsr        [PC - 0x1C52 /* 00004B18 */]
0000676C  2204                     move.l     D1, D4
0000676E  C3FC 003A                muls.w     D1, 0x3A /* ':' */
00006772  204D                     movea.l    A0, A5
00006774  D1FC FFFE 9F9C           add.l      A0, 0xFFFE9F9C
0000677A  3180 1022                move.w     [A0 + D1.w + 0x22], D0
0000677E  4887                     ext.w      D7
00006780  2007                     move.l     D0, D7
00006782  C1FC 0044                muls.w     D0, 0x44 /* 'D' */
00006786  204D                     movea.l    A0, A5
00006788  D1FC FFFD AFAE           add.l      A0, 0xFFFDAFAE
0000678E  3030 002A                move.w     D0, [A0 + D0.w + 0x2A]
00006792  C1FC 003A                muls.w     D0, 0x3A /* ':' */
00006796  204D                     movea.l    A0, A5
00006798  D1FC FFFE 9F9C           add.l      A0, 0xFFFE9F9C
0000679E  2204                     move.l     D1, D4
000067A0  C3FC 003A                muls.w     D1, 0x3A /* ':' */
000067A4  224D                     movea.l    A1, A5
000067A6  D3FC FFFE 9F9C           add.l      A1, 0xFFFE9F9C
000067AC  33B0 0014 1014           move.w     [A1 + D1.w + 0x14], [A0 + D0.w + 0x14]
000067B2  7005                     moveq.l    D0, 0x05
000067B4  2F00                     move.l     -[A7], D0
000067B6  4EAD 032A                jsr        [A5 + 0x32A /* export_97, CODE:5 @ 00000560 */]
000067BA  2004                     move.l     D0, D4
000067BC  C1FC 003A                muls.w     D0, 0x3A /* ':' */
000067C0  204D                     movea.l    A0, A5
000067C2  D1FC FFFE 9F9C           add.l      A0, 0xFFFE9F9C
000067C8  11BC 0001 002C           move.b     [A0 + D0.w + 0x2C], 0x1
000067CE  2006                     move.l     D0, D6
000067D0  C1FC 003A                muls.w     D0, 0x3A /* ':' */
000067D4  204D                     movea.l    A0, A5
000067D6  D1FC FFFE 9F9C           add.l      A0, 0xFFFE9F9C
000067DC  4230 002C                clr.b      [A0 + D0.w + 0x2C]
000067E0  4887                     ext.w      D7
000067E2  2007                     move.l     D0, D7
000067E4  C1FC 0044                muls.w     D0, 0x44 /* 'D' */
000067E8  204D                     movea.l    A0, A5
000067EA  D1FC FFFD AFAE           add.l      A0, 0xFFFDAFAE
000067F0  1030 000E                move.b     D0, [A0 + D0.w + 0xE]
000067F4  4880                     ext.w      D0
000067F6  D07C 00A8                add.w      D0, 0xA8
000067FA  2204                     move.l     D1, D4
000067FC  C3FC 003A                muls.w     D1, 0x3A /* ':' */
00006800  204D                     movea.l    A0, A5
00006802  D1FC FFFE 9F9C           add.l      A0, 0xFFFE9F9C
00006808  3180 1024                move.w     [A0 + D1.w + 0x24], D0
0000680C  4887                     ext.w      D7
0000680E  2007                     move.l     D0, D7
00006810  C1FC 0044                muls.w     D0, 0x44 /* 'D' */
00006814  204D                     movea.l    A0, A5
00006816  D1FC FFFD AFAE           add.l      A0, 0xFFFDAFAE
0000681C  1030 000E                move.b     D0, [A0 + D0.w + 0xE]
00006820  4880                     ext.w      D0
00006822  C1FC 0012                muls.w     D0, 0x12
00006826  204D                     movea.l    A0, A5
00006828  D1FC FFFE 9AE4           add.l      A0, 0xFFFE9AE4
0000682E  D0C0                     add.w      A0, D0
00006830  2004                     move.l     D0, D4
00006832  C1FC 003A                muls.w     D0, 0x3A /* ':' */
00006836  224D                     movea.l    A1, A5
00006838  D3FC FFFE 9F9C           add.l      A1, 0xFFFE9F9C
0000683E  2388 0028                move.l     [A1 + D0.w + 0x28], A0
00006842  204D                     movea.l    A0, A5
00006844  D1FC FFFF 0440           add.l      A0, 0xFFFF0440
0000684A  3010                     move.w     D0, [A0]
0000684C  48C0                     ext.l      D0
0000684E  E788                     lsl        D0, 3
00006850  48C0                     ext.l      D0
00006852  2F00                     move.l     -[A7], D0
00006854  204D                     movea.l    A0, A5
00006856  D1FC FFFF 0442           add.l      A0, 0xFFFF0442
0000685C  3010                     move.w     D0, [A0]
0000685E  48C0                     ext.l      D0
00006860  E788                     lsl        D0, 3
00006862  48C0                     ext.l      D0
00006864  2F00                     move.l     -[A7], D0
00006866  48C4                     ext.l      D4
00006868  2F04                     move.l     -[A7], D4
0000686A  4EAD 055A                jsr        [A5 + 0x55A /* export_167, CODE:10 @ 00000348 */]
0000686E  2004                     move.l     D0, D4
00006870  C1FC 003A                muls.w     D0, 0x3A /* ':' */
00006874  204D                     movea.l    A0, A5
00006876  D1FC FFFE 9F9C           add.l      A0, 0xFFFE9F9C
0000687C  0070 1000 0002           ori.w      [A0 + D0.w + 0x2], 0x1000
00006882  4887                     ext.w      D7
00006884  2007                     move.l     D0, D7
00006886  C1FC 0044                muls.w     D0, 0x44 /* 'D' */
0000688A  204D                     movea.l    A0, A5
0000688C  D1FC FFFD AFAE           add.l      A0, 0xFFFDAFAE
00006892  11BC 0007 0003           move.b     [A0 + D0.w + 0x3], 0x7
00006898  4FEF 0020                lea.l      A7, [A7 + 0x20]
label0000689C:
0000689C  2006                     move.l     D0, D6
0000689E  C1FC 003A                muls.w     D0, 0x3A /* ':' */
000068A2  204D                     movea.l    A0, A5
000068A4  D1FC FFFE 9F9C           add.l      A0, 0xFFFE9F9C
000068AA  1030 0035                move.b     D0, [A0 + D0.w + 0x35]
000068AE  49C0                     lea.l      A4, D0
000068B0  2F00                     move.l     -[A7], D0
000068B2  2006                     move.l     D0, D6
000068B4  C1FC 003A                muls.w     D0, 0x3A /* ':' */
000068B8  204D                     movea.l    A0, A5
000068BA  D1FC FFFE 9F9C           add.l      A0, 0xFFFE9F9C
000068C0  1030 0034                move.b     D0, [A0 + D0.w + 0x34]
000068C4  49C0                     lea.l      A4, D0
000068C6  2F00                     move.l     -[A7], D0
000068C8  48C5                     ext.l      D5
000068CA  2F05                     move.l     -[A7], D5
000068CC  4EAD 055A                jsr        [A5 + 0x55A /* export_167, CODE:10 @ 00000348 */]
000068D0  2005                     move.l     D0, D5
000068D2  C1FC 003A                muls.w     D0, 0x3A /* ':' */
000068D6  204D                     movea.l    A0, A5
000068D8  D1FC FFFE 9F9C           add.l      A0, 0xFFFE9F9C
000068DE  0070 0100 0002           ori.w      [A0 + D0.w + 0x2], 0x100
000068E4  4887                     ext.w      D7
000068E6  2007                     move.l     D0, D7
000068E8  C1FC 0044                muls.w     D0, 0x44 /* 'D' */
000068EC  204D                     movea.l    A0, A5
000068EE  D1FC FFFD AFAE           add.l      A0, 0xFFFDAFAE
000068F4  4270 002A                clr.w      [A0 + D0.w + 0x2A]
000068F8  4887                     ext.w      D7
000068FA  2007                     move.l     D0, D7
000068FC  C1FC 0044                muls.w     D0, 0x44 /* 'D' */
00006900  204D                     movea.l    A0, A5
00006902  D1FC FFFD AFAE           add.l      A0, 0xFFFDAFAE
00006908  7206                     moveq.l    D1, 0x06
0000690A  B230 0003                cmp.b      D1, [A0 + D0.w + 0x3]
0000690E  4FEF 000C                lea.l      A7, [A7 + 0xC]
00006912  6700 013C                beq        +0x13E /* 00006A50 */
00006916  4887                     ext.w      D7
00006918  2007                     move.l     D0, D7
0000691A  C1FC 0044                muls.w     D0, 0x44 /* 'D' */
0000691E  204D                     movea.l    A0, A5
00006920  D1FC FFFD AFAE           add.l      A0, 0xFFFDAFAE
00006926  7207                     moveq.l    D1, 0x07
00006928  B230 0003                cmp.b      D1, [A0 + D0.w + 0x3]
0000692C  6700 0122                beq        +0x124 /* 00006A50 */
00006930  4887                     ext.w      D7
00006932  2007                     move.l     D0, D7
00006934  C1FC 0044                muls.w     D0, 0x44 /* 'D' */
00006938  204D                     movea.l    A0, A5
0000693A  D1FC FFFD AFAE           add.l      A0, 0xFFFDAFAE
00006940  4230 0003                clr.b      [A0 + D0.w + 0x3]
00006944  4887                     ext.w      D7
00006946  2007                     move.l     D0, D7
00006948  C1FC 0044                muls.w     D0, 0x44 /* 'D' */
0000694C  204D                     movea.l    A0, A5
0000694E  D1FC FFFD AFAE           add.l      A0, 0xFFFDAFAE
00006954  4270 0026                clr.w      [A0 + D0.w + 0x26]
00006958  4887                     ext.w      D7
0000695A  2007                     move.l     D0, D7
0000695C  C1FC 0044                muls.w     D0, 0x44 /* 'D' */
00006960  204D                     movea.l    A0, A5
00006962  D1FC FFFD AFAE           add.l      A0, 0xFFFDAFAE
00006968  4270 0028                clr.w      [A0 + D0.w + 0x28]
0000696C  4887                     ext.w      D7
0000696E  2007                     move.l     D0, D7
00006970  C1FC 0044                muls.w     D0, 0x44 /* 'D' */
00006974  204D                     movea.l    A0, A5
00006976  D1FC FFFD AFAE           add.l      A0, 0xFFFDAFAE
0000697C  4270 0012                clr.w      [A0 + D0.w + 0x12]
00006980  4887                     ext.w      D7
00006982  2007                     move.l     D0, D7
00006984  C1FC 0044                muls.w     D0, 0x44 /* 'D' */
00006988  204D                     movea.l    A0, A5
0000698A  D1FC FFFD AFAE           add.l      A0, 0xFFFDAFAE
00006990  4230 0021                clr.b      [A0 + D0.w + 0x21]
00006994  224D                     movea.l    A1, A5
00006996  D3FC FFFF 7868           add.l      A1, 0xFFFF7868
0000699C  2051                     movea.l    A0, [A1]
0000699E  2668 0128                movea.l    A3, [A0 + 0x128]
000069A2  2F2B 00D0                move.l     -[A7], [A3 + 0xD0]
000069A6  4EAD 0DBA                jsr        [A5 + 0xDBA /* export_435, CODE:20 @ 000044AC */]
000069AA  4887                     ext.w      D7
000069AC  2007                     move.l     D0, D7
000069AE  C1FC 0044                muls.w     D0, 0x44 /* 'D' */
000069B2  204D                     movea.l    A0, A5
000069B4  D1FC FFFD AFAE           add.l      A0, 0xFFFDAFAE
000069BA  1030 000E                move.b     D0, [A0 + D0.w + 0xE]
000069BE  4880                     ext.w      D0
000069C0  EF40                     asl        D0.w, 7
000069C2  204D                     movea.l    A0, A5
000069C4  D1FC FFFD CED4           add.l      A0, 0xFFFDCED4
000069CA  7200                     moveq.l    D1, 0x00
000069CC  1230 003E                move.b     D1, [A0 + D0.w + 0x3E]
000069D0  4A81                     tst.l      D1
000069D2  0801 0000                btst.b     D1, 0x0
000069D6  584F                     addq.w     A7, 4
000069D8  674E                     beq        +0x50 /* 00006A28 */
000069DA  4887                     ext.w      D7
000069DC  2007                     move.l     D0, D7
000069DE  C1FC 0044                muls.w     D0, 0x44 /* 'D' */
000069E2  204D                     movea.l    A0, A5
000069E4  D1FC FFFD AFAE           add.l      A0, 0xFFFDAFAE
000069EA  1030 000E                move.b     D0, [A0 + D0.w + 0xE]
000069EE  4880                     ext.w      D0
000069F0  EF40                     asl        D0.w, 7
000069F2  204D                     movea.l    A0, A5
000069F4  D1FC FFFD CED4           add.l      A0, 0xFFFDCED4
000069FA  4887                     ext.w      D7
000069FC  2207                     move.l     D1, D7
000069FE  C3FC 0044                muls.w     D1, 0x44 /* 'D' */
00006A02  224D                     movea.l    A1, A5
00006A04  D3FC FFFD AFAE           add.l      A1, 0xFFFDAFAE
00006A0A  13B0 0012 1022           move.b     [A1 + D1.w + 0x22], [A0 + D0.w + 0x12]
00006A10  4887                     ext.w      D7
00006A12  2007                     move.l     D0, D7
00006A14  C1FC 0044                muls.w     D0, 0x44 /* 'D' */
00006A18  204D                     movea.l    A0, A5
00006A1A  D1FC FFFD AFAE           add.l      A0, 0xFFFDAFAE
00006A20  11BC 0004 0002           move.b     [A0 + D0.w + 0x2], 0x4
00006A26  6028                     bra        +0x2A /* 00006A50 */
label00006A28:
00006A28  4887                     ext.w      D7
00006A2A  2007                     move.l     D0, D7
00006A2C  C1FC 0044                muls.w     D0, 0x44 /* 'D' */
00006A30  204D                     movea.l    A0, A5
00006A32  D1FC FFFD AFAE           add.l      A0, 0xFFFDAFAE
00006A38  4230 0022                clr.b      [A0 + D0.w + 0x22]
00006A3C  4887                     ext.w      D7
00006A3E  2007                     move.l     D0, D7
00006A40  C1FC 0044                muls.w     D0, 0x44 /* 'D' */
00006A44  204D                     movea.l    A0, A5
00006A46  D1FC FFFD AFAE           add.l      A0, 0xFFFDAFAE
00006A4C  4230 0002                clr.b      [A0 + D0.w + 0x2]
label00006A50:
00006A50  4887                     ext.w      D7
00006A52  2007                     move.l     D0, D7
00006A54  C1FC 0044                muls.w     D0, 0x44 /* 'D' */
00006A58  204D                     movea.l    A0, A5
00006A5A  D1FC FFFD AFAE           add.l      A0, 0xFFFDAFAE
00006A60  0270 FFF9 0006           andi.w     [A0 + D0.w + 0x6], 0xFFF9
00006A66  6000 1642                bra        +0x1644 /* 000080AA */
00006A6A  4887                     ext.w      D7
00006A6C  2007                     move.l     D0, D7
00006A6E  C1FC 0044                muls.w     D0, 0x44 /* 'D' */
00006A72  204D                     movea.l    A0, A5
00006A74  D1FC FFFD AFAE           add.l      A0, 0xFFFDAFAE
00006A7A  3030 002C                move.w     D0, [A0 + D0.w + 0x2C]
00006A7E  C1FC 003A                muls.w     D0, 0x3A /* ':' */
00006A82  204D                     movea.l    A0, A5
00006A84  D1FC FFFE 9F9C           add.l      A0, 0xFFFE9F9C
00006A8A  7200                     moveq.l    D1, 0x00
00006A8C  3230 0002                move.w     D1, [A0 + D0.w + 0x2]
00006A90  7002                     moveq.l    D0, 0x02
00006A92  C041                     and.w      D0, D1
00006A94  6706                     beq        +0x8 /* 00006A9C */
00006A96  7000                     moveq.l    D0, 0x00
00006A98  6000 1612                bra        +0x1614 /* 000080AC */
label00006A9C:
00006A9C  4887                     ext.w      D7
00006A9E  2007                     move.l     D0, D7
00006AA0  C1FC 0044                muls.w     D0, 0x44 /* 'D' */
00006AA4  204D                     movea.l    A0, A5
00006AA6  D1FC FFFD AFAE           add.l      A0, 0xFFFDAFAE
00006AAC  3830 002C                move.w     D4, [A0 + D0.w + 0x2C]
00006AB0  4887                     ext.w      D7
00006AB2  2007                     move.l     D0, D7
00006AB4  C1FC 0044                muls.w     D0, 0x44 /* 'D' */
00006AB8  204D                     movea.l    A0, A5
00006ABA  D1FC FFFD AFAE           add.l      A0, 0xFFFDAFAE
00006AC0  3D70 0040 FFE6           move.w     [A6 - 0x1A], [A0 + D0.w + 0x40]
00006AC6  302E FFE6                move.w     D0, [A6 - 0x1A]
00006ACA  C1FC 0046                muls.w     D0, 0x46 /* 'F' */
00006ACE  204D                     movea.l    A0, A5
00006AD0  D1FC FFFE D880           add.l      A0, 0xFFFED880
00006AD6  7200                     moveq.l    D1, 0x00
00006AD8  1230 0004                move.b     D1, [A0 + D0.w + 0x4]
00006ADC  3D41 FFE8                move.w     [A6 - 0x18], D1
00006AE0  302E FFE6                move.w     D0, [A6 - 0x1A]
00006AE4  C1FC 0046                muls.w     D0, 0x46 /* 'F' */
00006AE8  204D                     movea.l    A0, A5
00006AEA  D1FC FFFE D880           add.l      A0, 0xFFFED880
00006AF0  7200                     moveq.l    D1, 0x00
00006AF2  1230 0005                move.b     D1, [A0 + D0.w + 0x5]
00006AF6  3D41 FFEA                move.w     [A6 - 0x16], D1
00006AFA  2004                     move.l     D0, D4
00006AFC  C1FC 003A                muls.w     D0, 0x3A /* ':' */
00006B00  204D                     movea.l    A0, A5
00006B02  D1FC FFFE 9F9C           add.l      A0, 0xFFFE9F9C
00006B08  7200                     moveq.l    D1, 0x00
00006B0A  3230 0022                move.w     D1, [A0 + D0.w + 0x22]
00006B0E  2F01                     move.l     -[A7], D1
00006B10  2004                     move.l     D0, D4
00006B12  C1FC 003A                muls.w     D0, 0x3A /* ':' */
00006B16  204D                     movea.l    A0, A5
00006B18  D1FC FFFE 9F9C           add.l      A0, 0xFFFE9F9C
00006B1E  7200                     moveq.l    D1, 0x00
00006B20  3230 0024                move.w     D1, [A0 + D0.w + 0x24]
00006B24  EF41                     asl        D1.w, 7
00006B26  204D                     movea.l    A0, A5
00006B28  D1FC FFFD 7AD4           add.l      A0, 0xFFFD7AD4
00006B2E  7000                     moveq.l    D0, 0x00
00006B30  3030 1020                move.w     D0, [A0 + D1.w + 0x20]
00006B34  2F00                     move.l     -[A7], D0
00006B36  2004                     move.l     D0, D4
00006B38  C1FC 003A                muls.w     D0, 0x3A /* ':' */
00006B3C  204D                     movea.l    A0, A5
00006B3E  D1FC FFFE 9F9C           add.l      A0, 0xFFFE9F9C
00006B44  3030 0024                move.w     D0, [A0 + D0.w + 0x24]
00006B48  48C0                     ext.l      D0
00006B4A  2F00                     move.l     -[A7], D0
00006B4C  302E FFEA                move.w     D0, [A6 - 0x16]
00006B50  48C0                     ext.l      D0
00006B52  2F00                     move.l     -[A7], D0
00006B54  302E FFE8                move.w     D0, [A6 - 0x18]
00006B58  48C0                     ext.l      D0
00006B5A  2F00                     move.l     -[A7], D0
00006B5C  4EAD 02AA                jsr        [A5 + 0x2AA /* export_81, CODE:3 @ 00002CEE */]
00006B60  3D40 FFF4                move.w     [A6 - 0xC], D0
00006B64  4FEF 0014                lea.l      A7, [A7 + 0x14]
00006B68  6754                     beq        +0x56 /* 00006BBE */
00006B6A  2004                     move.l     D0, D4
00006B6C  C1FC 003A                muls.w     D0, 0x3A /* ':' */
00006B70  204D                     movea.l    A0, A5
00006B72  D1FC FFFE 9F9C           add.l      A0, 0xFFFE9F9C
00006B78  7200                     moveq.l    D1, 0x00
00006B7A  3230 0024                move.w     D1, [A0 + D0.w + 0x24]
00006B7E  C3FC 0012                muls.w     D1, 0x12
00006B82  204D                     movea.l    A0, A5
00006B84  D1FC FFFE 8F14           add.l      A0, 0xFFFE8F14
00006B8A  3030 1004                move.w     D0, [A0 + D1.w + 0x4]
00006B8E  5270 1004                addq.w     [A0 + D1.w + 0x4], 1
00006B92  2004                     move.l     D0, D4
00006B94  C1FC 003A                muls.w     D0, 0x3A /* ':' */
00006B98  204D                     movea.l    A0, A5
00006B9A  D1FC FFFE 9F9C           add.l      A0, 0xFFFE9F9C
00006BA0  2F30 0028                move.l     -[A7], [A0 + D0.w + 0x28]
00006BA4  302E FFF4                move.w     D0, [A6 - 0xC]
00006BA8  48C0                     ext.l      D0
00006BAA  2F00                     move.l     -[A7], D0
00006BAC  302E FFE6                move.w     D0, [A6 - 0x1A]
00006BB0  48C0                     ext.l      D0
00006BB2  2F00                     move.l     -[A7], D0
00006BB4  4EAD 0962                jsr        [A5 + 0x962 /* export_296, CODE:16 @ 00001F28 */]
00006BB8  4FEF 000C                lea.l      A7, [A7 + 0xC]
00006BBC  604E                     bra        +0x50 /* 00006C0C */
label00006BBE:
00006BBE  4887                     ext.w      D7
00006BC0  2007                     move.l     D0, D7
00006BC2  C1FC 0044                muls.w     D0, 0x44 /* 'D' */
00006BC6  204D                     movea.l    A0, A5
00006BC8  D1FC FFFD AFAE           add.l      A0, 0xFFFDAFAE
00006BCE  1030 000E                move.b     D0, [A0 + D0.w + 0xE]
00006BD2  4880                     ext.w      D0
00006BD4  EF40                     asl        D0.w, 7
00006BD6  204D                     movea.l    A0, A5
00006BD8  D1FC FFFD CED4           add.l      A0, 0xFFFDCED4
00006BDE  3D70 0020 FFFE           move.w     [A6 - 0x2], [A0 + D0.w + 0x20]
00006BE4  49C7                     lea.l      A4, D7
00006BE6  2F07                     move.l     -[A7], D7
00006BE8  4EBA DD18                jsr        [PC - 0x22E8 /* 00004902 */]
00006BEC  2D40 FFF6                move.l     [A6 - 0xA], D0
00006BF0  2F00                     move.l     -[A7], D0
00006BF2  4878 00A8                push.l     0xA8
00006BF6  4EAD 0602                jsr        [A5 + 0x602 /* export_188, CODE:10 @ 00002E6C */]
00006BFA  202E FFF6                move.l     D0, [A6 - 0xA]
00006BFE  204D                     movea.l    A0, A5
00006C00  D1FC FFFE BD7A           add.l      A0, 0xFFFEBD7A
00006C06  D190                     add.l      [A0], D0
00006C08  4FEF 000C                lea.l      A7, [A7 + 0xC]
label00006C0C:
00006C0C  4887                     ext.w      D7
00006C0E  2007                     move.l     D0, D7
00006C10  C1FC 0044                muls.w     D0, 0x44 /* 'D' */
00006C14  204D                     movea.l    A0, A5
00006C16  D1FC FFFD AFAE           add.l      A0, 0xFFFDAFAE
00006C1C  4270 0040                clr.w      [A0 + D0.w + 0x40]
00006C20  2004                     move.l     D0, D4
00006C22  C1FC 003A                muls.w     D0, 0x3A /* ':' */
00006C26  204D                     movea.l    A0, A5
00006C28  D1FC FFFE 9F9C           add.l      A0, 0xFFFE9F9C
00006C2E  4270 0022                clr.w      [A0 + D0.w + 0x22]
00006C32  2004                     move.l     D0, D4
00006C34  C1FC 003A                muls.w     D0, 0x3A /* ':' */
00006C38  204D                     movea.l    A0, A5
00006C3A  D1FC FFFE 9F9C           add.l      A0, 0xFFFE9F9C
00006C40  4230 002C                clr.b      [A0 + D0.w + 0x2C]
00006C44  2004                     move.l     D0, D4
00006C46  C1FC 003A                muls.w     D0, 0x3A /* ':' */
00006C4A  204D                     movea.l    A0, A5
00006C4C  D1FC FFFE 9F9C           add.l      A0, 0xFFFE9F9C
00006C52  4270 0024                clr.w      [A0 + D0.w + 0x24]
00006C56  2004                     move.l     D0, D4
00006C58  C1FC 003A                muls.w     D0, 0x3A /* ':' */
00006C5C  204D                     movea.l    A0, A5
00006C5E  D1FC FFFE 9F9C           add.l      A0, 0xFFFE9F9C
00006C64  7200                     moveq.l    D1, 0x00
00006C66  2181 0028                move.l     [A0 + D0.w + 0x28], D1
00006C6A  2004                     move.l     D0, D4
00006C6C  C1FC 003A                muls.w     D0, 0x3A /* ':' */
00006C70  204D                     movea.l    A0, A5
00006C72  D1FC FFFE 9F9C           add.l      A0, 0xFFFE9F9C
00006C78  1030 0035                move.b     D0, [A0 + D0.w + 0x35]
00006C7C  49C0                     lea.l      A4, D0
00006C7E  2F00                     move.l     -[A7], D0
00006C80  2004                     move.l     D0, D4
00006C82  C1FC 003A                muls.w     D0, 0x3A /* ':' */
00006C86  204D                     movea.l    A0, A5
00006C88  D1FC FFFE 9F9C           add.l      A0, 0xFFFE9F9C
00006C8E  1030 0034                move.b     D0, [A0 + D0.w + 0x34]
00006C92  49C0                     lea.l      A4, D0
00006C94  2F00                     move.l     -[A7], D0
00006C96  48C4                     ext.l      D4
00006C98  2F04                     move.l     -[A7], D4
00006C9A  4EAD 055A                jsr        [A5 + 0x55A /* export_167, CODE:10 @ 00000348 */]
00006C9E  2004                     move.l     D0, D4
00006CA0  C1FC 003A                muls.w     D0, 0x3A /* ':' */
00006CA4  204D                     movea.l    A0, A5
00006CA6  D1FC FFFE 9F9C           add.l      A0, 0xFFFE9F9C
00006CAC  0070 0200 0002           ori.w      [A0 + D0.w + 0x2], 0x200
00006CB2  2004                     move.l     D0, D4
00006CB4  C1FC 003A                muls.w     D0, 0x3A /* ':' */
00006CB8  204D                     movea.l    A0, A5
00006CBA  D1FC FFFE 9F9C           add.l      A0, 0xFFFE9F9C
00006CC0  0270 FFF7 0002           andi.w     [A0 + D0.w + 0x2], 0xFFF7
00006CC6  224D                     movea.l    A1, A5
00006CC8  D3FC FFFF 7868           add.l      A1, 0xFFFF7868
00006CCE  2051                     movea.l    A0, [A1]
00006CD0  2668 0128                movea.l    A3, [A0 + 0x128]
00006CD4  2F2B 00D0                move.l     -[A7], [A3 + 0xD0]
00006CD8  4EAD 0DBA                jsr        [A5 + 0xDBA /* export_435, CODE:20 @ 000044AC */]
00006CDC  4887                     ext.w      D7
00006CDE  2007                     move.l     D0, D7
00006CE0  C1FC 0044                muls.w     D0, 0x44 /* 'D' */
00006CE4  204D                     movea.l    A0, A5
00006CE6  D1FC FFFD AFAE           add.l      A0, 0xFFFDAFAE
00006CEC  4230 0003                clr.b      [A0 + D0.w + 0x3]
00006CF0  4887                     ext.w      D7
00006CF2  2007                     move.l     D0, D7
00006CF4  C1FC 0044                muls.w     D0, 0x44 /* 'D' */
00006CF8  204D                     movea.l    A0, A5
00006CFA  D1FC FFFD AFAE           add.l      A0, 0xFFFDAFAE
00006D00  4270 002C                clr.w      [A0 + D0.w + 0x2C]
00006D04  4887                     ext.w      D7
00006D06  2007                     move.l     D0, D7
00006D08  C1FC 0044                muls.w     D0, 0x44 /* 'D' */
00006D0C  204D                     movea.l    A0, A5
00006D0E  D1FC FFFD AFAE           add.l      A0, 0xFFFDAFAE
00006D14  4270 0026                clr.w      [A0 + D0.w + 0x26]
00006D18  4887                     ext.w      D7
00006D1A  2007                     move.l     D0, D7
00006D1C  C1FC 0044                muls.w     D0, 0x44 /* 'D' */
00006D20  204D                     movea.l    A0, A5
00006D22  D1FC FFFD AFAE           add.l      A0, 0xFFFDAFAE
00006D28  4270 0028                clr.w      [A0 + D0.w + 0x28]
00006D2C  4887                     ext.w      D7
00006D2E  2007                     move.l     D0, D7
00006D30  C1FC 0044                muls.w     D0, 0x44 /* 'D' */
00006D34  204D                     movea.l    A0, A5
00006D36  D1FC FFFD AFAE           add.l      A0, 0xFFFDAFAE
00006D3C  4270 0012                clr.w      [A0 + D0.w + 0x12]
00006D40  4887                     ext.w      D7
00006D42  2007                     move.l     D0, D7
00006D44  C1FC 0044                muls.w     D0, 0x44 /* 'D' */
00006D48  204D                     movea.l    A0, A5
00006D4A  D1FC FFFD AFAE           add.l      A0, 0xFFFDAFAE
00006D50  4230 0021                clr.b      [A0 + D0.w + 0x21]
00006D54  4887                     ext.w      D7
00006D56  2007                     move.l     D0, D7
00006D58  C1FC 0044                muls.w     D0, 0x44 /* 'D' */
00006D5C  204D                     movea.l    A0, A5
00006D5E  D1FC FFFD AFAE           add.l      A0, 0xFFFDAFAE
00006D64  1030 000E                move.b     D0, [A0 + D0.w + 0xE]
00006D68  4880                     ext.w      D0
00006D6A  EF40                     asl        D0.w, 7
00006D6C  204D                     movea.l    A0, A5
00006D6E  D1FC FFFD CED4           add.l      A0, 0xFFFDCED4
00006D74  7200                     moveq.l    D1, 0x00
00006D76  1230 003E                move.b     D1, [A0 + D0.w + 0x3E]
00006D7A  4A81                     tst.l      D1
00006D7C  0801 0000                btst.b     D1, 0x0
00006D80  4FEF 0010                lea.l      A7, [A7 + 0x10]
00006D84  6750                     beq        +0x52 /* 00006DD6 */
00006D86  4887                     ext.w      D7
00006D88  2007                     move.l     D0, D7
00006D8A  C1FC 0044                muls.w     D0, 0x44 /* 'D' */
00006D8E  204D                     movea.l    A0, A5
00006D90  D1FC FFFD AFAE           add.l      A0, 0xFFFDAFAE
00006D96  1030 000E                move.b     D0, [A0 + D0.w + 0xE]
00006D9A  4880                     ext.w      D0
00006D9C  EF40                     asl        D0.w, 7
00006D9E  204D                     movea.l    A0, A5
00006DA0  D1FC FFFD CED4           add.l      A0, 0xFFFDCED4
00006DA6  4887                     ext.w      D7
00006DA8  2207                     move.l     D1, D7
00006DAA  C3FC 0044                muls.w     D1, 0x44 /* 'D' */
00006DAE  224D                     movea.l    A1, A5
00006DB0  D3FC FFFD AFAE           add.l      A1, 0xFFFDAFAE
00006DB6  13B0 0012 1022           move.b     [A1 + D1.w + 0x22], [A0 + D0.w + 0x12]
00006DBC  4887                     ext.w      D7
00006DBE  2007                     move.l     D0, D7
00006DC0  C1FC 0044                muls.w     D0, 0x44 /* 'D' */
00006DC4  204D                     movea.l    A0, A5
00006DC6  D1FC FFFD AFAE           add.l      A0, 0xFFFDAFAE
00006DCC  11BC 0004 0002           move.b     [A0 + D0.w + 0x2], 0x4
00006DD2  6000 12D6                bra        +0x12D8 /* 000080AA */
label00006DD6:
00006DD6  4887                     ext.w      D7
00006DD8  2007                     move.l     D0, D7
00006DDA  C1FC 0044                muls.w     D0, 0x44 /* 'D' */
00006DDE  204D                     movea.l    A0, A5
00006DE0  D1FC FFFD AFAE           add.l      A0, 0xFFFDAFAE
00006DE6  4230 0022                clr.b      [A0 + D0.w + 0x22]
00006DEA  4887                     ext.w      D7
00006DEC  2007                     move.l     D0, D7
00006DEE  C1FC 0044                muls.w     D0, 0x44 /* 'D' */
00006DF2  204D                     movea.l    A0, A5
00006DF4  D1FC FFFD AFAE           add.l      A0, 0xFFFDAFAE
00006DFA  4230 0002                clr.b      [A0 + D0.w + 0x2]
00006DFE  6000 12AA                bra        +0x12AC /* 000080AA */
00006E02  4887                     ext.w      D7
00006E04  2007                     move.l     D0, D7
00006E06  C1FC 0044                muls.w     D0, 0x44 /* 'D' */
00006E0A  204D                     movea.l    A0, A5
00006E0C  D1FC FFFD AFAE           add.l      A0, 0xFFFDAFAE
00006E12  3030 002C                move.w     D0, [A0 + D0.w + 0x2C]
00006E16  C1FC 003A                muls.w     D0, 0x3A /* ':' */
00006E1A  204D                     movea.l    A0, A5
00006E1C  D1FC FFFE 9F9C           add.l      A0, 0xFFFE9F9C
00006E22  7200                     moveq.l    D1, 0x00
00006E24  3230 0002                move.w     D1, [A0 + D0.w + 0x2]
00006E28  7002                     moveq.l    D0, 0x02
00006E2A  C041                     and.w      D0, D1
00006E2C  6706                     beq        +0x8 /* 00006E34 */
00006E2E  7000                     moveq.l    D0, 0x00
00006E30  6000 127A                bra        +0x127C /* 000080AC */
label00006E34:
00006E34  4887                     ext.w      D7
00006E36  2007                     move.l     D0, D7
00006E38  C1FC 0044                muls.w     D0, 0x44 /* 'D' */
00006E3C  204D                     movea.l    A0, A5
00006E3E  D1FC FFFD AFAE           add.l      A0, 0xFFFDAFAE
00006E44  3830 002C                move.w     D4, [A0 + D0.w + 0x2C]
00006E48  2006                     move.l     D0, D6
00006E4A  C1FC 003A                muls.w     D0, 0x3A /* ':' */
00006E4E  204D                     movea.l    A0, A5
00006E50  D1FC FFFE 9F9C           add.l      A0, 0xFFFE9F9C
00006E56  4230 002C                clr.b      [A0 + D0.w + 0x2C]
00006E5A  2004                     move.l     D0, D4
00006E5C  C1FC 003A                muls.w     D0, 0x3A /* ':' */
00006E60  204D                     movea.l    A0, A5
00006E62  D1FC FFFE 9F9C           add.l      A0, 0xFFFE9F9C
00006E68  4230 002C                clr.b      [A0 + D0.w + 0x2C]
00006E6C  2004                     move.l     D0, D4
00006E6E  C1FC 003A                muls.w     D0, 0x3A /* ':' */
00006E72  204D                     movea.l    A0, A5
00006E74  D1FC FFFE 9F9C           add.l      A0, 0xFFFE9F9C
00006E7A  0270 FFF7 0002           andi.w     [A0 + D0.w + 0x2], 0xFFF7
00006E80  2004                     move.l     D0, D4
00006E82  C1FC 003A                muls.w     D0, 0x3A /* ':' */
00006E86  204D                     movea.l    A0, A5
00006E88  D1FC FFFE 9F9C           add.l      A0, 0xFFFE9F9C
00006E8E  1030 0035                move.b     D0, [A0 + D0.w + 0x35]
00006E92  49C0                     lea.l      A4, D0
00006E94  2F00                     move.l     -[A7], D0
00006E96  2004                     move.l     D0, D4
00006E98  C1FC 003A                muls.w     D0, 0x3A /* ':' */
00006E9C  204D                     movea.l    A0, A5
00006E9E  D1FC FFFE 9F9C           add.l      A0, 0xFFFE9F9C
00006EA4  1030 0034                move.b     D0, [A0 + D0.w + 0x34]
00006EA8  49C0                     lea.l      A4, D0
00006EAA  2F00                     move.l     -[A7], D0
00006EAC  48C4                     ext.l      D4
00006EAE  2F04                     move.l     -[A7], D4
00006EB0  4EAD 055A                jsr        [A5 + 0x55A /* export_167, CODE:10 @ 00000348 */]
00006EB4  2004                     move.l     D0, D4
00006EB6  C1FC 003A                muls.w     D0, 0x3A /* ':' */
00006EBA  204D                     movea.l    A0, A5
00006EBC  D1FC FFFE 9F9C           add.l      A0, 0xFFFE9F9C
00006EC2  0070 0200 0002           ori.w      [A0 + D0.w + 0x2], 0x200
00006EC8  4887                     ext.w      D7
00006ECA  2007                     move.l     D0, D7
00006ECC  C1FC 0044                muls.w     D0, 0x44 /* 'D' */
00006ED0  204D                     movea.l    A0, A5
00006ED2  D1FC FFFD AFAE           add.l      A0, 0xFFFDAFAE
00006ED8  4230 0003                clr.b      [A0 + D0.w + 0x3]
00006EDC  4887                     ext.w      D7
00006EDE  2007                     move.l     D0, D7
00006EE0  C1FC 0044                muls.w     D0, 0x44 /* 'D' */
00006EE4  204D                     movea.l    A0, A5
00006EE6  D1FC FFFD AFAE           add.l      A0, 0xFFFDAFAE
00006EEC  4270 002C                clr.w      [A0 + D0.w + 0x2C]
00006EF0  4887                     ext.w      D7
00006EF2  2007                     move.l     D0, D7
00006EF4  C1FC 0044                muls.w     D0, 0x44 /* 'D' */
00006EF8  204D                     movea.l    A0, A5
00006EFA  D1FC FFFD AFAE           add.l      A0, 0xFFFDAFAE
00006F00  4270 0026                clr.w      [A0 + D0.w + 0x26]
00006F04  4887                     ext.w      D7
00006F06  2007                     move.l     D0, D7
00006F08  C1FC 0044                muls.w     D0, 0x44 /* 'D' */
00006F0C  204D                     movea.l    A0, A5
00006F0E  D1FC FFFD AFAE           add.l      A0, 0xFFFDAFAE
00006F14  4270 0028                clr.w      [A0 + D0.w + 0x28]
00006F18  4887                     ext.w      D7
00006F1A  2007                     move.l     D0, D7
00006F1C  C1FC 0044                muls.w     D0, 0x44 /* 'D' */
00006F20  204D                     movea.l    A0, A5
00006F22  D1FC FFFD AFAE           add.l      A0, 0xFFFDAFAE
00006F28  4270 0012                clr.w      [A0 + D0.w + 0x12]
00006F2C  4887                     ext.w      D7
00006F2E  2007                     move.l     D0, D7
00006F30  C1FC 0044                muls.w     D0, 0x44 /* 'D' */
00006F34  204D                     movea.l    A0, A5
00006F36  D1FC FFFD AFAE           add.l      A0, 0xFFFDAFAE
00006F3C  4230 0021                clr.b      [A0 + D0.w + 0x21]
00006F40  4887                     ext.w      D7
00006F42  2007                     move.l     D0, D7
00006F44  C1FC 0044                muls.w     D0, 0x44 /* 'D' */
00006F48  204D                     movea.l    A0, A5
00006F4A  D1FC FFFD AFAE           add.l      A0, 0xFFFDAFAE
00006F50  1030 000E                move.b     D0, [A0 + D0.w + 0xE]
00006F54  4880                     ext.w      D0
00006F56  EF40                     asl        D0.w, 7
00006F58  204D                     movea.l    A0, A5
00006F5A  D1FC FFFD CED4           add.l      A0, 0xFFFDCED4
00006F60  7200                     moveq.l    D1, 0x00
00006F62  1230 003E                move.b     D1, [A0 + D0.w + 0x3E]
00006F66  4A81                     tst.l      D1
00006F68  0801 0000                btst.b     D1, 0x0
00006F6C  4FEF 000C                lea.l      A7, [A7 + 0xC]
00006F70  6750                     beq        +0x52 /* 00006FC2 */
00006F72  4887                     ext.w      D7
00006F74  2007                     move.l     D0, D7
00006F76  C1FC 0044                muls.w     D0, 0x44 /* 'D' */
00006F7A  204D                     movea.l    A0, A5
00006F7C  D1FC FFFD AFAE           add.l      A0, 0xFFFDAFAE
00006F82  1030 000E                move.b     D0, [A0 + D0.w + 0xE]
00006F86  4880                     ext.w      D0
00006F88  EF40                     asl        D0.w, 7
00006F8A  204D                     movea.l    A0, A5
00006F8C  D1FC FFFD CED4           add.l      A0, 0xFFFDCED4
00006F92  4887                     ext.w      D7
00006F94  2207                     move.l     D1, D7
00006F96  C3FC 0044                muls.w     D1, 0x44 /* 'D' */
00006F9A  224D                     movea.l    A1, A5
00006F9C  D3FC FFFD AFAE           add.l      A1, 0xFFFDAFAE
00006FA2  13B0 0012 1022           move.b     [A1 + D1.w + 0x22], [A0 + D0.w + 0x12]
00006FA8  4887                     ext.w      D7
00006FAA  2007                     move.l     D0, D7
00006FAC  C1FC 0044                muls.w     D0, 0x44 /* 'D' */
00006FB0  204D                     movea.l    A0, A5
00006FB2  D1FC FFFD AFAE           add.l      A0, 0xFFFDAFAE
00006FB8  11BC 0004 0002           move.b     [A0 + D0.w + 0x2], 0x4
00006FBE  6000 10EA                bra        +0x10EC /* 000080AA */
label00006FC2:
00006FC2  4887                     ext.w      D7
00006FC4  2007                     move.l     D0, D7
00006FC6  C1FC 0044                muls.w     D0, 0x44 /* 'D' */
00006FCA  204D                     movea.l    A0, A5
00006FCC  D1FC FFFD AFAE           add.l      A0, 0xFFFDAFAE
00006FD2  4230 0022                clr.b      [A0 + D0.w + 0x22]
00006FD6  4887                     ext.w      D7
00006FD8  2007                     move.l     D0, D7
00006FDA  C1FC 0044                muls.w     D0, 0x44 /* 'D' */
00006FDE  204D                     movea.l    A0, A5
00006FE0  D1FC FFFD AFAE           add.l      A0, 0xFFFDAFAE
00006FE6  4230 0002                clr.b      [A0 + D0.w + 0x2]
00006FEA  6000 10BE                bra        +0x10C0 /* 000080AA */
00006FEE  4887                     ext.w      D7
00006FF0  2007                     move.l     D0, D7
00006FF2  C1FC 0044                muls.w     D0, 0x44 /* 'D' */
00006FF6  204D                     movea.l    A0, A5
00006FF8  D1FC FFFD AFAE           add.l      A0, 0xFFFDAFAE
00006FFE  7200                     moveq.l    D1, 0x00
00007000  3230 003A                move.w     D1, [A0 + D0.w + 0x3A]
00007004  2F01                     move.l     -[A7], D1
00007006  4878 01F4                push.l     0x1F4
0000700A  4EAD 05FA                jsr        [A5 + 0x5FA /* export_187, CODE:10 @ 00002C4A */]
0000700E  2C00                     move.l     D6, D0
00007010  504F                     addq.w     A7, 8
00007012  673E                     beq        +0x40 /* 00007052 */
00007014  4887                     ext.w      D7
00007016  2007                     move.l     D0, D7
00007018  C1FC 0044                muls.w     D0, 0x44 /* 'D' */
0000701C  204D                     movea.l    A0, A5
0000701E  D1FC FFFD AFAE           add.l      A0, 0xFFFDAFAE
00007024  11BC 000B 0003           move.b     [A0 + D0.w + 0x3], 0xB
0000702A  204D                     movea.l    A0, A5
0000702C  D1FC FFFE 9848           add.l      A0, 0xFFFE9848
00007032  30BC 0003                move.w     [A0], 0x3
00007036  204D                     movea.l    A0, A5
00007038  D1FC FFFE 9844           add.l      A0, 0xFFFE9844
0000703E  30BC 0003                move.w     [A0], 0x3
00007042  204D                     movea.l    A0, A5
00007044  D1FC FFFE 9846           add.l      A0, 0xFFFE9846
0000704A  30BC 0003                move.w     [A0], 0x3
0000704E  6000 105A                bra        +0x105C /* 000080AA */
label00007052:
00007052  703F                     moveq.l    D0, 0x3F
00007054  2F00                     move.l     -[A7], D0
00007056  4EAD 032A                jsr        [A5 + 0x32A /* export_97, CODE:5 @ 00000560 */]
0000705A  584F                     addq.w     A7, 4
0000705C  6000 104C                bra        +0x104E /* 000080AA */
00007060  4887                     ext.w      D7
00007062  2007                     move.l     D0, D7
00007064  C1FC 0044                muls.w     D0, 0x44 /* 'D' */
00007068  204D                     movea.l    A0, A5
0000706A  D1FC FFFD AFAE           add.l      A0, 0xFFFDAFAE
00007070  1030 000B                move.b     D0, [A0 + D0.w + 0xB]
00007074  49C0                     lea.l      A4, D0
00007076  2F00                     move.l     -[A7], D0
00007078  4887                     ext.w      D7
0000707A  2007                     move.l     D0, D7
0000707C  C1FC 0044                muls.w     D0, 0x44 /* 'D' */
00007080  204D                     movea.l    A0, A5
00007082  D1FC FFFD AFAE           add.l      A0, 0xFFFDAFAE
00007088  1030 000A                move.b     D0, [A0 + D0.w + 0xA]
0000708C  49C0                     lea.l      A4, D0
0000708E  2F00                     move.l     -[A7], D0
00007090  7007                     moveq.l    D0, 0x07
00007092  2F00                     move.l     -[A7], D0
00007094  4EAD 05D2                jsr        [A5 + 0x5D2 /* export_182, CODE:10 @ 00002702 */]
00007098  3800                     move.w     D4, D0
0000709A  4FEF 000C                lea.l      A7, [A7 + 0xC]
0000709E  660E                     bne        +0x10 /* 000070AE */
000070A0  701E                     moveq.l    D0, 0x1E
000070A2  2F00                     move.l     -[A7], D0
000070A4  4EAD 032A                jsr        [A5 + 0x32A /* export_97, CODE:5 @ 00000560 */]
000070A8  584F                     addq.w     A7, 4
000070AA  6000 0FFE                bra        +0x1000 /* 000080AA */
label000070AE:
000070AE  2004                     move.l     D0, D4
000070B0  C1FC 003A                muls.w     D0, 0x3A /* ':' */
000070B4  204D                     movea.l    A0, A5
000070B6  D1FC FFFE 9F9C           add.l      A0, 0xFFFE9F9C
000070BC  0070 0008 0002           ori.w      [A0 + D0.w + 0x2], 0x8
000070C2  4887                     ext.w      D7
000070C4  2007                     move.l     D0, D7
000070C6  C1FC 0044                muls.w     D0, 0x44 /* 'D' */
000070CA  204D                     movea.l    A0, A5
000070CC  D1FC FFFD AFAE           add.l      A0, 0xFFFDAFAE
000070D2  3184 002C                move.w     [A0 + D0.w + 0x2C], D4
000070D6  486E FFF0                pea.l      [A6 - 0x10]
000070DA  486E FFEE                pea.l      [A6 - 0x12]
000070DE  49C7                     lea.l      A4, D7
000070E0  2F07                     move.l     -[A7], D7
000070E2  4EAD 053A                jsr        [A5 + 0x53A /* export_163, CODE:9 @ 00004C80 */]
000070E6  302E FFF0                move.w     D0, [A6 - 0x10]
000070EA  48C0                     ext.l      D0
000070EC  2F00                     move.l     -[A7], D0
000070EE  302E FFEE                move.w     D0, [A6 - 0x12]
000070F2  48C0                     ext.l      D0
000070F4  2F00                     move.l     -[A7], D0
000070F6  48C4                     ext.l      D4
000070F8  2F04                     move.l     -[A7], D4
000070FA  4EAD 055A                jsr        [A5 + 0x55A /* export_167, CODE:10 @ 00000348 */]
000070FE  2004                     move.l     D0, D4
00007100  C1FC 003A                muls.w     D0, 0x3A /* ':' */
00007104  204D                     movea.l    A0, A5
00007106  D1FC FFFE 9F9C           add.l      A0, 0xFFFE9F9C
0000710C  0070 1000 0002           ori.w      [A0 + D0.w + 0x2], 0x1000
00007112  4887                     ext.w      D7
00007114  2007                     move.l     D0, D7
00007116  C1FC 0044                muls.w     D0, 0x44 /* 'D' */
0000711A  204D                     movea.l    A0, A5
0000711C  D1FC FFFD AFAE           add.l      A0, 0xFFFDAFAE
00007122  11BC 000C 0003           move.b     [A0 + D0.w + 0x3], 0xC
00007128  4FEF 0018                lea.l      A7, [A7 + 0x18]
0000712C  6000 0F7C                bra        +0xF7E /* 000080AA */
00007130  4887                     ext.w      D7
00007132  2007                     move.l     D0, D7
00007134  C1FC 0044                muls.w     D0, 0x44 /* 'D' */
00007138  204D                     movea.l    A0, A5
0000713A  D1FC FFFD AFAE           add.l      A0, 0xFFFDAFAE
00007140  3030 002C                move.w     D0, [A0 + D0.w + 0x2C]
00007144  C1FC 003A                muls.w     D0, 0x3A /* ':' */
00007148  204D                     movea.l    A0, A5
0000714A  D1FC FFFE 9F9C           add.l      A0, 0xFFFE9F9C
00007150  7200                     moveq.l    D1, 0x00
00007152  3230 0002                move.w     D1, [A0 + D0.w + 0x2]
00007156  7002                     moveq.l    D0, 0x02
00007158  C041                     and.w      D0, D1
0000715A  6706                     beq        +0x8 /* 00007162 */
0000715C  7000                     moveq.l    D0, 0x00
0000715E  6000 0F4C                bra        +0xF4E /* 000080AC */
label00007162:
00007162  4887                     ext.w      D7
00007164  2007                     move.l     D0, D7
00007166  C1FC 0044                muls.w     D0, 0x44 /* 'D' */
0000716A  204D                     movea.l    A0, A5
0000716C  D1FC FFFD AFAE           add.l      A0, 0xFFFDAFAE
00007172  11BC 000D 0003           move.b     [A0 + D0.w + 0x3], 0xD /* '\r' */
00007178  4887                     ext.w      D7
0000717A  2007                     move.l     D0, D7
0000717C  C1FC 0044                muls.w     D0, 0x44 /* 'D' */
00007180  204D                     movea.l    A0, A5
00007182  D1FC FFFD AFAE           add.l      A0, 0xFFFDAFAE
00007188  224D                     movea.l    A1, A5
0000718A  D3FC FFFD CECF           add.l      A1, 0xFFFDCECF
00007190  1191 0032                move.b     [A0 + D0.w + 0x32], [A1]
00007194  4887                     ext.w      D7
00007196  2007                     move.l     D0, D7
00007198  C1FC 0044                muls.w     D0, 0x44 /* 'D' */
0000719C  204D                     movea.l    A0, A5
0000719E  D1FC FFFD AFAE           add.l      A0, 0xFFFDAFAE
000071A4  4270 002E                clr.w      [A0 + D0.w + 0x2E]
000071A8  4245                     clr.w      D5
label000071AA:
000071AA  4246                     clr.w      D6
label000071AC:
000071AC  558F                     subq.l     A7, 2
000071AE  A861                     syscall    Random
000071B0  7007                     moveq.l    D0, 0x07
000071B2  C05F                     and.w      D0, [A7]+
000071B4  7200                     moveq.l    D1, 0x00
000071B6  3200                     move.w     D1, D0
000071B8  0C41 0006                cmpi.w     D1, 0x6
000071BC  6400 018E                bcc        +0x190 /* 0000734C */
000071C0  4887                     ext.w      D7
000071C2  2007                     move.l     D0, D7
000071C4  C1FC 0044                muls.w     D0, 0x44 /* 'D' */
000071C8  204D                     movea.l    A0, A5
000071CA  D1FC FFFD AFAE           add.l      A0, 0xFFFDAFAE
000071D0  1030 000B                move.b     D0, [A0 + D0.w + 0xB]
000071D4  4880                     ext.w      D0
000071D6  D046                     add.w      D0, D6
000071D8  4887                     ext.w      D7
000071DA  2207                     move.l     D1, D7
000071DC  C3FC 0044                muls.w     D1, 0x44 /* 'D' */
000071E0  204D                     movea.l    A0, A5
000071E2  D1FC FFFD AFAE           add.l      A0, 0xFFFDAFAE
000071E8  1230 100A                move.b     D1, [A0 + D1.w + 0xA]
000071EC  4881                     ext.w      D1
000071EE  D245                     add.w      D1, D5
000071F0  C3FC 00C0                muls.w     D1, 0xC0
000071F4  204D                     movea.l    A0, A5
000071F6  D1FC FFFE 42D4           add.l      A0, 0xFFFE42D4
000071FC  D040                     add.w      D0, D0
000071FE  D041                     add.w      D0, D1
00007200  7200                     moveq.l    D1, 0x00
00007202  3230 0000                move.w     D1, [A0 + D0.w]
00007206  303C 0800                move.w     D0, 0x800
0000720A  C041                     and.w      D0, D1
0000720C  6600 013E                bne        +0x140 /* 0000734C */
00007210  4887                     ext.w      D7
00007212  2007                     move.l     D0, D7
00007214  C1FC 0044                muls.w     D0, 0x44 /* 'D' */
00007218  204D                     movea.l    A0, A5
0000721A  D1FC FFFD AFAE           add.l      A0, 0xFFFDAFAE
00007220  1030 000B                move.b     D0, [A0 + D0.w + 0xB]
00007224  4880                     ext.w      D0
00007226  D046                     add.w      D0, D6
00007228  4887                     ext.w      D7
0000722A  2207                     move.l     D1, D7
0000722C  C3FC 0044                muls.w     D1, 0x44 /* 'D' */
00007230  204D                     movea.l    A0, A5
00007232  D1FC FFFD AFAE           add.l      A0, 0xFFFDAFAE
00007238  1230 100A                move.b     D1, [A0 + D1.w + 0xA]
0000723C  4881                     ext.w      D1
0000723E  D245                     add.w      D1, D5
00007240  C3FC 00C0                muls.w     D1, 0xC0
00007244  204D                     movea.l    A0, A5
00007246  D1FC FFFD FAD4           add.l      A0, 0xFFFDFAD4
0000724C  D040                     add.w      D0, D0
0000724E  D041                     add.w      D0, D1
00007250  7200                     moveq.l    D1, 0x00
00007252  3230 0000                move.w     D1, [A0 + D0.w]
00007256  303C F800                move.w     D0, 0xF800
0000725A  C041                     and.w      D0, D1
0000725C  7200                     moveq.l    D1, 0x00
0000725E  3200                     move.w     D1, D0
00007260  2D41 FFE2                move.l     [A6 - 0x1E], D1
00007264  558F                     subq.l     A7, 2
00007266  A861                     syscall    Random
00007268  7001                     moveq.l    D0, 0x01
0000726A  C05F                     and.w      D0, [A7]+
0000726C  7200                     moveq.l    D1, 0x00
0000726E  3200                     move.w     D1, D0
00007270  D2BC 0000 040C           add.l      D1, 0x40C
00007276  202E FFE2                move.l     D0, [A6 - 0x1E]
0000727A  8280                     or.l       D1, D0
0000727C  4887                     ext.w      D7
0000727E  2007                     move.l     D0, D7
00007280  C1FC 0044                muls.w     D0, 0x44 /* 'D' */
00007284  204D                     movea.l    A0, A5
00007286  D1FC FFFD AFAE           add.l      A0, 0xFFFDAFAE
0000728C  1030 000B                move.b     D0, [A0 + D0.w + 0xB]
00007290  4880                     ext.w      D0
00007292  D046                     add.w      D0, D6
00007294  4887                     ext.w      D7
00007296  2407                     move.l     D2, D7
00007298  C5FC 0044                muls.w     D2, 0x44 /* 'D' */
0000729C  204D                     movea.l    A0, A5
0000729E  D1FC FFFD AFAE           add.l      A0, 0xFFFDAFAE
000072A4  1430 200A                move.b     D2, [A0 + D2.w + 0xA]
000072A8  4882                     ext.w      D2
000072AA  D445                     add.w      D2, D5
000072AC  C5FC 00C0                muls.w     D2, 0xC0
000072B0  204D                     movea.l    A0, A5
000072B2  D1FC FFFD FAD4           add.l      A0, 0xFFFDFAD4
000072B8  D040                     add.w      D0, D0
000072BA  D042                     add.w      D0, D2
000072BC  3181 0000                move.w     [A0 + D0.w], D1
000072C0  4887                     ext.w      D7
000072C2  2007                     move.l     D0, D7
000072C4  C1FC 0044                muls.w     D0, 0x44 /* 'D' */
000072C8  204D                     movea.l    A0, A5
000072CA  D1FC FFFD AFAE           add.l      A0, 0xFFFDAFAE
000072D0  1030 000B                move.b     D0, [A0 + D0.w + 0xB]
000072D4  4880                     ext.w      D0
000072D6  D046                     add.w      D0, D6
000072D8  4887                     ext.w      D7
000072DA  2207                     move.l     D1, D7
000072DC  C3FC 0044                muls.w     D1, 0x44 /* 'D' */
000072E0  204D                     movea.l    A0, A5
000072E2  D1FC FFFD AFAE           add.l      A0, 0xFFFDAFAE
000072E8  1230 100A                move.b     D1, [A0 + D1.w + 0xA]
000072EC  4881                     ext.w      D1
000072EE  D245                     add.w      D1, D5
000072F0  C3FC 00C0                muls.w     D1, 0xC0
000072F4  204D                     movea.l    A0, A5
000072F6  D1FC FFFE 42D4           add.l      A0, 0xFFFE42D4
000072FC  D040                     add.w      D0, D0
000072FE  D041                     add.w      D0, D1
00007300  0270 BFFF 0000           andi.w     [A0 + D0.w], 0xBFFF
00007306  4887                     ext.w      D7
00007308  2007                     move.l     D0, D7
0000730A  C1FC 0044                muls.w     D0, 0x44 /* 'D' */
0000730E  204D                     movea.l    A0, A5
00007310  D1FC FFFD AFAE           add.l      A0, 0xFFFDAFAE
00007316  1030 000B                move.b     D0, [A0 + D0.w + 0xB]
0000731A  4880                     ext.w      D0
0000731C  D046                     add.w      D0, D6
0000731E  4887                     ext.w      D7
00007320  2207                     move.l     D1, D7
00007322  C3FC 0044                muls.w     D1, 0x44 /* 'D' */
00007326  204D                     movea.l    A0, A5
00007328  D1FC FFFD AFAE           add.l      A0, 0xFFFDAFAE
0000732E  1230 100A                move.b     D1, [A0 + D1.w + 0xA]
00007332  4881                     ext.w      D1
00007334  D245                     add.w      D1, D5
00007336  C3FC 00C0                muls.w     D1, 0xC0
0000733A  204D                     movea.l    A0, A5
0000733C  D1FC FFFE 42D4           add.l      A0, 0xFFFE42D4
00007342  D040                     add.w      D0, D0
00007344  D041                     add.w      D0, D1
00007346  0070 0800 0000           ori.w      [A0 + D0.w], 0x800
label0000734C:
0000734C  3006                     move.w     D0, D6
0000734E  5246                     addq.w     D6, 1
00007350  0C46 0008                cmpi.w     D6, 0x8
00007354  6D00 FE56                blt        -0x1A8 /* 000071AC */
00007358  3005                     move.w     D0, D5
0000735A  5245                     addq.w     D5, 1
0000735C  0C45 0008                cmpi.w     D5, 0x8
00007360  6D00 FE48                blt        -0x1B6 /* 000071AA */
00007364  6000 0D44                bra        +0xD46 /* 000080AA */
00007368  7000                     moveq.l    D0, 0x00
0000736A  204D                     movea.l    A0, A5
0000736C  D1FC FFFD CECE           add.l      A0, 0xFFFDCECE
00007372  3010                     move.w     D0, [A0]
00007374  4887                     ext.w      D7
00007376  2207                     move.l     D1, D7
00007378  C3FC 0044                muls.w     D1, 0x44 /* 'D' */
0000737C  204D                     movea.l    A0, A5
0000737E  D1FC FFFD AFAE           add.l      A0, 0xFFFDAFAE
00007384  7400                     moveq.l    D2, 0x00
00007386  1430 1032                move.b     D2, [A0 + D1.w + 0x32]
0000738A  9082                     sub.l      D0, D2
0000738C  7203                     moveq.l    D1, 0x03
0000738E  B280                     cmp.l      D1, D0
00007390  6F06                     ble        +0x8 /* 00007398 */
00007392  7000                     moveq.l    D0, 0x00
00007394  6000 0D16                bra        +0xD18 /* 000080AC */
label00007398:
00007398  4245                     clr.w      D5
0000739A  7608                     moveq.l    D3, 0x08
label0000739C:
0000739C  4246                     clr.w      D6
label0000739E:
0000739E  4887                     ext.w      D7
000073A0  2007                     move.l     D0, D7
000073A2  C1FC 0044                muls.w     D0, 0x44 /* 'D' */
000073A6  204D                     movea.l    A0, A5
000073A8  D1FC FFFD AFAE           add.l      A0, 0xFFFDAFAE
000073AE  1030 000B                move.b     D0, [A0 + D0.w + 0xB]
000073B2  4880                     ext.w      D0
000073B4  D046                     add.w      D0, D6
000073B6  4887                     ext.w      D7
000073B8  2207                     move.l     D1, D7
000073BA  C3FC 0044                muls.w     D1, 0x44 /* 'D' */
000073BE  204D                     movea.l    A0, A5
000073C0  D1FC FFFD AFAE           add.l      A0, 0xFFFDAFAE
000073C6  1230 100A                move.b     D1, [A0 + D1.w + 0xA]
000073CA  4881                     ext.w      D1
000073CC  D245                     add.w      D1, D5
000073CE  C3FC 00C0                muls.w     D1, 0xC0
000073D2  204D                     movea.l    A0, A5
000073D4  D1FC FFFE 42D4           add.l      A0, 0xFFFE42D4
000073DA  D040                     add.w      D0, D0
000073DC  D041                     add.w      D0, D1
000073DE  0270 F7FF 0000           andi.w     [A0 + D0.w], 0xF7FF
000073E4  4887                     ext.w      D7
000073E6  2007                     move.l     D0, D7
000073E8  C1FC 0044                muls.w     D0, 0x44 /* 'D' */
000073EC  204D                     movea.l    A0, A5
000073EE  D1FC FFFD AFAE           add.l      A0, 0xFFFDAFAE
000073F4  1030 000B                move.b     D0, [A0 + D0.w + 0xB]
000073F8  4880                     ext.w      D0
000073FA  D046                     add.w      D0, D6
000073FC  4887                     ext.w      D7
000073FE  2207                     move.l     D1, D7
00007400  C3FC 0044                muls.w     D1, 0x44 /* 'D' */
00007404  204D                     movea.l    A0, A5
00007406  D1FC FFFD AFAE           add.l      A0, 0xFFFDAFAE
0000740C  1230 100A                move.b     D1, [A0 + D1.w + 0xA]
00007410  4881                     ext.w      D1
00007412  D245                     add.w      D1, D5
00007414  C3FC 00C0                muls.w     D1, 0xC0
00007418  204D                     movea.l    A0, A5
0000741A  D1FC FFFE 42D4           add.l      A0, 0xFFFE42D4
00007420  D040                     add.w      D0, D0
00007422  D041                     add.w      D0, D1
00007424  0270 BFFF 0000           andi.w     [A0 + D0.w], 0xBFFF
0000742A  4887                     ext.w      D7
0000742C  2007                     move.l     D0, D7
0000742E  C1FC 0044                muls.w     D0, 0x44 /* 'D' */
00007432  204D                     movea.l    A0, A5
00007434  D1FC FFFD AFAE           add.l      A0, 0xFFFDAFAE
0000743A  1030 000E                move.b     D0, [A0 + D0.w + 0xE]
0000743E  4880                     ext.w      D0
00007440  EF40                     asl        D0.w, 7
00007442  204D                     movea.l    A0, A5
00007444  D1FC FFFD CED4           add.l      A0, 0xFFFDCED4
0000744A  7200                     moveq.l    D1, 0x00
0000744C  1230 003E                move.b     D1, [A0 + D0.w + 0x3E]
00007450  7001                     moveq.l    D0, 0x01
00007452  C001                     and.b      D0, D1
00007454  6600 00A0                bne        +0xA2 /* 000074F6 */
00007458  4887                     ext.w      D7
0000745A  2007                     move.l     D0, D7
0000745C  C1FC 0044                muls.w     D0, 0x44 /* 'D' */
00007460  204D                     movea.l    A0, A5
00007462  D1FC FFFD AFAE           add.l      A0, 0xFFFDAFAE
00007468  1030 000B                move.b     D0, [A0 + D0.w + 0xB]
0000746C  4880                     ext.w      D0
0000746E  D046                     add.w      D0, D6
00007470  4887                     ext.w      D7
00007472  2207                     move.l     D1, D7
00007474  C3FC 0044                muls.w     D1, 0x44 /* 'D' */
00007478  204D                     movea.l    A0, A5
0000747A  D1FC FFFD AFAE           add.l      A0, 0xFFFDAFAE
00007480  1230 100A                move.b     D1, [A0 + D1.w + 0xA]
00007484  4881                     ext.w      D1
00007486  D245                     add.w      D1, D5
00007488  C3FC 00C0                muls.w     D1, 0xC0
0000748C  204D                     movea.l    A0, A5
0000748E  D1FC FFFE 42D4           add.l      A0, 0xFFFE42D4
00007494  D040                     add.w      D0, D0
00007496  D041                     add.w      D0, D1
00007498  7200                     moveq.l    D1, 0x00
0000749A  3230 0000                move.w     D1, [A0 + D0.w]
0000749E  303C F800                move.w     D0, 0xF800
000074A2  C041                     and.w      D0, D1
000074A4  7200                     moveq.l    D1, 0x00
000074A6  3200                     move.w     D1, D0
000074A8  7024                     moveq.l    D0, 0x24
000074AA  8041                     or.w       D0, D1
000074AC  323C BFFF                move.w     D1, 0xBFFF
000074B0  C240                     and.w      D1, D0
000074B2  4887                     ext.w      D7
000074B4  2007                     move.l     D0, D7
000074B6  C1FC 0044                muls.w     D0, 0x44 /* 'D' */
000074BA  204D                     movea.l    A0, A5
000074BC  D1FC FFFD AFAE           add.l      A0, 0xFFFDAFAE
000074C2  1030 000B                move.b     D0, [A0 + D0.w + 0xB]
000074C6  4880                     ext.w      D0
000074C8  D046                     add.w      D0, D6
000074CA  4887                     ext.w      D7
000074CC  2407                     move.l     D2, D7
000074CE  C5FC 0044                muls.w     D2, 0x44 /* 'D' */
000074D2  204D                     movea.l    A0, A5
000074D4  D1FC FFFD AFAE           add.l      A0, 0xFFFDAFAE
000074DA  1430 200A                move.b     D2, [A0 + D2.w + 0xA]
000074DE  4882                     ext.w      D2
000074E0  D445                     add.w      D2, D5
000074E2  C5FC 00C0                muls.w     D2, 0xC0
000074E6  204D                     movea.l    A0, A5
000074E8  D1FC FFFE 42D4           add.l      A0, 0xFFFE42D4
000074EE  D040                     add.w      D0, D0
000074F0  D042                     add.w      D0, D2
000074F2  3181 0000                move.w     [A0 + D0.w], D1
label000074F6:
000074F6  3006                     move.w     D0, D6
000074F8  5246                     addq.w     D6, 1
000074FA  B646                     cmp.w      D3, D6
000074FC  6E00 FEA0                bgt        -0x15E /* 0000739E */
00007500  3005                     move.w     D0, D5
00007502  5245                     addq.w     D5, 1
00007504  B645                     cmp.w      D3, D5
00007506  6E00 FE94                bgt        -0x16A /* 0000739C */
0000750A  4887                     ext.w      D7
0000750C  2007                     move.l     D0, D7
0000750E  C1FC 0044                muls.w     D0, 0x44 /* 'D' */
00007512  204D                     movea.l    A0, A5
00007514  D1FC FFFD AFAE           add.l      A0, 0xFFFDAFAE
0000751A  11BC 000E 0003           move.b     [A0 + D0.w + 0x3], 0xE
00007520  6000 0B88                bra        +0xB8A /* 000080AA */
00007524  4887                     ext.w      D7
00007526  2007                     move.l     D0, D7
00007528  C1FC 0044                muls.w     D0, 0x44 /* 'D' */
0000752C  204D                     movea.l    A0, A5
0000752E  D1FC FFFD AFAE           add.l      A0, 0xFFFDAFAE
00007534  3830 002C                move.w     D4, [A0 + D0.w + 0x2C]
00007538  4887                     ext.w      D7
0000753A  2007                     move.l     D0, D7
0000753C  C1FC 0044                muls.w     D0, 0x44 /* 'D' */
00007540  204D                     movea.l    A0, A5
00007542  D1FC FFFD AFAE           add.l      A0, 0xFFFDAFAE
00007548  1030 000E                move.b     D0, [A0 + D0.w + 0xE]
0000754C  4880                     ext.w      D0
0000754E  EF40                     asl        D0.w, 7
00007550  204D                     movea.l    A0, A5
00007552  D1FC FFFD CED4           add.l      A0, 0xFFFDCED4
00007558  3D70 0020 FFFE           move.w     [A6 - 0x2], [A0 + D0.w + 0x20]
0000755E  4887                     ext.w      D7
00007560  2007                     move.l     D0, D7
00007562  C1FC 0044                muls.w     D0, 0x44 /* 'D' */
00007566  204D                     movea.l    A0, A5
00007568  D1FC FFFD AFAE           add.l      A0, 0xFFFDAFAE
0000756E  7200                     moveq.l    D1, 0x00
00007570  3230 0030                move.w     D1, [A0 + D0.w + 0x30]
00007574  4A81                     tst.l      D1
00007576  6300 0238                bls        +0x23A /* 000077B0 */
0000757A  4887                     ext.w      D7
0000757C  2007                     move.l     D0, D7
0000757E  C1FC 0044                muls.w     D0, 0x44 /* 'D' */
00007582  204D                     movea.l    A0, A5
00007584  D1FC FFFD AFAE           add.l      A0, 0xFFFDAFAE
0000758A  1030 000E                move.b     D0, [A0 + D0.w + 0xE]
0000758E  4880                     ext.w      D0
00007590  C1FC 0012                muls.w     D0, 0x12
00007594  204D                     movea.l    A0, A5
00007596  D1FC FFFE 9C5E           add.l      A0, 0xFFFE9C5E
0000759C  3230 0004                move.w     D1, [A0 + D0.w + 0x4]
000075A0  5370 0004                subq.w     [A0 + D0.w + 0x4], 1
000075A4  49C7                     lea.l      A4, D7
000075A6  2F07                     move.l     -[A7], D7
000075A8  4EBA D358                jsr        [PC - 0x2CA8 /* 00004902 */]
000075AC  2D40 FFF6                move.l     [A6 - 0xA], D0
000075B0  4887                     ext.w      D7
000075B2  2007                     move.l     D0, D7
000075B4  C1FC 0044                muls.w     D0, 0x44 /* 'D' */
000075B8  204D                     movea.l    A0, A5
000075BA  D1FC FFFD AFAE           add.l      A0, 0xFFFDAFAE
000075C0  4270 0030                clr.w      [A0 + D0.w + 0x30]
000075C4  49C7                     lea.l      A4, D7
000075C6  2F07                     move.l     -[A7], D7
000075C8  4EBA D338                jsr        [PC - 0x2CC8 /* 00004902 */]
000075CC  2D40 FFFA                move.l     [A6 - 0x6], D0
000075D0  202E FFF6                move.l     D0, [A6 - 0xA]
000075D4  B0AE FFFA                cmp.l      D0, [A6 - 0x6]
000075D8  504F                     addq.w     A7, 8
000075DA  6414                     bcc        +0x16 /* 000075F0 */
000075DC  202E FFFA                move.l     D0, [A6 - 0x6]
000075E0  90AE FFF6                sub.l      D0, [A6 - 0xA]
000075E4  204D                     movea.l    A0, A5
000075E6  D1FC FFFE BD3A           add.l      A0, 0xFFFEBD3A
000075EC  D190                     add.l      [A0], D0
000075EE  6012                     bra        +0x14 /* 00007602 */
label000075F0:
000075F0  202E FFF6                move.l     D0, [A6 - 0xA]
000075F4  90AE FFFA                sub.l      D0, [A6 - 0x6]
000075F8  204D                     movea.l    A0, A5
000075FA  D1FC FFFE BD52           add.l      A0, 0xFFFEBD52
00007600  D190                     add.l      [A0], D0
label00007602:
00007602  2F2E FFF6                move.l     -[A7], [A6 - 0xA]
00007606  4878 00A8                push.l     0xA8
0000760A  4EAD 0602                jsr        [A5 + 0x602 /* export_188, CODE:10 @ 00002E6C */]
0000760E  202E FFF6                move.l     D0, [A6 - 0xA]
00007612  204D                     movea.l    A0, A5
00007614  D1FC FFFE BD7A           add.l      A0, 0xFFFEBD7A
0000761A  D190                     add.l      [A0], D0
0000761C  2004                     move.l     D0, D4
0000761E  C1FC 003A                muls.w     D0, 0x3A /* ':' */
00007622  204D                     movea.l    A0, A5
00007624  D1FC FFFE 9F9C           add.l      A0, 0xFFFE9F9C
0000762A  4230 002C                clr.b      [A0 + D0.w + 0x2C]
0000762E  2004                     move.l     D0, D4
00007630  C1FC 003A                muls.w     D0, 0x3A /* ':' */
00007634  204D                     movea.l    A0, A5
00007636  D1FC FFFE 9F9C           add.l      A0, 0xFFFE9F9C
0000763C  0270 FFF7 0002           andi.w     [A0 + D0.w + 0x2], 0xFFF7
00007642  2004                     move.l     D0, D4
00007644  C1FC 003A                muls.w     D0, 0x3A /* ':' */
00007648  204D                     movea.l    A0, A5
0000764A  D1FC FFFE 9F9C           add.l      A0, 0xFFFE9F9C
00007650  1030 0035                move.b     D0, [A0 + D0.w + 0x35]
00007654  49C0                     lea.l      A4, D0
00007656  2F00                     move.l     -[A7], D0
00007658  2004                     move.l     D0, D4
0000765A  C1FC 003A                muls.w     D0, 0x3A /* ':' */
0000765E  204D                     movea.l    A0, A5
00007660  D1FC FFFE 9F9C           add.l      A0, 0xFFFE9F9C
00007666  1030 0034                move.b     D0, [A0 + D0.w + 0x34]
0000766A  49C0                     lea.l      A4, D0
0000766C  2F00                     move.l     -[A7], D0
0000766E  48C4                     ext.l      D4
00007670  2F04                     move.l     -[A7], D4
00007672  4EAD 055A                jsr        [A5 + 0x55A /* export_167, CODE:10 @ 00000348 */]
00007676  2004                     move.l     D0, D4
00007678  C1FC 003A                muls.w     D0, 0x3A /* ':' */
0000767C  204D                     movea.l    A0, A5
0000767E  D1FC FFFE 9F9C           add.l      A0, 0xFFFE9F9C
00007684  0070 0200 0002           ori.w      [A0 + D0.w + 0x2], 0x200
0000768A  4887                     ext.w      D7
0000768C  2007                     move.l     D0, D7
0000768E  C1FC 0044                muls.w     D0, 0x44 /* 'D' */
00007692  204D                     movea.l    A0, A5
00007694  D1FC FFFD AFAE           add.l      A0, 0xFFFDAFAE
0000769A  4230 0003                clr.b      [A0 + D0.w + 0x3]
0000769E  4887                     ext.w      D7
000076A0  2007                     move.l     D0, D7
000076A2  C1FC 0044                muls.w     D0, 0x44 /* 'D' */
000076A6  204D                     movea.l    A0, A5
000076A8  D1FC FFFD AFAE           add.l      A0, 0xFFFDAFAE
000076AE  4270 002C                clr.w      [A0 + D0.w + 0x2C]
000076B2  4887                     ext.w      D7
000076B4  2007                     move.l     D0, D7
000076B6  C1FC 0044                muls.w     D0, 0x44 /* 'D' */
000076BA  204D                     movea.l    A0, A5
000076BC  D1FC FFFD AFAE           add.l      A0, 0xFFFDAFAE
000076C2  4270 0026                clr.w      [A0 + D0.w + 0x26]
000076C6  4887                     ext.w      D7
000076C8  2007                     move.l     D0, D7
000076CA  C1FC 0044                muls.w     D0, 0x44 /* 'D' */
000076CE  204D                     movea.l    A0, A5
000076D0  D1FC FFFD AFAE           add.l      A0, 0xFFFDAFAE
000076D6  4270 0028                clr.w      [A0 + D0.w + 0x28]
000076DA  4887                     ext.w      D7
000076DC  2007                     move.l     D0, D7
000076DE  C1FC 0044                muls.w     D0, 0x44 /* 'D' */
000076E2  204D                     movea.l    A0, A5
000076E4  D1FC FFFD AFAE           add.l      A0, 0xFFFDAFAE
000076EA  4270 0012                clr.w      [A0 + D0.w + 0x12]
000076EE  4887                     ext.w      D7
000076F0  2007                     move.l     D0, D7
000076F2  C1FC 0044                muls.w     D0, 0x44 /* 'D' */
000076F6  204D                     movea.l    A0, A5
000076F8  D1FC FFFD AFAE           add.l      A0, 0xFFFDAFAE
000076FE  4230 0021                clr.b      [A0 + D0.w + 0x21]
00007702  4887                     ext.w      D7
00007704  2007                     move.l     D0, D7
00007706  C1FC 0044                muls.w     D0, 0x44 /* 'D' */
0000770A  204D                     movea.l    A0, A5
0000770C  D1FC FFFD AFAE           add.l      A0, 0xFFFDAFAE
00007712  1030 000E                move.b     D0, [A0 + D0.w + 0xE]
00007716  4880                     ext.w      D0
00007718  EF40                     asl        D0.w, 7
0000771A  204D                     movea.l    A0, A5
0000771C  D1FC FFFD CED4           add.l      A0, 0xFFFDCED4
00007722  7200                     moveq.l    D1, 0x00
00007724  1230 003E                move.b     D1, [A0 + D0.w + 0x3E]
00007728  4A81                     tst.l      D1
0000772A  0801 0000                btst.b     D1, 0x0
0000772E  4FEF 0014                lea.l      A7, [A7 + 0x14]
00007732  6750                     beq        +0x52 /* 00007784 */
00007734  4887                     ext.w      D7
00007736  2007                     move.l     D0, D7
00007738  C1FC 0044                muls.w     D0, 0x44 /* 'D' */
0000773C  204D                     movea.l    A0, A5
0000773E  D1FC FFFD AFAE           add.l      A0, 0xFFFDAFAE
00007744  1030 000E                move.b     D0, [A0 + D0.w + 0xE]
00007748  4880                     ext.w      D0
0000774A  EF40                     asl        D0.w, 7
0000774C  204D                     movea.l    A0, A5
0000774E  D1FC FFFD CED4           add.l      A0, 0xFFFDCED4
00007754  4887                     ext.w      D7
00007756  2207                     move.l     D1, D7
00007758  C3FC 0044                muls.w     D1, 0x44 /* 'D' */
0000775C  224D                     movea.l    A1, A5
0000775E  D3FC FFFD AFAE           add.l      A1, 0xFFFDAFAE
00007764  13B0 0012 1022           move.b     [A1 + D1.w + 0x22], [A0 + D0.w + 0x12]
0000776A  4887                     ext.w      D7
0000776C  2007                     move.l     D0, D7
0000776E  C1FC 0044                muls.w     D0, 0x44 /* 'D' */
00007772  204D                     movea.l    A0, A5
00007774  D1FC FFFD AFAE           add.l      A0, 0xFFFDAFAE
0000777A  11BC 0004 0002           move.b     [A0 + D0.w + 0x2], 0x4
00007780  6000 0928                bra        +0x92A /* 000080AA */
label00007784:
00007784  4887                     ext.w      D7
00007786  2007                     move.l     D0, D7
00007788  C1FC 0044                muls.w     D0, 0x44 /* 'D' */
0000778C  204D                     movea.l    A0, A5
0000778E  D1FC FFFD AFAE           add.l      A0, 0xFFFDAFAE
00007794  4230 0022                clr.b      [A0 + D0.w + 0x22]
00007798  4887                     ext.w      D7
0000779A  2007                     move.l     D0, D7
0000779C  C1FC 0044                muls.w     D0, 0x44 /* 'D' */
000077A0  204D                     movea.l    A0, A5
000077A2  D1FC FFFD AFAE           add.l      A0, 0xFFFDAFAE
000077A8  4230 0002                clr.b      [A0 + D0.w + 0x2]
000077AC  6000 08FC                bra        +0x8FE /* 000080AA */
label000077B0:
000077B0  49C7                     lea.l      A4, D7
000077B2  2F07                     move.l     -[A7], D7
000077B4  4EBA D14C                jsr        [PC - 0x2EB4 /* 00004902 */]
000077B8  2D40 FFF6                move.l     [A6 - 0xA], D0
000077BC  4887                     ext.w      D7
000077BE  2007                     move.l     D0, D7
000077C0  C1FC 0044                muls.w     D0, 0x44 /* 'D' */
000077C4  204D                     movea.l    A0, A5
000077C6  D1FC FFFD AFAE           add.l      A0, 0xFFFDAFAE
000077CC  4870 0043                pea.l      [A0 + D0.w + 0x43]
000077D0  4887                     ext.w      D7
000077D2  2007                     move.l     D0, D7
000077D4  C1FC 0044                muls.w     D0, 0x44 /* 'D' */
000077D8  204D                     movea.l    A0, A5
000077DA  D1FC FFFD AFAE           add.l      A0, 0xFFFDAFAE
000077E0  4870 0042                pea.l      [A0 + D0.w + 0x42]
000077E4  2004                     move.l     D0, D4
000077E6  C1FC 003A                muls.w     D0, 0x3A /* ':' */
000077EA  204D                     movea.l    A0, A5
000077EC  D1FC FFFE 9F9C           add.l      A0, 0xFFFE9F9C
000077F2  7200                     moveq.l    D1, 0x00
000077F4  1230 0006                move.b     D1, [A0 + D0.w + 0x6]
000077F8  2F01                     move.l     -[A7], D1
000077FA  2004                     move.l     D0, D4
000077FC  C1FC 003A                muls.w     D0, 0x3A /* ':' */
00007800  204D                     movea.l    A0, A5
00007802  D1FC FFFE 9F9C           add.l      A0, 0xFFFE9F9C
00007808  7200                     moveq.l    D1, 0x00
0000780A  1230 0005                move.b     D1, [A0 + D0.w + 0x5]
0000780E  2F01                     move.l     -[A7], D1
00007810  4EAD 095A                jsr        [A5 + 0x95A /* export_295, CODE:16 @ 00001CB8 */]
00007814  3D40 FFEC                move.w     [A6 - 0x14], D0
00007818  4FEF 0014                lea.l      A7, [A7 + 0x14]
0000781C  6700 0156                beq        +0x158 /* 00007974 */
00007820  4887                     ext.w      D7
00007822  2007                     move.l     D0, D7
00007824  C1FC 0044                muls.w     D0, 0x44 /* 'D' */
00007828  204D                     movea.l    A0, A5
0000782A  D1FC FFFD AFAE           add.l      A0, 0xFFFDAFAE
00007830  31AE FFEC 0040           move.w     [A0 + D0.w + 0x40], [A6 - 0x14]
00007836  49C7                     lea.l      A4, D7
00007838  2F07                     move.l     -[A7], D7
0000783A  4EBA D2DC                jsr        [PC - 0x2D24 /* 00004B18 */]
0000783E  2204                     move.l     D1, D4
00007840  C3FC 003A                muls.w     D1, 0x3A /* ':' */
00007844  204D                     movea.l    A0, A5
00007846  D1FC FFFE 9F9C           add.l      A0, 0xFFFE9F9C
0000784C  3180 1022                move.w     [A0 + D1.w + 0x22], D0
00007850  4887                     ext.w      D7
00007852  2007                     move.l     D0, D7
00007854  C1FC 0044                muls.w     D0, 0x44 /* 'D' */
00007858  204D                     movea.l    A0, A5
0000785A  D1FC FFFD AFAE           add.l      A0, 0xFFFDAFAE
00007860  3030 002A                move.w     D0, [A0 + D0.w + 0x2A]
00007864  C1FC 003A                muls.w     D0, 0x3A /* ':' */
00007868  204D                     movea.l    A0, A5
0000786A  D1FC FFFE 9F9C           add.l      A0, 0xFFFE9F9C
00007870  2204                     move.l     D1, D4
00007872  C3FC 003A                muls.w     D1, 0x3A /* ':' */
00007876  224D                     movea.l    A1, A5
00007878  D3FC FFFE 9F9C           add.l      A1, 0xFFFE9F9C
0000787E  33B0 0014 1014           move.w     [A1 + D1.w + 0x14], [A0 + D0.w + 0x14]
00007884  7005                     moveq.l    D0, 0x05
00007886  2F00                     move.l     -[A7], D0
00007888  4EAD 032A                jsr        [A5 + 0x32A /* export_97, CODE:5 @ 00000560 */]
0000788C  2004                     move.l     D0, D4
0000788E  C1FC 003A                muls.w     D0, 0x3A /* ':' */
00007892  204D                     movea.l    A0, A5
00007894  D1FC FFFE 9F9C           add.l      A0, 0xFFFE9F9C
0000789A  11BC 0001 002C           move.b     [A0 + D0.w + 0x2C], 0x1
000078A0  4887                     ext.w      D7
000078A2  2007                     move.l     D0, D7
000078A4  C1FC 0044                muls.w     D0, 0x44 /* 'D' */
000078A8  204D                     movea.l    A0, A5
000078AA  D1FC FFFD AFAE           add.l      A0, 0xFFFDAFAE
000078B0  1030 000E                move.b     D0, [A0 + D0.w + 0xE]
000078B4  4880                     ext.w      D0
000078B6  D07C 00A8                add.w      D0, 0xA8
000078BA  2204                     move.l     D1, D4
000078BC  C3FC 003A                muls.w     D1, 0x3A /* ':' */
000078C0  204D                     movea.l    A0, A5
000078C2  D1FC FFFE 9F9C           add.l      A0, 0xFFFE9F9C
000078C8  3180 1024                move.w     [A0 + D1.w + 0x24], D0
000078CC  4887                     ext.w      D7
000078CE  2007                     move.l     D0, D7
000078D0  C1FC 0044                muls.w     D0, 0x44 /* 'D' */
000078D4  204D                     movea.l    A0, A5
000078D6  D1FC FFFD AFAE           add.l      A0, 0xFFFDAFAE
000078DC  1030 000E                move.b     D0, [A0 + D0.w + 0xE]
000078E0  4880                     ext.w      D0
000078E2  C1FC 0012                muls.w     D0, 0x12
000078E6  204D                     movea.l    A0, A5
000078E8  D1FC FFFE 9AE4           add.l      A0, 0xFFFE9AE4
000078EE  D0C0                     add.w      A0, D0
000078F0  2004                     move.l     D0, D4
000078F2  C1FC 003A                muls.w     D0, 0x3A /* ':' */
000078F6  224D                     movea.l    A1, A5
000078F8  D3FC FFFE 9F9C           add.l      A1, 0xFFFE9F9C
000078FE  2388 0028                move.l     [A1 + D0.w + 0x28], A0
00007902  486E FFF0                pea.l      [A6 - 0x10]
00007906  486E FFEE                pea.l      [A6 - 0x12]
0000790A  302E FFEC                move.w     D0, [A6 - 0x14]
0000790E  48C0                     ext.l      D0
00007910  2F00                     move.l     -[A7], D0
00007912  4EAD 0972                jsr        [A5 + 0x972 /* export_298, CODE:16 @ 0000221E */]
00007916  302E FFF0                move.w     D0, [A6 - 0x10]
0000791A  48C0                     ext.l      D0
0000791C  2F00                     move.l     -[A7], D0
0000791E  302E FFEE                move.w     D0, [A6 - 0x12]
00007922  48C0                     ext.l      D0
00007924  2F00                     move.l     -[A7], D0
00007926  48C4                     ext.l      D4
00007928  2F04                     move.l     -[A7], D4
0000792A  4EAD 055A                jsr        [A5 + 0x55A /* export_167, CODE:10 @ 00000348 */]
0000792E  2004                     move.l     D0, D4
00007930  C1FC 003A                muls.w     D0, 0x3A /* ':' */
00007934  204D                     movea.l    A0, A5
00007936  D1FC FFFE 9F9C           add.l      A0, 0xFFFE9F9C
0000793C  0070 1000 0002           ori.w      [A0 + D0.w + 0x2], 0x1000
00007942  2004                     move.l     D0, D4
00007944  C1FC 003A                muls.w     D0, 0x3A /* ':' */
00007948  204D                     movea.l    A0, A5
0000794A  D1FC FFFE 9F9C           add.l      A0, 0xFFFE9F9C
00007950  31AE FFEC 002E           move.w     [A0 + D0.w + 0x2E], [A6 - 0x14]
00007956  4887                     ext.w      D7
00007958  2007                     move.l     D0, D7
0000795A  C1FC 0044                muls.w     D0, 0x44 /* 'D' */
0000795E  204D                     movea.l    A0, A5
00007960  D1FC FFFD AFAE           add.l      A0, 0xFFFDAFAE
00007966  11BC 000F 0003           move.b     [A0 + D0.w + 0x3], 0xF
0000796C  4FEF 0020                lea.l      A7, [A7 + 0x20]
00007970  6000 0738                bra        +0x73A /* 000080AA */
label00007974:
00007974  4887                     ext.w      D7
00007976  2007                     move.l     D0, D7
00007978  C1FC 0044                muls.w     D0, 0x44 /* 'D' */
0000797C  204D                     movea.l    A0, A5
0000797E  D1FC FFFD AFAE           add.l      A0, 0xFFFDAFAE
00007984  4270 0040                clr.w      [A0 + D0.w + 0x40]
00007988  4887                     ext.w      D7
0000798A  2007                     move.l     D0, D7
0000798C  C1FC 0044                muls.w     D0, 0x44 /* 'D' */
00007990  204D                     movea.l    A0, A5
00007992  D1FC FFFD AFAE           add.l      A0, 0xFFFDAFAE
00007998  11BC 00FF 0042           move.b     [A0 + D0.w + 0x42], 0xFF
0000799E  4887                     ext.w      D7
000079A0  2007                     move.l     D0, D7
000079A2  C1FC 0044                muls.w     D0, 0x44 /* 'D' */
000079A6  204D                     movea.l    A0, A5
000079A8  D1FC FFFD AFAE           add.l      A0, 0xFFFDAFAE
000079AE  11BC 00FF 0043           move.b     [A0 + D0.w + 0x43], 0xFF
000079B4  49C7                     lea.l      A4, D7
000079B6  2F07                     move.l     -[A7], D7
000079B8  4EBA D15E                jsr        [PC - 0x2EA2 /* 00004B18 */]
000079BC  2204                     move.l     D1, D4
000079BE  C3FC 003A                muls.w     D1, 0x3A /* ':' */
000079C2  204D                     movea.l    A0, A5
000079C4  D1FC FFFE 9F9C           add.l      A0, 0xFFFE9F9C
000079CA  3180 1022                move.w     [A0 + D1.w + 0x22], D0
000079CE  4887                     ext.w      D7
000079D0  2007                     move.l     D0, D7
000079D2  C1FC 0044                muls.w     D0, 0x44 /* 'D' */
000079D6  204D                     movea.l    A0, A5
000079D8  D1FC FFFD AFAE           add.l      A0, 0xFFFDAFAE
000079DE  3030 002A                move.w     D0, [A0 + D0.w + 0x2A]
000079E2  C1FC 003A                muls.w     D0, 0x3A /* ':' */
000079E6  204D                     movea.l    A0, A5
000079E8  D1FC FFFE 9F9C           add.l      A0, 0xFFFE9F9C
000079EE  2204                     move.l     D1, D4
000079F0  C3FC 003A                muls.w     D1, 0x3A /* ':' */
000079F4  224D                     movea.l    A1, A5
000079F6  D3FC FFFE 9F9C           add.l      A1, 0xFFFE9F9C
000079FC  33B0 0014 1014           move.w     [A1 + D1.w + 0x14], [A0 + D0.w + 0x14]
00007A02  7005                     moveq.l    D0, 0x05
00007A04  2F00                     move.l     -[A7], D0
00007A06  4EAD 032A                jsr        [A5 + 0x32A /* export_97, CODE:5 @ 00000560 */]
00007A0A  2004                     move.l     D0, D4
00007A0C  C1FC 003A                muls.w     D0, 0x3A /* ':' */
00007A10  204D                     movea.l    A0, A5
00007A12  D1FC FFFE 9F9C           add.l      A0, 0xFFFE9F9C
00007A18  11BC 0001 002C           move.b     [A0 + D0.w + 0x2C], 0x1
00007A1E  4887                     ext.w      D7
00007A20  2007                     move.l     D0, D7
00007A22  C1FC 0044                muls.w     D0, 0x44 /* 'D' */
00007A26  204D                     movea.l    A0, A5
00007A28  D1FC FFFD AFAE           add.l      A0, 0xFFFDAFAE
00007A2E  1030 000E                move.b     D0, [A0 + D0.w + 0xE]
00007A32  4880                     ext.w      D0
00007A34  D07C 00A8                add.w      D0, 0xA8
00007A38  2204                     move.l     D1, D4
00007A3A  C3FC 003A                muls.w     D1, 0x3A /* ':' */
00007A3E  204D                     movea.l    A0, A5
00007A40  D1FC FFFE 9F9C           add.l      A0, 0xFFFE9F9C
00007A46  3180 1024                move.w     [A0 + D1.w + 0x24], D0
00007A4A  4887                     ext.w      D7
00007A4C  2007                     move.l     D0, D7
00007A4E  C1FC 0044                muls.w     D0, 0x44 /* 'D' */
00007A52  204D                     movea.l    A0, A5
00007A54  D1FC FFFD AFAE           add.l      A0, 0xFFFDAFAE
00007A5A  1030 000E                move.b     D0, [A0 + D0.w + 0xE]
00007A5E  4880                     ext.w      D0
00007A60  C1FC 0012                muls.w     D0, 0x12
00007A64  204D                     movea.l    A0, A5
00007A66  D1FC FFFE 9AE4           add.l      A0, 0xFFFE9AE4
00007A6C  D0C0                     add.w      A0, D0
00007A6E  2004                     move.l     D0, D4
00007A70  C1FC 003A                muls.w     D0, 0x3A /* ':' */
00007A74  224D                     movea.l    A1, A5
00007A76  D3FC FFFE 9F9C           add.l      A1, 0xFFFE9F9C
00007A7C  2388 0028                move.l     [A1 + D0.w + 0x28], A0
00007A80  204D                     movea.l    A0, A5
00007A82  D1FC FFFF 0440           add.l      A0, 0xFFFF0440
00007A88  3010                     move.w     D0, [A0]
00007A8A  48C0                     ext.l      D0
00007A8C  E788                     lsl        D0, 3
00007A8E  48C0                     ext.l      D0
00007A90  2F00                     move.l     -[A7], D0
00007A92  204D                     movea.l    A0, A5
00007A94  D1FC FFFF 0442           add.l      A0, 0xFFFF0442
00007A9A  3010                     move.w     D0, [A0]
00007A9C  48C0                     ext.l      D0
00007A9E  E788                     lsl        D0, 3
00007AA0  48C0                     ext.l      D0
00007AA2  2F00                     move.l     -[A7], D0
00007AA4  48C4                     ext.l      D4
00007AA6  2F04                     move.l     -[A7], D4
00007AA8  4EAD 055A                jsr        [A5 + 0x55A /* export_167, CODE:10 @ 00000348 */]
00007AAC  2004                     move.l     D0, D4
00007AAE  C1FC 003A                muls.w     D0, 0x3A /* ':' */
00007AB2  204D                     movea.l    A0, A5
00007AB4  D1FC FFFE 9F9C           add.l      A0, 0xFFFE9F9C
00007ABA  0070 1000 0002           ori.w      [A0 + D0.w + 0x2], 0x1000
00007AC0  4887                     ext.w      D7
00007AC2  2007                     move.l     D0, D7
00007AC4  C1FC 0044                muls.w     D0, 0x44 /* 'D' */
00007AC8  204D                     movea.l    A0, A5
00007ACA  D1FC FFFD AFAE           add.l      A0, 0xFFFDAFAE
00007AD0  11BC 0010 0003           move.b     [A0 + D0.w + 0x3], 0x10
00007AD6  4FEF 0014                lea.l      A7, [A7 + 0x14]
00007ADA  6000 05CE                bra        +0x5D0 /* 000080AA */
00007ADE  4887                     ext.w      D7
00007AE0  2007                     move.l     D0, D7
00007AE2  C1FC 0044                muls.w     D0, 0x44 /* 'D' */
00007AE6  204D                     movea.l    A0, A5
00007AE8  D1FC FFFD AFAE           add.l      A0, 0xFFFDAFAE
00007AEE  3030 002C                move.w     D0, [A0 + D0.w + 0x2C]
00007AF2  C1FC 003A                muls.w     D0, 0x3A /* ':' */
00007AF6  204D                     movea.l    A0, A5
00007AF8  D1FC FFFE 9F9C           add.l      A0, 0xFFFE9F9C
00007AFE  7200                     moveq.l    D1, 0x00
00007B00  3230 0002                move.w     D1, [A0 + D0.w + 0x2]
00007B04  7002                     moveq.l    D0, 0x02
00007B06  C041                     and.w      D0, D1
00007B08  6706                     beq        +0x8 /* 00007B10 */
00007B0A  7000                     moveq.l    D0, 0x00
00007B0C  6000 059E                bra        +0x5A0 /* 000080AC */
label00007B10:
00007B10  4887                     ext.w      D7
00007B12  2007                     move.l     D0, D7
00007B14  C1FC 0044                muls.w     D0, 0x44 /* 'D' */
00007B18  204D                     movea.l    A0, A5
00007B1A  D1FC FFFD AFAE           add.l      A0, 0xFFFDAFAE
00007B20  3830 002C                move.w     D4, [A0 + D0.w + 0x2C]
00007B24  4887                     ext.w      D7
00007B26  2007                     move.l     D0, D7
00007B28  C1FC 0044                muls.w     D0, 0x44 /* 'D' */
00007B2C  204D                     movea.l    A0, A5
00007B2E  D1FC FFFD AFAE           add.l      A0, 0xFFFDAFAE
00007B34  3D70 0040 FFE6           move.w     [A6 - 0x1A], [A0 + D0.w + 0x40]
00007B3A  302E FFE6                move.w     D0, [A6 - 0x1A]
00007B3E  C1FC 0046                muls.w     D0, 0x46 /* 'F' */
00007B42  204D                     movea.l    A0, A5
00007B44  D1FC FFFE D880           add.l      A0, 0xFFFED880
00007B4A  7200                     moveq.l    D1, 0x00
00007B4C  1230 0004                move.b     D1, [A0 + D0.w + 0x4]
00007B50  3D41 FFE8                move.w     [A6 - 0x18], D1
00007B54  302E FFE6                move.w     D0, [A6 - 0x1A]
00007B58  C1FC 0046                muls.w     D0, 0x46 /* 'F' */
00007B5C  204D                     movea.l    A0, A5
00007B5E  D1FC FFFE D880           add.l      A0, 0xFFFED880
00007B64  7200                     moveq.l    D1, 0x00
00007B66  1230 0005                move.b     D1, [A0 + D0.w + 0x5]
00007B6A  3D41 FFEA                move.w     [A6 - 0x16], D1
00007B6E  2004                     move.l     D0, D4
00007B70  C1FC 003A                muls.w     D0, 0x3A /* ':' */
00007B74  204D                     movea.l    A0, A5
00007B76  D1FC FFFE 9F9C           add.l      A0, 0xFFFE9F9C
00007B7C  7200                     moveq.l    D1, 0x00
00007B7E  3230 0022                move.w     D1, [A0 + D0.w + 0x22]
00007B82  2F01                     move.l     -[A7], D1
00007B84  2004                     move.l     D0, D4
00007B86  C1FC 003A                muls.w     D0, 0x3A /* ':' */
00007B8A  204D                     movea.l    A0, A5
00007B8C  D1FC FFFE 9F9C           add.l      A0, 0xFFFE9F9C
00007B92  7200                     moveq.l    D1, 0x00
00007B94  3230 0024                move.w     D1, [A0 + D0.w + 0x24]
00007B98  EF41                     asl        D1.w, 7
00007B9A  204D                     movea.l    A0, A5
00007B9C  D1FC FFFD 7AD4           add.l      A0, 0xFFFD7AD4
00007BA2  7000                     moveq.l    D0, 0x00
00007BA4  3030 1020                move.w     D0, [A0 + D1.w + 0x20]
00007BA8  2F00                     move.l     -[A7], D0
00007BAA  2004                     move.l     D0, D4
00007BAC  C1FC 003A                muls.w     D0, 0x3A /* ':' */
00007BB0  204D                     movea.l    A0, A5
00007BB2  D1FC FFFE 9F9C           add.l      A0, 0xFFFE9F9C
00007BB8  3030 0024                move.w     D0, [A0 + D0.w + 0x24]
00007BBC  48C0                     ext.l      D0
00007BBE  2F00                     move.l     -[A7], D0
00007BC0  302E FFEA                move.w     D0, [A6 - 0x16]
00007BC4  48C0                     ext.l      D0
00007BC6  2F00                     move.l     -[A7], D0
00007BC8  302E FFE8                move.w     D0, [A6 - 0x18]
00007BCC  48C0                     ext.l      D0
00007BCE  2F00                     move.l     -[A7], D0
00007BD0  4EAD 02AA                jsr        [A5 + 0x2AA /* export_81, CODE:3 @ 00002CEE */]
00007BD4  3D40 FFF4                move.w     [A6 - 0xC], D0
00007BD8  4FEF 0014                lea.l      A7, [A7 + 0x14]
00007BDC  6756                     beq        +0x58 /* 00007C34 */
00007BDE  2004                     move.l     D0, D4
00007BE0  C1FC 003A                muls.w     D0, 0x3A /* ':' */
00007BE4  204D                     movea.l    A0, A5
00007BE6  D1FC FFFE 9F9C           add.l      A0, 0xFFFE9F9C
00007BEC  7200                     moveq.l    D1, 0x00
00007BEE  3230 0024                move.w     D1, [A0 + D0.w + 0x24]
00007BF2  C3FC 0012                muls.w     D1, 0x12
00007BF6  204D                     movea.l    A0, A5
00007BF8  D1FC FFFE 8F14           add.l      A0, 0xFFFE8F14
00007BFE  3030 1004                move.w     D0, [A0 + D1.w + 0x4]
00007C02  5270 1004                addq.w     [A0 + D1.w + 0x4], 1
00007C06  2004                     move.l     D0, D4
00007C08  C1FC 003A                muls.w     D0, 0x3A /* ':' */
00007C0C  204D                     movea.l    A0, A5
00007C0E  D1FC FFFE 9F9C           add.l      A0, 0xFFFE9F9C
00007C14  2F30 0028                move.l     -[A7], [A0 + D0.w + 0x28]
00007C18  302E FFF4                move.w     D0, [A6 - 0xC]
00007C1C  48C0                     ext.l      D0
00007C1E  2F00                     move.l     -[A7], D0
00007C20  302E FFE6                move.w     D0, [A6 - 0x1A]
00007C24  48C0                     ext.l      D0
00007C26  2F00                     move.l     -[A7], D0
00007C28  4EAD 0962                jsr        [A5 + 0x962 /* export_296, CODE:16 @ 00001F28 */]
00007C2C  3A00                     move.w     D5, D0
00007C2E  4FEF 000C                lea.l      A7, [A7 + 0xC]
00007C32  604E                     bra        +0x50 /* 00007C82 */
label00007C34:
00007C34  4887                     ext.w      D7
00007C36  2007                     move.l     D0, D7
00007C38  C1FC 0044                muls.w     D0, 0x44 /* 'D' */
00007C3C  204D                     movea.l    A0, A5
00007C3E  D1FC FFFD AFAE           add.l      A0, 0xFFFDAFAE
00007C44  1030 000E                move.b     D0, [A0 + D0.w + 0xE]
00007C48  4880                     ext.w      D0
00007C4A  EF40                     asl        D0.w, 7
00007C4C  204D                     movea.l    A0, A5
00007C4E  D1FC FFFD CED4           add.l      A0, 0xFFFDCED4
00007C54  3D70 0020 FFFE           move.w     [A6 - 0x2], [A0 + D0.w + 0x20]
00007C5A  49C7                     lea.l      A4, D7
00007C5C  2F07                     move.l     -[A7], D7
00007C5E  4EBA CCA2                jsr        [PC - 0x335E /* 00004902 */]
00007C62  2D40 FFF6                move.l     [A6 - 0xA], D0
00007C66  2F00                     move.l     -[A7], D0
00007C68  4878 00A8                push.l     0xA8
00007C6C  4EAD 0602                jsr        [A5 + 0x602 /* export_188, CODE:10 @ 00002E6C */]
00007C70  202E FFF6                move.l     D0, [A6 - 0xA]
00007C74  204D                     movea.l    A0, A5
00007C76  D1FC FFFE BD7A           add.l      A0, 0xFFFEBD7A
00007C7C  D190                     add.l      [A0], D0
00007C7E  4FEF 000C                lea.l      A7, [A7 + 0xC]
label00007C82:
00007C82  4887                     ext.w      D7
00007C84  2007                     move.l     D0, D7
00007C86  C1FC 0044                muls.w     D0, 0x44 /* 'D' */
00007C8A  204D                     movea.l    A0, A5
00007C8C  D1FC FFFD AFAE           add.l      A0, 0xFFFDAFAE
00007C92  4270 0040                clr.w      [A0 + D0.w + 0x40]
00007C96  2004                     move.l     D0, D4
00007C98  C1FC 003A                muls.w     D0, 0x3A /* ':' */
00007C9C  204D                     movea.l    A0, A5
00007C9E  D1FC FFFE 9F9C           add.l      A0, 0xFFFE9F9C
00007CA4  4270 0022                clr.w      [A0 + D0.w + 0x22]
00007CA8  2004                     move.l     D0, D4
00007CAA  C1FC 003A                muls.w     D0, 0x3A /* ':' */
00007CAE  204D                     movea.l    A0, A5
00007CB0  D1FC FFFE 9F9C           add.l      A0, 0xFFFE9F9C
00007CB6  4230 002C                clr.b      [A0 + D0.w + 0x2C]
00007CBA  2004                     move.l     D0, D4
00007CBC  C1FC 003A                muls.w     D0, 0x3A /* ':' */
00007CC0  204D                     movea.l    A0, A5
00007CC2  D1FC FFFE 9F9C           add.l      A0, 0xFFFE9F9C
00007CC8  4270 0024                clr.w      [A0 + D0.w + 0x24]
00007CCC  2004                     move.l     D0, D4
00007CCE  C1FC 003A                muls.w     D0, 0x3A /* ':' */
00007CD2  204D                     movea.l    A0, A5
00007CD4  D1FC FFFE 9F9C           add.l      A0, 0xFFFE9F9C
00007CDA  7200                     moveq.l    D1, 0x00
00007CDC  2181 0028                move.l     [A0 + D0.w + 0x28], D1
00007CE0  2004                     move.l     D0, D4
00007CE2  C1FC 003A                muls.w     D0, 0x3A /* ':' */
00007CE6  204D                     movea.l    A0, A5
00007CE8  D1FC FFFE 9F9C           add.l      A0, 0xFFFE9F9C
00007CEE  1030 0035                move.b     D0, [A0 + D0.w + 0x35]
00007CF2  49C0                     lea.l      A4, D0
00007CF4  2F00                     move.l     -[A7], D0
00007CF6  2004                     move.l     D0, D4
00007CF8  C1FC 003A                muls.w     D0, 0x3A /* ':' */
00007CFC  204D                     movea.l    A0, A5
00007CFE  D1FC FFFE 9F9C           add.l      A0, 0xFFFE9F9C
00007D04  1030 0034                move.b     D0, [A0 + D0.w + 0x34]
00007D08  49C0                     lea.l      A4, D0
00007D0A  2F00                     move.l     -[A7], D0
00007D0C  48C4                     ext.l      D4
00007D0E  2F04                     move.l     -[A7], D4
00007D10  4EAD 055A                jsr        [A5 + 0x55A /* export_167, CODE:10 @ 00000348 */]
00007D14  2004                     move.l     D0, D4
00007D16  C1FC 003A                muls.w     D0, 0x3A /* ':' */
00007D1A  204D                     movea.l    A0, A5
00007D1C  D1FC FFFE 9F9C           add.l      A0, 0xFFFE9F9C
00007D22  0070 0200 0002           ori.w      [A0 + D0.w + 0x2], 0x200
00007D28  2004                     move.l     D0, D4
00007D2A  C1FC 003A                muls.w     D0, 0x3A /* ':' */
00007D2E  204D                     movea.l    A0, A5
00007D30  D1FC FFFE 9F9C           add.l      A0, 0xFFFE9F9C
00007D36  0270 FFF7 0002           andi.w     [A0 + D0.w + 0x2], 0xFFF7
00007D3C  224D                     movea.l    A1, A5
00007D3E  D3FC FFFF 7868           add.l      A1, 0xFFFF7868
00007D44  2051                     movea.l    A0, [A1]
00007D46  2868 0128                movea.l    A4, [A0 + 0x128]
00007D4A  2F2C 00D0                move.l     -[A7], [A4 + 0xD0]
00007D4E  4EAD 0DBA                jsr        [A5 + 0xDBA /* export_435, CODE:20 @ 000044AC */]
00007D52  4887                     ext.w      D7
00007D54  2007                     move.l     D0, D7
00007D56  C1FC 0044                muls.w     D0, 0x44 /* 'D' */
00007D5A  204D                     movea.l    A0, A5
00007D5C  D1FC FFFD AFAE           add.l      A0, 0xFFFDAFAE
00007D62  4230 0003                clr.b      [A0 + D0.w + 0x3]
00007D66  4887                     ext.w      D7
00007D68  2007                     move.l     D0, D7
00007D6A  C1FC 0044                muls.w     D0, 0x44 /* 'D' */
00007D6E  204D                     movea.l    A0, A5
00007D70  D1FC FFFD AFAE           add.l      A0, 0xFFFDAFAE
00007D76  4270 002C                clr.w      [A0 + D0.w + 0x2C]
00007D7A  4887                     ext.w      D7
00007D7C  2007                     move.l     D0, D7
00007D7E  C1FC 0044                muls.w     D0, 0x44 /* 'D' */
00007D82  204D                     movea.l    A0, A5
00007D84  D1FC FFFD AFAE           add.l      A0, 0xFFFDAFAE
00007D8A  4270 0026                clr.w      [A0 + D0.w + 0x26]
00007D8E  4887                     ext.w      D7
00007D90  2007                     move.l     D0, D7
00007D92  C1FC 0044                muls.w     D0, 0x44 /* 'D' */
00007D96  204D                     movea.l    A0, A5
00007D98  D1FC FFFD AFAE           add.l      A0, 0xFFFDAFAE
00007D9E  4270 0028                clr.w      [A0 + D0.w + 0x28]
00007DA2  4887                     ext.w      D7
00007DA4  2007                     move.l     D0, D7
00007DA6  C1FC 0044                muls.w     D0, 0x44 /* 'D' */
00007DAA  204D                     movea.l    A0, A5
00007DAC  D1FC FFFD AFAE           add.l      A0, 0xFFFDAFAE
00007DB2  4270 0012                clr.w      [A0 + D0.w + 0x12]
00007DB6  4887                     ext.w      D7
00007DB8  2007                     move.l     D0, D7
00007DBA  C1FC 0044                muls.w     D0, 0x44 /* 'D' */
00007DBE  204D                     movea.l    A0, A5
00007DC0  D1FC FFFD AFAE           add.l      A0, 0xFFFDAFAE
00007DC6  4230 0021                clr.b      [A0 + D0.w + 0x21]
00007DCA  4887                     ext.w      D7
00007DCC  2007                     move.l     D0, D7
00007DCE  C1FC 0044                muls.w     D0, 0x44 /* 'D' */
00007DD2  204D                     movea.l    A0, A5
00007DD4  D1FC FFFD AFAE           add.l      A0, 0xFFFDAFAE
00007DDA  1030 000E                move.b     D0, [A0 + D0.w + 0xE]
00007DDE  4880                     ext.w      D0
00007DE0  EF40                     asl        D0.w, 7
00007DE2  204D                     movea.l    A0, A5
00007DE4  D1FC FFFD CED4           add.l      A0, 0xFFFDCED4
00007DEA  7200                     moveq.l    D1, 0x00
00007DEC  1230 003E                move.b     D1, [A0 + D0.w + 0x3E]
00007DF0  4A81                     tst.l      D1
00007DF2  0801 0000                btst.b     D1, 0x0
00007DF6  4FEF 0010                lea.l      A7, [A7 + 0x10]
00007DFA  6750                     beq        +0x52 /* 00007E4C */
00007DFC  4887                     ext.w      D7
00007DFE  2007                     move.l     D0, D7
00007E00  C1FC 0044                muls.w     D0, 0x44 /* 'D' */
00007E04  204D                     movea.l    A0, A5
00007E06  D1FC FFFD AFAE           add.l      A0, 0xFFFDAFAE
00007E0C  1030 000E                move.b     D0, [A0 + D0.w + 0xE]
00007E10  4880                     ext.w      D0
00007E12  EF40                     asl        D0.w, 7
00007E14  204D                     movea.l    A0, A5
00007E16  D1FC FFFD CED4           add.l      A0, 0xFFFDCED4
00007E1C  4887                     ext.w      D7
00007E1E  2207                     move.l     D1, D7
00007E20  C3FC 0044                muls.w     D1, 0x44 /* 'D' */
00007E24  224D                     movea.l    A1, A5
00007E26  D3FC FFFD AFAE           add.l      A1, 0xFFFDAFAE
00007E2C  13B0 0012 1022           move.b     [A1 + D1.w + 0x22], [A0 + D0.w + 0x12]
00007E32  4887                     ext.w      D7
00007E34  2007                     move.l     D0, D7
00007E36  C1FC 0044                muls.w     D0, 0x44 /* 'D' */
00007E3A  204D                     movea.l    A0, A5
00007E3C  D1FC FFFD AFAE           add.l      A0, 0xFFFDAFAE
00007E42  11BC 0004 0002           move.b     [A0 + D0.w + 0x2], 0x4
00007E48  6000 0260                bra        +0x262 /* 000080AA */
label00007E4C:
00007E4C  4887                     ext.w      D7
00007E4E  2007                     move.l     D0, D7
00007E50  C1FC 0044                muls.w     D0, 0x44 /* 'D' */
00007E54  204D                     movea.l    A0, A5
00007E56  D1FC FFFD AFAE           add.l      A0, 0xFFFDAFAE
00007E5C  4230 0022                clr.b      [A0 + D0.w + 0x22]
00007E60  4887                     ext.w      D7
00007E62  2007                     move.l     D0, D7
00007E64  C1FC 0044                muls.w     D0, 0x44 /* 'D' */
00007E68  204D                     movea.l    A0, A5
00007E6A  D1FC FFFD AFAE           add.l      A0, 0xFFFDAFAE
00007E70  4230 0002                clr.b      [A0 + D0.w + 0x2]
00007E74  6000 0234                bra        +0x236 /* 000080AA */
00007E78  4887                     ext.w      D7
00007E7A  2007                     move.l     D0, D7
00007E7C  C1FC 0044                muls.w     D0, 0x44 /* 'D' */
00007E80  204D                     movea.l    A0, A5
00007E82  D1FC FFFD AFAE           add.l      A0, 0xFFFDAFAE
00007E88  3030 002C                move.w     D0, [A0 + D0.w + 0x2C]
00007E8C  C1FC 003A                muls.w     D0, 0x3A /* ':' */
00007E90  204D                     movea.l    A0, A5
00007E92  D1FC FFFE 9F9C           add.l      A0, 0xFFFE9F9C
00007E98  7200                     moveq.l    D1, 0x00
00007E9A  3230 0002                move.w     D1, [A0 + D0.w + 0x2]
00007E9E  7002                     moveq.l    D0, 0x02
00007EA0  C041                     and.w      D0, D1
00007EA2  6706                     beq        +0x8 /* 00007EAA */
00007EA4  7000                     moveq.l    D0, 0x00
00007EA6  6000 0204                bra        +0x206 /* 000080AC */
label00007EAA:
00007EAA  4887                     ext.w      D7
00007EAC  2007                     move.l     D0, D7
00007EAE  C1FC 0044                muls.w     D0, 0x44 /* 'D' */
00007EB2  204D                     movea.l    A0, A5
00007EB4  D1FC FFFD AFAE           add.l      A0, 0xFFFDAFAE
00007EBA  3830 002C                move.w     D4, [A0 + D0.w + 0x2C]
00007EBE  4887                     ext.w      D7
00007EC0  2007                     move.l     D0, D7
00007EC2  C1FC 0044                muls.w     D0, 0x44 /* 'D' */
00007EC6  204D                     movea.l    A0, A5
00007EC8  D1FC FFFD AFAE           add.l      A0, 0xFFFDAFAE
00007ECE  1030 000E                move.b     D0, [A0 + D0.w + 0xE]
00007ED2  4880                     ext.w      D0
00007ED4  EF40                     asl        D0.w, 7
00007ED6  204D                     movea.l    A0, A5
00007ED8  D1FC FFFD CED4           add.l      A0, 0xFFFDCED4
00007EDE  3D70 0020 FFFE           move.w     [A6 - 0x2], [A0 + D0.w + 0x20]
00007EE4  49C7                     lea.l      A4, D7
00007EE6  2F07                     move.l     -[A7], D7
00007EE8  4EBA CA18                jsr        [PC - 0x35E8 /* 00004902 */]
00007EEC  2D40 FFF6                move.l     [A6 - 0xA], D0
00007EF0  2F00                     move.l     -[A7], D0
00007EF2  4878 00A8                push.l     0xA8
00007EF6  4EAD 0602                jsr        [A5 + 0x602 /* export_188, CODE:10 @ 00002E6C */]
00007EFA  202E FFF6                move.l     D0, [A6 - 0xA]
00007EFE  204D                     movea.l    A0, A5
00007F00  D1FC FFFE BD7A           add.l      A0, 0xFFFEBD7A
00007F06  D190                     add.l      [A0], D0
00007F08  2004                     move.l     D0, D4
00007F0A  C1FC 003A                muls.w     D0, 0x3A /* ':' */
00007F0E  204D                     movea.l    A0, A5
00007F10  D1FC FFFE 9F9C           add.l      A0, 0xFFFE9F9C
00007F16  4230 002C                clr.b      [A0 + D0.w + 0x2C]
00007F1A  2004                     move.l     D0, D4
00007F1C  C1FC 003A                muls.w     D0, 0x3A /* ':' */
00007F20  204D                     movea.l    A0, A5
00007F22  D1FC FFFE 9F9C           add.l      A0, 0xFFFE9F9C
00007F28  0270 FFF7 0002           andi.w     [A0 + D0.w + 0x2], 0xFFF7
00007F2E  2004                     move.l     D0, D4
00007F30  C1FC 003A                muls.w     D0, 0x3A /* ':' */
00007F34  204D                     movea.l    A0, A5
00007F36  D1FC FFFE 9F9C           add.l      A0, 0xFFFE9F9C
00007F3C  1030 0035                move.b     D0, [A0 + D0.w + 0x35]
00007F40  49C0                     lea.l      A4, D0
00007F42  2F00                     move.l     -[A7], D0
00007F44  2004                     move.l     D0, D4
00007F46  C1FC 003A                muls.w     D0, 0x3A /* ':' */
00007F4A  204D                     movea.l    A0, A5
00007F4C  D1FC FFFE 9F9C           add.l      A0, 0xFFFE9F9C
00007F52  1030 0034                move.b     D0, [A0 + D0.w + 0x34]
00007F56  49C0                     lea.l      A4, D0
00007F58  2F00                     move.l     -[A7], D0
00007F5A  48C4                     ext.l      D4
00007F5C  2F04                     move.l     -[A7], D4
00007F5E  4EAD 055A                jsr        [A5 + 0x55A /* export_167, CODE:10 @ 00000348 */]
00007F62  2004                     move.l     D0, D4
00007F64  C1FC 003A                muls.w     D0, 0x3A /* ':' */
00007F68  204D                     movea.l    A0, A5
00007F6A  D1FC FFFE 9F9C           add.l      A0, 0xFFFE9F9C
00007F70  0070 0200 0002           ori.w      [A0 + D0.w + 0x2], 0x200
00007F76  4887                     ext.w      D7
00007F78  2007                     move.l     D0, D7
00007F7A  C1FC 0044                muls.w     D0, 0x44 /* 'D' */
00007F7E  204D                     movea.l    A0, A5
00007F80  D1FC FFFD AFAE           add.l      A0, 0xFFFDAFAE
00007F86  4270 0040                clr.w      [A0 + D0.w + 0x40]
00007F8A  4887                     ext.w      D7
00007F8C  2007                     move.l     D0, D7
00007F8E  C1FC 0044                muls.w     D0, 0x44 /* 'D' */
00007F92  204D                     movea.l    A0, A5
00007F94  D1FC FFFD AFAE           add.l      A0, 0xFFFDAFAE
00007F9A  4230 0003                clr.b      [A0 + D0.w + 0x3]
00007F9E  4887                     ext.w      D7
00007FA0  2007                     move.l     D0, D7
00007FA2  C1FC 0044                muls.w     D0, 0x44 /* 'D' */
00007FA6  204D                     movea.l    A0, A5
00007FA8  D1FC FFFD AFAE           add.l      A0, 0xFFFDAFAE
00007FAE  4270 002C                clr.w      [A0 + D0.w + 0x2C]
00007FB2  4887                     ext.w      D7
00007FB4  2007                     move.l     D0, D7
00007FB6  C1FC 0044                muls.w     D0, 0x44 /* 'D' */
00007FBA  204D                     movea.l    A0, A5
00007FBC  D1FC FFFD AFAE           add.l      A0, 0xFFFDAFAE
00007FC2  4270 0026                clr.w      [A0 + D0.w + 0x26]
00007FC6  4887                     ext.w      D7
00007FC8  2007                     move.l     D0, D7
00007FCA  C1FC 0044                muls.w     D0, 0x44 /* 'D' */
00007FCE  204D                     movea.l    A0, A5
00007FD0  D1FC FFFD AFAE           add.l      A0, 0xFFFDAFAE
00007FD6  4270 0028                clr.w      [A0 + D0.w + 0x28]
00007FDA  4887                     ext.w      D7
00007FDC  2007                     move.l     D0, D7
00007FDE  C1FC 0044                muls.w     D0, 0x44 /* 'D' */
00007FE2  204D                     movea.l    A0, A5
00007FE4  D1FC FFFD AFAE           add.l      A0, 0xFFFDAFAE
00007FEA  4270 0012                clr.w      [A0 + D0.w + 0x12]
00007FEE  4887                     ext.w      D7
00007FF0  2007                     move.l     D0, D7
00007FF2  C1FC 0044                muls.w     D0, 0x44 /* 'D' */
00007FF6  204D                     movea.l    A0, A5
00007FF8  D1FC FFFD AFAE           add.l      A0, 0xFFFDAFAE
00007FFE  4230 0021                clr.b      [A0 + D0.w + 0x21]
00008002  4887                     ext.w      D7
00008004  2007                     move.l     D0, D7
00008006  C1FC 0044                muls.w     D0, 0x44 /* 'D' */
0000800A  204D                     movea.l    A0, A5
0000800C  D1FC FFFD AFAE           add.l      A0, 0xFFFDAFAE
00008012  1030 000E                move.b     D0, [A0 + D0.w + 0xE]
00008016  4880                     ext.w      D0
00008018  EF40                     asl        D0.w, 7
0000801A  204D                     movea.l    A0, A5
0000801C  D1FC FFFD CED4           add.l      A0, 0xFFFDCED4
00008022  7200                     moveq.l    D1, 0x00
00008024  1230 003E                move.b     D1, [A0 + D0.w + 0x3E]
00008028  4A81                     tst.l      D1
0000802A  0801 0000                btst.b     D1, 0x0
0000802E  4FEF 0018                lea.l      A7, [A7 + 0x18]
00008032  674E                     beq        +0x50 /* 00008082 */
00008034  4887                     ext.w      D7
00008036  2007                     move.l     D0, D7
00008038  C1FC 0044                muls.w     D0, 0x44 /* 'D' */
0000803C  204D                     movea.l    A0, A5
0000803E  D1FC FFFD AFAE           add.l      A0, 0xFFFDAFAE
00008044  1030 000E                move.b     D0, [A0 + D0.w + 0xE]
00008048  4880                     ext.w      D0
0000804A  EF40                     asl        D0.w, 7
0000804C  204D                     movea.l    A0, A5
0000804E  D1FC FFFD CED4           add.l      A0, 0xFFFDCED4
00008054  4887                     ext.w      D7
00008056  2207                     move.l     D1, D7
00008058  C3FC 0044                muls.w     D1, 0x44 /* 'D' */
0000805C  224D                     movea.l    A1, A5
0000805E  D3FC FFFD AFAE           add.l      A1, 0xFFFDAFAE
00008064  13B0 0012 1022           move.b     [A1 + D1.w + 0x22], [A0 + D0.w + 0x12]
0000806A  4887                     ext.w      D7
0000806C  2007                     move.l     D0, D7
0000806E  C1FC 0044                muls.w     D0, 0x44 /* 'D' */
00008072  204D                     movea.l    A0, A5
00008074  D1FC FFFD AFAE           add.l      A0, 0xFFFDAFAE
0000807A  11BC 0004 0002           move.b     [A0 + D0.w + 0x2], 0x4
00008080  6028                     bra        +0x2A /* 000080AA */
label00008082:
00008082  4887                     ext.w      D7
00008084  2007                     move.l     D0, D7
00008086  C1FC 0044                muls.w     D0, 0x44 /* 'D' */
0000808A  204D                     movea.l    A0, A5
0000808C  D1FC FFFD AFAE           add.l      A0, 0xFFFDAFAE
00008092  4230 0022                clr.b      [A0 + D0.w + 0x22]
00008096  4887                     ext.w      D7
00008098  2007                     move.l     D0, D7
0000809A  C1FC 0044                muls.w     D0, 0x44 /* 'D' */
0000809E  204D                     movea.l    A0, A5
000080A0  D1FC FFFD AFAE           add.l      A0, 0xFFFDAFAE
000080A6  4230 0002                clr.b      [A0 + D0.w + 0x2]
label000080AA:
000080AA  7000                     moveq.l    D0, 0x00
label000080AC:
000080AC  4CEE 18F8 FFC6           movem.l    D3,D4,D5,D6,D7,A3,A4, [A6 - 0x3A]
000080B2  4E5E                     unlink     A6
000080B4  4E75                     rts
000080B6  9164 6F68 6172 7665 7... dc.b       "doharveststep__Fc"
