# near model CODE resource
# jump table entries: 4912-4939 (28 of them)
export_614:
00000000  4E56 0000                link       A6, 0
00000004  48E7 1118                movem.l    -[A7], D3,D7,A3,A4
00000008  3E2E 001E                move.w     D7, [A6 + 0x1E]
0000000C  204D                     movea.l    A0, A5
0000000E  D1FC FFFF 61B0           add.l      A0, 0xFFFF61B0
00000014  47D0                     lea.l      A3, [A0]
00000016  286E 0008                movea.l    A4, [A6 + 0x8]
0000001A  200C                     move.l     D0, A4
0000001C  6612                     bne        +0x14 /* 00000030 */
0000001E  4878 016C                push.l     0x16C
00000022  4EAD 010A                jsr        [A5 + 0x10A /* export_29, CODE:1 @ 00001C0A */]
00000026  2840                     movea.l    A4, D0
00000028  200C                     move.l     D0, A4
0000002A  584F                     addq.w     A7, 4
0000002C  6700 01B2                beq        +0x1B4 /* 000001E0 */
label00000030:
00000030  4AAE 000C                tst.l      [A6 + 0xC]
00000034  57C3                     seq        D3
00000036  4403                     neg.b      D3
00000038  6754                     beq        +0x56 /* 0000008E */
0000003A  200C                     move.l     D0, A4
0000003C  D0BC 0000 0160           add.l      D0, 0x160
00000042  2D40 000C                move.l     [A6 + 0xC], D0
00000046  7601                     moveq.l    D3, 0x01
00000048  200C                     move.l     D0, A4
0000004A  D0BC 0000 0160           add.l      D0, 0x160
00000050  6614                     bne        +0x16 /* 00000066 */
00000052  2F03                     move.l     -[A7], D3
00000054  700C                     moveq.l    D0, 0x0C
00000056  2F00                     move.l     -[A7], D0
00000058  4EAD 010A                jsr        [A5 + 0x10A /* export_29, CODE:1 @ 00001C0A */]
0000005C  588F                     addq.l     A7, 4
0000005E  261F                     move.l     D3, [A7]+
00000060  4A80                     tst.l      D0
00000062  6602                     bne        +0x4 /* 00000066 */
00000064  7600                     moveq.l    D3, 0x00
label00000066:
00000066  4A03                     tst.b      D3
00000068  6718                     beq        +0x1A /* 00000082 */
0000006A  204D                     movea.l    A0, A5
0000006C  D1FC FFFF 5EE8           add.l      A0, 0xFFFF5EE8
00000072  2950 0168                move.l     [A4 + 0x168], [A0]
00000076  7000                     moveq.l    D0, 0x00
00000078  2940 0160                move.l     [A4 + 0x160], D0
0000007C  2940 0164                move.l     [A4 + 0x164], D0
00000080  6002                     bra        +0x4 /* 00000084 */
label00000082:
00000082  7000                     moveq.l    D0, 0x00
label00000084:
00000084  200C                     move.l     D0, A4
00000086  D0BC 0000 0160           add.l      D0, 0x160
0000008C  6004                     bra        +0x6 /* 00000092 */
label0000008E:
0000008E  202E 000C                move.l     D0, [A6 + 0xC]
label00000092:
00000092  7001                     moveq.l    D0, 0x01
00000094  2F00                     move.l     -[A7], D0
00000096  4878 008B                push.l     0x8B
0000009A  2F2E 0018                move.l     -[A7], [A6 + 0x18]
0000009E  2F2E 0014                move.l     -[A7], [A6 + 0x14]
000000A2  2F2E 0010                move.l     -[A7], [A6 + 0x10]
000000A6  2F2E 000C                move.l     -[A7], [A6 + 0xC]
000000AA  2F0C                     move.l     -[A7], A4
000000AC  4EAD 1F82                jsr        [A5 + 0x1F82 /* export_1004, CODE:37 @ 00001652 */]
000000B0  204D                     movea.l    A0, A5
000000B2  D1FC FFFF 5EEC           add.l      A0, 0xFFFF5EEC
000000B8  2950 0060                move.l     [A4 + 0x60], [A0]
000000BC  204D                     movea.l    A0, A5
000000BE  D1FC FFFF 5EF0           add.l      A0, 0xFFFF5EF0
000000C4  2950 0088                move.l     [A4 + 0x88], [A0]
000000C8  204D                     movea.l    A0, A5
000000CA  D1FC FFFF 5EF4           add.l      A0, 0xFFFF5EF4
000000D0  2950 0070                move.l     [A4 + 0x70], [A0]
000000D4  206C 0064                movea.l    A0, [A4 + 0x64]
000000D8  224D                     movea.l    A1, A5
000000DA  D3FC FFFF 5EF8           add.l      A1, 0xFFFF5EF8
000000E0  2151 0008                move.l     [A0 + 0x8], [A1]
000000E4  204D                     movea.l    A0, A5
000000E6  D1FC FFFF 5EFC           add.l      A0, 0xFFFF5EFC
000000EC  2950 0132                move.l     [A4 + 0x132], [A0]
000000F0  0C47 0005                cmpi.w     D7, 0x5
000000F4  4FEF 001C                lea.l      A7, [A7 + 0x1C]
000000F8  6F16                     ble        +0x18 /* 00000110 */
000000FA  204D                     movea.l    A0, A5
000000FC  D1FC FFFF 5EBC           add.l      A0, 0xFFFF5EBC
00000102  4850                     pea.l      [A0]
00000104  2F2C 0064                move.l     -[A7], [A4 + 0x64]
00000108  4EAD 162A                jsr        [A5 + 0x162A /* export_705, CODE:32 @ 00003696 */]
0000010C  7E05                     moveq.l    D7, 0x05
0000010E  504F                     addq.w     A7, 8
label00000110:
00000110  3007                     move.w     D0, D7
00000112  5340                     subq.w     D0, 1
00000114  3940 015C                move.w     [A4 + 0x15C], D0
00000118  197C 0001 015E           move.b     [A4 + 0x15E], 0x1
0000011E  4247                     clr.w      D7
00000120  6014                     bra        +0x16 /* 00000136 */
label00000122:
00000122  41EC 0152                lea.l      A0, [A4 + 0x152]
00000126  4230 7000                clr.b      [A0 + D7.w]
0000012A  41EC 0157                lea.l      A0, [A4 + 0x157]
0000012E  4230 7000                clr.b      [A0 + D7.w]
00000132  3007                     move.w     D0, D7
00000134  5247                     addq.w     D7, 1
label00000136:
00000136  BE6C 015C                cmp.w      D7, [A4 + 0x15C]
0000013A  6DE6                     blt        -0x18 /* 00000122 */
0000013C  204D                     movea.l    A0, A5
0000013E  D1FC FFFF 61C4           add.l      A0, 0xFFFF61C4
00000144  4A90                     tst.l      [A0]
00000146  665A                     bne        +0x5C /* 000001A2 */
00000148  598F                     subq.l     A7, 4
0000014A  3F3C 0090                move.w     -[A7], 0x90
0000014E  AA1E                     syscall    GetCIcon
00000150  204D                     movea.l    A0, A5
00000152  D1FC FFFF 61C4           add.l      A0, 0xFFFF61C4
00000158  209F                     move.l     [A0], [A7]+
0000015A  598F                     subq.l     A7, 4
0000015C  3F3C 0091                move.w     -[A7], 0x91
00000160  AA1E                     syscall    GetCIcon
00000162  204D                     movea.l    A0, A5
00000164  D1FC FFFF 61C8           add.l      A0, 0xFFFF61C8
0000016A  209F                     move.l     [A0], [A7]+
0000016C  598F                     subq.l     A7, 4
0000016E  3F3C 0092                move.w     -[A7], 0x92
00000172  AA1E                     syscall    GetCIcon
00000174  204D                     movea.l    A0, A5
00000176  D1FC FFFF 61CC           add.l      A0, 0xFFFF61CC
0000017C  209F                     move.l     [A0], [A7]+
0000017E  598F                     subq.l     A7, 4
00000180  3F3C 0093                move.w     -[A7], 0x93
00000184  AA1E                     syscall    GetCIcon
00000186  204D                     movea.l    A0, A5
00000188  D1FC FFFF 61D0           add.l      A0, 0xFFFF61D0
0000018E  209F                     move.l     [A0], [A7]+
00000190  598F                     subq.l     A7, 4
00000192  3F3C 0094                move.w     -[A7], 0x94
00000196  AA1E                     syscall    GetCIcon
00000198  204D                     movea.l    A0, A5
0000019A  D1FC FFFF 61D4           add.l      A0, 0xFFFF61D4
000001A0  209F                     move.l     [A0], [A7]+
label000001A2:
000001A2  4A93                     tst.l      [A3]
000001A4  663A                     bne        +0x3C /* 000001E0 */
000001A6  598F                     subq.l     A7, 4
000001A8  3F3C 0352                move.w     -[A7], 0x352
000001AC  AA1E                     syscall    GetCIcon
000001AE  269F                     move.l     [A3], [A7]+
000001B0  598F                     subq.l     A7, 4
000001B2  3F3C 0353                move.w     -[A7], 0x353
000001B6  AA1E                     syscall    GetCIcon
000001B8  275F 0004                move.l     [A3 + 0x4], [A7]+
000001BC  598F                     subq.l     A7, 4
000001BE  3F3C 0354                move.w     -[A7], 0x354
000001C2  AA1E                     syscall    GetCIcon
000001C4  275F 0008                move.l     [A3 + 0x8], [A7]+
000001C8  598F                     subq.l     A7, 4
000001CA  3F3C 0355                move.w     -[A7], 0x355
000001CE  AA1E                     syscall    GetCIcon
000001D0  275F 000C                move.l     [A3 + 0xC], [A7]+
000001D4  598F                     subq.l     A7, 4
000001D6  3F3C 0356                move.w     -[A7], 0x356
000001DA  AA1E                     syscall    GetCIcon
000001DC  275F 0010                move.l     [A3 + 0x10], [A7]+
label000001E0:
000001E0  200C                     move.l     D0, A4
000001E2  4CEE 1888 FFF0           movem.l    D3,D7,A3,A4, [A6 - 0x10]
000001E8  4E5E                     unlink     A6
000001EA  4E75                     rts
000001EC  8036 5F5F 6374 5F5F 3... dc.b       "__ct__21cWeatherIndicatorItemFP6cAgentP7cWindowR4Rects"
export_615:
00000226  4E56 0000                link       A6, 0
0000022A  2F0C                     move.l     -[A7], A4
0000022C  286E 0008                movea.l    A4, [A6 + 0x8]
00000230  7000                     moveq.l    D0, 0x00
00000232  102C 0098                move.b     D0, [A4 + 0x98]
00000236  7201                     moveq.l    D1, 0x01
00000238  C200                     and.b      D1, D0
0000023A  7000                     moveq.l    D0, 0x00
0000023C  1001                     move.b     D0, D1
0000023E  4A80                     tst.l      D0
00000240  6608                     bne        +0xA /* 0000024A */
00000242  2F0C                     move.l     -[A7], A4
00000244  4EBA 021A                jsr        [PC + 0x21A /* 00000460 */]
00000248  584F                     addq.w     A7, 4
label0000024A:
0000024A  286E FFFC                movea.l    A4, [A6 - 0x4]
0000024E  4E5E                     unlink     A6
00000250  4E75                     rts
00000252  9F44 7261 775F 5F32 3... dc.b       "Draw__21cWeatherIndicatorItemFv"
export_616:
00000274  4E56 0000                link       A6, 0
00000278  48E7 1318                movem.l    -[A7], D3,D6,D7,A3,A4
0000027C  2C2E 000C                move.l     D6, [A6 + 0xC]
00000280  204D                     movea.l    A0, A5
00000282  D1FC FFFF 61B0           add.l      A0, 0xFFFF61B0
00000288  47D0                     lea.l      A3, [A0]
0000028A  286E 0008                movea.l    A4, [A6 + 0x8]
0000028E  200C                     move.l     D0, A4
00000290  6700 00A6                beq        +0xA8 /* 00000338 */
00000294  204D                     movea.l    A0, A5
00000296  D1FC FFFF 5EFC           add.l      A0, 0xFFFF5EFC
0000029C  2950 0132                move.l     [A4 + 0x132], [A0]
000002A0  206C 0064                movea.l    A0, [A4 + 0x64]
000002A4  224D                     movea.l    A1, A5
000002A6  D3FC FFFF 5EF8           add.l      A1, 0xFFFF5EF8
000002AC  2151 0008                move.l     [A0 + 0x8], [A1]
000002B0  204D                     movea.l    A0, A5
000002B2  D1FC FFFF 5EF4           add.l      A0, 0xFFFF5EF4
000002B8  2950 0070                move.l     [A4 + 0x70], [A0]
000002BC  204D                     movea.l    A0, A5
000002BE  D1FC FFFF 5EF0           add.l      A0, 0xFFFF5EF0
000002C4  2950 0088                move.l     [A4 + 0x88], [A0]
000002C8  204D                     movea.l    A0, A5
000002CA  D1FC FFFF 5EEC           add.l      A0, 0xFFFF5EEC
000002D0  2950 0060                move.l     [A4 + 0x60], [A0]
000002D4  4247                     clr.w      D7
000002D6  601C                     bra        +0x1E /* 000002F4 */
label000002D8:
000002D8  2007                     move.l     D0, D7
000002DA  E540                     asl        D0.w, 2
000002DC  204D                     movea.l    A0, A5
000002DE  D1FC FFFF 61C4           add.l      A0, 0xFFFF61C4
000002E4  2F30 0000                move.l     -[A7], [A0 + D0.w]
000002E8  AA25                     syscall    DisposeCIcon/DisposCIcon
000002EA  2F33 7400                move.l     -[A7], [A3 + D7.w * 4]
000002EE  AA25                     syscall    DisposeCIcon/DisposCIcon
000002F0  3007                     move.w     D0, D7
000002F2  5247                     addq.w     D7, 1
label000002F4:
000002F4  0C47 0005                cmpi.w     D7, 0x5
000002F8  6DDE                     blt        -0x20 /* 000002D8 */
000002FA  200C                     move.l     D0, A4
000002FC  673A                     beq        +0x3C /* 00000338 */
000002FE  7000                     moveq.l    D0, 0x00
00000300  2F00                     move.l     -[A7], D0
00000302  2F0C                     move.l     -[A7], A4
00000304  4EAD 1F8A                jsr        [A5 + 0x1F8A /* export_1005, CODE:37 @ 00001778 */]
00000308  7002                     moveq.l    D0, 0x02
0000030A  C086                     and.l      D0, D6
0000030C  6718                     beq        +0x1A /* 00000326 */
0000030E  7000                     moveq.l    D0, 0x00
00000310  2F00                     move.l     -[A7], D0
00000312  220C                     move.l     D1, A4
00000314  D2BC 0000 0160           add.l      D1, 0x160
0000031A  2F01                     move.l     -[A7], D1
0000031C  4EAD 1632                jsr        [A5 + 0x1632 /* export_706, CODE:32 @ 000036CC */]
00000320  7000                     moveq.l    D0, 0x00
00000322  504F                     addq.w     A7, 8
00000324  6002                     bra        +0x4 /* 00000328 */
label00000326:
00000326  7000                     moveq.l    D0, 0x00
label00000328:
00000328  0806 0000                btst.b     D6, 0x0
0000032C  504F                     addq.w     A7, 8
0000032E  6708                     beq        +0xA /* 00000338 */
00000330  2F0C                     move.l     -[A7], A4
00000332  4EAD 0102                jsr        [A5 + 0x102 /* export_28, CODE:1 @ 00001BE0 */]
00000336  584F                     addq.w     A7, 4
label00000338:
00000338  4CEE 18C8 FFEC           movem.l    D3,D6,D7,A3,A4, [A6 - 0x14]
0000033E  4E5E                     unlink     A6
00000340  4E75                     rts
00000342  9F5F 5F64 745F 5F32 3... dc.b       "__dt__21cWeatherIndicatorItemFv"
export_617:
00000364  4E56 0000                link       A6, 0
00000368  48E7 1108                movem.l    -[A7], D3,D7,A4
0000036C  286E 0008                movea.l    A4, [A6 + 0x8]
00000370  3E2C 015C                move.w     D7, [A4 + 0x15C]
00000374  7600                     moveq.l    D3, 0x00
00000376  6018                     bra        +0x1A /* 00000390 */
label00000378:
00000378  48C7                     ext.l      D7
0000037A  2007                     move.l     D0, D7
0000037C  5380                     subq.l     D0, 1
0000037E  41EC 0152                lea.l      A0, [A4 + 0x152]
00000382  43EC 0152                lea.l      A1, [A4 + 0x152]
00000386  13B0 0800 7000           move.b     [A1 + D7.w], [A0 + D0]
0000038C  3007                     move.w     D0, D7
0000038E  5347                     subq.w     D7, 1
label00000390:
00000390  B647                     cmp.w      D3, D7
00000392  6DE4                     blt        -0x1A /* 00000378 */
00000394  196E 000F 0152           move.b     [A4 + 0x152], [A6 + 0xF]
0000039A  2F0C                     move.l     -[A7], A4
0000039C  4EBA 00C2                jsr        [PC + 0xC2 /* 00000460 */]
000003A0  584F                     addq.w     A7, 4
000003A2  4CEE 1088 FFF4           movem.l    D3,D7,A4, [A6 - 0xC]
000003A8  4E5E                     unlink     A6
000003AA  4E75                     rts
000003AC  8034 5374 6163 6B57 6... dc.b       "StackWeather__21cWeatherIndicatorItemF12eWeatherType"
export_618:
000003E4  4E56 0000                link       A6, 0
000003E8  48E7 0108                movem.l    -[A7], D7,A4
000003EC  286E 0008                movea.l    A4, [A6 + 0x8]
000003F0  3E2C 015C                move.w     D7, [A4 + 0x15C]
000003F4  6D2C                     blt        +0x2E /* 00000422 */
label000003F6:
000003F6  204D                     movea.l    A0, A5
000003F8  D1FC FFFD CECE           add.l      A0, 0xFFFDCECE
000003FE  3010                     move.w     D0, [A0]
00000400  D047                     add.w      D0, D7
00000402  204D                     movea.l    A0, A5
00000404  D1FC FFFE D834           add.l      A0, 0xFFFED834
0000040A  322C 015C                move.w     D1, [A4 + 0x15C]
0000040E  48C1                     ext.l      D1
00000410  48C7                     ext.l      D7
00000412  9287                     sub.l      D1, D7
00000414  43EC 0152                lea.l      A1, [A4 + 0x152]
00000418  13B0 0000 1800           move.b     [A1 + D1], [A0 + D0.w]
0000041E  51CF FFD6                dbf        D7, -0x2C /* 000003F6 */
label00000422:
00000422  2F0C                     move.l     -[A7], A4
00000424  4EBA 003A                jsr        [PC + 0x3A /* 00000460 */]
00000428  584F                     addq.w     A7, 4
0000042A  4CEE 1080 FFF8           movem.l    D7,A4, [A6 - 0x8]
00000430  4E5E                     unlink     A6
00000432  4E75                     rts
00000434  8028 5570 6461 7465 5... dc.b       "UpdateWeather__21cWeatherIndicatorItemFv"
fn00000460:
00000460  4E56 FF30                link       A6, -0x00D0
00000464  48E7 0718                movem.l    -[A7], D5,D6,D7,A3,A4
00000468  286E 0008                movea.l    A4, [A6 + 0x8]
0000046C  2F3C 0100 000D           move.l     -[A7], 0x100000D
00000472  7000                     moveq.l    D0, 0x00
00000474  2F00                     move.l     -[A7], D0
00000476  486E FF30                pea.l      [A6 - 0xD0]
0000047A  4EAD 15AA                jsr        [A5 + 0x15AA /* export_689, CODE:32 @ 0000234A */]
0000047E  2F3C 0100 000A           move.l     -[A7], 0x100000A
00000484  7000                     moveq.l    D0, 0x00
00000486  2F00                     move.l     -[A7], D0
00000488  486E FF62                pea.l      [A6 - 0x9E]
0000048C  4EAD 15AA                jsr        [A5 + 0x15AA /* export_689, CODE:32 @ 0000234A */]
00000490  7000                     moveq.l    D0, 0x00
00000492  2F00                     move.l     -[A7], D0
00000494  2F00                     move.l     -[A7], D0
00000496  486E FF94                pea.l      [A6 - 0x6C]
0000049A  4EAD 15AA                jsr        [A5 + 0x15AA /* export_689, CODE:32 @ 0000234A */]
0000049E  2F3C 00FF FFFF           move.l     -[A7], 0xFFFFFF
000004A4  7000                     moveq.l    D0, 0x00
000004A6  2F00                     move.l     -[A7], D0
000004A8  486E FFC6                pea.l      [A6 - 0x3A]
000004AC  4EAD 15AA                jsr        [A5 + 0x15AA /* export_689, CODE:32 @ 0000234A */]
000004B0  206C 0102                movea.l    A0, [A4 + 0x102]
000004B4  2050                     movea.l    A0, [A0]
000004B6  43EE FFF8                lea.l      A1, [A6 - 0x8]
000004BA  5488                     addq.l     A0, 2
000004BC  22D8                     move.l     [A1]+, [A0]+
000004BE  22D8                     move.l     [A1]+, [A0]+
000004C0  2F2C 0112                move.l     -[A7], [A4 + 0x112]
000004C4  4EAD 11E2                jsr        [A5 + 0x11E2 /* export_568, CODE:26 @ 000031FA */]
000004C8  7001                     moveq.l    D0, 0x01
000004CA  3F00                     move.w     -[A7], D0
000004CC  3F00                     move.w     -[A7], D0
000004CE  A89B                     syscall    PenSize
000004D0  486E FF30                pea.l      [A6 - 0xD0]
000004D4  AA15                     syscall    RGBBackColor
000004D6  486E FFF8                pea.l      [A6 - 0x8]
000004DA  A8A3                     syscall    EraseRect
000004DC  486E FF62                pea.l      [A6 - 0x9E]
000004E0  AA14                     syscall    RGBForeColor
000004E2  2F2E FFF8                move.l     -[A7], [A6 - 0x8]
000004E6  A893                     syscall    MoveTo
000004E8  302E FFFE                move.w     D0, [A6 - 0x2]
000004EC  5340                     subq.w     D0, 1
000004EE  3F00                     move.w     -[A7], D0
000004F0  3F2E FFF8                move.w     -[A7], [A6 - 0x8]
000004F4  A891                     syscall    LineTo
000004F6  3F2E FFFA                move.w     -[A7], [A6 - 0x6]
000004FA  302E FFF8                move.w     D0, [A6 - 0x8]
000004FE  5240                     addq.w     D0, 1
00000500  3F00                     move.w     -[A7], D0
00000502  A893                     syscall    MoveTo
00000504  302E FFFE                move.w     D0, [A6 - 0x2]
00000508  5540                     subq.w     D0, 2
0000050A  3F00                     move.w     -[A7], D0
0000050C  302E FFF8                move.w     D0, [A6 - 0x8]
00000510  5240                     addq.w     D0, 1
00000512  3F00                     move.w     -[A7], D0
00000514  A891                     syscall    LineTo
00000516  2F2E FFF8                move.l     -[A7], [A6 - 0x8]
0000051A  A893                     syscall    MoveTo
0000051C  3F2E FFFA                move.w     -[A7], [A6 - 0x6]
00000520  302E FFFC                move.w     D0, [A6 - 0x4]
00000524  5340                     subq.w     D0, 1
00000526  3F00                     move.w     -[A7], D0
00000528  A891                     syscall    LineTo
0000052A  302E FFFA                move.w     D0, [A6 - 0x6]
0000052E  5240                     addq.w     D0, 1
00000530  3F00                     move.w     -[A7], D0
00000532  3F2E FFF8                move.w     -[A7], [A6 - 0x8]
00000536  A893                     syscall    MoveTo
00000538  302E FFFA                move.w     D0, [A6 - 0x6]
0000053C  5240                     addq.w     D0, 1
0000053E  3F00                     move.w     -[A7], D0
00000540  302E FFFC                move.w     D0, [A6 - 0x4]
00000544  5540                     subq.w     D0, 2
00000546  3F00                     move.w     -[A7], D0
00000548  A891                     syscall    LineTo
0000054A  486E FFC6                pea.l      [A6 - 0x3A]
0000054E  AA14                     syscall    RGBForeColor
00000550  302E FFFA                move.w     D0, [A6 - 0x6]
00000554  5240                     addq.w     D0, 1
00000556  3F00                     move.w     -[A7], D0
00000558  3F2E FFFC                move.w     -[A7], [A6 - 0x4]
0000055C  A893                     syscall    MoveTo
0000055E  2F2E FFFC                move.l     -[A7], [A6 - 0x4]
00000562  A891                     syscall    LineTo
00000564  302E FFFA                move.w     D0, [A6 - 0x6]
00000568  5440                     addq.w     D0, 2
0000056A  3F00                     move.w     -[A7], D0
0000056C  302E FFFC                move.w     D0, [A6 - 0x4]
00000570  5340                     subq.w     D0, 1
00000572  3F00                     move.w     -[A7], D0
00000574  A893                     syscall    MoveTo
00000576  3F2E FFFE                move.w     -[A7], [A6 - 0x2]
0000057A  302E FFFC                move.w     D0, [A6 - 0x4]
0000057E  5340                     subq.w     D0, 1
00000580  3F00                     move.w     -[A7], D0
00000582  A891                     syscall    LineTo
00000584  3F2E FFFE                move.w     -[A7], [A6 - 0x2]
00000588  302E FFF8                move.w     D0, [A6 - 0x8]
0000058C  5240                     addq.w     D0, 1
0000058E  3F00                     move.w     -[A7], D0
00000590  A893                     syscall    MoveTo
00000592  2F2E FFFC                move.l     -[A7], [A6 - 0x4]
00000596  A891                     syscall    LineTo
00000598  302E FFFE                move.w     D0, [A6 - 0x2]
0000059C  5340                     subq.w     D0, 1
0000059E  3F00                     move.w     -[A7], D0
000005A0  302E FFF8                move.w     D0, [A6 - 0x8]
000005A4  5440                     addq.w     D0, 2
000005A6  3F00                     move.w     -[A7], D0
000005A8  A893                     syscall    MoveTo
000005AA  302E FFFE                move.w     D0, [A6 - 0x2]
000005AE  5340                     subq.w     D0, 1
000005B0  3F00                     move.w     -[A7], D0
000005B2  3F2E FFFC                move.w     -[A7], [A6 - 0x4]
000005B6  A891                     syscall    LineTo
000005B8  546E FFF8                addq.w     [A6 - 0x8], 2
000005BC  546E FFFA                addq.w     [A6 - 0x6], 2
000005C0  302E FFF8                move.w     D0, [A6 - 0x8]
000005C4  D07C 0010                add.w      D0, 0x10
000005C8  3D40 FFFC                move.w     [A6 - 0x4], D0
000005CC  302E FFFA                move.w     D0, [A6 - 0x6]
000005D0  D07C 0010                add.w      D0, 0x10
000005D4  3D40 FFFE                move.w     [A6 - 0x2], D0
000005D8  486E FF94                pea.l      [A6 - 0x6C]
000005DC  AA14                     syscall    RGBForeColor
000005DE  4A2C 015E                tst.b      [A4 + 0x15E]
000005E2  4FEF 0034                lea.l      A7, [A7 + 0x34]
000005E6  6778                     beq        +0x7A /* 00000660 */
000005E8  3E2C 015C                move.w     D7, [A4 + 0x15C]
000005EC  6D00 017C                blt        +0x17E /* 0000076A */
label000005F0:
000005F0  7000                     moveq.l    D0, 0x00
000005F2  41EC 0152                lea.l      A0, [A4 + 0x152]
000005F6  1030 7000                move.b     D0, [A0 + D7.w]
000005FA  4A80                     tst.l      D0
000005FC  6510                     bcs        +0x12 /* 0000060E */
000005FE  7000                     moveq.l    D0, 0x00
00000600  41EC 0152                lea.l      A0, [A4 + 0x152]
00000604  1030 7000                move.b     D0, [A0 + D7.w]
00000608  0C00 0004                cmpi.b     D0, 0x4
0000060C  6318                     bls        +0x1A /* 00000626 */
label0000060E:
0000060E  204D                     movea.l    A0, A5
00000610  D1FC FFFF 61C4           add.l      A0, 0xFFFF61C4
00000616  2650                     movea.l    A3, [A0]
00000618  200B                     move.l     D0, A3
0000061A  672E                     beq        +0x30 /* 0000064A */
0000061C  486E FFF8                pea.l      [A6 - 0x8]
00000620  2F0B                     move.l     -[A7], A3
00000622  AA1F                     syscall    PlotCIcon
00000624  6024                     bra        +0x26 /* 0000064A */
label00000626:
00000626  7000                     moveq.l    D0, 0x00
00000628  41EC 0152                lea.l      A0, [A4 + 0x152]
0000062C  1030 7000                move.b     D0, [A0 + D7.w]
00000630  E540                     asl        D0.w, 2
00000632  204D                     movea.l    A0, A5
00000634  D1FC FFFF 61C4           add.l      A0, 0xFFFF61C4
0000063A  2670 0000                movea.l    A3, [A0 + D0.w]
0000063E  200B                     move.l     D0, A3
00000640  6708                     beq        +0xA /* 0000064A */
00000642  486E FFF8                pea.l      [A6 - 0x8]
00000646  2F0B                     move.l     -[A7], A3
00000648  AA1F                     syscall    PlotCIcon
label0000064A:
0000064A  486E FFF8                pea.l      [A6 - 0x8]
0000064E  7010                     moveq.l    D0, 0x10
00000650  3F00                     move.w     -[A7], D0
00000652  7200                     moveq.l    D1, 0x00
00000654  3F01                     move.w     -[A7], D1
00000656  A8A8                     syscall    OffsetRect
00000658  51CF FF96                dbf        D7, -0x6C /* 000005F0 */
0000065C  6000 010C                bra        +0x10E /* 0000076A */
label00000660:
00000660  204D                     movea.l    A0, A5
00000662  D1FC FFFF 82F6           add.l      A0, 0xFFFF82F6
00000668  3010                     move.w     D0, [A0]
0000066A  C1FC 003A                muls.w     D0, 0x3A /* ':' */
0000066E  204D                     movea.l    A0, A5
00000670  D1FC FFFE 9F9C           add.l      A0, 0xFFFE9F9C
00000676  3030 0014                move.w     D0, [A0 + D0.w + 0x14]
0000067A  48C0                     ext.l      D0
0000067C  81FC 0032                divs.w     D0, 0x32 /* '2' */
00000680  3A00                     move.w     D5, D0
00000682  204D                     movea.l    A0, A5
00000684  D1FC FFFF 82F6           add.l      A0, 0xFFFF82F6
0000068A  3010                     move.w     D0, [A0]
0000068C  C1FC 003A                muls.w     D0, 0x3A /* ':' */
00000690  204D                     movea.l    A0, A5
00000692  D1FC FFFE 9F9C           add.l      A0, 0xFFFE9F9C
00000698  7200                     moveq.l    D1, 0x00
0000069A  3230 0022                move.w     D1, [A0 + D0.w + 0x22]
0000069E  4A81                     tst.l      D1
000006A0  4C7C 1801 0000 0032      divu.l     D2:D0, 0x18010000
000006A8  3C01                     move.w     D6, D1
000006AA  204D                     movea.l    A0, A5
000006AC  D1FC FFFF 82F6           add.l      A0, 0xFFFF82F6
000006B2  3010                     move.w     D0, [A0]
000006B4  C1FC 003A                muls.w     D0, 0x3A /* ':' */
000006B8  204D                     movea.l    A0, A5
000006BA  D1FC FFFE 9F9C           add.l      A0, 0xFFFE9F9C
000006C0  7200                     moveq.l    D1, 0x00
000006C2  1230 0011                move.b     D1, [A0 + D0.w + 0x11]
000006C6  48C1                     ext.l      D1
000006C8  83FC 0032                divs.w     D1, 0x32 /* '2' */
000006CC  3E01                     move.w     D7, D1
000006CE  0C45 0004                cmpi.w     D5, 0x4
000006D2  6F02                     ble        +0x4 /* 000006D6 */
000006D4  7A04                     moveq.l    D5, 0x04
label000006D6:
000006D6  0C46 0004                cmpi.w     D6, 0x4
000006DA  6F02                     ble        +0x4 /* 000006DE */
000006DC  7C04                     moveq.l    D6, 0x04
label000006DE:
000006DE  0C47 0004                cmpi.w     D7, 0x4
000006E2  6F02                     ble        +0x4 /* 000006E6 */
000006E4  7E04                     moveq.l    D7, 0x04
label000006E6:
000006E6  7004                     moveq.l    D0, 0x04
000006E8  9047                     sub.w      D0, D7
000006EA  3E00                     move.w     D7, D0
000006EC  2005                     move.l     D0, D5
000006EE  E540                     asl        D0.w, 2
000006F0  204D                     movea.l    A0, A5
000006F2  D1FC FFFF 61B0           add.l      A0, 0xFFFF61B0
000006F8  2670 0000                movea.l    A3, [A0 + D0.w]
000006FC  200B                     move.l     D0, A3
000006FE  6716                     beq        +0x18 /* 00000716 */
00000700  486E FFF8                pea.l      [A6 - 0x8]
00000704  2F0B                     move.l     -[A7], A3
00000706  AA1F                     syscall    PlotCIcon
00000708  486E FFF8                pea.l      [A6 - 0x8]
0000070C  7010                     moveq.l    D0, 0x10
0000070E  3F00                     move.w     -[A7], D0
00000710  7200                     moveq.l    D1, 0x00
00000712  3F01                     move.w     -[A7], D1
00000714  A8A8                     syscall    OffsetRect
label00000716:
00000716  2006                     move.l     D0, D6
00000718  E540                     asl        D0.w, 2
0000071A  204D                     movea.l    A0, A5
0000071C  D1FC FFFF 61B0           add.l      A0, 0xFFFF61B0
00000722  2670 0000                movea.l    A3, [A0 + D0.w]
00000726  200B                     move.l     D0, A3
00000728  6716                     beq        +0x18 /* 00000740 */
0000072A  486E FFF8                pea.l      [A6 - 0x8]
0000072E  2F0B                     move.l     -[A7], A3
00000730  AA1F                     syscall    PlotCIcon
00000732  486E FFF8                pea.l      [A6 - 0x8]
00000736  7010                     moveq.l    D0, 0x10
00000738  3F00                     move.w     -[A7], D0
0000073A  7200                     moveq.l    D1, 0x00
0000073C  3F01                     move.w     -[A7], D1
0000073E  A8A8                     syscall    OffsetRect
label00000740:
00000740  2007                     move.l     D0, D7
00000742  E540                     asl        D0.w, 2
00000744  204D                     movea.l    A0, A5
00000746  D1FC FFFF 61B0           add.l      A0, 0xFFFF61B0
0000074C  2670 0000                movea.l    A3, [A0 + D0.w]
00000750  200B                     move.l     D0, A3
00000752  6716                     beq        +0x18 /* 0000076A */
00000754  486E FFF8                pea.l      [A6 - 0x8]
00000758  2F0B                     move.l     -[A7], A3
0000075A  AA1F                     syscall    PlotCIcon
0000075C  486E FFF8                pea.l      [A6 - 0x8]
00000760  7010                     moveq.l    D0, 0x10
00000762  3F00                     move.w     -[A7], D0
00000764  7200                     moveq.l    D1, 0x00
00000766  3F01                     move.w     -[A7], D1
00000768  A8A8                     syscall    OffsetRect
label0000076A:
0000076A  2F2C 0112                move.l     -[A7], [A4 + 0x112]
0000076E  4EAD 11EA                jsr        [A5 + 0x11EA /* export_569, CODE:26 @ 00003268 */]
00000772  7002                     moveq.l    D0, 0x02
00000774  2F00                     move.l     -[A7], D0
00000776  486E FFC6                pea.l      [A6 - 0x3A]
0000077A  4EAD 15D2                jsr        [A5 + 0x15D2 /* export_694, CODE:32 @ 000029D6 */]
0000077E  7002                     moveq.l    D0, 0x02
00000780  2F00                     move.l     -[A7], D0
00000782  486E FF94                pea.l      [A6 - 0x6C]
00000786  4EAD 15D2                jsr        [A5 + 0x15D2 /* export_694, CODE:32 @ 000029D6 */]
0000078A  7002                     moveq.l    D0, 0x02
0000078C  2F00                     move.l     -[A7], D0
0000078E  486E FF62                pea.l      [A6 - 0x9E]
00000792  4EAD 15D2                jsr        [A5 + 0x15D2 /* export_694, CODE:32 @ 000029D6 */]
00000796  7002                     moveq.l    D0, 0x02
00000798  2F00                     move.l     -[A7], D0
0000079A  486E FF30                pea.l      [A6 - 0xD0]
0000079E  4EAD 15D2                jsr        [A5 + 0x15D2 /* export_694, CODE:32 @ 000029D6 */]
000007A2  4FEF 0024                lea.l      A7, [A7 + 0x24]
000007A6  4CEE 18E0 FF1C           movem.l    D5,D6,D7,A3,A4, [A6 - 0xE4]
000007AC  4E5E                     unlink     A6
000007AE  4E75                     rts
000007B0  802F 4472 6177 496E 6... dc.b       "DrawIndicatorPattern__21cWeatherIndicatorItemFv"
export_619:
000007E4  4E56 0000                link       A6, 0
000007E8  4E5E                     unlink     A6
000007EA  4E75                     rts
000007EC  802C 4D6F 7573 6544 6... dc.b       "MouseDown__21cWeatherIndicatorItemF5PointlT2"
fn0000081C:
0000081C  4E56 0000                link       A6, 0
00000820  48E7 0318                movem.l    -[A7], D6,D7,A3,A4
00000824  286E 0008                movea.l    A4, [A6 + 0x8]
00000828  598F                     subq.l     A7, 4
0000082A  AA2A                     syscall    GetMainDevice
0000082C  265F                     movea.l    A3, [A7]+
0000082E  558F                     subq.l     A7, 2
00000830  2F0B                     move.l     -[A7], A3
00000832  7008                     moveq.l    D0, 0x08
00000834  3F00                     move.w     -[A7], D0
00000836  7200                     moveq.l    D1, 0x00
00000838  3F01                     move.w     -[A7], D1
0000083A  3F01                     move.w     -[A7], D1
0000083C  303C 0A14                move.w     D0, 0xA14
00000840  AAA2                     syscall    PaletteDispatch
00000842  3E1F                     move.w     D7, [A7]+
00000844  558F                     subq.l     A7, 2
00000846  2F0B                     move.l     -[A7], A3
00000848  7001                     moveq.l    D0, 0x01
0000084A  3F00                     move.w     -[A7], D0
0000084C  7200                     moveq.l    D1, 0x00
0000084E  3F01                     move.w     -[A7], D1
00000850  3F01                     move.w     -[A7], D1
00000852  303C 0A14                move.w     D0, 0xA14
00000856  AAA2                     syscall    PaletteDispatch
00000858  3C1F                     move.w     D6, [A7]+
0000085A  2F0B                     move.l     -[A7], A3
0000085C  4EAD 1882                jsr        [A5 + 0x1882 /* export_780, CODE:32 @ 00006162 */]
00000860  3940 0184                move.w     [A4 + 0x184], D0
00000864  422C 0139                clr.b      [A4 + 0x139]
00000868  397C 0001 0186           move.w     [A4 + 0x186], 0x1
0000086E  4A47                     tst.w      D7
00000870  584F                     addq.w     A7, 4
00000872  6700 008E                beq        +0x90 /* 00000902 */
00000876  7008                     moveq.l    D0, 0x08
00000878  B06C 0184                cmp.w      D0, [A4 + 0x184]
0000087C  677A                     beq        +0x7C /* 000008F8 */
0000087E  204D                     movea.l    A0, A5
00000880  D1FC FFFF 7216           add.l      A0, 0xFFFF7216
00000886  4850                     pea.l      [A0]
00000888  204D                     movea.l    A0, A5
0000088A  D1FC FFFF 7222           add.l      A0, 0xFFFF7222
00000890  4850                     pea.l      [A0]
00000892  204D                     movea.l    A0, A5
00000894  D1FC FFFF 7224           add.l      A0, 0xFFFF7224
0000089A  4850                     pea.l      [A0]
0000089C  204D                     movea.l    A0, A5
0000089E  D1FC FFFF 7226           add.l      A0, 0xFFFF7226
000008A4  4850                     pea.l      [A0]
000008A6  A98B                     syscall    ParamText
000008A8  558F                     subq.l     A7, 2
000008AA  3F3C 03EC                move.w     -[A7], 0x3EC
000008AE  7000                     moveq.l    D0, 0x00
000008B0  2F00                     move.l     -[A7], D0
000008B2  A985                     syscall    Alert
000008B4  3E1F                     move.w     D7, [A7]+
000008B6  0C47 0002                cmpi.w     D7, 0x2
000008BA  660A                     bne        +0xC /* 000008C6 */
000008BC  2F0B                     move.l     -[A7], A3
000008BE  A9A3                     syscall    ReleaseResource
000008C0  7000                     moveq.l    D0, 0x00
000008C2  6000 00E2                bra        +0xE4 /* 000009A6 */
label000008C6:
000008C6  0C47 0003                cmpi.w     D7, 0x3
000008CA  660A                     bne        +0xC /* 000008D6 */
000008CC  2F0B                     move.l     -[A7], A3
000008CE  A9A3                     syscall    ReleaseResource
000008D0  7001                     moveq.l    D0, 0x01
000008D2  6000 00D2                bra        +0xD4 /* 000009A6 */
label000008D6:
000008D6  558F                     subq.l     A7, 2
000008D8  2F0B                     move.l     -[A7], A3
000008DA  7008                     moveq.l    D0, 0x08
000008DC  3F00                     move.w     -[A7], D0
000008DE  7200                     moveq.l    D1, 0x00
000008E0  3F01                     move.w     -[A7], D1
000008E2  3F01                     move.w     -[A7], D1
000008E4  303C 0A13                move.w     D0, 0xA13
000008E8  AAA2                     syscall    PaletteDispatch
000008EA  4A5F                     tst.w      [A7]+
000008EC  670A                     beq        +0xC /* 000008F8 */
000008EE  2F0B                     move.l     -[A7], A3
000008F0  A9A3                     syscall    ReleaseResource
000008F2  7000                     moveq.l    D0, 0x00
000008F4  6000 00B0                bra        +0xB2 /* 000009A6 */
label000008F8:
000008F8  397C 0002 0186           move.w     [A4 + 0x186], 0x2
000008FE  6000 009A                bra        +0x9C /* 0000099A */
label00000902:
00000902  4A46                     tst.w      D6
00000904  677E                     beq        +0x80 /* 00000984 */
00000906  7001                     moveq.l    D0, 0x01
00000908  B06C 0184                cmp.w      D0, [A4 + 0x184]
0000090C  6700 008C                beq        +0x8E /* 0000099A */
00000910  204D                     movea.l    A0, A5
00000912  D1FC FFFF 7228           add.l      A0, 0xFFFF7228
00000918  4850                     pea.l      [A0]
0000091A  204D                     movea.l    A0, A5
0000091C  D1FC FFFF 723A           add.l      A0, 0xFFFF723A
00000922  4850                     pea.l      [A0]
00000924  204D                     movea.l    A0, A5
00000926  D1FC FFFF 723C           add.l      A0, 0xFFFF723C
0000092C  4850                     pea.l      [A0]
0000092E  204D                     movea.l    A0, A5
00000930  D1FC FFFF 723E           add.l      A0, 0xFFFF723E
00000936  4850                     pea.l      [A0]
00000938  A98B                     syscall    ParamText
0000093A  558F                     subq.l     A7, 2
0000093C  3F3C 03EC                move.w     -[A7], 0x3EC
00000940  7000                     moveq.l    D0, 0x00
00000942  2F00                     move.l     -[A7], D0
00000944  A985                     syscall    Alert
00000946  3E1F                     move.w     D7, [A7]+
00000948  0C47 0002                cmpi.w     D7, 0x2
0000094C  6608                     bne        +0xA /* 00000956 */
0000094E  2F0B                     move.l     -[A7], A3
00000950  A9A3                     syscall    ReleaseResource
00000952  7000                     moveq.l    D0, 0x00
00000954  6050                     bra        +0x52 /* 000009A6 */
label00000956:
00000956  0C47 0003                cmpi.w     D7, 0x3
0000095A  6608                     bne        +0xA /* 00000964 */
0000095C  2F0B                     move.l     -[A7], A3
0000095E  A9A3                     syscall    ReleaseResource
00000960  7001                     moveq.l    D0, 0x01
00000962  6042                     bra        +0x44 /* 000009A6 */
label00000964:
00000964  558F                     subq.l     A7, 2
00000966  2F0B                     move.l     -[A7], A3
00000968  7001                     moveq.l    D0, 0x01
0000096A  3F00                     move.w     -[A7], D0
0000096C  7200                     moveq.l    D1, 0x00
0000096E  3F01                     move.w     -[A7], D1
00000970  3F01                     move.w     -[A7], D1
00000972  303C 0A13                move.w     D0, 0xA13
00000976  AAA2                     syscall    PaletteDispatch
00000978  4A5F                     tst.w      [A7]+
0000097A  671E                     beq        +0x20 /* 0000099A */
0000097C  2F0B                     move.l     -[A7], A3
0000097E  A9A3                     syscall    ReleaseResource
00000980  7000                     moveq.l    D0, 0x00
00000982  6022                     bra        +0x24 /* 000009A6 */
label00000984:
00000984  558F                     subq.l     A7, 2
00000986  3F3C 03ED                move.w     -[A7], 0x3ED
0000098A  7000                     moveq.l    D0, 0x00
0000098C  2F00                     move.l     -[A7], D0
0000098E  A985                     syscall    Alert
00000990  3E1F                     move.w     D7, [A7]+
00000992  2F0B                     move.l     -[A7], A3
00000994  A9A3                     syscall    ReleaseResource
00000996  7000                     moveq.l    D0, 0x00
00000998  600C                     bra        +0xE /* 000009A6 */
label0000099A:
0000099A  2F0B                     move.l     -[A7], A3
0000099C  A9A3                     syscall    ReleaseResource
0000099E  197C 0001 0139           move.b     [A4 + 0x139], 0x1
000009A4  7001                     moveq.l    D0, 0x01
label000009A6:
000009A6  4CEE 18C0 FFF0           movem.l    D6,D7,A3,A4, [A6 - 0x10]
000009AC  4E5E                     unlink     A6
000009AE  4E75                     rts
000009B0  8025 4368 6563 6B4D 6... dc.b       "CheckMonitorBitDepth__11cSIMFarmAppFv"
fn000009DA:
000009DA  4E56 0000                link       A6, 0
000009DE  48E7 0018                movem.l    -[A7], A3,A4
000009E2  266E 0008                movea.l    A3, [A6 + 0x8]
000009E6  4A2B 0139                tst.b      [A3 + 0x139]
000009EA  6720                     beq        +0x22 /* 00000A0C */
000009EC  598F                     subq.l     A7, 4
000009EE  AA2A                     syscall    GetMainDevice
000009F0  285F                     movea.l    A4, [A7]+
000009F2  558F                     subq.l     A7, 2
000009F4  2F0C                     move.l     -[A7], A4
000009F6  3F2B 0184                move.w     -[A7], [A3 + 0x184]
000009FA  7000                     moveq.l    D0, 0x00
000009FC  3F00                     move.w     -[A7], D0
000009FE  3F00                     move.w     -[A7], D0
00000A00  303C 0A13                move.w     D0, 0xA13
00000A04  AAA2                     syscall    PaletteDispatch
00000A06  4A5F                     tst.w      [A7]+
00000A08  2F0C                     move.l     -[A7], A4
00000A0A  A9A3                     syscall    ReleaseResource
label00000A0C:
00000A0C  4CEE 1800 FFF8           movem.l    A3,A4, [A6 - 0x8]
00000A12  4E5E                     unlink     A6
00000A14  4E75                     rts
00000A16  8027 5265 7374 6F72 6... dc.b       "RestoreMonitorBitDepth__11cSIMFarmAppFv"
export_620:
00000A42  4E56 FFC0                link       A6, -0x0040
00000A46  48E7 1318                movem.l    -[A7], D3,D6,D7,A3,A4
00000A4A  266E 000C                movea.l    A3, [A6 + 0xC]
00000A4E  286E 0008                movea.l    A4, [A6 + 0x8]
00000A52  200C                     move.l     D0, A4
00000A54  6612                     bne        +0x14 /* 00000A68 */
00000A56  4878 01BE                push.l     0x1BE
00000A5A  4EAD 010A                jsr        [A5 + 0x10A /* export_29, CODE:1 @ 00001C0A */]
00000A5E  2840                     movea.l    A4, D0
00000A60  200C                     move.l     D0, A4
00000A62  584F                     addq.w     A7, 4
00000A64  6700 0386                beq        +0x388 /* 00000DEC */
label00000A68:
00000A68  200B                     move.l     D0, A3
00000A6A  57C3                     seq        D3
00000A6C  4403                     neg.b      D3
00000A6E  674E                     beq        +0x50 /* 00000ABE */
00000A70  264C                     movea.l    A3, A4
00000A72  47EB 01B2                lea.l      A3, [A3 + 0x1B2]
00000A76  7601                     moveq.l    D3, 0x01
00000A78  200C                     move.l     D0, A4
00000A7A  D0BC 0000 01B2           add.l      D0, 0x1B2
00000A80  6614                     bne        +0x16 /* 00000A96 */
00000A82  2F03                     move.l     -[A7], D3
00000A84  700C                     moveq.l    D0, 0x0C
00000A86  2F00                     move.l     -[A7], D0
00000A88  4EAD 010A                jsr        [A5 + 0x10A /* export_29, CODE:1 @ 00001C0A */]
00000A8C  588F                     addq.l     A7, 4
00000A8E  261F                     move.l     D3, [A7]+
00000A90  4A80                     tst.l      D0
00000A92  6602                     bne        +0x4 /* 00000A96 */
00000A94  7600                     moveq.l    D3, 0x00
label00000A96:
00000A96  4A03                     tst.b      D3
00000A98  6718                     beq        +0x1A /* 00000AB2 */
00000A9A  204D                     movea.l    A0, A5
00000A9C  D1FC FFFF 7392           add.l      A0, 0xFFFF7392
00000AA2  2950 01BA                move.l     [A4 + 0x1BA], [A0]
00000AA6  7000                     moveq.l    D0, 0x00
00000AA8  2940 01B2                move.l     [A4 + 0x1B2], D0
00000AAC  2940 01B6                move.l     [A4 + 0x1B6], D0
00000AB0  6002                     bra        +0x4 /* 00000AB4 */
label00000AB2:
00000AB2  7000                     moveq.l    D0, 0x00
label00000AB4:
00000AB4  200C                     move.l     D0, A4
00000AB6  D0BC 0000 01B2           add.l      D0, 0x1B2
00000ABC  6002                     bra        +0x4 /* 00000AC0 */
label00000ABE:
00000ABE  200B                     move.l     D0, A3
label00000AC0:
00000AC0  2F3C 0000 8000           move.l     -[A7], 0x8000
00000AC6  4878 0080                push.l     0x80
00000ACA  2F0B                     move.l     -[A7], A3
00000ACC  2F0C                     move.l     -[A7], A4
00000ACE  4EAD 150A                jsr        [A5 + 0x150A /* export_669, CODE:32 @ 00000AC0 */]
00000AD2  204D                     movea.l    A0, A5
00000AD4  D1FC FFFF 7396           add.l      A0, 0xFFFF7396
00000ADA  2950 0060                move.l     [A4 + 0x60], [A0]
00000ADE  206C 0064                movea.l    A0, [A4 + 0x64]
00000AE2  224D                     movea.l    A1, A5
00000AE4  D3FC FFFF 739A           add.l      A1, 0xFFFF739A
00000AEA  2151 0008                move.l     [A0 + 0x8], [A1]
00000AEE  7000                     moveq.l    D0, 0x00
00000AF0  2F00                     move.l     -[A7], D0
00000AF2  2F00                     move.l     -[A7], D0
00000AF4  486C 0194                pea.l      [A4 + 0x194]
00000AF8  4EAD 1772                jsr        [A5 + 0x1772 /* export_746, CODE:32 @ 00004CE0 */]
00000AFC  7001                     moveq.l    D0, 0x01
00000AFE  2F00                     move.l     -[A7], D0
00000B00  7202                     moveq.l    D1, 0x02
00000B02  2F01                     move.l     -[A7], D1
00000B04  7005                     moveq.l    D0, 0x05
00000B06  2F00                     move.l     -[A7], D0
00000B08  7008                     moveq.l    D0, 0x08
00000B0A  2F00                     move.l     -[A7], D0
00000B0C  4EAD 0222                jsr        [A5 + 0x222 /* export_64, CODE:1 @ 000055F2 */]
00000B10  3E00                     move.w     D7, D0
00000B12  7001                     moveq.l    D0, 0x01
00000B14  2F00                     move.l     -[A7], D0
00000B16  204D                     movea.l    A0, A5
00000B18  D1FC FFFF 786C           add.l      A0, 0xFFFF786C
00000B1E  4850                     pea.l      [A0]
00000B20  4EAD 01DA                jsr        [A5 + 0x1DA /* export_55, CODE:1 @ 00004178 */]
00000B24  7000                     moveq.l    D0, 0x00
00000B26  2F00                     move.l     -[A7], D0
00000B28  204D                     movea.l    A0, A5
00000B2A  D1FC FFFF 7240           add.l      A0, 0xFFFF7240
00000B30  4850                     pea.l      [A0]
00000B32  4EAD 073A                jsr        [A5 + 0x73A /* export_227, CODE:12 @ 00004474 */]
00000B36  204D                     movea.l    A0, A5
00000B38  D1FC FFFF 7868           add.l      A0, 0xFFFF7868
00000B3E  208C                     move.l     [A0], A4
00000B40  296E 0010 018C           move.l     [A4 + 0x18C], [A6 + 0x10]
00000B46  296E 0014 0190           move.l     [A4 + 0x190], [A6 + 0x14]
00000B4C  426C 018A                clr.w      [A4 + 0x18A]
00000B50  422C 0132                clr.b      [A4 + 0x132]
00000B54  197C 0001 0133           move.b     [A4 + 0x133], 0x1
00000B5A  422C 0138                clr.b      [A4 + 0x138]
00000B5E  397C FFFF 0188           move.w     [A4 + 0x188], 0xFFFF
00000B64  297C 0000 2000 0074      move.l     [A4 + 0x74], 0x2000 /* ' \0' */
00000B6C  2F0C                     move.l     -[A7], A4
00000B6E  4EBA FCAC                jsr        [PC - 0x354 /* 0000081C */]
00000B72  4A00                     tst.b      D0
00000B74  4FEF 0040                lea.l      A7, [A7 + 0x40]
00000B78  6612                     bne        +0x14 /* 00000B8C */
00000B7A  204D                     movea.l    A0, A5
00000B7C  D1FC FFFF 77B0           add.l      A0, 0xFFFF77B0
00000B82  10BC 0001                move.b     [A0], 0x1
00000B86  200C                     move.l     D0, A4
00000B88  6000 0264                bra        +0x266 /* 00000DEE */
label00000B8C:
00000B8C  7000                     moveq.l    D0, 0x00
00000B8E  2F00                     move.l     -[A7], D0
00000B90  4EBA 2038                jsr        [PC + 0x2038 /* 00002BCA */]
00000B94  0C80 0001 9000           cmpi.l     D0, 0x19000
00000B9A  584F                     addq.w     A7, 4
00000B9C  6C20                     bge        +0x22 /* 00000BBE */
00000B9E  558F                     subq.l     A7, 2
00000BA0  3F3C 03EF                move.w     -[A7], 0x3EF
00000BA4  7000                     moveq.l    D0, 0x00
00000BA6  2F00                     move.l     -[A7], D0
00000BA8  A985                     syscall    Alert
00000BAA  3E1F                     move.w     D7, [A7]+
00000BAC  204D                     movea.l    A0, A5
00000BAE  D1FC FFFF 77B0           add.l      A0, 0xFFFF77B0
00000BB4  10BC 0001                move.b     [A0], 0x1
00000BB8  200C                     move.l     D0, A4
00000BBA  6000 0232                bra        +0x234 /* 00000DEE */
label00000BBE:
00000BBE  558F                     subq.l     A7, 2
00000BC0  A994                     syscall    CurResFile
00000BC2  3E1F                     move.w     D7, [A7]+
00000BC4  7000                     moveq.l    D0, 0x00
00000BC6  2F00                     move.l     -[A7], D0
00000BC8  2F00                     move.l     -[A7], D0
00000BCA  486E FFE2                pea.l      [A6 - 0x1E]
00000BCE  4EAD 1772                jsr        [A5 + 0x1772 /* export_746, CODE:32 @ 00004CE0 */]
00000BD2  7001                     moveq.l    D0, 0x01
00000BD4  B06C 0186                cmp.w      D0, [A4 + 0x186]
00000BD8  4FEF 000C                lea.l      A7, [A7 + 0xC]
00000BDC  662C                     bne        +0x2E /* 00000C0A */
00000BDE  486E FFE2                pea.l      [A6 - 0x1E]
00000BE2  4EAD 1782                jsr        [A5 + 0x1782 /* export_748, CODE:32 @ 00004E1E */]
00000BE6  4206                     clr.b      D6
00000BE8  7000                     moveq.l    D0, 0x00
00000BEA  1006                     move.b     D0, D6
00000BEC  2F00                     move.l     -[A7], D0
00000BEE  2F2E FFF6                move.l     -[A7], [A6 - 0xA]
00000BF2  204D                     movea.l    A0, A5
00000BF4  D1FC FFFF 724C           add.l      A0, 0xFFFF724C
00000BFA  4850                     pea.l      [A0]
00000BFC  486E FFE2                pea.l      [A6 - 0x1E]
00000C00  4EAD 178A                jsr        [A5 + 0x178A /* export_749, CODE:32 @ 00004E80 */]
00000C04  4FEF 0014                lea.l      A7, [A7 + 0x14]
00000C08  602A                     bra        +0x2C /* 00000C34 */
label00000C0A:
00000C0A  486E FFE2                pea.l      [A6 - 0x1E]
00000C0E  4EAD 1782                jsr        [A5 + 0x1782 /* export_748, CODE:32 @ 00004E1E */]
00000C12  4206                     clr.b      D6
00000C14  7000                     moveq.l    D0, 0x00
00000C16  1006                     move.b     D0, D6
00000C18  2F00                     move.l     -[A7], D0
00000C1A  2F2E FFF6                move.l     -[A7], [A6 - 0xA]
00000C1E  204D                     movea.l    A0, A5
00000C20  D1FC FFFF 7266           add.l      A0, 0xFFFF7266
00000C26  4850                     pea.l      [A0]
00000C28  486E FFE2                pea.l      [A6 - 0x1E]
00000C2C  4EAD 178A                jsr        [A5 + 0x178A /* export_749, CODE:32 @ 00004E80 */]
00000C30  4FEF 0014                lea.l      A7, [A7 + 0x14]
label00000C34:
00000C34  558F                     subq.l     A7, 2
00000C36  486E FFE2                pea.l      [A6 - 0x1E]
00000C3A  4EAD 1792                jsr        [A5 + 0x1792 /* export_750, CODE:32 @ 000050C2 */]
00000C3E  224D                     movea.l    A1, A5
00000C40  D3FC FFFF FB4A           add.l      A1, 0xFFFFFB4A
00000C46  41D1                     lea.l      A0, [A1]
00000C48  588F                     addq.l     A7, 4
00000C4A  2F08                     move.l     -[A7], A0
00000C4C  A997                     syscall    OpenResFile
00000C4E  395F 0188                move.w     [A4 + 0x188], [A7]+
00000C52  70FF                     moveq.l    D0, 0xFFFFFFFF
00000C54  B06C 0188                cmp.w      D0, [A4 + 0x188]
00000C58  6664                     bne        +0x66 /* 00000CBE */
00000C5A  486E FFE2                pea.l      [A6 - 0x1E]
00000C5E  4EAD 1792                jsr        [A5 + 0x1792 /* export_750, CODE:32 @ 000050C2 */]
00000C62  224D                     movea.l    A1, A5
00000C64  D3FC FFFF FB4A           add.l      A1, 0xFFFFFB4A
00000C6A  41D1                     lea.l      A0, [A1]
00000C6C  588F                     addq.l     A7, 4
00000C6E  2F08                     move.l     -[A7], A0
00000C70  204D                     movea.l    A0, A5
00000C72  D1FC FFFF 727A           add.l      A0, 0xFFFF727A
00000C78  4850                     pea.l      [A0]
00000C7A  204D                     movea.l    A0, A5
00000C7C  D1FC FFFF 727C           add.l      A0, 0xFFFF727C
00000C82  4850                     pea.l      [A0]
00000C84  204D                     movea.l    A0, A5
00000C86  D1FC FFFF 727E           add.l      A0, 0xFFFF727E
00000C8C  4850                     pea.l      [A0]
00000C8E  A98B                     syscall    ParamText
00000C90  558F                     subq.l     A7, 2
00000C92  3F3C 03EA                move.w     -[A7], 0x3EA
00000C96  7000                     moveq.l    D0, 0x00
00000C98  2F00                     move.l     -[A7], D0
00000C9A  A985                     syscall    Alert
00000C9C  3C1F                     move.w     D6, [A7]+
00000C9E  204D                     movea.l    A0, A5
00000CA0  D1FC FFFF 77B0           add.l      A0, 0xFFFF77B0
00000CA6  10BC 0001                move.b     [A0], 0x1
00000CAA  7002                     moveq.l    D0, 0x02
00000CAC  2F00                     move.l     -[A7], D0
00000CAE  486E FFE2                pea.l      [A6 - 0x1E]
00000CB2  4EAD 177A                jsr        [A5 + 0x177A /* export_747, CODE:32 @ 00004DBC */]
00000CB6  200C                     move.l     D0, A4
00000CB8  504F                     addq.w     A7, 8
00000CBA  6000 0132                bra        +0x134 /* 00000DEE */
label00000CBE:
00000CBE  3F07                     move.w     -[A7], D7
00000CC0  A998                     syscall    UseResFile
00000CC2  598F                     subq.l     A7, 4
00000CC4  2F3C 5369 6D44           move.l     -[A7], 0x53696D44 /* 'SimD' */
00000CCA  204D                     movea.l    A0, A5
00000CCC  D1FC FFFF 7280           add.l      A0, 0xFFFF7280
00000CD2  4850                     pea.l      [A0]
00000CD4  A9A1                     syscall    GetNamedResource
00000CD6  265F                     movea.l    A3, [A7]+
00000CD8  3F2C 0188                move.w     -[A7], [A4 + 0x188]
00000CDC  A998                     syscall    UseResFile
00000CDE  200B                     move.l     D0, A3
00000CE0  6600 00B2                bne        +0xB4 /* 00000D94 */
00000CE4  7000                     moveq.l    D0, 0x00
00000CE6  2F00                     move.l     -[A7], D0
00000CE8  2F00                     move.l     -[A7], D0
00000CEA  486E FFC0                pea.l      [A6 - 0x40]
00000CEE  4EAD 1772                jsr        [A5 + 0x1772 /* export_746, CODE:32 @ 00004CE0 */]
00000CF2  486E FFC0                pea.l      [A6 - 0x40]
00000CF6  2F3C 4745 544F           move.l     -[A7], 0x4745544F /* 'GETO' */
00000CFC  2F0C                     move.l     -[A7], A4
00000CFE  7000                     moveq.l    D0, 0x00
00000D00  2F00                     move.l     -[A7], D0
00000D02  2F00                     move.l     -[A7], D0
00000D04  4EAD 0FF2                jsr        [A5 + 0xFF2 /* export_506, CODE:22 @ 00006B9C */]
00000D08  2D40 FFDE                move.l     [A6 - 0x22], D0
00000D0C  7001                     moveq.l    D0, 0x01
00000D0E  2F00                     move.l     -[A7], D0
00000D10  72FF                     moveq.l    D1, 0xFFFFFFFF
00000D12  2F01                     move.l     -[A7], D1
00000D14  4878 0095                push.l     0x95
00000D18  206E FFDE                movea.l    A0, [A6 - 0x22]
00000D1C  2248                     movea.l    A1, A0
00000D1E  2269 0060                movea.l    A1, [A1 + 0x60]
00000D22  D0E9 0208                add.w      A0, [A1 + 0x208]
00000D26  2F08                     move.l     -[A7], A0
00000D28  206E FFDE                movea.l    A0, [A6 - 0x22]
00000D2C  2068 0060                movea.l    A0, [A0 + 0x60]
00000D30  2268 020C                movea.l    A1, [A0 + 0x20C]
00000D34  4E91                     jsr        [A1]
00000D36  202E FFD4                move.l     D0, [A6 - 0x2C]
00000D3A  5280                     addq.l     D0, 1
00000D3C  A122                     syscall    NewHandle, flags=1
00000D3E  2648                     movea.l    A3, A0
00000D40  204B                     movea.l    A0, A3
00000D42  A064                     syscall    MoveHHi
00000D44  A029                     syscall    HLock
00000D46  206E FFCC                movea.l    A0, [A6 - 0x34]
00000D4A  2050                     movea.l    A0, [A0]
00000D4C  2253                     movea.l    A1, [A3]
00000D4E  202E FFD4                move.l     D0, [A6 - 0x2C]
00000D52  A02E                     syscall    BlockMove/BlockMoveData
00000D54  3F07                     move.w     -[A7], D7
00000D56  A998                     syscall    UseResFile
00000D58  2F0B                     move.l     -[A7], A3
00000D5A  2F3C 5369 6D44           move.l     -[A7], 0x53696D44 /* 'SimD' */
00000D60  558F                     subq.l     A7, 2
00000D62  2F3C 5369 6D44           move.l     -[A7], 0x53696D44 /* 'SimD' */
00000D68  A9C1                     syscall    UniqueID
00000D6A  204D                     movea.l    A0, A5
00000D6C  D1FC FFFF 7288           add.l      A0, 0xFFFF7288
00000D72  4850                     pea.l      [A0]
00000D74  A9AB                     syscall    AddResource
00000D76  3F2C 0188                move.w     -[A7], [A4 + 0x188]
00000D7A  A998                     syscall    UseResFile
00000D7C  558F                     subq.l     A7, 2
00000D7E  A9AF                     syscall    ResError
00000D80  4A5F                     tst.w      [A7]+
00000D82  4FEF 0030                lea.l      A7, [A7 + 0x30]
00000D86  7002                     moveq.l    D0, 0x02
00000D88  2F00                     move.l     -[A7], D0
00000D8A  486E FFC0                pea.l      [A6 - 0x40]
00000D8E  4EAD 177A                jsr        [A5 + 0x177A /* export_747, CODE:32 @ 00004DBC */]
00000D92  504F                     addq.w     A7, 8
label00000D94:
00000D94  2F0B                     move.l     -[A7], A3
00000D96  A9A3                     syscall    ReleaseResource
00000D98  2F0C                     move.l     -[A7], A4
00000D9A  4EBA 0BC6                jsr        [PC + 0xBC6 /* 00001962 */]
00000D9E  7004                     moveq.l    D0, 0x04
00000DA0  2F00                     move.l     -[A7], D0
00000DA2  2F0C                     move.l     -[A7], A4
00000DA4  4EBA 025C                jsr        [PC + 0x25C /* 00001002 */]
00000DA8  4247                     clr.w      D7
00000DAA  4FEF 000C                lea.l      A7, [A7 + 0xC]
00000DAE  600C                     bra        +0xE /* 00000DBC */
label00000DB0:
00000DB0  2F0C                     move.l     -[A7], A4
00000DB2  4EBA 011C                jsr        [PC + 0x11C /* 00000ED0 */]
00000DB6  584F                     addq.w     A7, 4
00000DB8  3007                     move.w     D0, D7
00000DBA  5247                     addq.w     D7, 1
label00000DBC:
00000DBC  0C47 0003                cmpi.w     D7, 0x3
00000DC0  6DEE                     blt        -0x10 /* 00000DB0 */
00000DC2  2F0C                     move.l     -[A7], A4
00000DC4  7000                     moveq.l    D0, 0x00
00000DC6  2F00                     move.l     -[A7], D0
00000DC8  2F00                     move.l     -[A7], D0
00000DCA  4EAD 0D72                jsr        [A5 + 0xD72 /* export_426, CODE:20 @ 00002F00 */]
00000DCE  2940 012C                move.l     [A4 + 0x12C], D0
00000DD2  7000                     moveq.l    D0, 0x00
00000DD4  2940 006C                move.l     [A4 + 0x6C], D0
00000DD8  2940 0134                move.l     [A4 + 0x134], D0
00000DDC  7002                     moveq.l    D0, 0x02
00000DDE  2F00                     move.l     -[A7], D0
00000DE0  486E FFE2                pea.l      [A6 - 0x1E]
00000DE4  4EAD 177A                jsr        [A5 + 0x177A /* export_747, CODE:32 @ 00004DBC */]
00000DE8  4FEF 0014                lea.l      A7, [A7 + 0x14]
label00000DEC:
00000DEC  200C                     move.l     D0, A4
label00000DEE:
00000DEE  4CEE 18C8 FFAC           movem.l    D3,D6,D7,A3,A4, [A6 - 0x54]
00000DF4  4E5E                     unlink     A6
00000DF6  4E75                     rts
00000DF8  995F 5F63 745F 5F31 3... dc.b       "__ct__11cSIMFarmAppFPUsT1"
export_621:
00000E14  4E56 0000                link       A6, 0
00000E18  48E7 0108                movem.l    -[A7], D7,A4
00000E1C  2E2E 000C                move.l     D7, [A6 + 0xC]
00000E20  286E 0008                movea.l    A4, [A6 + 0x8]
00000E24  200C                     move.l     D0, A4
00000E26  6700 0086                beq        +0x88 /* 00000EAE */
00000E2A  206C 0064                movea.l    A0, [A4 + 0x64]
00000E2E  224D                     movea.l    A1, A5
00000E30  D3FC FFFF 739A           add.l      A1, 0xFFFF739A
00000E36  2151 0008                move.l     [A0 + 0x8], [A1]
00000E3A  204D                     movea.l    A0, A5
00000E3C  D1FC FFFF 7396           add.l      A0, 0xFFFF7396
00000E42  2950 0060                move.l     [A4 + 0x60], [A0]
00000E46  70FF                     moveq.l    D0, 0xFFFFFFFF
00000E48  B06C 0188                cmp.w      D0, [A4 + 0x188]
00000E4C  6706                     beq        +0x8 /* 00000E54 */
00000E4E  3F2C 0188                move.w     -[A7], [A4 + 0x188]
00000E52  A99A                     syscall    CloseResFile
label00000E54:
00000E54  2F0C                     move.l     -[A7], A4
00000E56  4EBA FB82                jsr        [PC - 0x47E /* 000009DA */]
00000E5A  2F0C                     move.l     -[A7], A4
00000E5C  4EBA 152E                jsr        [PC + 0x152E /* 0000238C */]
00000E60  200C                     move.l     D0, A4
00000E62  504F                     addq.w     A7, 8
00000E64  6748                     beq        +0x4A /* 00000EAE */
00000E66  7002                     moveq.l    D0, 0x02
00000E68  2F00                     move.l     -[A7], D0
00000E6A  486C 0194                pea.l      [A4 + 0x194]
00000E6E  4EAD 177A                jsr        [A5 + 0x177A /* export_747, CODE:32 @ 00004DBC */]
00000E72  7000                     moveq.l    D0, 0x00
00000E74  2F00                     move.l     -[A7], D0
00000E76  2F0C                     move.l     -[A7], A4
00000E78  4EAD 1512                jsr        [A5 + 0x1512 /* export_670, CODE:32 @ 00000D96 */]
00000E7C  7002                     moveq.l    D0, 0x02
00000E7E  C087                     and.l      D0, D7
00000E80  6718                     beq        +0x1A /* 00000E9A */
00000E82  7000                     moveq.l    D0, 0x00
00000E84  2F00                     move.l     -[A7], D0
00000E86  220C                     move.l     D1, A4
00000E88  D2BC 0000 01B2           add.l      D1, 0x1B2
00000E8E  2F01                     move.l     -[A7], D1
00000E90  4EAD 1632                jsr        [A5 + 0x1632 /* export_706, CODE:32 @ 000036CC */]
00000E94  7000                     moveq.l    D0, 0x00
00000E96  504F                     addq.w     A7, 8
00000E98  6002                     bra        +0x4 /* 00000E9C */
label00000E9A:
00000E9A  7000                     moveq.l    D0, 0x00
label00000E9C:
00000E9C  0807 0000                btst.b     D7, 0x0
00000EA0  4FEF 0010                lea.l      A7, [A7 + 0x10]
00000EA4  6708                     beq        +0xA /* 00000EAE */
00000EA6  2F0C                     move.l     -[A7], A4
00000EA8  4EAD 0102                jsr        [A5 + 0x102 /* export_28, CODE:1 @ 00001BE0 */]
00000EAC  584F                     addq.w     A7, 4
label00000EAE:
00000EAE  4CEE 1080 FFF8           movem.l    D7,A4, [A6 - 0x8]
00000EB4  4E5E                     unlink     A6
00000EB6  4E75                     rts
00000EB8  955F 5F64 745F 5F31 3... dc.b       "__dt__11cSIMFarmAppFv"
fn00000ED0:
00000ED0  4E56 0000                link       A6, 0
00000ED4  2F0C                     move.l     -[A7], A4
00000ED6  286E 0008                movea.l    A4, [A6 + 0x8]
00000EDA  7003                     moveq.l    D0, 0x03
00000EDC  B06C 018A                cmp.w      D0, [A4 + 0x18A]
00000EE0  6D00 00AE                blt        +0xB0 /* 00000F90 */
00000EE4  302C 018A                move.w     D0, [A4 + 0x18A]
00000EE8  670E                     beq        +0x10 /* 00000EF8 */
00000EEA  5340                     subq.w     D0, 1
00000EEC  676A                     beq        +0x6C /* 00000F58 */
00000EEE  5340                     subq.w     D0, 1
00000EF0  6700 009A                beq        +0x9C /* 00000F8C */
00000EF4  6000 009A                bra        +0x9C /* 00000F90 */
label00000EF8:
00000EF8  7004                     moveq.l    D0, 0x04
00000EFA  2F00                     move.l     -[A7], D0
00000EFC  2F0C                     move.l     -[A7], A4
00000EFE  4EBA 0102                jsr        [PC + 0x102 /* 00001002 */]
00000F02  2F2C 0190                move.l     -[A7], [A4 + 0x190]
00000F06  2F2C 018C                move.l     -[A7], [A4 + 0x18C]
00000F0A  2F0C                     move.l     -[A7], A4
00000F0C  7000                     moveq.l    D0, 0x00
00000F0E  2F00                     move.l     -[A7], D0
00000F10  2F00                     move.l     -[A7], D0
00000F12  4EAD 07CA                jsr        [A5 + 0x7CA /* export_245, CODE:13 @ 00004F78 */]
00000F16  2940 0128                move.l     [A4 + 0x128], D0
00000F1A  2940 0068                move.l     [A4 + 0x68], D0
00000F1E  226C 0128                movea.l    A1, [A4 + 0x128]
00000F22  2069 00F4                movea.l    A0, [A1 + 0xF4]
00000F26  2248                     movea.l    A1, A0
00000F28  2269 0060                movea.l    A1, [A1 + 0x60]
00000F2C  D0E9 0110                add.w      A0, [A1 + 0x110]
00000F30  2F08                     move.l     -[A7], A0
00000F32  206C 0128                movea.l    A0, [A4 + 0x128]
00000F36  2068 00F4                movea.l    A0, [A0 + 0xF4]
00000F3A  2068 0060                movea.l    A0, [A0 + 0x60]
00000F3E  2268 0114                movea.l    A1, [A0 + 0x114]
00000F42  4E91                     jsr        [A1]
00000F44  526C 018A                addq.w     [A4 + 0x18A], 1
00000F48  7000                     moveq.l    D0, 0x00
00000F4A  2F00                     move.l     -[A7], D0
00000F4C  2F0C                     move.l     -[A7], A4
00000F4E  4EBA 00B2                jsr        [PC + 0xB2 /* 00001002 */]
00000F52  4FEF 0028                lea.l      A7, [A7 + 0x28]
00000F56  6038                     bra        +0x3A /* 00000F90 */
label00000F58:
00000F58  7004                     moveq.l    D0, 0x04
00000F5A  2F00                     move.l     -[A7], D0
00000F5C  2F0C                     move.l     -[A7], A4
00000F5E  4EBA 00A2                jsr        [PC + 0xA2 /* 00001002 */]
00000F62  2F0C                     move.l     -[A7], A4
00000F64  4EBA 1338                jsr        [PC + 0x1338 /* 0000229E */]
00000F68  2F0C                     move.l     -[A7], A4
00000F6A  7000                     moveq.l    D0, 0x00
00000F6C  2F00                     move.l     -[A7], D0
00000F6E  2F00                     move.l     -[A7], D0
00000F70  4EAD 0C42                jsr        [A5 + 0xC42 /* export_388, CODE:19 @ 00002380 */]
00000F74  2940 0180                move.l     [A4 + 0x180], D0
00000F78  526C 018A                addq.w     [A4 + 0x18A], 1
00000F7C  7000                     moveq.l    D0, 0x00
00000F7E  2F00                     move.l     -[A7], D0
00000F80  2F0C                     move.l     -[A7], A4
00000F82  4EBA 007E                jsr        [PC + 0x7E /* 00001002 */]
00000F86  4FEF 0020                lea.l      A7, [A7 + 0x20]
00000F8A  6004                     bra        +0x6 /* 00000F90 */
label00000F8C:
00000F8C  526C 018A                addq.w     [A4 + 0x18A], 1
label00000F90:
00000F90  286E FFFC                movea.l    A4, [A6 - 0x4]
00000F94  4E5E                     unlink     A6
00000F96  4E75                     rts
00000F98  802C 446F 4E65 7874 4... dc.b       "DoNextLevelOfInitialization__11cSIMFarmAppFv"
export_622:
00000FC8  4E56 0000                link       A6, 0
00000FCC  2F07                     move.l     -[A7], D7
00000FCE  558F                     subq.l     A7, 2
00000FD0  3F3C 03EE                move.w     -[A7], 0x3EE
00000FD4  7000                     moveq.l    D0, 0x00
00000FD6  2F00                     move.l     -[A7], D0
00000FD8  A985                     syscall    Alert
00000FDA  3E1F                     move.w     D7, [A7]+
00000FDC  2E2E FFFC                move.l     D7, [A6 - 0x4]
00000FE0  4E5E                     unlink     A6
00000FE2  4E75                     rts
00000FE4  9A4C 6F77 4D65 6D6F 7... dc.b       "LowMemory__11cSIMFarmAppFv"
export_623:
fn00001002:
00001002  4E56 0000                link       A6, 0
00001006  302E 000E                move.w     D0, [A6 + 0xE]
0000100A  48C0                     ext.l      D0
0000100C  2F00                     move.l     -[A7], D0
0000100E  2F2E 0008                move.l     -[A7], [A6 + 0x8]
00001012  4EAD 1562                jsr        [A5 + 0x1562 /* export_680, CODE:32 @ 000019C4 */]
00001016  4E5E                     unlink     A6
00001018  4E75                     rts
0000101A  9D43 6861 6E67 6543 7... dc.b       "ChangeCursor__11cSIMFarmAppFs"
export_624:
0000103A  4E56 FFF6                link       A6, -0x000A
0000103E  48E7 0718                movem.l    -[A7], D5,D6,D7,A3,A4
00001042  286E 0008                movea.l    A4, [A6 + 0x8]
00001046  598F                     subq.l     A7, 4
00001048  7003                     moveq.l    D0, 0x03
0000104A  3F00                     move.w     -[A7], D0
0000104C  7200                     moveq.l    D1, 0x00
0000104E  2F01                     move.l     -[A7], D1
00001050  4EAD 021A                jsr        [A5 + 0x21A /* export_63, CODE:1 @ 0000530A */]
00001054  4A9F                     tst.l      [A7]+
00001056  6714                     beq        +0x16 /* 0000106C */
00001058  7001                     moveq.l    D0, 0x01
0000105A  2F00                     move.l     -[A7], D0
0000105C  204D                     movea.l    A0, A5
0000105E  D1FC FFFF 7290           add.l      A0, 0xFFFF7290
00001064  4850                     pea.l      [A0]
00001066  4EAD 073A                jsr        [A5 + 0x73A /* export_227, CODE:12 @ 00004474 */]
0000106A  504F                     addq.w     A7, 8
label0000106C:
0000106C  204D                     movea.l    A0, A5
0000106E  D1FC FFFF 77B0           add.l      A0, 0xFFFF77B0
00001074  4A10                     tst.b      [A0]
00001076  672C                     beq        +0x2E /* 000010A4 */
00001078  7000                     moveq.l    D0, 0x00
0000107A  2F00                     move.l     -[A7], D0
0000107C  2F3C 5359 5335           move.l     -[A7], 0x53595335 /* 'SYS5' */
00001082  204C                     movea.l    A0, A4
00001084  226C 0060                movea.l    A1, [A4 + 0x60]
00001088  D0E9 0060                add.w      A0, [A1 + 0x60]
0000108C  2F08                     move.l     -[A7], A0
0000108E  2049                     movea.l    A0, A1
00001090  2268 0064                movea.l    A1, [A0 + 0x64]
00001094  4E91                     jsr        [A1]
00001096  197C 0001 0084           move.b     [A4 + 0x84], 0x1
0000109C  4FEF 000C                lea.l      A7, [A7 + 0xC]
000010A0  6000 020A                bra        +0x20C /* 000012AC */
label000010A4:
000010A4  4A2C 0133                tst.b      [A4 + 0x133]
000010A8  673A                     beq        +0x3C /* 000010E4 */
000010AA  2F2C 012C                move.l     -[A7], [A4 + 0x12C]
000010AE  4EAD 0D8A                jsr        [A5 + 0xD8A /* export_429, CODE:20 @ 00003450 */]
000010B2  4A00                     tst.b      D0
000010B4  584F                     addq.w     A7, 4
000010B6  6700 01F4                beq        +0x1F6 /* 000012AC */
000010BA  206C 012C                movea.l    A0, [A4 + 0x12C]
000010BE  2248                     movea.l    A1, A0
000010C0  2269 0060                movea.l    A1, [A1 + 0x60]
000010C4  D0E9 0078                add.w      A0, [A1 + 0x78]
000010C8  2F08                     move.l     -[A7], A0
000010CA  206C 012C                movea.l    A0, [A4 + 0x12C]
000010CE  2068 0060                movea.l    A0, [A0 + 0x60]
000010D2  2268 007C                movea.l    A1, [A0 + 0x7C]
000010D6  4E91                     jsr        [A1]
000010D8  422C 0133                clr.b      [A4 + 0x133]
000010DC  2F0C                     move.l     -[A7], A4
000010DE  4EBA 12F4                jsr        [PC + 0x12F4 /* 000023D4 */]
000010E2  504F                     addq.w     A7, 8
label000010E4:
000010E4  598F                     subq.l     A7, 4
000010E6  A975                     syscall    TickCount
000010E8  2E1F                     move.l     D7, [A7]+
000010EA  BEAC 0134                cmp.l      D7, [A4 + 0x134]
000010EE  6F30                     ble        +0x32 /* 00001120 */
000010F0  204D                     movea.l    A0, A5
000010F2  D1FC FFFE 8AE8           add.l      A0, 0xFFFE8AE8
000010F8  4A10                     tst.b      [A0]
000010FA  6620                     bne        +0x22 /* 0000111C */
000010FC  2007                     move.l     D0, D7
000010FE  90AC 0134                sub.l      D0, [A4 + 0x134]
00001102  204D                     movea.l    A0, A5
00001104  D1FC FFFD CEBE           add.l      A0, 0xFFFDCEBE
0000110A  D190                     add.l      [A0], D0
0000110C  2007                     move.l     D0, D7
0000110E  90AC 0134                sub.l      D0, [A4 + 0x134]
00001112  204D                     movea.l    A0, A5
00001114  D1FC FFFD CEC2           add.l      A0, 0xFFFDCEC2
0000111A  D190                     add.l      [A0], D0
label0000111C:
0000111C  2947 0134                move.l     [A4 + 0x134], D7
label00001120:
00001120  7001                     moveq.l    D0, 0x01
00001122  204D                     movea.l    A0, A5
00001124  D1FC FFFF 7814           add.l      A0, 0xFFFF7814
0000112A  B010                     cmp.b      D0, [A0]
0000112C  660C                     bne        +0xE /* 0000113A */
0000112E  204D                     movea.l    A0, A5
00001130  D1FC FFFE 8AE8           add.l      A0, 0xFFFE8AE8
00001136  10BC 0001                move.b     [A0], 0x1
label0000113A:
0000113A  266C 0180                movea.l    A3, [A4 + 0x180]
0000113E  3D6B 01AA FFFA           move.w     [A6 - 0x6], [A3 + 0x1AA]
00001144  4A2B 01A6                tst.b      [A3 + 0x1A6]
00001148  6720                     beq        +0x22 /* 0000116A */
0000114A  2F2C 0180                move.l     -[A7], [A4 + 0x180]
0000114E  4EAD 0C8A                jsr        [A5 + 0xC8A /* export_397, CODE:19 @ 00003524 */]
00001152  206C 0128                movea.l    A0, [A4 + 0x128]
00001156  2D48 FFF6                move.l     [A6 - 0xA], A0
0000115A  2668 00F4                movea.l    A3, [A0 + 0xF4]
0000115E  2F2B 0174                move.l     -[A7], [A3 + 0x174]
00001162  4EBA F2FC                jsr        [PC - 0xD04 /* 00000460 */]
00001166  504F                     addq.w     A7, 8
00001168  6004                     bra        +0x6 /* 0000116E */
label0000116A:
0000116A  4EAD 0822                jsr        [A5 + 0x822 /* export_256, CODE:14 @ 00000000 */]
label0000116E:
0000116E  204D                     movea.l    A0, A5
00001170  D1FC FFFD CED0           add.l      A0, 0xFFFDCED0
00001176  5290                     addq.l     [A0], 1
00001178  7000                     moveq.l    D0, 0x00
0000117A  204D                     movea.l    A0, A5
0000117C  D1FC FFFD CECA           add.l      A0, 0xFFFDCECA
00001182  3010                     move.w     D0, [A0]
00001184  4A80                     tst.l      D0
00001186  204D                     movea.l    A0, A5
00001188  D1FC FFFF 7816           add.l      A0, 0xFFFF7816
0000118E  3210                     move.w     D1, [A0]
00001190  48C1                     ext.l      D1
00001192  B081                     cmp.l      D0, D1
00001194  676A                     beq        +0x6C /* 00001200 */
00001196  204D                     movea.l    A0, A5
00001198  D1FC FFFD CED0           add.l      A0, 0xFFFDCED0
0000119E  7000                     moveq.l    D0, 0x00
000011A0  2080                     move.l     [A0], D0
000011A2  266C 0128                movea.l    A3, [A4 + 0x128]
000011A6  204D                     movea.l    A0, A5
000011A8  D1FC FFFD CECA           add.l      A0, 0xFFFDCECA
000011AE  3A10                     move.w     D5, [A0]
000011B0  5245                     addq.w     D5, 1
000011B2  204D                     movea.l    A0, A5
000011B4  D1FC FFFD CEC6           add.l      A0, 0xFFFDCEC6
000011BA  3C10                     move.w     D6, [A0]
000011BC  204D                     movea.l    A0, A5
000011BE  D1FC FFFD CEC8           add.l      A0, 0xFFFDCEC8
000011C4  3E10                     move.w     D7, [A0]
000011C6  4AAB 00F4                tst.l      [A3 + 0xF4]
000011CA  671C                     beq        +0x1E /* 000011E8 */
000011CC  48C7                     ext.l      D7
000011CE  2F07                     move.l     -[A7], D7
000011D0  48C6                     ext.l      D6
000011D2  2F06                     move.l     -[A7], D6
000011D4  48C5                     ext.l      D5
000011D6  2F05                     move.l     -[A7], D5
000011D8  2F2B 00F4                move.l     -[A7], [A3 + 0xF4]
000011DC  4EAD 0A92                jsr        [A5 + 0xA92 /* export_334, CODE:18 @ 00001B86 */]
000011E0  7000                     moveq.l    D0, 0x00
000011E2  4FEF 0010                lea.l      A7, [A7 + 0x10]
000011E6  6002                     bra        +0x4 /* 000011EA */
label000011E8:
000011E8  7000                     moveq.l    D0, 0x00
label000011EA:
000011EA  4EAD 0312                jsr        [A5 + 0x312 /* export_94, CODE:5 @ 00000362 */]
000011EE  204D                     movea.l    A0, A5
000011F0  D1FC FFFD CECA           add.l      A0, 0xFFFDCECA
000011F6  224D                     movea.l    A1, A5
000011F8  D3FC FFFF 7816           add.l      A1, 0xFFFF7816
000011FE  3290                     move.w     [A1], [A0]
label00001200:
00001200  7001                     moveq.l    D0, 0x01
00001202  204D                     movea.l    A0, A5
00001204  D1FC FFFE FBE4           add.l      A0, 0xFFFEFBE4
0000120A  B010                     cmp.b      D0, [A0]
0000120C  6634                     bne        +0x36 /* 00001242 */
0000120E  204D                     movea.l    A0, A5
00001210  D1FC FFFE FBE4           add.l      A0, 0xFFFEFBE4
00001216  4210                     clr.b      [A0]
00001218  7000                     moveq.l    D0, 0x00
0000121A  2F00                     move.l     -[A7], D0
0000121C  2F3C 5359 5335           move.l     -[A7], 0x53595335 /* 'SYS5' */
00001222  204C                     movea.l    A0, A4
00001224  226C 0060                movea.l    A1, [A4 + 0x60]
00001228  D0E9 0060                add.w      A0, [A1 + 0x60]
0000122C  2F08                     move.l     -[A7], A0
0000122E  2049                     movea.l    A0, A1
00001230  2268 0064                movea.l    A1, [A0 + 0x64]
00001234  4E91                     jsr        [A1]
00001236  197C 0001 0084           move.b     [A4 + 0x84], 0x1
0000123C  4FEF 000C                lea.l      A7, [A7 + 0xC]
00001240  6028                     bra        +0x2A /* 0000126A */
label00001242:
00001242  7002                     moveq.l    D0, 0x02
00001244  204D                     movea.l    A0, A5
00001246  D1FC FFFE FBE4           add.l      A0, 0xFFFEFBE4
0000124C  B010                     cmp.b      D0, [A0]
0000124E  661A                     bne        +0x1C /* 0000126A */
00001250  204D                     movea.l    A0, A5
00001252  D1FC FFFE FBE4           add.l      A0, 0xFFFEFBE4
00001258  4210                     clr.b      [A0]
0000125A  2F2C 0128                move.l     -[A7], [A4 + 0x128]
0000125E  4EAD 0802                jsr        [A5 + 0x802 /* export_252, CODE:13 @ 00006B64 */]
00001262  2F0C                     move.l     -[A7], A4
00001264  4EBA 0F74                jsr        [PC + 0xF74 /* 000021DA */]
00001268  504F                     addq.w     A7, 8
label0000126A:
0000126A  266C 0128                movea.l    A3, [A4 + 0x128]
0000126E  4AAB 00F0                tst.l      [A3 + 0xF0]
00001272  6736                     beq        +0x38 /* 000012AA */
00001274  7001                     moveq.l    D0, 0x01
00001276  2D40 FFFC                move.l     [A6 - 0x4], D0
0000127A  2F00                     move.l     -[A7], D0
0000127C  2F0B                     move.l     -[A7], A3
0000127E  2F3C 454D 6F76           move.l     -[A7], 0x454D6F76 /* 'EMov' */
00001284  206B 00F0                movea.l    A0, [A3 + 0xF0]
00001288  2248                     movea.l    A1, A0
0000128A  2269 0060                movea.l    A1, [A1 + 0x60]
0000128E  D0E9 0058                add.w      A0, [A1 + 0x58]
00001292  2F08                     move.l     -[A7], A0
00001294  206B 00F0                movea.l    A0, [A3 + 0xF0]
00001298  2068 0060                movea.l    A0, [A0 + 0x60]
0000129C  2268 005C                movea.l    A1, [A0 + 0x5C]
000012A0  4E91                     jsr        [A1]
000012A2  7000                     moveq.l    D0, 0x00
000012A4  4FEF 0010                lea.l      A7, [A7 + 0x10]
000012A8  6002                     bra        +0x4 /* 000012AC */
label000012AA:
000012AA  7000                     moveq.l    D0, 0x00
label000012AC:
000012AC  4CEE 18E0 FFE2           movem.l    D5,D6,D7,A3,A4, [A6 - 0x1E]
000012B2  4E5E                     unlink     A6
000012B4  4E75                     rts
000012B6  9E45 7665 6E74 4C6F 6... dc.b       "EventLoopHook__11cSIMFarmAppFv"
fn000012D8:
000012D8  4E56 FFEC                link       A6, -0x0014
000012DC  48E7 1018                movem.l    -[A7], D3,A3,A4
000012E0  266E 0008                movea.l    A3, [A6 + 0x8]
000012E4  200B                     move.l     D0, A3
000012E6  6612                     bne        +0x14 /* 000012FA */
000012E8  4878 01C2                push.l     0x1C2
000012EC  4EAD 010A                jsr        [A5 + 0x10A /* export_29, CODE:1 @ 00001C0A */]
000012F0  2640                     movea.l    A3, D0
000012F2  200B                     move.l     D0, A3
000012F4  584F                     addq.w     A7, 4
000012F6  6700 0358                beq        +0x35A /* 00001650 */
label000012FA:
000012FA  4AAE 000C                tst.l      [A6 + 0xC]
000012FE  57C3                     seq        D3
00001300  4403                     neg.b      D3
00001302  6754                     beq        +0x56 /* 00001358 */
00001304  200B                     move.l     D0, A3
00001306  D0BC 0000 01B6           add.l      D0, 0x1B6
0000130C  2D40 000C                move.l     [A6 + 0xC], D0
00001310  7601                     moveq.l    D3, 0x01
00001312  200B                     move.l     D0, A3
00001314  D0BC 0000 01B6           add.l      D0, 0x1B6
0000131A  6614                     bne        +0x16 /* 00001330 */
0000131C  2F03                     move.l     -[A7], D3
0000131E  700C                     moveq.l    D0, 0x0C
00001320  2F00                     move.l     -[A7], D0
00001322  4EAD 010A                jsr        [A5 + 0x10A /* export_29, CODE:1 @ 00001C0A */]
00001326  588F                     addq.l     A7, 4
00001328  261F                     move.l     D3, [A7]+
0000132A  4A80                     tst.l      D0
0000132C  6602                     bne        +0x4 /* 00001330 */
0000132E  7600                     moveq.l    D3, 0x00
label00001330:
00001330  4A03                     tst.b      D3
00001332  6718                     beq        +0x1A /* 0000134C */
00001334  204D                     movea.l    A0, A5
00001336  D1FC FFFF 7392           add.l      A0, 0xFFFF7392
0000133C  2750 01BE                move.l     [A3 + 0x1BE], [A0]
00001340  7000                     moveq.l    D0, 0x00
00001342  2740 01B6                move.l     [A3 + 0x1B6], D0
00001346  2740 01BA                move.l     [A3 + 0x1BA], D0
0000134A  6002                     bra        +0x4 /* 0000134E */
label0000134C:
0000134C  7000                     moveq.l    D0, 0x00
label0000134E:
0000134E  200B                     move.l     D0, A3
00001350  D0BC 0000 01B6           add.l      D0, 0x1B6
00001356  6004                     bra        +0x6 /* 0000135C */
label00001358:
00001358  202E 000C                move.l     D0, [A6 + 0xC]
label0000135C:
0000135C  2D4B FFEC                move.l     [A6 - 0x14], A3
00001360  2D6E 000C FFF0           move.l     [A6 - 0x10], [A6 + 0xC]
00001366  7601                     moveq.l    D3, 0x01
00001368  4AAE FFEC                tst.l      [A6 - 0x14]
0000136C  6616                     bne        +0x18 /* 00001384 */
0000136E  2F03                     move.l     -[A7], D3
00001370  4878 01B8                push.l     0x1B8
00001374  4EAD 010A                jsr        [A5 + 0x10A /* export_29, CODE:1 @ 00001C0A */]
00001378  588F                     addq.l     A7, 4
0000137A  261F                     move.l     D3, [A7]+
0000137C  2D40 FFEC                move.l     [A6 - 0x14], D0
00001380  6602                     bne        +0x4 /* 00001384 */
00001382  7600                     moveq.l    D3, 0x00
label00001384:
00001384  4A03                     tst.b      D3
00001386  6700 0286                beq        +0x288 /* 0000160E */
0000138A  4AAE FFF0                tst.l      [A6 - 0x10]
0000138E  57C3                     seq        D3
00001390  4403                     neg.b      D3
00001392  6766                     beq        +0x68 /* 000013FA */
00001394  202E FFEC                move.l     D0, [A6 - 0x14]
00001398  D0BC 0000 01AC           add.l      D0, 0x1AC
0000139E  2D40 FFF0                move.l     [A6 - 0x10], D0
000013A2  7601                     moveq.l    D3, 0x01
000013A4  202E FFEC                move.l     D0, [A6 - 0x14]
000013A8  D0BC 0000 01AC           add.l      D0, 0x1AC
000013AE  6614                     bne        +0x16 /* 000013C4 */
000013B0  2F03                     move.l     -[A7], D3
000013B2  700C                     moveq.l    D0, 0x0C
000013B4  2F00                     move.l     -[A7], D0
000013B6  4EAD 010A                jsr        [A5 + 0x10A /* export_29, CODE:1 @ 00001C0A */]
000013BA  588F                     addq.l     A7, 4
000013BC  261F                     move.l     D3, [A7]+
000013BE  4A80                     tst.l      D0
000013C0  6602                     bne        +0x4 /* 000013C4 */
000013C2  7600                     moveq.l    D3, 0x00
label000013C4:
000013C4  4A03                     tst.b      D3
000013C6  6724                     beq        +0x26 /* 000013EC */
000013C8  206E FFEC                movea.l    A0, [A6 - 0x14]
000013CC  224D                     movea.l    A1, A5
000013CE  D3FC FFFF 7392           add.l      A1, 0xFFFF7392
000013D4  2151 01B4                move.l     [A0 + 0x1B4], [A1]
000013D8  206E FFEC                movea.l    A0, [A6 - 0x14]
000013DC  7000                     moveq.l    D0, 0x00
000013DE  2140 01AC                move.l     [A0 + 0x1AC], D0
000013E2  206E FFEC                movea.l    A0, [A6 - 0x14]
000013E6  2140 01B0                move.l     [A0 + 0x1B0], D0
000013EA  6002                     bra        +0x4 /* 000013EE */
label000013EC:
000013EC  7000                     moveq.l    D0, 0x00
label000013EE:
000013EE  202E FFEC                move.l     D0, [A6 - 0x14]
000013F2  D0BC 0000 01AC           add.l      D0, 0x1AC
000013F8  6004                     bra        +0x6 /* 000013FE */
label000013FA:
000013FA  202E FFF0                move.l     D0, [A6 - 0x10]
label000013FE:
000013FE  286E FFEC                movea.l    A4, [A6 - 0x14]
00001402  2D6E FFF0 FFF4           move.l     [A6 - 0xC], [A6 - 0x10]
00001408  7601                     moveq.l    D3, 0x01
0000140A  200C                     move.l     D0, A4
0000140C  6616                     bne        +0x18 /* 00001424 */
0000140E  2F03                     move.l     -[A7], D3
00001410  4878 018C                push.l     0x18C
00001414  4EAD 010A                jsr        [A5 + 0x10A /* export_29, CODE:1 @ 00001C0A */]
00001418  588F                     addq.l     A7, 4
0000141A  261F                     move.l     D3, [A7]+
0000141C  2840                     movea.l    A4, D0
0000141E  200C                     move.l     D0, A4
00001420  6602                     bne        +0x4 /* 00001424 */
00001422  7600                     moveq.l    D3, 0x00
label00001424:
00001424  4A03                     tst.b      D3
00001426  6700 01A4                beq        +0x1A6 /* 000015CC */
0000142A  4AAE FFF4                tst.l      [A6 - 0xC]
0000142E  57C3                     seq        D3
00001430  4403                     neg.b      D3
00001432  6754                     beq        +0x56 /* 00001488 */
00001434  200C                     move.l     D0, A4
00001436  D0BC 0000 0180           add.l      D0, 0x180
0000143C  2D40 FFF4                move.l     [A6 - 0xC], D0
00001440  7601                     moveq.l    D3, 0x01
00001442  200C                     move.l     D0, A4
00001444  D0BC 0000 0180           add.l      D0, 0x180
0000144A  6614                     bne        +0x16 /* 00001460 */
0000144C  2F03                     move.l     -[A7], D3
0000144E  700C                     moveq.l    D0, 0x0C
00001450  2F00                     move.l     -[A7], D0
00001452  4EAD 010A                jsr        [A5 + 0x10A /* export_29, CODE:1 @ 00001C0A */]
00001456  588F                     addq.l     A7, 4
00001458  261F                     move.l     D3, [A7]+
0000145A  4A80                     tst.l      D0
0000145C  6602                     bne        +0x4 /* 00001460 */
0000145E  7600                     moveq.l    D3, 0x00
label00001460:
00001460  4A03                     tst.b      D3
00001462  6718                     beq        +0x1A /* 0000147C */
00001464  204D                     movea.l    A0, A5
00001466  D1FC FFFF 7392           add.l      A0, 0xFFFF7392
0000146C  2950 0188                move.l     [A4 + 0x188], [A0]
00001470  7000                     moveq.l    D0, 0x00
00001472  2940 0180                move.l     [A4 + 0x180], D0
00001476  2940 0184                move.l     [A4 + 0x184], D0
0000147A  6002                     bra        +0x4 /* 0000147E */
label0000147C:
0000147C  7000                     moveq.l    D0, 0x00
label0000147E:
0000147E  200C                     move.l     D0, A4
00001480  D0BC 0000 0180           add.l      D0, 0x180
00001486  6004                     bra        +0x6 /* 0000148C */
label00001488:
00001488  202E FFF4                move.l     D0, [A6 - 0xC]
label0000148C:
0000148C  2D4C FFF8                move.l     [A6 - 0x8], A4
00001490  2D6E FFF4 FFFC           move.l     [A6 - 0x4], [A6 - 0xC]
00001496  7601                     moveq.l    D3, 0x01
00001498  4AAE FFF8                tst.l      [A6 - 0x8]
0000149C  6616                     bne        +0x18 /* 000014B4 */
0000149E  2F03                     move.l     -[A7], D3
000014A0  4878 0178                push.l     0x178
000014A4  4EAD 010A                jsr        [A5 + 0x10A /* export_29, CODE:1 @ 00001C0A */]
000014A8  588F                     addq.l     A7, 4
000014AA  261F                     move.l     D3, [A7]+
000014AC  2D40 FFF8                move.l     [A6 - 0x8], D0
000014B0  6602                     bne        +0x4 /* 000014B4 */
000014B2  7600                     moveq.l    D3, 0x00
label000014B4:
000014B4  4A03                     tst.b      D3
000014B6  6700 00D2                beq        +0xD4 /* 0000158A */
000014BA  4AAE FFFC                tst.l      [A6 - 0x4]
000014BE  57C3                     seq        D3
000014C0  4403                     neg.b      D3
000014C2  6766                     beq        +0x68 /* 0000152A */
000014C4  202E FFF8                move.l     D0, [A6 - 0x8]
000014C8  D0BC 0000 016C           add.l      D0, 0x16C
000014CE  2D40 FFFC                move.l     [A6 - 0x4], D0
000014D2  7601                     moveq.l    D3, 0x01
000014D4  202E FFF8                move.l     D0, [A6 - 0x8]
000014D8  D0BC 0000 016C           add.l      D0, 0x16C
000014DE  6614                     bne        +0x16 /* 000014F4 */
000014E0  2F03                     move.l     -[A7], D3
000014E2  700C                     moveq.l    D0, 0x0C
000014E4  2F00                     move.l     -[A7], D0
000014E6  4EAD 010A                jsr        [A5 + 0x10A /* export_29, CODE:1 @ 00001C0A */]
000014EA  588F                     addq.l     A7, 4
000014EC  261F                     move.l     D3, [A7]+
000014EE  4A80                     tst.l      D0
000014F0  6602                     bne        +0x4 /* 000014F4 */
000014F2  7600                     moveq.l    D3, 0x00
label000014F4:
000014F4  4A03                     tst.b      D3
000014F6  6724                     beq        +0x26 /* 0000151C */
000014F8  206E FFF8                movea.l    A0, [A6 - 0x8]
000014FC  224D                     movea.l    A1, A5
000014FE  D3FC FFFF 7392           add.l      A1, 0xFFFF7392
00001504  2151 0174                move.l     [A0 + 0x174], [A1]
00001508  206E FFF8                movea.l    A0, [A6 - 0x8]
0000150C  7000                     moveq.l    D0, 0x00
0000150E  2140 016C                move.l     [A0 + 0x16C], D0
00001512  206E FFF8                movea.l    A0, [A6 - 0x8]
00001516  2140 0170                move.l     [A0 + 0x170], D0
0000151A  6002                     bra        +0x4 /* 0000151E */
label0000151C:
0000151C  7000                     moveq.l    D0, 0x00
label0000151E:
0000151E  202E FFF8                move.l     D0, [A6 - 0x8]
00001522  D0BC 0000 016C           add.l      D0, 0x16C
00001528  6004                     bra        +0x6 /* 0000152E */
label0000152A:
0000152A  202E FFFC                move.l     D0, [A6 - 0x4]
label0000152E:
0000152E  7000                     moveq.l    D0, 0x00
00001530  2F00                     move.l     -[A7], D0
00001532  2F2E 0014                move.l     -[A7], [A6 + 0x14]
00001536  2F2E 0010                move.l     -[A7], [A6 + 0x10]
0000153A  2F2E FFFC                move.l     -[A7], [A6 - 0x4]
0000153E  2F2E FFF8                move.l     -[A7], [A6 - 0x8]
00001542  4EAD 10AA                jsr        [A5 + 0x10AA /* export_529, CODE:26 @ 0000020E */]
00001546  206E FFF8                movea.l    A0, [A6 - 0x8]
0000154A  224D                     movea.l    A1, A5
0000154C  D3FC FFFF 739E           add.l      A1, 0xFFFF739E
00001552  2151 0060                move.l     [A0 + 0x60], [A1]
00001556  206E FFF8                movea.l    A0, [A6 - 0x8]
0000155A  2068 0064                movea.l    A0, [A0 + 0x64]
0000155E  224D                     movea.l    A1, A5
00001560  D3FC FFFF 73A2           add.l      A1, 0xFFFF73A2
00001566  2151 0008                move.l     [A0 + 0x8], [A1]
0000156A  206E FFF8                movea.l    A0, [A6 - 0x8]
0000156E  224D                     movea.l    A1, A5
00001570  D3FC FFFF 73A6           add.l      A1, 0xFFFF73A6
00001576  2151 0070                move.l     [A0 + 0x70], [A1]
0000157A  204D                     movea.l    A0, A5
0000157C  D1FC FFFF 73A6           add.l      A0, 0xFFFF73A6
00001582  2010                     move.l     D0, [A0]
00001584  4FEF 0014                lea.l      A7, [A7 + 0x14]
00001588  6002                     bra        +0x4 /* 0000158C */
label0000158A:
0000158A  7000                     moveq.l    D0, 0x00
label0000158C:
0000158C  204D                     movea.l    A0, A5
0000158E  D1FC FFFF 73AA           add.l      A0, 0xFFFF73AA
00001594  2950 0060                move.l     [A4 + 0x60], [A0]
00001598  204D                     movea.l    A0, A5
0000159A  D1FC FFFF 73AE           add.l      A0, 0xFFFF73AE
000015A0  2950 0070                move.l     [A4 + 0x70], [A0]
000015A4  206C 0064                movea.l    A0, [A4 + 0x64]
000015A8  224D                     movea.l    A1, A5
000015AA  D3FC FFFF 73B2           add.l      A1, 0xFFFF73B2
000015B0  2151 0008                move.l     [A0 + 0x8], [A1]
000015B4  7000                     moveq.l    D0, 0x00
000015B6  2940 016C                move.l     [A4 + 0x16C], D0
000015BA  2940 0170                move.l     [A4 + 0x170], D0
000015BE  2940 0174                move.l     [A4 + 0x174], D0
000015C2  2940 0178                move.l     [A4 + 0x178], D0
000015C6  2940 017C                move.l     [A4 + 0x17C], D0
000015CA  6002                     bra        +0x4 /* 000015CE */
label000015CC:
000015CC  7000                     moveq.l    D0, 0x00
label000015CE:
000015CE  206E FFEC                movea.l    A0, [A6 - 0x14]
000015D2  224D                     movea.l    A1, A5
000015D4  D3FC FFFF 73B6           add.l      A1, 0xFFFF73B6
000015DA  2151 0060                move.l     [A0 + 0x60], [A1]
000015DE  206E FFEC                movea.l    A0, [A6 - 0x14]
000015E2  2068 0064                movea.l    A0, [A0 + 0x64]
000015E6  224D                     movea.l    A1, A5
000015E8  D3FC FFFF 73BA           add.l      A1, 0xFFFF73BA
000015EE  2151 0008                move.l     [A0 + 0x8], [A1]
000015F2  206E FFEC                movea.l    A0, [A6 - 0x14]
000015F6  224D                     movea.l    A1, A5
000015F8  D3FC FFFF 73BE           add.l      A1, 0xFFFF73BE
000015FE  2151 0070                move.l     [A0 + 0x70], [A1]
00001602  204D                     movea.l    A0, A5
00001604  D1FC FFFF 73BE           add.l      A0, 0xFFFF73BE
0000160A  2010                     move.l     D0, [A0]
0000160C  6002                     bra        +0x4 /* 00001610 */
label0000160E:
0000160E  7000                     moveq.l    D0, 0x00
label00001610:
00001610  204D                     movea.l    A0, A5
00001612  D1FC FFFF 73C2           add.l      A0, 0xFFFF73C2
00001618  2750 0060                move.l     [A3 + 0x60], [A0]
0000161C  204D                     movea.l    A0, A5
0000161E  D1FC FFFF 73C6           add.l      A0, 0xFFFF73C6
00001624  2750 0070                move.l     [A3 + 0x70], [A0]
00001628  206B 0064                movea.l    A0, [A3 + 0x64]
0000162C  224D                     movea.l    A1, A5
0000162E  D3FC FFFF 73CA           add.l      A1, 0xFFFF73CA
00001634  2151 0008                move.l     [A0 + 0x8], [A1]
00001638  426B 01B4                clr.w      [A3 + 0x1B4]
0000163C  598F                     subq.l     A7, 4
0000163E  A975                     syscall    TickCount
00001640  275F 01B0                move.l     [A3 + 0x1B0], [A7]+
00001644  70FF                     moveq.l    D0, 0xFFFFFFFF
00001646  3F00                     move.w     -[A7], D0
00001648  7200                     moveq.l    D1, 0x00
0000164A  3F01                     move.w     -[A7], D1
0000164C  201F                     move.l     D0, [A7]+
0000164E  A032                     syscall    FlushEvents
label00001650:
00001650  200B                     move.l     D0, A3
00001652  4CEE 1808 FFE0           movem.l    D3,A3,A4, [A6 - 0x20]
00001658  4E5E                     unlink     A6
0000165A  4E75                     rts
0000165C  8020 5F5F 6374 5F5F 3... dc.b       "__ct__13cSplashWindowFP6cAgentUl"
export_625:
00001680  4E56 0000                link       A6, 0
00001684  48E7 0108                movem.l    -[A7], D7,A4
00001688  2E2E 000C                move.l     D7, [A6 + 0xC]
0000168C  286E 0008                movea.l    A4, [A6 + 0x8]
00001690  200C                     move.l     D0, A4
00001692  6766                     beq        +0x68 /* 000016FA */
00001694  206C 0064                movea.l    A0, [A4 + 0x64]
00001698  224D                     movea.l    A1, A5
0000169A  D3FC FFFF 73CA           add.l      A1, 0xFFFF73CA
000016A0  2151 0008                move.l     [A0 + 0x8], [A1]
000016A4  204D                     movea.l    A0, A5
000016A6  D1FC FFFF 73C6           add.l      A0, 0xFFFF73C6
000016AC  2950 0070                move.l     [A4 + 0x70], [A0]
000016B0  204D                     movea.l    A0, A5
000016B2  D1FC FFFF 73C2           add.l      A0, 0xFFFF73C2
000016B8  2950 0060                move.l     [A4 + 0x60], [A0]
000016BC  200C                     move.l     D0, A4
000016BE  673A                     beq        +0x3C /* 000016FA */
000016C0  7000                     moveq.l    D0, 0x00
000016C2  2F00                     move.l     -[A7], D0
000016C4  2F0C                     move.l     -[A7], A4
000016C6  4EAD 01B2                jsr        [A5 + 0x1B2 /* export_50, CODE:1 @ 0000311C */]
000016CA  7002                     moveq.l    D0, 0x02
000016CC  C087                     and.l      D0, D7
000016CE  6718                     beq        +0x1A /* 000016E8 */
000016D0  7000                     moveq.l    D0, 0x00
000016D2  2F00                     move.l     -[A7], D0
000016D4  220C                     move.l     D1, A4
000016D6  D2BC 0000 01B6           add.l      D1, 0x1B6
000016DC  2F01                     move.l     -[A7], D1
000016DE  4EAD 1632                jsr        [A5 + 0x1632 /* export_706, CODE:32 @ 000036CC */]
000016E2  7000                     moveq.l    D0, 0x00
000016E4  504F                     addq.w     A7, 8
000016E6  6002                     bra        +0x4 /* 000016EA */
label000016E8:
000016E8  7000                     moveq.l    D0, 0x00
label000016EA:
000016EA  0807 0000                btst.b     D7, 0x0
000016EE  504F                     addq.w     A7, 8
000016F0  6708                     beq        +0xA /* 000016FA */
000016F2  2F0C                     move.l     -[A7], A4
000016F4  4EAD 0102                jsr        [A5 + 0x102 /* export_28, CODE:1 @ 00001BE0 */]
000016F8  584F                     addq.w     A7, 4
label000016FA:
000016FA  4CEE 1080 FFF8           movem.l    D7,A4, [A6 - 0x8]
00001700  4E5E                     unlink     A6
00001702  4E75                     rts
00001704  975F 5F64 745F 5F31 3... dc.b       "__dt__13cSplashWindowFv"
export_626:
0000171E  4E56 0000                link       A6, 0
00001722  48E7 0018                movem.l    -[A7], A3,A4
00001726  286E 0008                movea.l    A4, [A6 + 0x8]
0000172A  7001                     moveq.l    D0, 0x01
0000172C  B06E 000E                cmp.w      D0, [A6 + 0xE]
00001730  666C                     bne        +0x6E /* 0000179E */
00001732  4878 2711                push.l     0x2711
00001736  2F0C                     move.l     -[A7], A4
00001738  7000                     moveq.l    D0, 0x00
0000173A  2F00                     move.l     -[A7], D0
0000173C  2F00                     move.l     -[A7], D0
0000173E  4EAD 1982                jsr        [A5 + 0x1982 /* export_812, CODE:33 @ 0000205A */]
00001742  2940 01AC                move.l     [A4 + 0x1AC], D0
00001746  2040                     movea.l    A0, D0
00001748  47E8 0086                lea.l      A3, [A0 + 0x86]
0000174C  206E 0010                movea.l    A0, [A6 + 0x10]
00001750  3010                     move.w     D0, [A0]
00001752  906B 0010                sub.w      D0, [A3 + 0x10]
00001756  48C0                     ext.l      D0
00001758  2F00                     move.l     -[A7], D0
0000175A  206E 0010                movea.l    A0, [A6 + 0x10]
0000175E  3028 0002                move.w     D0, [A0 + 0x2]
00001762  906B 0012                sub.w      D0, [A3 + 0x12]
00001766  48C0                     ext.l      D0
00001768  2F00                     move.l     -[A7], D0
0000176A  204B                     movea.l    A0, A3
0000176C  226B 0008                movea.l    A1, [A3 + 0x8]
00001770  D0E9 0040                add.w      A0, [A1 + 0x40]
00001774  2F08                     move.l     -[A7], A0
00001776  2049                     movea.l    A0, A1
00001778  2268 0044                movea.l    A1, [A0 + 0x44]
0000177C  4E91                     jsr        [A1]
0000177E  4AAC 01AC                tst.l      [A4 + 0x1AC]
00001782  670C                     beq        +0xE /* 00001790 */
00001784  202C 01AC                move.l     D0, [A4 + 0x1AC]
00001788  D0BC 0000 0086           add.l      D0, 0x86
0000178E  6002                     bra        +0x4 /* 00001792 */
label00001790:
00001790  7000                     moveq.l    D0, 0x00
label00001792:
00001792  2F00                     move.l     -[A7], D0
00001794  2F0C                     move.l     -[A7], A4
00001796  4EAD 11F2                jsr        [A5 + 0x11F2 /* export_570, CODE:26 @ 000032DA */]
0000179A  4FEF 0024                lea.l      A7, [A7 + 0x24]
label0000179E:
0000179E  4CEE 1800 FFF8           movem.l    A3,A4, [A6 - 0x8]
000017A4  4E5E                     unlink     A6
000017A6  4E75                     rts
000017A8  8024 4E65 7755 7365 7... dc.b       "NewUserItem__13cSplashWindowFsR4Rect"
fn000017D0:
000017D0  4E56 0000                link       A6, 0
000017D4  2F0C                     move.l     -[A7], A4
000017D6  286E 0008                movea.l    A4, [A6 + 0x8]
000017DA  204D                     movea.l    A0, A5
000017DC  D1FC FFFF 7868           add.l      A0, 0xFFFF7868
000017E2  2F10                     move.l     -[A7], [A0]
000017E4  4EBA F6EA                jsr        [PC - 0x916 /* 00000ED0 */]
000017E8  526C 01B4                addq.w     [A4 + 0x1B4], 1
000017EC  7001                     moveq.l    D0, 0x01
000017EE  B06C 01B4                cmp.w      D0, [A4 + 0x1B4]
000017F2  584F                     addq.w     A7, 4
000017F4  6C08                     bge        +0xA /* 000017FE */
000017F6  397C 0001 0180           move.w     [A4 + 0x180], 0x1
000017FC  6042                     bra        +0x44 /* 00001840 */
label000017FE:
000017FE  2F0C                     move.l     -[A7], A4
00001800  4EAD 11E2                jsr        [A5 + 0x11E2 /* export_568, CODE:26 @ 000031FA */]
00001804  4878 2710                push.l     0x2710
00001808  2F2C 01AC                move.l     -[A7], [A4 + 0x1AC]
0000180C  4EAD 199A                jsr        [A5 + 0x199A /* export_815, CODE:33 @ 00002366 */]
00001810  206C 01AC                movea.l    A0, [A4 + 0x1AC]
00001814  2248                     movea.l    A1, A0
00001816  2269 0060                movea.l    A1, [A1 + 0x60]
0000181A  D0E9 0070                add.w      A0, [A1 + 0x70]
0000181E  2F08                     move.l     -[A7], A0
00001820  206C 01AC                movea.l    A0, [A4 + 0x1AC]
00001824  2068 0060                movea.l    A0, [A0 + 0x60]
00001828  2268 0074                movea.l    A1, [A0 + 0x74]
0000182C  4E91                     jsr        [A1]
0000182E  2F0C                     move.l     -[A7], A4
00001830  4EAD 11EA                jsr        [A5 + 0x11EA /* export_569, CODE:26 @ 00003268 */]
00001834  598F                     subq.l     A7, 4
00001836  A975                     syscall    TickCount
00001838  295F 01B0                move.l     [A4 + 0x1B0], [A7]+
0000183C  4FEF 0014                lea.l      A7, [A7 + 0x14]
label00001840:
00001840  286E FFFC                movea.l    A4, [A6 - 0x4]
00001844  4E5E                     unlink     A6
00001846  4E75                     rts
00001848  8021 466C 6970 546F 4... dc.b       "FlipToNextPict__13cSplashWindowFv"
export_627:
0000186E  4E56 0000                link       A6, 0
00001872  48E7 0108                movem.l    -[A7], D7,A4
00001876  286E 0008                movea.l    A4, [A6 + 0x8]
0000187A  598F                     subq.l     A7, 4
0000187C  A975                     syscall    TickCount
0000187E  2E1F                     move.l     D7, [A7]+
00001880  2007                     move.l     D0, D7
00001882  90AC 01B0                sub.l      D0, [A4 + 0x1B0]
00001886  0C80 0000 012C           cmpi.l     D0, 0x12C
0000188C  6F10                     ble        +0x12 /* 0000189E */
0000188E  204D                     movea.l    A0, A5
00001890  D1FC FFFF 7868           add.l      A0, 0xFFFF7868
00001896  2F10                     move.l     -[A7], [A0]
00001898  4EBA F636                jsr        [PC - 0x9CA /* 00000ED0 */]
0000189C  584F                     addq.w     A7, 4
label0000189E:
0000189E  2007                     move.l     D0, D7
000018A0  90AC 01B0                sub.l      D0, [A4 + 0x1B0]
000018A4  0C80 0000 0E10           cmpi.l     D0, 0xE10
000018AA  6F08                     ble        +0xA /* 000018B4 */
000018AC  2F0C                     move.l     -[A7], A4
000018AE  4EBA FF20                jsr        [PC - 0xE0 /* 000017D0 */]
000018B2  584F                     addq.w     A7, 4
label000018B4:
000018B4  4CEE 1080 FFF8           movem.l    D7,A4, [A6 - 0x8]
000018BA  4E5E                     unlink     A6
000018BC  4E75                     rts
000018BE  9C4E 756C 6C45 7665 6... dc.b       "NullEvent__13cSplashWindowFv"
export_628:
000018DE  4E56 0000                link       A6, 0
000018E2  2F2E 0008                move.l     -[A7], [A6 + 0x8]
000018E6  4EBA FEE8                jsr        [PC - 0x118 /* 000017D0 */]
000018EA  7001                     moveq.l    D0, 0x01
000018EC  4E5E                     unlink     A6
000018EE  4E75                     rts
000018F0  8030 4D6F 7573 6544 6... dc.b       "MouseDownContent__13cSplashWindowFR11EventRecord"
export_629:
00001924  4E56 0000                link       A6, 0
00001928  2F2E 0008                move.l     -[A7], [A6 + 0x8]
0000192C  4EBA FEA2                jsr        [PC - 0x15E /* 000017D0 */]
00001930  7001                     moveq.l    D0, 0x01
00001932  4E5E                     unlink     A6
00001934  4E75                     rts
00001936  8027 4B65 7944 6F77 6... dc.b       "KeyDown__13cSplashWindowFR11EventRecord"
fn00001962:
00001962  4E56 0000                link       A6, 0
00001966  48E7 0108                movem.l    -[A7], D7,A4
0000196A  2F3C 5370 7368           move.l     -[A7], 0x53707368 /* 'Spsh' */
00001970  2F2E 0008                move.l     -[A7], [A6 + 0x8]
00001974  7000                     moveq.l    D0, 0x00
00001976  2F00                     move.l     -[A7], D0
00001978  2F00                     move.l     -[A7], D0
0000197A  4EBA F95C                jsr        [PC - 0x6A4 /* 000012D8 */]
0000197E  2840                     movea.l    A4, D0
00001980  7001                     moveq.l    D0, 0x01
00001982  2F00                     move.l     -[A7], D0
00001984  4878 1C20                push.l     0x1C20
00001988  4878 2710                push.l     0x2710
0000198C  204C                     movea.l    A0, A4
0000198E  226C 0060                movea.l    A1, [A4 + 0x60]
00001992  D0E9 0208                add.w      A0, [A1 + 0x208]
00001996  2F08                     move.l     -[A7], A0
00001998  2049                     movea.l    A0, A1
0000199A  2268 020C                movea.l    A1, [A0 + 0x20C]
0000199E  4E91                     jsr        [A1]
000019A0  3E00                     move.w     D7, D0
000019A2  4CEE 1080 FFF8           movem.l    D7,A4, [A6 - 0x8]
000019A8  4E5E                     unlink     A6
000019AA  4E75                     rts
000019AC  9F44 6F53 706C 6173 6... dc.b       "DoSplashScreen__11cSIMFarmAppFv"
fn000019CE:
000019CE  4E56 0000                link       A6, 0
000019D2  302E 0012                move.w     D0, [A6 + 0x12]
000019D6  48C0                     ext.l      D0
000019D8  2F00                     move.l     -[A7], D0
000019DA  302E 000E                move.w     D0, [A6 + 0xE]
000019DE  48C0                     ext.l      D0
000019E0  2F00                     move.l     -[A7], D0
000019E2  206E 0008                movea.l    A0, [A6 + 0x8]
000019E6  2F28 0128                move.l     -[A7], [A0 + 0x128]
000019EA  4EAD 07EA                jsr        [A5 + 0x7EA /* export_249, CODE:13 @ 00006140 */]
000019EE  4E5E                     unlink     A6
000019F0  4E75                     rts
000019F2  8027 5365 7448 6F6D 6... dc.b       "SetHomesteadLocation__11cSIMFarmAppFsT1"
export_630:
00001A1E  4E56 FFF8                link       A6, -0x0008
00001A22  2F0C                     move.l     -[A7], A4
00001A24  224D                     movea.l    A1, A5
00001A26  D3FC FFFF 2042           add.l      A1, 0xFFFF2042
00001A2C  2051                     movea.l    A0, [A1]
00001A2E  2868 01E0                movea.l    A4, [A0 + 0x1E0]
00001A32  2D6C 01D8 FFFC           move.l     [A6 - 0x4], [A4 + 0x1D8]
00001A38  302E 000E                move.w     D0, [A6 + 0xE]
00001A3C  48C0                     ext.l      D0
00001A3E  E988                     lsl        D0, 4
00001A40  3D40 FFFA                move.w     [A6 - 0x6], D0
00001A44  302E 0012                move.w     D0, [A6 + 0x12]
00001A48  48C0                     ext.l      D0
00001A4A  E988                     lsl        D0, 4
00001A4C  3D40 FFF8                move.w     [A6 - 0x8], D0
00001A50  302E FFFE                move.w     D0, [A6 - 0x2]
00001A54  E240                     asr        D0.w, 1
00001A56  916E FFFA                sub.w      [A6 - 0x6], D0
00001A5A  302E FFFC                move.w     D0, [A6 - 0x4]
00001A5E  E240                     asr        D0.w, 1
00001A60  916E FFF8                sub.w      [A6 - 0x8], D0
00001A64  4A6E FFFA                tst.w      [A6 - 0x6]
00001A68  6C0C                     bge        +0xE /* 00001A76 */
00001A6A  302E FFFA                move.w     D0, [A6 - 0x6]
00001A6E  48C0                     ext.l      D0
00001A70  4480                     neg.l      D0
00001A72  D16E FFFA                add.w      [A6 - 0x6], D0
label00001A76:
00001A76  4A6E FFF8                tst.w      [A6 - 0x8]
00001A7A  6C0C                     bge        +0xE /* 00001A88 */
00001A7C  302E FFF8                move.w     D0, [A6 - 0x8]
00001A80  48C0                     ext.l      D0
00001A82  4480                     neg.l      D0
00001A84  D16E FFF8                add.w      [A6 - 0x8], D0
label00001A88:
00001A88  2F2E FFF8                move.l     -[A7], [A6 - 0x8]
00001A8C  204D                     movea.l    A0, A5
00001A8E  D1FC FFFF 2042           add.l      A0, 0xFFFF2042
00001A94  2F10                     move.l     -[A7], [A0]
00001A96  4EAD 0EF2                jsr        [A5 + 0xEF2 /* export_474, CODE:22 @ 00002CA8 */]
00001A9A  286E FFF4                movea.l    A4, [A6 - 0xC]
00001A9E  4E5E                     unlink     A6
00001AA0  4E75                     rts
00001AA2  8023 4365 6E74 6572 4... dc.b       "CenterEditWindow__11cSIMFarmAppFsT1"
export_631:
00001ACA  4E56 FFA8                link       A6, -0x0058
00001ACE  204D                     movea.l    A0, A5
00001AD0  D1FC FFFF 7868           add.l      A0, 0xFFFF7868
00001AD6  2F10                     move.l     -[A7], [A0]
00001AD8  4EBA 0602                jsr        [PC + 0x602 /* 000020DC */]
00001ADC  4A00                     tst.b      D0
00001ADE  584F                     addq.w     A7, 4
00001AE0  673C                     beq        +0x3E /* 00001B1E */
00001AE2  206E 0008                movea.l    A0, [A6 + 0x8]
00001AE6  2F28 0128                move.l     -[A7], [A0 + 0x128]
00001AEA  4EAD 0802                jsr        [A5 + 0x802 /* export_252, CODE:13 @ 00006B64 */]
00001AEE  206E 000C                movea.l    A0, [A6 + 0xC]
00001AF2  43EE FFAE                lea.l      A1, [A6 - 0x52]
00001AF6  7010                     moveq.l    D0, 0x10
label00001AF8:
00001AF8  22D8                     move.l     [A1]+, [A0]+
00001AFA  51C8 FFFC                dbf        D0, -0x6 /* 00001AF8 */
00001AFE  32D8                     move.w     [A1]+, [A0]+
00001B00  41EE 0000                lea.l      A0, [A6 + 0x0]
00001B04  702B                     moveq.l    D0, 0x2B
label00001B06:
00001B06  3F20                     move.w     -[A7], -[A0]
00001B08  51C8 FFFC                dbf        D0, -0x6 /* 00001B06 */
00001B0C  204D                     movea.l    A0, A5
00001B0E  D1FC FFFF 7868           add.l      A0, 0xFFFF7868
00001B14  2F10                     move.l     -[A7], [A0]
00001B16  4EBA 0034                jsr        [PC + 0x34 /* 00001B4C */]
00001B1A  4FEF 0060                lea.l      A7, [A7 + 0x60]
label00001B1E:
00001B1E  7000                     moveq.l    D0, 0x00
00001B20  4E5E                     unlink     A6
00001B22  4E75                     rts
00001B24  8024 4F70 656E 446F 6... dc.b       "OpenDocument__11cSIMFarmAppFR6FSSpec"
export_632:
fn00001B4C:
00001B4C  4E56 FFFE                link       A6, -0x0002
00001B50  48E7 0118                movem.l    -[A7], D7,A3,A4
00001B54  286E 0008                movea.l    A4, [A6 + 0x8]
00001B58  7004                     moveq.l    D0, 0x04
00001B5A  2F00                     move.l     -[A7], D0
00001B5C  2F0C                     move.l     -[A7], A4
00001B5E  4EBA F4A2                jsr        [PC - 0xB5E /* 00001002 */]
00001B62  558F                     subq.l     A7, 2
00001B64  486E 0012                pea.l      [A6 + 0x12]
00001B68  7000                     moveq.l    D0, 0x00
00001B6A  1F00                     move.b     -[A7], D0
00001B6C  486E FFFE                pea.l      [A6 - 0x2]
00001B70  303C 0002                move.w     D0, 0x2
00001B74  AA52                     syscall    HFSPinaforeDispatch/HighLevelFSDispatch
00001B76  3E1F                     move.w     D7, [A7]+
00001B78  504F                     addq.w     A7, 8
00001B7A  6712                     beq        +0x14 /* 00001B8E */
00001B7C  7000                     moveq.l    D0, 0x00
00001B7E  2F00                     move.l     -[A7], D0
00001B80  2F0C                     move.l     -[A7], A4
00001B82  4EBA F47E                jsr        [PC - 0xB82 /* 00001002 */]
00001B86  7000                     moveq.l    D0, 0x00
00001B88  504F                     addq.w     A7, 8
00001B8A  6000 009C                bra        +0x9E /* 00001C28 */
label00001B8E:
00001B8E  302E FFFE                move.w     D0, [A6 - 0x2]
00001B92  48C0                     ext.l      D0
00001B94  2F00                     move.l     -[A7], D0
00001B96  4EAD 06AA                jsr        [A5 + 0x6AA /* export_209, CODE:12 @ 00000EC2 */]
00001B9A  4A80                     tst.l      D0
00001B9C  584F                     addq.w     A7, 4
00001B9E  661C                     bne        +0x1E /* 00001BBC */
00001BA0  7000                     moveq.l    D0, 0x00
00001BA2  2F00                     move.l     -[A7], D0
00001BA4  2F0C                     move.l     -[A7], A4
00001BA6  4EBA F45A                jsr        [PC - 0xBA6 /* 00001002 */]
00001BAA  558F                     subq.l     A7, 2
00001BAC  3F2E FFFE                move.w     -[A7], [A6 - 0x2]
00001BB0  4EAD 007A                jsr        [A5 + 0x7A /* export_11, CODE:1 @ 0000118E */]
00001BB4  7000                     moveq.l    D0, 0x00
00001BB6  4FEF 000A                lea.l      A7, [A7 + 0xA]
00001BBA  606C                     bra        +0x6E /* 00001C28 */
label00001BBC:
00001BBC  558F                     subq.l     A7, 2
00001BBE  3F2E FFFE                move.w     -[A7], [A6 - 0x2]
00001BC2  4EAD 007A                jsr        [A5 + 0x7A /* export_11, CODE:1 @ 0000118E */]
00001BC6  197C 0001 0138           move.b     [A4 + 0x138], 0x1
00001BCC  41EC 013A                lea.l      A0, [A4 + 0x13A]
00001BD0  43EE 0012                lea.l      A1, [A6 + 0x12]
00001BD4  7010                     moveq.l    D0, 0x10
label00001BD6:
00001BD6  20D9                     move.l     [A0]+, [A1]+
00001BD8  51C8 FFFC                dbf        D0, -0x6 /* 00001BD6 */
00001BDC  30D9                     move.w     [A0]+, [A1]+
00001BDE  204D                     movea.l    A0, A5
00001BE0  D1FC FFFE C11A           add.l      A0, 0xFFFEC11A
00001BE6  10BC 0001                move.b     [A0], 0x1
00001BEA  224D                     movea.l    A1, A5
00001BEC  D3FC FFFF 7868           add.l      A1, 0xFFFF7868
00001BF2  2051                     movea.l    A0, [A1]
00001BF4  2668 0128                movea.l    A3, [A0 + 0x128]
00001BF8  4AAB 00F0                tst.l      [A3 + 0xF0]
00001BFC  6712                     beq        +0x14 /* 00001C10 */
00001BFE  486C 0140                pea.l      [A4 + 0x140]
00001C02  2F2B 00F0                move.l     -[A7], [A3 + 0xF0]
00001C06  4EAD 0F02                jsr        [A5 + 0xF02 /* export_476, CODE:22 @ 00003046 */]
00001C0A  7000                     moveq.l    D0, 0x00
00001C0C  504F                     addq.w     A7, 8
00001C0E  6002                     bra        +0x4 /* 00001C12 */
label00001C10:
00001C10  7000                     moveq.l    D0, 0x00
label00001C12:
00001C12  2F0C                     move.l     -[A7], A4
00001C14  4EBA 07BE                jsr        [PC + 0x7BE /* 000023D4 */]
00001C18  7000                     moveq.l    D0, 0x00
00001C1A  2F00                     move.l     -[A7], D0
00001C1C  2F0C                     move.l     -[A7], A4
00001C1E  4EBA F3E2                jsr        [PC - 0xC1E /* 00001002 */]
00001C22  7001                     moveq.l    D0, 0x01
00001C24  4FEF 000E                lea.l      A7, [A7 + 0xE]
label00001C28:
00001C28  4CEE 1880 FFF2           movem.l    D7,A3,A4, [A6 - 0xE]
00001C2E  4E5E                     unlink     A6
00001C30  4E75                     rts
00001C32  802B 4C6F 6164 4761 6... dc.b       "LoadGame__11cSIMFarmAppF17StandardFileReply"
export_633:
00001C62  4E56 FF92                link       A6, -0x006E
00001C66  48E7 0118                movem.l    -[A7], D7,A3,A4
00001C6A  286E 0008                movea.l    A4, [A6 + 0x8]
00001C6E  7000                     moveq.l    D0, 0x00
00001C70  2F00                     move.l     -[A7], D0
00001C72  204D                     movea.l    A0, A5
00001C74  D1FC FFFF 729E           add.l      A0, 0xFFFF729E
00001C7A  4850                     pea.l      [A0]
00001C7C  486E FF9C                pea.l      [A6 - 0x64]
00001C80  4EAD 1772                jsr        [A5 + 0x1772 /* export_746, CODE:32 @ 00004CE0 */]
00001C84  7004                     moveq.l    D0, 0x04
00001C86  2F00                     move.l     -[A7], D0
00001C88  2F0C                     move.l     -[A7], A4
00001C8A  4EBA F376                jsr        [PC - 0xC8A /* 00001002 */]
00001C8E  302E 000E                move.w     D0, [A6 + 0xE]
00001C92  48C0                     ext.l      D0
00001C94  2F00                     move.l     -[A7], D0
00001C96  486E FF9C                pea.l      [A6 - 0x64]
00001C9A  4EAD 17FA                jsr        [A5 + 0x17FA /* export_763, CODE:32 @ 000057BC */]
00001C9E  426E FFBA                clr.w      [A6 - 0x46]
00001CA2  7000                     moveq.l    D0, 0x00
00001CA4  2D40 FFBC                move.l     [A6 - 0x44], D0
00001CA8  486E FF9C                pea.l      [A6 - 0x64]
00001CAC  4EAD 1792                jsr        [A5 + 0x1792 /* export_750, CODE:32 @ 000050C2 */]
00001CB0  224D                     movea.l    A1, A5
00001CB2  D3FC FFFF FB4A           add.l      A1, 0xFFFFFB4A
00001CB8  41D1                     lea.l      A0, [A1]
00001CBA  43EE FFC0                lea.l      A1, [A6 - 0x40]
00001CBE  2D48 FF96                move.l     [A6 - 0x6A], A0
00001CC2  2D49 FF92                move.l     [A6 - 0x6E], A1
00001CC6  486E FF9C                pea.l      [A6 - 0x64]
00001CCA  4EAD 1792                jsr        [A5 + 0x1792 /* export_750, CODE:32 @ 000050C2 */]
00001CCE  224D                     movea.l    A1, A5
00001CD0  D3FC FFFF FB4A           add.l      A1, 0xFFFFFB4A
00001CD6  41D1                     lea.l      A0, [A1]
00001CD8  7000                     moveq.l    D0, 0x00
00001CDA  1010                     move.b     D0, [A0]
00001CDC  5240                     addq.w     D0, 1
00001CDE  48C0                     ext.l      D0
00001CE0  206E FF96                movea.l    A0, [A6 - 0x6A]
00001CE4  226E FF92                movea.l    A1, [A6 - 0x6E]
00001CE8  A02E                     syscall    BlockMove/BlockMoveData
00001CEA  558F                     subq.l     A7, 2
00001CEC  486E FFBA                pea.l      [A6 - 0x46]
00001CF0  7000                     moveq.l    D0, 0x00
00001CF2  1F00                     move.b     -[A7], D0
00001CF4  486E FF9A                pea.l      [A6 - 0x66]
00001CF8  303C 0002                move.w     D0, 0x2
00001CFC  AA52                     syscall    HFSPinaforeDispatch/HighLevelFSDispatch
00001CFE  3E1F                     move.w     D7, [A7]+
00001D00  4FEF 0024                lea.l      A7, [A7 + 0x24]
00001D04  6762                     beq        +0x64 /* 00001D68 */
00001D06  486E FF9C                pea.l      [A6 - 0x64]
00001D0A  4EAD 1792                jsr        [A5 + 0x1792 /* export_750, CODE:32 @ 000050C2 */]
00001D0E  224D                     movea.l    A1, A5
00001D10  D3FC FFFF FB4A           add.l      A1, 0xFFFFFB4A
00001D16  41D1                     lea.l      A0, [A1]
00001D18  588F                     addq.l     A7, 4
00001D1A  2F08                     move.l     -[A7], A0
00001D1C  204D                     movea.l    A0, A5
00001D1E  D1FC FFFF 72B4           add.l      A0, 0xFFFF72B4
00001D24  4850                     pea.l      [A0]
00001D26  204D                     movea.l    A0, A5
00001D28  D1FC FFFF 72B6           add.l      A0, 0xFFFF72B6
00001D2E  4850                     pea.l      [A0]
00001D30  204D                     movea.l    A0, A5
00001D32  D1FC FFFF 72B8           add.l      A0, 0xFFFF72B8
00001D38  4850                     pea.l      [A0]
00001D3A  A98B                     syscall    ParamText
00001D3C  558F                     subq.l     A7, 2
00001D3E  3F3C 03EA                move.w     -[A7], 0x3EA
00001D42  7000                     moveq.l    D0, 0x00
00001D44  2F00                     move.l     -[A7], D0
00001D46  A985                     syscall    Alert
00001D48  3E1F                     move.w     D7, [A7]+
00001D4A  7000                     moveq.l    D0, 0x00
00001D4C  2F00                     move.l     -[A7], D0
00001D4E  2F0C                     move.l     -[A7], A4
00001D50  4EBA F2B0                jsr        [PC - 0xD50 /* 00001002 */]
00001D54  7002                     moveq.l    D0, 0x02
00001D56  2F00                     move.l     -[A7], D0
00001D58  486E FF9C                pea.l      [A6 - 0x64]
00001D5C  4EAD 177A                jsr        [A5 + 0x177A /* export_747, CODE:32 @ 00004DBC */]
00001D60  7000                     moveq.l    D0, 0x00
00001D62  4FEF 0010                lea.l      A7, [A7 + 0x10]
00001D66  6064                     bra        +0x66 /* 00001DCC */
label00001D68:
00001D68  302E FF9A                move.w     D0, [A6 - 0x66]
00001D6C  48C0                     ext.l      D0
00001D6E  2F00                     move.l     -[A7], D0
00001D70  4EAD 06AA                jsr        [A5 + 0x6AA /* export_209, CODE:12 @ 00000EC2 */]
00001D74  558F                     subq.l     A7, 2
00001D76  3F2E FF9A                move.w     -[A7], [A6 - 0x66]
00001D7A  4EAD 007A                jsr        [A5 + 0x7A /* export_11, CODE:1 @ 0000118E */]
00001D7E  224D                     movea.l    A1, A5
00001D80  D3FC FFFF 7868           add.l      A1, 0xFFFF7868
00001D86  2051                     movea.l    A0, [A1]
00001D88  2668 0128                movea.l    A3, [A0 + 0x128]
00001D8C  4AAB 00F0                tst.l      [A3 + 0xF0]
00001D90  6718                     beq        +0x1A /* 00001DAA */
00001D92  204D                     movea.l    A0, A5
00001D94  D1FC FFFF 72BA           add.l      A0, 0xFFFF72BA
00001D9A  4850                     pea.l      [A0]
00001D9C  2F2B 00F0                move.l     -[A7], [A3 + 0xF0]
00001DA0  4EAD 0F02                jsr        [A5 + 0xF02 /* export_476, CODE:22 @ 00003046 */]
00001DA4  7000                     moveq.l    D0, 0x00
00001DA6  504F                     addq.w     A7, 8
00001DA8  6002                     bra        +0x4 /* 00001DAC */
label00001DAA:
00001DAA  7000                     moveq.l    D0, 0x00
label00001DAC:
00001DAC  422C 0138                clr.b      [A4 + 0x138]
00001DB0  7000                     moveq.l    D0, 0x00
00001DB2  2F00                     move.l     -[A7], D0
00001DB4  2F0C                     move.l     -[A7], A4
00001DB6  4EBA F24A                jsr        [PC - 0xDB6 /* 00001002 */]
00001DBA  7002                     moveq.l    D0, 0x02
00001DBC  2F00                     move.l     -[A7], D0
00001DBE  486E FF9C                pea.l      [A6 - 0x64]
00001DC2  4EAD 177A                jsr        [A5 + 0x177A /* export_747, CODE:32 @ 00004DBC */]
00001DC6  7001                     moveq.l    D0, 0x01
00001DC8  4FEF 0016                lea.l      A7, [A7 + 0x16]
label00001DCC:
00001DCC  4CEE 1880 FF86           movem.l    D7,A3,A4, [A6 - 0x7A]
00001DD2  4E5E                     unlink     A6
00001DD4  4E75                     rts
00001DD6  9E4C 6F61 6441 5363 6... dc.b       "LoadAScenario__11cSIMFarmAppFs"
export_634:
fn00001DF8:
00001DF8  4E56 FFA4                link       A6, -0x005C
00001DFC  48E7 0318                movem.l    -[A7], D6,D7,A3,A4
00001E00  286E 0008                movea.l    A4, [A6 + 0x8]
00001E04  4A2C 0138                tst.b      [A4 + 0x138]
00001E08  6600 008A                bne        +0x8C /* 00001E94 */
00001E0C  204D                     movea.l    A0, A5
00001E0E  D1FC FFFF 72C4           add.l      A0, 0xFFFF72C4
00001E14  4850                     pea.l      [A0]
00001E16  204D                     movea.l    A0, A5
00001E18  D1FC FFFF 72CE           add.l      A0, 0xFFFF72CE
00001E1E  4850                     pea.l      [A0]
00001E20  486E FFA4                pea.l      [A6 - 0x5C]
00001E24  3F3C 0005                move.w     -[A7], 0x5
00001E28  A9EA                     syscall    Pack3
00001E2A  4A2E FFA4                tst.b      [A6 - 0x5C]
00001E2E  6700 012C                beq        +0x12E /* 00001F5C */
00001E32  4A2E FFA5                tst.b      [A6 - 0x5B]
00001E36  664A                     bne        +0x4C /* 00001E82 */
00001E38  302E FFAA                move.w     D0, [A6 - 0x56]
00001E3C  48C0                     ext.l      D0
00001E3E  2F00                     move.l     -[A7], D0
00001E40  4EBA 0D88                jsr        [PC + 0xD88 /* 00002BCA */]
00001E44  0C80 0003 2000           cmpi.l     D0, 0x32000
00001E4A  584F                     addq.w     A7, 4
00001E4C  6C12                     bge        +0x14 /* 00001E60 */
00001E4E  558F                     subq.l     A7, 2
00001E50  3F3C 03F0                move.w     -[A7], 0x3F0
00001E54  7000                     moveq.l    D0, 0x00
00001E56  2F00                     move.l     -[A7], D0
00001E58  A985                     syscall    Alert
00001E5A  3E1F                     move.w     D7, [A7]+
00001E5C  6000 00FE                bra        +0x100 /* 00001F5C */
label00001E60:
00001E60  558F                     subq.l     A7, 2
00001E62  486E FFAA                pea.l      [A6 - 0x56]
00001E66  2F3C 4661 726D           move.l     -[A7], 0x4661726D /* 'Farm' */
00001E6C  2F3C 4661 7244           move.l     -[A7], 0x46617244 /* 'FarD' */
00001E72  70FF                     moveq.l    D0, 0xFFFFFFFF
00001E74  3F00                     move.w     -[A7], D0
00001E76  303C 0004                move.w     D0, 0x4
00001E7A  AA52                     syscall    HFSPinaforeDispatch/HighLevelFSDispatch
00001E7C  3E1F                     move.w     D7, [A7]+
00001E7E  6600 00DC                bne        +0xDE /* 00001F5C */
label00001E82:
00001E82  41EC 013A                lea.l      A0, [A4 + 0x13A]
00001E86  43EE FFAA                lea.l      A1, [A6 - 0x56]
00001E8A  7010                     moveq.l    D0, 0x10
label00001E8C:
00001E8C  20D9                     move.l     [A0]+, [A1]+
00001E8E  51C8 FFFC                dbf        D0, -0x6 /* 00001E8C */
00001E92  30D9                     move.w     [A0]+, [A1]+
label00001E94:
00001E94  302C 013A                move.w     D0, [A4 + 0x13A]
00001E98  48C0                     ext.l      D0
00001E9A  2F00                     move.l     -[A7], D0
00001E9C  4EBA 0D2C                jsr        [PC + 0xD2C /* 00002BCA */]
00001EA0  0C80 0003 2000           cmpi.l     D0, 0x32000
00001EA6  584F                     addq.w     A7, 4
00001EA8  6C12                     bge        +0x14 /* 00001EBC */
00001EAA  558F                     subq.l     A7, 2
00001EAC  3F3C 03F0                move.w     -[A7], 0x3F0
00001EB0  7000                     moveq.l    D0, 0x00
00001EB2  2F00                     move.l     -[A7], D0
00001EB4  A985                     syscall    Alert
00001EB6  3C1F                     move.w     D6, [A7]+
00001EB8  6000 00A2                bra        +0xA4 /* 00001F5C */
label00001EBC:
00001EBC  7004                     moveq.l    D0, 0x04
00001EBE  2F00                     move.l     -[A7], D0
00001EC0  2F0C                     move.l     -[A7], A4
00001EC2  4EBA F13E                jsr        [PC - 0xEC2 /* 00001002 */]
00001EC6  558F                     subq.l     A7, 2
00001EC8  486C 013A                pea.l      [A4 + 0x13A]
00001ECC  7000                     moveq.l    D0, 0x00
00001ECE  1F00                     move.b     -[A7], D0
00001ED0  486E FFFC                pea.l      [A6 - 0x4]
00001ED4  303C 0002                move.w     D0, 0x2
00001ED8  AA52                     syscall    HFSPinaforeDispatch/HighLevelFSDispatch
00001EDA  3E1F                     move.w     D7, [A7]+
00001EDC  504F                     addq.w     A7, 8
00001EDE  670E                     beq        +0x10 /* 00001EEE */
00001EE0  7000                     moveq.l    D0, 0x00
00001EE2  2F00                     move.l     -[A7], D0
00001EE4  2F0C                     move.l     -[A7], A4
00001EE6  4EBA F11A                jsr        [PC - 0xEE6 /* 00001002 */]
00001EEA  504F                     addq.w     A7, 8
00001EEC  606E                     bra        +0x70 /* 00001F5C */
label00001EEE:
00001EEE  302E FFFC                move.w     D0, [A6 - 0x4]
00001EF2  48C0                     ext.l      D0
00001EF4  2F00                     move.l     -[A7], D0
00001EF6  4EAD 06A2                jsr        [A5 + 0x6A2 /* export_208, CODE:12 @ 00000000 */]
00001EFA  558F                     subq.l     A7, 2
00001EFC  3F2E FFFC                move.w     -[A7], [A6 - 0x4]
00001F00  486E FFFE                pea.l      [A6 - 0x2]
00001F04  4EAD 00CA                jsr        [A5 + 0xCA /* export_21, CODE:1 @ 00001310 */]
00001F08  558F                     subq.l     A7, 2
00001F0A  7000                     moveq.l    D0, 0x00
00001F0C  2F00                     move.l     -[A7], D0
00001F0E  3F2E FFFE                move.w     -[A7], [A6 - 0x2]
00001F12  4EAD 00B2                jsr        [A5 + 0xB2 /* export_18, CODE:1 @ 000012AA */]
00001F16  558F                     subq.l     A7, 2
00001F18  3F2E FFFC                move.w     -[A7], [A6 - 0x4]
00001F1C  4EAD 007A                jsr        [A5 + 0x7A /* export_11, CODE:1 @ 0000118E */]
00001F20  197C 0001 0138           move.b     [A4 + 0x138], 0x1
00001F26  224D                     movea.l    A1, A5
00001F28  D3FC FFFF 7868           add.l      A1, 0xFFFF7868
00001F2E  2051                     movea.l    A0, [A1]
00001F30  2668 0128                movea.l    A3, [A0 + 0x128]
00001F34  4AAB 00F0                tst.l      [A3 + 0xF0]
00001F38  6712                     beq        +0x14 /* 00001F4C */
00001F3A  486C 0140                pea.l      [A4 + 0x140]
00001F3E  2F2B 00F0                move.l     -[A7], [A3 + 0xF0]
00001F42  4EAD 0F02                jsr        [A5 + 0xF02 /* export_476, CODE:22 @ 00003046 */]
00001F46  7000                     moveq.l    D0, 0x00
00001F48  504F                     addq.w     A7, 8
00001F4A  6002                     bra        +0x4 /* 00001F4E */
label00001F4C:
00001F4C  7000                     moveq.l    D0, 0x00
label00001F4E:
00001F4E  7000                     moveq.l    D0, 0x00
00001F50  2F00                     move.l     -[A7], D0
00001F52  2F0C                     move.l     -[A7], A4
00001F54  4EBA F0AC                jsr        [PC - 0xF54 /* 00001002 */]
00001F58  4FEF 0012                lea.l      A7, [A7 + 0x12]
label00001F5C:
00001F5C  4CEE 18C0 FF94           movem.l    D6,D7,A3,A4, [A6 - 0x6C]
00001F62  4E5E                     unlink     A6
00001F64  4E75                     rts
00001F66  9953 6176 6547 616D 6... dc.b       "SaveGame__11cSIMFarmAppFv"
export_635:
00001F82  4E56 FFFC                link       A6, -0x0004
00001F86  48E7 0118                movem.l    -[A7], D7,A3,A4
00001F8A  286E 0008                movea.l    A4, [A6 + 0x8]
00001F8E  302E 0012                move.w     D0, [A6 + 0x12]
00001F92  48C0                     ext.l      D0
00001F94  2F00                     move.l     -[A7], D0
00001F96  4EBA 0C32                jsr        [PC + 0xC32 /* 00002BCA */]
00001F9A  0C80 0003 2000           cmpi.l     D0, 0x32000
00001FA0  584F                     addq.w     A7, 4
00001FA2  6C12                     bge        +0x14 /* 00001FB6 */
00001FA4  558F                     subq.l     A7, 2
00001FA6  3F3C 03F0                move.w     -[A7], 0x3F0
00001FAA  7000                     moveq.l    D0, 0x00
00001FAC  2F00                     move.l     -[A7], D0
00001FAE  A985                     syscall    Alert
00001FB0  3E1F                     move.w     D7, [A7]+
00001FB2  6000 00EC                bra        +0xEE /* 000020A0 */
label00001FB6:
00001FB6  7004                     moveq.l    D0, 0x04
00001FB8  2F00                     move.l     -[A7], D0
00001FBA  2F0C                     move.l     -[A7], A4
00001FBC  4EBA F044                jsr        [PC - 0xFBC /* 00001002 */]
00001FC0  4A2E 000D                tst.b      [A6 + 0xD]
00001FC4  504F                     addq.w     A7, 8
00001FC6  6630                     bne        +0x32 /* 00001FF8 */
00001FC8  558F                     subq.l     A7, 2
00001FCA  486E 0012                pea.l      [A6 + 0x12]
00001FCE  2F3C 4661 726D           move.l     -[A7], 0x4661726D /* 'Farm' */
00001FD4  2F3C 4661 7244           move.l     -[A7], 0x46617244 /* 'FarD' */
00001FDA  70FF                     moveq.l    D0, 0xFFFFFFFF
00001FDC  3F00                     move.w     -[A7], D0
00001FDE  303C 0004                move.w     D0, 0x4
00001FE2  AA52                     syscall    HFSPinaforeDispatch/HighLevelFSDispatch
00001FE4  3E1F                     move.w     D7, [A7]+
00001FE6  6710                     beq        +0x12 /* 00001FF8 */
00001FE8  7000                     moveq.l    D0, 0x00
00001FEA  2F00                     move.l     -[A7], D0
00001FEC  2F0C                     move.l     -[A7], A4
00001FEE  4EBA F012                jsr        [PC - 0xFEE /* 00001002 */]
00001FF2  504F                     addq.w     A7, 8
00001FF4  6000 00AA                bra        +0xAC /* 000020A0 */
label00001FF8:
00001FF8  558F                     subq.l     A7, 2
00001FFA  486E 0012                pea.l      [A6 + 0x12]
00001FFE  7000                     moveq.l    D0, 0x00
00002000  1F00                     move.b     -[A7], D0
00002002  486E FFFC                pea.l      [A6 - 0x4]
00002006  303C 0002                move.w     D0, 0x2
0000200A  AA52                     syscall    HFSPinaforeDispatch/HighLevelFSDispatch
0000200C  3E1F                     move.w     D7, [A7]+
0000200E  6710                     beq        +0x12 /* 00002020 */
00002010  7000                     moveq.l    D0, 0x00
00002012  2F00                     move.l     -[A7], D0
00002014  2F0C                     move.l     -[A7], A4
00002016  4EBA EFEA                jsr        [PC - 0x1016 /* 00001002 */]
0000201A  504F                     addq.w     A7, 8
0000201C  6000 0082                bra        +0x84 /* 000020A0 */
label00002020:
00002020  302E FFFC                move.w     D0, [A6 - 0x4]
00002024  48C0                     ext.l      D0
00002026  2F00                     move.l     -[A7], D0
00002028  4EAD 06A2                jsr        [A5 + 0x6A2 /* export_208, CODE:12 @ 00000000 */]
0000202C  558F                     subq.l     A7, 2
0000202E  3F2E FFFC                move.w     -[A7], [A6 - 0x4]
00002032  486E FFFE                pea.l      [A6 - 0x2]
00002036  4EAD 00CA                jsr        [A5 + 0xCA /* export_21, CODE:1 @ 00001310 */]
0000203A  558F                     subq.l     A7, 2
0000203C  7000                     moveq.l    D0, 0x00
0000203E  2F00                     move.l     -[A7], D0
00002040  3F2E FFFE                move.w     -[A7], [A6 - 0x2]
00002044  4EAD 00B2                jsr        [A5 + 0xB2 /* export_18, CODE:1 @ 000012AA */]
00002048  558F                     subq.l     A7, 2
0000204A  3F2E FFFC                move.w     -[A7], [A6 - 0x4]
0000204E  4EAD 007A                jsr        [A5 + 0x7A /* export_11, CODE:1 @ 0000118E */]
00002052  41EC 013A                lea.l      A0, [A4 + 0x13A]
00002056  43EE 0012                lea.l      A1, [A6 + 0x12]
0000205A  7010                     moveq.l    D0, 0x10
label0000205C:
0000205C  20D9                     move.l     [A0]+, [A1]+
0000205E  51C8 FFFC                dbf        D0, -0x6 /* 0000205C */
00002062  30D9                     move.w     [A0]+, [A1]+
00002064  197C 0001 0138           move.b     [A4 + 0x138], 0x1
0000206A  224D                     movea.l    A1, A5
0000206C  D3FC FFFF 7868           add.l      A1, 0xFFFF7868
00002072  2051                     movea.l    A0, [A1]
00002074  2668 0128                movea.l    A3, [A0 + 0x128]
00002078  4AAB 00F0                tst.l      [A3 + 0xF0]
0000207C  6712                     beq        +0x14 /* 00002090 */
0000207E  486C 0140                pea.l      [A4 + 0x140]
00002082  2F2B 00F0                move.l     -[A7], [A3 + 0xF0]
00002086  4EAD 0F02                jsr        [A5 + 0xF02 /* export_476, CODE:22 @ 00003046 */]
0000208A  7000                     moveq.l    D0, 0x00
0000208C  504F                     addq.w     A7, 8
0000208E  6002                     bra        +0x4 /* 00002092 */
label00002090:
00002090  7000                     moveq.l    D0, 0x00
label00002092:
00002092  7000                     moveq.l    D0, 0x00
00002094  2F00                     move.l     -[A7], D0
00002096  2F0C                     move.l     -[A7], A4
00002098  4EBA EF68                jsr        [PC - 0x1098 /* 00001002 */]
0000209C  4FEF 0012                lea.l      A7, [A7 + 0x12]
label000020A0:
000020A0  4CEE 1880 FFF0           movem.l    D7,A3,A4, [A6 - 0x10]
000020A6  4E5E                     unlink     A6
000020A8  4E75                     rts
000020AA  802D 5361 7665 4761 6... dc.b       "SaveGameAs__11cSIMFarmAppF17StandardFileReply"
export_636:
fn000020DC:
000020DC  4E56 FFE2                link       A6, -0x001E
000020E0  48E7 0108                movem.l    -[A7], D7,A4
000020E4  286E 0008                movea.l    A4, [A6 + 0x8]
000020E8  7000                     moveq.l    D0, 0x00
000020EA  2F00                     move.l     -[A7], D0
000020EC  2F00                     move.l     -[A7], D0
000020EE  486E FFE2                pea.l      [A6 - 0x1E]
000020F2  4EAD 1772                jsr        [A5 + 0x1772 /* export_746, CODE:32 @ 00004CE0 */]
000020F6  4A2C 0138                tst.b      [A4 + 0x138]
000020FA  4FEF 000C                lea.l      A7, [A7 + 0xC]
000020FE  662C                     bne        +0x2E /* 0000212C */
00002100  204D                     movea.l    A0, A5
00002102  D1FC FFFF 72D8           add.l      A0, 0xFFFF72D8
00002108  4850                     pea.l      [A0]
0000210A  204D                     movea.l    A0, A5
0000210C  D1FC FFFF 72E2           add.l      A0, 0xFFFF72E2
00002112  4850                     pea.l      [A0]
00002114  204D                     movea.l    A0, A5
00002116  D1FC FFFF 72E4           add.l      A0, 0xFFFF72E4
0000211C  4850                     pea.l      [A0]
0000211E  204D                     movea.l    A0, A5
00002120  D1FC FFFF 72E6           add.l      A0, 0xFFFF72E6
00002126  4850                     pea.l      [A0]
00002128  A98B                     syscall    ParamText
0000212A  6024                     bra        +0x26 /* 00002150 */
label0000212C:
0000212C  486C 0140                pea.l      [A4 + 0x140]
00002130  204D                     movea.l    A0, A5
00002132  D1FC FFFF 72E8           add.l      A0, 0xFFFF72E8
00002138  4850                     pea.l      [A0]
0000213A  204D                     movea.l    A0, A5
0000213C  D1FC FFFF 72EA           add.l      A0, 0xFFFF72EA
00002142  4850                     pea.l      [A0]
00002144  204D                     movea.l    A0, A5
00002146  D1FC FFFF 72EC           add.l      A0, 0xFFFF72EC
0000214C  4850                     pea.l      [A0]
0000214E  A98B                     syscall    ParamText
label00002150:
00002150  558F                     subq.l     A7, 2
00002152  3F3C 03E9                move.w     -[A7], 0x3E9
00002156  7000                     moveq.l    D0, 0x00
00002158  2F00                     move.l     -[A7], D0
0000215A  A985                     syscall    Alert
0000215C  3E1F                     move.w     D7, [A7]+
0000215E  3007                     move.w     D0, D7
00002160  5340                     subq.w     D0, 1
00002162  670A                     beq        +0xC /* 0000216E */
00002164  5340                     subq.w     D0, 1
00002166  6720                     beq        +0x22 /* 00002188 */
00002168  5340                     subq.w     D0, 1
0000216A  672E                     beq        +0x30 /* 0000219A */
0000216C  602C                     bra        +0x2E /* 0000219A */
label0000216E:
0000216E  2F0C                     move.l     -[A7], A4
00002170  4EBA FC86                jsr        [PC - 0x37A /* 00001DF8 */]
00002174  7002                     moveq.l    D0, 0x02
00002176  2F00                     move.l     -[A7], D0
00002178  486E FFE2                pea.l      [A6 - 0x1E]
0000217C  4EAD 177A                jsr        [A5 + 0x177A /* export_747, CODE:32 @ 00004DBC */]
00002180  7001                     moveq.l    D0, 0x01
00002182  4FEF 000C                lea.l      A7, [A7 + 0xC]
00002186  6022                     bra        +0x24 /* 000021AA */
label00002188:
00002188  7002                     moveq.l    D0, 0x02
0000218A  2F00                     move.l     -[A7], D0
0000218C  486E FFE2                pea.l      [A6 - 0x1E]
00002190  4EAD 177A                jsr        [A5 + 0x177A /* export_747, CODE:32 @ 00004DBC */]
00002194  7001                     moveq.l    D0, 0x01
00002196  504F                     addq.w     A7, 8
00002198  6010                     bra        +0x12 /* 000021AA */
label0000219A:
0000219A  7002                     moveq.l    D0, 0x02
0000219C  2F00                     move.l     -[A7], D0
0000219E  486E FFE2                pea.l      [A6 - 0x1E]
000021A2  4EAD 177A                jsr        [A5 + 0x177A /* export_747, CODE:32 @ 00004DBC */]
000021A6  7000                     moveq.l    D0, 0x00
000021A8  504F                     addq.w     A7, 8
label000021AA:
000021AA  4CEE 1080 FFDA           movem.l    D7,A4, [A6 - 0x26]
000021B0  4E5E                     unlink     A6
000021B2  4E75                     rts
000021B4  8022 5361 7665 4265 6... dc.b       "SaveBeforeClosing__11cSIMFarmAppFv"
export_637:
fn000021DA:
000021DA  4E56 0000                link       A6, 0
000021DE  48E7 0018                movem.l    -[A7], A3,A4
000021E2  286E 0008                movea.l    A4, [A6 + 0x8]
000021E6  197C 0001 0133           move.b     [A4 + 0x133], 0x1
000021EC  422C 0138                clr.b      [A4 + 0x138]
000021F0  224D                     movea.l    A1, A5
000021F2  D3FC FFFF 7868           add.l      A1, 0xFFFF7868
000021F8  2051                     movea.l    A0, [A1]
000021FA  2668 0128                movea.l    A3, [A0 + 0x128]
000021FE  4AAB 00F0                tst.l      [A3 + 0xF0]
00002202  6718                     beq        +0x1A /* 0000221C */
00002204  204D                     movea.l    A0, A5
00002206  D1FC FFFF 72EE           add.l      A0, 0xFFFF72EE
0000220C  4850                     pea.l      [A0]
0000220E  2F2B 00F0                move.l     -[A7], [A3 + 0xF0]
00002212  4EAD 0F02                jsr        [A5 + 0xF02 /* export_476, CODE:22 @ 00003046 */]
00002216  7000                     moveq.l    D0, 0x00
00002218  504F                     addq.w     A7, 8
0000221A  6002                     bra        +0x4 /* 0000221E */
label0000221C:
0000221C  7000                     moveq.l    D0, 0x00
label0000221E:
0000221E  226C 0128                movea.l    A1, [A4 + 0x128]
00002222  2069 00F4                movea.l    A0, [A1 + 0xF4]
00002226  2248                     movea.l    A1, A0
00002228  2269 0060                movea.l    A1, [A1 + 0x60]
0000222C  D0E9 0110                add.w      A0, [A1 + 0x110]
00002230  2F08                     move.l     -[A7], A0
00002232  206C 0128                movea.l    A0, [A4 + 0x128]
00002236  2068 00F4                movea.l    A0, [A0 + 0xF4]
0000223A  2068 0060                movea.l    A0, [A0 + 0x60]
0000223E  2268 0114                movea.l    A1, [A0 + 0x114]
00002242  4E91                     jsr        [A1]
00002244  4EAD 0842                jsr        [A5 + 0x842 /* export_260, CODE:14 @ 00004CCA */]
00002248  224D                     movea.l    A1, A5
0000224A  D3FC FFFF 7868           add.l      A1, 0xFFFF7868
00002250  2051                     movea.l    A0, [A1]
00002252  2F28 0128                move.l     -[A7], [A0 + 0x128]
00002256  4EAD 080A                jsr        [A5 + 0x80A /* export_253, CODE:13 @ 00006BA6 */]
0000225A  2F2C 0128                move.l     -[A7], [A4 + 0x128]
0000225E  4EAD 0812                jsr        [A5 + 0x812 /* export_254, CODE:13 @ 00006DC6 */]
00002262  2F0C                     move.l     -[A7], A4
00002264  7000                     moveq.l    D0, 0x00
00002266  2F00                     move.l     -[A7], D0
00002268  2F00                     move.l     -[A7], D0
0000226A  4EAD 0D72                jsr        [A5 + 0xD72 /* export_426, CODE:20 @ 00002F00 */]
0000226E  2940 012C                move.l     [A4 + 0x12C], D0
00002272  7001                     moveq.l    D0, 0x01
00002274  4FEF 0018                lea.l      A7, [A7 + 0x18]
00002278  4CEE 1800 FFF8           movem.l    A3,A4, [A6 - 0x8]
0000227E  4E5E                     unlink     A6
00002280  4E75                     rts
00002282  984E 6577 4761 6D65 5... dc.b       "NewGame__11cSIMFarmAppFv"
fn0000229E:
0000229E  4E56 FEF0                link       A6, -0x0110
000022A2  48E7 0128                movem.l    -[A7], D7,A2,A4
000022A6  49EE FEF0                lea.l      A4, [A6 - 0x110]
000022AA  224D                     movea.l    A1, A5
000022AC  D3FC FFFF 72F8           add.l      A1, 0xFFFF72F8
000022B2  41D1                     lea.l      A0, [A1]
000022B4  43D4                     lea.l      A1, [A4]
000022B6  22D8                     move.l     [A1]+, [A0]+
000022B8  22D8                     move.l     [A1]+, [A0]+
000022BA  22D8                     move.l     [A1]+, [A0]+
000022BC  32D8                     move.w     [A1]+, [A0]+
000022BE  204D                     movea.l    A0, A5
000022C0  D1FC FFFF 7822           add.l      A0, 0xFFFF7822
000022C6  4250                     clr.w      [A0]
000022C8  204D                     movea.l    A0, A5
000022CA  D1FC FFFF 7824           add.l      A0, 0xFFFF7824
000022D0  7000                     moveq.l    D0, 0x00
000022D2  2080                     move.l     [A0], D0
000022D4  204C                     movea.l    A0, A4
000022D6  244D                     movea.l    A2, A5
000022D8  D5FC FFFF 7828           add.l      A2, 0xFFFF7828
000022DE  43D2                     lea.l      A1, [A2]
000022E0  7000                     moveq.l    D0, 0x00
000022E2  1014                     move.b     D0, [A4]
000022E4  5240                     addq.w     D0, 1
000022E6  48C0                     ext.l      D0
000022E8  A02E                     syscall    BlockMove/BlockMoveData
000022EA  558F                     subq.l     A7, 2
000022EC  204D                     movea.l    A0, A5
000022EE  D1FC FFFF 7822           add.l      A0, 0xFFFF7822
000022F4  4850                     pea.l      [A0]
000022F6  303C 0006                move.w     D0, 0x6
000022FA  AA52                     syscall    HFSPinaforeDispatch/HighLevelFSDispatch
000022FC  3E1F                     move.w     D7, [A7]+
000022FE  558F                     subq.l     A7, 2
00002300  204D                     movea.l    A0, A5
00002302  D1FC FFFF 7822           add.l      A0, 0xFFFF7822
00002308  4850                     pea.l      [A0]
0000230A  2F3C 4661 726D           move.l     -[A7], 0x4661726D /* 'Farm' */
00002310  2F3C 6A75 6E6B           move.l     -[A7], 0x6A756E6B /* 'junk' */
00002316  70FF                     moveq.l    D0, 0xFFFFFFFF
00002318  3F00                     move.w     -[A7], D0
0000231A  303C 0004                move.w     D0, 0x4
0000231E  AA52                     syscall    HFSPinaforeDispatch/HighLevelFSDispatch
00002320  3E1F                     move.w     D7, [A7]+
00002322  6638                     bne        +0x3A /* 0000235C */
00002324  558F                     subq.l     A7, 2
00002326  204D                     movea.l    A0, A5
00002328  D1FC FFFF 7822           add.l      A0, 0xFFFF7822
0000232E  4850                     pea.l      [A0]
00002330  486E FFF0                pea.l      [A6 - 0x10]
00002334  303C 0007                move.w     D0, 0x7
00002338  AA52                     syscall    HFSPinaforeDispatch/HighLevelFSDispatch
0000233A  3E1F                     move.w     D7, [A7]+
0000233C  661E                     bne        +0x20 /* 0000235C */
0000233E  006E 4000 FFF8           ori.w      [A6 - 0x8], 0x4000 /* '@\0' */
00002344  558F                     subq.l     A7, 2
00002346  204D                     movea.l    A0, A5
00002348  D1FC FFFF 7822           add.l      A0, 0xFFFF7822
0000234E  4850                     pea.l      [A0]
00002350  486E FFF0                pea.l      [A6 - 0x10]
00002354  303C 0008                move.w     D0, 0x8
00002358  AA52                     syscall    HFSPinaforeDispatch/HighLevelFSDispatch
0000235A  3E1F                     move.w     D7, [A7]+
label0000235C:
0000235C  4CEE 1480 FEE4           movem.l    D7,A2,A4, [A6 - 0x11C]
00002362  4E5E                     unlink     A6
00002364  4E75                     rts
00002366  8022 4372 6561 7465 4... dc.b       "CreateHistoryFile__11cSIMFarmAppFv"
fn0000238C:
0000238C  4E56 0000                link       A6, 0
00002390  2F07                     move.l     -[A7], D7
00002392  558F                     subq.l     A7, 2
00002394  204D                     movea.l    A0, A5
00002396  D1FC FFFF 7822           add.l      A0, 0xFFFF7822
0000239C  4850                     pea.l      [A0]
0000239E  303C 0006                move.w     D0, 0x6
000023A2  AA52                     syscall    HFSPinaforeDispatch/HighLevelFSDispatch
000023A4  3E1F                     move.w     D7, [A7]+
000023A6  2E2E FFFC                move.l     D7, [A6 - 0x4]
000023AA  4E5E                     unlink     A6
000023AC  4E75                     rts
000023AE  8022 4465 6C65 7465 4... dc.b       "DeleteHistoryFile__11cSIMFarmAppFv"
fn000023D4:
000023D4  4E56 FFD2                link       A6, -0x002E
000023D8  48E7 1F18                movem.l    -[A7], D3,D4,D5,D6,D7,A3,A4
000023DC  286E 0008                movea.l    A4, [A6 + 0x8]
000023E0  2F2C 0128                move.l     -[A7], [A4 + 0x128]
000023E4  4EAD 081A                jsr        [A5 + 0x81A /* export_255, CODE:13 @ 00006E72 */]
000023E8  206C 0128                movea.l    A0, [A4 + 0x128]
000023EC  2D48 FFE4                move.l     [A6 - 0x1C], A0
000023F0  2668 00F4                movea.l    A3, [A0 + 0xF4]
000023F4  206B 0174                movea.l    A0, [A3 + 0x174]
000023F8  117C 0001 015E           move.b     [A0 + 0x15E], 0x1
000023FE  7000                     moveq.l    D0, 0x00
00002400  2F00                     move.l     -[A7], D0
00002402  2F0C                     move.l     -[A7], A4
00002404  2F3C 4E65 7747           move.l     -[A7], 0x4E657747 /* 'NewG' */
0000240A  4EAD 189A                jsr        [A5 + 0x189A /* export_783, CODE:32 @ 000062EE */]
0000240E  204D                     movea.l    A0, A5
00002410  D1FC FFFE C11A           add.l      A0, 0xFFFEC11A
00002416  4A10                     tst.b      [A0]
00002418  4FEF 0010                lea.l      A7, [A7 + 0x10]
0000241C  6710                     beq        +0x12 /* 0000242E */
0000241E  7003                     moveq.l    D0, 0x03
00002420  204D                     movea.l    A0, A5
00002422  D1FC FFFE C11A           add.l      A0, 0xFFFEC11A
00002428  B010                     cmp.b      D0, [A0]
0000242A  6600 0148                bne        +0x14A /* 00002574 */
label0000242E:
0000242E  204D                     movea.l    A0, A5
00002430  D1FC FFFF 781C           add.l      A0, 0xFFFF781C
00002436  3C10                     move.w     D6, [A0]
00002438  6040                     bra        +0x42 /* 0000247A */
label0000243A:
0000243A  204D                     movea.l    A0, A5
0000243C  D1FC FFFF 781A           add.l      A0, 0xFFFF781A
00002442  3E10                     move.w     D7, [A0]
00002444  601C                     bra        +0x1E /* 00002462 */
label00002446:
00002446  2006                     move.l     D0, D6
00002448  C1FC 000C                muls.w     D0, 0xC
0000244C  204D                     movea.l    A0, A5
0000244E  D1FC FFFE 97B2           add.l      A0, 0xFFFE97B2
00002454  2207                     move.l     D1, D7
00002456  D240                     add.w      D1, D0
00002458  11BC 0001 1000           move.b     [A0 + D1.w], 0x1
0000245E  3007                     move.w     D0, D7
00002460  5247                     addq.w     D7, 1
label00002462:
00002462  48C7                     ext.l      D7
00002464  204D                     movea.l    A0, A5
00002466  D1FC FFFF 781A           add.l      A0, 0xFFFF781A
0000246C  3010                     move.w     D0, [A0]
0000246E  48C0                     ext.l      D0
00002470  5680                     addq.l     D0, 3
00002472  B087                     cmp.l      D0, D7
00002474  6ED0                     bgt        -0x2E /* 00002446 */
00002476  3006                     move.w     D0, D6
00002478  5246                     addq.w     D6, 1
label0000247A:
0000247A  48C6                     ext.l      D6
0000247C  204D                     movea.l    A0, A5
0000247E  D1FC FFFF 781C           add.l      A0, 0xFFFF781C
00002484  3010                     move.w     D0, [A0]
00002486  48C0                     ext.l      D0
00002488  5680                     addq.l     D0, 3
0000248A  B086                     cmp.l      D0, D6
0000248C  6EAC                     bgt        -0x52 /* 0000243A */
0000248E  204D                     movea.l    A0, A5
00002490  D1FC FFFF 781C           add.l      A0, 0xFFFF781C
00002496  3010                     move.w     D0, [A0]
00002498  48C0                     ext.l      D0
0000249A  E788                     lsl        D0, 3
0000249C  3D40 FFE0                move.w     [A6 - 0x20], D0
000024A0  D07C 0018                add.w      D0, 0x18
000024A4  3D40 FFE2                move.w     [A6 - 0x1E], D0
000024A8  204D                     movea.l    A0, A5
000024AA  D1FC FFFF 781A           add.l      A0, 0xFFFF781A
000024B0  3010                     move.w     D0, [A0]
000024B2  48C0                     ext.l      D0
000024B4  2A00                     move.l     D5, D0
000024B6  E78D                     lsl        D5, 3
000024B8  3805                     move.w     D4, D5
000024BA  D87C 0018                add.w      D4, 0x18
000024BE  3C2E FFE0                move.w     D6, [A6 - 0x20]
000024C2  602A                     bra        +0x2C /* 000024EE */
label000024C4:
000024C4  3E05                     move.w     D7, D5
000024C6  601E                     bra        +0x20 /* 000024E6 */
label000024C8:
000024C8  2006                     move.l     D0, D6
000024CA  C1FC 00C0                muls.w     D0, 0xC0
000024CE  204D                     movea.l    A0, A5
000024D0  D1FC FFFD FAD4           add.l      A0, 0xFFFDFAD4
000024D6  2207                     move.l     D1, D7
000024D8  D241                     add.w      D1, D1
000024DA  D240                     add.w      D1, D0
000024DC  0070 0800 1000           ori.w      [A0 + D1.w], 0x800
000024E2  3007                     move.w     D0, D7
000024E4  5247                     addq.w     D7, 1
label000024E6:
000024E6  B847                     cmp.w      D4, D7
000024E8  6EDE                     bgt        -0x20 /* 000024C8 */
000024EA  3006                     move.w     D0, D6
000024EC  5246                     addq.w     D6, 1
label000024EE:
000024EE  BC6E FFE2                cmp.w      D6, [A6 - 0x1E]
000024F2  6DD0                     blt        -0x2E /* 000024C4 */
000024F4  204D                     movea.l    A0, A5
000024F6  D1FC FFFE BD76           add.l      A0, 0xFFFEBD76
000024FC  20BC 0006 1A80           move.l     [A0], 0x61A80
00002502  204D                     movea.l    A0, A5
00002504  D1FC FFFF 781C           add.l      A0, 0xFFFF781C
0000250A  3C10                     move.w     D6, [A0]
0000250C  603A                     bra        +0x3C /* 00002548 */
label0000250E:
0000250E  204D                     movea.l    A0, A5
00002510  D1FC FFFF 781A           add.l      A0, 0xFFFF781A
00002516  3E10                     move.w     D7, [A0]
00002518  6016                     bra        +0x18 /* 00002530 */
label0000251A:
0000251A  1007                     move.b     D0, D7
0000251C  49C0                     lea.l      A4, D0
0000251E  2F00                     move.l     -[A7], D0
00002520  1006                     move.b     D0, D6
00002522  49C0                     lea.l      A4, D0
00002524  2F00                     move.l     -[A7], D0
00002526  4EAD 07BA                jsr        [A5 + 0x7BA /* export_243, CODE:13 @ 000037DC */]
0000252A  504F                     addq.w     A7, 8
0000252C  3007                     move.w     D0, D7
0000252E  5247                     addq.w     D7, 1
label00002530:
00002530  48C7                     ext.l      D7
00002532  204D                     movea.l    A0, A5
00002534  D1FC FFFF 781A           add.l      A0, 0xFFFF781A
0000253A  3010                     move.w     D0, [A0]
0000253C  48C0                     ext.l      D0
0000253E  5680                     addq.l     D0, 3
00002540  B087                     cmp.l      D0, D7
00002542  6ED6                     bgt        -0x28 /* 0000251A */
00002544  3006                     move.w     D0, D6
00002546  5246                     addq.w     D6, 1
label00002548:
00002548  48C6                     ext.l      D6
0000254A  204D                     movea.l    A0, A5
0000254C  D1FC FFFF 781C           add.l      A0, 0xFFFF781C
00002552  3010                     move.w     D0, [A0]
00002554  48C0                     ext.l      D0
00002556  5680                     addq.l     D0, 3
00002558  B086                     cmp.l      D0, D6
0000255A  6EB2                     bgt        -0x4C /* 0000250E */
0000255C  204D                     movea.l    A0, A5
0000255E  D1FC FFFE BD76           add.l      A0, 0xFFFEBD76
00002564  20BC 0000 9C40           move.l     [A0], 0x9C40
0000256A  7000                     moveq.l    D0, 0x00
0000256C  2F00                     move.l     -[A7], D0
0000256E  4EAD 0662                jsr        [A5 + 0x662 /* export_200, CODE:11 @ 000003B0 */]
00002572  584F                     addq.w     A7, 4
label00002574:
00002574  204D                     movea.l    A0, A5
00002576  D1FC FFFD AC00           add.l      A0, 0xFFFDAC00
0000257C  1010                     move.b     D0, [A0]
0000257E  49C0                     lea.l      A4, D0
00002580  2F00                     move.l     -[A7], D0
00002582  204D                     movea.l    A0, A5
00002584  D1FC FFFD AC02           add.l      A0, 0xFFFDAC02
0000258A  1010                     move.b     D0, [A0]
0000258C  49C0                     lea.l      A4, D0
0000258E  2F00                     move.l     -[A7], D0
00002590  204D                     movea.l    A0, A5
00002592  D1FC FFFD AC04           add.l      A0, 0xFFFDAC04
00002598  1010                     move.b     D0, [A0]
0000259A  49C0                     lea.l      A4, D0
0000259C  2F00                     move.l     -[A7], D0
0000259E  4EAD 03D2                jsr        [A5 + 0x3D2 /* export_118, CODE:6 @ 000033BC */]
000025A2  204D                     movea.l    A0, A5
000025A4  D1FC FFFE 8ADA           add.l      A0, 0xFFFE8ADA
000025AA  30BC 0010                move.w     [A0], 0x10
000025AE  204D                     movea.l    A0, A5
000025B0  D1FC FFFE 8AD8           add.l      A0, 0xFFFE8AD8
000025B6  30BC 0010                move.w     [A0], 0x10
000025BA  204D                     movea.l    A0, A5
000025BC  D1FC FFFE 8AD4           add.l      A0, 0xFFFE8AD4
000025C2  30BC 0001                move.w     [A0], 0x1
000025C6  204D                     movea.l    A0, A5
000025C8  D1FC FFFE 8AD6           add.l      A0, 0xFFFE8AD6
000025CE  30BC 0001                move.w     [A0], 0x1
000025D2  4EAD 03CA                jsr        [A5 + 0x3CA /* export_117, CODE:6 @ 0000334A */]
000025D6  7002                     moveq.l    D0, 0x02
000025D8  2F00                     move.l     -[A7], D0
000025DA  7200                     moveq.l    D1, 0x00
000025DC  2F01                     move.l     -[A7], D1
000025DE  204D                     movea.l    A0, A5
000025E0  D1FC FFFF 0441           add.l      A0, 0xFFFF0441
000025E6  1410                     move.b     D2, [A0]
000025E8  49C2                     lea.l      A4, D2
000025EA  2F02                     move.l     -[A7], D2
000025EC  204D                     movea.l    A0, A5
000025EE  D1FC FFFF 0443           add.l      A0, 0xFFFF0443
000025F4  1410                     move.b     D2, [A0]
000025F6  49C2                     lea.l      A4, D2
000025F8  2F02                     move.l     -[A7], D2
000025FA  4EAD 0762                jsr        [A5 + 0x762 /* export_232, CODE:13 @ 00001508 */]
000025FE  204D                     movea.l    A0, A5
00002600  D1FC FFFF 0443           add.l      A0, 0xFFFF0443
00002606  224D                     movea.l    A1, A5
00002608  D3FC FFFF 0426           add.l      A1, 0xFFFF0426
0000260E  1290                     move.b     [A1], [A0]
00002610  204D                     movea.l    A0, A5
00002612  D1FC FFFF 0441           add.l      A0, 0xFFFF0441
00002618  224D                     movea.l    A1, A5
0000261A  D3FC FFFF 0424           add.l      A1, 0xFFFF0424
00002620  1290                     move.b     [A1], [A0]
00002622  204D                     movea.l    A0, A5
00002624  D1FC FFFD CEBE           add.l      A0, 0xFFFDCEBE
0000262A  224D                     movea.l    A1, A5
0000262C  D3FC FFFD CE5E           add.l      A1, 0xFFFDCE5E
00002632  2290                     move.l     [A1], [A0]
00002634  7002                     moveq.l    D0, 0x02
00002636  204D                     movea.l    A0, A5
00002638  D1FC FFFE C11A           add.l      A0, 0xFFFEC11A
0000263E  B010                     cmp.b      D0, [A0]
00002640  4FEF 001C                lea.l      A7, [A7 + 0x1C]
00002644  6700 0254                beq        +0x256 /* 0000289A */
00002648  7001                     moveq.l    D0, 0x01
0000264A  204D                     movea.l    A0, A5
0000264C  D1FC FFFE C11A           add.l      A0, 0xFFFEC11A
00002652  B010                     cmp.b      D0, [A0]
00002654  6700 0244                beq        +0x246 /* 0000289A */
00002658  41EE FFD2                lea.l      A0, [A6 - 0x2E]
0000265C  A039                     syscall    ReadDateTime
0000265E  3C00                     move.w     D6, D0
00002660  202E FFD2                move.l     D0, [A6 - 0x2E]
00002664  41EE FFD6                lea.l      A0, [A6 - 0x2A]
00002668  A9C6                     syscall    SecondsToDate/Secs2Date
0000266A  204D                     movea.l    A0, A5
0000266C  D1FC FFFD CECE           add.l      A0, 0xFFFDCECE
00002672  30AE FFE2                move.w     [A0], [A6 - 0x1E]
00002676  204D                     movea.l    A0, A5
00002678  D1FC FFFD CEC8           add.l      A0, 0xFFFDCEC8
0000267E  30AE FFD6                move.w     [A0], [A6 - 0x2A]
00002682  302E FFDA                move.w     D0, [A6 - 0x26]
00002686  48C0                     ext.l      D0
00002688  81FC 0007                divs.w     D0, 0x7
0000268C  204D                     movea.l    A0, A5
0000268E  D1FC FFFD CECA           add.l      A0, 0xFFFDCECA
00002694  3080                     move.w     [A0], D0
00002696  7000                     moveq.l    D0, 0x00
00002698  204D                     movea.l    A0, A5
0000269A  D1FC FFFD CECE           add.l      A0, 0xFFFDCECE
000026A0  3010                     move.w     D0, [A0]
000026A2  0C40 0001                cmpi.w     D0, 0x1
000026A6  650E                     bcs        +0x10 /* 000026B6 */
000026A8  204D                     movea.l    A0, A5
000026AA  D1FC FFFD CECE           add.l      A0, 0xFFFDCECE
000026B0  3010                     move.w     D0, [A0]
000026B2  5350                     subq.w     [A0], 1
000026B4  600A                     bra        +0xC /* 000026C0 */
label000026B6:
000026B6  204D                     movea.l    A0, A5
000026B8  D1FC FFFD CECE           add.l      A0, 0xFFFDCECE
000026BE  4250                     clr.w      [A0]
label000026C0:
000026C0  7000                     moveq.l    D0, 0x00
000026C2  204D                     movea.l    A0, A5
000026C4  D1FC FFFD CECA           add.l      A0, 0xFFFDCECA
000026CA  3010                     move.w     D0, [A0]
000026CC  0C40 0001                cmpi.w     D0, 0x1
000026D0  650E                     bcs        +0x10 /* 000026E0 */
000026D2  204D                     movea.l    A0, A5
000026D4  D1FC FFFD CECA           add.l      A0, 0xFFFDCECA
000026DA  3010                     move.w     D0, [A0]
000026DC  5350                     subq.w     [A0], 1
000026DE  600A                     bra        +0xC /* 000026EA */
label000026E0:
000026E0  204D                     movea.l    A0, A5
000026E2  D1FC FFFD CECA           add.l      A0, 0xFFFDCECA
000026E8  4250                     clr.w      [A0]
label000026EA:
000026EA  302E FFD8                move.w     D0, [A6 - 0x28]
000026EE  48C0                     ext.l      D0
000026F0  5380                     subq.l     D0, 1
000026F2  204D                     movea.l    A0, A5
000026F4  D1FC FFFD CEC6           add.l      A0, 0xFFFDCEC6
000026FA  3080                     move.w     [A0], D0
000026FC  7000                     moveq.l    D0, 0x00
000026FE  204D                     movea.l    A0, A5
00002700  D1FC FFFD CEC6           add.l      A0, 0xFFFDCEC6
00002706  3010                     move.w     D0, [A0]
00002708  4A80                     tst.l      D0
0000270A  4C7C 0800 0000 0003      divu.l     D3:D0, 0x8000000
00002712  204D                     movea.l    A0, A5
00002714  D1FC FFFD CECC           add.l      A0, 0xFFFDCECC
0000271A  3080                     move.w     [A0], D0
0000271C  7000                     moveq.l    D0, 0x00
0000271E  2F00                     move.l     -[A7], D0
00002720  2F00                     move.l     -[A7], D0
00002722  204D                     movea.l    A0, A5
00002724  D1FC FFFF 7306           add.l      A0, 0xFFFF7306
0000272A  4850                     pea.l      [A0]
0000272C  4EAD 002A                jsr        [A5 + 0x2A /* export_1, CODE:1 @ 00000000 */]
00002730  7000                     moveq.l    D0, 0x00
00002732  2F00                     move.l     -[A7], D0
00002734  7201                     moveq.l    D1, 0x01
00002736  2F01                     move.l     -[A7], D1
00002738  204D                     movea.l    A0, A5
0000273A  D1FC FFFF 730C           add.l      A0, 0xFFFF730C
00002740  4850                     pea.l      [A0]
00002742  4EAD 002A                jsr        [A5 + 0x2A /* export_1, CODE:1 @ 00000000 */]
00002746  7000                     moveq.l    D0, 0x00
00002748  2F00                     move.l     -[A7], D0
0000274A  7202                     moveq.l    D1, 0x02
0000274C  2F01                     move.l     -[A7], D1
0000274E  204D                     movea.l    A0, A5
00002750  D1FC FFFF 7312           add.l      A0, 0xFFFF7312
00002756  4850                     pea.l      [A0]
00002758  4EAD 002A                jsr        [A5 + 0x2A /* export_1, CODE:1 @ 00000000 */]
0000275C  7000                     moveq.l    D0, 0x00
0000275E  2F00                     move.l     -[A7], D0
00002760  7203                     moveq.l    D1, 0x03
00002762  2F01                     move.l     -[A7], D1
00002764  204D                     movea.l    A0, A5
00002766  D1FC FFFF 731A           add.l      A0, 0xFFFF731A
0000276C  4850                     pea.l      [A0]
0000276E  4EAD 002A                jsr        [A5 + 0x2A /* export_1, CODE:1 @ 00000000 */]
00002772  7000                     moveq.l    D0, 0x00
00002774  2F00                     move.l     -[A7], D0
00002776  7204                     moveq.l    D1, 0x04
00002778  2F01                     move.l     -[A7], D1
0000277A  204D                     movea.l    A0, A5
0000277C  D1FC FFFF 7324           add.l      A0, 0xFFFF7324
00002782  4850                     pea.l      [A0]
00002784  4EAD 002A                jsr        [A5 + 0x2A /* export_1, CODE:1 @ 00000000 */]
00002788  7000                     moveq.l    D0, 0x00
0000278A  2F00                     move.l     -[A7], D0
0000278C  7205                     moveq.l    D1, 0x05
0000278E  2F01                     move.l     -[A7], D1
00002790  204D                     movea.l    A0, A5
00002792  D1FC FFFF 732A           add.l      A0, 0xFFFF732A
00002798  4850                     pea.l      [A0]
0000279A  4EAD 002A                jsr        [A5 + 0x2A /* export_1, CODE:1 @ 00000000 */]
0000279E  7000                     moveq.l    D0, 0x00
000027A0  2F00                     move.l     -[A7], D0
000027A2  7206                     moveq.l    D1, 0x06
000027A4  2F01                     move.l     -[A7], D1
000027A6  204D                     movea.l    A0, A5
000027A8  D1FC FFFF 7330           add.l      A0, 0xFFFF7330
000027AE  4850                     pea.l      [A0]
000027B0  4EAD 002A                jsr        [A5 + 0x2A /* export_1, CODE:1 @ 00000000 */]
000027B4  7000                     moveq.l    D0, 0x00
000027B6  2F00                     move.l     -[A7], D0
000027B8  7207                     moveq.l    D1, 0x07
000027BA  2F01                     move.l     -[A7], D1
000027BC  204D                     movea.l    A0, A5
000027BE  D1FC FFFF 7338           add.l      A0, 0xFFFF7338
000027C4  4850                     pea.l      [A0]
000027C6  4EAD 002A                jsr        [A5 + 0x2A /* export_1, CODE:1 @ 00000000 */]
000027CA  7000                     moveq.l    D0, 0x00
000027CC  2F00                     move.l     -[A7], D0
000027CE  7208                     moveq.l    D1, 0x08
000027D0  2F01                     move.l     -[A7], D1
000027D2  204D                     movea.l    A0, A5
000027D4  D1FC FFFF 7342           add.l      A0, 0xFFFF7342
000027DA  4850                     pea.l      [A0]
000027DC  4EAD 002A                jsr        [A5 + 0x2A /* export_1, CODE:1 @ 00000000 */]
000027E0  7000                     moveq.l    D0, 0x00
000027E2  2F00                     move.l     -[A7], D0
000027E4  7209                     moveq.l    D1, 0x09
000027E6  2F01                     move.l     -[A7], D1
000027E8  204D                     movea.l    A0, A5
000027EA  D1FC FFFF 734A           add.l      A0, 0xFFFF734A
000027F0  4850                     pea.l      [A0]
000027F2  4EAD 002A                jsr        [A5 + 0x2A /* export_1, CODE:1 @ 00000000 */]
000027F6  7000                     moveq.l    D0, 0x00
000027F8  2F00                     move.l     -[A7], D0
000027FA  720A                     moveq.l    D1, 0x0A
000027FC  2F01                     move.l     -[A7], D1
000027FE  204D                     movea.l    A0, A5
00002800  D1FC FFFF 7352           add.l      A0, 0xFFFF7352
00002806  4850                     pea.l      [A0]
00002808  4EAD 002A                jsr        [A5 + 0x2A /* export_1, CODE:1 @ 00000000 */]
0000280C  7000                     moveq.l    D0, 0x00
0000280E  2F00                     move.l     -[A7], D0
00002810  720B                     moveq.l    D1, 0x0B
00002812  2F01                     move.l     -[A7], D1
00002814  204D                     movea.l    A0, A5
00002816  D1FC FFFF 735C           add.l      A0, 0xFFFF735C
0000281C  4850                     pea.l      [A0]
0000281E  4EAD 002A                jsr        [A5 + 0x2A /* export_1, CODE:1 @ 00000000 */]
00002822  7000                     moveq.l    D0, 0x00
00002824  2F00                     move.l     -[A7], D0
00002826  720C                     moveq.l    D1, 0x0C
00002828  2F01                     move.l     -[A7], D1
0000282A  204D                     movea.l    A0, A5
0000282C  D1FC FFFF 7364           add.l      A0, 0xFFFF7364
00002832  4850                     pea.l      [A0]
00002834  4EAD 002A                jsr        [A5 + 0x2A /* export_1, CODE:1 @ 00000000 */]
00002838  7000                     moveq.l    D0, 0x00
0000283A  2F00                     move.l     -[A7], D0
0000283C  720D                     moveq.l    D1, 0x0D
0000283E  2F01                     move.l     -[A7], D1
00002840  204D                     movea.l    A0, A5
00002842  D1FC FFFF 736C           add.l      A0, 0xFFFF736C
00002848  4850                     pea.l      [A0]
0000284A  4EAD 002A                jsr        [A5 + 0x2A /* export_1, CODE:1 @ 00000000 */]
0000284E  7000                     moveq.l    D0, 0x00
00002850  2F00                     move.l     -[A7], D0
00002852  720E                     moveq.l    D1, 0x0E
00002854  2F01                     move.l     -[A7], D1
00002856  204D                     movea.l    A0, A5
00002858  D1FC FFFF 737A           add.l      A0, 0xFFFF737A
0000285E  4850                     pea.l      [A0]
00002860  4EAD 002A                jsr        [A5 + 0x2A /* export_1, CODE:1 @ 00000000 */]
00002864  7000                     moveq.l    D0, 0x00
00002866  2F00                     move.l     -[A7], D0
00002868  720F                     moveq.l    D1, 0x0F
0000286A  2F01                     move.l     -[A7], D1
0000286C  204D                     movea.l    A0, A5
0000286E  D1FC FFFF 7386           add.l      A0, 0xFFFF7386
00002874  4850                     pea.l      [A0]
00002876  4EAD 002A                jsr        [A5 + 0x2A /* export_1, CODE:1 @ 00000000 */]
0000287A  4EAD 03AA                jsr        [A5 + 0x3AA /* export_113, CODE:6 @ 000028C4 */]
0000287E  4246                     clr.w      D6
00002880  4FEF 00C0                lea.l      A7, [A7 + 0xC0]
00002884  600E                     bra        +0x10 /* 00002894 */
label00002886:
00002886  48C6                     ext.l      D6
00002888  2F06                     move.l     -[A7], D6
0000288A  4EAD 04A2                jsr        [A5 + 0x4A2 /* export_144, CODE:6 @ 00005494 */]
0000288E  584F                     addq.w     A7, 4
00002890  3006                     move.w     D0, D6
00002892  5246                     addq.w     D6, 1
label00002894:
00002894  0C46 0010                cmpi.w     D6, 0x10
00002898  6DEC                     blt        -0x12 /* 00002886 */
label0000289A:
0000289A  4EAD 08DA                jsr        [A5 + 0x8DA /* export_279, CODE:15 @ 00002BC4 */]
0000289E  204D                     movea.l    A0, A5
000028A0  D1FC FFFE D54E           add.l      A0, 0xFFFED54E
000028A6  1010                     move.b     D0, [A0]
000028A8  49C0                     lea.l      A4, D0
000028AA  204D                     movea.l    A0, A5
000028AC  D1FC FFFE D546           add.l      A0, 0xFFFED546
000028B2  2080                     move.l     [A0], D0
000028B4  558F                     subq.l     A7, 2
000028B6  A861                     syscall    Random
000028B8  301F                     move.w     D0, [A7]+
000028BA  48C0                     ext.l      D0
000028BC  2F00                     move.l     -[A7], D0
000028BE  4EAD 145A                jsr        [A5 + 0x145A /* export_647, CODE:31 @ 00000000 */]
000028C2  4C7C 0801 0000 0005      divu.l     D5:D0, 0x8010000
000028CA  204D                     movea.l    A0, A5
000028CC  D1FC FFFE D549           add.l      A0, 0xFFFED549
000028D2  D210                     add.b      D1, [A0]
000028D4  204D                     movea.l    A0, A5
000028D6  D1FC FFFE D872           add.l      A0, 0xFFFED872
000028DC  1081                     move.b     [A0], D1
000028DE  204D                     movea.l    A0, A5
000028E0  D1FC FFFE D549           add.l      A0, 0xFFFED549
000028E6  224D                     movea.l    A1, A5
000028E8  D3FC FFFE D54A           add.l      A1, 0xFFFED54A
000028EE  1290                     move.b     [A1], [A0]
000028F0  4246                     clr.w      D6
000028F2  584F                     addq.w     A7, 4
000028F4  6034                     bra        +0x36 /* 0000292A */
label000028F6:
000028F6  7004                     moveq.l    D0, 0x04
000028F8  2F00                     move.l     -[A7], D0
000028FA  204D                     movea.l    A0, A5
000028FC  D1FC FFFF 0440           add.l      A0, 0xFFFF0440
00002902  3210                     move.w     D1, [A0]
00002904  48C1                     ext.l      D1
00002906  E789                     lsl        D1, 3
00002908  48C1                     ext.l      D1
0000290A  2F01                     move.l     -[A7], D1
0000290C  204D                     movea.l    A0, A5
0000290E  D1FC FFFF 0442           add.l      A0, 0xFFFF0442
00002914  3210                     move.w     D1, [A0]
00002916  48C1                     ext.l      D1
00002918  E789                     lsl        D1, 3
0000291A  48C1                     ext.l      D1
0000291C  2F01                     move.l     -[A7], D1
0000291E  4EAD 082A                jsr        [A5 + 0x82A /* export_257, CODE:14 @ 00001C6E */]
00002922  4FEF 000C                lea.l      A7, [A7 + 0xC]
00002926  3006                     move.w     D0, D6
00002928  5246                     addq.w     D6, 1
label0000292A:
0000292A  0C46 0008                cmpi.w     D6, 0x8
0000292E  6DC6                     blt        -0x38 /* 000028F6 */
00002930  224D                     movea.l    A1, A5
00002932  D3FC FFFF 7868           add.l      A1, 0xFFFF7868
00002938  2051                     movea.l    A0, [A1]
0000293A  2D68 0128 FFE8           move.l     [A6 - 0x18], [A0 + 0x128]
00002940  204D                     movea.l    A0, A5
00002942  D1FC FFFE BD76           add.l      A0, 0xFFFEBD76
00002948  2E10                     move.l     D7, [A0]
0000294A  206E FFE8                movea.l    A0, [A6 - 0x18]
0000294E  4AA8 00F4                tst.l      [A0 + 0xF4]
00002952  6758                     beq        +0x5A /* 000029AC */
00002954  2068 00F4                movea.l    A0, [A0 + 0xF4]
00002958  2D48 FFEC                move.l     [A6 - 0x14], A0
0000295C  2068 0170                movea.l    A0, [A0 + 0x170]
00002960  47E8 01C4                lea.l      A3, [A0 + 0x1C4]
00002964  2F0B                     move.l     -[A7], A3
00002966  4EAD 1782                jsr        [A5 + 0x1782 /* export_748, CODE:32 @ 00004E1E */]
0000296A  4206                     clr.b      D6
0000296C  7000                     moveq.l    D0, 0x00
0000296E  1006                     move.b     D0, D6
00002970  2F00                     move.l     -[A7], D0
00002972  2F2B 0014                move.l     -[A7], [A3 + 0x14]
00002976  204D                     movea.l    A0, A5
00002978  D1FC FFFF 738E           add.l      A0, 0xFFFF738E
0000297E  4850                     pea.l      [A0]
00002980  2F0B                     move.l     -[A7], A3
00002982  4EAD 178A                jsr        [A5 + 0x178A /* export_749, CODE:32 @ 00004E80 */]
00002986  2F07                     move.l     -[A7], D7
00002988  206E FFEC                movea.l    A0, [A6 - 0x14]
0000298C  2068 0170                movea.l    A0, [A0 + 0x170]
00002990  4868 01C4                pea.l      [A0 + 0x1C4]
00002994  4EAD 17FA                jsr        [A5 + 0x17FA /* export_763, CODE:32 @ 000057BC */]
00002998  206E FFEC                movea.l    A0, [A6 - 0x14]
0000299C  2F28 0170                move.l     -[A7], [A0 + 0x170]
000029A0  4EAD 1F52                jsr        [A5 + 0x1F52 /* export_998, CODE:37 @ 000014C8 */]
000029A4  7000                     moveq.l    D0, 0x00
000029A6  4FEF 0020                lea.l      A7, [A7 + 0x20]
000029AA  6002                     bra        +0x4 /* 000029AE */
label000029AC:
000029AC  7000                     moveq.l    D0, 0x00
label000029AE:
000029AE  224D                     movea.l    A1, A5
000029B0  D3FC FFFF 7868           add.l      A1, 0xFFFF7868
000029B6  2051                     movea.l    A0, [A1]
000029B8  2668 0128                movea.l    A3, [A0 + 0x128]
000029BC  204D                     movea.l    A0, A5
000029BE  D1FC FFFD CECA           add.l      A0, 0xFFFDCECA
000029C4  3810                     move.w     D4, [A0]
000029C6  5244                     addq.w     D4, 1
000029C8  204D                     movea.l    A0, A5
000029CA  D1FC FFFD CEC6           add.l      A0, 0xFFFDCEC6
000029D0  3E10                     move.w     D7, [A0]
000029D2  204D                     movea.l    A0, A5
000029D4  D1FC FFFD CEC8           add.l      A0, 0xFFFDCEC8
000029DA  3C10                     move.w     D6, [A0]
000029DC  4AAB 00F4                tst.l      [A3 + 0xF4]
000029E0  671C                     beq        +0x1E /* 000029FE */
000029E2  48C6                     ext.l      D6
000029E4  2F06                     move.l     -[A7], D6
000029E6  48C7                     ext.l      D7
000029E8  2F07                     move.l     -[A7], D7
000029EA  48C4                     ext.l      D4
000029EC  2F04                     move.l     -[A7], D4
000029EE  2F2B 00F4                move.l     -[A7], [A3 + 0xF4]
000029F2  4EAD 0A92                jsr        [A5 + 0xA92 /* export_334, CODE:18 @ 00001B86 */]
000029F6  7000                     moveq.l    D0, 0x00
000029F8  4FEF 0010                lea.l      A7, [A7 + 0x10]
000029FC  6002                     bra        +0x4 /* 00002A00 */
label000029FE:
000029FE  7000                     moveq.l    D0, 0x00
label00002A00:
00002A00  2F3C 4564 6974           move.l     -[A7], 0x45646974 /* 'Edit' */
00002A06  224D                     movea.l    A1, A5
00002A08  D3FC FFFF 7868           add.l      A1, 0xFFFF7868
00002A0E  2051                     movea.l    A0, [A1]
00002A10  2F28 0128                move.l     -[A7], [A0 + 0x128]
00002A14  4EAD 07FA                jsr        [A5 + 0x7FA /* export_251, CODE:13 @ 000066E8 */]
00002A18  2F3C 4D61 7020           move.l     -[A7], 0x4D617020 /* 'Map ' */
00002A1E  224D                     movea.l    A1, A5
00002A20  D3FC FFFF 7868           add.l      A1, 0xFFFF7868
00002A26  2051                     movea.l    A0, [A1]
00002A28  2F28 0128                move.l     -[A7], [A0 + 0x128]
00002A2C  4EAD 07FA                jsr        [A5 + 0x7FA /* export_251, CODE:13 @ 000066E8 */]
00002A30  7001                     moveq.l    D0, 0x01
00002A32  2F00                     move.l     -[A7], D0
00002A34  226C 0128                movea.l    A1, [A4 + 0x128]
00002A38  2069 00F4                movea.l    A0, [A1 + 0xF4]
00002A3C  2248                     movea.l    A1, A0
00002A3E  2269 0060                movea.l    A1, [A1 + 0x60]
00002A42  D0E9 0108                add.w      A0, [A1 + 0x108]
00002A46  2F08                     move.l     -[A7], A0
00002A48  206C 0128                movea.l    A0, [A4 + 0x128]
00002A4C  2068 00F4                movea.l    A0, [A0 + 0xF4]
00002A50  2068 0060                movea.l    A0, [A0 + 0x60]
00002A54  2268 010C                movea.l    A1, [A0 + 0x10C]
00002A58  4E91                     jsr        [A1]
00002A5A  204D                     movea.l    A0, A5
00002A5C  D1FC FFFF 7868           add.l      A0, 0xFFFF7868
00002A62  2050                     movea.l    A0, [A0]
00002A64  2D48 FFF0                move.l     [A6 - 0x10], A0
00002A68  2668 0128                movea.l    A3, [A0 + 0x128]
00002A6C  2F2B 00F0                move.l     -[A7], [A3 + 0xF0]
00002A70  4EAD 0EFA                jsr        [A5 + 0xEFA /* export_475, CODE:22 @ 00002D22 */]
00002A74  204D                     movea.l    A0, A5
00002A76  D1FC FFFF 781E           add.l      A0, 0xFFFF781E
00002A7C  3010                     move.w     D0, [A0]
00002A7E  48C0                     ext.l      D0
00002A80  2F00                     move.l     -[A7], D0
00002A82  204D                     movea.l    A0, A5
00002A84  D1FC FFFF 7820           add.l      A0, 0xFFFF7820
00002A8A  3010                     move.w     D0, [A0]
00002A8C  48C0                     ext.l      D0
00002A8E  2F00                     move.l     -[A7], D0
00002A90  204D                     movea.l    A0, A5
00002A92  D1FC FFFF 7868           add.l      A0, 0xFFFF7868
00002A98  2F10                     move.l     -[A7], [A0]
00002A9A  4EBA EF32                jsr        [PC - 0x10CE /* 000019CE */]
00002A9E  204D                     movea.l    A0, A5
00002AA0  D1FC FFFF 7868           add.l      A0, 0xFFFF7868
00002AA6  2050                     movea.l    A0, [A0]
00002AA8  2D48 FFF4                move.l     [A6 - 0xC], A0
00002AAC  2068 0128                movea.l    A0, [A0 + 0x128]
00002AB0  2D48 FFF8                move.l     [A6 - 0x8], A0
00002AB4  2068 00C8                movea.l    A0, [A0 + 0xC8]
00002AB8  2D48 FFFC                move.l     [A6 - 0x4], A0
00002ABC  2068 0084                movea.l    A0, [A0 + 0x84]
00002AC0  7000                     moveq.l    D0, 0x00
00002AC2  1028 006E                move.b     D0, [A0 + 0x6E]
00002AC6  0C40 0001                cmpi.w     D0, 0x1
00002ACA  57C3                     seq        D3
00002ACC  4403                     neg.b      D3
00002ACE  6718                     beq        +0x1A /* 00002AE8 */
00002AD0  206E FFFC                movea.l    A0, [A6 - 0x4]
00002AD4  2668 016C                movea.l    A3, [A0 + 0x16C]
00002AD8  422B 0132                clr.b      [A3 + 0x132]
00002ADC  2F0B                     move.l     -[A7], A3
00002ADE  4EAD 1F52                jsr        [A5 + 0x1F52 /* export_998, CODE:37 @ 000014C8 */]
00002AE2  7000                     moveq.l    D0, 0x00
00002AE4  584F                     addq.w     A7, 4
00002AE6  6002                     bra        +0x4 /* 00002AEA */
label00002AE8:
00002AE8  7000                     moveq.l    D0, 0x00
label00002AEA:
00002AEA  224D                     movea.l    A1, A5
00002AEC  D3FC FFFF 7868           add.l      A1, 0xFFFF7868
00002AF2  2051                     movea.l    A0, [A1]
00002AF4  2F28 0128                move.l     -[A7], [A0 + 0x128]
00002AF8  4EAD 080A                jsr        [A5 + 0x80A /* export_253, CODE:13 @ 00006BA6 */]
00002AFC  7000                     moveq.l    D0, 0x00
00002AFE  2F00                     move.l     -[A7], D0
00002B00  2F0C                     move.l     -[A7], A4
00002B02  4EBA E4FE                jsr        [PC - 0x1B02 /* 00001002 */]
00002B06  4FEF 0034                lea.l      A7, [A7 + 0x34]
00002B0A  4CEE 18F8 FFB6           movem.l    D3,D4,D5,D6,D7,A3,A4, [A6 - 0x4A]
00002B10  4E5E                     unlink     A6
00002B12  4E75                     rts
00002B14  8020 496E 6974 6961 6... dc.b       "InitializeWorld__11cSIMFarmAppFv"
export_638:
00002B38  4E56 FFFC                link       A6, -0x0004
00002B3C  2F07                     move.l     -[A7], D7
00002B3E  302E 0012                move.w     D0, [A6 + 0x12]
00002B42  C1EE 000E                muls.w     D0, [A6 + 0xE]
00002B46  2D40 FFFC                move.l     [A6 - 0x4], D0
00002B4A  558F                     subq.l     A7, 2
00002B4C  3F2E 0016                move.w     -[A7], [A6 + 0x16]
00002B50  486E FFFC                pea.l      [A6 - 0x4]
00002B54  2F2E 0008                move.l     -[A7], [A6 + 0x8]
00002B58  4EAD 0082                jsr        [A5 + 0x82 /* export_12, CODE:1 @ 000011A8 */]
00002B5C  3E1F                     move.w     D7, [A7]+
00002B5E  2E2E FFF8                move.l     D7, [A6 - 0x8]
00002B62  4E5E                     unlink     A6
00002B64  4E75                     rts
00002B66  8F6D 7952 6561 645F 5... dc.b       "myRead__FPcsN22"
export_639:
00002B78  4E56 FFFC                link       A6, -0x0004
00002B7C  2F07                     move.l     -[A7], D7
00002B7E  302E 0012                move.w     D0, [A6 + 0x12]
00002B82  C1EE 000E                muls.w     D0, [A6 + 0xE]
00002B86  2D40 FFFC                move.l     [A6 - 0x4], D0
00002B8A  558F                     subq.l     A7, 2
00002B8C  3F2E 0016                move.w     -[A7], [A6 + 0x16]
00002B90  486E FFFC                pea.l      [A6 - 0x4]
00002B94  2F2E 0008                move.l     -[A7], [A6 + 0x8]
00002B98  4EAD 008A                jsr        [A5 + 0x8A /* export_13, CODE:1 @ 000011AC */]
00002B9C  3E1F                     move.w     D7, [A7]+
00002B9E  670E                     beq        +0x10 /* 00002BAE */
00002BA0  558F                     subq.l     A7, 2
00002BA2  3F3C 03F1                move.w     -[A7], 0x3F1
00002BA6  7000                     moveq.l    D0, 0x00
00002BA8  2F00                     move.l     -[A7], D0
00002BAA  A985                     syscall    Alert
00002BAC  544F                     addq.w     A7, 2
label00002BAE:
00002BAE  2E2E FFF8                move.l     D7, [A6 - 0x8]
00002BB2  4E5E                     unlink     A6
00002BB4  4E75                     rts
00002BB6  906D 7957 7269 7465 5... dc.b       "myWrite__FPcsN22"
fn00002BCA:
00002BCA  4E56 FE80                link       A6, -0x0180
00002BCE  48E7 0108                movem.l    -[A7], D7,A4
00002BD2  49EE FEFE                lea.l      A4, [A6 - 0x102]
00002BD6  7000                     moveq.l    D0, 0x00
00002BD8  2D40 FE8C                move.l     [A6 - 0x174], D0
00002BDC  426E FE9C                clr.w      [A6 - 0x164]
00002BE0  2D40 FE92                move.l     [A6 - 0x16E], D0
00002BE4  3D6E 000A FE96           move.w     [A6 - 0x16A], [A6 + 0xA]
00002BEA  41EE FE80                lea.l      A0, [A6 - 0x180]
00002BEE  A207                     syscall    GetVolInfo/PBHGetVInfo/HGetVInfo, flags=2
00002BF0  3E00                     move.w     D7, D0
00002BF2  558F                     subq.l     A7, 2
00002BF4  3F2E FEC2                move.w     -[A7], [A6 - 0x13E]
00002BF8  2F0C                     move.l     -[A7], A4
00002BFA  486E FFFE                pea.l      [A6 - 0x2]
00002BFE  486E FEFA                pea.l      [A6 - 0x106]
00002C02  4EAD 0092                jsr        [A5 + 0x92 /* export_14, CODE:1 @ 000011F0 */]
00002C06  3E1F                     move.w     D7, [A7]+
00002C08  202E FEFA                move.l     D0, [A6 - 0x106]
00002C0C  4CEE 1080 FE78           movem.l    D7,A4, [A6 - 0x188]
00002C12  4E5E                     unlink     A6
00002C14  4E75                     rts
00002C16  9447 6574 4672 6565 4... dc.b       "GetFreeDiskSpace__Fs"
export_640:
00002C2E  4E56 0000                link       A6, 0
00002C32  48E7 0108                movem.l    -[A7], D7,A4
00002C36  7000                     moveq.l    D0, 0x00
00002C38  102E 0023                move.b     D0, [A6 + 0x23]
00002C3C  2F00                     move.l     -[A7], D0
00002C3E  302E 001E                move.w     D0, [A6 + 0x1E]
00002C42  48C0                     ext.l      D0
00002C44  2F00                     move.l     -[A7], D0
00002C46  302E 001A                move.w     D0, [A6 + 0x1A]
00002C4A  48C0                     ext.l      D0
00002C4C  2F00                     move.l     -[A7], D0
00002C4E  302E 0016                move.w     D0, [A6 + 0x16]
00002C52  48C0                     ext.l      D0
00002C54  2F00                     move.l     -[A7], D0
00002C56  302E 0012                move.w     D0, [A6 + 0x12]
00002C5A  48C0                     ext.l      D0
00002C5C  2F00                     move.l     -[A7], D0
00002C5E  2F2E 000C                move.l     -[A7], [A6 + 0xC]
00002C62  2F3C 5150 6F70           move.l     -[A7], 0x51506F70 /* 'QPop' */
00002C68  2F2E 0008                move.l     -[A7], [A6 + 0x8]
00002C6C  7000                     moveq.l    D0, 0x00
00002C6E  2F00                     move.l     -[A7], D0
00002C70  2F00                     move.l     -[A7], D0
00002C72  4EAD 0C22                jsr        [A5 + 0xC22 /* export_384, CODE:19 @ 00001254 */]
00002C76  2840                     movea.l    A4, D0
00002C78  7002                     moveq.l    D0, 0x02
00002C7A  2F00                     move.l     -[A7], D0
00002C7C  4878 04B0                push.l     0x4B0
00002C80  4878 0093                push.l     0x93
00002C84  204C                     movea.l    A0, A4
00002C86  226C 0060                movea.l    A1, [A4 + 0x60]
00002C8A  D0E9 0208                add.w      A0, [A1 + 0x208]
00002C8E  2F08                     move.l     -[A7], A0
00002C90  2049                     movea.l    A0, A1
00002C92  2268 020C                movea.l    A1, [A0 + 0x20C]
00002C96  4E91                     jsr        [A1]
00002C98  3E00                     move.w     D7, D0
00002C9A  4CEE 1080 FFF8           movem.l    D7,A4, [A6 - 0x8]
00002CA0  4E5E                     unlink     A6
00002CA2  4E75                     rts
00002CA4  802B 446F 5175 6963 6... dc.b       "DoQuickPopupMessage__11cSIMFarmAppFPcsN32Uc"
export_641:
00002CD4  4E56 0000                link       A6, 0
00002CD8  2F0C                     move.l     -[A7], A4
00002CDA  2F3C 5477 6E47           move.l     -[A7], 0x54776E47 /* 'TwnG' */
00002CE0  2F2E 0008                move.l     -[A7], [A6 + 0x8]
00002CE4  7000                     moveq.l    D0, 0x00
00002CE6  2F00                     move.l     -[A7], D0
00002CE8  2F00                     move.l     -[A7], D0
00002CEA  4EAD 0DFA                jsr        [A5 + 0xDFA /* export_443, CODE:20 @ 00005896 */]
00002CEE  2840                     movea.l    A4, D0
00002CF0  2F0C                     move.l     -[A7], A4
00002CF2  4EAD 0E0A                jsr        [A5 + 0xE0A /* export_445, CODE:20 @ 00005CC8 */]
00002CF6  4A00                     tst.b      D0
00002CF8  4FEF 0014                lea.l      A7, [A7 + 0x14]
00002CFC  6726                     beq        +0x28 /* 00002D24 */
00002CFE  7001                     moveq.l    D0, 0x01
00002D00  2F00                     move.l     -[A7], D0
00002D02  72FF                     moveq.l    D1, 0xFFFFFFFF
00002D04  2F01                     move.l     -[A7], D1
00002D06  4878 0092                push.l     0x92
00002D0A  204C                     movea.l    A0, A4
00002D0C  226C 0060                movea.l    A1, [A4 + 0x60]
00002D10  D0E9 0208                add.w      A0, [A1 + 0x208]
00002D14  2F08                     move.l     -[A7], A0
00002D16  2049                     movea.l    A0, A1
00002D18  2268 020C                movea.l    A1, [A0 + 0x20C]
00002D1C  4E91                     jsr        [A1]
00002D1E  4FEF 0010                lea.l      A7, [A7 + 0x10]
00002D22  6024                     bra        +0x26 /* 00002D48 */
label00002D24:
00002D24  200C                     move.l     D0, A4
00002D26  671E                     beq        +0x20 /* 00002D46 */
00002D28  7003                     moveq.l    D0, 0x03
00002D2A  2F00                     move.l     -[A7], D0
00002D2C  204C                     movea.l    A0, A4
00002D2E  226C 0060                movea.l    A1, [A4 + 0x60]
00002D32  D0E9 0008                add.w      A0, [A1 + 0x8]
00002D36  2F08                     move.l     -[A7], A0
00002D38  2049                     movea.l    A0, A1
00002D3A  2268 000C                movea.l    A1, [A0 + 0xC]
00002D3E  4E91                     jsr        [A1]
00002D40  7000                     moveq.l    D0, 0x00
00002D42  504F                     addq.w     A7, 8
00002D44  6002                     bra        +0x4 /* 00002D48 */
label00002D46:
00002D46  7000                     moveq.l    D0, 0x00
label00002D48:
00002D48  286E FFFC                movea.l    A4, [A6 - 0x4]
00002D4C  4E5E                     unlink     A6
00002D4E  4E75                     rts
00002D50  9947 726F 7754 6F77 6... dc.b       "GrowTown__11cSIMFarmAppFv"
