# near model CODE resource
# jump table entries: 2152-2164 (13 of them)
export_269:
00000000  4E56 FFFC                link       A6, -0x0004
00000004  48E7 0F00                movem.l    -[A7], D4,D5,D6,D7
00000008  1C2E 000F                move.b     D6, [A6 + 0xF]
0000000C  4244                     clr.w      D4
0000000E  102E 000B                move.b     D0, [A6 + 0xB]
00000012  4880                     ext.w      D0
00000014  3A00                     move.w     D5, D0
00000016  5345                     subq.w     D5, 1
00000018  605A                     bra        +0x5C /* 00000074 */
label0000001A:
0000001A  4886                     ext.w      D6
0000001C  3E06                     move.w     D7, D6
0000001E  5347                     subq.w     D7, 1
00000020  6044                     bra        +0x46 /* 00000066 */
label00000022:
00000022  3D45 FFFC                move.w     [A6 - 0x4], D5
00000026  3D47 FFFE                move.w     [A6 - 0x2], D7
0000002A  486E FFFE                pea.l      [A6 - 0x2]
0000002E  486E FFFC                pea.l      [A6 - 0x4]
00000032  4EAD 086A                jsr        [A5 + 0x86A /* export_265, CODE:14 @ 00005A2C */]
00000036  302E FFFC                move.w     D0, [A6 - 0x4]
0000003A  C1FC 00C0                muls.w     D0, 0xC0
0000003E  204D                     movea.l    A0, A5
00000040  D1FC FFFE 42D4           add.l      A0, 0xFFFE42D4
00000046  322E FFFE                move.w     D1, [A6 - 0x2]
0000004A  D241                     add.w      D1, D1
0000004C  D240                     add.w      D1, D0
0000004E  7000                     moveq.l    D0, 0x00
00000050  3030 1000                move.w     D0, [A0 + D1.w]
00000054  323C 3000                move.w     D1, 0x3000 /* '0\0' */
00000058  C240                     and.w      D1, D0
0000005A  504F                     addq.w     A7, 8
0000005C  6604                     bne        +0x6 /* 00000062 */
0000005E  3004                     move.w     D0, D4
00000060  5244                     addq.w     D4, 1
label00000062:
00000062  3007                     move.w     D0, D7
00000064  5247                     addq.w     D7, 1
label00000066:
00000066  4886                     ext.w      D6
00000068  3006                     move.w     D0, D6
0000006A  5440                     addq.w     D0, 2
0000006C  B047                     cmp.w      D0, D7
0000006E  6EB2                     bgt        -0x4C /* 00000022 */
00000070  3005                     move.w     D0, D5
00000072  5245                     addq.w     D5, 1
label00000074:
00000074  102E 000B                move.b     D0, [A6 + 0xB]
00000078  4880                     ext.w      D0
0000007A  5440                     addq.w     D0, 2
0000007C  B045                     cmp.w      D0, D5
0000007E  6E9A                     bgt        -0x64 /* 0000001A */
00000080  3004                     move.w     D0, D4
00000082  4CEE 00F0 FFEC           movem.l    D4,D5,D6,D7, [A6 - 0x14]
00000088  4E5E                     unlink     A6
0000008A  4E75                     rts
0000008C  9763 6F75 6E74 5F65 6... dc.b       "count_empty_spots__FcT1"
fn000000A6:
000000A6  4E56 0000                link       A6, 0
000000AA  48E7 0700                movem.l    -[A7], D5,D6,D7
000000AE  3C2E 000E                move.w     D6, [A6 + 0xE]
000000B2  3E2E 000A                move.w     D7, [A6 + 0xA]
000000B6  7A0F                     moveq.l    D5, 0x0F
000000B8  48C6                     ext.l      D6
000000BA  2006                     move.l     D0, D6
000000BC  5380                     subq.l     D0, 1
000000BE  6D24                     blt        +0x26 /* 000000E4 */
000000C0  48C6                     ext.l      D6
000000C2  2007                     move.l     D0, D7
000000C4  C1FC 00C0                muls.w     D0, 0xC0
000000C8  204D                     movea.l    A0, A5
000000CA  D1FC FFFE 42D4           add.l      A0, 0xFFFE42D4
000000D0  2206                     move.l     D1, D6
000000D2  D241                     add.w      D1, D1
000000D4  D240                     add.w      D1, D0
000000D6  7000                     moveq.l    D0, 0x00
000000D8  3030 10FE                move.w     D0, [A0 + D1.w - 0x2]
000000DC  323C 2000                move.w     D1, 0x2000 /* ' \0' */
000000E0  C240                     and.w      D1, D0
000000E2  6704                     beq        +0x6 /* 000000E8 */
label000000E4:
000000E4  0205 0007                andi.b     D5, 0x7
label000000E8:
000000E8  48C7                     ext.l      D7
000000EA  2007                     move.l     D0, D7
000000EC  5280                     addq.l     D0, 1
000000EE  7260                     moveq.l    D1, 0x60
000000F0  B280                     cmp.l      D1, D0
000000F2  6F24                     ble        +0x26 /* 00000118 */
000000F4  48C7                     ext.l      D7
000000F6  2007                     move.l     D0, D7
000000F8  C1FC 00C0                muls.w     D0, 0xC0
000000FC  204D                     movea.l    A0, A5
000000FE  D1FC FFFE 4394           add.l      A0, 0xFFFE4394
00000104  2206                     move.l     D1, D6
00000106  D241                     add.w      D1, D1
00000108  D240                     add.w      D1, D0
0000010A  7000                     moveq.l    D0, 0x00
0000010C  3030 1000                move.w     D0, [A0 + D1.w]
00000110  323C 2000                move.w     D1, 0x2000 /* ' \0' */
00000114  C240                     and.w      D1, D0
00000116  6704                     beq        +0x6 /* 0000011C */
label00000118:
00000118  0205 000B                andi.b     D5, 0xB
label0000011C:
0000011C  48C6                     ext.l      D6
0000011E  2006                     move.l     D0, D6
00000120  5280                     addq.l     D0, 1
00000122  7260                     moveq.l    D1, 0x60
00000124  B280                     cmp.l      D1, D0
00000126  6F24                     ble        +0x26 /* 0000014C */
00000128  48C6                     ext.l      D6
0000012A  2007                     move.l     D0, D7
0000012C  C1FC 00C0                muls.w     D0, 0xC0
00000130  204D                     movea.l    A0, A5
00000132  D1FC FFFE 42D4           add.l      A0, 0xFFFE42D4
00000138  2206                     move.l     D1, D6
0000013A  D241                     add.w      D1, D1
0000013C  D240                     add.w      D1, D0
0000013E  7000                     moveq.l    D0, 0x00
00000140  3030 1002                move.w     D0, [A0 + D1.w + 0x2]
00000144  323C 2000                move.w     D1, 0x2000 /* ' \0' */
00000148  C240                     and.w      D1, D0
0000014A  6704                     beq        +0x6 /* 00000150 */
label0000014C:
0000014C  0205 000D                andi.b     D5, 0xD /* '\r' */
label00000150:
00000150  48C7                     ext.l      D7
00000152  2007                     move.l     D0, D7
00000154  5380                     subq.l     D0, 1
00000156  6D24                     blt        +0x26 /* 0000017C */
00000158  48C7                     ext.l      D7
0000015A  2007                     move.l     D0, D7
0000015C  C1FC 00C0                muls.w     D0, 0xC0
00000160  204D                     movea.l    A0, A5
00000162  D1FC FFFE 4214           add.l      A0, 0xFFFE4214
00000168  2206                     move.l     D1, D6
0000016A  D241                     add.w      D1, D1
0000016C  D240                     add.w      D1, D0
0000016E  7000                     moveq.l    D0, 0x00
00000170  3030 1000                move.w     D0, [A0 + D1.w]
00000174  323C 2000                move.w     D1, 0x2000 /* ' \0' */
00000178  C240                     and.w      D1, D0
0000017A  6704                     beq        +0x6 /* 00000180 */
label0000017C:
0000017C  0205 000E                andi.b     D5, 0xE
label00000180:
00000180  1005                     move.b     D0, D5
00000182  4CEE 00E0 FFF4           movem.l    D5,D6,D7, [A6 - 0xC]
00000188  4E5E                     unlink     A6
0000018A  4E75                     rts
0000018C  8F73 6361 6E77 6174 6... dc.b       "scanwater__FsT1"
fn0000019E:
0000019E  4E56 0000                link       A6, 0
000001A2  48E7 1300                movem.l    -[A7], D3,D6,D7
000001A6  4246                     clr.w      D6
label000001A8:
000001A8  4247                     clr.w      D7
label000001AA:
000001AA  2006                     move.l     D0, D6
000001AC  C1FC 00C0                muls.w     D0, 0xC0
000001B0  204D                     movea.l    A0, A5
000001B2  D1FC FFFE 42D4           add.l      A0, 0xFFFE42D4
000001B8  2207                     move.l     D1, D7
000001BA  D241                     add.w      D1, D1
000001BC  D240                     add.w      D1, D0
000001BE  7000                     moveq.l    D0, 0x00
000001C0  3030 1000                move.w     D0, [A0 + D1.w]
000001C4  323C 07FF                move.w     D1, 0x7FF
000001C8  C240                     and.w      D1, D0
000001CA  7000                     moveq.l    D0, 0x00
000001CC  3001                     move.w     D0, D1
000001CE  4A80                     tst.l      D0
000001D0  204D                     movea.l    A0, A5
000001D2  D1FC FFFF 7942           add.l      A0, 0xFFFF7942
000001D8  3210                     move.w     D1, [A0]
000001DA  48C1                     ext.l      D1
000001DC  B280                     cmp.l      D1, D0
000001DE  6E00 00C8                bgt        +0xCA /* 000002A8 */
000001E2  2006                     move.l     D0, D6
000001E4  C1FC 00C0                muls.w     D0, 0xC0
000001E8  204D                     movea.l    A0, A5
000001EA  D1FC FFFE 42D4           add.l      A0, 0xFFFE42D4
000001F0  2207                     move.l     D1, D7
000001F2  D241                     add.w      D1, D1
000001F4  D240                     add.w      D1, D0
000001F6  7000                     moveq.l    D0, 0x00
000001F8  3030 1000                move.w     D0, [A0 + D1.w]
000001FC  323C 07FF                move.w     D1, 0x7FF
00000200  C240                     and.w      D1, D0
00000202  7000                     moveq.l    D0, 0x00
00000204  3001                     move.w     D0, D1
00000206  4A80                     tst.l      D0
00000208  204D                     movea.l    A0, A5
0000020A  D1FC FFFF 7942           add.l      A0, 0xFFFF7942
00000210  3210                     move.w     D1, [A0]
00000212  48C1                     ext.l      D1
00000214  7400                     moveq.l    D2, 0x00
00000216  204D                     movea.l    A0, A5
00000218  D1FC FFFF 78A2           add.l      A0, 0xFFFF78A2
0000021E  1410                     move.b     D2, [A0]
00000220  D481                     add.l      D2, D1
00000222  B480                     cmp.l      D2, D0
00000224  6F00 0082                ble        +0x84 /* 000002A8 */
00000228  2006                     move.l     D0, D6
0000022A  C1FC 00C0                muls.w     D0, 0xC0
0000022E  204D                     movea.l    A0, A5
00000230  D1FC FFFE 42D4           add.l      A0, 0xFFFE42D4
00000236  2207                     move.l     D1, D7
00000238  D241                     add.w      D1, D1
0000023A  D240                     add.w      D1, D0
0000023C  7000                     moveq.l    D0, 0x00
0000023E  3030 1000                move.w     D0, [A0 + D1.w]
00000242  323C F800                move.w     D1, 0xF800
00000246  C240                     and.w      D1, D0
00000248  7000                     moveq.l    D0, 0x00
0000024A  3001                     move.w     D0, D1
0000024C  4A80                     tst.l      D0
0000024E  204D                     movea.l    A0, A5
00000250  D1FC FFFF 7942           add.l      A0, 0xFFFF7942
00000256  3210                     move.w     D1, [A0]
00000258  48C1                     ext.l      D1
0000025A  2406                     move.l     D2, D6
0000025C  C5FC 0060                muls.w     D2, 0x60 /* '`' */
00000260  204D                     movea.l    A0, A5
00000262  D1FC FFFD D6D4           add.l      A0, 0xFFFDD6D4
00000268  2607                     move.l     D3, D7
0000026A  D642                     add.w      D3, D2
0000026C  1630 3000                move.b     D3, [A0 + D3.w]
00000270  E40B                     lsr        D3.b, 2
00000272  7400                     moveq.l    D2, 0x00
00000274  1403                     move.b     D2, D3
00000276  D481                     add.l      D2, D1
00000278  204D                     movea.l    A0, A5
0000027A  D1FC FFFE 8AEC           add.l      A0, 0xFFFE8AEC
00000280  1210                     move.b     D1, [A0]
00000282  49C1                     lea.l      A4, D1
00000284  D282                     add.l      D1, D2
00000286  8280                     or.l       D1, D0
00000288  203C FFFF BFFF           move.l     D0, 0xFFFFBFFF
0000028E  C081                     and.l      D0, D1
00000290  2206                     move.l     D1, D6
00000292  C3FC 00C0                muls.w     D1, 0xC0
00000296  204D                     movea.l    A0, A5
00000298  D1FC FFFE 42D4           add.l      A0, 0xFFFE42D4
0000029E  2407                     move.l     D2, D7
000002A0  D442                     add.w      D2, D2
000002A2  D441                     add.w      D2, D1
000002A4  3180 2000                move.w     [A0 + D2.w], D0
label000002A8:
000002A8  3007                     move.w     D0, D7
000002AA  5247                     addq.w     D7, 1
000002AC  0C47 0060                cmpi.w     D7, 0x60 /* '`' */
000002B0  6D00 FEF8                blt        -0x106 /* 000001AA */
000002B4  3006                     move.w     D0, D6
000002B6  5246                     addq.w     D6, 1
000002B8  0C46 0060                cmpi.w     D6, 0x60 /* '`' */
000002BC  6D00 FEEA                blt        -0x114 /* 000001A8 */
000002C0  4CEE 00C8 FFF4           movem.l    D3,D6,D7, [A6 - 0xC]
000002C6  4E5E                     unlink     A6
000002C8  4E75                     rts
000002CA  8D69 6E63 5F77 6174 6... dc.b       "inc_water__Fc"
fn000002DA:
000002DA  4E56 0000                link       A6, 0
000002DE  48E7 1300                movem.l    -[A7], D3,D6,D7
000002E2  4246                     clr.w      D6
label000002E4:
000002E4  4247                     clr.w      D7
label000002E6:
000002E6  2006                     move.l     D0, D6
000002E8  C1FC 00C0                muls.w     D0, 0xC0
000002EC  204D                     movea.l    A0, A5
000002EE  D1FC FFFE 42D4           add.l      A0, 0xFFFE42D4
000002F4  2207                     move.l     D1, D7
000002F6  D241                     add.w      D1, D1
000002F8  D240                     add.w      D1, D0
000002FA  7000                     moveq.l    D0, 0x00
000002FC  3030 1000                move.w     D0, [A0 + D1.w]
00000300  323C 07FF                move.w     D1, 0x7FF
00000304  C240                     and.w      D1, D0
00000306  7000                     moveq.l    D0, 0x00
00000308  3001                     move.w     D0, D1
0000030A  4A80                     tst.l      D0
0000030C  204D                     movea.l    A0, A5
0000030E  D1FC FFFF 7942           add.l      A0, 0xFFFF7942
00000314  3210                     move.w     D1, [A0]
00000316  48C1                     ext.l      D1
00000318  B280                     cmp.l      D1, D0
0000031A  6E00 00C8                bgt        +0xCA /* 000003E4 */
0000031E  2006                     move.l     D0, D6
00000320  C1FC 00C0                muls.w     D0, 0xC0
00000324  204D                     movea.l    A0, A5
00000326  D1FC FFFE 42D4           add.l      A0, 0xFFFE42D4
0000032C  2207                     move.l     D1, D7
0000032E  D241                     add.w      D1, D1
00000330  D240                     add.w      D1, D0
00000332  7000                     moveq.l    D0, 0x00
00000334  3030 1000                move.w     D0, [A0 + D1.w]
00000338  323C 07FF                move.w     D1, 0x7FF
0000033C  C240                     and.w      D1, D0
0000033E  7000                     moveq.l    D0, 0x00
00000340  3001                     move.w     D0, D1
00000342  4A80                     tst.l      D0
00000344  204D                     movea.l    A0, A5
00000346  D1FC FFFF 7942           add.l      A0, 0xFFFF7942
0000034C  3210                     move.w     D1, [A0]
0000034E  48C1                     ext.l      D1
00000350  7400                     moveq.l    D2, 0x00
00000352  204D                     movea.l    A0, A5
00000354  D1FC FFFF 78A2           add.l      A0, 0xFFFF78A2
0000035A  1410                     move.b     D2, [A0]
0000035C  D481                     add.l      D2, D1
0000035E  B480                     cmp.l      D2, D0
00000360  6F00 0082                ble        +0x84 /* 000003E4 */
00000364  2006                     move.l     D0, D6
00000366  C1FC 00C0                muls.w     D0, 0xC0
0000036A  204D                     movea.l    A0, A5
0000036C  D1FC FFFE 42D4           add.l      A0, 0xFFFE42D4
00000372  2207                     move.l     D1, D7
00000374  D241                     add.w      D1, D1
00000376  D240                     add.w      D1, D0
00000378  7000                     moveq.l    D0, 0x00
0000037A  3030 1000                move.w     D0, [A0 + D1.w]
0000037E  323C F800                move.w     D1, 0xF800
00000382  C240                     and.w      D1, D0
00000384  7000                     moveq.l    D0, 0x00
00000386  3001                     move.w     D0, D1
00000388  4A80                     tst.l      D0
0000038A  204D                     movea.l    A0, A5
0000038C  D1FC FFFF 7942           add.l      A0, 0xFFFF7942
00000392  3210                     move.w     D1, [A0]
00000394  48C1                     ext.l      D1
00000396  2406                     move.l     D2, D6
00000398  C5FC 0060                muls.w     D2, 0x60 /* '`' */
0000039C  204D                     movea.l    A0, A5
0000039E  D1FC FFFD D6D4           add.l      A0, 0xFFFDD6D4
000003A4  2607                     move.l     D3, D7
000003A6  D642                     add.w      D3, D2
000003A8  1630 3000                move.b     D3, [A0 + D3.w]
000003AC  E40B                     lsr        D3.b, 2
000003AE  7400                     moveq.l    D2, 0x00
000003B0  1403                     move.b     D2, D3
000003B2  D481                     add.l      D2, D1
000003B4  204D                     movea.l    A0, A5
000003B6  D1FC FFFE 8AEC           add.l      A0, 0xFFFE8AEC
000003BC  1210                     move.b     D1, [A0]
000003BE  49C1                     lea.l      A4, D1
000003C0  D282                     add.l      D1, D2
000003C2  8280                     or.l       D1, D0
000003C4  203C FFFF BFFF           move.l     D0, 0xFFFFBFFF
000003CA  C081                     and.l      D0, D1
000003CC  2206                     move.l     D1, D6
000003CE  C3FC 00C0                muls.w     D1, 0xC0
000003D2  204D                     movea.l    A0, A5
000003D4  D1FC FFFE 42D4           add.l      A0, 0xFFFE42D4
000003DA  2407                     move.l     D2, D7
000003DC  D442                     add.w      D2, D2
000003DE  D441                     add.w      D2, D1
000003E0  3180 2000                move.w     [A0 + D2.w], D0
label000003E4:
000003E4  3007                     move.w     D0, D7
000003E6  5247                     addq.w     D7, 1
000003E8  0C47 0060                cmpi.w     D7, 0x60 /* '`' */
000003EC  6D00 FEF8                blt        -0x106 /* 000002E6 */
000003F0  3006                     move.w     D0, D6
000003F2  5246                     addq.w     D6, 1
000003F4  0C46 0060                cmpi.w     D6, 0x60 /* '`' */
000003F8  6D00 FEEA                blt        -0x114 /* 000002E4 */
000003FC  4CEE 00C8 FFF4           movem.l    D3,D6,D7, [A6 - 0xC]
00000402  4E5E                     unlink     A6
00000404  4E75                     rts
00000406  8D64 6563 5F77 6174 6... dc.b       "dec_water__Fc"
export_270:
00000416  4E56 FFEE                link       A6, -0x0012
0000041A  48E7 1708                movem.l    -[A7], D3,D5,D6,D7,A4
0000041E  3A2E 000A                move.w     D5, [A6 + 0xA]
00000422  204D                     movea.l    A0, A5
00000424  D1FC FFFE D522           add.l      A0, 0xFFFED522
0000042A  49D0                     lea.l      A4, [A0]
0000042C  3C2E 000E                move.w     D6, [A6 + 0xE]
00000430  1D7C FFFF FFFE           move.b     [A6 - 0x2], 0xFF
00000436  1D7C FFFF FFFF           move.b     [A6 - 0x1], 0xFF
0000043C  2005                     move.l     D0, D5
0000043E  C1FC 00C0                muls.w     D0, 0xC0
00000442  204D                     movea.l    A0, A5
00000444  D1FC FFFE 42D4           add.l      A0, 0xFFFE42D4
0000044A  2206                     move.l     D1, D6
0000044C  D241                     add.w      D1, D1
0000044E  D240                     add.w      D1, D0
00000450  7000                     moveq.l    D0, 0x00
00000452  3030 1000                move.w     D0, [A0 + D1.w]
00000456  323C 2000                move.w     D1, 0x2000 /* ' \0' */
0000045A  C240                     and.w      D1, D0
0000045C  6700 0614                beq        +0x616 /* 00000A72 */
00000460  48C6                     ext.l      D6
00000462  2F06                     move.l     -[A7], D6
00000464  48C5                     ext.l      D5
00000466  2F05                     move.l     -[A7], D5
00000468  4EBA FC3C                jsr        [PC - 0x3C4 /* 000000A6 */]
0000046C  1E00                     move.b     D7, D0
0000046E  4887                     ext.w      D7
00000470  70FF                     moveq.l    D0, 0xFFFFFFFF
00000472  B074 7200                cmp.w      D0, [A4 + D7.w * 2]
00000476  504F                     addq.w     A7, 8
00000478  6600 0436                bne        +0x438 /* 000008B0 */
0000047C  1005                     move.b     D0, D5
0000047E  5300                     subq.b     D0, 1
00000480  1D40 FFFE                move.b     [A6 - 0x2], D0
00000484  6000 0414                bra        +0x416 /* 0000089A */
label00000488:
00000488  1006                     move.b     D0, D6
0000048A  5300                     subq.b     D0, 1
0000048C  1D40 FFFF                move.b     [A6 - 0x1], D0
00000490  6000 03EE                bra        +0x3F0 /* 00000880 */
label00000494:
00000494  486E FFFF                pea.l      [A6 - 0x1]
00000498  486E FFFE                pea.l      [A6 - 0x2]
0000049C  4EAD 084A                jsr        [A5 + 0x84A /* export_261, CODE:14 @ 000057DA */]
000004A0  102E FFFF                move.b     D0, [A6 - 0x1]
000004A4  49C0                     lea.l      A4, D0
000004A6  2F00                     move.l     -[A7], D0
000004A8  102E FFFE                move.b     D0, [A6 - 0x2]
000004AC  49C0                     lea.l      A4, D0
000004AE  2F00                     move.l     -[A7], D0
000004B0  4EBA FBF4                jsr        [PC - 0x40C /* 000000A6 */]
000004B4  1E00                     move.b     D7, D0
000004B6  4887                     ext.w      D7
000004B8  70FF                     moveq.l    D0, 0xFFFFFFFF
000004BA  B074 7200                cmp.w      D0, [A4 + D7.w * 2]
000004BE  4FEF 0010                lea.l      A7, [A7 + 0x10]
000004C2  6600 01B2                bne        +0x1B4 /* 00000676 */
000004C6  102E FFFF                move.b     D0, [A6 - 0x1]
000004CA  4880                     ext.w      D0
000004CC  122E FFFE                move.b     D1, [A6 - 0x2]
000004D0  4881                     ext.w      D1
000004D2  C3FC 00C0                muls.w     D1, 0xC0
000004D6  204D                     movea.l    A0, A5
000004D8  D1FC FFFE 42D4           add.l      A0, 0xFFFE42D4
000004DE  D040                     add.w      D0, D0
000004E0  D041                     add.w      D0, D1
000004E2  7200                     moveq.l    D1, 0x00
000004E4  3230 0000                move.w     D1, [A0 + D0.w]
000004E8  303C 07FF                move.w     D0, 0x7FF
000004EC  C041                     and.w      D0, D1
000004EE  7200                     moveq.l    D1, 0x00
000004F0  3200                     move.w     D1, D0
000004F2  4A81                     tst.l      D1
000004F4  204D                     movea.l    A0, A5
000004F6  D1FC FFFF 79BC           add.l      A0, 0xFFFF79BC
000004FC  3010                     move.w     D0, [A0]
000004FE  48C0                     ext.l      D0
00000500  B081                     cmp.l      D0, D1
00000502  6E4E                     bgt        +0x50 /* 00000552 */
00000504  102E FFFF                move.b     D0, [A6 - 0x1]
00000508  4880                     ext.w      D0
0000050A  122E FFFE                move.b     D1, [A6 - 0x2]
0000050E  4881                     ext.w      D1
00000510  C3FC 00C0                muls.w     D1, 0xC0
00000514  204D                     movea.l    A0, A5
00000516  D1FC FFFE 42D4           add.l      A0, 0xFFFE42D4
0000051C  D040                     add.w      D0, D0
0000051E  D041                     add.w      D0, D1
00000520  7200                     moveq.l    D1, 0x00
00000522  3230 0000                move.w     D1, [A0 + D0.w]
00000526  303C 07FF                move.w     D0, 0x7FF
0000052A  C041                     and.w      D0, D1
0000052C  7200                     moveq.l    D1, 0x00
0000052E  3200                     move.w     D1, D0
00000530  4A81                     tst.l      D1
00000532  204D                     movea.l    A0, A5
00000534  D1FC FFFF 79BC           add.l      A0, 0xFFFF79BC
0000053A  3010                     move.w     D0, [A0]
0000053C  48C0                     ext.l      D0
0000053E  7400                     moveq.l    D2, 0x00
00000540  204D                     movea.l    A0, A5
00000542  D1FC FFFF 78DF           add.l      A0, 0xFFFF78DF
00000548  1410                     move.b     D2, [A0]
0000054A  D480                     add.l      D2, D0
0000054C  B481                     cmp.l      D2, D1
0000054E  6E00 0328                bgt        +0x32A /* 00000878 */
label00000552:
00000552  102E FFFF                move.b     D0, [A6 - 0x1]
00000556  4880                     ext.w      D0
00000558  122E FFFE                move.b     D1, [A6 - 0x2]
0000055C  4881                     ext.w      D1
0000055E  C3FC 00C0                muls.w     D1, 0xC0
00000562  204D                     movea.l    A0, A5
00000564  D1FC FFFD FAD4           add.l      A0, 0xFFFDFAD4
0000056A  D040                     add.w      D0, D0
0000056C  D041                     add.w      D0, D1
0000056E  7200                     moveq.l    D1, 0x00
00000570  3230 0000                move.w     D1, [A0 + D0.w]
00000574  303C 4000                move.w     D0, 0x4000 /* '@\0' */
00000578  C041                     and.w      D0, D1
0000057A  6600 02FC                bne        +0x2FE /* 00000878 */
0000057E  102E FFFF                move.b     D0, [A6 - 0x1]
00000582  4880                     ext.w      D0
00000584  122E FFFE                move.b     D1, [A6 - 0x2]
00000588  4881                     ext.w      D1
0000058A  C3FC 00C0                muls.w     D1, 0xC0
0000058E  204D                     movea.l    A0, A5
00000590  D1FC FFFE 42D4           add.l      A0, 0xFFFE42D4
00000596  D040                     add.w      D0, D0
00000598  D041                     add.w      D0, D1
0000059A  7200                     moveq.l    D1, 0x00
0000059C  3230 0000                move.w     D1, [A0 + D0.w]
000005A0  303C 07FF                move.w     D0, 0x7FF
000005A4  C041                     and.w      D0, D1
000005A6  7200                     moveq.l    D1, 0x00
000005A8  3200                     move.w     D1, D0
000005AA  4A81                     tst.l      D1
000005AC  204D                     movea.l    A0, A5
000005AE  D1FC FFFF 7A42           add.l      A0, 0xFFFF7A42
000005B4  3010                     move.w     D0, [A0]
000005B6  48C0                     ext.l      D0
000005B8  B081                     cmp.l      D0, D1
000005BA  6E4E                     bgt        +0x50 /* 0000060A */
000005BC  102E FFFF                move.b     D0, [A6 - 0x1]
000005C0  4880                     ext.w      D0
000005C2  122E FFFE                move.b     D1, [A6 - 0x2]
000005C6  4881                     ext.w      D1
000005C8  C3FC 00C0                muls.w     D1, 0xC0
000005CC  204D                     movea.l    A0, A5
000005CE  D1FC FFFE 42D4           add.l      A0, 0xFFFE42D4
000005D4  D040                     add.w      D0, D0
000005D6  D041                     add.w      D0, D1
000005D8  7200                     moveq.l    D1, 0x00
000005DA  3230 0000                move.w     D1, [A0 + D0.w]
000005DE  303C 07FF                move.w     D0, 0x7FF
000005E2  C041                     and.w      D0, D1
000005E4  7200                     moveq.l    D1, 0x00
000005E6  3200                     move.w     D1, D0
000005E8  4A81                     tst.l      D1
000005EA  204D                     movea.l    A0, A5
000005EC  D1FC FFFF 7A42           add.l      A0, 0xFFFF7A42
000005F2  3010                     move.w     D0, [A0]
000005F4  48C0                     ext.l      D0
000005F6  7400                     moveq.l    D2, 0x00
000005F8  204D                     movea.l    A0, A5
000005FA  D1FC FFFF 7922           add.l      A0, 0xFFFF7922
00000600  1410                     move.b     D2, [A0]
00000602  D480                     add.l      D2, D0
00000604  B481                     cmp.l      D2, D1
00000606  6E00 0270                bgt        +0x272 /* 00000878 */
label0000060A:
0000060A  102E FFFF                move.b     D0, [A6 - 0x1]
0000060E  4880                     ext.w      D0
00000610  122E FFFE                move.b     D1, [A6 - 0x2]
00000614  4881                     ext.w      D1
00000616  C3FC 00C0                muls.w     D1, 0xC0
0000061A  204D                     movea.l    A0, A5
0000061C  D1FC FFFE 42D4           add.l      A0, 0xFFFE42D4
00000622  D040                     add.w      D0, D0
00000624  D041                     add.w      D0, D1
00000626  7200                     moveq.l    D1, 0x00
00000628  3230 0000                move.w     D1, [A0 + D0.w]
0000062C  303C F800                move.w     D0, 0xF800
00000630  C041                     and.w      D0, D1
00000632  7200                     moveq.l    D1, 0x00
00000634  3200                     move.w     D1, D0
00000636  4A81                     tst.l      D1
00000638  204D                     movea.l    A0, A5
0000063A  D1FC FFFF 7942           add.l      A0, 0xFFFF7942
00000640  3010                     move.w     D0, [A0]
00000642  48C0                     ext.l      D0
00000644  740A                     moveq.l    D2, 0x0A
00000646  D082                     add.l      D0, D2
00000648  8081                     or.l       D0, D1
0000064A  223C FFFF BFFF           move.l     D1, 0xFFFFBFFF
00000650  C280                     and.l      D1, D0
00000652  102E FFFF                move.b     D0, [A6 - 0x1]
00000656  4880                     ext.w      D0
00000658  162E FFFE                move.b     D3, [A6 - 0x2]
0000065C  4883                     ext.w      D3
0000065E  C7FC 00C0                muls.w     D3, 0xC0
00000662  204D                     movea.l    A0, A5
00000664  D1FC FFFE 42D4           add.l      A0, 0xFFFE42D4
0000066A  D040                     add.w      D0, D0
0000066C  D043                     add.w      D0, D3
0000066E  3181 0000                move.w     [A0 + D0.w], D1
00000672  6000 0204                bra        +0x206 /* 00000878 */
label00000676:
00000676  102E FFFF                move.b     D0, [A6 - 0x1]
0000067A  4880                     ext.w      D0
0000067C  122E FFFE                move.b     D1, [A6 - 0x2]
00000680  4881                     ext.w      D1
00000682  C3FC 00C0                muls.w     D1, 0xC0
00000686  204D                     movea.l    A0, A5
00000688  D1FC FFFE 42D4           add.l      A0, 0xFFFE42D4
0000068E  D040                     add.w      D0, D0
00000690  D041                     add.w      D0, D1
00000692  7200                     moveq.l    D1, 0x00
00000694  3230 0000                move.w     D1, [A0 + D0.w]
00000698  303C 07FF                move.w     D0, 0x7FF
0000069C  C041                     and.w      D0, D1
0000069E  7200                     moveq.l    D1, 0x00
000006A0  3200                     move.w     D1, D0
000006A2  4A81                     tst.l      D1
000006A4  204D                     movea.l    A0, A5
000006A6  D1FC FFFF 79BC           add.l      A0, 0xFFFF79BC
000006AC  3010                     move.w     D0, [A0]
000006AE  48C0                     ext.l      D0
000006B0  B081                     cmp.l      D0, D1
000006B2  6E4E                     bgt        +0x50 /* 00000702 */
000006B4  102E FFFF                move.b     D0, [A6 - 0x1]
000006B8  4880                     ext.w      D0
000006BA  122E FFFE                move.b     D1, [A6 - 0x2]
000006BE  4881                     ext.w      D1
000006C0  C3FC 00C0                muls.w     D1, 0xC0
000006C4  204D                     movea.l    A0, A5
000006C6  D1FC FFFE 42D4           add.l      A0, 0xFFFE42D4
000006CC  D040                     add.w      D0, D0
000006CE  D041                     add.w      D0, D1
000006D0  7200                     moveq.l    D1, 0x00
000006D2  3230 0000                move.w     D1, [A0 + D0.w]
000006D6  303C 07FF                move.w     D0, 0x7FF
000006DA  C041                     and.w      D0, D1
000006DC  7200                     moveq.l    D1, 0x00
000006DE  3200                     move.w     D1, D0
000006E0  4A81                     tst.l      D1
000006E2  204D                     movea.l    A0, A5
000006E4  D1FC FFFF 79BC           add.l      A0, 0xFFFF79BC
000006EA  3010                     move.w     D0, [A0]
000006EC  48C0                     ext.l      D0
000006EE  7400                     moveq.l    D2, 0x00
000006F0  204D                     movea.l    A0, A5
000006F2  D1FC FFFF 78DF           add.l      A0, 0xFFFF78DF
000006F8  1410                     move.b     D2, [A0]
000006FA  D480                     add.l      D2, D0
000006FC  B481                     cmp.l      D2, D1
000006FE  6E00 0134                bgt        +0x136 /* 00000834 */
label00000702:
00000702  102E FFFF                move.b     D0, [A6 - 0x1]
00000706  4880                     ext.w      D0
00000708  122E FFFE                move.b     D1, [A6 - 0x2]
0000070C  4881                     ext.w      D1
0000070E  C3FC 00C0                muls.w     D1, 0xC0
00000712  204D                     movea.l    A0, A5
00000714  D1FC FFFD FAD4           add.l      A0, 0xFFFDFAD4
0000071A  D040                     add.w      D0, D0
0000071C  D041                     add.w      D0, D1
0000071E  7200                     moveq.l    D1, 0x00
00000720  3230 0000                move.w     D1, [A0 + D0.w]
00000724  303C 4000                move.w     D0, 0x4000 /* '@\0' */
00000728  C041                     and.w      D0, D1
0000072A  6600 0108                bne        +0x10A /* 00000834 */
0000072E  102E FFFF                move.b     D0, [A6 - 0x1]
00000732  4880                     ext.w      D0
00000734  122E FFFE                move.b     D1, [A6 - 0x2]
00000738  4881                     ext.w      D1
0000073A  C3FC 00C0                muls.w     D1, 0xC0
0000073E  204D                     movea.l    A0, A5
00000740  D1FC FFFE 42D4           add.l      A0, 0xFFFE42D4
00000746  D040                     add.w      D0, D0
00000748  D041                     add.w      D0, D1
0000074A  7200                     moveq.l    D1, 0x00
0000074C  3230 0000                move.w     D1, [A0 + D0.w]
00000750  303C 07FF                move.w     D0, 0x7FF
00000754  C041                     and.w      D0, D1
00000756  7200                     moveq.l    D1, 0x00
00000758  3200                     move.w     D1, D0
0000075A  4A81                     tst.l      D1
0000075C  204D                     movea.l    A0, A5
0000075E  D1FC FFFF 7A42           add.l      A0, 0xFFFF7A42
00000764  3010                     move.w     D0, [A0]
00000766  48C0                     ext.l      D0
00000768  B081                     cmp.l      D0, D1
0000076A  6E4C                     bgt        +0x4E /* 000007B8 */
0000076C  102E FFFF                move.b     D0, [A6 - 0x1]
00000770  4880                     ext.w      D0
00000772  122E FFFE                move.b     D1, [A6 - 0x2]
00000776  4881                     ext.w      D1
00000778  C3FC 00C0                muls.w     D1, 0xC0
0000077C  204D                     movea.l    A0, A5
0000077E  D1FC FFFE 42D4           add.l      A0, 0xFFFE42D4
00000784  D040                     add.w      D0, D0
00000786  D041                     add.w      D0, D1
00000788  7200                     moveq.l    D1, 0x00
0000078A  3230 0000                move.w     D1, [A0 + D0.w]
0000078E  303C 07FF                move.w     D0, 0x7FF
00000792  C041                     and.w      D0, D1
00000794  7200                     moveq.l    D1, 0x00
00000796  3200                     move.w     D1, D0
00000798  4A81                     tst.l      D1
0000079A  204D                     movea.l    A0, A5
0000079C  D1FC FFFF 7A42           add.l      A0, 0xFFFF7A42
000007A2  3010                     move.w     D0, [A0]
000007A4  48C0                     ext.l      D0
000007A6  7400                     moveq.l    D2, 0x00
000007A8  204D                     movea.l    A0, A5
000007AA  D1FC FFFF 7922           add.l      A0, 0xFFFF7922
000007B0  1410                     move.b     D2, [A0]
000007B2  D480                     add.l      D2, D0
000007B4  B481                     cmp.l      D2, D1
000007B6  6E7C                     bgt        +0x7E /* 00000834 */
label000007B8:
000007B8  102E FFFF                move.b     D0, [A6 - 0x1]
000007BC  4880                     ext.w      D0
000007BE  122E FFFE                move.b     D1, [A6 - 0x2]
000007C2  4881                     ext.w      D1
000007C4  C3FC 00C0                muls.w     D1, 0xC0
000007C8  204D                     movea.l    A0, A5
000007CA  D1FC FFFE 42D4           add.l      A0, 0xFFFE42D4
000007D0  D040                     add.w      D0, D0
000007D2  D041                     add.w      D0, D1
000007D4  7200                     moveq.l    D1, 0x00
000007D6  3230 0000                move.w     D1, [A0 + D0.w]
000007DA  303C F800                move.w     D0, 0xF800
000007DE  C041                     and.w      D0, D1
000007E0  7200                     moveq.l    D1, 0x00
000007E2  3200                     move.w     D1, D0
000007E4  4887                     ext.w      D7
000007E6  3034 7200                move.w     D0, [A4 + D7.w * 2]
000007EA  48C0                     ext.l      D0
000007EC  2D40 FFFA                move.l     [A6 - 0x6], D0
000007F0  2D41 FFF6                move.l     [A6 - 0xA], D1
000007F4  558F                     subq.l     A7, 2
000007F6  A861                     syscall    Random
000007F8  7001                     moveq.l    D0, 0x01
000007FA  C05F                     and.w      D0, [A7]+
000007FC  7200                     moveq.l    D1, 0x00
000007FE  3200                     move.w     D1, D0
00000800  202E FFFA                move.l     D0, [A6 - 0x6]
00000804  D280                     add.l      D1, D0
00000806  202E FFF6                move.l     D0, [A6 - 0xA]
0000080A  8280                     or.l       D1, D0
0000080C  203C FFFF BFFF           move.l     D0, 0xFFFFBFFF
00000812  C081                     and.l      D0, D1
00000814  122E FFFF                move.b     D1, [A6 - 0x1]
00000818  4881                     ext.w      D1
0000081A  142E FFFE                move.b     D2, [A6 - 0x2]
0000081E  4882                     ext.w      D2
00000820  C5FC 00C0                muls.w     D2, 0xC0
00000824  204D                     movea.l    A0, A5
00000826  D1FC FFFE 42D4           add.l      A0, 0xFFFE42D4
0000082C  D241                     add.w      D1, D1
0000082E  D242                     add.w      D1, D2
00000830  3180 1000                move.w     [A0 + D1.w], D0
label00000834:
00000834  102E FFFF                move.b     D0, [A6 - 0x1]
00000838  4880                     ext.w      D0
0000083A  122E FFFE                move.b     D1, [A6 - 0x2]
0000083E  4881                     ext.w      D1
00000840  C3FC 00C0                muls.w     D1, 0xC0
00000844  204D                     movea.l    A0, A5
00000846  D1FC FFFE 42D4           add.l      A0, 0xFFFE42D4
0000084C  D040                     add.w      D0, D0
0000084E  D041                     add.w      D0, D1
00000850  0070 2000 0000           ori.w      [A0 + D0.w], 0x2000 /* ' \0' */
00000856  102E FFFF                move.b     D0, [A6 - 0x1]
0000085A  4880                     ext.w      D0
0000085C  122E FFFE                move.b     D1, [A6 - 0x2]
00000860  4881                     ext.w      D1
00000862  C3FC 00C0                muls.w     D1, 0xC0
00000866  204D                     movea.l    A0, A5
00000868  D1FC FFFE 42D4           add.l      A0, 0xFFFE42D4
0000086E  D040                     add.w      D0, D0
00000870  D041                     add.w      D0, D1
00000872  0270 BFFF 0000           andi.w     [A0 + D0.w], 0xBFFF
label00000878:
00000878  102E FFFF                move.b     D0, [A6 - 0x1]
0000087C  522E FFFF                addq.b     [A6 - 0x1], 1
label00000880:
00000880  102E FFFF                move.b     D0, [A6 - 0x1]
00000884  49C0                     lea.l      A4, D0
00000886  48C6                     ext.l      D6
00000888  2206                     move.l     D1, D6
0000088A  5281                     addq.l     D1, 1
0000088C  B280                     cmp.l      D1, D0
0000088E  6C00 FC04                bge        -0x3FA /* 00000494 */
00000892  102E FFFE                move.b     D0, [A6 - 0x2]
00000896  522E FFFE                addq.b     [A6 - 0x2], 1
label0000089A:
0000089A  102E FFFE                move.b     D0, [A6 - 0x2]
0000089E  49C0                     lea.l      A4, D0
000008A0  48C5                     ext.l      D5
000008A2  2205                     move.l     D1, D5
000008A4  5281                     addq.l     D1, 1
000008A6  B280                     cmp.l      D1, D0
000008A8  6C00 FBDE                bge        -0x420 /* 00000488 */
000008AC  6000 01C4                bra        +0x1C6 /* 00000A72 */
label000008B0:
000008B0  2005                     move.l     D0, D5
000008B2  C1FC 00C0                muls.w     D0, 0xC0
000008B6  204D                     movea.l    A0, A5
000008B8  D1FC FFFE 42D4           add.l      A0, 0xFFFE42D4
000008BE  2206                     move.l     D1, D6
000008C0  D241                     add.w      D1, D1
000008C2  D240                     add.w      D1, D0
000008C4  7000                     moveq.l    D0, 0x00
000008C6  3030 1000                move.w     D0, [A0 + D1.w]
000008CA  323C 07FF                move.w     D1, 0x7FF
000008CE  C240                     and.w      D1, D0
000008D0  7000                     moveq.l    D0, 0x00
000008D2  3001                     move.w     D0, D1
000008D4  4A80                     tst.l      D0
000008D6  204D                     movea.l    A0, A5
000008D8  D1FC FFFF 79BC           add.l      A0, 0xFFFF79BC
000008DE  3210                     move.w     D1, [A0]
000008E0  48C1                     ext.l      D1
000008E2  B280                     cmp.l      D1, D0
000008E4  6E46                     bgt        +0x48 /* 0000092C */
000008E6  2005                     move.l     D0, D5
000008E8  C1FC 00C0                muls.w     D0, 0xC0
000008EC  204D                     movea.l    A0, A5
000008EE  D1FC FFFE 42D4           add.l      A0, 0xFFFE42D4
000008F4  2206                     move.l     D1, D6
000008F6  D241                     add.w      D1, D1
000008F8  D240                     add.w      D1, D0
000008FA  7000                     moveq.l    D0, 0x00
000008FC  3030 1000                move.w     D0, [A0 + D1.w]
00000900  323C 07FF                move.w     D1, 0x7FF
00000904  C240                     and.w      D1, D0
00000906  7000                     moveq.l    D0, 0x00
00000908  3001                     move.w     D0, D1
0000090A  4A80                     tst.l      D0
0000090C  204D                     movea.l    A0, A5
0000090E  D1FC FFFF 79BC           add.l      A0, 0xFFFF79BC
00000914  3210                     move.w     D1, [A0]
00000916  48C1                     ext.l      D1
00000918  7400                     moveq.l    D2, 0x00
0000091A  204D                     movea.l    A0, A5
0000091C  D1FC FFFF 78DF           add.l      A0, 0xFFFF78DF
00000922  1410                     move.b     D2, [A0]
00000924  D481                     add.l      D2, D1
00000926  B480                     cmp.l      D2, D0
00000928  6E00 010C                bgt        +0x10E /* 00000A36 */
label0000092C:
0000092C  2005                     move.l     D0, D5
0000092E  C1FC 00C0                muls.w     D0, 0xC0
00000932  204D                     movea.l    A0, A5
00000934  D1FC FFFD FAD4           add.l      A0, 0xFFFDFAD4
0000093A  2206                     move.l     D1, D6
0000093C  D241                     add.w      D1, D1
0000093E  D240                     add.w      D1, D0
00000940  7000                     moveq.l    D0, 0x00
00000942  3030 1000                move.w     D0, [A0 + D1.w]
00000946  323C 4000                move.w     D1, 0x4000 /* '@\0' */
0000094A  C240                     and.w      D1, D0
0000094C  6600 00E8                bne        +0xEA /* 00000A36 */
00000950  2005                     move.l     D0, D5
00000952  C1FC 00C0                muls.w     D0, 0xC0
00000956  204D                     movea.l    A0, A5
00000958  D1FC FFFE 42D4           add.l      A0, 0xFFFE42D4
0000095E  2206                     move.l     D1, D6
00000960  D241                     add.w      D1, D1
00000962  D240                     add.w      D1, D0
00000964  7000                     moveq.l    D0, 0x00
00000966  3030 1000                move.w     D0, [A0 + D1.w]
0000096A  323C 07FF                move.w     D1, 0x7FF
0000096E  C240                     and.w      D1, D0
00000970  7000                     moveq.l    D0, 0x00
00000972  3001                     move.w     D0, D1
00000974  4A80                     tst.l      D0
00000976  204D                     movea.l    A0, A5
00000978  D1FC FFFF 7A42           add.l      A0, 0xFFFF7A42
0000097E  3210                     move.w     D1, [A0]
00000980  48C1                     ext.l      D1
00000982  B280                     cmp.l      D1, D0
00000984  6E44                     bgt        +0x46 /* 000009CA */
00000986  2005                     move.l     D0, D5
00000988  C1FC 00C0                muls.w     D0, 0xC0
0000098C  204D                     movea.l    A0, A5
0000098E  D1FC FFFE 42D4           add.l      A0, 0xFFFE42D4
00000994  2206                     move.l     D1, D6
00000996  D241                     add.w      D1, D1
00000998  D240                     add.w      D1, D0
0000099A  7000                     moveq.l    D0, 0x00
0000099C  3030 1000                move.w     D0, [A0 + D1.w]
000009A0  323C 07FF                move.w     D1, 0x7FF
000009A4  C240                     and.w      D1, D0
000009A6  7000                     moveq.l    D0, 0x00
000009A8  3001                     move.w     D0, D1
000009AA  4A80                     tst.l      D0
000009AC  204D                     movea.l    A0, A5
000009AE  D1FC FFFF 7A42           add.l      A0, 0xFFFF7A42
000009B4  3210                     move.w     D1, [A0]
000009B6  48C1                     ext.l      D1
000009B8  7400                     moveq.l    D2, 0x00
000009BA  204D                     movea.l    A0, A5
000009BC  D1FC FFFF 7922           add.l      A0, 0xFFFF7922
000009C2  1410                     move.b     D2, [A0]
000009C4  D481                     add.l      D2, D1
000009C6  B480                     cmp.l      D2, D0
000009C8  6E6C                     bgt        +0x6E /* 00000A36 */
label000009CA:
000009CA  2005                     move.l     D0, D5
000009CC  C1FC 00C0                muls.w     D0, 0xC0
000009D0  204D                     movea.l    A0, A5
000009D2  D1FC FFFE 42D4           add.l      A0, 0xFFFE42D4
000009D8  2206                     move.l     D1, D6
000009DA  D241                     add.w      D1, D1
000009DC  D240                     add.w      D1, D0
000009DE  7000                     moveq.l    D0, 0x00
000009E0  3030 1000                move.w     D0, [A0 + D1.w]
000009E4  323C F800                move.w     D1, 0xF800
000009E8  C240                     and.w      D1, D0
000009EA  7000                     moveq.l    D0, 0x00
000009EC  3001                     move.w     D0, D1
000009EE  4887                     ext.w      D7
000009F0  3234 7200                move.w     D1, [A4 + D7.w * 2]
000009F4  48C1                     ext.l      D1
000009F6  2D40 FFF2                move.l     [A6 - 0xE], D0
000009FA  2D41 FFEE                move.l     [A6 - 0x12], D1
000009FE  558F                     subq.l     A7, 2
00000A00  A861                     syscall    Random
00000A02  7001                     moveq.l    D0, 0x01
00000A04  C05F                     and.w      D0, [A7]+
00000A06  7200                     moveq.l    D1, 0x00
00000A08  3200                     move.w     D1, D0
00000A0A  202E FFEE                move.l     D0, [A6 - 0x12]
00000A0E  D280                     add.l      D1, D0
00000A10  202E FFF2                move.l     D0, [A6 - 0xE]
00000A14  8280                     or.l       D1, D0
00000A16  203C FFFF BFFF           move.l     D0, 0xFFFFBFFF
00000A1C  C081                     and.l      D0, D1
00000A1E  2205                     move.l     D1, D5
00000A20  C3FC 00C0                muls.w     D1, 0xC0
00000A24  204D                     movea.l    A0, A5
00000A26  D1FC FFFE 42D4           add.l      A0, 0xFFFE42D4
00000A2C  2406                     move.l     D2, D6
00000A2E  D442                     add.w      D2, D2
00000A30  D441                     add.w      D2, D1
00000A32  3180 2000                move.w     [A0 + D2.w], D0
label00000A36:
00000A36  2005                     move.l     D0, D5
00000A38  C1FC 00C0                muls.w     D0, 0xC0
00000A3C  204D                     movea.l    A0, A5
00000A3E  D1FC FFFE 42D4           add.l      A0, 0xFFFE42D4
00000A44  2206                     move.l     D1, D6
00000A46  D241                     add.w      D1, D1
00000A48  D240                     add.w      D1, D0
00000A4A  0070 2000 1000           ori.w      [A0 + D1.w], 0x2000 /* ' \0' */
00000A50  102E FFFF                move.b     D0, [A6 - 0x1]
00000A54  4880                     ext.w      D0
00000A56  122E FFFE                move.b     D1, [A6 - 0x2]
00000A5A  4881                     ext.w      D1
00000A5C  C3FC 00C0                muls.w     D1, 0xC0
00000A60  204D                     movea.l    A0, A5
00000A62  D1FC FFFE 42D4           add.l      A0, 0xFFFE42D4
00000A68  D040                     add.w      D0, D0
00000A6A  D041                     add.w      D0, D1
00000A6C  0270 BFFF 0000           andi.w     [A0 + D0.w], 0xBFFF
label00000A72:
00000A72  4CEE 10E8 FFDA           movem.l    D3,D5,D6,D7,A4, [A6 - 0x26]
00000A78  4E5E                     unlink     A6
00000A7A  4E75                     rts
00000A7C  9573 6D6F 6F74 6877 6... dc.b       "smoothwatertile__FsT1"
export_271:
00000A94  4E56 FFEC                link       A6, -0x0014
00000A98  48E7 1F08                movem.l    -[A7], D3,D4,D5,D6,D7,A4
00000A9C  204D                     movea.l    A0, A5
00000A9E  D1FC FFFE D522           add.l      A0, 0xFFFED522
00000AA4  49D0                     lea.l      A4, [A0]
00000AA6  4206                     clr.b      D6
00000AA8  422E FFFD                clr.b      [A6 - 0x3]
label00000AAC:
00000AAC  4205                     clr.b      D5
label00000AAE:
00000AAE  4885                     ext.w      D5
00000AB0  102E FFFD                move.b     D0, [A6 - 0x3]
00000AB4  4880                     ext.w      D0
00000AB6  C1FC 00C0                muls.w     D0, 0xC0
00000ABA  204D                     movea.l    A0, A5
00000ABC  D1FC FFFE 42D4           add.l      A0, 0xFFFE42D4
00000AC2  2205                     move.l     D1, D5
00000AC4  D241                     add.w      D1, D1
00000AC6  D240                     add.w      D1, D0
00000AC8  7000                     moveq.l    D0, 0x00
00000ACA  3030 1000                move.w     D0, [A0 + D1.w]
00000ACE  323C 2000                move.w     D1, 0x2000 /* ' \0' */
00000AD2  C240                     and.w      D1, D0
00000AD4  6700 065E                beq        +0x660 /* 00001134 */
00000AD8  49C5                     lea.l      A4, D5
00000ADA  2F05                     move.l     -[A7], D5
00000ADC  102E FFFD                move.b     D0, [A6 - 0x3]
00000AE0  49C0                     lea.l      A4, D0
00000AE2  2F00                     move.l     -[A7], D0
00000AE4  4EBA F5C0                jsr        [PC - 0xA40 /* 000000A6 */]
00000AE8  1C00                     move.b     D6, D0
00000AEA  4886                     ext.w      D6
00000AEC  70FF                     moveq.l    D0, 0xFFFFFFFF
00000AEE  B074 6200                cmp.w      D0, [A4 + D6.w * 2]
00000AF2  504F                     addq.w     A7, 8
00000AF4  6600 044E                bne        +0x450 /* 00000F44 */
00000AF8  102E FFFD                move.b     D0, [A6 - 0x3]
00000AFC  5300                     subq.b     D0, 1
00000AFE  1800                     move.b     D4, D0
00000B00  6000 042E                bra        +0x430 /* 00000F30 */
label00000B04:
00000B04  1005                     move.b     D0, D5
00000B06  5300                     subq.b     D0, 1
00000B08  1E00                     move.b     D7, D0
00000B0A  6000 0412                bra        +0x414 /* 00000F1E */
label00000B0E:
00000B0E  1D44 FFFE                move.b     [A6 - 0x2], D4
00000B12  1D47 FFFF                move.b     [A6 - 0x1], D7
00000B16  486E FFFF                pea.l      [A6 - 0x1]
00000B1A  486E FFFE                pea.l      [A6 - 0x2]
00000B1E  4EAD 084A                jsr        [A5 + 0x84A /* export_261, CODE:14 @ 000057DA */]
00000B22  102E FFFF                move.b     D0, [A6 - 0x1]
00000B26  49C0                     lea.l      A4, D0
00000B28  2F00                     move.l     -[A7], D0
00000B2A  102E FFFE                move.b     D0, [A6 - 0x2]
00000B2E  49C0                     lea.l      A4, D0
00000B30  2F00                     move.l     -[A7], D0
00000B32  4EBA F572                jsr        [PC - 0xA8E /* 000000A6 */]
00000B36  1C00                     move.b     D6, D0
00000B38  4886                     ext.w      D6
00000B3A  70FF                     moveq.l    D0, 0xFFFFFFFF
00000B3C  B074 6200                cmp.w      D0, [A4 + D6.w * 2]
00000B40  4FEF 0010                lea.l      A7, [A7 + 0x10]
00000B44  6600 01D2                bne        +0x1D4 /* 00000D18 */
00000B48  102E FFFF                move.b     D0, [A6 - 0x1]
00000B4C  4880                     ext.w      D0
00000B4E  122E FFFE                move.b     D1, [A6 - 0x2]
00000B52  4881                     ext.w      D1
00000B54  C3FC 00C0                muls.w     D1, 0xC0
00000B58  204D                     movea.l    A0, A5
00000B5A  D1FC FFFE 42D4           add.l      A0, 0xFFFE42D4
00000B60  D040                     add.w      D0, D0
00000B62  D041                     add.w      D0, D1
00000B64  7200                     moveq.l    D1, 0x00
00000B66  3230 0000                move.w     D1, [A0 + D0.w]
00000B6A  303C 07FF                move.w     D0, 0x7FF
00000B6E  C041                     and.w      D0, D1
00000B70  7200                     moveq.l    D1, 0x00
00000B72  3200                     move.w     D1, D0
00000B74  4A81                     tst.l      D1
00000B76  204D                     movea.l    A0, A5
00000B78  D1FC FFFF 79BC           add.l      A0, 0xFFFF79BC
00000B7E  3010                     move.w     D0, [A0]
00000B80  48C0                     ext.l      D0
00000B82  B081                     cmp.l      D0, D1
00000B84  6E4E                     bgt        +0x50 /* 00000BD4 */
00000B86  102E FFFF                move.b     D0, [A6 - 0x1]
00000B8A  4880                     ext.w      D0
00000B8C  122E FFFE                move.b     D1, [A6 - 0x2]
00000B90  4881                     ext.w      D1
00000B92  C3FC 00C0                muls.w     D1, 0xC0
00000B96  204D                     movea.l    A0, A5
00000B98  D1FC FFFE 42D4           add.l      A0, 0xFFFE42D4
00000B9E  D040                     add.w      D0, D0
00000BA0  D041                     add.w      D0, D1
00000BA2  7200                     moveq.l    D1, 0x00
00000BA4  3230 0000                move.w     D1, [A0 + D0.w]
00000BA8  303C 07FF                move.w     D0, 0x7FF
00000BAC  C041                     and.w      D0, D1
00000BAE  7200                     moveq.l    D1, 0x00
00000BB0  3200                     move.w     D1, D0
00000BB2  4A81                     tst.l      D1
00000BB4  204D                     movea.l    A0, A5
00000BB6  D1FC FFFF 79BC           add.l      A0, 0xFFFF79BC
00000BBC  3010                     move.w     D0, [A0]
00000BBE  48C0                     ext.l      D0
00000BC0  7400                     moveq.l    D2, 0x00
00000BC2  204D                     movea.l    A0, A5
00000BC4  D1FC FFFF 78DF           add.l      A0, 0xFFFF78DF
00000BCA  1410                     move.b     D2, [A0]
00000BCC  D480                     add.l      D2, D0
00000BCE  B481                     cmp.l      D2, D1
00000BD0  6E00 0120                bgt        +0x122 /* 00000CF2 */
label00000BD4:
00000BD4  102E FFFF                move.b     D0, [A6 - 0x1]
00000BD8  4880                     ext.w      D0
00000BDA  122E FFFE                move.b     D1, [A6 - 0x2]
00000BDE  4881                     ext.w      D1
00000BE0  C3FC 00C0                muls.w     D1, 0xC0
00000BE4  204D                     movea.l    A0, A5
00000BE6  D1FC FFFD FAD4           add.l      A0, 0xFFFDFAD4
00000BEC  D040                     add.w      D0, D0
00000BEE  D041                     add.w      D0, D1
00000BF0  7200                     moveq.l    D1, 0x00
00000BF2  3230 0000                move.w     D1, [A0 + D0.w]
00000BF6  303C 4000                move.w     D0, 0x4000 /* '@\0' */
00000BFA  C041                     and.w      D0, D1
00000BFC  6600 00F4                bne        +0xF6 /* 00000CF2 */
00000C00  102E FFFF                move.b     D0, [A6 - 0x1]
00000C04  4880                     ext.w      D0
00000C06  122E FFFE                move.b     D1, [A6 - 0x2]
00000C0A  4881                     ext.w      D1
00000C0C  C3FC 00C0                muls.w     D1, 0xC0
00000C10  204D                     movea.l    A0, A5
00000C12  D1FC FFFE 42D4           add.l      A0, 0xFFFE42D4
00000C18  D040                     add.w      D0, D0
00000C1A  D041                     add.w      D0, D1
00000C1C  7200                     moveq.l    D1, 0x00
00000C1E  3230 0000                move.w     D1, [A0 + D0.w]
00000C22  303C 07FF                move.w     D0, 0x7FF
00000C26  C041                     and.w      D0, D1
00000C28  7200                     moveq.l    D1, 0x00
00000C2A  3200                     move.w     D1, D0
00000C2C  4A81                     tst.l      D1
00000C2E  204D                     movea.l    A0, A5
00000C30  D1FC FFFF 7A42           add.l      A0, 0xFFFF7A42
00000C36  3010                     move.w     D0, [A0]
00000C38  48C0                     ext.l      D0
00000C3A  B081                     cmp.l      D0, D1
00000C3C  6E4C                     bgt        +0x4E /* 00000C8A */
00000C3E  102E FFFF                move.b     D0, [A6 - 0x1]
00000C42  4880                     ext.w      D0
00000C44  122E FFFE                move.b     D1, [A6 - 0x2]
00000C48  4881                     ext.w      D1
00000C4A  C3FC 00C0                muls.w     D1, 0xC0
00000C4E  204D                     movea.l    A0, A5
00000C50  D1FC FFFE 42D4           add.l      A0, 0xFFFE42D4
00000C56  D040                     add.w      D0, D0
00000C58  D041                     add.w      D0, D1
00000C5A  7200                     moveq.l    D1, 0x00
00000C5C  3230 0000                move.w     D1, [A0 + D0.w]
00000C60  303C 07FF                move.w     D0, 0x7FF
00000C64  C041                     and.w      D0, D1
00000C66  7200                     moveq.l    D1, 0x00
00000C68  3200                     move.w     D1, D0
00000C6A  4A81                     tst.l      D1
00000C6C  204D                     movea.l    A0, A5
00000C6E  D1FC FFFF 7A42           add.l      A0, 0xFFFF7A42
00000C74  3010                     move.w     D0, [A0]
00000C76  48C0                     ext.l      D0
00000C78  7400                     moveq.l    D2, 0x00
00000C7A  204D                     movea.l    A0, A5
00000C7C  D1FC FFFF 7922           add.l      A0, 0xFFFF7922
00000C82  1410                     move.b     D2, [A0]
00000C84  D480                     add.l      D2, D0
00000C86  B481                     cmp.l      D2, D1
00000C88  6E68                     bgt        +0x6A /* 00000CF2 */
label00000C8A:
00000C8A  102E FFFF                move.b     D0, [A6 - 0x1]
00000C8E  4880                     ext.w      D0
00000C90  122E FFFE                move.b     D1, [A6 - 0x2]
00000C94  4881                     ext.w      D1
00000C96  C3FC 00C0                muls.w     D1, 0xC0
00000C9A  204D                     movea.l    A0, A5
00000C9C  D1FC FFFE 42D4           add.l      A0, 0xFFFE42D4
00000CA2  D040                     add.w      D0, D0
00000CA4  D041                     add.w      D0, D1
00000CA6  7200                     moveq.l    D1, 0x00
00000CA8  3230 0000                move.w     D1, [A0 + D0.w]
00000CAC  303C F800                move.w     D0, 0xF800
00000CB0  C041                     and.w      D0, D1
00000CB2  7200                     moveq.l    D1, 0x00
00000CB4  3200                     move.w     D1, D0
00000CB6  4A81                     tst.l      D1
00000CB8  204D                     movea.l    A0, A5
00000CBA  D1FC FFFF 7942           add.l      A0, 0xFFFF7942
00000CC0  3010                     move.w     D0, [A0]
00000CC2  48C0                     ext.l      D0
00000CC4  740A                     moveq.l    D2, 0x0A
00000CC6  D082                     add.l      D0, D2
00000CC8  8081                     or.l       D0, D1
00000CCA  223C FFFF BFFF           move.l     D1, 0xFFFFBFFF
00000CD0  C280                     and.l      D1, D0
00000CD2  102E FFFF                move.b     D0, [A6 - 0x1]
00000CD6  4880                     ext.w      D0
00000CD8  162E FFFE                move.b     D3, [A6 - 0x2]
00000CDC  4883                     ext.w      D3
00000CDE  C7FC 00C0                muls.w     D3, 0xC0
00000CE2  204D                     movea.l    A0, A5
00000CE4  D1FC FFFE 42D4           add.l      A0, 0xFFFE42D4
00000CEA  D040                     add.w      D0, D0
00000CEC  D043                     add.w      D0, D3
00000CEE  3181 0000                move.w     [A0 + D0.w], D1
label00000CF2:
00000CF2  102E FFFF                move.b     D0, [A6 - 0x1]
00000CF6  4880                     ext.w      D0
00000CF8  122E FFFE                move.b     D1, [A6 - 0x2]
00000CFC  4881                     ext.w      D1
00000CFE  C3FC 00C0                muls.w     D1, 0xC0
00000D02  204D                     movea.l    A0, A5
00000D04  D1FC FFFE 42D4           add.l      A0, 0xFFFE42D4
00000D0A  D040                     add.w      D0, D0
00000D0C  D041                     add.w      D0, D1
00000D0E  0270 BFFF 0000           andi.w     [A0 + D0.w], 0xBFFF
00000D14  6000 0204                bra        +0x206 /* 00000F1A */
label00000D18:
00000D18  102E FFFF                move.b     D0, [A6 - 0x1]
00000D1C  4880                     ext.w      D0
00000D1E  122E FFFE                move.b     D1, [A6 - 0x2]
00000D22  4881                     ext.w      D1
00000D24  C3FC 00C0                muls.w     D1, 0xC0
00000D28  204D                     movea.l    A0, A5
00000D2A  D1FC FFFE 42D4           add.l      A0, 0xFFFE42D4
00000D30  D040                     add.w      D0, D0
00000D32  D041                     add.w      D0, D1
00000D34  7200                     moveq.l    D1, 0x00
00000D36  3230 0000                move.w     D1, [A0 + D0.w]
00000D3A  303C 07FF                move.w     D0, 0x7FF
00000D3E  C041                     and.w      D0, D1
00000D40  7200                     moveq.l    D1, 0x00
00000D42  3200                     move.w     D1, D0
00000D44  4A81                     tst.l      D1
00000D46  204D                     movea.l    A0, A5
00000D48  D1FC FFFF 79BC           add.l      A0, 0xFFFF79BC
00000D4E  3010                     move.w     D0, [A0]
00000D50  48C0                     ext.l      D0
00000D52  B081                     cmp.l      D0, D1
00000D54  6E4E                     bgt        +0x50 /* 00000DA4 */
00000D56  102E FFFF                move.b     D0, [A6 - 0x1]
00000D5A  4880                     ext.w      D0
00000D5C  122E FFFE                move.b     D1, [A6 - 0x2]
00000D60  4881                     ext.w      D1
00000D62  C3FC 00C0                muls.w     D1, 0xC0
00000D66  204D                     movea.l    A0, A5
00000D68  D1FC FFFE 42D4           add.l      A0, 0xFFFE42D4
00000D6E  D040                     add.w      D0, D0
00000D70  D041                     add.w      D0, D1
00000D72  7200                     moveq.l    D1, 0x00
00000D74  3230 0000                move.w     D1, [A0 + D0.w]
00000D78  303C 07FF                move.w     D0, 0x7FF
00000D7C  C041                     and.w      D0, D1
00000D7E  7200                     moveq.l    D1, 0x00
00000D80  3200                     move.w     D1, D0
00000D82  4A81                     tst.l      D1
00000D84  204D                     movea.l    A0, A5
00000D86  D1FC FFFF 79BC           add.l      A0, 0xFFFF79BC
00000D8C  3010                     move.w     D0, [A0]
00000D8E  48C0                     ext.l      D0
00000D90  7400                     moveq.l    D2, 0x00
00000D92  204D                     movea.l    A0, A5
00000D94  D1FC FFFF 78DF           add.l      A0, 0xFFFF78DF
00000D9A  1410                     move.b     D2, [A0]
00000D9C  D480                     add.l      D2, D0
00000D9E  B481                     cmp.l      D2, D1
00000DA0  6E00 0134                bgt        +0x136 /* 00000ED6 */
label00000DA4:
00000DA4  102E FFFF                move.b     D0, [A6 - 0x1]
00000DA8  4880                     ext.w      D0
00000DAA  122E FFFE                move.b     D1, [A6 - 0x2]
00000DAE  4881                     ext.w      D1
00000DB0  C3FC 00C0                muls.w     D1, 0xC0
00000DB4  204D                     movea.l    A0, A5
00000DB6  D1FC FFFD FAD4           add.l      A0, 0xFFFDFAD4
00000DBC  D040                     add.w      D0, D0
00000DBE  D041                     add.w      D0, D1
00000DC0  7200                     moveq.l    D1, 0x00
00000DC2  3230 0000                move.w     D1, [A0 + D0.w]
00000DC6  303C 4000                move.w     D0, 0x4000 /* '@\0' */
00000DCA  C041                     and.w      D0, D1
00000DCC  6600 0108                bne        +0x10A /* 00000ED6 */
00000DD0  102E FFFF                move.b     D0, [A6 - 0x1]
00000DD4  4880                     ext.w      D0
00000DD6  122E FFFE                move.b     D1, [A6 - 0x2]
00000DDA  4881                     ext.w      D1
00000DDC  C3FC 00C0                muls.w     D1, 0xC0
00000DE0  204D                     movea.l    A0, A5
00000DE2  D1FC FFFE 42D4           add.l      A0, 0xFFFE42D4
00000DE8  D040                     add.w      D0, D0
00000DEA  D041                     add.w      D0, D1
00000DEC  7200                     moveq.l    D1, 0x00
00000DEE  3230 0000                move.w     D1, [A0 + D0.w]
00000DF2  303C 07FF                move.w     D0, 0x7FF
00000DF6  C041                     and.w      D0, D1
00000DF8  7200                     moveq.l    D1, 0x00
00000DFA  3200                     move.w     D1, D0
00000DFC  4A81                     tst.l      D1
00000DFE  204D                     movea.l    A0, A5
00000E00  D1FC FFFF 7A42           add.l      A0, 0xFFFF7A42
00000E06  3010                     move.w     D0, [A0]
00000E08  48C0                     ext.l      D0
00000E0A  B081                     cmp.l      D0, D1
00000E0C  6E4C                     bgt        +0x4E /* 00000E5A */
00000E0E  102E FFFF                move.b     D0, [A6 - 0x1]
00000E12  4880                     ext.w      D0
00000E14  122E FFFE                move.b     D1, [A6 - 0x2]
00000E18  4881                     ext.w      D1
00000E1A  C3FC 00C0                muls.w     D1, 0xC0
00000E1E  204D                     movea.l    A0, A5
00000E20  D1FC FFFE 42D4           add.l      A0, 0xFFFE42D4
00000E26  D040                     add.w      D0, D0
00000E28  D041                     add.w      D0, D1
00000E2A  7200                     moveq.l    D1, 0x00
00000E2C  3230 0000                move.w     D1, [A0 + D0.w]
00000E30  303C 07FF                move.w     D0, 0x7FF
00000E34  C041                     and.w      D0, D1
00000E36  7200                     moveq.l    D1, 0x00
00000E38  3200                     move.w     D1, D0
00000E3A  4A81                     tst.l      D1
00000E3C  204D                     movea.l    A0, A5
00000E3E  D1FC FFFF 7A42           add.l      A0, 0xFFFF7A42
00000E44  3010                     move.w     D0, [A0]
00000E46  48C0                     ext.l      D0
00000E48  7400                     moveq.l    D2, 0x00
00000E4A  204D                     movea.l    A0, A5
00000E4C  D1FC FFFF 7922           add.l      A0, 0xFFFF7922
00000E52  1410                     move.b     D2, [A0]
00000E54  D480                     add.l      D2, D0
00000E56  B481                     cmp.l      D2, D1
00000E58  6E7C                     bgt        +0x7E /* 00000ED6 */
label00000E5A:
00000E5A  102E FFFF                move.b     D0, [A6 - 0x1]
00000E5E  4880                     ext.w      D0
00000E60  122E FFFE                move.b     D1, [A6 - 0x2]
00000E64  4881                     ext.w      D1
00000E66  C3FC 00C0                muls.w     D1, 0xC0
00000E6A  204D                     movea.l    A0, A5
00000E6C  D1FC FFFE 42D4           add.l      A0, 0xFFFE42D4
00000E72  D040                     add.w      D0, D0
00000E74  D041                     add.w      D0, D1
00000E76  7200                     moveq.l    D1, 0x00
00000E78  3230 0000                move.w     D1, [A0 + D0.w]
00000E7C  303C F800                move.w     D0, 0xF800
00000E80  C041                     and.w      D0, D1
00000E82  7200                     moveq.l    D1, 0x00
00000E84  3200                     move.w     D1, D0
00000E86  4886                     ext.w      D6
00000E88  3034 6200                move.w     D0, [A4 + D6.w * 2]
00000E8C  48C0                     ext.l      D0
00000E8E  2D40 FFF8                move.l     [A6 - 0x8], D0
00000E92  2D41 FFF4                move.l     [A6 - 0xC], D1
00000E96  558F                     subq.l     A7, 2
00000E98  A861                     syscall    Random
00000E9A  7001                     moveq.l    D0, 0x01
00000E9C  C05F                     and.w      D0, [A7]+
00000E9E  7200                     moveq.l    D1, 0x00
00000EA0  3200                     move.w     D1, D0
00000EA2  202E FFF8                move.l     D0, [A6 - 0x8]
00000EA6  D280                     add.l      D1, D0
00000EA8  202E FFF4                move.l     D0, [A6 - 0xC]
00000EAC  8280                     or.l       D1, D0
00000EAE  203C FFFF BFFF           move.l     D0, 0xFFFFBFFF
00000EB4  C081                     and.l      D0, D1
00000EB6  122E FFFF                move.b     D1, [A6 - 0x1]
00000EBA  4881                     ext.w      D1
00000EBC  142E FFFE                move.b     D2, [A6 - 0x2]
00000EC0  4882                     ext.w      D2
00000EC2  C5FC 00C0                muls.w     D2, 0xC0
00000EC6  204D                     movea.l    A0, A5
00000EC8  D1FC FFFE 42D4           add.l      A0, 0xFFFE42D4
00000ECE  D241                     add.w      D1, D1
00000ED0  D242                     add.w      D1, D2
00000ED2  3180 1000                move.w     [A0 + D1.w], D0
label00000ED6:
00000ED6  102E FFFF                move.b     D0, [A6 - 0x1]
00000EDA  4880                     ext.w      D0
00000EDC  122E FFFE                move.b     D1, [A6 - 0x2]
00000EE0  4881                     ext.w      D1
00000EE2  C3FC 00C0                muls.w     D1, 0xC0
00000EE6  204D                     movea.l    A0, A5
00000EE8  D1FC FFFE 42D4           add.l      A0, 0xFFFE42D4
00000EEE  D040                     add.w      D0, D0
00000EF0  D041                     add.w      D0, D1
00000EF2  0070 2000 0000           ori.w      [A0 + D0.w], 0x2000 /* ' \0' */
00000EF8  102E FFFF                move.b     D0, [A6 - 0x1]
00000EFC  4880                     ext.w      D0
00000EFE  122E FFFE                move.b     D1, [A6 - 0x2]
00000F02  4881                     ext.w      D1
00000F04  C3FC 00C0                muls.w     D1, 0xC0
00000F08  204D                     movea.l    A0, A5
00000F0A  D1FC FFFE 42D4           add.l      A0, 0xFFFE42D4
00000F10  D040                     add.w      D0, D0
00000F12  D041                     add.w      D0, D1
00000F14  0270 BFFF 0000           andi.w     [A0 + D0.w], 0xBFFF
label00000F1A:
00000F1A  1007                     move.b     D0, D7
00000F1C  5207                     addq.b     D7, 1
label00000F1E:
00000F1E  4887                     ext.w      D7
00000F20  4885                     ext.w      D5
00000F22  3005                     move.w     D0, D5
00000F24  5240                     addq.w     D0, 1
00000F26  B047                     cmp.w      D0, D7
00000F28  6C00 FBE4                bge        -0x41A /* 00000B0E */
00000F2C  1004                     move.b     D0, D4
00000F2E  5204                     addq.b     D4, 1
label00000F30:
00000F30  4884                     ext.w      D4
00000F32  102E FFFD                move.b     D0, [A6 - 0x3]
00000F36  4880                     ext.w      D0
00000F38  5240                     addq.w     D0, 1
00000F3A  B044                     cmp.w      D0, D4
00000F3C  6C00 FBC6                bge        -0x438 /* 00000B04 */
00000F40  6000 01F2                bra        +0x1F4 /* 00001134 */
label00000F44:
00000F44  4885                     ext.w      D5
00000F46  102E FFFD                move.b     D0, [A6 - 0x3]
00000F4A  4880                     ext.w      D0
00000F4C  C1FC 00C0                muls.w     D0, 0xC0
00000F50  204D                     movea.l    A0, A5
00000F52  D1FC FFFE 42D4           add.l      A0, 0xFFFE42D4
00000F58  2205                     move.l     D1, D5
00000F5A  D241                     add.w      D1, D1
00000F5C  D240                     add.w      D1, D0
00000F5E  7000                     moveq.l    D0, 0x00
00000F60  3030 1000                move.w     D0, [A0 + D1.w]
00000F64  323C 07FF                move.w     D1, 0x7FF
00000F68  C240                     and.w      D1, D0
00000F6A  7000                     moveq.l    D0, 0x00
00000F6C  3001                     move.w     D0, D1
00000F6E  4A80                     tst.l      D0
00000F70  204D                     movea.l    A0, A5
00000F72  D1FC FFFF 79BC           add.l      A0, 0xFFFF79BC
00000F78  3210                     move.w     D1, [A0]
00000F7A  48C1                     ext.l      D1
00000F7C  B280                     cmp.l      D1, D0
00000F7E  6E4C                     bgt        +0x4E /* 00000FCC */
00000F80  4885                     ext.w      D5
00000F82  102E FFFD                move.b     D0, [A6 - 0x3]
00000F86  4880                     ext.w      D0
00000F88  C1FC 00C0                muls.w     D0, 0xC0
00000F8C  204D                     movea.l    A0, A5
00000F8E  D1FC FFFE 42D4           add.l      A0, 0xFFFE42D4
00000F94  2205                     move.l     D1, D5
00000F96  D241                     add.w      D1, D1
00000F98  D240                     add.w      D1, D0
00000F9A  7000                     moveq.l    D0, 0x00
00000F9C  3030 1000                move.w     D0, [A0 + D1.w]
00000FA0  323C 07FF                move.w     D1, 0x7FF
00000FA4  C240                     and.w      D1, D0
00000FA6  7000                     moveq.l    D0, 0x00
00000FA8  3001                     move.w     D0, D1
00000FAA  4A80                     tst.l      D0
00000FAC  204D                     movea.l    A0, A5
00000FAE  D1FC FFFF 79BC           add.l      A0, 0xFFFF79BC
00000FB4  3210                     move.w     D1, [A0]
00000FB6  48C1                     ext.l      D1
00000FB8  7400                     moveq.l    D2, 0x00
00000FBA  204D                     movea.l    A0, A5
00000FBC  D1FC FFFF 78DF           add.l      A0, 0xFFFF78DF
00000FC2  1410                     move.b     D2, [A0]
00000FC4  D481                     add.l      D2, D1
00000FC6  B480                     cmp.l      D2, D0
00000FC8  6E00 012A                bgt        +0x12C /* 000010F4 */
label00000FCC:
00000FCC  4885                     ext.w      D5
00000FCE  102E FFFD                move.b     D0, [A6 - 0x3]
00000FD2  4880                     ext.w      D0
00000FD4  C1FC 00C0                muls.w     D0, 0xC0
00000FD8  204D                     movea.l    A0, A5
00000FDA  D1FC FFFD FAD4           add.l      A0, 0xFFFDFAD4
00000FE0  2205                     move.l     D1, D5
00000FE2  D241                     add.w      D1, D1
00000FE4  D240                     add.w      D1, D0
00000FE6  7000                     moveq.l    D0, 0x00
00000FE8  3030 1000                move.w     D0, [A0 + D1.w]
00000FEC  323C 4000                move.w     D1, 0x4000 /* '@\0' */
00000FF0  C240                     and.w      D1, D0
00000FF2  6600 0100                bne        +0x102 /* 000010F4 */
00000FF6  4885                     ext.w      D5
00000FF8  102E FFFD                move.b     D0, [A6 - 0x3]
00000FFC  4880                     ext.w      D0
00000FFE  C1FC 00C0                muls.w     D0, 0xC0
00001002  204D                     movea.l    A0, A5
00001004  D1FC FFFE 42D4           add.l      A0, 0xFFFE42D4
0000100A  2205                     move.l     D1, D5
0000100C  D241                     add.w      D1, D1
0000100E  D240                     add.w      D1, D0
00001010  7000                     moveq.l    D0, 0x00
00001012  3030 1000                move.w     D0, [A0 + D1.w]
00001016  323C 07FF                move.w     D1, 0x7FF
0000101A  C240                     and.w      D1, D0
0000101C  7000                     moveq.l    D0, 0x00
0000101E  3001                     move.w     D0, D1
00001020  4A80                     tst.l      D0
00001022  204D                     movea.l    A0, A5
00001024  D1FC FFFF 7A42           add.l      A0, 0xFFFF7A42
0000102A  3210                     move.w     D1, [A0]
0000102C  48C1                     ext.l      D1
0000102E  B280                     cmp.l      D1, D0
00001030  6E4A                     bgt        +0x4C /* 0000107C */
00001032  4885                     ext.w      D5
00001034  102E FFFD                move.b     D0, [A6 - 0x3]
00001038  4880                     ext.w      D0
0000103A  C1FC 00C0                muls.w     D0, 0xC0
0000103E  204D                     movea.l    A0, A5
00001040  D1FC FFFE 42D4           add.l      A0, 0xFFFE42D4
00001046  2205                     move.l     D1, D5
00001048  D241                     add.w      D1, D1
0000104A  D240                     add.w      D1, D0
0000104C  7000                     moveq.l    D0, 0x00
0000104E  3030 1000                move.w     D0, [A0 + D1.w]
00001052  323C 07FF                move.w     D1, 0x7FF
00001056  C240                     and.w      D1, D0
00001058  7000                     moveq.l    D0, 0x00
0000105A  3001                     move.w     D0, D1
0000105C  4A80                     tst.l      D0
0000105E  204D                     movea.l    A0, A5
00001060  D1FC FFFF 7A42           add.l      A0, 0xFFFF7A42
00001066  3210                     move.w     D1, [A0]
00001068  48C1                     ext.l      D1
0000106A  7400                     moveq.l    D2, 0x00
0000106C  204D                     movea.l    A0, A5
0000106E  D1FC FFFF 7922           add.l      A0, 0xFFFF7922
00001074  1410                     move.b     D2, [A0]
00001076  D481                     add.l      D2, D1
00001078  B480                     cmp.l      D2, D0
0000107A  6E78                     bgt        +0x7A /* 000010F4 */
label0000107C:
0000107C  4885                     ext.w      D5
0000107E  102E FFFD                move.b     D0, [A6 - 0x3]
00001082  4880                     ext.w      D0
00001084  C1FC 00C0                muls.w     D0, 0xC0
00001088  204D                     movea.l    A0, A5
0000108A  D1FC FFFE 42D4           add.l      A0, 0xFFFE42D4
00001090  2205                     move.l     D1, D5
00001092  D241                     add.w      D1, D1
00001094  D240                     add.w      D1, D0
00001096  7000                     moveq.l    D0, 0x00
00001098  3030 1000                move.w     D0, [A0 + D1.w]
0000109C  323C F800                move.w     D1, 0xF800
000010A0  C240                     and.w      D1, D0
000010A2  7000                     moveq.l    D0, 0x00
000010A4  3001                     move.w     D0, D1
000010A6  4886                     ext.w      D6
000010A8  3234 6200                move.w     D1, [A4 + D6.w * 2]
000010AC  48C1                     ext.l      D1
000010AE  2D40 FFF0                move.l     [A6 - 0x10], D0
000010B2  2D41 FFEC                move.l     [A6 - 0x14], D1
000010B6  558F                     subq.l     A7, 2
000010B8  A861                     syscall    Random
000010BA  7001                     moveq.l    D0, 0x01
000010BC  C05F                     and.w      D0, [A7]+
000010BE  7200                     moveq.l    D1, 0x00
000010C0  3200                     move.w     D1, D0
000010C2  202E FFEC                move.l     D0, [A6 - 0x14]
000010C6  D280                     add.l      D1, D0
000010C8  202E FFF0                move.l     D0, [A6 - 0x10]
000010CC  8280                     or.l       D1, D0
000010CE  203C FFFF BFFF           move.l     D0, 0xFFFFBFFF
000010D4  C081                     and.l      D0, D1
000010D6  4885                     ext.w      D5
000010D8  122E FFFD                move.b     D1, [A6 - 0x3]
000010DC  4881                     ext.w      D1
000010DE  C3FC 00C0                muls.w     D1, 0xC0
000010E2  204D                     movea.l    A0, A5
000010E4  D1FC FFFE 42D4           add.l      A0, 0xFFFE42D4
000010EA  2405                     move.l     D2, D5
000010EC  D442                     add.w      D2, D2
000010EE  D441                     add.w      D2, D1
000010F0  3180 2000                move.w     [A0 + D2.w], D0
label000010F4:
000010F4  4885                     ext.w      D5
000010F6  102E FFFD                move.b     D0, [A6 - 0x3]
000010FA  4880                     ext.w      D0
000010FC  C1FC 00C0                muls.w     D0, 0xC0
00001100  204D                     movea.l    A0, A5
00001102  D1FC FFFE 42D4           add.l      A0, 0xFFFE42D4
00001108  2205                     move.l     D1, D5
0000110A  D241                     add.w      D1, D1
0000110C  D240                     add.w      D1, D0
0000110E  0070 2000 1000           ori.w      [A0 + D1.w], 0x2000 /* ' \0' */
00001114  4885                     ext.w      D5
00001116  102E FFFD                move.b     D0, [A6 - 0x3]
0000111A  4880                     ext.w      D0
0000111C  C1FC 00C0                muls.w     D0, 0xC0
00001120  204D                     movea.l    A0, A5
00001122  D1FC FFFE 42D4           add.l      A0, 0xFFFE42D4
00001128  2205                     move.l     D1, D5
0000112A  D241                     add.w      D1, D1
0000112C  D240                     add.w      D1, D0
0000112E  0270 BFFF 1000           andi.w     [A0 + D1.w], 0xBFFF
label00001134:
00001134  1005                     move.b     D0, D5
00001136  5205                     addq.b     D5, 1
00001138  0C05 0060                cmpi.b     D5, 0x60 /* '`' */
0000113C  6D00 F970                blt        -0x68E /* 00000AAE */
00001140  102E FFFD                move.b     D0, [A6 - 0x3]
00001144  522E FFFD                addq.b     [A6 - 0x3], 1
00001148  7060                     moveq.l    D0, 0x60
0000114A  B02E FFFD                cmp.b      D0, [A6 - 0x3]
0000114E  6E00 F95C                bgt        -0x6A2 /* 00000AAC */
00001152  4CEE 10F8 FFD4           movem.l    D3,D4,D5,D6,D7,A4, [A6 - 0x2C]
00001158  4E5E                     unlink     A6
0000115A  4E75                     rts
0000115C  9473 6D6F 6F74 6877 6... dc.b       "smoothwateredges__Fv"
export_272:
00001174  4E56 0000                link       A6, 0
00001178  4EBA 0018                jsr        [PC + 0x18 /* 00001192 */]
0000117C  7000                     moveq.l    D0, 0x00
0000117E  4E5E                     unlink     A6
00001180  4E75                     rts
00001182  8C73 696D 7761 7465 7... dc.b       "simwater__Fv"
fn00001192:
00001192  4E56 0000                link       A6, 0
00001196  48E7 1308                movem.l    -[A7], D3,D6,D7,A4
0000119A  204D                     movea.l    A0, A5
0000119C  D1FC FFFE D2DE           add.l      A0, 0xFFFED2DE
000011A2  49D0                     lea.l      A4, [A0]
000011A4  4206                     clr.b      D6
000011A6  204D                     movea.l    A0, A5
000011A8  D1FC FFFD CEBE           add.l      A0, 0xFFFDCEBE
000011AE  2010                     move.l     D0, [A0]
000011B0  204D                     movea.l    A0, A5
000011B2  D1FC FFFD CE5E           add.l      A0, 0xFFFDCE5E
000011B8  9090                     sub.l      D0, [A0]
000011BA  204D                     movea.l    A0, A5
000011BC  D1FC FFFD CE5A           add.l      A0, 0xFFFDCE5A
000011C2  B090                     cmp.l      D0, [A0]
000011C4  6406                     bcc        +0x8 /* 000011CC */
000011C6  7000                     moveq.l    D0, 0x00
000011C8  6000 02DE                bra        +0x2E0 /* 000014A8 */
label000011CC:
000011CC  204D                     movea.l    A0, A5
000011CE  D1FC FFFE D51E           add.l      A0, 0xFFFED51E
000011D4  4A10                     tst.b      [A0]
000011D6  6600 0274                bne        +0x276 /* 0000144C */
000011DA  204D                     movea.l    A0, A5
000011DC  D1FC FFFE D2D0           add.l      A0, 0xFFFED2D0
000011E2  4A10                     tst.b      [A0]
000011E4  6600 0124                bne        +0x126 /* 0000130A */
000011E8  4246                     clr.w      D6
label000011EA:
000011EA  4247                     clr.w      D7
label000011EC:
000011EC  2006                     move.l     D0, D6
000011EE  C1FC 00C0                muls.w     D0, 0xC0
000011F2  204D                     movea.l    A0, A5
000011F4  D1FC FFFE 42D4           add.l      A0, 0xFFFE42D4
000011FA  2207                     move.l     D1, D7
000011FC  D241                     add.w      D1, D1
000011FE  D240                     add.w      D1, D0
00001200  7000                     moveq.l    D0, 0x00
00001202  3030 1000                move.w     D0, [A0 + D1.w]
00001206  323C 07FF                move.w     D1, 0x7FF
0000120A  C240                     and.w      D1, D0
0000120C  7000                     moveq.l    D0, 0x00
0000120E  3001                     move.w     D0, D1
00001210  4A80                     tst.l      D0
00001212  204D                     movea.l    A0, A5
00001214  D1FC FFFF 79EA           add.l      A0, 0xFFFF79EA
0000121A  3210                     move.w     D1, [A0]
0000121C  48C1                     ext.l      D1
0000121E  B280                     cmp.l      D1, D0
00001220  6E00 00D0                bgt        +0xD2 /* 000012F2 */
00001224  2006                     move.l     D0, D6
00001226  C1FC 00C0                muls.w     D0, 0xC0
0000122A  204D                     movea.l    A0, A5
0000122C  D1FC FFFE 42D4           add.l      A0, 0xFFFE42D4
00001232  2207                     move.l     D1, D7
00001234  D241                     add.w      D1, D1
00001236  D240                     add.w      D1, D0
00001238  7000                     moveq.l    D0, 0x00
0000123A  3030 1000                move.w     D0, [A0 + D1.w]
0000123E  323C 07FF                move.w     D1, 0x7FF
00001242  C240                     and.w      D1, D0
00001244  7000                     moveq.l    D0, 0x00
00001246  3001                     move.w     D0, D1
00001248  4A80                     tst.l      D0
0000124A  204D                     movea.l    A0, A5
0000124C  D1FC FFFF 79EA           add.l      A0, 0xFFFF79EA
00001252  3210                     move.w     D1, [A0]
00001254  48C1                     ext.l      D1
00001256  7400                     moveq.l    D2, 0x00
00001258  204D                     movea.l    A0, A5
0000125A  D1FC FFFF 78F6           add.l      A0, 0xFFFF78F6
00001260  1410                     move.b     D2, [A0]
00001262  D481                     add.l      D2, D1
00001264  B480                     cmp.l      D2, D0
00001266  6F00 008A                ble        +0x8C /* 000012F2 */
0000126A  2006                     move.l     D0, D6
0000126C  C1FC 00C0                muls.w     D0, 0xC0
00001270  204D                     movea.l    A0, A5
00001272  D1FC FFFE 42D4           add.l      A0, 0xFFFE42D4
00001278  2207                     move.l     D1, D7
0000127A  D241                     add.w      D1, D1
0000127C  D240                     add.w      D1, D0
0000127E  7000                     moveq.l    D0, 0x00
00001280  3030 1000                move.w     D0, [A0 + D1.w]
00001284  323C F800                move.w     D1, 0xF800
00001288  C240                     and.w      D1, D0
0000128A  7000                     moveq.l    D0, 0x00
0000128C  3001                     move.w     D0, D1
0000128E  2206                     move.l     D1, D6
00001290  C3FC 00C0                muls.w     D1, 0xC0
00001294  204D                     movea.l    A0, A5
00001296  D1FC FFFE 42D4           add.l      A0, 0xFFFE42D4
0000129C  2407                     move.l     D2, D7
0000129E  D442                     add.w      D2, D2
000012A0  D441                     add.w      D2, D1
000012A2  7200                     moveq.l    D1, 0x00
000012A4  3230 2000                move.w     D1, [A0 + D2.w]
000012A8  343C 07FF                move.w     D2, 0x7FF
000012AC  C441                     and.w      D2, D1
000012AE  7200                     moveq.l    D1, 0x00
000012B0  3202                     move.w     D1, D2
000012B2  740B                     moveq.l    D2, 0x0B
000012B4  9282                     sub.l      D1, D2
000012B6  8280                     or.l       D1, D0
000012B8  203C FFFF BFFF           move.l     D0, 0xFFFFBFFF
000012BE  C081                     and.l      D0, D1
000012C0  2206                     move.l     D1, D6
000012C2  C3FC 00C0                muls.w     D1, 0xC0
000012C6  204D                     movea.l    A0, A5
000012C8  D1FC FFFE 42D4           add.l      A0, 0xFFFE42D4
000012CE  2607                     move.l     D3, D7
000012D0  D643                     add.w      D3, D3
000012D2  D641                     add.w      D3, D1
000012D4  3180 3000                move.w     [A0 + D3.w], D0
000012D8  2006                     move.l     D0, D6
000012DA  C1FC 00C0                muls.w     D0, 0xC0
000012DE  204D                     movea.l    A0, A5
000012E0  D1FC FFFE 42D4           add.l      A0, 0xFFFE42D4
000012E6  2207                     move.l     D1, D7
000012E8  D241                     add.w      D1, D1
000012EA  D240                     add.w      D1, D0
000012EC  0270 BFFF 1000           andi.w     [A0 + D1.w], 0xBFFF
label000012F2:
000012F2  3007                     move.w     D0, D7
000012F4  5247                     addq.w     D7, 1
000012F6  0C47 0060                cmpi.w     D7, 0x60 /* '`' */
000012FA  6D00 FEF0                blt        -0x10E /* 000011EC */
000012FE  3006                     move.w     D0, D6
00001300  5246                     addq.w     D6, 1
00001302  0C46 0060                cmpi.w     D6, 0x60 /* '`' */
00001306  6D00 FEE2                blt        -0x11C /* 000011EA */
label0000130A:
0000130A  204D                     movea.l    A0, A5
0000130C  D1FC FFFE D2D0           add.l      A0, 0xFFFED2D0
00001312  1010                     move.b     D0, [A0]
00001314  5210                     addq.b     [A0], 1
00001316  204D                     movea.l    A0, A5
00001318  D1FC FFFE D2D0           add.l      A0, 0xFFFED2D0
0000131E  0210 0001                andi.b     [A0], 0x1
00001322  204D                     movea.l    A0, A5
00001324  D1FC FFFE D2D0           add.l      A0, 0xFFFED2D0
0000132A  4A10                     tst.b      [A0]
0000132C  6604                     bne        +0x6 /* 00001332 */
0000132E  4EAD 049A                jsr        [A5 + 0x49A /* export_143, CODE:6 @ 00005426 */]
label00001332:
00001332  4246                     clr.w      D6
00001334  6000 00E6                bra        +0xE8 /* 0000141C */
label00001338:
00001338  2006                     move.l     D0, D6
0000133A  48C0                     ext.l      D0
0000133C  2200                     move.l     D1, D0
0000133E  D080                     add.l      D0, D0
00001340  D081                     add.l      D0, D1
00001342  1034 0001                move.b     D0, [A4 + D0.w + 0x1]
00001346  49C0                     lea.l      A4, D0
00001348  2F00                     move.l     -[A7], D0
0000134A  2006                     move.l     D0, D6
0000134C  48C0                     ext.l      D0
0000134E  2200                     move.l     D1, D0
00001350  D080                     add.l      D0, D0
00001352  D081                     add.l      D0, D1
00001354  1034 0000                move.b     D0, [A4 + D0.w]
00001358  49C0                     lea.l      A4, D0
0000135A  2F00                     move.l     -[A7], D0
0000135C  4EBA 0170                jsr        [PC + 0x170 /* 000014CE */]
00001360  4A00                     tst.b      D0
00001362  504F                     addq.w     A7, 8
00001364  6740                     beq        +0x42 /* 000013A6 */
00001366  2006                     move.l     D0, D6
00001368  48C0                     ext.l      D0
0000136A  2200                     move.l     D1, D0
0000136C  D080                     add.l      D0, D0
0000136E  D081                     add.l      D0, D1
00001370  7200                     moveq.l    D1, 0x00
00001372  1234 0002                move.b     D1, [A4 + D0.w + 0x2]
00001376  2F01                     move.l     -[A7], D1
00001378  2006                     move.l     D0, D6
0000137A  48C0                     ext.l      D0
0000137C  2200                     move.l     D1, D0
0000137E  D080                     add.l      D0, D0
00001380  D081                     add.l      D0, D1
00001382  7200                     moveq.l    D1, 0x00
00001384  1234 0001                move.b     D1, [A4 + D0.w + 0x1]
00001388  2F01                     move.l     -[A7], D1
0000138A  2006                     move.l     D0, D6
0000138C  48C0                     ext.l      D0
0000138E  2200                     move.l     D1, D0
00001390  D080                     add.l      D0, D0
00001392  D081                     add.l      D0, D1
00001394  7200                     moveq.l    D1, 0x00
00001396  1234 0000                move.b     D1, [A4 + D0.w]
0000139A  2F01                     move.l     -[A7], D1
0000139C  4EBA 0BB0                jsr        [PC + 0xBB0 /* 00001F4E */]
000013A0  4FEF 000C                lea.l      A7, [A7 + 0xC]
000013A4  6072                     bra        +0x74 /* 00001418 */
label000013A6:
000013A6  2006                     move.l     D0, D6
000013A8  48C0                     ext.l      D0
000013AA  2200                     move.l     D1, D0
000013AC  D080                     add.l      D0, D0
000013AE  D081                     add.l      D0, D1
000013B0  7200                     moveq.l    D1, 0x00
000013B2  1234 0002                move.b     D1, [A4 + D0.w + 0x2]
000013B6  0C41 0030                cmpi.w     D1, 0x30 /* '0' */
000013BA  665C                     bne        +0x5E /* 00001418 */
000013BC  7009                     moveq.l    D0, 0x09
000013BE  204D                     movea.l    A0, A5
000013C0  D1FC FFFE D54C           add.l      A0, 0xFFFED54C
000013C6  B010                     cmp.b      D0, [A0]
000013C8  6F0C                     ble        +0xE /* 000013D6 */
000013CA  204D                     movea.l    A0, A5
000013CC  D1FC FFFE D2D0           add.l      A0, 0xFFFED2D0
000013D2  4A10                     tst.b      [A0]
000013D4  6642                     bne        +0x44 /* 00001418 */
label000013D6:
000013D6  2006                     move.l     D0, D6
000013D8  48C0                     ext.l      D0
000013DA  2200                     move.l     D1, D0
000013DC  D080                     add.l      D0, D0
000013DE  D081                     add.l      D0, D1
000013E0  7200                     moveq.l    D1, 0x00
000013E2  1234 0002                move.b     D1, [A4 + D0.w + 0x2]
000013E6  2F01                     move.l     -[A7], D1
000013E8  2006                     move.l     D0, D6
000013EA  48C0                     ext.l      D0
000013EC  2200                     move.l     D1, D0
000013EE  D080                     add.l      D0, D0
000013F0  D081                     add.l      D0, D1
000013F2  1034 0001                move.b     D0, [A4 + D0.w + 0x1]
000013F6  5200                     addq.b     D0, 1
000013F8  7200                     moveq.l    D1, 0x00
000013FA  1200                     move.b     D1, D0
000013FC  2F01                     move.l     -[A7], D1
000013FE  2006                     move.l     D0, D6
00001400  48C0                     ext.l      D0
00001402  2200                     move.l     D1, D0
00001404  D080                     add.l      D0, D0
00001406  D081                     add.l      D0, D1
00001408  7200                     moveq.l    D1, 0x00
0000140A  1234 0000                move.b     D1, [A4 + D0.w]
0000140E  2F01                     move.l     -[A7], D1
00001410  4EBA 0B3C                jsr        [PC + 0xB3C /* 00001F4E */]
00001414  4FEF 000C                lea.l      A7, [A7 + 0xC]
label00001418:
00001418  3006                     move.w     D0, D6
0000141A  5246                     addq.w     D6, 1
label0000141C:
0000141C  7000                     moveq.l    D0, 0x00
0000141E  204D                     movea.l    A0, A5
00001420  D1FC FFFE D2D8           add.l      A0, 0xFFFED2D8
00001426  1010                     move.b     D0, [A0]
00001428  B046                     cmp.w      D0, D6
0000142A  6E00 FF0C                bgt        -0xF2 /* 00001338 */
0000142E  7000                     moveq.l    D0, 0x00
00001430  204D                     movea.l    A0, A5
00001432  D1FC FFFE D2DA           add.l      A0, 0xFFFED2DA
00001438  1010                     move.b     D0, [A0]
0000143A  4A80                     tst.l      D0
0000143C  631A                     bls        +0x1C /* 00001458 */
0000143E  204D                     movea.l    A0, A5
00001440  D1FC FFFE D51E           add.l      A0, 0xFFFED51E
00001446  10BC 0001                move.b     [A0], 0x1
0000144A  600C                     bra        +0xE /* 00001458 */
label0000144C:
0000144C  204D                     movea.l    A0, A5
0000144E  D1FC FFFD CE5A           add.l      A0, 0xFFFDCE5A
00001454  7003                     moveq.l    D0, 0x03
00001456  2080                     move.l     [A0], D0
label00001458:
00001458  7004                     moveq.l    D0, 0x04
0000145A  2F00                     move.l     -[A7], D0
0000145C  4EBA 0C58                jsr        [PC + 0xC58 /* 000020B6 */]
00001460  4A00                     tst.b      D0
00001462  584F                     addq.w     A7, 4
00001464  672E                     beq        +0x30 /* 00001494 */
00001466  204D                     movea.l    A0, A5
00001468  D1FC FFFE D2D0           add.l      A0, 0xFFFED2D0
0000146E  4A10                     tst.b      [A0]
00001470  6704                     beq        +0x6 /* 00001476 */
00001472  4EAD 0512                jsr        [A5 + 0x512 /* export_158, CODE:9 @ 00003006 */]
label00001476:
00001476  204D                     movea.l    A0, A5
00001478  D1FC FFFE D51E           add.l      A0, 0xFFFED51E
0000147E  4210                     clr.b      [A0]
00001480  204D                     movea.l    A0, A5
00001482  D1FC FFFE D2DA           add.l      A0, 0xFFFED2DA
00001488  4210                     clr.b      [A0]
0000148A  204D                     movea.l    A0, A5
0000148C  D1FC FFFE D2DC           add.l      A0, 0xFFFED2DC
00001492  4210                     clr.b      [A0]
label00001494:
00001494  204D                     movea.l    A0, A5
00001496  D1FC FFFD CEBE           add.l      A0, 0xFFFDCEBE
0000149C  224D                     movea.l    A1, A5
0000149E  D3FC FFFD CE5E           add.l      A1, 0xFFFDCE5E
000014A4  2290                     move.l     [A1], [A0]
000014A6  7000                     moveq.l    D0, 0x00
label000014A8:
000014A8  4CEE 10C8 FFF0           movem.l    D3,D6,D7,A4, [A6 - 0x10]
000014AE  4E5E                     unlink     A6
000014B0  4E75                     rts
000014B2  996D 6F76 655F 7761 7... dc.b       "move_water_thru_ditch__Fv"
fn000014CE:
000014CE  4E56 FFFE                link       A6, -0x0002
000014D2  48E7 0700                movem.l    -[A7], D5,D6,D7
000014D6  1C2E 000B                move.b     D6, [A6 + 0xB]
000014DA  1E2E 000F                move.b     D7, [A6 + 0xF]
000014DE  7001                     moveq.l    D0, 0x01
000014E0  2F00                     move.l     -[A7], D0
000014E2  2F00                     move.l     -[A7], D0
000014E4  49C7                     lea.l      A4, D7
000014E6  2F07                     move.l     -[A7], D7
000014E8  49C6                     lea.l      A4, D6
000014EA  2F06                     move.l     -[A7], D6
000014EC  4EAD 0932                jsr        [A5 + 0x932 /* export_290, CODE:16 @ 00000802 */]
000014F0  3A00                     move.w     D5, D0
000014F2  4FEF 0010                lea.l      A7, [A7 + 0x10]
000014F6  6700 009E                beq        +0xA0 /* 00001596 */
000014FA  2005                     move.l     D0, D5
000014FC  C1FC 0046                muls.w     D0, 0x46 /* 'F' */
00001500  204D                     movea.l    A0, A5
00001502  D1FC FFFE D880           add.l      A0, 0xFFFED880
00001508  7200                     moveq.l    D1, 0x00
0000150A  3230 0000                move.w     D1, [A0 + D0.w]
0000150E  7046                     moveq.l    D0, 0x46
00001510  B081                     cmp.l      D0, D1
00001512  6600 0082                bne        +0x84 /* 00001596 */
00001516  1006                     move.b     D0, D6
00001518  5300                     subq.b     D0, 1
0000151A  1D40 FFFE                move.b     [A6 - 0x2], D0
0000151E  6066                     bra        +0x68 /* 00001586 */
label00001520:
00001520  1007                     move.b     D0, D7
00001522  5300                     subq.b     D0, 1
00001524  1D40 FFFF                move.b     [A6 - 0x1], D0
00001528  6044                     bra        +0x46 /* 0000156E */
label0000152A:
0000152A  486E FFFF                pea.l      [A6 - 0x1]
0000152E  486E FFFE                pea.l      [A6 - 0x2]
00001532  4EAD 084A                jsr        [A5 + 0x84A /* export_261, CODE:14 @ 000057DA */]
00001536  102E FFFF                move.b     D0, [A6 - 0x1]
0000153A  4880                     ext.w      D0
0000153C  122E FFFE                move.b     D1, [A6 - 0x2]
00001540  4881                     ext.w      D1
00001542  C3FC 00C0                muls.w     D1, 0xC0
00001546  204D                     movea.l    A0, A5
00001548  D1FC FFFE 42D4           add.l      A0, 0xFFFE42D4
0000154E  D040                     add.w      D0, D0
00001550  D041                     add.w      D0, D1
00001552  7200                     moveq.l    D1, 0x00
00001554  3230 0000                move.w     D1, [A0 + D0.w]
00001558  303C 2000                move.w     D0, 0x2000 /* ' \0' */
0000155C  C041                     and.w      D0, D1
0000155E  504F                     addq.w     A7, 8
00001560  6704                     beq        +0x6 /* 00001566 */
00001562  7001                     moveq.l    D0, 0x01
00001564  6032                     bra        +0x34 /* 00001598 */
label00001566:
00001566  102E FFFF                move.b     D0, [A6 - 0x1]
0000156A  522E FFFF                addq.b     [A6 - 0x1], 1
label0000156E:
0000156E  102E FFFF                move.b     D0, [A6 - 0x1]
00001572  4880                     ext.w      D0
00001574  4887                     ext.w      D7
00001576  3207                     move.w     D1, D7
00001578  5441                     addq.w     D1, 2
0000157A  B240                     cmp.w      D1, D0
0000157C  6EAC                     bgt        -0x52 /* 0000152A */
0000157E  102E FFFE                move.b     D0, [A6 - 0x2]
00001582  522E FFFE                addq.b     [A6 - 0x2], 1
label00001586:
00001586  102E FFFE                move.b     D0, [A6 - 0x2]
0000158A  4880                     ext.w      D0
0000158C  4886                     ext.w      D6
0000158E  3206                     move.w     D1, D6
00001590  5441                     addq.w     D1, 2
00001592  B240                     cmp.w      D1, D0
00001594  6E8A                     bgt        -0x74 /* 00001520 */
label00001596:
00001596  7000                     moveq.l    D0, 0x00
label00001598:
00001598  4CEE 00E0 FFF2           movem.l    D5,D6,D7, [A6 - 0xE]
0000159E  4E5E                     unlink     A6
000015A0  4E75                     rts
000015A2  9163 686B 666F 7277 6... dc.b       "chkforwater__FcT1"
fn000015B6:
000015B6  4E56 FFFE                link       A6, -0x0002
000015BA  48E7 1300                movem.l    -[A7], D3,D6,D7
000015BE  3C2E 000E                move.w     D6, [A6 + 0xE]
000015C2  3E2E 000A                move.w     D7, [A6 + 0xA]
000015C6  1D47 FFFE                move.b     [A6 - 0x2], D7
000015CA  1D46 FFFF                move.b     [A6 - 0x1], D6
000015CE  486E FFFF                pea.l      [A6 - 0x1]
000015D2  486E FFFE                pea.l      [A6 - 0x2]
000015D6  4EAD 084A                jsr        [A5 + 0x84A /* export_261, CODE:14 @ 000057DA */]
000015DA  102E FFFE                move.b     D0, [A6 - 0x2]
000015DE  4880                     ext.w      D0
000015E0  3E00                     move.w     D7, D0
000015E2  102E FFFF                move.b     D0, [A6 - 0x1]
000015E6  4880                     ext.w      D0
000015E8  3C00                     move.w     D6, D0
000015EA  204D                     movea.l    A0, A5
000015EC  D1FC FFFE D2D0           add.l      A0, 0xFFFED2D0
000015F2  4A10                     tst.b      [A0]
000015F4  6700 00C6                beq        +0xC8 /* 000016BC */
000015F8  2007                     move.l     D0, D7
000015FA  C1FC 00C0                muls.w     D0, 0xC0
000015FE  204D                     movea.l    A0, A5
00001600  D1FC FFFE 42D4           add.l      A0, 0xFFFE42D4
00001606  2206                     move.l     D1, D6
00001608  D241                     add.w      D1, D1
0000160A  D240                     add.w      D1, D0
0000160C  0070 8000 1000           ori.w      [A0 + D1.w], 0x8000
00001612  2007                     move.l     D0, D7
00001614  C1FC 00C0                muls.w     D0, 0xC0
00001618  204D                     movea.l    A0, A5
0000161A  D1FC FFFE 42D4           add.l      A0, 0xFFFE42D4
00001620  2206                     move.l     D1, D6
00001622  D241                     add.w      D1, D1
00001624  D240                     add.w      D1, D0
00001626  7000                     moveq.l    D0, 0x00
00001628  3030 1000                move.w     D0, [A0 + D1.w]
0000162C  323C 07FF                move.w     D1, 0x7FF
00001630  C240                     and.w      D1, D0
00001632  7000                     moveq.l    D0, 0x00
00001634  3001                     move.w     D0, D1
00001636  0C40 0057                cmpi.w     D0, 0x57 /* 'W' */
0000163A  6500 013E                bcs        +0x140 /* 0000177A */
0000163E  2007                     move.l     D0, D7
00001640  C1FC 00C0                muls.w     D0, 0xC0
00001644  204D                     movea.l    A0, A5
00001646  D1FC FFFE 42D4           add.l      A0, 0xFFFE42D4
0000164C  2206                     move.l     D1, D6
0000164E  D241                     add.w      D1, D1
00001650  D240                     add.w      D1, D0
00001652  7000                     moveq.l    D0, 0x00
00001654  3030 1000                move.w     D0, [A0 + D1.w]
00001658  323C 07FF                move.w     D1, 0x7FF
0000165C  C240                     and.w      D1, D0
0000165E  7000                     moveq.l    D0, 0x00
00001660  3001                     move.w     D0, D1
00001662  0C40 0062                cmpi.w     D0, 0x62 /* 'b' */
00001666  6400 0112                bcc        +0x114 /* 0000177A */
0000166A  2007                     move.l     D0, D7
0000166C  C1FC 00C0                muls.w     D0, 0xC0
00001670  204D                     movea.l    A0, A5
00001672  D1FC FFFE 42D4           add.l      A0, 0xFFFE42D4
00001678  2206                     move.l     D1, D6
0000167A  D241                     add.w      D1, D1
0000167C  D240                     add.w      D1, D0
0000167E  3230 1000                move.w     D1, [A0 + D1.w]
00001682  D27C 000B                add.w      D1, 0xB
00001686  2007                     move.l     D0, D7
00001688  C1FC 00C0                muls.w     D0, 0xC0
0000168C  204D                     movea.l    A0, A5
0000168E  D1FC FFFE 42D4           add.l      A0, 0xFFFE42D4
00001694  2406                     move.l     D2, D6
00001696  D442                     add.w      D2, D2
00001698  D440                     add.w      D2, D0
0000169A  3181 2000                move.w     [A0 + D2.w], D1
0000169E  2007                     move.l     D0, D7
000016A0  C1FC 00C0                muls.w     D0, 0xC0
000016A4  204D                     movea.l    A0, A5
000016A6  D1FC FFFE 42D4           add.l      A0, 0xFFFE42D4
000016AC  2206                     move.l     D1, D6
000016AE  D241                     add.w      D1, D1
000016B0  D240                     add.w      D1, D0
000016B2  0270 BFFF 1000           andi.w     [A0 + D1.w], 0xBFFF
000016B8  6000 00C0                bra        +0xC2 /* 0000177A */
label000016BC:
000016BC  2007                     move.l     D0, D7
000016BE  C1FC 00C0                muls.w     D0, 0xC0
000016C2  204D                     movea.l    A0, A5
000016C4  D1FC FFFE 42D4           add.l      A0, 0xFFFE42D4
000016CA  2206                     move.l     D1, D6
000016CC  D241                     add.w      D1, D1
000016CE  D240                     add.w      D1, D0
000016D0  0270 7FFF 1000           andi.w     [A0 + D1.w], 0x7FFF
000016D6  2007                     move.l     D0, D7
000016D8  C1FC 00C0                muls.w     D0, 0xC0
000016DC  204D                     movea.l    A0, A5
000016DE  D1FC FFFE 42D4           add.l      A0, 0xFFFE42D4
000016E4  2206                     move.l     D1, D6
000016E6  D241                     add.w      D1, D1
000016E8  D240                     add.w      D1, D0
000016EA  7000                     moveq.l    D0, 0x00
000016EC  3030 1000                move.w     D0, [A0 + D1.w]
000016F0  323C 07FF                move.w     D1, 0x7FF
000016F4  C240                     and.w      D1, D0
000016F6  7000                     moveq.l    D0, 0x00
000016F8  3001                     move.w     D0, D1
000016FA  0C40 0062                cmpi.w     D0, 0x62 /* 'b' */
000016FE  6560                     bcs        +0x62 /* 00001760 */
00001700  2007                     move.l     D0, D7
00001702  C1FC 00C0                muls.w     D0, 0xC0
00001706  204D                     movea.l    A0, A5
00001708  D1FC FFFE 42D4           add.l      A0, 0xFFFE42D4
0000170E  2206                     move.l     D1, D6
00001710  D241                     add.w      D1, D1
00001712  D240                     add.w      D1, D0
00001714  7000                     moveq.l    D0, 0x00
00001716  3030 1000                move.w     D0, [A0 + D1.w]
0000171A  323C 07FF                move.w     D1, 0x7FF
0000171E  C240                     and.w      D1, D0
00001720  7000                     moveq.l    D0, 0x00
00001722  3001                     move.w     D0, D1
00001724  0C40 006D                cmpi.w     D0, 0x6D /* 'm' */
00001728  6436                     bcc        +0x38 /* 00001760 */
0000172A  2007                     move.l     D0, D7
0000172C  C1FC 00C0                muls.w     D0, 0xC0
00001730  204D                     movea.l    A0, A5
00001732  D1FC FFFE 42D4           add.l      A0, 0xFFFE42D4
00001738  2206                     move.l     D1, D6
0000173A  D241                     add.w      D1, D1
0000173C  D240                     add.w      D1, D0
0000173E  7000                     moveq.l    D0, 0x00
00001740  3030 1000                move.w     D0, [A0 + D1.w]
00001744  720B                     moveq.l    D1, 0x0B
00001746  9081                     sub.l      D0, D1
00001748  2407                     move.l     D2, D7
0000174A  C5FC 00C0                muls.w     D2, 0xC0
0000174E  204D                     movea.l    A0, A5
00001750  D1FC FFFE 42D4           add.l      A0, 0xFFFE42D4
00001756  2606                     move.l     D3, D6
00001758  D643                     add.w      D3, D3
0000175A  D642                     add.w      D3, D2
0000175C  3180 3000                move.w     [A0 + D3.w], D0
label00001760:
00001760  2007                     move.l     D0, D7
00001762  C1FC 00C0                muls.w     D0, 0xC0
00001766  204D                     movea.l    A0, A5
00001768  D1FC FFFE 42D4           add.l      A0, 0xFFFE42D4
0000176E  2206                     move.l     D1, D6
00001770  D241                     add.w      D1, D1
00001772  D240                     add.w      D1, D0
00001774  0270 BFFF 1000           andi.w     [A0 + D1.w], 0xBFFF
label0000177A:
0000177A  4CEE 00C8 FFF2           movem.l    D3,D6,D7, [A6 - 0xE]
00001780  4E5E                     unlink     A6
00001782  4E75                     rts
00001784  9173 6574 7761 7465 7... dc.b       "setwaterbit__FsT1"
fn00001798:
00001798  4E56 FFFE                link       A6, -0x0002
0000179C  48E7 0300                movem.l    -[A7], D6,D7
000017A0  3C2E 000E                move.w     D6, [A6 + 0xE]
000017A4  3E2E 000A                move.w     D7, [A6 + 0xA]
000017A8  1D47 FFFE                move.b     [A6 - 0x2], D7
000017AC  1D46 FFFF                move.b     [A6 - 0x1], D6
000017B0  486E FFFF                pea.l      [A6 - 0x1]
000017B4  486E FFFE                pea.l      [A6 - 0x2]
000017B8  4EAD 084A                jsr        [A5 + 0x84A /* export_261, CODE:14 @ 000057DA */]
000017BC  102E FFFE                move.b     D0, [A6 - 0x2]
000017C0  4880                     ext.w      D0
000017C2  3E00                     move.w     D7, D0
000017C4  102E FFFF                move.b     D0, [A6 - 0x1]
000017C8  4880                     ext.w      D0
000017CA  3C00                     move.w     D6, D0
000017CC  204D                     movea.l    A0, A5
000017CE  D1FC FFFE D2D0           add.l      A0, 0xFFFED2D0
000017D4  4A10                     tst.b      [A0]
000017D6  504F                     addq.w     A7, 8
000017D8  672A                     beq        +0x2C /* 00001804 */
000017DA  2207                     move.l     D1, D7
000017DC  C3FC 00C0                muls.w     D1, 0xC0
000017E0  204D                     movea.l    A0, A5
000017E2  D1FC FFFE 42D4           add.l      A0, 0xFFFE42D4
000017E8  2406                     move.l     D2, D6
000017EA  D442                     add.w      D2, D2
000017EC  D441                     add.w      D2, D1
000017EE  7200                     moveq.l    D1, 0x00
000017F0  3230 2000                move.w     D1, [A0 + D2.w]
000017F4  343C 8000                move.w     D2, 0x8000
000017F8  C441                     and.w      D2, D1
000017FA  5342                     subq.w     D2, 1
000017FC  9542                     subx.w     D2, D2
000017FE  5242                     addq.w     D2, 1
00001800  3002                     move.w     D0, D2
00001802  6026                     bra        +0x28 /* 0000182A */
label00001804:
00001804  2207                     move.l     D1, D7
00001806  C3FC 00C0                muls.w     D1, 0xC0
0000180A  204D                     movea.l    A0, A5
0000180C  D1FC FFFE 42D4           add.l      A0, 0xFFFE42D4
00001812  2406                     move.l     D2, D6
00001814  D442                     add.w      D2, D2
00001816  D441                     add.w      D2, D1
00001818  7200                     moveq.l    D1, 0x00
0000181A  3230 2000                move.w     D1, [A0 + D2.w]
0000181E  343C 8000                move.w     D2, 0x8000
00001822  C441                     and.w      D2, D1
00001824  57C0                     seq        D0
00001826  0240 0001                andi.w     D0, 0x1
label0000182A:
0000182A  4CEE 00C0 FFF6           movem.l    D6,D7, [A6 - 0xA]
00001830  4E5E                     unlink     A6
00001832  4E75                     rts
00001834  9167 6574 7761 7465 7... dc.b       "getwaterbit__FsT1"
fn00001848:
00001848  4E56 FFFE                link       A6, -0x0002
0000184C  48E7 0F08                movem.l    -[A7], D4,D5,D6,D7,A4
00001850  286E 0010                movea.l    A4, [A6 + 0x10]
00001854  426E FFFE                clr.w      [A6 - 0x2]
00001858  102E 000F                move.b     D0, [A6 + 0xF]
0000185C  4880                     ext.w      D0
0000185E  5340                     subq.w     D0, 1
00001860  122E 000B                move.b     D1, [A6 + 0xB]
00001864  4881                     ext.w      D1
00001866  C3FC 00C0                muls.w     D1, 0xC0
0000186A  204D                     movea.l    A0, A5
0000186C  D1FC FFFE 42D4           add.l      A0, 0xFFFE42D4
00001872  D040                     add.w      D0, D0
00001874  D041                     add.w      D0, D1
00001876  7200                     moveq.l    D1, 0x00
00001878  3230 0000                move.w     D1, [A0 + D0.w]
0000187C  383C 07FF                move.w     D4, 0x7FF
00001880  C841                     and.w      D4, D1
00001882  102E 000F                move.b     D0, [A6 + 0xF]
00001886  4880                     ext.w      D0
00001888  5240                     addq.w     D0, 1
0000188A  122E 000B                move.b     D1, [A6 + 0xB]
0000188E  4881                     ext.w      D1
00001890  C3FC 00C0                muls.w     D1, 0xC0
00001894  204D                     movea.l    A0, A5
00001896  D1FC FFFE 42D4           add.l      A0, 0xFFFE42D4
0000189C  D040                     add.w      D0, D0
0000189E  D041                     add.w      D0, D1
000018A0  7200                     moveq.l    D1, 0x00
000018A2  3230 0000                move.w     D1, [A0 + D0.w]
000018A6  3A3C 07FF                move.w     D5, 0x7FF
000018AA  CA41                     and.w      D5, D1
000018AC  102E 000F                move.b     D0, [A6 + 0xF]
000018B0  4880                     ext.w      D0
000018B2  122E 000B                move.b     D1, [A6 + 0xB]
000018B6  4881                     ext.w      D1
000018B8  5341                     subq.w     D1, 1
000018BA  C3FC 00C0                muls.w     D1, 0xC0
000018BE  204D                     movea.l    A0, A5
000018C0  D1FC FFFE 42D4           add.l      A0, 0xFFFE42D4
000018C6  D040                     add.w      D0, D0
000018C8  D041                     add.w      D0, D1
000018CA  7200                     moveq.l    D1, 0x00
000018CC  3230 0000                move.w     D1, [A0 + D0.w]
000018D0  3C3C 07FF                move.w     D6, 0x7FF
000018D4  CC41                     and.w      D6, D1
000018D6  102E 000F                move.b     D0, [A6 + 0xF]
000018DA  4880                     ext.w      D0
000018DC  122E 000B                move.b     D1, [A6 + 0xB]
000018E0  4881                     ext.w      D1
000018E2  5241                     addq.w     D1, 1
000018E4  C3FC 00C0                muls.w     D1, 0xC0
000018E8  204D                     movea.l    A0, A5
000018EA  D1FC FFFE 42D4           add.l      A0, 0xFFFE42D4
000018F0  D040                     add.w      D0, D0
000018F2  D041                     add.w      D0, D1
000018F4  7200                     moveq.l    D1, 0x00
000018F6  3230 0000                move.w     D1, [A0 + D0.w]
000018FA  3E3C 07FF                move.w     D7, 0x7FF
000018FE  CE41                     and.w      D7, D1
00001900  204D                     movea.l    A0, A5
00001902  D1FC FFFE D2D0           add.l      A0, 0xFFFED2D0
00001908  4A10                     tst.b      [A0]
0000190A  6700 01D6                beq        +0x1D8 /* 00001AE2 */
0000190E  204D                     movea.l    A0, A5
00001910  D1FC FFFF 7946           add.l      A0, 0xFFFF7946
00001916  B850                     cmp.w      D4, [A0]
00001918  6D16                     blt        +0x18 /* 00001930 */
0000191A  48C4                     ext.l      D4
0000191C  204D                     movea.l    A0, A5
0000191E  D1FC FFFF 7946           add.l      A0, 0xFFFF7946
00001924  3010                     move.w     D0, [A0]
00001926  48C0                     ext.l      D0
00001928  7221                     moveq.l    D1, 0x21
0000192A  D081                     add.l      D0, D1
0000192C  B084                     cmp.l      D0, D4
0000192E  6C24                     bge        +0x26 /* 00001954 */
label00001930:
00001930  0C44 007A                cmpi.w     D4, 0x7A /* 'z' */
00001934  671E                     beq        +0x20 /* 00001954 */
00001936  0C44 007C                cmpi.w     D4, 0x7C /* '|' */
0000193A  6718                     beq        +0x1A /* 00001954 */
0000193C  0C44 00AC                cmpi.w     D4, 0xAC
00001940  6712                     beq        +0x14 /* 00001954 */
00001942  0C44 00AD                cmpi.w     D4, 0xAD
00001946  670C                     beq        +0xE /* 00001954 */
00001948  0C44 0078                cmpi.w     D4, 0x78 /* 'x' */
0000194C  6706                     beq        +0x8 /* 00001954 */
0000194E  0C44 0079                cmpi.w     D4, 0x79 /* 'y' */
00001952  662C                     bne        +0x2E /* 00001980 */
label00001954:
00001954  102E 000F                move.b     D0, [A6 + 0xF]
00001958  4880                     ext.w      D0
0000195A  5340                     subq.w     D0, 1
0000195C  48C0                     ext.l      D0
0000195E  2F00                     move.l     -[A7], D0
00001960  102E 000B                move.b     D0, [A6 + 0xB]
00001964  49C0                     lea.l      A4, D0
00001966  2F00                     move.l     -[A7], D0
00001968  4EBA FE2E                jsr        [PC - 0x1D2 /* 00001798 */]
0000196C  4A40                     tst.w      D0
0000196E  504F                     addq.w     A7, 8
00001970  660E                     bne        +0x10 /* 00001980 */
00001972  002E 0001 FFFE           ori.b      [A6 - 0x2], 0x1
00001978  102E FFFF                move.b     D0, [A6 - 0x1]
0000197C  522E FFFF                addq.b     [A6 - 0x1], 1
label00001980:
00001980  204D                     movea.l    A0, A5
00001982  D1FC FFFF 7946           add.l      A0, 0xFFFF7946
00001988  BE50                     cmp.w      D7, [A0]
0000198A  6D16                     blt        +0x18 /* 000019A2 */
0000198C  48C7                     ext.l      D7
0000198E  204D                     movea.l    A0, A5
00001990  D1FC FFFF 7946           add.l      A0, 0xFFFF7946
00001996  3010                     move.w     D0, [A0]
00001998  48C0                     ext.l      D0
0000199A  7221                     moveq.l    D1, 0x21
0000199C  D081                     add.l      D0, D1
0000199E  B087                     cmp.l      D0, D7
000019A0  6C24                     bge        +0x26 /* 000019C6 */
label000019A2:
000019A2  0C47 007A                cmpi.w     D7, 0x7A /* 'z' */
000019A6  671E                     beq        +0x20 /* 000019C6 */
000019A8  0C47 007C                cmpi.w     D7, 0x7C /* '|' */
000019AC  6718                     beq        +0x1A /* 000019C6 */
000019AE  0C47 00AC                cmpi.w     D7, 0xAC
000019B2  6712                     beq        +0x14 /* 000019C6 */
000019B4  0C47 00AD                cmpi.w     D7, 0xAD
000019B8  670C                     beq        +0xE /* 000019C6 */
000019BA  0C47 0078                cmpi.w     D7, 0x78 /* 'x' */
000019BE  6706                     beq        +0x8 /* 000019C6 */
000019C0  0C47 0079                cmpi.w     D7, 0x79 /* 'y' */
000019C4  662C                     bne        +0x2E /* 000019F2 */
label000019C6:
000019C6  102E 000F                move.b     D0, [A6 + 0xF]
000019CA  49C0                     lea.l      A4, D0
000019CC  2F00                     move.l     -[A7], D0
000019CE  102E 000B                move.b     D0, [A6 + 0xB]
000019D2  4880                     ext.w      D0
000019D4  5240                     addq.w     D0, 1
000019D6  48C0                     ext.l      D0
000019D8  2F00                     move.l     -[A7], D0
000019DA  4EBA FDBC                jsr        [PC - 0x244 /* 00001798 */]
000019DE  4A40                     tst.w      D0
000019E0  504F                     addq.w     A7, 8
000019E2  660E                     bne        +0x10 /* 000019F2 */
000019E4  002E 0002 FFFE           ori.b      [A6 - 0x2], 0x2
000019EA  102E FFFF                move.b     D0, [A6 - 0x1]
000019EE  522E FFFF                addq.b     [A6 - 0x1], 1
label000019F2:
000019F2  204D                     movea.l    A0, A5
000019F4  D1FC FFFF 7946           add.l      A0, 0xFFFF7946
000019FA  BA50                     cmp.w      D5, [A0]
000019FC  6D16                     blt        +0x18 /* 00001A14 */
000019FE  48C5                     ext.l      D5
00001A00  204D                     movea.l    A0, A5
00001A02  D1FC FFFF 7946           add.l      A0, 0xFFFF7946
00001A08  3010                     move.w     D0, [A0]
00001A0A  48C0                     ext.l      D0
00001A0C  7221                     moveq.l    D1, 0x21
00001A0E  D081                     add.l      D0, D1
00001A10  B085                     cmp.l      D0, D5
00001A12  6C24                     bge        +0x26 /* 00001A38 */
label00001A14:
00001A14  0C45 007A                cmpi.w     D5, 0x7A /* 'z' */
00001A18  671E                     beq        +0x20 /* 00001A38 */
00001A1A  0C45 007C                cmpi.w     D5, 0x7C /* '|' */
00001A1E  6718                     beq        +0x1A /* 00001A38 */
00001A20  0C45 00AC                cmpi.w     D5, 0xAC
00001A24  6712                     beq        +0x14 /* 00001A38 */
00001A26  0C45 00AD                cmpi.w     D5, 0xAD
00001A2A  670C                     beq        +0xE /* 00001A38 */
00001A2C  0C45 0078                cmpi.w     D5, 0x78 /* 'x' */
00001A30  6706                     beq        +0x8 /* 00001A38 */
00001A32  0C45 0079                cmpi.w     D5, 0x79 /* 'y' */
00001A36  662C                     bne        +0x2E /* 00001A64 */
label00001A38:
00001A38  102E 000F                move.b     D0, [A6 + 0xF]
00001A3C  4880                     ext.w      D0
00001A3E  5240                     addq.w     D0, 1
00001A40  48C0                     ext.l      D0
00001A42  2F00                     move.l     -[A7], D0
00001A44  102E 000B                move.b     D0, [A6 + 0xB]
00001A48  49C0                     lea.l      A4, D0
00001A4A  2F00                     move.l     -[A7], D0
00001A4C  4EBA FD4A                jsr        [PC - 0x2B6 /* 00001798 */]
00001A50  4A40                     tst.w      D0
00001A52  504F                     addq.w     A7, 8
00001A54  660E                     bne        +0x10 /* 00001A64 */
00001A56  002E 0004 FFFE           ori.b      [A6 - 0x2], 0x4
00001A5C  102E FFFF                move.b     D0, [A6 - 0x1]
00001A60  522E FFFF                addq.b     [A6 - 0x1], 1
label00001A64:
00001A64  204D                     movea.l    A0, A5
00001A66  D1FC FFFF 7946           add.l      A0, 0xFFFF7946
00001A6C  BC50                     cmp.w      D6, [A0]
00001A6E  6D16                     blt        +0x18 /* 00001A86 */
00001A70  48C6                     ext.l      D6
00001A72  204D                     movea.l    A0, A5
00001A74  D1FC FFFF 7946           add.l      A0, 0xFFFF7946
00001A7A  3010                     move.w     D0, [A0]
00001A7C  48C0                     ext.l      D0
00001A7E  7221                     moveq.l    D1, 0x21
00001A80  D081                     add.l      D0, D1
00001A82  B086                     cmp.l      D0, D6
00001A84  6C24                     bge        +0x26 /* 00001AAA */
label00001A86:
00001A86  0C46 007A                cmpi.w     D6, 0x7A /* 'z' */
00001A8A  671E                     beq        +0x20 /* 00001AAA */
00001A8C  0C46 007C                cmpi.w     D6, 0x7C /* '|' */
00001A90  6718                     beq        +0x1A /* 00001AAA */
00001A92  0C46 00AC                cmpi.w     D6, 0xAC
00001A96  6712                     beq        +0x14 /* 00001AAA */
00001A98  0C46 00AD                cmpi.w     D6, 0xAD
00001A9C  670C                     beq        +0xE /* 00001AAA */
00001A9E  0C46 0078                cmpi.w     D6, 0x78 /* 'x' */
00001AA2  6706                     beq        +0x8 /* 00001AAA */
00001AA4  0C46 0079                cmpi.w     D6, 0x79 /* 'y' */
00001AA8  662C                     bne        +0x2E /* 00001AD6 */
label00001AAA:
00001AAA  102E 000F                move.b     D0, [A6 + 0xF]
00001AAE  49C0                     lea.l      A4, D0
00001AB0  2F00                     move.l     -[A7], D0
00001AB2  102E 000B                move.b     D0, [A6 + 0xB]
00001AB6  4880                     ext.w      D0
00001AB8  5340                     subq.w     D0, 1
00001ABA  48C0                     ext.l      D0
00001ABC  2F00                     move.l     -[A7], D0
00001ABE  4EBA FCD8                jsr        [PC - 0x328 /* 00001798 */]
00001AC2  4A40                     tst.w      D0
00001AC4  504F                     addq.w     A7, 8
00001AC6  660E                     bne        +0x10 /* 00001AD6 */
00001AC8  002E 0008 FFFE           ori.b      [A6 - 0x2], 0x8
00001ACE  102E FFFF                move.b     D0, [A6 - 0x1]
00001AD2  522E FFFF                addq.b     [A6 - 0x1], 1
label00001AD6:
00001AD6  18AE FFFE                move.b     [A4], [A6 - 0x2]
00001ADA  102E FFFF                move.b     D0, [A6 - 0x1]
00001ADE  6000 0202                bra        +0x204 /* 00001CE2 */
label00001AE2:
00001AE2  204D                     movea.l    A0, A5
00001AE4  D1FC FFFF 7946           add.l      A0, 0xFFFF7946
00001AEA  B850                     cmp.w      D4, [A0]
00001AEC  6D16                     blt        +0x18 /* 00001B04 */
00001AEE  48C4                     ext.l      D4
00001AF0  204D                     movea.l    A0, A5
00001AF2  D1FC FFFF 7946           add.l      A0, 0xFFFF7946
00001AF8  3010                     move.w     D0, [A0]
00001AFA  48C0                     ext.l      D0
00001AFC  7221                     moveq.l    D1, 0x21
00001AFE  D081                     add.l      D0, D1
00001B00  B084                     cmp.l      D0, D4
00001B02  6C30                     bge        +0x32 /* 00001B34 */
label00001B04:
00001B04  0C44 007A                cmpi.w     D4, 0x7A /* 'z' */
00001B08  672A                     beq        +0x2C /* 00001B34 */
00001B0A  0C44 007B                cmpi.w     D4, 0x7B /* '{' */
00001B0E  6724                     beq        +0x26 /* 00001B34 */
00001B10  0C44 007C                cmpi.w     D4, 0x7C /* '|' */
00001B14  671E                     beq        +0x20 /* 00001B34 */
00001B16  0C44 007D                cmpi.w     D4, 0x7D /* '}' */
00001B1A  6718                     beq        +0x1A /* 00001B34 */
00001B1C  0C44 00AC                cmpi.w     D4, 0xAC
00001B20  6712                     beq        +0x14 /* 00001B34 */
00001B22  0C44 00AD                cmpi.w     D4, 0xAD
00001B26  670C                     beq        +0xE /* 00001B34 */
00001B28  0C44 0078                cmpi.w     D4, 0x78 /* 'x' */
00001B2C  6706                     beq        +0x8 /* 00001B34 */
00001B2E  0C44 0079                cmpi.w     D4, 0x79 /* 'y' */
00001B32  662C                     bne        +0x2E /* 00001B60 */
label00001B34:
00001B34  102E 000F                move.b     D0, [A6 + 0xF]
00001B38  4880                     ext.w      D0
00001B3A  5340                     subq.w     D0, 1
00001B3C  48C0                     ext.l      D0
00001B3E  2F00                     move.l     -[A7], D0
00001B40  102E 000B                move.b     D0, [A6 + 0xB]
00001B44  49C0                     lea.l      A4, D0
00001B46  2F00                     move.l     -[A7], D0
00001B48  4EBA FC4E                jsr        [PC - 0x3B2 /* 00001798 */]
00001B4C  4A40                     tst.w      D0
00001B4E  504F                     addq.w     A7, 8
00001B50  660E                     bne        +0x10 /* 00001B60 */
00001B52  002E 0001 FFFE           ori.b      [A6 - 0x2], 0x1
00001B58  102E FFFF                move.b     D0, [A6 - 0x1]
00001B5C  522E FFFF                addq.b     [A6 - 0x1], 1
label00001B60:
00001B60  204D                     movea.l    A0, A5
00001B62  D1FC FFFF 7946           add.l      A0, 0xFFFF7946
00001B68  BE50                     cmp.w      D7, [A0]
00001B6A  6D16                     blt        +0x18 /* 00001B82 */
00001B6C  48C7                     ext.l      D7
00001B6E  204D                     movea.l    A0, A5
00001B70  D1FC FFFF 7946           add.l      A0, 0xFFFF7946
00001B76  3010                     move.w     D0, [A0]
00001B78  48C0                     ext.l      D0
00001B7A  7221                     moveq.l    D1, 0x21
00001B7C  D081                     add.l      D0, D1
00001B7E  B087                     cmp.l      D0, D7
00001B80  6C30                     bge        +0x32 /* 00001BB2 */
label00001B82:
00001B82  0C47 007A                cmpi.w     D7, 0x7A /* 'z' */
00001B86  672A                     beq        +0x2C /* 00001BB2 */
00001B88  0C47 007B                cmpi.w     D7, 0x7B /* '{' */
00001B8C  6724                     beq        +0x26 /* 00001BB2 */
00001B8E  0C47 007C                cmpi.w     D7, 0x7C /* '|' */
00001B92  671E                     beq        +0x20 /* 00001BB2 */
00001B94  0C47 007D                cmpi.w     D7, 0x7D /* '}' */
00001B98  6718                     beq        +0x1A /* 00001BB2 */
00001B9A  0C47 00AC                cmpi.w     D7, 0xAC
00001B9E  6712                     beq        +0x14 /* 00001BB2 */
00001BA0  0C47 00AD                cmpi.w     D7, 0xAD
00001BA4  670C                     beq        +0xE /* 00001BB2 */
00001BA6  0C47 0078                cmpi.w     D7, 0x78 /* 'x' */
00001BAA  6706                     beq        +0x8 /* 00001BB2 */
00001BAC  0C47 0079                cmpi.w     D7, 0x79 /* 'y' */
00001BB0  662C                     bne        +0x2E /* 00001BDE */
label00001BB2:
00001BB2  102E 000F                move.b     D0, [A6 + 0xF]
00001BB6  49C0                     lea.l      A4, D0
00001BB8  2F00                     move.l     -[A7], D0
00001BBA  102E 000B                move.b     D0, [A6 + 0xB]
00001BBE  4880                     ext.w      D0
00001BC0  5240                     addq.w     D0, 1
00001BC2  48C0                     ext.l      D0
00001BC4  2F00                     move.l     -[A7], D0
00001BC6  4EBA FBD0                jsr        [PC - 0x430 /* 00001798 */]
00001BCA  4A40                     tst.w      D0
00001BCC  504F                     addq.w     A7, 8
00001BCE  660E                     bne        +0x10 /* 00001BDE */
00001BD0  002E 0002 FFFE           ori.b      [A6 - 0x2], 0x2
00001BD6  102E FFFF                move.b     D0, [A6 - 0x1]
00001BDA  522E FFFF                addq.b     [A6 - 0x1], 1
label00001BDE:
00001BDE  204D                     movea.l    A0, A5
00001BE0  D1FC FFFF 7946           add.l      A0, 0xFFFF7946
00001BE6  BA50                     cmp.w      D5, [A0]
00001BE8  6D16                     blt        +0x18 /* 00001C00 */
00001BEA  48C5                     ext.l      D5
00001BEC  204D                     movea.l    A0, A5
00001BEE  D1FC FFFF 7946           add.l      A0, 0xFFFF7946
00001BF4  3010                     move.w     D0, [A0]
00001BF6  48C0                     ext.l      D0
00001BF8  7221                     moveq.l    D1, 0x21
00001BFA  D081                     add.l      D0, D1
00001BFC  B085                     cmp.l      D0, D5
00001BFE  6C30                     bge        +0x32 /* 00001C30 */
label00001C00:
00001C00  0C45 007A                cmpi.w     D5, 0x7A /* 'z' */
00001C04  672A                     beq        +0x2C /* 00001C30 */
00001C06  0C45 007B                cmpi.w     D5, 0x7B /* '{' */
00001C0A  6724                     beq        +0x26 /* 00001C30 */
00001C0C  0C45 007C                cmpi.w     D5, 0x7C /* '|' */
00001C10  671E                     beq        +0x20 /* 00001C30 */
00001C12  0C45 007D                cmpi.w     D5, 0x7D /* '}' */
00001C16  6718                     beq        +0x1A /* 00001C30 */
00001C18  0C45 00AC                cmpi.w     D5, 0xAC
00001C1C  6712                     beq        +0x14 /* 00001C30 */
00001C1E  0C45 00AD                cmpi.w     D5, 0xAD
00001C22  670C                     beq        +0xE /* 00001C30 */
00001C24  0C45 0078                cmpi.w     D5, 0x78 /* 'x' */
00001C28  6706                     beq        +0x8 /* 00001C30 */
00001C2A  0C45 0079                cmpi.w     D5, 0x79 /* 'y' */
00001C2E  662C                     bne        +0x2E /* 00001C5C */
label00001C30:
00001C30  102E 000F                move.b     D0, [A6 + 0xF]
00001C34  4880                     ext.w      D0
00001C36  5240                     addq.w     D0, 1
00001C38  48C0                     ext.l      D0
00001C3A  2F00                     move.l     -[A7], D0
00001C3C  102E 000B                move.b     D0, [A6 + 0xB]
00001C40  49C0                     lea.l      A4, D0
00001C42  2F00                     move.l     -[A7], D0
00001C44  4EBA FB52                jsr        [PC - 0x4AE /* 00001798 */]
00001C48  4A40                     tst.w      D0
00001C4A  504F                     addq.w     A7, 8
00001C4C  660E                     bne        +0x10 /* 00001C5C */
00001C4E  002E 0004 FFFE           ori.b      [A6 - 0x2], 0x4
00001C54  102E FFFF                move.b     D0, [A6 - 0x1]
00001C58  522E FFFF                addq.b     [A6 - 0x1], 1
label00001C5C:
00001C5C  204D                     movea.l    A0, A5
00001C5E  D1FC FFFF 7946           add.l      A0, 0xFFFF7946
00001C64  BC50                     cmp.w      D6, [A0]
00001C66  6D16                     blt        +0x18 /* 00001C7E */
00001C68  48C6                     ext.l      D6
00001C6A  204D                     movea.l    A0, A5
00001C6C  D1FC FFFF 7946           add.l      A0, 0xFFFF7946
00001C72  3010                     move.w     D0, [A0]
00001C74  48C0                     ext.l      D0
00001C76  7221                     moveq.l    D1, 0x21
00001C78  D081                     add.l      D0, D1
00001C7A  B086                     cmp.l      D0, D6
00001C7C  6C30                     bge        +0x32 /* 00001CAE */
label00001C7E:
00001C7E  0C46 007A                cmpi.w     D6, 0x7A /* 'z' */
00001C82  672A                     beq        +0x2C /* 00001CAE */
00001C84  0C46 007B                cmpi.w     D6, 0x7B /* '{' */
00001C88  6724                     beq        +0x26 /* 00001CAE */
00001C8A  0C46 007C                cmpi.w     D6, 0x7C /* '|' */
00001C8E  671E                     beq        +0x20 /* 00001CAE */
00001C90  0C46 007D                cmpi.w     D6, 0x7D /* '}' */
00001C94  6718                     beq        +0x1A /* 00001CAE */
00001C96  0C46 00AC                cmpi.w     D6, 0xAC
00001C9A  6712                     beq        +0x14 /* 00001CAE */
00001C9C  0C46 00AD                cmpi.w     D6, 0xAD
00001CA0  670C                     beq        +0xE /* 00001CAE */
00001CA2  0C46 0078                cmpi.w     D6, 0x78 /* 'x' */
00001CA6  6706                     beq        +0x8 /* 00001CAE */
00001CA8  0C46 0079                cmpi.w     D6, 0x79 /* 'y' */
00001CAC  662C                     bne        +0x2E /* 00001CDA */
label00001CAE:
00001CAE  102E 000F                move.b     D0, [A6 + 0xF]
00001CB2  49C0                     lea.l      A4, D0
00001CB4  2F00                     move.l     -[A7], D0
00001CB6  102E 000B                move.b     D0, [A6 + 0xB]
00001CBA  4880                     ext.w      D0
00001CBC  5340                     subq.w     D0, 1
00001CBE  48C0                     ext.l      D0
00001CC0  2F00                     move.l     -[A7], D0
00001CC2  4EBA FAD4                jsr        [PC - 0x52C /* 00001798 */]
00001CC6  4A40                     tst.w      D0
00001CC8  504F                     addq.w     A7, 8
00001CCA  660E                     bne        +0x10 /* 00001CDA */
00001CCC  002E 0008 FFFE           ori.b      [A6 - 0x2], 0x8
00001CD2  102E FFFF                move.b     D0, [A6 - 0x1]
00001CD6  522E FFFF                addq.b     [A6 - 0x1], 1
label00001CDA:
00001CDA  18AE FFFE                move.b     [A4], [A6 - 0x2]
00001CDE  102E FFFF                move.b     D0, [A6 - 0x1]
label00001CE2:
00001CE2  4CEE 10F0 FFEA           movem.l    D4,D5,D6,D7,A4, [A6 - 0x16]
00001CE8  4E5E                     unlink     A6
00001CEA  4E75                     rts
00001CEC  9773 6361 6E34 7761 7... dc.b       "scan4waterxport__FcT1Pc"
export_273:
00001D06  4E56 0000                link       A6, 0
00001D0A  48E7 0F08                movem.l    -[A7], D4,D5,D6,D7,A4
00001D0E  382E 000E                move.w     D4, [A6 + 0xE]
00001D12  3A2E 000A                move.w     D5, [A6 + 0xA]
00001D16  204D                     movea.l    A0, A5
00001D18  D1FC FFFE D2DE           add.l      A0, 0xFFFED2DE
00001D1E  49D0                     lea.l      A4, [A0]
00001D20  7000                     moveq.l    D0, 0x00
00001D22  204D                     movea.l    A0, A5
00001D24  D1FC FFFE D2D8           add.l      A0, 0xFFFED2D8
00001D2A  1010                     move.b     D0, [A0]
00001D2C  4A80                     tst.l      D0
00001D2E  6606                     bne        +0x8 /* 00001D36 */
00001D30  7000                     moveq.l    D0, 0x00
00001D32  6000 00C6                bra        +0xC8 /* 00001DFA */
label00001D36:
00001D36  4246                     clr.w      D6
00001D38  6000 00AC                bra        +0xAE /* 00001DE6 */
label00001D3C:
00001D3C  2006                     move.l     D0, D6
00001D3E  48C0                     ext.l      D0
00001D40  2200                     move.l     D1, D0
00001D42  D080                     add.l      D0, D0
00001D44  D081                     add.l      D0, D1
00001D46  7200                     moveq.l    D1, 0x00
00001D48  1234 0000                move.b     D1, [A4 + D0.w]
00001D4C  BA41                     cmp.w      D5, D1
00001D4E  6600 0092                bne        +0x94 /* 00001DE2 */
00001D52  2006                     move.l     D0, D6
00001D54  48C0                     ext.l      D0
00001D56  2200                     move.l     D1, D0
00001D58  D080                     add.l      D0, D0
00001D5A  D081                     add.l      D0, D1
00001D5C  7200                     moveq.l    D1, 0x00
00001D5E  1234 0001                move.b     D1, [A4 + D0.w + 0x1]
00001D62  B841                     cmp.w      D4, D1
00001D64  667C                     bne        +0x7E /* 00001DE2 */
00001D66  3E06                     move.w     D7, D6
00001D68  6058                     bra        +0x5A /* 00001DC2 */
label00001D6A:
00001D6A  48C7                     ext.l      D7
00001D6C  2007                     move.l     D0, D7
00001D6E  48C0                     ext.l      D0
00001D70  2200                     move.l     D1, D0
00001D72  D080                     add.l      D0, D0
00001D74  D081                     add.l      D0, D1
00001D76  2207                     move.l     D1, D7
00001D78  48C1                     ext.l      D1
00001D7A  2401                     move.l     D2, D1
00001D7C  D281                     add.l      D1, D1
00001D7E  D282                     add.l      D1, D2
00001D80  19B4 0003 1000           move.b     [A4 + D1.w], [A4 + D0.w + 0x3]
00001D86  48C7                     ext.l      D7
00001D88  2007                     move.l     D0, D7
00001D8A  48C0                     ext.l      D0
00001D8C  2200                     move.l     D1, D0
00001D8E  D080                     add.l      D0, D0
00001D90  D081                     add.l      D0, D1
00001D92  2207                     move.l     D1, D7
00001D94  48C1                     ext.l      D1
00001D96  2401                     move.l     D2, D1
00001D98  D281                     add.l      D1, D1
00001D9A  D282                     add.l      D1, D2
00001D9C  19B4 0004 1001           move.b     [A4 + D1.w + 0x1], [A4 + D0.w + 0x4]
00001DA2  48C7                     ext.l      D7
00001DA4  2007                     move.l     D0, D7
00001DA6  48C0                     ext.l      D0
00001DA8  2200                     move.l     D1, D0
00001DAA  D080                     add.l      D0, D0
00001DAC  D081                     add.l      D0, D1
00001DAE  2207                     move.l     D1, D7
00001DB0  48C1                     ext.l      D1
00001DB2  2401                     move.l     D2, D1
00001DB4  D281                     add.l      D1, D1
00001DB6  D282                     add.l      D1, D2
00001DB8  19B4 0005 1002           move.b     [A4 + D1.w + 0x2], [A4 + D0.w + 0x5]
00001DBE  3007                     move.w     D0, D7
00001DC0  5247                     addq.w     D7, 1
label00001DC2:
00001DC2  7000                     moveq.l    D0, 0x00
00001DC4  204D                     movea.l    A0, A5
00001DC6  D1FC FFFE D2D8           add.l      A0, 0xFFFED2D8
00001DCC  1010                     move.b     D0, [A0]
00001DCE  B047                     cmp.w      D0, D7
00001DD0  6E98                     bgt        -0x66 /* 00001D6A */
00001DD2  204D                     movea.l    A0, A5
00001DD4  D1FC FFFE D2D8           add.l      A0, 0xFFFED2D8
00001DDA  1010                     move.b     D0, [A0]
00001DDC  5310                     subq.b     [A0], 1
00001DDE  7001                     moveq.l    D0, 0x01
00001DE0  6018                     bra        +0x1A /* 00001DFA */
label00001DE2:
00001DE2  3006                     move.w     D0, D6
00001DE4  5246                     addq.w     D6, 1
label00001DE6:
00001DE6  7000                     moveq.l    D0, 0x00
00001DE8  204D                     movea.l    A0, A5
00001DEA  D1FC FFFE D2D8           add.l      A0, 0xFFFED2D8
00001DF0  1010                     move.b     D0, [A0]
00001DF2  B046                     cmp.w      D0, D6
00001DF4  6E00 FF46                bgt        -0xB8 /* 00001D3C */
00001DF8  7000                     moveq.l    D0, 0x00
label00001DFA:
00001DFA  4CEE 10F0 FFEC           movem.l    D4,D5,D6,D7,A4, [A6 - 0x14]
00001E00  4E5E                     unlink     A6
00001E02  4E75                     rts
00001E04  9672 656D 6F76 6570 6... dc.b       "removepermsource__FsT1"
export_274:
00001E1E  4E56 0000                link       A6, 0
00001E22  2F0C                     move.l     -[A7], A4
00001E24  204D                     movea.l    A0, A5
00001E26  D1FC FFFE D2DE           add.l      A0, 0xFFFED2DE
00001E2C  49D0                     lea.l      A4, [A0]
00001E2E  7000                     moveq.l    D0, 0x00
00001E30  204D                     movea.l    A0, A5
00001E32  D1FC FFFE D2D8           add.l      A0, 0xFFFED2D8
00001E38  1010                     move.b     D0, [A0]
00001E3A  0C00 003F                cmpi.b     D0, 0x3F /* '?' */
00001E3E  6304                     bls        +0x6 /* 00001E44 */
00001E40  7000                     moveq.l    D0, 0x00
00001E42  605C                     bra        +0x5E /* 00001EA0 */
label00001E44:
00001E44  7000                     moveq.l    D0, 0x00
00001E46  204D                     movea.l    A0, A5
00001E48  D1FC FFFE D2D8           add.l      A0, 0xFFFED2D8
00001E4E  1010                     move.b     D0, [A0]
00001E50  48C0                     ext.l      D0
00001E52  2200                     move.l     D1, D0
00001E54  D080                     add.l      D0, D0
00001E56  D081                     add.l      D0, D1
00001E58  19AE 000B 0000           move.b     [A4 + D0.w], [A6 + 0xB]
00001E5E  7000                     moveq.l    D0, 0x00
00001E60  204D                     movea.l    A0, A5
00001E62  D1FC FFFE D2D8           add.l      A0, 0xFFFED2D8
00001E68  1010                     move.b     D0, [A0]
00001E6A  48C0                     ext.l      D0
00001E6C  2200                     move.l     D1, D0
00001E6E  D080                     add.l      D0, D0
00001E70  D081                     add.l      D0, D1
00001E72  19AE 000F 0001           move.b     [A4 + D0.w + 0x1], [A6 + 0xF]
00001E78  7000                     moveq.l    D0, 0x00
00001E7A  204D                     movea.l    A0, A5
00001E7C  D1FC FFFE D2D8           add.l      A0, 0xFFFED2D8
00001E82  1010                     move.b     D0, [A0]
00001E84  48C0                     ext.l      D0
00001E86  2200                     move.l     D1, D0
00001E88  D080                     add.l      D0, D0
00001E8A  D081                     add.l      D0, D1
00001E8C  19AE 0013 0002           move.b     [A4 + D0.w + 0x2], [A6 + 0x13]
00001E92  204D                     movea.l    A0, A5
00001E94  D1FC FFFE D2D8           add.l      A0, 0xFFFED2D8
00001E9A  1010                     move.b     D0, [A0]
00001E9C  5210                     addq.b     [A0], 1
00001E9E  7001                     moveq.l    D0, 0x01
label00001EA0:
00001EA0  286E FFFC                movea.l    A4, [A6 - 0x4]
00001EA4  4E5E                     unlink     A6
00001EA6  4E75                     rts
00001EA8  9670 7573 6874 6F77 7... dc.b       "pushtowtrstack__FUcN21"
export_275:
00001EC2  4E56 0000                link       A6, 0
00001EC6  2F0C                     move.l     -[A7], A4
00001EC8  204D                     movea.l    A0, A5
00001ECA  D1FC FFFE D2DE           add.l      A0, 0xFFFED2DE
00001ED0  49D0                     lea.l      A4, [A0]
00001ED2  7000                     moveq.l    D0, 0x00
00001ED4  204D                     movea.l    A0, A5
00001ED6  D1FC FFFE D2D8           add.l      A0, 0xFFFED2D8
00001EDC  1010                     move.b     D0, [A0]
00001EDE  4A80                     tst.l      D0
00001EE0  6604                     bne        +0x6 /* 00001EE6 */
00001EE2  7000                     moveq.l    D0, 0x00
00001EE4  6046                     bra        +0x48 /* 00001F2C */
label00001EE6:
00001EE6  204D                     movea.l    A0, A5
00001EE8  D1FC FFFE D2D8           add.l      A0, 0xFFFED2D8
00001EEE  1010                     move.b     D0, [A0]
00001EF0  5310                     subq.b     [A0], 1
00001EF2  7000                     moveq.l    D0, 0x00
00001EF4  204D                     movea.l    A0, A5
00001EF6  D1FC FFFE D2D8           add.l      A0, 0xFFFED2D8
00001EFC  1010                     move.b     D0, [A0]
00001EFE  48C0                     ext.l      D0
00001F00  2200                     move.l     D1, D0
00001F02  D080                     add.l      D0, D0
00001F04  D081                     add.l      D0, D1
00001F06  206E 0008                movea.l    A0, [A6 + 0x8]
00001F0A  10B4 0000                move.b     [A0], [A4 + D0.w]
00001F0E  7000                     moveq.l    D0, 0x00
00001F10  204D                     movea.l    A0, A5
00001F12  D1FC FFFE D2D8           add.l      A0, 0xFFFED2D8
00001F18  1010                     move.b     D0, [A0]
00001F1A  48C0                     ext.l      D0
00001F1C  2200                     move.l     D1, D0
00001F1E  D080                     add.l      D0, D0
00001F20  D081                     add.l      D0, D1
00001F22  206E 000C                movea.l    A0, [A6 + 0xC]
00001F26  10B4 0001                move.b     [A0], [A4 + D0.w + 0x1]
00001F2A  7001                     moveq.l    D0, 0x01
label00001F2C:
00001F2C  286E FFFC                movea.l    A4, [A6 - 0x4]
00001F30  4E5E                     unlink     A6
00001F32  4E75                     rts
00001F34  9670 6F70 6672 6D77 7... dc.b       "popfrmwtrstack__FPUcT1"
fn00001F4E:
00001F4E  4E56 0000                link       A6, 0
00001F52  48E7 0308                movem.l    -[A7], D6,D7,A4
00001F56  1C2E 000F                move.b     D6, [A6 + 0xF]
00001F5A  1E2E 000B                move.b     D7, [A6 + 0xB]
00001F5E  204D                     movea.l    A0, A5
00001F60  D1FC FFFE D39E           add.l      A0, 0xFFFED39E
00001F66  49D0                     lea.l      A4, [A0]
00001F68  7000                     moveq.l    D0, 0x00
00001F6A  1006                     move.b     D0, D6
00001F6C  2F00                     move.l     -[A7], D0
00001F6E  7000                     moveq.l    D0, 0x00
00001F70  1007                     move.b     D0, D7
00001F72  2F00                     move.l     -[A7], D0
00001F74  4EBA F640                jsr        [PC - 0x9C0 /* 000015B6 */]
00001F78  7000                     moveq.l    D0, 0x00
00001F7A  204D                     movea.l    A0, A5
00001F7C  D1FC FFFE D2DA           add.l      A0, 0xFFFED2DA
00001F82  1010                     move.b     D0, [A0]
00001F84  48C0                     ext.l      D0
00001F86  2200                     move.l     D1, D0
00001F88  D080                     add.l      D0, D0
00001F8A  D081                     add.l      D0, D1
00001F8C  1987 0000                move.b     [A4 + D0.w], D7
00001F90  7000                     moveq.l    D0, 0x00
00001F92  204D                     movea.l    A0, A5
00001F94  D1FC FFFE D2DA           add.l      A0, 0xFFFED2DA
00001F9A  1010                     move.b     D0, [A0]
00001F9C  48C0                     ext.l      D0
00001F9E  2200                     move.l     D1, D0
00001FA0  D080                     add.l      D0, D0
00001FA2  D081                     add.l      D0, D1
00001FA4  1986 0001                move.b     [A4 + D0.w + 0x1], D6
00001FA8  7000                     moveq.l    D0, 0x00
00001FAA  204D                     movea.l    A0, A5
00001FAC  D1FC FFFE D2DA           add.l      A0, 0xFFFED2DA
00001FB2  1010                     move.b     D0, [A0]
00001FB4  48C0                     ext.l      D0
00001FB6  2200                     move.l     D1, D0
00001FB8  D080                     add.l      D0, D0
00001FBA  D081                     add.l      D0, D1
00001FBC  19AE 0013 0002           move.b     [A4 + D0.w + 0x2], [A6 + 0x13]
00001FC2  204D                     movea.l    A0, A5
00001FC4  D1FC FFFE D2DA           add.l      A0, 0xFFFED2DA
00001FCA  1010                     move.b     D0, [A0]
00001FCC  5210                     addq.b     [A0], 1
00001FCE  204D                     movea.l    A0, A5
00001FD0  D1FC FFFE D2DA           add.l      A0, 0xFFFED2DA
00001FD6  0210 007F                andi.b     [A0], 0x7F
00001FDA  7001                     moveq.l    D0, 0x01
00001FDC  4CEE 10C0 FFF4           movem.l    D6,D7,A4, [A6 - 0xC]
00001FE2  4E5E                     unlink     A6
00001FE4  4E75                     rts
00001FE6  9361 6464 746F 7761 7... dc.b       "addtowaterq__FUcN21"
fn00001FFC:
00001FFC  4E56 0000                link       A6, 0
00002000  2F0C                     move.l     -[A7], A4
00002002  204D                     movea.l    A0, A5
00002004  D1FC FFFE D39E           add.l      A0, 0xFFFED39E
0000200A  49D0                     lea.l      A4, [A0]
0000200C  204D                     movea.l    A0, A5
0000200E  D1FC FFFE D2DC           add.l      A0, 0xFFFED2DC
00002014  1010                     move.b     D0, [A0]
00002016  204D                     movea.l    A0, A5
00002018  D1FC FFFE D2DA           add.l      A0, 0xFFFED2DA
0000201E  B010                     cmp.b      D0, [A0]
00002020  6604                     bne        +0x6 /* 00002026 */
00002022  7000                     moveq.l    D0, 0x00
00002024  606E                     bra        +0x70 /* 00002094 */
label00002026:
00002026  7000                     moveq.l    D0, 0x00
00002028  204D                     movea.l    A0, A5
0000202A  D1FC FFFE D2DC           add.l      A0, 0xFFFED2DC
00002030  1010                     move.b     D0, [A0]
00002032  48C0                     ext.l      D0
00002034  2200                     move.l     D1, D0
00002036  D080                     add.l      D0, D0
00002038  D081                     add.l      D0, D1
0000203A  206E 0008                movea.l    A0, [A6 + 0x8]
0000203E  10B4 0000                move.b     [A0], [A4 + D0.w]
00002042  7000                     moveq.l    D0, 0x00
00002044  204D                     movea.l    A0, A5
00002046  D1FC FFFE D2DC           add.l      A0, 0xFFFED2DC
0000204C  1010                     move.b     D0, [A0]
0000204E  48C0                     ext.l      D0
00002050  2200                     move.l     D1, D0
00002052  D080                     add.l      D0, D0
00002054  D081                     add.l      D0, D1
00002056  206E 000C                movea.l    A0, [A6 + 0xC]
0000205A  10B4 0001                move.b     [A0], [A4 + D0.w + 0x1]
0000205E  7000                     moveq.l    D0, 0x00
00002060  204D                     movea.l    A0, A5
00002062  D1FC FFFE D2DC           add.l      A0, 0xFFFED2DC
00002068  1010                     move.b     D0, [A0]
0000206A  48C0                     ext.l      D0
0000206C  2200                     move.l     D1, D0
0000206E  D080                     add.l      D0, D0
00002070  D081                     add.l      D0, D1
00002072  206E 0010                movea.l    A0, [A6 + 0x10]
00002076  10B4 0002                move.b     [A0], [A4 + D0.w + 0x2]
0000207A  204D                     movea.l    A0, A5
0000207C  D1FC FFFE D2DC           add.l      A0, 0xFFFED2DC
00002082  1010                     move.b     D0, [A0]
00002084  5210                     addq.b     [A0], 1
00002086  204D                     movea.l    A0, A5
00002088  D1FC FFFE D2DC           add.l      A0, 0xFFFED2DC
0000208E  0210 007F                andi.b     [A0], 0x7F
00002092  7001                     moveq.l    D0, 0x01
label00002094:
00002094  286E FFFC                movea.l    A4, [A6 - 0x4]
00002098  4E5E                     unlink     A6
0000209A  4E75                     rts
0000209C  9667 6574 6672 6F6D 7... dc.b       "getfromwaterq__FPUcN21"
fn000020B6:
000020B6  4E56 FFFA                link       A6, -0x0006
000020BA  48E7 1700                movem.l    -[A7], D3,D5,D6,D7
000020BE  1A2E 000B                move.b     D5, [A6 + 0xB]
000020C2  422E FFFF                clr.b      [A6 - 0x1]
000020C6  7C01                     moveq.l    D6, 0x01
000020C8  6000 02E4                bra        +0x2E6 /* 000023AE */
label000020CC:
000020CC  7000                     moveq.l    D0, 0x00
000020CE  102E FFFD                move.b     D0, [A6 - 0x3]
000020D2  4A80                     tst.l      D0
000020D4  6300 02AE                bls        +0x2B0 /* 00002384 */
000020D8  486E FFFF                pea.l      [A6 - 0x1]
000020DC  102E FFFC                move.b     D0, [A6 - 0x4]
000020E0  49C0                     lea.l      A4, D0
000020E2  2F00                     move.l     -[A7], D0
000020E4  102E FFFB                move.b     D0, [A6 - 0x5]
000020E8  49C0                     lea.l      A4, D0
000020EA  2F00                     move.l     -[A7], D0
000020EC  4EBA F75A                jsr        [PC - 0x8A6 /* 00001848 */]
000020F0  1E00                     move.b     D7, D0
000020F2  7000                     moveq.l    D0, 0x00
000020F4  1007                     move.b     D0, D7
000020F6  0C00 0001                cmpi.b     D0, 0x1
000020FA  4FEF 000C                lea.l      A7, [A7 + 0xC]
000020FE  6300 00E0                bls        +0xE2 /* 000021E0 */
00002102  7000                     moveq.l    D0, 0x00
00002104  1007                     move.b     D0, D7
00002106  7200                     moveq.l    D1, 0x00
00002108  122E FFFD                move.b     D1, [A6 - 0x3]
0000210C  48C1                     ext.l      D1
0000210E  83C0                     divs.w     D1, D0
00002110  1D41 FFFD                move.b     [A6 - 0x3], D1
00002114  7000                     moveq.l    D0, 0x00
00002116  102E FFFF                move.b     D0, [A6 - 0x1]
0000211A  4A80                     tst.l      D0
0000211C  0800 0000                btst.b     D0, 0x0
00002120  6726                     beq        +0x28 /* 00002148 */
00002122  7000                     moveq.l    D0, 0x00
00002124  102E FFFD                move.b     D0, [A6 - 0x3]
00002128  2F00                     move.l     -[A7], D0
0000212A  7000                     moveq.l    D0, 0x00
0000212C  102E FFFC                move.b     D0, [A6 - 0x4]
00002130  5340                     subq.w     D0, 1
00002132  7200                     moveq.l    D1, 0x00
00002134  1200                     move.b     D1, D0
00002136  2F01                     move.l     -[A7], D1
00002138  7000                     moveq.l    D0, 0x00
0000213A  102E FFFB                move.b     D0, [A6 - 0x5]
0000213E  2F00                     move.l     -[A7], D0
00002140  4EBA FE0C                jsr        [PC - 0x1F4 /* 00001F4E */]
00002144  4FEF 000C                lea.l      A7, [A7 + 0xC]
label00002148:
00002148  7000                     moveq.l    D0, 0x00
0000214A  102E FFFF                move.b     D0, [A6 - 0x1]
0000214E  7202                     moveq.l    D1, 0x02
00002150  C200                     and.b      D1, D0
00002152  6724                     beq        +0x26 /* 00002178 */
00002154  7000                     moveq.l    D0, 0x00
00002156  102E FFFD                move.b     D0, [A6 - 0x3]
0000215A  2F00                     move.l     -[A7], D0
0000215C  7000                     moveq.l    D0, 0x00
0000215E  102E FFFC                move.b     D0, [A6 - 0x4]
00002162  2F00                     move.l     -[A7], D0
00002164  102E FFFB                move.b     D0, [A6 - 0x5]
00002168  5200                     addq.b     D0, 1
0000216A  7200                     moveq.l    D1, 0x00
0000216C  1200                     move.b     D1, D0
0000216E  2F01                     move.l     -[A7], D1
00002170  4EBA FDDC                jsr        [PC - 0x224 /* 00001F4E */]
00002174  4FEF 000C                lea.l      A7, [A7 + 0xC]
label00002178:
00002178  7000                     moveq.l    D0, 0x00
0000217A  102E FFFF                move.b     D0, [A6 - 0x1]
0000217E  7204                     moveq.l    D1, 0x04
00002180  C200                     and.b      D1, D0
00002182  6724                     beq        +0x26 /* 000021A8 */
00002184  7000                     moveq.l    D0, 0x00
00002186  102E FFFD                move.b     D0, [A6 - 0x3]
0000218A  2F00                     move.l     -[A7], D0
0000218C  102E FFFC                move.b     D0, [A6 - 0x4]
00002190  5200                     addq.b     D0, 1
00002192  7200                     moveq.l    D1, 0x00
00002194  1200                     move.b     D1, D0
00002196  2F01                     move.l     -[A7], D1
00002198  7000                     moveq.l    D0, 0x00
0000219A  102E FFFB                move.b     D0, [A6 - 0x5]
0000219E  2F00                     move.l     -[A7], D0
000021A0  4EBA FDAC                jsr        [PC - 0x254 /* 00001F4E */]
000021A4  4FEF 000C                lea.l      A7, [A7 + 0xC]
label000021A8:
000021A8  7000                     moveq.l    D0, 0x00
000021AA  102E FFFF                move.b     D0, [A6 - 0x1]
000021AE  7208                     moveq.l    D1, 0x08
000021B0  C200                     and.b      D1, D0
000021B2  6700 01FA                beq        +0x1FC /* 000023AE */
000021B6  7000                     moveq.l    D0, 0x00
000021B8  102E FFFD                move.b     D0, [A6 - 0x3]
000021BC  2F00                     move.l     -[A7], D0
000021BE  7000                     moveq.l    D0, 0x00
000021C0  102E FFFC                move.b     D0, [A6 - 0x4]
000021C4  2F00                     move.l     -[A7], D0
000021C6  7000                     moveq.l    D0, 0x00
000021C8  102E FFFB                move.b     D0, [A6 - 0x5]
000021CC  5340                     subq.w     D0, 1
000021CE  7200                     moveq.l    D1, 0x00
000021D0  1200                     move.b     D1, D0
000021D2  2F01                     move.l     -[A7], D1
000021D4  4EBA FD78                jsr        [PC - 0x288 /* 00001F4E */]
000021D8  4FEF 000C                lea.l      A7, [A7 + 0xC]
000021DC  6000 01D0                bra        +0x1D2 /* 000023AE */
label000021E0:
000021E0  7000                     moveq.l    D0, 0x00
000021E2  1007                     move.b     D0, D7
000021E4  0C40 0001                cmpi.w     D0, 0x1
000021E8  6600 0120                bne        +0x122 /* 0000230A */
000021EC  102E FFFD                move.b     D0, [A6 - 0x3]
000021F0  532E FFFD                subq.b     [A6 - 0x3], 1
000021F4  102E FFFF                move.b     D0, [A6 - 0x1]
000021F8  5300                     subq.b     D0, 1
000021FA  670E                     beq        +0x10 /* 0000220A */
000021FC  5300                     subq.b     D0, 1
000021FE  6714                     beq        +0x16 /* 00002214 */
00002200  5500                     subq.b     D0, 2
00002202  671A                     beq        +0x1C /* 0000221E */
00002204  5900                     subq.b     D0, 4
00002206  6720                     beq        +0x22 /* 00002228 */
00002208  6026                     bra        +0x28 /* 00002230 */
label0000220A:
0000220A  102E FFFC                move.b     D0, [A6 - 0x4]
0000220E  532E FFFC                subq.b     [A6 - 0x4], 1
00002212  601C                     bra        +0x1E /* 00002230 */
label00002214:
00002214  102E FFFB                move.b     D0, [A6 - 0x5]
00002218  522E FFFB                addq.b     [A6 - 0x5], 1
0000221C  6012                     bra        +0x14 /* 00002230 */
label0000221E:
0000221E  102E FFFC                move.b     D0, [A6 - 0x4]
00002222  522E FFFC                addq.b     [A6 - 0x4], 1
00002226  6008                     bra        +0xA /* 00002230 */
label00002228:
00002228  102E FFFB                move.b     D0, [A6 - 0x5]
0000222C  532E FFFB                subq.b     [A6 - 0x5], 1
label00002230:
00002230  7000                     moveq.l    D0, 0x00
00002232  102E FFFC                move.b     D0, [A6 - 0x4]
00002236  7200                     moveq.l    D1, 0x00
00002238  122E FFFB                move.b     D1, [A6 - 0x5]
0000223C  C3FC 00C0                muls.w     D1, 0xC0
00002240  204D                     movea.l    A0, A5
00002242  D1FC FFFE 42D4           add.l      A0, 0xFFFE42D4
00002248  D040                     add.w      D0, D0
0000224A  D041                     add.w      D0, D1
0000224C  7200                     moveq.l    D1, 0x00
0000224E  3230 0000                move.w     D1, [A0 + D0.w]
00002252  303C 07FF                move.w     D0, 0x7FF
00002256  C041                     and.w      D0, D1
00002258  7200                     moveq.l    D1, 0x00
0000225A  3200                     move.w     D1, D0
0000225C  4A81                     tst.l      D1
0000225E  204D                     movea.l    A0, A5
00002260  D1FC FFFF 79BC           add.l      A0, 0xFFFF79BC
00002266  3010                     move.w     D0, [A0]
00002268  48C0                     ext.l      D0
0000226A  B081                     cmp.l      D0, D1
0000226C  6E6C                     bgt        +0x6E /* 000022DA */
0000226E  7000                     moveq.l    D0, 0x00
00002270  102E FFFC                move.b     D0, [A6 - 0x4]
00002274  7200                     moveq.l    D1, 0x00
00002276  122E FFFB                move.b     D1, [A6 - 0x5]
0000227A  C3FC 00C0                muls.w     D1, 0xC0
0000227E  204D                     movea.l    A0, A5
00002280  D1FC FFFE 42D4           add.l      A0, 0xFFFE42D4
00002286  D040                     add.w      D0, D0
00002288  D041                     add.w      D0, D1
0000228A  7200                     moveq.l    D1, 0x00
0000228C  3230 0000                move.w     D1, [A0 + D0.w]
00002290  303C 07FF                move.w     D0, 0x7FF
00002294  C041                     and.w      D0, D1
00002296  7200                     moveq.l    D1, 0x00
00002298  3200                     move.w     D1, D0
0000229A  4A81                     tst.l      D1
0000229C  204D                     movea.l    A0, A5
0000229E  D1FC FFFF 79BC           add.l      A0, 0xFFFF79BC
000022A4  3010                     move.w     D0, [A0]
000022A6  48C0                     ext.l      D0
000022A8  7400                     moveq.l    D2, 0x00
000022AA  204D                     movea.l    A0, A5
000022AC  D1FC FFFF 78DF           add.l      A0, 0xFFFF78DF
000022B2  1410                     move.b     D2, [A0]
000022B4  D480                     add.l      D2, D0
000022B6  B481                     cmp.l      D2, D1
000022B8  6F20                     ble        +0x22 /* 000022DA */
000022BA  7040                     moveq.l    D0, 0x40
000022BC  2F00                     move.l     -[A7], D0
000022BE  7200                     moveq.l    D1, 0x00
000022C0  122E FFFC                move.b     D1, [A6 - 0x4]
000022C4  2F01                     move.l     -[A7], D1
000022C6  7200                     moveq.l    D1, 0x00
000022C8  122E FFFB                move.b     D1, [A6 - 0x5]
000022CC  2F01                     move.l     -[A7], D1
000022CE  4EBA FC7E                jsr        [PC - 0x382 /* 00001F4E */]
000022D2  4FEF 000C                lea.l      A7, [A7 + 0xC]
000022D6  6000 00D6                bra        +0xD8 /* 000023AE */
label000022DA:
000022DA  7000                     moveq.l    D0, 0x00
000022DC  102E FFFD                move.b     D0, [A6 - 0x3]
000022E0  4A80                     tst.l      D0
000022E2  6300 00CA                bls        +0xCC /* 000023AE */
000022E6  7000                     moveq.l    D0, 0x00
000022E8  102E FFFD                move.b     D0, [A6 - 0x3]
000022EC  2F00                     move.l     -[A7], D0
000022EE  7000                     moveq.l    D0, 0x00
000022F0  102E FFFC                move.b     D0, [A6 - 0x4]
000022F4  2F00                     move.l     -[A7], D0
000022F6  7000                     moveq.l    D0, 0x00
000022F8  102E FFFB                move.b     D0, [A6 - 0x5]
000022FC  2F00                     move.l     -[A7], D0
000022FE  4EBA FC4E                jsr        [PC - 0x3B2 /* 00001F4E */]
00002302  4FEF 000C                lea.l      A7, [A7 + 0xC]
00002306  6000 00A6                bra        +0xA8 /* 000023AE */
label0000230A:
0000230A  7000                     moveq.l    D0, 0x00
0000230C  1007                     move.b     D0, D7
0000230E  4A80                     tst.l      D0
00002310  6600 009C                bne        +0x9E /* 000023AE */
00002314  7000                     moveq.l    D0, 0x00
00002316  102E FFFD                move.b     D0, [A6 - 0x3]
0000231A  4A80                     tst.l      D0
0000231C  6300 0090                bls        +0x92 /* 000023AE */
00002320  486E FFFE                pea.l      [A6 - 0x2]
00002324  486E FFFC                pea.l      [A6 - 0x4]
00002328  486E FFFB                pea.l      [A6 - 0x5]
0000232C  4EBA FCCE                jsr        [PC - 0x332 /* 00001FFC */]
00002330  4A40                     tst.w      D0
00002332  4FEF 000C                lea.l      A7, [A7 + 0xC]
00002336  6776                     beq        +0x78 /* 000023AE */
00002338  7000                     moveq.l    D0, 0x00
0000233A  102E FFFD                move.b     D0, [A6 - 0x3]
0000233E  7200                     moveq.l    D1, 0x00
00002340  122E FFFE                move.b     D1, [A6 - 0x2]
00002344  3C01                     move.w     D6, D1
00002346  DC40                     add.w      D6, D0
00002348  7000                     moveq.l    D0, 0x00
0000234A  3006                     move.w     D0, D6
0000234C  0C40 00FF                cmpi.w     D0, 0xFF
00002350  6304                     bls        +0x6 /* 00002356 */
00002352  3C3C 00FF                move.w     D6, 0xFF
label00002356:
00002356  1D46 FFFD                move.b     [A6 - 0x3], D6
0000235A  102E FFFE                move.b     D0, [A6 - 0x2]
0000235E  D12E FFFD                add.b      [A6 - 0x3], D0
00002362  7000                     moveq.l    D0, 0x00
00002364  102E FFFD                move.b     D0, [A6 - 0x3]
00002368  2F00                     move.l     -[A7], D0
0000236A  7000                     moveq.l    D0, 0x00
0000236C  102E FFFC                move.b     D0, [A6 - 0x4]
00002370  2F00                     move.l     -[A7], D0
00002372  7000                     moveq.l    D0, 0x00
00002374  102E FFFB                move.b     D0, [A6 - 0x5]
00002378  2F00                     move.l     -[A7], D0
0000237A  4EBA FBD2                jsr        [PC - 0x42E /* 00001F4E */]
0000237E  4FEF 000C                lea.l      A7, [A7 + 0xC]
00002382  602A                     bra        +0x2C /* 000023AE */
label00002384:
00002384  7000                     moveq.l    D0, 0x00
00002386  102E FFFD                move.b     D0, [A6 - 0x3]
0000238A  4A80                     tst.l      D0
0000238C  6620                     bne        +0x22 /* 000023AE */
0000238E  7000                     moveq.l    D0, 0x00
00002390  102E FFFD                move.b     D0, [A6 - 0x3]
00002394  2F00                     move.l     -[A7], D0
00002396  7000                     moveq.l    D0, 0x00
00002398  102E FFFC                move.b     D0, [A6 - 0x4]
0000239C  2F00                     move.l     -[A7], D0
0000239E  7000                     moveq.l    D0, 0x00
000023A0  102E FFFB                move.b     D0, [A6 - 0x5]
000023A4  2F00                     move.l     -[A7], D0
000023A6  4EBA FBA6                jsr        [PC - 0x45A /* 00001F4E */]
000023AA  4FEF 000C                lea.l      A7, [A7 + 0xC]
label000023AE:
000023AE  1005                     move.b     D0, D5
000023B0  5305                     subq.b     D5, 1
000023B2  4A00                     tst.b      D0
000023B4  671A                     beq        +0x1C /* 000023D0 */
000023B6  486E FFFD                pea.l      [A6 - 0x3]
000023BA  486E FFFC                pea.l      [A6 - 0x4]
000023BE  486E FFFB                pea.l      [A6 - 0x5]
000023C2  4EBA FC38                jsr        [PC - 0x3C8 /* 00001FFC */]
000023C6  4A40                     tst.w      D0
000023C8  4FEF 000C                lea.l      A7, [A7 + 0xC]
000023CC  6600 FCFE                bne        -0x300 /* 000020CC */
label000023D0:
000023D0  4A05                     tst.b      D5
000023D2  5EC3                     sgt        D3
000023D4  4403                     neg.b      D3
000023D6  5303                     subq.b     D3, 1
000023D8  9703                     subx.b     D3, D3
000023DA  5203                     addq.b     D3, 1
000023DC  1003                     move.b     D0, D3
000023DE  4CEE 00E8 FFEA           movem.l    D3,D5,D6,D7, [A6 - 0x16]
000023E4  4E5E                     unlink     A6
000023E6  4E75                     rts
000023E8  8E77 6174 6572 7472 6... dc.b       "watertrace__Fc"
export_276:
000023FA  4E56 0000                link       A6, 0
000023FE  48E7 0018                movem.l    -[A7], A3,A4
00002402  204D                     movea.l    A0, A5
00002404  D1FC FFFE D828           add.l      A0, 0xFFFED828
0000240A  47D0                     lea.l      A3, [A0]
0000240C  204D                     movea.l    A0, A5
0000240E  D1FC FFFE D734           add.l      A0, 0xFFFED734
00002414  49D0                     lea.l      A4, [A0]
00002416  102E 000B                move.b     D0, [A6 + 0xB]
0000241A  4880                     ext.w      D0
0000241C  204D                     movea.l    A0, A5
0000241E  D1FC FFFE D826           add.l      A0, 0xFFFED826
00002424  1210                     move.b     D1, [A0]
00002426  4881                     ext.w      D1
00002428  C3FC 0030                muls.w     D1, 0x30 /* '0' */
0000242C  D240                     add.w      D1, D0
0000242E  204D                     movea.l    A0, A5
00002430  D1FC FFFE D54C           add.l      A0, 0xFFFED54C
00002436  10B4 1000                move.b     [A0], [A4 + D1.w]
0000243A  204D                     movea.l    A0, A5
0000243C  D1FC FFFE D824           add.l      A0, 0xFFFED824
00002442  1010                     move.b     D0, [A0]
00002444  204D                     movea.l    A0, A5
00002446  D1FC FFFE D54C           add.l      A0, 0xFFFED54C
0000244C  D110                     add.b      [A0], D0
0000244E  204D                     movea.l    A0, A5
00002450  D1FC FFFE D824           add.l      A0, 0xFFFED824
00002456  4A10                     tst.b      [A0]
00002458  6F0C                     ble        +0xE /* 00002466 */
0000245A  204D                     movea.l    A0, A5
0000245C  D1FC FFFE D824           add.l      A0, 0xFFFED824
00002462  1010                     move.b     D0, [A0]
00002464  5310                     subq.b     [A0], 1
label00002466:
00002466  204D                     movea.l    A0, A5
00002468  D1FC FFFE D54C           add.l      A0, 0xFFFED54C
0000246E  1010                     move.b     D0, [A0]
00002470  E600                     asr        D0.b, 3
00002472  4880                     ext.w      D0
00002474  1033 0000                move.b     D0, [A3 + D0.w]
00002478  49C0                     lea.l      A4, D0
0000247A  204D                     movea.l    A0, A5
0000247C  D1FC FFFD CE62           add.l      A0, 0xFFFDCE62
00002482  2080                     move.l     [A0], D0
00002484  7023                     moveq.l    D0, 0x23
00002486  204D                     movea.l    A0, A5
00002488  D1FC FFFE D54C           add.l      A0, 0xFFFED54C
0000248E  B010                     cmp.b      D0, [A0]
00002490  6E0A                     bgt        +0xC /* 0000249C */
00002492  7006                     moveq.l    D0, 0x06
00002494  2F00                     move.l     -[A7], D0
00002496  4EAD 0342                jsr        [A5 + 0x342 /* export_100, CODE:6 @ 00000136 */]
0000249A  584F                     addq.w     A7, 4
label0000249C:
0000249C  7046                     moveq.l    D0, 0x46
0000249E  204D                     movea.l    A0, A5
000024A0  D1FC FFFE D54C           add.l      A0, 0xFFFED54C
000024A6  B010                     cmp.b      D0, [A0]
000024A8  6C0A                     bge        +0xC /* 000024B4 */
000024AA  7001                     moveq.l    D0, 0x01
000024AC  2F00                     move.l     -[A7], D0
000024AE  4EAD 0342                jsr        [A5 + 0x342 /* export_100, CODE:6 @ 00000136 */]
000024B2  584F                     addq.w     A7, 4
label000024B4:
000024B4  7000                     moveq.l    D0, 0x00
000024B6  204D                     movea.l    A0, A5
000024B8  D1FC FFFD AD20           add.l      A0, 0xFFFDAD20
000024BE  1010                     move.b     D0, [A0]
000024C0  7201                     moveq.l    D1, 0x01
000024C2  C200                     and.b      D1, D0
000024C4  6718                     beq        +0x1A /* 000024DE */
000024C6  7046                     moveq.l    D0, 0x46
000024C8  204D                     movea.l    A0, A5
000024CA  D1FC FFFE D54C           add.l      A0, 0xFFFED54C
000024D0  B010                     cmp.b      D0, [A0]
000024D2  6F0A                     ble        +0xC /* 000024DE */
000024D4  7001                     moveq.l    D0, 0x01
000024D6  2F00                     move.l     -[A7], D0
000024D8  4EAD 034A                jsr        [A5 + 0x34A /* export_101, CODE:6 @ 00000EB2 */]
000024DC  584F                     addq.w     A7, 4
label000024DE:
000024DE  7000                     moveq.l    D0, 0x00
000024E0  204D                     movea.l    A0, A5
000024E2  D1FC FFFD AD20           add.l      A0, 0xFFFDAD20
000024E8  1010                     move.b     D0, [A0]
000024EA  7208                     moveq.l    D1, 0x08
000024EC  C200                     and.b      D1, D0
000024EE  6718                     beq        +0x1A /* 00002508 */
000024F0  7023                     moveq.l    D0, 0x23
000024F2  204D                     movea.l    A0, A5
000024F4  D1FC FFFE D54C           add.l      A0, 0xFFFED54C
000024FA  B010                     cmp.b      D0, [A0]
000024FC  6F0A                     ble        +0xC /* 00002508 */
000024FE  7006                     moveq.l    D0, 0x06
00002500  2F00                     move.l     -[A7], D0
00002502  4EAD 034A                jsr        [A5 + 0x34A /* export_101, CODE:6 @ 00000EB2 */]
00002506  584F                     addq.w     A7, 4
label00002508:
00002508  4CEE 1800 FFF8           movem.l    A3,A4, [A6 - 0x8]
0000250E  4E5E                     unlink     A6
00002510  4E75                     rts
00002512  9173 6574 7765 656B 6... dc.b       "setweeklywind__Fc"
export_277:
00002526  4E56 FFFC                link       A6, -0x0004
0000252A  48E7 0300                movem.l    -[A7], D6,D7
0000252E  3E2E 000A                move.w     D7, [A6 + 0xA]
00002532  4246                     clr.w      D6
00002534  2007                     move.l     D0, D7
00002536  C1FC 0044                muls.w     D0, 0x44 /* 'D' */
0000253A  204D                     movea.l    A0, A5
0000253C  D1FC FFFD AFAE           add.l      A0, 0xFFFDAFAE
00002542  1030 000A                move.b     D0, [A0 + D0.w + 0xA]
00002546  5500                     subq.b     D0, 2
00002548  1D40 FFFC                move.b     [A6 - 0x4], D0
0000254C  4880                     ext.w      D0
0000254E  2207                     move.l     D1, D7
00002550  C3FC 0044                muls.w     D1, 0x44 /* 'D' */
00002554  204D                     movea.l    A0, A5
00002556  D1FC FFFD AFAE           add.l      A0, 0xFFFDAFAE
0000255C  1230 100C                move.b     D1, [A0 + D1.w + 0xC]
00002560  4881                     ext.w      D1
00002562  D240                     add.w      D1, D0
00002564  5801                     addq.b     D1, 4
00002566  1D41 FFFD                move.b     [A6 - 0x3], D1
0000256A  2007                     move.l     D0, D7
0000256C  C1FC 0044                muls.w     D0, 0x44 /* 'D' */
00002570  204D                     movea.l    A0, A5
00002572  D1FC FFFD AFAE           add.l      A0, 0xFFFDAFAE
00002578  1030 000B                move.b     D0, [A0 + D0.w + 0xB]
0000257C  5500                     subq.b     D0, 2
0000257E  1D40 FFFE                move.b     [A6 - 0x2], D0
00002582  4880                     ext.w      D0
00002584  2207                     move.l     D1, D7
00002586  C3FC 0044                muls.w     D1, 0x44 /* 'D' */
0000258A  204D                     movea.l    A0, A5
0000258C  D1FC FFFD AFAE           add.l      A0, 0xFFFDAFAE
00002592  1230 100D                move.b     D1, [A0 + D1.w + 0xD]
00002596  4881                     ext.w      D1
00002598  D240                     add.w      D1, D0
0000259A  5801                     addq.b     D1, 4
0000259C  1D41 FFFF                move.b     [A6 - 0x1], D1
000025A0  486E FFFE                pea.l      [A6 - 0x2]
000025A4  486E FFFC                pea.l      [A6 - 0x4]
000025A8  4EAD 084A                jsr        [A5 + 0x84A /* export_261, CODE:14 @ 000057DA */]
000025AC  486E FFFF                pea.l      [A6 - 0x1]
000025B0  486E FFFD                pea.l      [A6 - 0x3]
000025B4  4EAD 084A                jsr        [A5 + 0x84A /* export_261, CODE:14 @ 000057DA */]
000025B8  102E FFFC                move.b     D0, [A6 - 0x4]
000025BC  4880                     ext.w      D0
000025BE  3E00                     move.w     D7, D0
000025C0  4FEF 0010                lea.l      A7, [A7 + 0x10]
000025C4  6000 0220                bra        +0x222 /* 000027E6 */
label000025C8:
000025C8  102E FFFE                move.b     D0, [A6 - 0x2]
000025CC  4880                     ext.w      D0
000025CE  2207                     move.l     D1, D7
000025D0  C3FC 00C0                muls.w     D1, 0xC0
000025D4  204D                     movea.l    A0, A5
000025D6  D1FC FFFE 42D4           add.l      A0, 0xFFFE42D4
000025DC  D040                     add.w      D0, D0
000025DE  D041                     add.w      D0, D1
000025E0  7200                     moveq.l    D1, 0x00
000025E2  3230 0000                move.w     D1, [A0 + D0.w]
000025E6  303C 07FF                move.w     D0, 0x7FF
000025EA  C041                     and.w      D0, D1
000025EC  7200                     moveq.l    D1, 0x00
000025EE  3200                     move.w     D1, D0
000025F0  4A81                     tst.l      D1
000025F2  204D                     movea.l    A0, A5
000025F4  D1FC FFFF 79BE           add.l      A0, 0xFFFF79BE
000025FA  3010                     move.w     D0, [A0]
000025FC  48C0                     ext.l      D0
000025FE  B081                     cmp.l      D0, D1
00002600  6E4A                     bgt        +0x4C /* 0000264C */
00002602  102E FFFE                move.b     D0, [A6 - 0x2]
00002606  4880                     ext.w      D0
00002608  2207                     move.l     D1, D7
0000260A  C3FC 00C0                muls.w     D1, 0xC0
0000260E  204D                     movea.l    A0, A5
00002610  D1FC FFFE 42D4           add.l      A0, 0xFFFE42D4
00002616  D040                     add.w      D0, D0
00002618  D041                     add.w      D0, D1
0000261A  7200                     moveq.l    D1, 0x00
0000261C  3230 0000                move.w     D1, [A0 + D0.w]
00002620  303C 07FF                move.w     D0, 0x7FF
00002624  C041                     and.w      D0, D1
00002626  7200                     moveq.l    D1, 0x00
00002628  3200                     move.w     D1, D0
0000262A  4A81                     tst.l      D1
0000262C  204D                     movea.l    A0, A5
0000262E  D1FC FFFF 79BE           add.l      A0, 0xFFFF79BE
00002634  3010                     move.w     D0, [A0]
00002636  48C0                     ext.l      D0
00002638  7400                     moveq.l    D2, 0x00
0000263A  204D                     movea.l    A0, A5
0000263C  D1FC FFFF 78E0           add.l      A0, 0xFFFF78E0
00002642  1410                     move.b     D2, [A0]
00002644  D480                     add.l      D2, D0
00002646  B481                     cmp.l      D2, D1
00002648  6E00 0194                bgt        +0x196 /* 000027DE */
label0000264C:
0000264C  102E FFFE                move.b     D0, [A6 - 0x2]
00002650  4880                     ext.w      D0
00002652  5240                     addq.w     D0, 1
00002654  2207                     move.l     D1, D7
00002656  C3FC 00C0                muls.w     D1, 0xC0
0000265A  204D                     movea.l    A0, A5
0000265C  D1FC FFFE 42D4           add.l      A0, 0xFFFE42D4
00002662  D040                     add.w      D0, D0
00002664  D041                     add.w      D0, D1
00002666  7200                     moveq.l    D1, 0x00
00002668  3230 0000                move.w     D1, [A0 + D0.w]
0000266C  303C 07FF                move.w     D0, 0x7FF
00002670  C041                     and.w      D0, D1
00002672  7200                     moveq.l    D1, 0x00
00002674  3200                     move.w     D1, D0
00002676  4A81                     tst.l      D1
00002678  204D                     movea.l    A0, A5
0000267A  D1FC FFFF 79BE           add.l      A0, 0xFFFF79BE
00002680  3010                     move.w     D0, [A0]
00002682  48C0                     ext.l      D0
00002684  B081                     cmp.l      D0, D1
00002686  6E4C                     bgt        +0x4E /* 000026D4 */
00002688  102E FFFE                move.b     D0, [A6 - 0x2]
0000268C  4880                     ext.w      D0
0000268E  5240                     addq.w     D0, 1
00002690  2207                     move.l     D1, D7
00002692  C3FC 00C0                muls.w     D1, 0xC0
00002696  204D                     movea.l    A0, A5
00002698  D1FC FFFE 42D4           add.l      A0, 0xFFFE42D4
0000269E  D040                     add.w      D0, D0
000026A0  D041                     add.w      D0, D1
000026A2  7200                     moveq.l    D1, 0x00
000026A4  3230 0000                move.w     D1, [A0 + D0.w]
000026A8  303C 07FF                move.w     D0, 0x7FF
000026AC  C041                     and.w      D0, D1
000026AE  7200                     moveq.l    D1, 0x00
000026B0  3200                     move.w     D1, D0
000026B2  4A81                     tst.l      D1
000026B4  204D                     movea.l    A0, A5
000026B6  D1FC FFFF 79BE           add.l      A0, 0xFFFF79BE
000026BC  3010                     move.w     D0, [A0]
000026BE  48C0                     ext.l      D0
000026C0  7400                     moveq.l    D2, 0x00
000026C2  204D                     movea.l    A0, A5
000026C4  D1FC FFFF 78E0           add.l      A0, 0xFFFF78E0
000026CA  1410                     move.b     D2, [A0]
000026CC  D480                     add.l      D2, D0
000026CE  B481                     cmp.l      D2, D1
000026D0  6E00 010C                bgt        +0x10E /* 000027DE */
label000026D4:
000026D4  102E FFFF                move.b     D0, [A6 - 0x1]
000026D8  4880                     ext.w      D0
000026DA  2207                     move.l     D1, D7
000026DC  C3FC 00C0                muls.w     D1, 0xC0
000026E0  204D                     movea.l    A0, A5
000026E2  D1FC FFFE 42D4           add.l      A0, 0xFFFE42D4
000026E8  D040                     add.w      D0, D0
000026EA  D041                     add.w      D0, D1
000026EC  7200                     moveq.l    D1, 0x00
000026EE  3230 0000                move.w     D1, [A0 + D0.w]
000026F2  303C 07FF                move.w     D0, 0x7FF
000026F6  C041                     and.w      D0, D1
000026F8  7200                     moveq.l    D1, 0x00
000026FA  3200                     move.w     D1, D0
000026FC  4A81                     tst.l      D1
000026FE  204D                     movea.l    A0, A5
00002700  D1FC FFFF 79BE           add.l      A0, 0xFFFF79BE
00002706  3010                     move.w     D0, [A0]
00002708  48C0                     ext.l      D0
0000270A  B081                     cmp.l      D0, D1
0000270C  6E4A                     bgt        +0x4C /* 00002758 */
0000270E  102E FFFF                move.b     D0, [A6 - 0x1]
00002712  4880                     ext.w      D0
00002714  2207                     move.l     D1, D7
00002716  C3FC 00C0                muls.w     D1, 0xC0
0000271A  204D                     movea.l    A0, A5
0000271C  D1FC FFFE 42D4           add.l      A0, 0xFFFE42D4
00002722  D040                     add.w      D0, D0
00002724  D041                     add.w      D0, D1
00002726  7200                     moveq.l    D1, 0x00
00002728  3230 0000                move.w     D1, [A0 + D0.w]
0000272C  303C 07FF                move.w     D0, 0x7FF
00002730  C041                     and.w      D0, D1
00002732  7200                     moveq.l    D1, 0x00
00002734  3200                     move.w     D1, D0
00002736  4A81                     tst.l      D1
00002738  204D                     movea.l    A0, A5
0000273A  D1FC FFFF 79BE           add.l      A0, 0xFFFF79BE
00002740  3010                     move.w     D0, [A0]
00002742  48C0                     ext.l      D0
00002744  7400                     moveq.l    D2, 0x00
00002746  204D                     movea.l    A0, A5
00002748  D1FC FFFF 78E0           add.l      A0, 0xFFFF78E0
0000274E  1410                     move.b     D2, [A0]
00002750  D480                     add.l      D2, D0
00002752  B481                     cmp.l      D2, D1
00002754  6E00 0088                bgt        +0x8A /* 000027DE */
label00002758:
00002758  102E FFFF                move.b     D0, [A6 - 0x1]
0000275C  4880                     ext.w      D0
0000275E  5340                     subq.w     D0, 1
00002760  2207                     move.l     D1, D7
00002762  C3FC 00C0                muls.w     D1, 0xC0
00002766  204D                     movea.l    A0, A5
00002768  D1FC FFFE 42D4           add.l      A0, 0xFFFE42D4
0000276E  D040                     add.w      D0, D0
00002770  D041                     add.w      D0, D1
00002772  7200                     moveq.l    D1, 0x00
00002774  3230 0000                move.w     D1, [A0 + D0.w]
00002778  303C 07FF                move.w     D0, 0x7FF
0000277C  C041                     and.w      D0, D1
0000277E  7200                     moveq.l    D1, 0x00
00002780  3200                     move.w     D1, D0
00002782  4A81                     tst.l      D1
00002784  204D                     movea.l    A0, A5
00002786  D1FC FFFF 79BE           add.l      A0, 0xFFFF79BE
0000278C  3010                     move.w     D0, [A0]
0000278E  48C0                     ext.l      D0
00002790  B081                     cmp.l      D0, D1
00002792  6E4E                     bgt        +0x50 /* 000027E2 */
00002794  102E FFFF                move.b     D0, [A6 - 0x1]
00002798  4880                     ext.w      D0
0000279A  5340                     subq.w     D0, 1
0000279C  2207                     move.l     D1, D7
0000279E  C3FC 00C0                muls.w     D1, 0xC0
000027A2  204D                     movea.l    A0, A5
000027A4  D1FC FFFE 42D4           add.l      A0, 0xFFFE42D4
000027AA  D040                     add.w      D0, D0
000027AC  D041                     add.w      D0, D1
000027AE  7200                     moveq.l    D1, 0x00
000027B0  3230 0000                move.w     D1, [A0 + D0.w]
000027B4  303C 07FF                move.w     D0, 0x7FF
000027B8  C041                     and.w      D0, D1
000027BA  7200                     moveq.l    D1, 0x00
000027BC  3200                     move.w     D1, D0
000027BE  4A81                     tst.l      D1
000027C0  204D                     movea.l    A0, A5
000027C2  D1FC FFFF 79BE           add.l      A0, 0xFFFF79BE
000027C8  3010                     move.w     D0, [A0]
000027CA  48C0                     ext.l      D0
000027CC  7400                     moveq.l    D2, 0x00
000027CE  204D                     movea.l    A0, A5
000027D0  D1FC FFFF 78E0           add.l      A0, 0xFFFF78E0
000027D6  1410                     move.b     D2, [A0]
000027D8  D480                     add.l      D2, D0
000027DA  B481                     cmp.l      D2, D1
000027DC  6F04                     ble        +0x6 /* 000027E2 */
label000027DE:
000027DE  3006                     move.w     D0, D6
000027E0  5246                     addq.w     D6, 1
label000027E2:
000027E2  3007                     move.w     D0, D7
000027E4  5247                     addq.w     D7, 1
label000027E6:
000027E6  102E FFFD                move.b     D0, [A6 - 0x3]
000027EA  4880                     ext.w      D0
000027EC  B047                     cmp.w      D0, D7
000027EE  6E00 FDD8                bgt        -0x226 /* 000025C8 */
000027F2  102E FFFE                move.b     D0, [A6 - 0x2]
000027F6  4880                     ext.w      D0
000027F8  3E00                     move.w     D7, D0
000027FA  6000 0220                bra        +0x222 /* 00002A1C */
label000027FE:
000027FE  102E FFFC                move.b     D0, [A6 - 0x4]
00002802  4880                     ext.w      D0
00002804  C1FC 00C0                muls.w     D0, 0xC0
00002808  204D                     movea.l    A0, A5
0000280A  D1FC FFFE 42D4           add.l      A0, 0xFFFE42D4
00002810  2207                     move.l     D1, D7
00002812  D241                     add.w      D1, D1
00002814  D240                     add.w      D1, D0
00002816  7000                     moveq.l    D0, 0x00
00002818  3030 1000                move.w     D0, [A0 + D1.w]
0000281C  323C 07FF                move.w     D1, 0x7FF
00002820  C240                     and.w      D1, D0
00002822  7000                     moveq.l    D0, 0x00
00002824  3001                     move.w     D0, D1
00002826  4A80                     tst.l      D0
00002828  204D                     movea.l    A0, A5
0000282A  D1FC FFFF 79BE           add.l      A0, 0xFFFF79BE
00002830  3210                     move.w     D1, [A0]
00002832  48C1                     ext.l      D1
00002834  B280                     cmp.l      D1, D0
00002836  6E4A                     bgt        +0x4C /* 00002882 */
00002838  102E FFFC                move.b     D0, [A6 - 0x4]
0000283C  4880                     ext.w      D0
0000283E  C1FC 00C0                muls.w     D0, 0xC0
00002842  204D                     movea.l    A0, A5
00002844  D1FC FFFE 42D4           add.l      A0, 0xFFFE42D4
0000284A  2207                     move.l     D1, D7
0000284C  D241                     add.w      D1, D1
0000284E  D240                     add.w      D1, D0
00002850  7000                     moveq.l    D0, 0x00
00002852  3030 1000                move.w     D0, [A0 + D1.w]
00002856  323C 07FF                move.w     D1, 0x7FF
0000285A  C240                     and.w      D1, D0
0000285C  7000                     moveq.l    D0, 0x00
0000285E  3001                     move.w     D0, D1
00002860  4A80                     tst.l      D0
00002862  204D                     movea.l    A0, A5
00002864  D1FC FFFF 79BE           add.l      A0, 0xFFFF79BE
0000286A  3210                     move.w     D1, [A0]
0000286C  48C1                     ext.l      D1
0000286E  7400                     moveq.l    D2, 0x00
00002870  204D                     movea.l    A0, A5
00002872  D1FC FFFF 78E0           add.l      A0, 0xFFFF78E0
00002878  1410                     move.b     D2, [A0]
0000287A  D481                     add.l      D2, D1
0000287C  B480                     cmp.l      D2, D0
0000287E  6E00 0194                bgt        +0x196 /* 00002A14 */
label00002882:
00002882  102E FFFC                move.b     D0, [A6 - 0x4]
00002886  4880                     ext.w      D0
00002888  5240                     addq.w     D0, 1
0000288A  C1FC 00C0                muls.w     D0, 0xC0
0000288E  204D                     movea.l    A0, A5
00002890  D1FC FFFE 42D4           add.l      A0, 0xFFFE42D4
00002896  2207                     move.l     D1, D7
00002898  D241                     add.w      D1, D1
0000289A  D240                     add.w      D1, D0
0000289C  7000                     moveq.l    D0, 0x00
0000289E  3030 1000                move.w     D0, [A0 + D1.w]
000028A2  323C 07FF                move.w     D1, 0x7FF
000028A6  C240                     and.w      D1, D0
000028A8  7000                     moveq.l    D0, 0x00
000028AA  3001                     move.w     D0, D1
000028AC  4A80                     tst.l      D0
000028AE  204D                     movea.l    A0, A5
000028B0  D1FC FFFF 79BE           add.l      A0, 0xFFFF79BE
000028B6  3210                     move.w     D1, [A0]
000028B8  48C1                     ext.l      D1
000028BA  B280                     cmp.l      D1, D0
000028BC  6E4C                     bgt        +0x4E /* 0000290A */
000028BE  102E FFFC                move.b     D0, [A6 - 0x4]
000028C2  4880                     ext.w      D0
000028C4  5240                     addq.w     D0, 1
000028C6  C1FC 00C0                muls.w     D0, 0xC0
000028CA  204D                     movea.l    A0, A5
000028CC  D1FC FFFE 42D4           add.l      A0, 0xFFFE42D4
000028D2  2207                     move.l     D1, D7
000028D4  D241                     add.w      D1, D1
000028D6  D240                     add.w      D1, D0
000028D8  7000                     moveq.l    D0, 0x00
000028DA  3030 1000                move.w     D0, [A0 + D1.w]
000028DE  323C 07FF                move.w     D1, 0x7FF
000028E2  C240                     and.w      D1, D0
000028E4  7000                     moveq.l    D0, 0x00
000028E6  3001                     move.w     D0, D1
000028E8  4A80                     tst.l      D0
000028EA  204D                     movea.l    A0, A5
000028EC  D1FC FFFF 79BE           add.l      A0, 0xFFFF79BE
000028F2  3210                     move.w     D1, [A0]
000028F4  48C1                     ext.l      D1
000028F6  7400                     moveq.l    D2, 0x00
000028F8  204D                     movea.l    A0, A5
000028FA  D1FC FFFF 78E0           add.l      A0, 0xFFFF78E0
00002900  1410                     move.b     D2, [A0]
00002902  D481                     add.l      D2, D1
00002904  B480                     cmp.l      D2, D0
00002906  6E00 010C                bgt        +0x10E /* 00002A14 */
label0000290A:
0000290A  102E FFFD                move.b     D0, [A6 - 0x3]
0000290E  4880                     ext.w      D0
00002910  C1FC 00C0                muls.w     D0, 0xC0
00002914  204D                     movea.l    A0, A5
00002916  D1FC FFFE 42D4           add.l      A0, 0xFFFE42D4
0000291C  2207                     move.l     D1, D7
0000291E  D241                     add.w      D1, D1
00002920  D240                     add.w      D1, D0
00002922  7000                     moveq.l    D0, 0x00
00002924  3030 1000                move.w     D0, [A0 + D1.w]
00002928  323C 07FF                move.w     D1, 0x7FF
0000292C  C240                     and.w      D1, D0
0000292E  7000                     moveq.l    D0, 0x00
00002930  3001                     move.w     D0, D1
00002932  4A80                     tst.l      D0
00002934  204D                     movea.l    A0, A5
00002936  D1FC FFFF 79BE           add.l      A0, 0xFFFF79BE
0000293C  3210                     move.w     D1, [A0]
0000293E  48C1                     ext.l      D1
00002940  B280                     cmp.l      D1, D0
00002942  6E4A                     bgt        +0x4C /* 0000298E */
00002944  102E FFFD                move.b     D0, [A6 - 0x3]
00002948  4880                     ext.w      D0
0000294A  C1FC 00C0                muls.w     D0, 0xC0
0000294E  204D                     movea.l    A0, A5
00002950  D1FC FFFE 42D4           add.l      A0, 0xFFFE42D4
00002956  2207                     move.l     D1, D7
00002958  D241                     add.w      D1, D1
0000295A  D240                     add.w      D1, D0
0000295C  7000                     moveq.l    D0, 0x00
0000295E  3030 1000                move.w     D0, [A0 + D1.w]
00002962  323C 07FF                move.w     D1, 0x7FF
00002966  C240                     and.w      D1, D0
00002968  7000                     moveq.l    D0, 0x00
0000296A  3001                     move.w     D0, D1
0000296C  4A80                     tst.l      D0
0000296E  204D                     movea.l    A0, A5
00002970  D1FC FFFF 79BE           add.l      A0, 0xFFFF79BE
00002976  3210                     move.w     D1, [A0]
00002978  48C1                     ext.l      D1
0000297A  7400                     moveq.l    D2, 0x00
0000297C  204D                     movea.l    A0, A5
0000297E  D1FC FFFF 78E0           add.l      A0, 0xFFFF78E0
00002984  1410                     move.b     D2, [A0]
00002986  D481                     add.l      D2, D1
00002988  B480                     cmp.l      D2, D0
0000298A  6E00 0088                bgt        +0x8A /* 00002A14 */
label0000298E:
0000298E  102E FFFD                move.b     D0, [A6 - 0x3]
00002992  4880                     ext.w      D0
00002994  5340                     subq.w     D0, 1
00002996  C1FC 00C0                muls.w     D0, 0xC0
0000299A  204D                     movea.l    A0, A5
0000299C  D1FC FFFE 42D4           add.l      A0, 0xFFFE42D4
000029A2  2207                     move.l     D1, D7
000029A4  D241                     add.w      D1, D1
000029A6  D240                     add.w      D1, D0
000029A8  7000                     moveq.l    D0, 0x00
000029AA  3030 1000                move.w     D0, [A0 + D1.w]
000029AE  323C 07FF                move.w     D1, 0x7FF
000029B2  C240                     and.w      D1, D0
000029B4  7000                     moveq.l    D0, 0x00
000029B6  3001                     move.w     D0, D1
000029B8  4A80                     tst.l      D0
000029BA  204D                     movea.l    A0, A5
000029BC  D1FC FFFF 79BE           add.l      A0, 0xFFFF79BE
000029C2  3210                     move.w     D1, [A0]
000029C4  48C1                     ext.l      D1
000029C6  B280                     cmp.l      D1, D0
000029C8  6E4E                     bgt        +0x50 /* 00002A18 */
000029CA  102E FFFD                move.b     D0, [A6 - 0x3]
000029CE  4880                     ext.w      D0
000029D0  5340                     subq.w     D0, 1
000029D2  C1FC 00C0                muls.w     D0, 0xC0
000029D6  204D                     movea.l    A0, A5
000029D8  D1FC FFFE 42D4           add.l      A0, 0xFFFE42D4
000029DE  2207                     move.l     D1, D7
000029E0  D241                     add.w      D1, D1
000029E2  D240                     add.w      D1, D0
000029E4  7000                     moveq.l    D0, 0x00
000029E6  3030 1000                move.w     D0, [A0 + D1.w]
000029EA  323C 07FF                move.w     D1, 0x7FF
000029EE  C240                     and.w      D1, D0
000029F0  7000                     moveq.l    D0, 0x00
000029F2  3001                     move.w     D0, D1
000029F4  4A80                     tst.l      D0
000029F6  204D                     movea.l    A0, A5
000029F8  D1FC FFFF 79BE           add.l      A0, 0xFFFF79BE
000029FE  3210                     move.w     D1, [A0]
00002A00  48C1                     ext.l      D1
00002A02  7400                     moveq.l    D2, 0x00
00002A04  204D                     movea.l    A0, A5
00002A06  D1FC FFFF 78E0           add.l      A0, 0xFFFF78E0
00002A0C  1410                     move.b     D2, [A0]
00002A0E  D481                     add.l      D2, D1
00002A10  B480                     cmp.l      D2, D0
00002A12  6F04                     ble        +0x6 /* 00002A18 */
label00002A14:
00002A14  3006                     move.w     D0, D6
00002A16  5246                     addq.w     D6, 1
label00002A18:
00002A18  3007                     move.w     D0, D7
00002A1A  5247                     addq.w     D7, 1
label00002A1C:
00002A1C  102E FFFF                move.b     D0, [A6 - 0x1]
00002A20  4880                     ext.w      D0
00002A22  B047                     cmp.w      D0, D7
00002A24  6E00 FDD8                bgt        -0x226 /* 000027FE */
00002A28  3006                     move.w     D0, D6
00002A2A  4CEE 00C0 FFF4           movem.l    D6,D7, [A6 - 0xC]
00002A30  4E5E                     unlink     A6
00002A32  4E75                     rts
00002A34  9463 6F75 6E74 5F77 6... dc.b       "count_windbreaks__Fs"
fn00002A4C:
00002A4C  4E56 0000                link       A6, 0
00002A50  7000                     moveq.l    D0, 0x00
00002A52  4E5E                     unlink     A6
00002A54  4E75                     rts
00002A56  9373 6574 7061 6C6C 6... dc.b       "setpallettorain__Fv"
fn00002A6C:
00002A6C  4E56 0000                link       A6, 0
00002A70  7000                     moveq.l    D0, 0x00
00002A72  4E5E                     unlink     A6
00002A74  4E75                     rts
00002A76  9573 6574 7061 6C6C 6... dc.b       "setpallettonorain__Fv"
export_278:
00002A8E  4E56 0000                link       A6, 0
00002A92  102E 000B                move.b     D0, [A6 + 0xB]
00002A96  6B00 0112                bmi        +0x114 /* 00002BAA */
00002A9A  0C00 0004                cmpi.b     D0, 0x4
00002A9E  6E00 010A                bgt        +0x10C /* 00002BAA */
00002AA2  7200                     moveq.l    D1, 0x00
00002AA4  1200                     move.b     D1, D0
00002AA6  D241                     add.w      D1, D1
00002AA8  323B 1006                move.w     D1, [PC + D1.w + 0x6]
00002AAC  4EFB 1000                jmp        [PC + D1.w]
00002AB0  000C 006E                ori.b      A4, 0x6E /* 'n' */
00002AB4  00A2 0044 00D6           ori.l      -[A2], 0x4400D6
00002ABA  204D                     movea.l    A0, A5
00002ABC  D1FC FFFE D544           add.l      A0, 0xFFFED544
00002AC2  4210                     clr.b      [A0]
00002AC4  4EBA FFA6                jsr        [PC - 0x5A /* 00002A6C */]
00002AC8  700F                     moveq.l    D0, 0x0F
00002ACA  204D                     movea.l    A0, A5
00002ACC  D1FC FFFE D54C           add.l      A0, 0xFFFED54C
00002AD2  B010                     cmp.b      D0, [A0]
00002AD4  6E0E                     bgt        +0x10 /* 00002AE4 */
00002AD6  204D                     movea.l    A0, A5
00002AD8  D1FC FFFE D520           add.l      A0, 0xFFFED520
00002ADE  5D50                     subq.w     [A0], 6
00002AE0  6000 00C8                bra        +0xCA /* 00002BAA */
label00002AE4:
00002AE4  204D                     movea.l    A0, A5
00002AE6  D1FC FFFE D520           add.l      A0, 0xFFFED520
00002AEC  5550                     subq.w     [A0], 2
00002AEE  6000 00BA                bra        +0xBC /* 00002BAA */
00002AF2  204D                     movea.l    A0, A5
00002AF4  D1FC FFFE D544           add.l      A0, 0xFFFED544
00002AFA  10BC 0001                move.b     [A0], 0x1
00002AFE  4EBA FF4C                jsr        [PC - 0xB4 /* 00002A4C */]
00002B02  204D                     movea.l    A0, A5
00002B04  D1FC FFFE D520           add.l      A0, 0xFFFED520
00002B0A  5050                     addq.w     [A0], 8
00002B0C  204D                     movea.l    A0, A5
00002B0E  D1FC FFFE D2D4           add.l      A0, 0xFFFED2D4
00002B14  3010                     move.w     D0, [A0]
00002B16  5250                     addq.w     [A0], 1
00002B18  6000 0090                bra        +0x92 /* 00002BAA */
00002B1C  700F                     moveq.l    D0, 0x0F
00002B1E  204D                     movea.l    A0, A5
00002B20  D1FC FFFE D54C           add.l      A0, 0xFFFED54C
00002B26  B010                     cmp.b      D0, [A0]
00002B28  6E0C                     bgt        +0xE /* 00002B36 */
00002B2A  204D                     movea.l    A0, A5
00002B2C  D1FC FFFE D520           add.l      A0, 0xFFFED520
00002B32  5750                     subq.w     [A0], 3
00002B34  600A                     bra        +0xC /* 00002B40 */
label00002B36:
00002B36  204D                     movea.l    A0, A5
00002B38  D1FC FFFE D520           add.l      A0, 0xFFFED520
00002B3E  5350                     subq.w     [A0], 1
label00002B40:
00002B40  204D                     movea.l    A0, A5
00002B42  D1FC FFFE D544           add.l      A0, 0xFFFED544
00002B48  4210                     clr.b      [A0]
00002B4A  4EBA FF20                jsr        [PC - 0xE0 /* 00002A6C */]
00002B4E  605A                     bra        +0x5C /* 00002BAA */
00002B50  700F                     moveq.l    D0, 0x0F
00002B52  204D                     movea.l    A0, A5
00002B54  D1FC FFFE D54C           add.l      A0, 0xFFFED54C
00002B5A  B010                     cmp.b      D0, [A0]
00002B5C  6E0C                     bgt        +0xE /* 00002B6A */
00002B5E  204D                     movea.l    A0, A5
00002B60  D1FC FFFE D520           add.l      A0, 0xFFFED520
00002B66  5550                     subq.w     [A0], 2
00002B68  600A                     bra        +0xC /* 00002B74 */
label00002B6A:
00002B6A  204D                     movea.l    A0, A5
00002B6C  D1FC FFFE D520           add.l      A0, 0xFFFED520
00002B72  5350                     subq.w     [A0], 1
label00002B74:
00002B74  204D                     movea.l    A0, A5
00002B76  D1FC FFFE D544           add.l      A0, 0xFFFED544
00002B7C  4210                     clr.b      [A0]
00002B7E  4EBA FEEC                jsr        [PC - 0x114 /* 00002A6C */]
00002B82  6026                     bra        +0x28 /* 00002BAA */
00002B84  204D                     movea.l    A0, A5
00002B86  D1FC FFFE D544           add.l      A0, 0xFFFED544
00002B8C  10BC 0001                move.b     [A0], 0x1
00002B90  4EBA FEBA                jsr        [PC - 0x146 /* 00002A4C */]
00002B94  204D                     movea.l    A0, A5
00002B96  D1FC FFFE D520           add.l      A0, 0xFFFED520
00002B9C  5050                     addq.w     [A0], 8
00002B9E  204D                     movea.l    A0, A5
00002BA0  D1FC FFFE D2D4           add.l      A0, 0xFFFED2D4
00002BA6  3010                     move.w     D0, [A0]
00002BA8  5250                     addq.w     [A0], 1
label00002BAA:
00002BAA  4E5E                     unlink     A6
00002BAC  4E75                     rts
00002BAE  9264 6F64 6169 6C79 7... dc.b       "dodailyweather__Fc"
export_279:
00002BC4  4E56 FF8E                link       A6, -0x0072
00002BC8  48E7 1F18                movem.l    -[A7], D3,D4,D5,D6,D7,A3,A4
00002BCC  47EE FFC6                lea.l      A3, [A6 - 0x3A]
00002BD0  204D                     movea.l    A0, A5
00002BD2  D1FC FFFE D834           add.l      A0, 0xFFFED834
00002BD8  49D0                     lea.l      A4, [A0]
00002BDA  1D7C 0003 FFC5           move.b     [A6 - 0x3B], 0x3
00002BE0  1D7C 0003 FFC4           move.b     [A6 - 0x3C], 0x3
00002BE6  1D7C 0003 FFC3           move.b     [A6 - 0x3D], 0x3
00002BEC  1D7C 0003 FFC2           move.b     [A6 - 0x3E], 0x3
00002BF2  1D7C 0003 FFC1           move.b     [A6 - 0x3F], 0x3
00002BF8  1D7C 0003 FFC0           move.b     [A6 - 0x40], 0x3
00002BFE  1D7C 0003 FFBF           move.b     [A6 - 0x41], 0x3
00002C04  422E FFBE                clr.b      [A6 - 0x42]
00002C08  1D7C 0003 FFBD           move.b     [A6 - 0x43], 0x3
00002C0E  1D7C 0003 FFBC           move.b     [A6 - 0x44], 0x3
00002C14  1D7C 0003 FFBB           move.b     [A6 - 0x45], 0x3
00002C1A  1D7C 0003 FFBA           move.b     [A6 - 0x46], 0x3
00002C20  1D7C 0003 FFB9           move.b     [A6 - 0x47], 0x3
00002C26  1D7C 0003 FFB8           move.b     [A6 - 0x48], 0x3
00002C2C  422E FFB7                clr.b      [A6 - 0x49]
00002C30  1D7C 0003 FFB6           move.b     [A6 - 0x4A], 0x3
00002C36  1D7C 0003 FFB5           move.b     [A6 - 0x4B], 0x3
00002C3C  1D7C 0003 FFB4           move.b     [A6 - 0x4C], 0x3
00002C42  1D7C 0003 FFB3           move.b     [A6 - 0x4D], 0x3
00002C48  1D7C 0003 FFB2           move.b     [A6 - 0x4E], 0x3
00002C4E  422E FFB1                clr.b      [A6 - 0x4F]
00002C52  1D7C 0003 FFB0           move.b     [A6 - 0x50], 0x3
00002C58  1D7C 0003 FFAF           move.b     [A6 - 0x51], 0x3
00002C5E  422E FFAE                clr.b      [A6 - 0x52]
00002C62  426E FFAC                clr.w      [A6 - 0x54]
00002C66  1D7C 0003 FFAB           move.b     [A6 - 0x55], 0x3
00002C6C  1D7C 0003 FFAA           move.b     [A6 - 0x56], 0x3
00002C72  426E FFA8                clr.w      [A6 - 0x58]
00002C76  1D7C 0003 FFA7           move.b     [A6 - 0x59], 0x3
00002C7C  1D7C 0003 FFA6           move.b     [A6 - 0x5A], 0x3
00002C82  426E FFA4                clr.w      [A6 - 0x5C]
00002C86  1D7C 0003 FFA3           move.b     [A6 - 0x5D], 0x3
00002C8C  422E FFA2                clr.b      [A6 - 0x5E]
00002C90  1D7C 0003 FFA1           move.b     [A6 - 0x5F], 0x3
00002C96  422E FFA0                clr.b      [A6 - 0x60]
00002C9A  422E FF9F                clr.b      [A6 - 0x61]
00002C9E  1D7C 0003 FF9E           move.b     [A6 - 0x62], 0x3
00002CA4  426E FF9C                clr.w      [A6 - 0x64]
00002CA8  426E FF9A                clr.w      [A6 - 0x66]
00002CAC  426E FF98                clr.w      [A6 - 0x68]
00002CB0  426E FF96                clr.w      [A6 - 0x6A]
00002CB4  1D7C 0003 FF95           move.b     [A6 - 0x6B], 0x3
00002CBA  422E FF94                clr.b      [A6 - 0x6C]
00002CBE  426E FF92                clr.w      [A6 - 0x6E]
00002CC2  426E FF90                clr.w      [A6 - 0x70]
00002CC6  426E FF8E                clr.w      [A6 - 0x72]
00002CCA  177C 0004 0037           move.b     [A3 + 0x37], 0x4
00002CD0  177C 0004 0036           move.b     [A3 + 0x36], 0x4
00002CD6  177C 0004 0035           move.b     [A3 + 0x35], 0x4
00002CDC  177C 0004 0034           move.b     [A3 + 0x34], 0x4
00002CE2  177C 0004 0033           move.b     [A3 + 0x33], 0x4
00002CE8  177C 0004 0032           move.b     [A3 + 0x32], 0x4
00002CEE  177C 0004 0031           move.b     [A3 + 0x31], 0x4
00002CF4  177C 0001 0030           move.b     [A3 + 0x30], 0x1
00002CFA  177C 0004 002F           move.b     [A3 + 0x2F], 0x4
00002D00  177C 0004 002E           move.b     [A3 + 0x2E], 0x4
00002D06  177C 0004 002D           move.b     [A3 + 0x2D], 0x4
00002D0C  177C 0004 002C           move.b     [A3 + 0x2C], 0x4
00002D12  177C 0004 002B           move.b     [A3 + 0x2B], 0x4
00002D18  177C 0004 002A           move.b     [A3 + 0x2A], 0x4
00002D1E  177C 0001 0029           move.b     [A3 + 0x29], 0x1
00002D24  177C 0004 0028           move.b     [A3 + 0x28], 0x4
00002D2A  177C 0004 0027           move.b     [A3 + 0x27], 0x4
00002D30  177C 0004 0026           move.b     [A3 + 0x26], 0x4
00002D36  177C 0004 0025           move.b     [A3 + 0x25], 0x4
00002D3C  177C 0004 0024           move.b     [A3 + 0x24], 0x4
00002D42  177C 0001 0023           move.b     [A3 + 0x23], 0x1
00002D48  177C 0004 0022           move.b     [A3 + 0x22], 0x4
00002D4E  177C 0004 0021           move.b     [A3 + 0x21], 0x4
00002D54  177C 0001 0020           move.b     [A3 + 0x20], 0x1
00002D5A  177C 0001 001F           move.b     [A3 + 0x1F], 0x1
00002D60  177C 0001 001E           move.b     [A3 + 0x1E], 0x1
00002D66  177C 0004 001D           move.b     [A3 + 0x1D], 0x4
00002D6C  177C 0004 001C           move.b     [A3 + 0x1C], 0x4
00002D72  177C 0001 001B           move.b     [A3 + 0x1B], 0x1
00002D78  177C 0001 001A           move.b     [A3 + 0x1A], 0x1
00002D7E  177C 0004 0019           move.b     [A3 + 0x19], 0x4
00002D84  177C 0004 0018           move.b     [A3 + 0x18], 0x4
00002D8A  177C 0001 0017           move.b     [A3 + 0x17], 0x1
00002D90  177C 0001 0016           move.b     [A3 + 0x16], 0x1
00002D96  177C 0004 0015           move.b     [A3 + 0x15], 0x4
00002D9C  177C 0001 0014           move.b     [A3 + 0x14], 0x1
00002DA2  177C 0004 0013           move.b     [A3 + 0x13], 0x4
00002DA8  177C 0001 0012           move.b     [A3 + 0x12], 0x1
00002DAE  177C 0001 0011           move.b     [A3 + 0x11], 0x1
00002DB4  177C 0004 0010           move.b     [A3 + 0x10], 0x4
00002DBA  177C 0001 000F           move.b     [A3 + 0xF], 0x1
00002DC0  177C 0001 000E           move.b     [A3 + 0xE], 0x1
00002DC6  177C 0001 000D           move.b     [A3 + 0xD], 0x1
00002DCC  177C 0001 000C           move.b     [A3 + 0xC], 0x1
00002DD2  177C 0001 000B           move.b     [A3 + 0xB], 0x1
00002DD8  177C 0001 000A           move.b     [A3 + 0xA], 0x1
00002DDE  177C 0001 0009           move.b     [A3 + 0x9], 0x1
00002DE4  177C 0001 0008           move.b     [A3 + 0x8], 0x1
00002DEA  177C 0004 0007           move.b     [A3 + 0x7], 0x4
00002DF0  177C 0001 0006           move.b     [A3 + 0x6], 0x1
00002DF6  177C 0001 0005           move.b     [A3 + 0x5], 0x1
00002DFC  177C 0001 0004           move.b     [A3 + 0x4], 0x1
00002E02  177C 0001 0003           move.b     [A3 + 0x3], 0x1
00002E08  177C 0001 0002           move.b     [A3 + 0x2], 0x1
00002E0E  177C 0001 0001           move.b     [A3 + 0x1], 0x1
00002E14  16BC 0001                move.b     [A3], 0x1
00002E18  7008                     moveq.l    D0, 0x08
00002E1A  204D                     movea.l    A0, A5
00002E1C  D1FC FFFE D520           add.l      A0, 0xFFFED520
00002E22  B050                     cmp.w      D0, [A0]
00002E24  6E5A                     bgt        +0x5C /* 00002E80 */
00002E26  204D                     movea.l    A0, A5
00002E28  D1FC FFFE D520           add.l      A0, 0xFFFED520
00002E2E  3010                     move.w     D0, [A0]
00002E30  E640                     asr        D0.w, 3
00002E32  204D                     movea.l    A0, A5
00002E34  D1FC FFFE 8AEC           add.l      A0, 0xFFFE8AEC
00002E3A  D110                     add.b      [A0], D0
00002E3C  204D                     movea.l    A0, A5
00002E3E  D1FC FFFD AD24           add.l      A0, 0xFFFDAD24
00002E44  1010                     move.b     D0, [A0]
00002E46  204D                     movea.l    A0, A5
00002E48  D1FC FFFE 8AEC           add.l      A0, 0xFFFE8AEC
00002E4E  D110                     add.b      [A0], D0
00002E50  700C                     moveq.l    D0, 0x0C
00002E52  204D                     movea.l    A0, A5
00002E54  D1FC FFFE 8AEC           add.l      A0, 0xFFFE8AEC
00002E5A  B010                     cmp.b      D0, [A0]
00002E5C  6C0C                     bge        +0xE /* 00002E6A */
00002E5E  204D                     movea.l    A0, A5
00002E60  D1FC FFFE 8AEC           add.l      A0, 0xFFFE8AEC
00002E66  10BC 000C                move.b     [A0], 0xC
label00002E6A:
00002E6A  7001                     moveq.l    D0, 0x01
00002E6C  2F00                     move.l     -[A7], D0
00002E6E  4EBA D32E                jsr        [PC - 0x2CD2 /* 0000019E */]
00002E72  204D                     movea.l    A0, A5
00002E74  D1FC FFFE D520           add.l      A0, 0xFFFED520
00002E7A  4250                     clr.w      [A0]
00002E7C  584F                     addq.w     A7, 4
00002E7E  604E                     bra        +0x50 /* 00002ECE */
label00002E80:
00002E80  70F8                     moveq.l    D0, 0xFFFFFFF8
00002E82  204D                     movea.l    A0, A5
00002E84  D1FC FFFE D520           add.l      A0, 0xFFFED520
00002E8A  B050                     cmp.w      D0, [A0]
00002E8C  6D40                     blt        +0x42 /* 00002ECE */
00002E8E  204D                     movea.l    A0, A5
00002E90  D1FC FFFE D520           add.l      A0, 0xFFFED520
00002E96  3010                     move.w     D0, [A0]
00002E98  E640                     asr        D0.w, 3
00002E9A  204D                     movea.l    A0, A5
00002E9C  D1FC FFFE 8AEC           add.l      A0, 0xFFFE8AEC
00002EA2  D110                     add.b      [A0], D0
00002EA4  204D                     movea.l    A0, A5
00002EA6  D1FC FFFE 8AEC           add.l      A0, 0xFFFE8AEC
00002EAC  4A10                     tst.b      [A0]
00002EAE  6C0A                     bge        +0xC /* 00002EBA */
00002EB0  204D                     movea.l    A0, A5
00002EB2  D1FC FFFE 8AEC           add.l      A0, 0xFFFE8AEC
00002EB8  4210                     clr.b      [A0]
label00002EBA:
00002EBA  7001                     moveq.l    D0, 0x01
00002EBC  2F00                     move.l     -[A7], D0
00002EBE  4EBA D41A                jsr        [PC - 0x2BE6 /* 000002DA */]
00002EC2  204D                     movea.l    A0, A5
00002EC4  D1FC FFFE D520           add.l      A0, 0xFFFED520
00002ECA  4250                     clr.w      [A0]
00002ECC  584F                     addq.w     A7, 4
label00002ECE:
00002ECE  4247                     clr.w      D7
00002ED0  7607                     moveq.l    D3, 0x07
label00002ED2:
00002ED2  48C7                     ext.l      D7
00002ED4  19B4 7007 7000           move.b     [A4 + D7.w], [A4 + D7.w + 0x7]
00002EDA  3007                     move.w     D0, D7
00002EDC  5247                     addq.w     D7, 1
00002EDE  B647                     cmp.w      D3, D7
00002EE0  6EF0                     bgt        -0xE /* 00002ED2 */
00002EE2  204D                     movea.l    A0, A5
00002EE4  D1FC FFFE D732           add.l      A0, 0xFFFED732
00002EEA  1010                     move.b     D0, [A0]
00002EEC  4880                     ext.w      D0
00002EEE  C1FC 0030                muls.w     D0, 0x30 /* '0' */
00002EF2  48C0                     ext.l      D0
00002EF4  7200                     moveq.l    D1, 0x00
00002EF6  204D                     movea.l    A0, A5
00002EF8  D1FC FFFD CECA           add.l      A0, 0xFFFDCECA
00002EFE  3210                     move.w     D1, [A0]
00002F00  D280                     add.l      D1, D0
00002F02  7000                     moveq.l    D0, 0x00
00002F04  204D                     movea.l    A0, A5
00002F06  D1FC FFFD CEC6           add.l      A0, 0xFFFDCEC6
00002F0C  3010                     move.w     D0, [A0]
00002F0E  E588                     lsl        D0, 2
00002F10  3C00                     move.w     D6, D0
00002F12  DC41                     add.w      D6, D1
00002F14  3806                     move.w     D4, D6
00002F16  5244                     addq.w     D4, 1
00002F18  0C44 00F0                cmpi.w     D4, 0xF0
00002F1C  6D02                     blt        +0x4 /* 00002F20 */
00002F1E  4244                     clr.w      D4
label00002F20:
00002F20  204D                     movea.l    A0, A5
00002F22  D1FC FFFE D642           add.l      A0, 0xFFFED642
00002F28  1030 4000                move.b     D0, [A0 + D4.w]
00002F2C  4880                     ext.w      D0
00002F2E  3C00                     move.w     D6, D0
00002F30  6C02                     bge        +0x4 /* 00002F34 */
00002F32  4246                     clr.w      D6
label00002F34:
00002F34  204D                     movea.l    A0, A5
00002F36  D1FC FFFE D54E           add.l      A0, 0xFFFED54E
00002F3C  1030 4000                move.b     D0, [A0 + D4.w]
00002F40  4880                     ext.w      D0
00002F42  3A00                     move.w     D5, D0
00002F44  204D                     movea.l    A0, A5
00002F46  D1FC FFFE D734           add.l      A0, 0xFFFED734
00002F4C  1030 4000                move.b     D0, [A0 + D4.w]
00002F50  4880                     ext.w      D0
00002F52  3D40 FFFE                move.w     [A6 - 0x2], D0
00002F56  0C45 0020                cmpi.w     D5, 0x20 /* ' ' */
00002F5A  6F3E                     ble        +0x40 /* 00002F9A */
00002F5C  4247                     clr.w      D7
label00002F5E:
00002F5E  2006                     move.l     D0, D6
00002F60  48C0                     ext.l      D0
00002F62  2200                     move.l     D1, D0
00002F64  E788                     lsl        D0, 3
00002F66  9081                     sub.l      D0, D1
00002F68  2207                     move.l     D1, D7
00002F6A  D240                     add.w      D1, D0
00002F6C  48C7                     ext.l      D7
00002F6E  19B6 108E 7007           move.b     [A4 + D7.w + 0x7], [A6 + D1.w - 0x72]
00002F74  48C7                     ext.l      D7
00002F76  7003                     moveq.l    D0, 0x03
00002F78  B034 7007                cmp.b      D0, [A4 + D7.w + 0x7]
00002F7C  6710                     beq        +0x12 /* 00002F8E */
00002F7E  48C5                     ext.l      D5
00002F80  2F05                     move.l     -[A7], D5
00002F82  4EBA 006E                jsr        [PC + 0x6E /* 00002FF2 */]
00002F86  48C7                     ext.l      D7
00002F88  1980 7007                move.b     [A4 + D7.w + 0x7], D0
00002F8C  584F                     addq.w     A7, 4
label00002F8E:
00002F8E  3007                     move.w     D0, D7
00002F90  5247                     addq.w     D7, 1
00002F92  0C47 0007                cmpi.w     D7, 0x7
00002F96  6DC6                     blt        -0x38 /* 00002F5E */
00002F98  603C                     bra        +0x3E /* 00002FD6 */
label00002F9A:
00002F9A  4247                     clr.w      D7
label00002F9C:
00002F9C  2006                     move.l     D0, D6
00002F9E  48C0                     ext.l      D0
00002FA0  2200                     move.l     D1, D0
00002FA2  E788                     lsl        D0, 3
00002FA4  9081                     sub.l      D0, D1
00002FA6  2207                     move.l     D1, D7
00002FA8  D240                     add.w      D1, D0
00002FAA  48C7                     ext.l      D7
00002FAC  19B3 1000 7007           move.b     [A4 + D7.w + 0x7], [A3 + D1.w]
00002FB2  48C7                     ext.l      D7
00002FB4  7004                     moveq.l    D0, 0x04
00002FB6  B034 7007                cmp.b      D0, [A4 + D7.w + 0x7]
00002FBA  6710                     beq        +0x12 /* 00002FCC */
00002FBC  48C5                     ext.l      D5
00002FBE  2F05                     move.l     -[A7], D5
00002FC0  4EBA 0030                jsr        [PC + 0x30 /* 00002FF2 */]
00002FC4  48C7                     ext.l      D7
00002FC6  1980 7007                move.b     [A4 + D7.w + 0x7], D0
00002FCA  584F                     addq.w     A7, 4
label00002FCC:
00002FCC  3007                     move.w     D0, D7
00002FCE  5247                     addq.w     D7, 1
00002FD0  0C47 0007                cmpi.w     D7, 0x7
00002FD4  6DC6                     blt        -0x38 /* 00002F9C */
label00002FD6:
00002FD6  4CEE 18F8 FF72           movem.l    D3,D4,D5,D6,D7,A3,A4, [A6 - 0x8E]
00002FDC  4E5E                     unlink     A6
00002FDE  4E75                     rts
00002FE0  8F63 616C 6366 6F72 6... dc.b       "calcforcast__Fv"
fn00002FF2:
00002FF2  4E56 0000                link       A6, 0
00002FF6  48E7 0300                movem.l    -[A7], D6,D7
00002FFA  3C2E 000A                move.w     D6, [A6 + 0xA]
00002FFE  558F                     subq.l     A7, 2
00003000  A861                     syscall    Random
00003002  7E07                     moveq.l    D7, 0x07
00003004  CE5F                     and.w      D7, [A7]+
00003006  0C46 0055                cmpi.w     D6, 0x55 /* 'U' */
0000300A  6F18                     ble        +0x1A /* 00003024 */
0000300C  0C07 0002                cmpi.b     D7, 0x2
00003010  6604                     bne        +0x6 /* 00003016 */
00003012  7001                     moveq.l    D0, 0x01
00003014  6064                     bra        +0x66 /* 0000307A */
label00003016:
00003016  0C07 0005                cmpi.b     D7, 0x5
0000301A  6604                     bne        +0x6 /* 00003020 */
0000301C  7002                     moveq.l    D0, 0x02
0000301E  605A                     bra        +0x5C /* 0000307A */
label00003020:
00003020  7000                     moveq.l    D0, 0x00
00003022  6056                     bra        +0x58 /* 0000307A */
label00003024:
00003024  0C46 0046                cmpi.w     D6, 0x46 /* 'F' */
00003028  6F2A                     ble        +0x2C /* 00003054 */
0000302A  0C46 0055                cmpi.w     D6, 0x55 /* 'U' */
0000302E  6E24                     bgt        +0x26 /* 00003054 */
00003030  0C07 0001                cmpi.b     D7, 0x1
00003034  6706                     beq        +0x8 /* 0000303C */
00003036  0C07 0007                cmpi.b     D7, 0x7
0000303A  6604                     bne        +0x6 /* 00003040 */
label0000303C:
0000303C  7001                     moveq.l    D0, 0x01
0000303E  603A                     bra        +0x3C /* 0000307A */
label00003040:
00003040  0C07 0002                cmpi.b     D7, 0x2
00003044  6706                     beq        +0x8 /* 0000304C */
00003046  0C07 0004                cmpi.b     D7, 0x4
0000304A  6604                     bne        +0x6 /* 00003050 */
label0000304C:
0000304C  7002                     moveq.l    D0, 0x02
0000304E  602A                     bra        +0x2C /* 0000307A */
label00003050:
00003050  7000                     moveq.l    D0, 0x00
00003052  6026                     bra        +0x28 /* 0000307A */
label00003054:
00003054  0C46 0046                cmpi.w     D6, 0x46 /* 'F' */
00003058  6E20                     bgt        +0x22 /* 0000307A */
0000305A  4A07                     tst.b      D7
0000305C  6706                     beq        +0x8 /* 00003064 */
0000305E  0C07 0004                cmpi.b     D7, 0x4
00003062  6604                     bne        +0x6 /* 00003068 */
label00003064:
00003064  7000                     moveq.l    D0, 0x00
00003066  6012                     bra        +0x14 /* 0000307A */
label00003068:
00003068  0C07 0001                cmpi.b     D7, 0x1
0000306C  6706                     beq        +0x8 /* 00003074 */
0000306E  0C07 0003                cmpi.b     D7, 0x3
00003072  6604                     bne        +0x6 /* 00003078 */
label00003074:
00003074  7002                     moveq.l    D0, 0x02
00003076  6002                     bra        +0x4 /* 0000307A */
label00003078:
00003078  7001                     moveq.l    D0, 0x01
label0000307A:
0000307A  4CEE 00C0 FFF8           movem.l    D6,D7, [A6 - 0x8]
00003080  4E5E                     unlink     A6
00003082  4E75                     rts
00003084  8A67 6574 6461 795F 5... dc.b       "getday__Fs"
export_280:
00003092  4E56 FFFA                link       A6, -0x0006
00003096  48E7 0F00                movem.l    -[A7], D4,D5,D6,D7
0000309A  204D                     movea.l    A0, A5
0000309C  D1FC FFFE 94DE           add.l      A0, 0xFFFE94DE
000030A2  4A10                     tst.b      [A0]
000030A4  6610                     bne        +0x12 /* 000030B6 */
000030A6  4878 009A                push.l     0x9A
000030AA  4EAD 02F2                jsr        [A5 + 0x2F2 /* export_90, CODE:3 @ 000062C4 */]
000030AE  7000                     moveq.l    D0, 0x00
000030B0  584F                     addq.w     A7, 4
000030B2  6000 0220                bra        +0x222 /* 000032D4 */
label000030B6:
000030B6  204D                     movea.l    A0, A5
000030B8  D1FC FFFE 9F46           add.l      A0, 0xFFFE9F46
000030BE  3810                     move.w     D4, [A0]
000030C0  7000                     moveq.l    D0, 0x00
000030C2  3004                     move.w     D0, D4
000030C4  4A80                     tst.l      D0
000030C6  204D                     movea.l    A0, A5
000030C8  D1FC FFFE BD76           add.l      A0, 0xFFFEBD76
000030CE  B090                     cmp.l      D0, [A0]
000030D0  6306                     bls        +0x8 /* 000030D8 */
000030D2  7000                     moveq.l    D0, 0x00
000030D4  6000 01FE                bra        +0x200 /* 000032D4 */
label000030D8:
000030D8  4205                     clr.b      D5
000030DA  6000 01E0                bra        +0x1E2 /* 000032BC */
label000030DE:
000030DE  4206                     clr.b      D6
000030E0  6000 01CA                bra        +0x1CC /* 000032AC */
label000030E4:
000030E4  7000                     moveq.l    D0, 0x00
000030E6  1006                     move.b     D0, D6
000030E8  7200                     moveq.l    D1, 0x00
000030EA  1205                     move.b     D1, D5
000030EC  C3FC 000C                muls.w     D1, 0xC
000030F0  204D                     movea.l    A0, A5
000030F2  D1FC FFFF 0394           add.l      A0, 0xFFFF0394
000030F8  D041                     add.w      D0, D1
000030FA  7200                     moveq.l    D1, 0x00
000030FC  1230 0000                move.b     D1, [A0 + D0.w]
00003100  700F                     moveq.l    D0, 0x0F
00003102  C001                     and.b      D0, D1
00003104  7200                     moveq.l    D1, 0x00
00003106  1200                     move.b     D1, D0
00003108  0C41 0005                cmpi.w     D1, 0x5
0000310C  6600 019A                bne        +0x19C /* 000032A8 */
00003110  7000                     moveq.l    D0, 0x00
00003112  1006                     move.b     D0, D6
00003114  7200                     moveq.l    D1, 0x00
00003116  1205                     move.b     D1, D5
00003118  C3FC 000C                muls.w     D1, 0xC
0000311C  204D                     movea.l    A0, A5
0000311E  D1FC FFFF 0394           add.l      A0, 0xFFFF0394
00003124  D041                     add.w      D0, D1
00003126  1E30 0000                move.b     D7, [A0 + D0.w]
0000312A  E80F                     lsr        D7.b, 4
0000312C  7002                     moveq.l    D0, 0x02
0000312E  C007                     and.b      D0, D7
00003130  6604                     bne        +0x6 /* 00003136 */
00003132  7E03                     moveq.l    D7, 0x03
00003134  600C                     bra        +0xE /* 00003142 */
label00003136:
00003136  7004                     moveq.l    D0, 0x04
00003138  C007                     and.b      D0, D7
0000313A  6604                     bne        +0x6 /* 00003140 */
0000313C  7E05                     moveq.l    D7, 0x05
0000313E  6002                     bra        +0x4 /* 00003142 */
label00003140:
00003140  7EFF                     moveq.l    D7, 0xFFFFFFFF
label00003142:
00003142  0C07 00FF                cmpi.b     D7, 0xFF
00003146  6700 0160                beq        +0x162 /* 000032A8 */
0000314A  7000                     moveq.l    D0, 0x00
0000314C  3004                     move.w     D0, D4
0000314E  2F00                     move.l     -[A7], D0
00003150  4EAD 05F2                jsr        [A5 + 0x5F2 /* export_186, CODE:10 @ 00002C12 */]
00003154  4A40                     tst.w      D0
00003156  584F                     addq.w     A7, 4
00003158  6700 014A                beq        +0x14C /* 000032A4 */
0000315C  7000                     moveq.l    D0, 0x00
0000315E  1006                     move.b     D0, D6
00003160  E788                     lsl        D0, 3
00003162  5C40                     addq.w     D0, 6
00003164  48C0                     ext.l      D0
00003166  2F00                     move.l     -[A7], D0
00003168  4887                     ext.w      D7
0000316A  7000                     moveq.l    D0, 0x00
0000316C  1005                     move.b     D0, D5
0000316E  E788                     lsl        D0, 3
00003170  D047                     add.w      D0, D7
00003172  48C0                     ext.l      D0
00003174  2F00                     move.l     -[A7], D0
00003176  7001                     moveq.l    D0, 0x01
00003178  2F00                     move.l     -[A7], D0
0000317A  7208                     moveq.l    D1, 0x08
0000317C  2F01                     move.l     -[A7], D1
0000317E  4EAD 04F2                jsr        [A5 + 0x4F2 /* export_154, CODE:9 @ 00000442 */]
00003182  3D40 FFFE                move.w     [A6 - 0x2], D0
00003186  4FEF 0010                lea.l      A7, [A7 + 0x10]
0000318A  6700 011C                beq        +0x11E /* 000032A8 */
0000318E  7000                     moveq.l    D0, 0x00
00003190  3004                     move.w     D0, D4
00003192  2F00                     move.l     -[A7], D0
00003194  7008                     moveq.l    D0, 0x08
00003196  2F00                     move.l     -[A7], D0
00003198  4EAD 05FA                jsr        [A5 + 0x5FA /* export_187, CODE:10 @ 00002C4A */]
0000319C  2D40 FFFA                move.l     [A6 - 0x6], D0
000031A0  7000                     moveq.l    D0, 0x00
000031A2  1006                     move.b     D0, D6
000031A4  E788                     lsl        D0, 3
000031A6  5C40                     addq.w     D0, 6
000031A8  4887                     ext.w      D7
000031AA  7200                     moveq.l    D1, 0x00
000031AC  1205                     move.b     D1, D5
000031AE  E789                     lsl        D1, 3
000031B0  D247                     add.w      D1, D7
000031B2  C3FC 00C0                muls.w     D1, 0xC0
000031B6  204D                     movea.l    A0, A5
000031B8  D1FC FFFE 42D4           add.l      A0, 0xFFFE42D4
000031BE  D040                     add.w      D0, D0
000031C0  D041                     add.w      D0, D1
000031C2  31BC 0047 0000           move.w     [A0 + D0.w], 0x47 /* 'G' */
000031C8  7000                     moveq.l    D0, 0x00
000031CA  1006                     move.b     D0, D6
000031CC  E788                     lsl        D0, 3
000031CE  5C40                     addq.w     D0, 6
000031D0  4887                     ext.w      D7
000031D2  7200                     moveq.l    D1, 0x00
000031D4  1205                     move.b     D1, D5
000031D6  E789                     lsl        D1, 3
000031D8  D247                     add.w      D1, D7
000031DA  5241                     addq.w     D1, 1
000031DC  C3FC 00C0                muls.w     D1, 0xC0
000031E0  204D                     movea.l    A0, A5
000031E2  D1FC FFFE 42D4           add.l      A0, 0xFFFE42D4
000031E8  D040                     add.w      D0, D0
000031EA  D041                     add.w      D0, D1
000031EC  31BC 0048 0000           move.w     [A0 + D0.w], 0x48 /* 'H' */
000031F2  7000                     moveq.l    D0, 0x00
000031F4  1006                     move.b     D0, D6
000031F6  E788                     lsl        D0, 3
000031F8  5E40                     addq.w     D0, 7
000031FA  4887                     ext.w      D7
000031FC  7200                     moveq.l    D1, 0x00
000031FE  1205                     move.b     D1, D5
00003200  E789                     lsl        D1, 3
00003202  D247                     add.w      D1, D7
00003204  C3FC 00C0                muls.w     D1, 0xC0
00003208  204D                     movea.l    A0, A5
0000320A  D1FC FFFE 42D4           add.l      A0, 0xFFFE42D4
00003210  D040                     add.w      D0, D0
00003212  D041                     add.w      D0, D1
00003214  31BC 006F 0000           move.w     [A0 + D0.w], 0x6F /* 'o' */
0000321A  7000                     moveq.l    D0, 0x00
0000321C  1006                     move.b     D0, D6
0000321E  E788                     lsl        D0, 3
00003220  5E40                     addq.w     D0, 7
00003222  4887                     ext.w      D7
00003224  7200                     moveq.l    D1, 0x00
00003226  1205                     move.b     D1, D5
00003228  E789                     lsl        D1, 3
0000322A  D247                     add.w      D1, D7
0000322C  5241                     addq.w     D1, 1
0000322E  C3FC 00C0                muls.w     D1, 0xC0
00003232  204D                     movea.l    A0, A5
00003234  D1FC FFFE 42D4           add.l      A0, 0xFFFE42D4
0000323A  D040                     add.w      D0, D0
0000323C  D041                     add.w      D0, D1
0000323E  31BC 0070 0000           move.w     [A0 + D0.w], 0x70 /* 'p' */
00003244  0C07 0003                cmpi.b     D7, 0x3
00003248  504F                     addq.w     A7, 8
0000324A  661E                     bne        +0x20 /* 0000326A */
0000324C  7000                     moveq.l    D0, 0x00
0000324E  1006                     move.b     D0, D6
00003250  7200                     moveq.l    D1, 0x00
00003252  1205                     move.b     D1, D5
00003254  C3FC 000C                muls.w     D1, 0xC
00003258  204D                     movea.l    A0, A5
0000325A  D1FC FFFF 0394           add.l      A0, 0xFFFF0394
00003260  D041                     add.w      D0, D1
00003262  0030 0020 0000           ori.b      [A0 + D0.w], 0x20 /* ' ' */
00003268  6022                     bra        +0x24 /* 0000328C */
label0000326A:
0000326A  0C07 0005                cmpi.b     D7, 0x5
0000326E  661C                     bne        +0x1E /* 0000328C */
00003270  7000                     moveq.l    D0, 0x00
00003272  1006                     move.b     D0, D6
00003274  7200                     moveq.l    D1, 0x00
00003276  1205                     move.b     D1, D5
00003278  C3FC 000C                muls.w     D1, 0xC
0000327C  204D                     movea.l    A0, A5
0000327E  D1FC FFFF 0394           add.l      A0, 0xFFFF0394
00003284  D041                     add.w      D0, D1
00003286  0030 0040 0000           ori.b      [A0 + D0.w], 0x40 /* '@' */
label0000328C:
0000328C  4878 009D                push.l     0x9D
00003290  4EAD 02F2                jsr        [A5 + 0x2F2 /* export_90, CODE:3 @ 000062C4 */]
00003294  204D                     movea.l    A0, A5
00003296  D1FC FFFE 94E0           add.l      A0, 0xFFFE94E0
0000329C  1010                     move.b     D0, [A0]
0000329E  49C0                     lea.l      A4, D0
000032A0  584F                     addq.w     A7, 4
000032A2  6030                     bra        +0x32 /* 000032D4 */
label000032A4:
000032A4  7000                     moveq.l    D0, 0x00
000032A6  602C                     bra        +0x2E /* 000032D4 */
label000032A8:
000032A8  1006                     move.b     D0, D6
000032AA  5206                     addq.b     D6, 1
label000032AC:
000032AC  7000                     moveq.l    D0, 0x00
000032AE  1006                     move.b     D0, D6
000032B0  0C00 000C                cmpi.b     D0, 0xC
000032B4  6500 FE2E                bcs        -0x1D0 /* 000030E4 */
000032B8  1005                     move.b     D0, D5
000032BA  5205                     addq.b     D5, 1
label000032BC:
000032BC  7000                     moveq.l    D0, 0x00
000032BE  1005                     move.b     D0, D5
000032C0  0C00 000C                cmpi.b     D0, 0xC
000032C4  6500 FE18                bcs        -0x1E6 /* 000030DE */
000032C8  4878 0093                push.l     0x93
000032CC  4EAD 02F2                jsr        [A5 + 0x2F2 /* export_90, CODE:3 @ 000062C4 */]
000032D0  7000                     moveq.l    D0, 0x00
000032D2  584F                     addq.w     A7, 4
label000032D4:
000032D4  4CEE 00F0 FFEA           movem.l    D4,D5,D6,D7, [A6 - 0x16]
000032DA  4E5E                     unlink     A6
000032DC  4E75                     rts
000032DE  8F62 7579 6169 7270 6... dc.b       "buyairplane__Fv"
export_281:
000032F0  4E56 0000                link       A6, 0
000032F4  48E7 0F00                movem.l    -[A7], D4,D5,D6,D7
000032F8  382E 000A                move.w     D4, [A6 + 0xA]
000032FC  2004                     move.l     D0, D4
000032FE  C1FC 003A                muls.w     D0, 0x3A /* ':' */
00003302  204D                     movea.l    A0, A5
00003304  D1FC FFFE 9F9C           add.l      A0, 0xFFFE9F9C
0000330A  1030 0034                move.b     D0, [A0 + D0.w + 0x34]
0000330E  4880                     ext.w      D0
00003310  3E00                     move.w     D7, D0
00003312  3A07                     move.w     D5, D7
00003314  2004                     move.l     D0, D4
00003316  C1FC 003A                muls.w     D0, 0x3A /* ':' */
0000331A  204D                     movea.l    A0, A5
0000331C  D1FC FFFE 9F9C           add.l      A0, 0xFFFE9F9C
00003322  1030 0035                move.b     D0, [A0 + D0.w + 0x35]
00003326  4880                     ext.w      D0
00003328  3C00                     move.w     D6, D0
0000332A  3807                     move.w     D4, D7
0000332C  E644                     asr        D4.w, 3
0000332E  2007                     move.l     D0, D7
00003330  C1FC 00C0                muls.w     D0, 0xC0
00003334  204D                     movea.l    A0, A5
00003336  D1FC FFFE 42D4           add.l      A0, 0xFFFE42D4
0000333C  2206                     move.l     D1, D6
0000333E  D241                     add.w      D1, D1
00003340  D240                     add.w      D1, D0
00003342  7000                     moveq.l    D0, 0x00
00003344  3030 1000                move.w     D0, [A0 + D1.w]
00003348  323C F800                move.w     D1, 0xF800
0000334C  C240                     and.w      D1, D0
0000334E  7000                     moveq.l    D0, 0x00
00003350  3001                     move.w     D0, D1
00003352  4A80                     tst.l      D0
00003354  204D                     movea.l    A0, A5
00003356  D1FC FFFF 7942           add.l      A0, 0xFFFF7942
0000335C  3210                     move.w     D1, [A0]
0000335E  48C1                     ext.l      D1
00003360  5081                     addq.l     D1, 8
00003362  8280                     or.l       D1, D0
00003364  203C FFFF BFFF           move.l     D0, 0xFFFFBFFF
0000336A  C081                     and.l      D0, D1
0000336C  2207                     move.l     D1, D7
0000336E  C3FC 00C0                muls.w     D1, 0xC0
00003372  204D                     movea.l    A0, A5
00003374  D1FC FFFE 42D4           add.l      A0, 0xFFFE42D4
0000337A  2406                     move.l     D2, D6
0000337C  D442                     add.w      D2, D2
0000337E  D441                     add.w      D2, D1
00003380  3180 2000                move.w     [A0 + D2.w], D0
00003384  48C7                     ext.l      D7
00003386  2007                     move.l     D0, D7
00003388  C1FC 00C0                muls.w     D0, 0xC0
0000338C  204D                     movea.l    A0, A5
0000338E  D1FC FFFE 4394           add.l      A0, 0xFFFE4394
00003394  2206                     move.l     D1, D6
00003396  D241                     add.w      D1, D1
00003398  D240                     add.w      D1, D0
0000339A  7000                     moveq.l    D0, 0x00
0000339C  3030 1000                move.w     D0, [A0 + D1.w]
000033A0  323C F800                move.w     D1, 0xF800
000033A4  C240                     and.w      D1, D0
000033A6  7000                     moveq.l    D0, 0x00
000033A8  3001                     move.w     D0, D1
000033AA  4A80                     tst.l      D0
000033AC  204D                     movea.l    A0, A5
000033AE  D1FC FFFF 7942           add.l      A0, 0xFFFF7942
000033B4  3210                     move.w     D1, [A0]
000033B6  48C1                     ext.l      D1
000033B8  5081                     addq.l     D1, 8
000033BA  8280                     or.l       D1, D0
000033BC  203C FFFF BFFF           move.l     D0, 0xFFFFBFFF
000033C2  C081                     and.l      D0, D1
000033C4  48C7                     ext.l      D7
000033C6  2207                     move.l     D1, D7
000033C8  C3FC 00C0                muls.w     D1, 0xC0
000033CC  204D                     movea.l    A0, A5
000033CE  D1FC FFFE 4394           add.l      A0, 0xFFFE4394
000033D4  2406                     move.l     D2, D6
000033D6  D442                     add.w      D2, D2
000033D8  D441                     add.w      D2, D1
000033DA  3180 2000                move.w     [A0 + D2.w], D0
000033DE  48C6                     ext.l      D6
000033E0  2007                     move.l     D0, D7
000033E2  C1FC 00C0                muls.w     D0, 0xC0
000033E6  204D                     movea.l    A0, A5
000033E8  D1FC FFFE 42D4           add.l      A0, 0xFFFE42D4
000033EE  2206                     move.l     D1, D6
000033F0  D241                     add.w      D1, D1
000033F2  D240                     add.w      D1, D0
000033F4  7000                     moveq.l    D0, 0x00
000033F6  3030 1002                move.w     D0, [A0 + D1.w + 0x2]
000033FA  323C F800                move.w     D1, 0xF800
000033FE  C240                     and.w      D1, D0
00003400  7000                     moveq.l    D0, 0x00
00003402  3001                     move.w     D0, D1
00003404  4A80                     tst.l      D0
00003406  204D                     movea.l    A0, A5
00003408  D1FC FFFF 7942           add.l      A0, 0xFFFF7942
0000340E  3210                     move.w     D1, [A0]
00003410  48C1                     ext.l      D1
00003412  5081                     addq.l     D1, 8
00003414  8280                     or.l       D1, D0
00003416  203C FFFF BFFF           move.l     D0, 0xFFFFBFFF
0000341C  C081                     and.l      D0, D1
0000341E  48C6                     ext.l      D6
00003420  2207                     move.l     D1, D7
00003422  C3FC 00C0                muls.w     D1, 0xC0
00003426  204D                     movea.l    A0, A5
00003428  D1FC FFFE 42D4           add.l      A0, 0xFFFE42D4
0000342E  2406                     move.l     D2, D6
00003430  D442                     add.w      D2, D2
00003432  D441                     add.w      D2, D1
00003434  3180 2002                move.w     [A0 + D2.w + 0x2], D0
00003438  48C6                     ext.l      D6
0000343A  48C7                     ext.l      D7
0000343C  2007                     move.l     D0, D7
0000343E  C1FC 00C0                muls.w     D0, 0xC0
00003442  204D                     movea.l    A0, A5
00003444  D1FC FFFE 4394           add.l      A0, 0xFFFE4394
0000344A  2206                     move.l     D1, D6
0000344C  D241                     add.w      D1, D1
0000344E  D240                     add.w      D1, D0
00003450  7000                     moveq.l    D0, 0x00
00003452  3030 1002                move.w     D0, [A0 + D1.w + 0x2]
00003456  323C F800                move.w     D1, 0xF800
0000345A  C240                     and.w      D1, D0
0000345C  7000                     moveq.l    D0, 0x00
0000345E  3001                     move.w     D0, D1
00003460  4A80                     tst.l      D0
00003462  204D                     movea.l    A0, A5
00003464  D1FC FFFF 7942           add.l      A0, 0xFFFF7942
0000346A  3210                     move.w     D1, [A0]
0000346C  48C1                     ext.l      D1
0000346E  5081                     addq.l     D1, 8
00003470  8280                     or.l       D1, D0
00003472  203C FFFF BFFF           move.l     D0, 0xFFFFBFFF
00003478  C081                     and.l      D0, D1
0000347A  48C6                     ext.l      D6
0000347C  48C7                     ext.l      D7
0000347E  2207                     move.l     D1, D7
00003480  C3FC 00C0                muls.w     D1, 0xC0
00003484  204D                     movea.l    A0, A5
00003486  D1FC FFFE 4394           add.l      A0, 0xFFFE4394
0000348C  2406                     move.l     D2, D6
0000348E  D442                     add.w      D2, D2
00003490  D441                     add.w      D2, D1
00003492  3180 2002                move.w     [A0 + D2.w + 0x2], D0
00003496  48C4                     ext.l      D4
00003498  2004                     move.l     D0, D4
0000349A  E788                     lsl        D0, 3
0000349C  3205                     move.w     D1, D5
0000349E  9240                     sub.w      D1, D0
000034A0  3A01                     move.w     D5, D1
000034A2  0C45 0003                cmpi.w     D5, 0x3
000034A6  661E                     bne        +0x20 /* 000034C6 */
000034A8  3006                     move.w     D0, D6
000034AA  E640                     asr        D0.w, 3
000034AC  3207                     move.w     D1, D7
000034AE  E641                     asr        D1.w, 3
000034B0  C3FC 000C                muls.w     D1, 0xC
000034B4  204D                     movea.l    A0, A5
000034B6  D1FC FFFF 0394           add.l      A0, 0xFFFF0394
000034BC  D041                     add.w      D0, D1
000034BE  0230 00DF 0000           andi.b     [A0 + D0.w], 0xDF
000034C4  6022                     bra        +0x24 /* 000034E8 */
label000034C6:
000034C6  0C45 0005                cmpi.w     D5, 0x5
000034CA  661C                     bne        +0x1E /* 000034E8 */
000034CC  3006                     move.w     D0, D6
000034CE  E640                     asr        D0.w, 3
000034D0  3207                     move.w     D1, D7
000034D2  E641                     asr        D1.w, 3
000034D4  C3FC 000C                muls.w     D1, 0xC
000034D8  204D                     movea.l    A0, A5
000034DA  D1FC FFFF 0394           add.l      A0, 0xFFFF0394
000034E0  D041                     add.w      D0, D1
000034E2  0230 00BF 0000           andi.b     [A0 + D0.w], 0xBF
label000034E8:
000034E8  7000                     moveq.l    D0, 0x00
000034EA  4CEE 00F0 FFF0           movem.l    D4,D5,D6,D7, [A6 - 0x10]
000034F0  4E5E                     unlink     A6
000034F2  4E75                     rts
000034F4  9272 656D 6F76 6561 6... dc.b       "removeairplane__Fs"
