# near model CODE resource
# jump table entries: 2048-2060 (13 of them)
export_256:
00000000  4E56 FFFC                link       A6, -0x0004
00000004  3D7C FFFF FFFC           move.w     [A6 - 0x4], 0xFFFF
0000000A  3D7C FFFF FFFE           move.w     [A6 - 0x2], 0xFFFF
00000010  204D                     movea.l    A0, A5
00000012  D1FC FFFE D218           add.l      A0, 0xFFFED218
00000018  0A50 0001                xori.w     [A0], 0x1
0000001C  4EBA 5DAA                jsr        [PC + 0x5DAA /* 00005DC8 */]
00000020  302E FFFE                move.w     D0, [A6 - 0x2]
00000024  48C0                     ext.l      D0
00000026  2F00                     move.l     -[A7], D0
00000028  302E FFFC                move.w     D0, [A6 - 0x4]
0000002C  48C0                     ext.l      D0
0000002E  2F00                     move.l     -[A7], D0
00000030  4EBA 3A6E                jsr        [PC + 0x3A6E /* 00003AA0 */]
00000034  204D                     movea.l    A0, A5
00000036  D1FC FFFE 8AE8           add.l      A0, 0xFFFE8AE8
0000003C  4A10                     tst.b      [A0]
0000003E  504F                     addq.w     A7, 8
00000040  6706                     beq        +0x8 /* 00000048 */
00000042  7000                     moveq.l    D0, 0x00
00000044  6000 0096                bra        +0x98 /* 000000DC */
label00000048:
00000048  204D                     movea.l    A0, A5
0000004A  D1FC FFFE D874           add.l      A0, 0xFFFED874
00000050  4A10                     tst.b      [A0]
00000052  6706                     beq        +0x8 /* 0000005A */
00000054  7000                     moveq.l    D0, 0x00
00000056  6000 0084                bra        +0x86 /* 000000DC */
label0000005A:
0000005A  204D                     movea.l    A0, A5
0000005C  D1FC FFFE 9842           add.l      A0, 0xFFFE9842
00000062  4A50                     tst.w      [A0]
00000064  6F0E                     ble        +0x10 /* 00000074 */
00000066  204D                     movea.l    A0, A5
00000068  D1FC FFFE 9842           add.l      A0, 0xFFFE9842
0000006E  5350                     subq.w     [A0], 1
00000070  7000                     moveq.l    D0, 0x00
00000072  6068                     bra        +0x6A /* 000000DC */
label00000074:
00000074  204D                     movea.l    A0, A5
00000076  D1FC FFFE D218           add.l      A0, 0xFFFED218
0000007C  4A50                     tst.w      [A0]
0000007E  6614                     bne        +0x16 /* 00000094 */
00000080  486E FFFE                pea.l      [A6 - 0x2]
00000084  486E FFFC                pea.l      [A6 - 0x4]
00000088  4EBA 0FC8                jsr        [PC + 0xFC8 /* 00001052 */]
0000008C  4EAD 074A                jsr        [A5 + 0x74A /* export_229, CODE:13 @ 00000000 */]
00000090  504F                     addq.w     A7, 8
00000092  6046                     bra        +0x48 /* 000000DA */
label00000094:
00000094  4EAD 08A2                jsr        [A5 + 0x8A2 /* export_272, CODE:15 @ 00001174 */]
00000098  302E FFFE                move.w     D0, [A6 - 0x2]
0000009C  48C0                     ext.l      D0
0000009E  2F00                     move.l     -[A7], D0
000000A0  302E FFFC                move.w     D0, [A6 - 0x4]
000000A4  48C0                     ext.l      D0
000000A6  2F00                     move.l     -[A7], D0
000000A8  4EBA 34C4                jsr        [PC + 0x34C4 /* 0000356E */]
000000AC  4EAD 075A                jsr        [A5 + 0x75A /* export_231, CODE:13 @ 00000F2A */]
000000B0  4EBA 23A2                jsr        [PC + 0x23A2 /* 00002454 */]
000000B4  204D                     movea.l    A0, A5
000000B6  D1FC FFFD ACFE           add.l      A0, 0xFFFDACFE
000000BC  1010                     move.b     D0, [A0]
000000BE  49C0                     lea.l      A4, D0
000000C0  2F00                     move.l     -[A7], D0
000000C2  4EAD 0352                jsr        [A5 + 0x352 /* export_102, CODE:6 @ 0000162C */]
000000C6  4EAD 050A                jsr        [A5 + 0x50A /* export_157, CODE:9 @ 00000AFE */]
000000CA  4EAD 074A                jsr        [A5 + 0x74A /* export_229, CODE:13 @ 00000000 */]
000000CE  4EBA 241C                jsr        [PC + 0x241C /* 000024EC */]
000000D2  4EBA 2E52                jsr        [PC + 0x2E52 /* 00002F26 */]
000000D6  4FEF 000C                lea.l      A7, [A7 + 0xC]
label000000DA:
000000DA  7000                     moveq.l    D0, 0x00
label000000DC:
000000DC  4E5E                     unlink     A6
000000DE  4E75                     rts
000000E0  8C73 696D 756C 6174 6... dc.b       "simulate__Fv"
fn000000F0:
000000F0  4E56 0000                link       A6, 0
000000F4  2F0C                     move.l     -[A7], A4
000000F6  558F                     subq.l     A7, 2
000000F8  A861                     syscall    Random
000000FA  301F                     move.w     D0, [A7]+
000000FC  48C0                     ext.l      D0
000000FE  2F00                     move.l     -[A7], D0
00000100  4EAD 145A                jsr        [A5 + 0x145A /* export_647, CODE:31 @ 00000000 */]
00000104  4C7C 0801 0000 0138      divu.l     D0:D0, 0x8010000
0000010C  0C41 0001                cmpi.w     D1, 0x1
00000110  584F                     addq.w     A7, 4
00000112  660A                     bne        +0xC /* 0000011E */
00000114  7007                     moveq.l    D0, 0x07
00000116  2F00                     move.l     -[A7], D0
00000118  4EAD 0342                jsr        [A5 + 0x342 /* export_100, CODE:6 @ 00000136 */]
0000011C  584F                     addq.w     A7, 4
label0000011E:
0000011E  224D                     movea.l    A1, A5
00000120  D3FC FFFF 7868           add.l      A1, 0xFFFF7868
00000126  2051                     movea.l    A0, [A1]
00000128  2868 0128                movea.l    A4, [A0 + 0x128]
0000012C  2F2C 00D0                move.l     -[A7], [A4 + 0xD0]
00000130  4EAD 0DBA                jsr        [A5 + 0xDBA /* export_435, CODE:20 @ 000044AC */]
00000134  7000                     moveq.l    D0, 0x00
00000136  2F00                     move.l     -[A7], D0
00000138  204D                     movea.l    A0, A5
0000013A  D1FC FFFF 0440           add.l      A0, 0xFFFF0440
00000140  3210                     move.w     D1, [A0]
00000142  48C1                     ext.l      D1
00000144  E789                     lsl        D1, 3
00000146  48C1                     ext.l      D1
00000148  2F01                     move.l     -[A7], D1
0000014A  204D                     movea.l    A0, A5
0000014C  D1FC FFFF 0442           add.l      A0, 0xFFFF0442
00000152  3210                     move.w     D1, [A0]
00000154  48C1                     ext.l      D1
00000156  E789                     lsl        D1, 3
00000158  48C1                     ext.l      D1
0000015A  2F01                     move.l     -[A7], D1
0000015C  4EBA 1B10                jsr        [PC + 0x1B10 /* 00001C6E */]
00000160  4EAD 0362                jsr        [A5 + 0x362 /* export_104, CODE:6 @ 0000224E */]
00000164  4EAD 033A                jsr        [A5 + 0x33A /* export_99, CODE:6 @ 00000000 */]
00000168  4EBA 0094                jsr        [PC + 0x94 /* 000001FE */]
0000016C  4EAD 04AA                jsr        [A5 + 0x4AA /* export_145, CODE:6 @ 00005600 */]
00000170  7000                     moveq.l    D0, 0x00
00000172  204D                     movea.l    A0, A5
00000174  D1FC FFFD CEC6           add.l      A0, 0xFFFDCEC6
0000017A  3010                     move.w     D0, [A0]
0000017C  E588                     lsl        D0, 2
0000017E  204D                     movea.l    A0, A5
00000180  D1FC FFFD CECB           add.l      A0, 0xFFFDCECB
00000186  D010                     add.b      D0, [A0]
00000188  49C0                     lea.l      A4, D0
0000018A  2F00                     move.l     -[A7], D0
0000018C  4EAD 08C2                jsr        [A5 + 0x8C2 /* export_276, CODE:15 @ 000023FA */]
00000190  4EAD 0272                jsr        [A5 + 0x272 /* export_74, CODE:3 @ 00001A50 */]
00000194  4EAD 064A                jsr        [A5 + 0x64A /* export_197, CODE:11 @ 00000000 */]
00000198  4EBA 2B16                jsr        [PC + 0x2B16 /* 00002CB0 */]
0000019C  4EAD 049A                jsr        [A5 + 0x49A /* export_143, CODE:6 @ 00005426 */]
000001A0  558F                     subq.l     A7, 2
000001A2  A861                     syscall    Random
000001A4  7003                     moveq.l    D0, 0x03
000001A6  C05F                     and.w      D0, [A7]+
000001A8  7200                     moveq.l    D1, 0x00
000001AA  3200                     move.w     D1, D0
000001AC  7002                     moveq.l    D0, 0x02
000001AE  B081                     cmp.l      D0, D1
000001B0  4FEF 0014                lea.l      A7, [A7 + 0x14]
000001B4  662E                     bne        +0x30 /* 000001E4 */
000001B6  558F                     subq.l     A7, 2
000001B8  A861                     syscall    Random
000001BA  301F                     move.w     D0, [A7]+
000001BC  0800 0000                btst.b     D0, 0x0
000001C0  6712                     beq        +0x14 /* 000001D4 */
000001C2  204D                     movea.l    A0, A5
000001C4  D1FC FFFE D010           add.l      A0, 0xFFFED010
000001CA  4850                     pea.l      [A0]
000001CC  4EAD 0742                jsr        [A5 + 0x742 /* export_228, CODE:12 @ 000045BA */]
000001D0  584F                     addq.w     A7, 4
000001D2  6010                     bra        +0x12 /* 000001E4 */
label000001D4:
000001D4  204D                     movea.l    A0, A5
000001D6  D1FC FFFE D01A           add.l      A0, 0xFFFED01A
000001DC  4850                     pea.l      [A0]
000001DE  4EAD 0742                jsr        [A5 + 0x742 /* export_228, CODE:12 @ 000045BA */]
000001E2  584F                     addq.w     A7, 4
label000001E4:
000001E4  286E FFFC                movea.l    A4, [A6 - 0x4]
000001E8  4E5E                     unlink     A6
000001EA  4E75                     rts
000001EC  8E73 696D 7765 656B 6... dc.b       "simweeklys__Fv"
fn000001FE:
000001FE  4E56 FFF0                link       A6, -0x0010
00000202  48E7 1F18                movem.l    -[A7], D3,D4,D5,D6,D7,A3,A4
00000206  426E FFF0                clr.w      [A6 - 0x10]
0000020A  7801                     moveq.l    D4, 0x01
0000020C  6000 0198                bra        +0x19A /* 000003A6 */
label00000210:
00000210  2004                     move.l     D0, D4
00000212  C1FC 003A                muls.w     D0, 0x3A /* ':' */
00000216  204D                     movea.l    A0, A5
00000218  D1FC FFFE 9F9C           add.l      A0, 0xFFFE9F9C
0000021E  7200                     moveq.l    D1, 0x00
00000220  3230 0002                move.w     D1, [A0 + D0.w + 0x2]
00000224  7020                     moveq.l    D0, 0x20
00000226  C041                     and.w      D0, D1
00000228  6700 0178                beq        +0x17A /* 000003A2 */
0000022C  2004                     move.l     D0, D4
0000022E  C1FC 003A                muls.w     D0, 0x3A /* ':' */
00000232  204D                     movea.l    A0, A5
00000234  D1FC FFFE 9F9C           add.l      A0, 0xFFFE9F9C
0000023A  3230 0012                move.w     D1, [A0 + D0.w + 0x12]
0000023E  5270 0012                addq.w     [A0 + D0.w + 0x12], 1
00000242  2004                     move.l     D0, D4
00000244  C1FC 003A                muls.w     D0, 0x3A /* ':' */
00000248  204D                     movea.l    A0, A5
0000024A  D1FC FFFE 9F9C           add.l      A0, 0xFFFE9F9C
00000250  7200                     moveq.l    D1, 0x00
00000252  3230 0012                move.w     D1, [A0 + D0.w + 0x12]
00000256  0C41 0004                cmpi.w     D1, 0x4
0000025A  6320                     bls        +0x22 /* 0000027C */
0000025C  7001                     moveq.l    D0, 0x01
0000025E  2F00                     move.l     -[A7], D0
00000260  48C4                     ext.l      D4
00000262  2F04                     move.l     -[A7], D4
00000264  4EAD 05E2                jsr        [A5 + 0x5E2 /* export_184, CODE:10 @ 00002A52 */]
00000268  2004                     move.l     D0, D4
0000026A  C1FC 003A                muls.w     D0, 0x3A /* ':' */
0000026E  204D                     movea.l    A0, A5
00000270  D1FC FFFE 9F9C           add.l      A0, 0xFFFE9F9C
00000276  4270 0012                clr.w      [A0 + D0.w + 0x12]
0000027A  504F                     addq.w     A7, 8
label0000027C:
0000027C  2004                     move.l     D0, D4
0000027E  C1FC 003A                muls.w     D0, 0x3A /* ':' */
00000282  204D                     movea.l    A0, A5
00000284  D1FC FFFE 9F9C           add.l      A0, 0xFFFE9F9C
0000028A  7200                     moveq.l    D1, 0x00
0000028C  1230 0011                move.b     D1, [A0 + D0.w + 0x11]
00000290  0C41 00FF                cmpi.w     D1, 0xFF
00000294  6600 0104                bne        +0x106 /* 0000039A */
00000298  2004                     move.l     D0, D4
0000029A  C1FC 003A                muls.w     D0, 0x3A /* ':' */
0000029E  204D                     movea.l    A0, A5
000002A0  D1FC FFFE 9F9C           add.l      A0, 0xFFFE9F9C
000002A6  7200                     moveq.l    D1, 0x00
000002A8  3230 0002                move.w     D1, [A0 + D0.w + 0x2]
000002AC  7040                     moveq.l    D0, 0x40
000002AE  C041                     and.w      D0, D1
000002B0  6600 00E8                bne        +0xEA /* 0000039A */
000002B4  2004                     move.l     D0, D4
000002B6  C1FC 003A                muls.w     D0, 0x3A /* ':' */
000002BA  204D                     movea.l    A0, A5
000002BC  D1FC FFFE 9F9C           add.l      A0, 0xFFFE9F9C
000002C2  7200                     moveq.l    D1, 0x00
000002C4  1230 0005                move.b     D1, [A0 + D0.w + 0x5]
000002C8  3D41 FFF4                move.w     [A6 - 0xC], D1
000002CC  2004                     move.l     D0, D4
000002CE  C1FC 003A                muls.w     D0, 0x3A /* ':' */
000002D2  204D                     movea.l    A0, A5
000002D4  D1FC FFFE 9F9C           add.l      A0, 0xFFFE9F9C
000002DA  7C00                     moveq.l    D6, 0x00
000002DC  1C30 0006                move.b     D6, [A0 + D0.w + 0x6]
000002E0  48C4                     ext.l      D4
000002E2  2F04                     move.l     -[A7], D4
000002E4  2004                     move.l     D0, D4
000002E6  C1FC 003A                muls.w     D0, 0x3A /* ':' */
000002EA  204D                     movea.l    A0, A5
000002EC  D1FC FFFE 9F9C           add.l      A0, 0xFFFE9F9C
000002F2  3030 0000                move.w     D0, [A0 + D0.w]
000002F6  48C0                     ext.l      D0
000002F8  2F00                     move.l     -[A7], D0
000002FA  7002                     moveq.l    D0, 0x02
000002FC  2F00                     move.l     -[A7], D0
000002FE  4EAD 069A                jsr        [A5 + 0x69A /* export_207, CODE:11 @ 00005728 */]
00000302  4A40                     tst.w      D0
00000304  4FEF 000C                lea.l      A7, [A7 + 0xC]
00000308  6700 0090                beq        +0x92 /* 0000039A */
0000030C  204D                     movea.l    A0, A5
0000030E  D1FC FFFE D024           add.l      A0, 0xFFFED024
00000314  4850                     pea.l      [A0]
00000316  4EAD 0742                jsr        [A5 + 0x742 /* export_228, CODE:12 @ 000045BA */]
0000031A  7001                     moveq.l    D0, 0x01
0000031C  2F00                     move.l     -[A7], D0
0000031E  2F00                     move.l     -[A7], D0
00000320  48C6                     ext.l      D6
00000322  2F06                     move.l     -[A7], D6
00000324  322E FFF4                move.w     D1, [A6 - 0xC]
00000328  48C1                     ext.l      D1
0000032A  2F01                     move.l     -[A7], D1
0000032C  4EAD 0932                jsr        [A5 + 0x932 /* export_290, CODE:16 @ 00000802 */]
00000330  4A40                     tst.w      D0
00000332  4FEF 0014                lea.l      A7, [A7 + 0x14]
00000336  6662                     bne        +0x64 /* 0000039A */
00000338  486E FFF8                pea.l      [A6 - 0x8]
0000033C  486E FFF6                pea.l      [A6 - 0xA]
00000340  48C4                     ext.l      D4
00000342  2F04                     move.l     -[A7], D4
00000344  4EAD 05B2                jsr        [A5 + 0x5B2 /* export_178, CODE:10 @ 00001FF8 */]
00000348  3A2E FFF4                move.w     D5, [A6 - 0xC]
0000034C  4FEF 000C                lea.l      A7, [A7 + 0xC]
00000350  602A                     bra        +0x2C /* 0000037C */
label00000352:
00000352  3E06                     move.w     D7, D6
00000354  6012                     bra        +0x14 /* 00000368 */
label00000356:
00000356  48C7                     ext.l      D7
00000358  2F07                     move.l     -[A7], D7
0000035A  48C5                     ext.l      D5
0000035C  2F05                     move.l     -[A7], D5
0000035E  4EBA 5780                jsr        [PC + 0x5780 /* 00005AE0 */]
00000362  504F                     addq.w     A7, 8
00000364  3007                     move.w     D0, D7
00000366  5247                     addq.w     D7, 1
label00000368:
00000368  48C7                     ext.l      D7
0000036A  48C6                     ext.l      D6
0000036C  302E FFF8                move.w     D0, [A6 - 0x8]
00000370  48C0                     ext.l      D0
00000372  D086                     add.l      D0, D6
00000374  B087                     cmp.l      D0, D7
00000376  6EDE                     bgt        -0x20 /* 00000356 */
00000378  3005                     move.w     D0, D5
0000037A  5245                     addq.w     D5, 1
label0000037C:
0000037C  48C5                     ext.l      D5
0000037E  302E FFF4                move.w     D0, [A6 - 0xC]
00000382  48C0                     ext.l      D0
00000384  322E FFF6                move.w     D1, [A6 - 0xA]
00000388  48C1                     ext.l      D1
0000038A  D280                     add.l      D1, D0
0000038C  B285                     cmp.l      D1, D5
0000038E  6EC2                     bgt        -0x3C /* 00000352 */
00000390  7049                     moveq.l    D0, 0x49
00000392  2F00                     move.l     -[A7], D0
00000394  4EAD 032A                jsr        [A5 + 0x32A /* export_97, CODE:5 @ 00000560 */]
00000398  584F                     addq.w     A7, 4
label0000039A:
0000039A  302E FFF0                move.w     D0, [A6 - 0x10]
0000039E  526E FFF0                addq.w     [A6 - 0x10], 1
label000003A2:
000003A2  3004                     move.w     D0, D4
000003A4  5244                     addq.w     D4, 1
label000003A6:
000003A6  302E FFF0                move.w     D0, [A6 - 0x10]
000003AA  204D                     movea.l    A0, A5
000003AC  D1FC FFFE 9F9A           add.l      A0, 0xFFFE9F9A
000003B2  B050                     cmp.w      D0, [A0]
000003B4  6D00 FE5A                blt        -0x1A4 /* 00000210 */
000003B8  426E FFF0                clr.w      [A6 - 0x10]
000003BC  7801                     moveq.l    D4, 0x01
000003BE  6000 01DA                bra        +0x1DC /* 0000059A */
label000003C2:
000003C2  2004                     move.l     D0, D4
000003C4  C1FC 0046                muls.w     D0, 0x46 /* 'F' */
000003C8  204D                     movea.l    A0, A5
000003CA  D1FC FFFE D880           add.l      A0, 0xFFFED880
000003D0  7200                     moveq.l    D1, 0x00
000003D2  3230 0002                move.w     D1, [A0 + D0.w + 0x2]
000003D6  7020                     moveq.l    D0, 0x20
000003D8  C041                     and.w      D0, D1
000003DA  6700 01BA                beq        +0x1BC /* 00000596 */
000003DE  2004                     move.l     D0, D4
000003E0  C1FC 0046                muls.w     D0, 0x46 /* 'F' */
000003E4  204D                     movea.l    A0, A5
000003E6  D1FC FFFE D880           add.l      A0, 0xFFFED880
000003EC  3230 0008                move.w     D1, [A0 + D0.w + 0x8]
000003F0  5270 0008                addq.w     [A0 + D0.w + 0x8], 1
000003F4  2004                     move.l     D0, D4
000003F6  C1FC 0046                muls.w     D0, 0x46 /* 'F' */
000003FA  204D                     movea.l    A0, A5
000003FC  D1FC FFFE D880           add.l      A0, 0xFFFED880
00000402  3030 0008                move.w     D0, [A0 + D0.w + 0x8]
00000406  E448                     lsr        D0.w, 2
00000408  2204                     move.l     D1, D4
0000040A  C3FC 0046                muls.w     D1, 0x46 /* 'F' */
0000040E  204D                     movea.l    A0, A5
00000410  D1FC FFFE D880           add.l      A0, 0xFFFED880
00000416  1180 1006                move.b     [A0 + D1.w + 0x6], D0
0000041A  2004                     move.l     D0, D4
0000041C  C1FC 0046                muls.w     D0, 0x46 /* 'F' */
00000420  204D                     movea.l    A0, A5
00000422  D1FC FFFE D880           add.l      A0, 0xFFFED880
00000428  7200                     moveq.l    D1, 0x00
0000042A  3230 0000                move.w     D1, [A0 + D0.w]
0000042E  7048                     moveq.l    D0, 0x48
00000430  B081                     cmp.l      D0, D1
00000432  6600 015A                bne        +0x15C /* 0000058E */
00000436  2004                     move.l     D0, D4
00000438  C1FC 0046                muls.w     D0, 0x46 /* 'F' */
0000043C  204D                     movea.l    A0, A5
0000043E  D1FC FFFE D880           add.l      A0, 0xFFFED880
00000444  7200                     moveq.l    D1, 0x00
00000446  3230 0008                move.w     D1, [A0 + D0.w + 0x8]
0000044A  0C41 01E0                cmpi.w     D1, 0x1E0
0000044E  6300 013E                bls        +0x140 /* 0000058E */
00000452  558F                     subq.l     A7, 2
00000454  A861                     syscall    Random
00000456  700F                     moveq.l    D0, 0x0F
00000458  C05F                     and.w      D0, [A7]+
0000045A  7200                     moveq.l    D1, 0x00
0000045C  3200                     move.w     D1, D0
0000045E  7003                     moveq.l    D0, 0x03
00000460  B081                     cmp.l      D0, D1
00000462  6618                     bne        +0x1A /* 0000047C */
00000464  2004                     move.l     D0, D4
00000466  C1FC 0046                muls.w     D0, 0x46 /* 'F' */
0000046A  204D                     movea.l    A0, A5
0000046C  D1FC FFFE D880           add.l      A0, 0xFFFED880
00000472  31BC 00F0 0008           move.w     [A0 + D0.w + 0x8], 0xF0
00000478  6000 0114                bra        +0x116 /* 0000058E */
label0000047C:
0000047C  558F                     subq.l     A7, 2
0000047E  A861                     syscall    Random
00000480  703F                     moveq.l    D0, 0x3F
00000482  C05F                     and.w      D0, [A7]+
00000484  7200                     moveq.l    D1, 0x00
00000486  3200                     move.w     D1, D0
00000488  7007                     moveq.l    D0, 0x07
0000048A  B081                     cmp.l      D0, D1
0000048C  6600 0100                bne        +0x102 /* 0000058E */
00000490  2004                     move.l     D0, D4
00000492  C1FC 0046                muls.w     D0, 0x46 /* 'F' */
00000496  204D                     movea.l    A0, A5
00000498  D1FC FFFE D880           add.l      A0, 0xFFFED880
0000049E  11BC 00FF 0006           move.b     [A0 + D0.w + 0x6], 0xFF
000004A4  2004                     move.l     D0, D4
000004A6  C1FC 0046                muls.w     D0, 0x46 /* 'F' */
000004AA  204D                     movea.l    A0, A5
000004AC  D1FC FFFE D880           add.l      A0, 0xFFFED880
000004B2  4270 000A                clr.w      [A0 + D0.w + 0xA]
000004B6  2004                     move.l     D0, D4
000004B8  C1FC 0046                muls.w     D0, 0x46 /* 'F' */
000004BC  204D                     movea.l    A0, A5
000004BE  D1FC FFFE D880           add.l      A0, 0xFFFED880
000004C4  7200                     moveq.l    D1, 0x00
000004C6  1230 0005                move.b     D1, [A0 + D0.w + 0x5]
000004CA  2004                     move.l     D0, D4
000004CC  C1FC 0046                muls.w     D0, 0x46 /* 'F' */
000004D0  204D                     movea.l    A0, A5
000004D2  D1FC FFFE D880           add.l      A0, 0xFFFED880
000004D8  7400                     moveq.l    D2, 0x00
000004DA  1430 0004                move.b     D2, [A0 + D0.w + 0x4]
000004DE  C5FC 00C0                muls.w     D2, 0xC0
000004E2  204D                     movea.l    A0, A5
000004E4  D1FC FFFE 42D4           add.l      A0, 0xFFFE42D4
000004EA  D241                     add.w      D1, D1
000004EC  D242                     add.w      D1, D2
000004EE  7000                     moveq.l    D0, 0x00
000004F0  3030 1000                move.w     D0, [A0 + D1.w]
000004F4  323C F800                move.w     D1, 0xF800
000004F8  C240                     and.w      D1, D0
000004FA  7000                     moveq.l    D0, 0x00
000004FC  3001                     move.w     D0, D1
000004FE  323C 0095                move.w     D1, 0x95
00000502  8240                     or.w       D1, D0
00000504  303C BFFF                move.w     D0, 0xBFFF
00000508  C041                     and.w      D0, D1
0000050A  2204                     move.l     D1, D4
0000050C  C3FC 0046                muls.w     D1, 0x46 /* 'F' */
00000510  204D                     movea.l    A0, A5
00000512  D1FC FFFE D880           add.l      A0, 0xFFFED880
00000518  7400                     moveq.l    D2, 0x00
0000051A  1430 1005                move.b     D2, [A0 + D1.w + 0x5]
0000051E  2204                     move.l     D1, D4
00000520  C3FC 0046                muls.w     D1, 0x46 /* 'F' */
00000524  204D                     movea.l    A0, A5
00000526  D1FC FFFE D880           add.l      A0, 0xFFFED880
0000052C  7600                     moveq.l    D3, 0x00
0000052E  1630 1004                move.b     D3, [A0 + D1.w + 0x4]
00000532  C7FC 00C0                muls.w     D3, 0xC0
00000536  204D                     movea.l    A0, A5
00000538  D1FC FFFE 42D4           add.l      A0, 0xFFFE42D4
0000053E  D442                     add.w      D2, D2
00000540  D443                     add.w      D2, D3
00000542  3180 2000                move.w     [A0 + D2.w], D0
00000546  2004                     move.l     D0, D4
00000548  C1FC 0046                muls.w     D0, 0x46 /* 'F' */
0000054C  204D                     movea.l    A0, A5
0000054E  D1FC FFFE D880           add.l      A0, 0xFFFED880
00000554  7200                     moveq.l    D1, 0x00
00000556  1230 0005                move.b     D1, [A0 + D0.w + 0x5]
0000055A  2004                     move.l     D0, D4
0000055C  C1FC 0046                muls.w     D0, 0x46 /* 'F' */
00000560  204D                     movea.l    A0, A5
00000562  D1FC FFFE D880           add.l      A0, 0xFFFED880
00000568  7400                     moveq.l    D2, 0x00
0000056A  1430 0004                move.b     D2, [A0 + D0.w + 0x4]
0000056E  C5FC 00C0                muls.w     D2, 0xC0
00000572  204D                     movea.l    A0, A5
00000574  D1FC FFFE 42D4           add.l      A0, 0xFFFE42D4
0000057A  D241                     add.w      D1, D1
0000057C  D242                     add.w      D1, D2
0000057E  0270 BFFF 1000           andi.w     [A0 + D1.w], 0xBFFF
00000584  702C                     moveq.l    D0, 0x2C
00000586  2F00                     move.l     -[A7], D0
00000588  4EAD 02F2                jsr        [A5 + 0x2F2 /* export_90, CODE:3 @ 000062C4 */]
0000058C  584F                     addq.w     A7, 4
label0000058E:
0000058E  302E FFF0                move.w     D0, [A6 - 0x10]
00000592  526E FFF0                addq.w     [A6 - 0x10], 1
label00000596:
00000596  3004                     move.w     D0, D4
00000598  5244                     addq.w     D4, 1
label0000059A:
0000059A  302E FFF0                move.w     D0, [A6 - 0x10]
0000059E  204D                     movea.l    A0, A5
000005A0  D1FC FFFE 94DC           add.l      A0, 0xFFFE94DC
000005A6  B050                     cmp.w      D0, [A0]
000005A8  6D00 FE18                blt        -0x1E6 /* 000003C2 */
000005AC  426E FFF0                clr.w      [A6 - 0x10]
000005B0  7801                     moveq.l    D4, 0x01
000005B2  605E                     bra        +0x60 /* 00000612 */
label000005B4:
000005B4  2004                     move.l     D0, D4
000005B6  48C0                     ext.l      D0
000005B8  E588                     lsl        D0, 2
000005BA  2200                     move.l     D1, D0
000005BC  E588                     lsl        D0, 2
000005BE  D081                     add.l      D0, D1
000005C0  204D                     movea.l    A0, A5
000005C2  D1FC FFFE 8AF0           add.l      A0, 0xFFFE8AF0
000005C8  7220                     moveq.l    D1, 0x20
000005CA  C270 0002                and.w      D1, [A0 + D0.w + 0x2]
000005CE  673E                     beq        +0x40 /* 0000060E */
000005D0  2004                     move.l     D0, D4
000005D2  48C0                     ext.l      D0
000005D4  E588                     lsl        D0, 2
000005D6  2200                     move.l     D1, D0
000005D8  E588                     lsl        D0, 2
000005DA  D081                     add.l      D0, D1
000005DC  204D                     movea.l    A0, A5
000005DE  D1FC FFFE 8AF0           add.l      A0, 0xFFFE8AF0
000005E4  3230 000A                move.w     D1, [A0 + D0.w + 0xA]
000005E8  5270 000A                addq.w     [A0 + D0.w + 0xA], 1
000005EC  2004                     move.l     D0, D4
000005EE  48C0                     ext.l      D0
000005F0  E588                     lsl        D0, 2
000005F2  2200                     move.l     D1, D0
000005F4  E588                     lsl        D0, 2
000005F6  D081                     add.l      D0, D1
000005F8  204D                     movea.l    A0, A5
000005FA  D1FC FFFE 8AF0           add.l      A0, 0xFFFE8AF0
00000600  0670 0100 0008           addi.w     [A0 + D0.w + 0x8], 0x100
00000606  302E FFF0                move.w     D0, [A6 - 0x10]
0000060A  526E FFF0                addq.w     [A6 - 0x10], 1
label0000060E:
0000060E  3004                     move.w     D0, D4
00000610  5244                     addq.w     D4, 1
label00000612:
00000612  302E FFF0                move.w     D0, [A6 - 0x10]
00000616  204D                     movea.l    A0, A5
00000618  D1FC FFFE 8AEE           add.l      A0, 0xFFFE8AEE
0000061E  B050                     cmp.w      D0, [A0]
00000620  6D92                     blt        -0x6C /* 000005B4 */
00000622  426E FFF0                clr.w      [A6 - 0x10]
00000626  7801                     moveq.l    D4, 0x01
00000628  6000 0170                bra        +0x172 /* 0000079A */
label0000062C:
0000062C  302E FFF0                move.w     D0, [A6 - 0x10]
00000630  204D                     movea.l    A0, A5
00000632  D1FC FFFD 71EA           add.l      A0, 0xFFFD71EA
00000638  B050                     cmp.w      D0, [A0]
0000063A  6C00 0170                bge        +0x172 /* 000007AC */
0000063E  2004                     move.l     D0, D4
00000640  C1FC 0022                muls.w     D0, 0x22 /* '\"' */
00000644  204D                     movea.l    A0, A5
00000646  D1FC FFFD 71EC           add.l      A0, 0xFFFD71EC
0000064C  7200                     moveq.l    D1, 0x00
0000064E  3230 0002                move.w     D1, [A0 + D0.w + 0x2]
00000652  7020                     moveq.l    D0, 0x20
00000654  C041                     and.w      D0, D1
00000656  6700 013E                beq        +0x140 /* 00000796 */
0000065A  558F                     subq.l     A7, 2
0000065C  A861                     syscall    Random
0000065E  707F                     moveq.l    D0, 0x7F
00000660  C05F                     and.w      D0, [A7]+
00000662  7200                     moveq.l    D1, 0x00
00000664  3200                     move.w     D1, D0
00000666  704B                     moveq.l    D0, 0x4B
00000668  B081                     cmp.l      D0, D1
0000066A  660A                     bne        +0xC /* 00000676 */
0000066C  48C4                     ext.l      D4
0000066E  2F04                     move.l     -[A7], D4
00000670  4EAD 029A                jsr        [A5 + 0x29A /* export_79, CODE:3 @ 00002B9C */]
00000674  584F                     addq.w     A7, 4
label00000676:
00000676  2004                     move.l     D0, D4
00000678  C1FC 0022                muls.w     D0, 0x22 /* '\"' */
0000067C  204D                     movea.l    A0, A5
0000067E  D1FC FFFD 71EC           add.l      A0, 0xFFFD71EC
00000684  3030 0006                move.w     D0, [A0 + D0.w + 0x6]
00000688  907C 00A0                sub.w      D0, 0xA0
0000068C  3D40 FFF2                move.w     [A6 - 0xE], D0
00000690  2004                     move.l     D0, D4
00000692  C1FC 0022                muls.w     D0, 0x22 /* '\"' */
00000696  204D                     movea.l    A0, A5
00000698  D1FC FFFD 71EC           add.l      A0, 0xFFFD71EC
0000069E  3230 000A                move.w     D1, [A0 + D0.w + 0xA]
000006A2  5270 000A                addq.w     [A0 + D0.w + 0xA], 1
000006A6  2004                     move.l     D0, D4
000006A8  C1FC 0022                muls.w     D0, 0x22 /* '\"' */
000006AC  204D                     movea.l    A0, A5
000006AE  D1FC FFFD 71EC           add.l      A0, 0xFFFD71EC
000006B4  322E FFF2                move.w     D1, [A6 - 0xE]
000006B8  D241                     add.w      D1, D1
000006BA  224D                     movea.l    A1, A5
000006BC  D3FC FFFD 71DA           add.l      A1, 0xFFFD71DA
000006C2  3030 000A                move.w     D0, [A0 + D0.w + 0xA]
000006C6  B071 1000                cmp.w      D0, [A1 + D1.w]
000006CA  6314                     bls        +0x16 /* 000006E0 */
000006CC  2004                     move.l     D0, D4
000006CE  C1FC 0022                muls.w     D0, 0x22 /* '\"' */
000006D2  204D                     movea.l    A0, A5
000006D4  D1FC FFFD 71EC           add.l      A0, 0xFFFD71EC
000006DA  11BC 0001 0012           move.b     [A0 + D0.w + 0x12], 0x1
label000006E0:
000006E0  2004                     move.l     D0, D4
000006E2  C1FC 0022                muls.w     D0, 0x22 /* '\"' */
000006E6  204D                     movea.l    A0, A5
000006E8  D1FC FFFD 71EC           add.l      A0, 0xFFFD71EC
000006EE  322E FFF2                move.w     D1, [A6 - 0xE]
000006F2  D241                     add.w      D1, D1
000006F4  224D                     movea.l    A1, A5
000006F6  D3FC FFFD 71E2           add.l      A1, 0xFFFD71E2
000006FC  3030 000A                move.w     D0, [A0 + D0.w + 0xA]
00000700  B071 1000                cmp.w      D0, [A1 + D1.w]
00000704  6300 0088                bls        +0x8A /* 0000078E */
00000708  2004                     move.l     D0, D4
0000070A  C1FC 0022                muls.w     D0, 0x22 /* '\"' */
0000070E  204D                     movea.l    A0, A5
00000710  D1FC FFFD 71EC           add.l      A0, 0xFFFD71EC
00000716  7200                     moveq.l    D1, 0x00
00000718  1230 0001                move.b     D1, [A0 + D0.w + 0x1]
0000071C  2004                     move.l     D0, D4
0000071E  C1FC 0022                muls.w     D0, 0x22 /* '\"' */
00000722  204D                     movea.l    A0, A5
00000724  D1FC FFFD 71EC           add.l      A0, 0xFFFD71EC
0000072A  7400                     moveq.l    D2, 0x00
0000072C  1430 0000                move.b     D2, [A0 + D0.w]
00000730  C5FC 00C0                muls.w     D2, 0xC0
00000734  204D                     movea.l    A0, A5
00000736  D1FC FFFE 42D4           add.l      A0, 0xFFFE42D4
0000073C  D241                     add.w      D1, D1
0000073E  D242                     add.w      D1, D2
00000740  0270 F7FF 1000           andi.w     [A0 + D1.w], 0xF7FF
00000746  2004                     move.l     D0, D4
00000748  C1FC 0022                muls.w     D0, 0x22 /* '\"' */
0000074C  204D                     movea.l    A0, A5
0000074E  D1FC FFFD 71EC           add.l      A0, 0xFFFD71EC
00000754  7200                     moveq.l    D1, 0x00
00000756  1230 0001                move.b     D1, [A0 + D0.w + 0x1]
0000075A  2004                     move.l     D0, D4
0000075C  C1FC 0022                muls.w     D0, 0x22 /* '\"' */
00000760  204D                     movea.l    A0, A5
00000762  D1FC FFFD 71EC           add.l      A0, 0xFFFD71EC
00000768  7400                     moveq.l    D2, 0x00
0000076A  1430 0000                move.b     D2, [A0 + D0.w]
0000076E  C5FC 00C0                muls.w     D2, 0xC0
00000772  204D                     movea.l    A0, A5
00000774  D1FC FFFE 42D4           add.l      A0, 0xFFFE42D4
0000077A  D241                     add.w      D1, D1
0000077C  D242                     add.w      D1, D2
0000077E  0270 BFFF 1000           andi.w     [A0 + D1.w], 0xBFFF
00000784  48C4                     ext.l      D4
00000786  2F04                     move.l     -[A7], D4
00000788  4EAD 0242                jsr        [A5 + 0x242 /* export_68, CODE:3 @ 0000015A */]
0000078C  584F                     addq.w     A7, 4
label0000078E:
0000078E  302E FFF0                move.w     D0, [A6 - 0x10]
00000792  526E FFF0                addq.w     [A6 - 0x10], 1
label00000796:
00000796  3004                     move.w     D0, D4
00000798  5244                     addq.w     D4, 1
label0000079A:
0000079A  302E FFF0                move.w     D0, [A6 - 0x10]
0000079E  204D                     movea.l    A0, A5
000007A0  D1FC FFFD 71EA           add.l      A0, 0xFFFD71EA
000007A6  B050                     cmp.w      D0, [A0]
000007A8  6D00 FE82                blt        -0x17C /* 0000062C */
label000007AC:
000007AC  426E FFF0                clr.w      [A6 - 0x10]
000007B0  7801                     moveq.l    D4, 0x01
000007B2  6000 0204                bra        +0x206 /* 000009B8 */
label000007B6:
000007B6  2004                     move.l     D0, D4
000007B8  C1FC 000C                muls.w     D0, 0xC
000007BC  204D                     movea.l    A0, A5
000007BE  D1FC FFFD 9400           add.l      A0, 0xFFFD9400
000007C4  7220                     moveq.l    D1, 0x20
000007C6  C230 000A                and.b      D1, [A0 + D0.w + 0xA]
000007CA  6700 01E8                beq        +0x1EA /* 000009B4 */
000007CE  2004                     move.l     D0, D4
000007D0  C1FC 000C                muls.w     D0, 0xC
000007D4  204D                     movea.l    A0, A5
000007D6  D1FC FFFD 9400           add.l      A0, 0xFFFD9400
000007DC  7200                     moveq.l    D1, 0x00
000007DE  3230 0000                move.w     D1, [A0 + D0.w]
000007E2  0C41 00A8                cmpi.w     D1, 0xA8
000007E6  651A                     bcs        +0x1C /* 00000802 */
000007E8  2004                     move.l     D0, D4
000007EA  C1FC 000C                muls.w     D0, 0xC
000007EE  204D                     movea.l    A0, A5
000007F0  D1FC FFFD 9400           add.l      A0, 0xFFFD9400
000007F6  7200                     moveq.l    D1, 0x00
000007F8  3230 0000                move.w     D1, [A0 + D0.w]
000007FC  0C41 00BF                cmpi.w     D1, 0xBF
00000800  6334                     bls        +0x36 /* 00000836 */
label00000802:
00000802  2004                     move.l     D0, D4
00000804  C1FC 000C                muls.w     D0, 0xC
00000808  204D                     movea.l    A0, A5
0000080A  D1FC FFFD 9400           add.l      A0, 0xFFFD9400
00000810  7200                     moveq.l    D1, 0x00
00000812  3230 0000                move.w     D1, [A0 + D0.w]
00000816  0C41 00C0                cmpi.w     D1, 0xC0
0000081A  6578                     bcs        +0x7A /* 00000894 */
0000081C  2004                     move.l     D0, D4
0000081E  C1FC 000C                muls.w     D0, 0xC
00000822  204D                     movea.l    A0, A5
00000824  D1FC FFFD 9400           add.l      A0, 0xFFFD9400
0000082A  7200                     moveq.l    D1, 0x00
0000082C  3230 0000                move.w     D1, [A0 + D0.w]
00000830  0C41 00D7                cmpi.w     D1, 0xD7
00000834  625E                     bhi        +0x60 /* 00000894 */
label00000836:
00000836  2004                     move.l     D0, D4
00000838  C1FC 000C                muls.w     D0, 0xC
0000083C  204D                     movea.l    A0, A5
0000083E  D1FC FFFD 9400           add.l      A0, 0xFFFD9400
00000844  3D70 0004 FFFA           move.w     [A6 - 0x6], [A0 + D0.w + 0x4]
0000084A  2004                     move.l     D0, D4
0000084C  C1FC 000C                muls.w     D0, 0xC
00000850  204D                     movea.l    A0, A5
00000852  D1FC FFFD 9400           add.l      A0, 0xFFFD9400
00000858  7204                     moveq.l    D1, 0x04
0000085A  C230 000A                and.b      D1, [A0 + D0.w + 0xA]
0000085E  670A                     beq        +0xC /* 0000086A */
00000860  302E FFFA                move.w     D0, [A6 - 0x6]
00000864  526E FFFA                addq.w     [A6 - 0x6], 1
00000868  6004                     bra        +0x6 /* 0000086E */
label0000086A:
0000086A  586E FFFA                addq.w     [A6 - 0x6], 4
label0000086E:
0000086E  7000                     moveq.l    D0, 0x00
00000870  302E FFFA                move.w     D0, [A6 - 0x6]
00000874  0C40 FFFA                cmpi.w     D0, 0xFFFA
00000878  6306                     bls        +0x8 /* 00000880 */
0000087A  3D7C FFFA FFFA           move.w     [A6 - 0x6], 0xFFFA
label00000880:
00000880  2004                     move.l     D0, D4
00000882  C1FC 000C                muls.w     D0, 0xC
00000886  204D                     movea.l    A0, A5
00000888  D1FC FFFD 9400           add.l      A0, 0xFFFD9400
0000088E  31AE FFFA 0004           move.w     [A0 + D0.w + 0x4], [A6 - 0x6]
label00000894:
00000894  2004                     move.l     D0, D4
00000896  C1FC 000C                muls.w     D0, 0xC
0000089A  204D                     movea.l    A0, A5
0000089C  D1FC FFFD 9400           add.l      A0, 0xFFFD9400
000008A2  7200                     moveq.l    D1, 0x00
000008A4  3230 0000                move.w     D1, [A0 + D0.w]
000008A8  0C81 0000 012B           cmpi.l     D1, 0x12B
000008AE  6600 00E6                bne        +0xE8 /* 00000996 */
000008B2  2004                     move.l     D0, D4
000008B4  C1FC 000C                muls.w     D0, 0xC
000008B8  204D                     movea.l    A0, A5
000008BA  D1FC FFFD 9400           add.l      A0, 0xFFFD9400
000008C0  7200                     moveq.l    D1, 0x00
000008C2  3230 0002                move.w     D1, [A0 + D0.w + 0x2]
000008C6  4A81                     tst.l      D1
000008C8  6600 00CC                bne        +0xCE /* 00000996 */
000008CC  7040                     moveq.l    D0, 0x40
000008CE  2F00                     move.l     -[A7], D0
000008D0  4EAD 093A                jsr        [A5 + 0x93A /* export_291, CODE:16 @ 00000948 */]
000008D4  3D40 FFF2                move.w     [A6 - 0xE], D0
000008D8  48C0                     ext.l      D0
000008DA  E388                     lsl        D0, 1
000008DC  2204                     move.l     D1, D4
000008DE  C3FC 000C                muls.w     D1, 0xC
000008E2  204D                     movea.l    A0, A5
000008E4  D1FC FFFD 9400           add.l      A0, 0xFFFD9400
000008EA  3180 1002                move.w     [A0 + D1.w + 0x2], D0
000008EE  4A6E FFF2                tst.w      [A6 - 0xE]
000008F2  584F                     addq.w     A7, 4
000008F4  6700 00A0                beq        +0xA2 /* 00000996 */
000008F8  2004                     move.l     D0, D4
000008FA  C1FC 000C                muls.w     D0, 0xC
000008FE  204D                     movea.l    A0, A5
00000900  D1FC FFFD 9400           add.l      A0, 0xFFFD9400
00000906  1030 0009                move.b     D0, [A0 + D0.w + 0x9]
0000090A  4880                     ext.w      D0
0000090C  2204                     move.l     D1, D4
0000090E  C3FC 000C                muls.w     D1, 0xC
00000912  204D                     movea.l    A0, A5
00000914  D1FC FFFD 9400           add.l      A0, 0xFFFD9400
0000091A  1230 1008                move.b     D1, [A0 + D1.w + 0x8]
0000091E  4881                     ext.w      D1
00000920  C3FC 00C0                muls.w     D1, 0xC0
00000924  204D                     movea.l    A0, A5
00000926  D1FC FFFE 42D4           add.l      A0, 0xFFFE42D4
0000092C  D040                     add.w      D0, D0
0000092E  D041                     add.w      D0, D1
00000930  7200                     moveq.l    D1, 0x00
00000932  3230 0000                move.w     D1, [A0 + D0.w]
00000936  303C F800                move.w     D0, 0xF800
0000093A  C041                     and.w      D0, D1
0000093C  7200                     moveq.l    D1, 0x00
0000093E  3200                     move.w     D1, D0
00000940  4A81                     tst.l      D1
00000942  204D                     movea.l    A0, A5
00000944  D1FC FFFF 79E0           add.l      A0, 0xFFFF79E0
0000094A  3010                     move.w     D0, [A0]
0000094C  48C0                     ext.l      D0
0000094E  5280                     addq.l     D0, 1
00000950  8081                     or.l       D0, D1
00000952  223C FFFF BFFF           move.l     D1, 0xFFFFBFFF
00000958  C280                     and.l      D1, D0
0000095A  2004                     move.l     D0, D4
0000095C  C1FC 000C                muls.w     D0, 0xC
00000960  204D                     movea.l    A0, A5
00000962  D1FC FFFD 9400           add.l      A0, 0xFFFD9400
00000968  1030 0009                move.b     D0, [A0 + D0.w + 0x9]
0000096C  4880                     ext.w      D0
0000096E  2404                     move.l     D2, D4
00000970  C5FC 000C                muls.w     D2, 0xC
00000974  204D                     movea.l    A0, A5
00000976  D1FC FFFD 9400           add.l      A0, 0xFFFD9400
0000097C  1430 2008                move.b     D2, [A0 + D2.w + 0x8]
00000980  4882                     ext.w      D2
00000982  C5FC 00C0                muls.w     D2, 0xC0
00000986  204D                     movea.l    A0, A5
00000988  D1FC FFFE 42D4           add.l      A0, 0xFFFE42D4
0000098E  D040                     add.w      D0, D0
00000990  D042                     add.w      D0, D2
00000992  3181 0000                move.w     [A0 + D0.w], D1
label00000996:
00000996  2004                     move.l     D0, D4
00000998  C1FC 000C                muls.w     D0, 0xC
0000099C  204D                     movea.l    A0, A5
0000099E  D1FC FFFD 9400           add.l      A0, 0xFFFD9400
000009A4  3230 0006                move.w     D1, [A0 + D0.w + 0x6]
000009A8  5270 0006                addq.w     [A0 + D0.w + 0x6], 1
000009AC  302E FFF0                move.w     D0, [A6 - 0x10]
000009B0  526E FFF0                addq.w     [A6 - 0x10], 1
label000009B4:
000009B4  3004                     move.w     D0, D4
000009B6  5244                     addq.w     D4, 1
label000009B8:
000009B8  302E FFF0                move.w     D0, [A6 - 0x10]
000009BC  204D                     movea.l    A0, A5
000009BE  D1FC FFFD 93FE           add.l      A0, 0xFFFD93FE
000009C4  B050                     cmp.w      D0, [A0]
000009C6  6D00 FDEE                blt        -0x210 /* 000007B6 */
000009CA  204D                     movea.l    A0, A5
000009CC  D1FC FFFF 7868           add.l      A0, 0xFFFF7868
000009D2  2050                     movea.l    A0, [A0]
000009D4  2D48 FFFC                move.l     [A6 - 0x4], A0
000009D8  2868 0128                movea.l    A4, [A0 + 0x128]
000009DC  7000                     moveq.l    D0, 0x00
000009DE  2640                     movea.l    A3, D0
000009E0  2F0B                     move.l     -[A7], A3
000009E2  2F0C                     move.l     -[A7], A4
000009E4  2F3C 454D 6F76           move.l     -[A7], 0x454D6F76 /* 'EMov' */
000009EA  206C 00F0                movea.l    A0, [A4 + 0xF0]
000009EE  2248                     movea.l    A1, A0
000009F0  2269 0060                movea.l    A1, [A1 + 0x60]
000009F4  D0E9 0058                add.w      A0, [A1 + 0x58]
000009F8  2F08                     move.l     -[A7], A0
000009FA  206C 00F0                movea.l    A0, [A4 + 0xF0]
000009FE  2068 0060                movea.l    A0, [A0 + 0x60]
00000A02  2268 005C                movea.l    A1, [A0 + 0x5C]
00000A06  4E91                     jsr        [A1]
00000A08  4FEF 0010                lea.l      A7, [A7 + 0x10]
00000A0C  4CEE 18F8 FFD4           movem.l    D3,D4,D5,D6,D7,A3,A4, [A6 - 0x2C]
00000A12  4E5E                     unlink     A6
00000A14  4E75                     rts
00000A16  8A73 696D 6167 655F 5... dc.b       "simage__Fv"
fn00000A24:
00000A24  4E56 FFFC                link       A6, -0x0004
00000A28  48E7 1318                movem.l    -[A7], D3,D6,D7,A3,A4
00000A2C  7E01                     moveq.l    D7, 0x01
00000A2E  4246                     clr.w      D6
00000A30  6000 048C                bra        +0x48E /* 00000EBE */
label00000A34:
00000A34  2007                     move.l     D0, D7
00000A36  C1FC 0046                muls.w     D0, 0x46 /* 'F' */
00000A3A  204D                     movea.l    A0, A5
00000A3C  D1FC FFFE D880           add.l      A0, 0xFFFED880
00000A42  7200                     moveq.l    D1, 0x00
00000A44  3230 0002                move.w     D1, [A0 + D0.w + 0x2]
00000A48  7020                     moveq.l    D0, 0x20
00000A4A  C041                     and.w      D0, D1
00000A4C  6700 046C                beq        +0x46E /* 00000EBA */
00000A50  2007                     move.l     D0, D7
00000A52  C1FC 0046                muls.w     D0, 0x46 /* 'F' */
00000A56  204D                     movea.l    A0, A5
00000A58  D1FC FFFE D880           add.l      A0, 0xFFFED880
00000A5E  3030 0000                move.w     D0, [A0 + D0.w]
00000A62  0440 0048                subi.w     D0, 0x48 /* 'H' */
00000A66  6600 044E                bne        +0x450 /* 00000EB6 */
00000A6A  2007                     move.l     D0, D7
00000A6C  C1FC 0046                muls.w     D0, 0x46 /* 'F' */
00000A70  204D                     movea.l    A0, A5
00000A72  D1FC FFFE D880           add.l      A0, 0xFFFED880
00000A78  7200                     moveq.l    D1, 0x00
00000A7A  1230 0006                move.b     D1, [A0 + D0.w + 0x6]
00000A7E  0C01 00FF                cmpi.b     D1, 0xFF
00000A82  6400 0432                bcc        +0x434 /* 00000EB6 */
00000A86  2007                     move.l     D0, D7
00000A88  C1FC 0046                muls.w     D0, 0x46 /* 'F' */
00000A8C  204D                     movea.l    A0, A5
00000A8E  D1FC FFFE D880           add.l      A0, 0xFFFED880
00000A94  7200                     moveq.l    D1, 0x00
00000A96  3230 0002                move.w     D1, [A0 + D0.w + 0x2]
00000A9A  7040                     moveq.l    D0, 0x40
00000A9C  C041                     and.w      D0, D1
00000A9E  6600 0416                bne        +0x418 /* 00000EB6 */
00000AA2  2007                     move.l     D0, D7
00000AA4  C1FC 0046                muls.w     D0, 0x46 /* 'F' */
00000AA8  204D                     movea.l    A0, A5
00000AAA  D1FC FFFE D880           add.l      A0, 0xFFFED880
00000AB0  7200                     moveq.l    D1, 0x00
00000AB2  1230 0005                move.b     D1, [A0 + D0.w + 0x5]
00000AB6  5341                     subq.w     D1, 1
00000AB8  2007                     move.l     D0, D7
00000ABA  C1FC 0046                muls.w     D0, 0x46 /* 'F' */
00000ABE  204D                     movea.l    A0, A5
00000AC0  D1FC FFFE D880           add.l      A0, 0xFFFED880
00000AC6  7400                     moveq.l    D2, 0x00
00000AC8  1430 0004                move.b     D2, [A0 + D0.w + 0x4]
00000ACC  C5FC 00C0                muls.w     D2, 0xC0
00000AD0  204D                     movea.l    A0, A5
00000AD2  D1FC FFFE 42D4           add.l      A0, 0xFFFE42D4
00000AD8  D241                     add.w      D1, D1
00000ADA  D242                     add.w      D1, D2
00000ADC  7000                     moveq.l    D0, 0x00
00000ADE  3030 1000                move.w     D0, [A0 + D1.w]
00000AE2  323C 07FF                move.w     D1, 0x7FF
00000AE6  C240                     and.w      D1, D0
00000AE8  7000                     moveq.l    D0, 0x00
00000AEA  3001                     move.w     D0, D1
00000AEC  4A80                     tst.l      D0
00000AEE  204D                     movea.l    A0, A5
00000AF0  D1FC FFFF 79EA           add.l      A0, 0xFFFF79EA
00000AF6  3210                     move.w     D1, [A0]
00000AF8  48C1                     ext.l      D1
00000AFA  B280                     cmp.l      D1, D0
00000AFC  6E6C                     bgt        +0x6E /* 00000B6A */
00000AFE  2007                     move.l     D0, D7
00000B00  C1FC 0046                muls.w     D0, 0x46 /* 'F' */
00000B04  204D                     movea.l    A0, A5
00000B06  D1FC FFFE D880           add.l      A0, 0xFFFED880
00000B0C  7200                     moveq.l    D1, 0x00
00000B0E  1230 0005                move.b     D1, [A0 + D0.w + 0x5]
00000B12  5341                     subq.w     D1, 1
00000B14  2007                     move.l     D0, D7
00000B16  C1FC 0046                muls.w     D0, 0x46 /* 'F' */
00000B1A  204D                     movea.l    A0, A5
00000B1C  D1FC FFFE D880           add.l      A0, 0xFFFED880
00000B22  7400                     moveq.l    D2, 0x00
00000B24  1430 0004                move.b     D2, [A0 + D0.w + 0x4]
00000B28  C5FC 00C0                muls.w     D2, 0xC0
00000B2C  204D                     movea.l    A0, A5
00000B2E  D1FC FFFE 42D4           add.l      A0, 0xFFFE42D4
00000B34  D241                     add.w      D1, D1
00000B36  D242                     add.w      D1, D2
00000B38  7000                     moveq.l    D0, 0x00
00000B3A  3030 1000                move.w     D0, [A0 + D1.w]
00000B3E  323C 07FF                move.w     D1, 0x7FF
00000B42  C240                     and.w      D1, D0
00000B44  7000                     moveq.l    D0, 0x00
00000B46  3001                     move.w     D0, D1
00000B48  4A80                     tst.l      D0
00000B4A  204D                     movea.l    A0, A5
00000B4C  D1FC FFFF 79EA           add.l      A0, 0xFFFF79EA
00000B52  3210                     move.w     D1, [A0]
00000B54  48C1                     ext.l      D1
00000B56  7400                     moveq.l    D2, 0x00
00000B58  204D                     movea.l    A0, A5
00000B5A  D1FC FFFF 78F6           add.l      A0, 0xFFFF78F6
00000B60  1410                     move.b     D2, [A0]
00000B62  D481                     add.l      D2, D1
00000B64  B480                     cmp.l      D2, D0
00000B66  6E00 025C                bgt        +0x25E /* 00000DC4 */
label00000B6A:
00000B6A  2007                     move.l     D0, D7
00000B6C  C1FC 0046                muls.w     D0, 0x46 /* 'F' */
00000B70  204D                     movea.l    A0, A5
00000B72  D1FC FFFE D880           add.l      A0, 0xFFFED880
00000B78  7200                     moveq.l    D1, 0x00
00000B7A  1230 0005                move.b     D1, [A0 + D0.w + 0x5]
00000B7E  2007                     move.l     D0, D7
00000B80  C1FC 0046                muls.w     D0, 0x46 /* 'F' */
00000B84  204D                     movea.l    A0, A5
00000B86  D1FC FFFE D880           add.l      A0, 0xFFFED880
00000B8C  7400                     moveq.l    D2, 0x00
00000B8E  1430 0004                move.b     D2, [A0 + D0.w + 0x4]
00000B92  5242                     addq.w     D2, 1
00000B94  C5FC 00C0                muls.w     D2, 0xC0
00000B98  204D                     movea.l    A0, A5
00000B9A  D1FC FFFE 42D4           add.l      A0, 0xFFFE42D4
00000BA0  D241                     add.w      D1, D1
00000BA2  D242                     add.w      D1, D2
00000BA4  7000                     moveq.l    D0, 0x00
00000BA6  3030 1000                move.w     D0, [A0 + D1.w]
00000BAA  323C 07FF                move.w     D1, 0x7FF
00000BAE  C240                     and.w      D1, D0
00000BB0  7000                     moveq.l    D0, 0x00
00000BB2  3001                     move.w     D0, D1
00000BB4  4A80                     tst.l      D0
00000BB6  204D                     movea.l    A0, A5
00000BB8  D1FC FFFF 79EA           add.l      A0, 0xFFFF79EA
00000BBE  3210                     move.w     D1, [A0]
00000BC0  48C1                     ext.l      D1
00000BC2  B280                     cmp.l      D1, D0
00000BC4  6E6C                     bgt        +0x6E /* 00000C32 */
00000BC6  2007                     move.l     D0, D7
00000BC8  C1FC 0046                muls.w     D0, 0x46 /* 'F' */
00000BCC  204D                     movea.l    A0, A5
00000BCE  D1FC FFFE D880           add.l      A0, 0xFFFED880
00000BD4  7200                     moveq.l    D1, 0x00
00000BD6  1230 0005                move.b     D1, [A0 + D0.w + 0x5]
00000BDA  2007                     move.l     D0, D7
00000BDC  C1FC 0046                muls.w     D0, 0x46 /* 'F' */
00000BE0  204D                     movea.l    A0, A5
00000BE2  D1FC FFFE D880           add.l      A0, 0xFFFED880
00000BE8  7400                     moveq.l    D2, 0x00
00000BEA  1430 0004                move.b     D2, [A0 + D0.w + 0x4]
00000BEE  5242                     addq.w     D2, 1
00000BF0  C5FC 00C0                muls.w     D2, 0xC0
00000BF4  204D                     movea.l    A0, A5
00000BF6  D1FC FFFE 42D4           add.l      A0, 0xFFFE42D4
00000BFC  D241                     add.w      D1, D1
00000BFE  D242                     add.w      D1, D2
00000C00  7000                     moveq.l    D0, 0x00
00000C02  3030 1000                move.w     D0, [A0 + D1.w]
00000C06  323C 07FF                move.w     D1, 0x7FF
00000C0A  C240                     and.w      D1, D0
00000C0C  7000                     moveq.l    D0, 0x00
00000C0E  3001                     move.w     D0, D1
00000C10  4A80                     tst.l      D0
00000C12  204D                     movea.l    A0, A5
00000C14  D1FC FFFF 79EA           add.l      A0, 0xFFFF79EA
00000C1A  3210                     move.w     D1, [A0]
00000C1C  48C1                     ext.l      D1
00000C1E  7400                     moveq.l    D2, 0x00
00000C20  204D                     movea.l    A0, A5
00000C22  D1FC FFFF 78F6           add.l      A0, 0xFFFF78F6
00000C28  1410                     move.b     D2, [A0]
00000C2A  D481                     add.l      D2, D1
00000C2C  B480                     cmp.l      D2, D0
00000C2E  6E00 0194                bgt        +0x196 /* 00000DC4 */
label00000C32:
00000C32  2007                     move.l     D0, D7
00000C34  C1FC 0046                muls.w     D0, 0x46 /* 'F' */
00000C38  204D                     movea.l    A0, A5
00000C3A  D1FC FFFE D880           add.l      A0, 0xFFFED880
00000C40  7200                     moveq.l    D1, 0x00
00000C42  1230 0005                move.b     D1, [A0 + D0.w + 0x5]
00000C46  5241                     addq.w     D1, 1
00000C48  2007                     move.l     D0, D7
00000C4A  C1FC 0046                muls.w     D0, 0x46 /* 'F' */
00000C4E  204D                     movea.l    A0, A5
00000C50  D1FC FFFE D880           add.l      A0, 0xFFFED880
00000C56  7400                     moveq.l    D2, 0x00
00000C58  1430 0004                move.b     D2, [A0 + D0.w + 0x4]
00000C5C  C5FC 00C0                muls.w     D2, 0xC0
00000C60  204D                     movea.l    A0, A5
00000C62  D1FC FFFE 42D4           add.l      A0, 0xFFFE42D4
00000C68  D241                     add.w      D1, D1
00000C6A  D242                     add.w      D1, D2
00000C6C  7000                     moveq.l    D0, 0x00
00000C6E  3030 1000                move.w     D0, [A0 + D1.w]
00000C72  323C 07FF                move.w     D1, 0x7FF
00000C76  C240                     and.w      D1, D0
00000C78  7000                     moveq.l    D0, 0x00
00000C7A  3001                     move.w     D0, D1
00000C7C  4A80                     tst.l      D0
00000C7E  204D                     movea.l    A0, A5
00000C80  D1FC FFFF 79EA           add.l      A0, 0xFFFF79EA
00000C86  3210                     move.w     D1, [A0]
00000C88  48C1                     ext.l      D1
00000C8A  B280                     cmp.l      D1, D0
00000C8C  6E6C                     bgt        +0x6E /* 00000CFA */
00000C8E  2007                     move.l     D0, D7
00000C90  C1FC 0046                muls.w     D0, 0x46 /* 'F' */
00000C94  204D                     movea.l    A0, A5
00000C96  D1FC FFFE D880           add.l      A0, 0xFFFED880
00000C9C  7200                     moveq.l    D1, 0x00
00000C9E  1230 0005                move.b     D1, [A0 + D0.w + 0x5]
00000CA2  5241                     addq.w     D1, 1
00000CA4  2007                     move.l     D0, D7
00000CA6  C1FC 0046                muls.w     D0, 0x46 /* 'F' */
00000CAA  204D                     movea.l    A0, A5
00000CAC  D1FC FFFE D880           add.l      A0, 0xFFFED880
00000CB2  7400                     moveq.l    D2, 0x00
00000CB4  1430 0004                move.b     D2, [A0 + D0.w + 0x4]
00000CB8  C5FC 00C0                muls.w     D2, 0xC0
00000CBC  204D                     movea.l    A0, A5
00000CBE  D1FC FFFE 42D4           add.l      A0, 0xFFFE42D4
00000CC4  D241                     add.w      D1, D1
00000CC6  D242                     add.w      D1, D2
00000CC8  7000                     moveq.l    D0, 0x00
00000CCA  3030 1000                move.w     D0, [A0 + D1.w]
00000CCE  323C 07FF                move.w     D1, 0x7FF
00000CD2  C240                     and.w      D1, D0
00000CD4  7000                     moveq.l    D0, 0x00
00000CD6  3001                     move.w     D0, D1
00000CD8  4A80                     tst.l      D0
00000CDA  204D                     movea.l    A0, A5
00000CDC  D1FC FFFF 79EA           add.l      A0, 0xFFFF79EA
00000CE2  3210                     move.w     D1, [A0]
00000CE4  48C1                     ext.l      D1
00000CE6  7400                     moveq.l    D2, 0x00
00000CE8  204D                     movea.l    A0, A5
00000CEA  D1FC FFFF 78F6           add.l      A0, 0xFFFF78F6
00000CF0  1410                     move.b     D2, [A0]
00000CF2  D481                     add.l      D2, D1
00000CF4  B480                     cmp.l      D2, D0
00000CF6  6E00 00CC                bgt        +0xCE /* 00000DC4 */
label00000CFA:
00000CFA  2007                     move.l     D0, D7
00000CFC  C1FC 0046                muls.w     D0, 0x46 /* 'F' */
00000D00  204D                     movea.l    A0, A5
00000D02  D1FC FFFE D880           add.l      A0, 0xFFFED880
00000D08  7200                     moveq.l    D1, 0x00
00000D0A  1230 0005                move.b     D1, [A0 + D0.w + 0x5]
00000D0E  2007                     move.l     D0, D7
00000D10  C1FC 0046                muls.w     D0, 0x46 /* 'F' */
00000D14  204D                     movea.l    A0, A5
00000D16  D1FC FFFE D880           add.l      A0, 0xFFFED880
00000D1C  7400                     moveq.l    D2, 0x00
00000D1E  1430 0004                move.b     D2, [A0 + D0.w + 0x4]
00000D22  5342                     subq.w     D2, 1
00000D24  C5FC 00C0                muls.w     D2, 0xC0
00000D28  204D                     movea.l    A0, A5
00000D2A  D1FC FFFE 42D4           add.l      A0, 0xFFFE42D4
00000D30  D241                     add.w      D1, D1
00000D32  D242                     add.w      D1, D2
00000D34  7000                     moveq.l    D0, 0x00
00000D36  3030 1000                move.w     D0, [A0 + D1.w]
00000D3A  323C 07FF                move.w     D1, 0x7FF
00000D3E  C240                     and.w      D1, D0
00000D40  7000                     moveq.l    D0, 0x00
00000D42  3001                     move.w     D0, D1
00000D44  4A80                     tst.l      D0
00000D46  204D                     movea.l    A0, A5
00000D48  D1FC FFFF 79EA           add.l      A0, 0xFFFF79EA
00000D4E  3210                     move.w     D1, [A0]
00000D50  48C1                     ext.l      D1
00000D52  B280                     cmp.l      D1, D0
00000D54  6E00 0160                bgt        +0x162 /* 00000EB6 */
00000D58  2007                     move.l     D0, D7
00000D5A  C1FC 0046                muls.w     D0, 0x46 /* 'F' */
00000D5E  204D                     movea.l    A0, A5
00000D60  D1FC FFFE D880           add.l      A0, 0xFFFED880
00000D66  7200                     moveq.l    D1, 0x00
00000D68  1230 0005                move.b     D1, [A0 + D0.w + 0x5]
00000D6C  2007                     move.l     D0, D7
00000D6E  C1FC 0046                muls.w     D0, 0x46 /* 'F' */
00000D72  204D                     movea.l    A0, A5
00000D74  D1FC FFFE D880           add.l      A0, 0xFFFED880
00000D7A  7400                     moveq.l    D2, 0x00
00000D7C  1430 0004                move.b     D2, [A0 + D0.w + 0x4]
00000D80  5342                     subq.w     D2, 1
00000D82  C5FC 00C0                muls.w     D2, 0xC0
00000D86  204D                     movea.l    A0, A5
00000D88  D1FC FFFE 42D4           add.l      A0, 0xFFFE42D4
00000D8E  D241                     add.w      D1, D1
00000D90  D242                     add.w      D1, D2
00000D92  7000                     moveq.l    D0, 0x00
00000D94  3030 1000                move.w     D0, [A0 + D1.w]
00000D98  323C 07FF                move.w     D1, 0x7FF
00000D9C  C240                     and.w      D1, D0
00000D9E  7000                     moveq.l    D0, 0x00
00000DA0  3001                     move.w     D0, D1
00000DA2  4A80                     tst.l      D0
00000DA4  204D                     movea.l    A0, A5
00000DA6  D1FC FFFF 79EA           add.l      A0, 0xFFFF79EA
00000DAC  3210                     move.w     D1, [A0]
00000DAE  48C1                     ext.l      D1
00000DB0  7400                     moveq.l    D2, 0x00
00000DB2  204D                     movea.l    A0, A5
00000DB4  D1FC FFFF 78F6           add.l      A0, 0xFFFF78F6
00000DBA  1410                     move.b     D2, [A0]
00000DBC  D481                     add.l      D2, D1
00000DBE  B480                     cmp.l      D2, D0
00000DC0  6F00 00F4                ble        +0xF6 /* 00000EB6 */
label00000DC4:
00000DC4  2007                     move.l     D0, D7
00000DC6  C1FC 0046                muls.w     D0, 0x46 /* 'F' */
00000DCA  204D                     movea.l    A0, A5
00000DCC  D1FC FFFE D880           add.l      A0, 0xFFFED880
00000DD2  0670 0032 000A           addi.w     [A0 + D0.w + 0xA], 0x32 /* '2' */
00000DD8  2007                     move.l     D0, D7
00000DDA  C1FC 0046                muls.w     D0, 0x46 /* 'F' */
00000DDE  204D                     movea.l    A0, A5
00000DE0  D1FC FFFE D880           add.l      A0, 0xFFFED880
00000DE6  7200                     moveq.l    D1, 0x00
00000DE8  3230 000A                move.w     D1, [A0 + D0.w + 0xA]
00000DEC  0C41 00FF                cmpi.w     D1, 0xFF
00000DF0  6314                     bls        +0x16 /* 00000E06 */
00000DF2  2007                     move.l     D0, D7
00000DF4  C1FC 0046                muls.w     D0, 0x46 /* 'F' */
00000DF8  204D                     movea.l    A0, A5
00000DFA  D1FC FFFE D880           add.l      A0, 0xFFFED880
00000E00  31BC 00FF 000A           move.w     [A0 + D0.w + 0xA], 0xFF
label00000E06:
00000E06  2007                     move.l     D0, D7
00000E08  C1FC 0046                muls.w     D0, 0x46 /* 'F' */
00000E0C  204D                     movea.l    A0, A5
00000E0E  D1FC FFFE D880           add.l      A0, 0xFFFED880
00000E14  7200                     moveq.l    D1, 0x00
00000E16  3230 0002                move.w     D1, [A0 + D0.w + 0x2]
00000E1A  4A81                     tst.l      D1
00000E1C  0801 0000                btst.b     D1, 0x0
00000E20  6700 0094                beq        +0x96 /* 00000EB6 */
00000E24  2007                     move.l     D0, D7
00000E26  C1FC 0046                muls.w     D0, 0x46 /* 'F' */
00000E2A  204D                     movea.l    A0, A5
00000E2C  D1FC FFFE D880           add.l      A0, 0xFFFED880
00000E32  3030 000A                move.w     D0, [A0 + D0.w + 0xA]
00000E36  EC48                     lsr        D0.w, 6
00000E38  D07C 0053                add.w      D0, 0x53 /* 'S' */
00000E3C  2207                     move.l     D1, D7
00000E3E  C3FC 0046                muls.w     D1, 0x46 /* 'F' */
00000E42  204D                     movea.l    A0, A5
00000E44  D1FC FFFE D880           add.l      A0, 0xFFFED880
00000E4A  7400                     moveq.l    D2, 0x00
00000E4C  1430 1005                move.b     D2, [A0 + D1.w + 0x5]
00000E50  2207                     move.l     D1, D7
00000E52  C3FC 0046                muls.w     D1, 0x46 /* 'F' */
00000E56  204D                     movea.l    A0, A5
00000E58  D1FC FFFE D880           add.l      A0, 0xFFFED880
00000E5E  7600                     moveq.l    D3, 0x00
00000E60  1630 1004                move.b     D3, [A0 + D1.w + 0x4]
00000E64  C7FC 00C0                muls.w     D3, 0xC0
00000E68  204D                     movea.l    A0, A5
00000E6A  D1FC FFFE 42D4           add.l      A0, 0xFFFE42D4
00000E70  D442                     add.w      D2, D2
00000E72  D443                     add.w      D2, D3
00000E74  3180 2000                move.w     [A0 + D2.w], D0
00000E78  2007                     move.l     D0, D7
00000E7A  C1FC 0046                muls.w     D0, 0x46 /* 'F' */
00000E7E  204D                     movea.l    A0, A5
00000E80  D1FC FFFE D880           add.l      A0, 0xFFFED880
00000E86  7200                     moveq.l    D1, 0x00
00000E88  1230 0005                move.b     D1, [A0 + D0.w + 0x5]
00000E8C  2007                     move.l     D0, D7
00000E8E  C1FC 0046                muls.w     D0, 0x46 /* 'F' */
00000E92  204D                     movea.l    A0, A5
00000E94  D1FC FFFE D880           add.l      A0, 0xFFFED880
00000E9A  7400                     moveq.l    D2, 0x00
00000E9C  1430 0004                move.b     D2, [A0 + D0.w + 0x4]
00000EA0  C5FC 00C0                muls.w     D2, 0xC0
00000EA4  204D                     movea.l    A0, A5
00000EA6  D1FC FFFE 42D4           add.l      A0, 0xFFFE42D4
00000EAC  D241                     add.w      D1, D1
00000EAE  D242                     add.w      D1, D2
00000EB0  0270 BFFF 1000           andi.w     [A0 + D1.w], 0xBFFF
label00000EB6:
00000EB6  3006                     move.w     D0, D6
00000EB8  5246                     addq.w     D6, 1
label00000EBA:
00000EBA  3007                     move.w     D0, D7
00000EBC  5247                     addq.w     D7, 1
label00000EBE:
00000EBE  204D                     movea.l    A0, A5
00000EC0  D1FC FFFE 94DC           add.l      A0, 0xFFFE94DC
00000EC6  BC50                     cmp.w      D6, [A0]
00000EC8  6D00 FB6A                blt        -0x494 /* 00000A34 */
00000ECC  204D                     movea.l    A0, A5
00000ECE  D1FC FFFF 7868           add.l      A0, 0xFFFF7868
00000ED4  2050                     movea.l    A0, [A0]
00000ED6  2D48 FFFC                move.l     [A6 - 0x4], A0
00000EDA  2868 0128                movea.l    A4, [A0 + 0x128]
00000EDE  7000                     moveq.l    D0, 0x00
00000EE0  2640                     movea.l    A3, D0
00000EE2  2F0B                     move.l     -[A7], A3
00000EE4  2F0C                     move.l     -[A7], A4
00000EE6  2F3C 454D 6F76           move.l     -[A7], 0x454D6F76 /* 'EMov' */
00000EEC  206C 00F0                movea.l    A0, [A4 + 0xF0]
00000EF0  2248                     movea.l    A1, A0
00000EF2  2269 0060                movea.l    A1, [A1 + 0x60]
00000EF6  D0E9 0058                add.w      A0, [A1 + 0x58]
00000EFA  2F08                     move.l     -[A7], A0
00000EFC  206C 00F0                movea.l    A0, [A4 + 0xF0]
00000F00  2068 0060                movea.l    A0, [A0 + 0x60]
00000F04  2268 005C                movea.l    A1, [A0 + 0x5C]
00000F08  4E91                     jsr        [A1]
00000F0A  4FEF 0010                lea.l      A7, [A7 + 0x10]
00000F0E  4CEE 18C8 FFE8           movem.l    D3,D6,D7,A3,A4, [A6 - 0x18]
00000F14  4E5E                     unlink     A6
00000F16  4E75                     rts
00000F18  9073 696D 6275 696C 6... dc.b       "simbuildings__Fv"
fn00000F2C:
00000F2C  4E56 0000                link       A6, 0
00000F30  48E7 0108                movem.l    -[A7], D7,A4
00000F34  204D                     movea.l    A0, A5
00000F36  D1FC FFFD 93EC           add.l      A0, 0xFFFD93EC
00000F3C  2F10                     move.l     -[A7], [A0]
00000F3E  4878 03E8                push.l     0x3E8
00000F42  4EAD 05FA                jsr        [A5 + 0x5FA /* export_187, CODE:10 @ 00002C4A */]
00000F46  2E00                     move.l     D7, D0
00000F48  204D                     movea.l    A0, A5
00000F4A  D1FC FFFD 93EC           add.l      A0, 0xFFFD93EC
00000F50  BE90                     cmp.l      D7, [A0]
00000F52  504F                     addq.w     A7, 8
00000F54  642C                     bcc        +0x2E /* 00000F82 */
00000F56  204D                     movea.l    A0, A5
00000F58  D1FC FFFE D2C0           add.l      A0, 0xFFFED2C0
00000F5E  10BC 0004                move.b     [A0], 0x4
00000F62  204D                     movea.l    A0, A5
00000F64  D1FC FFFD 93EC           add.l      A0, 0xFFFD93EC
00000F6A  224D                     movea.l    A1, A5
00000F6C  D3FC FFFE D2BC           add.l      A1, 0xFFFED2BC
00000F72  2290                     move.l     [A1], [A0]
00000F74  4878 00A6                push.l     0xA6
00000F78  4EAD 02F2                jsr        [A5 + 0x2F2 /* export_90, CODE:3 @ 000062C4 */]
00000F7C  584F                     addq.w     A7, 4
00000F7E  6000 009C                bra        +0x9E /* 0000101C */
label00000F82:
00000F82  204D                     movea.l    A0, A5
00000F84  D1FC FFFD 93F0           add.l      A0, 0xFFFD93F0
00000F8A  2010                     move.l     D0, [A0]
00000F8C  204D                     movea.l    A0, A5
00000F8E  D1FC FFFD 93EC           add.l      A0, 0xFFFD93EC
00000F94  B090                     cmp.l      D0, [A0]
00000F96  6316                     bls        +0x18 /* 00000FAE */
00000F98  204D                     movea.l    A0, A5
00000F9A  D1FC FFFD 93EC           add.l      A0, 0xFFFD93EC
00000FA0  2010                     move.l     D0, [A0]
00000FA2  204D                     movea.l    A0, A5
00000FA4  D1FC FFFD 93F0           add.l      A0, 0xFFFD93F0
00000FAA  9190                     sub.l      [A0], D0
00000FAC  600C                     bra        +0xE /* 00000FBA */
label00000FAE:
00000FAE  204D                     movea.l    A0, A5
00000FB0  D1FC FFFD 93F0           add.l      A0, 0xFFFD93F0
00000FB6  7000                     moveq.l    D0, 0x00
00000FB8  2080                     move.l     [A0], D0
label00000FBA:
00000FBA  204D                     movea.l    A0, A5
00000FBC  D1FC FFFD 93EC           add.l      A0, 0xFFFD93EC
00000FC2  2010                     move.l     D0, [A0]
00000FC4  E288                     lsr        D0, 1
00000FC6  204D                     movea.l    A0, A5
00000FC8  D1FC FFFF 0444           add.l      A0, 0xFFFF0444
00000FCE  D190                     add.l      [A0], D0
00000FD0  204D                     movea.l    A0, A5
00000FD2  D1FC FFFD 93EC           add.l      A0, 0xFFFD93EC
00000FD8  2010                     move.l     D0, [A0]
00000FDA  E488                     lsr        D0, 2
00000FDC  204D                     movea.l    A0, A5
00000FDE  D1FC FFFF 0448           add.l      A0, 0xFFFF0448
00000FE4  D190                     add.l      [A0], D0
00000FE6  204D                     movea.l    A0, A5
00000FE8  D1FC FFFD 93F0           add.l      A0, 0xFFFD93F0
00000FEE  4A90                     tst.l      [A0]
00000FF0  6216                     bhi        +0x18 /* 00001008 */
00000FF2  204D                     movea.l    A0, A5
00000FF4  D1FC FFFD 93F0           add.l      A0, 0xFFFD93F0
00000FFA  7000                     moveq.l    D0, 0x00
00000FFC  2080                     move.l     [A0], D0
00000FFE  204D                     movea.l    A0, A5
00001000  D1FC FFFD 93EC           add.l      A0, 0xFFFD93EC
00001006  2080                     move.l     [A0], D0
label00001008:
00001008  204D                     movea.l    A0, A5
0000100A  D1FC FFFD 93EC           add.l      A0, 0xFFFD93EC
00001010  2010                     move.l     D0, [A0]
00001012  204D                     movea.l    A0, A5
00001014  D1FC FFFD 93FA           add.l      A0, 0xFFFD93FA
0000101A  D190                     add.l      [A0], D0
label0000101C:
0000101C  224D                     movea.l    A1, A5
0000101E  D3FC FFFF 7868           add.l      A1, 0xFFFF7868
00001024  2051                     movea.l    A0, [A1]
00001026  2868 0128                movea.l    A4, [A0 + 0x128]
0000102A  2F2C 00E0                move.l     -[A7], [A4 + 0xE0]
0000102E  4EAD 0A3A                jsr        [A5 + 0xA3A /* export_323, CODE:18 @ 00000B9E */]
00001032  7000                     moveq.l    D0, 0x00
00001034  584F                     addq.w     A7, 4
00001036  4CEE 1080 FFF8           movem.l    D7,A4, [A6 - 0x8]
0000103C  4E5E                     unlink     A6
0000103E  4E75                     rts
00001040  8F73 696D 696E 7465 7... dc.b       "siminterest__Fv"
fn00001052:
00001052  4E56 FED2                link       A6, -0x012E
00001056  48E7 1718                movem.l    -[A7], D3,D5,D6,D7,A3,A4
0000105A  266E 000C                movea.l    A3, [A6 + 0xC]
0000105E  286E 0008                movea.l    A4, [A6 + 0x8]
00001062  7EFF                     moveq.l    D7, 0xFFFFFFFF
00001064  7CFF                     moveq.l    D6, 0xFFFFFFFF
00001066  558F                     subq.l     A7, 2
00001068  A861                     syscall    Random
0000106A  3C1F                     move.w     D6, [A7]+
0000106C  204D                     movea.l    A0, A5
0000106E  D1FC FFFE D216           add.l      A0, 0xFFFED216
00001074  5250                     addq.w     [A0], 1
00001076  204D                     movea.l    A0, A5
00001078  D1FC FFFD CEBE           add.l      A0, 0xFFFDCEBE
0000107E  2010                     move.l     D0, [A0]
00001080  204D                     movea.l    A0, A5
00001082  D1FC FFFD CE46           add.l      A0, 0xFFFDCE46
00001088  9090                     sub.l      D0, [A0]
0000108A  204D                     movea.l    A0, A5
0000108C  D1FC FFFD CE4A           add.l      A0, 0xFFFDCE4A
00001092  B090                     cmp.l      D0, [A0]
00001094  6300 0A2C                bls        +0xA2E /* 00001AC2 */
00001098  204D                     movea.l    A0, A5
0000109A  D1FC FFFE D216           add.l      A0, 0xFFFED216
000010A0  4250                     clr.w      [A0]
000010A2  204D                     movea.l    A0, A5
000010A4  D1FC FFFD CECE           add.l      A0, 0xFFFDCECE
000010AA  5250                     addq.w     [A0], 1
000010AC  4EBA 0A50                jsr        [PC + 0xA50 /* 00001AFE */]
000010B0  7000                     moveq.l    D0, 0x00
000010B2  204D                     movea.l    A0, A5
000010B4  D1FC FFFD CECE           add.l      A0, 0xFFFDCECE
000010BA  3010                     move.w     D0, [A0]
000010BC  7207                     moveq.l    D1, 0x07
000010BE  B280                     cmp.l      D1, D0
000010C0  6600 0944                bne        +0x946 /* 00001A06 */
000010C4  7044                     moveq.l    D0, 0x44
000010C6  2F00                     move.l     -[A7], D0
000010C8  4EAD 032A                jsr        [A5 + 0x32A /* export_97, CODE:5 @ 00000560 */]
000010CC  4EBA F022                jsr        [PC - 0xFDE /* 000000F0 */]
000010D0  204D                     movea.l    A0, A5
000010D2  D1FC FFFD CECE           add.l      A0, 0xFFFDCECE
000010D8  4250                     clr.w      [A0]
000010DA  204D                     movea.l    A0, A5
000010DC  D1FC FFFD CECA           add.l      A0, 0xFFFDCECA
000010E2  5250                     addq.w     [A0], 1
000010E4  7002                     moveq.l    D0, 0x02
000010E6  204D                     movea.l    A0, A5
000010E8  D1FC FFFF 7818           add.l      A0, 0xFFFF7818
000010EE  B010                     cmp.b      D0, [A0]
000010F0  584F                     addq.w     A7, 4
000010F2  6F0C                     ble        +0xE /* 00001100 */
000010F4  204D                     movea.l    A0, A5
000010F6  D1FC FFFF 7818           add.l      A0, 0xFFFF7818
000010FC  1010                     move.b     D0, [A0]
000010FE  5210                     addq.b     [A0], 1
label00001100:
00001100  7000                     moveq.l    D0, 0x00
00001102  204D                     movea.l    A0, A5
00001104  D1FC FFFD CEC6           add.l      A0, 0xFFFDCEC6
0000110A  3010                     move.w     D0, [A0]
0000110C  E588                     lsl        D0, 2
0000110E  204D                     movea.l    A0, A5
00001110  D1FC FFFD CECA           add.l      A0, 0xFFFDCECA
00001116  3C10                     move.w     D6, [A0]
00001118  DC40                     add.w      D6, D0
0000111A  0C46 002D                cmpi.w     D6, 0x2D /* '-' */
0000111E  6D12                     blt        +0x14 /* 00001132 */
00001120  0C46 002F                cmpi.w     D6, 0x2F /* '/' */
00001124  6E0C                     bgt        +0xE /* 00001132 */
00001126  204D                     movea.l    A0, A5
00001128  D1FC FFFD CECC           add.l      A0, 0xFFFDCECC
0000112E  4250                     clr.w      [A0]
00001130  6014                     bra        +0x16 /* 00001146 */
label00001132:
00001132  4A46                     tst.w      D6
00001134  6D10                     blt        +0x12 /* 00001146 */
00001136  0C46 000A                cmpi.w     D6, 0xA /* '\n' */
0000113A  6C0A                     bge        +0xC /* 00001146 */
0000113C  204D                     movea.l    A0, A5
0000113E  D1FC FFFD CECC           add.l      A0, 0xFFFDCECC
00001144  4250                     clr.w      [A0]
label00001146:
00001146  0C46 000A                cmpi.w     D6, 0xA /* '\n' */
0000114A  6D12                     blt        +0x14 /* 0000115E */
0000114C  0C46 0016                cmpi.w     D6, 0x16
00001150  6C0C                     bge        +0xE /* 0000115E */
00001152  204D                     movea.l    A0, A5
00001154  D1FC FFFD CECC           add.l      A0, 0xFFFDCECC
0000115A  30BC 0001                move.w     [A0], 0x1
label0000115E:
0000115E  0C46 0017                cmpi.w     D6, 0x17
00001162  6D12                     blt        +0x14 /* 00001176 */
00001164  0C46 0022                cmpi.w     D6, 0x22 /* '\"' */
00001168  6C0C                     bge        +0xE /* 00001176 */
0000116A  204D                     movea.l    A0, A5
0000116C  D1FC FFFD CECC           add.l      A0, 0xFFFDCECC
00001172  30BC 0002                move.w     [A0], 0x2
label00001176:
00001176  0C46 0022                cmpi.w     D6, 0x22 /* '\"' */
0000117A  6D12                     blt        +0x14 /* 0000118E */
0000117C  0C46 002D                cmpi.w     D6, 0x2D /* '-' */
00001180  6C0C                     bge        +0xE /* 0000118E */
00001182  204D                     movea.l    A0, A5
00001184  D1FC FFFD CECC           add.l      A0, 0xFFFDCECC
0000118A  30BC 0003                move.w     [A0], 0x3
label0000118E:
0000118E  7000                     moveq.l    D0, 0x00
00001190  204D                     movea.l    A0, A5
00001192  D1FC FFFD CEC6           add.l      A0, 0xFFFDCEC6
00001198  3010                     move.w     D0, [A0]
0000119A  E588                     lsl        D0, 2
0000119C  7200                     moveq.l    D1, 0x00
0000119E  204D                     movea.l    A0, A5
000011A0  D1FC FFFD CECA           add.l      A0, 0xFFFDCECA
000011A6  3210                     move.w     D1, [A0]
000011A8  D280                     add.l      D1, D0
000011AA  7024                     moveq.l    D0, 0x24
000011AC  B081                     cmp.l      D0, D1
000011AE  6600 028C                bne        +0x28E /* 0000143C */
000011B2  204D                     movea.l    A0, A5
000011B4  D1FC FFFE BED6           add.l      A0, 0xFFFEBED6
000011BA  4A10                     tst.b      [A0]
000011BC  6700 027E                beq        +0x280 /* 0000143C */
000011C0  7000                     moveq.l    D0, 0x00
000011C2  2F00                     move.l     -[A7], D0
000011C4  2F00                     move.l     -[A7], D0
000011C6  486E FFE2                pea.l      [A6 - 0x1E]
000011CA  4EAD 1772                jsr        [A5 + 0x1772 /* export_746, CODE:32 @ 00004CE0 */]
000011CE  7002                     moveq.l    D0, 0x02
000011D0  2F00                     move.l     -[A7], D0
000011D2  4EBA 1336                jsr        [PC + 0x1336 /* 0000250A */]
000011D6  4A40                     tst.w      D0
000011D8  4FEF 0010                lea.l      A7, [A7 + 0x10]
000011DC  6700 024C                beq        +0x24E /* 0000142A */
000011E0  204D                     movea.l    A0, A5
000011E2  D1FC FFFD 71EA           add.l      A0, 0xFFFD71EA
000011E8  4A50                     tst.w      [A0]
000011EA  663A                     bne        +0x3C /* 00001226 */
000011EC  486E FFE2                pea.l      [A6 - 0x1E]
000011F0  4EAD 1782                jsr        [A5 + 0x1782 /* export_748, CODE:32 @ 00004E1E */]
000011F4  4205                     clr.b      D5
000011F6  7000                     moveq.l    D0, 0x00
000011F8  1005                     move.b     D0, D5
000011FA  2F00                     move.l     -[A7], D0
000011FC  2F2E FFF6                move.l     -[A7], [A6 - 0xA]
00001200  204D                     movea.l    A0, A5
00001202  D1FC FFFE D030           add.l      A0, 0xFFFED030
00001208  4850                     pea.l      [A0]
0000120A  486E FFE2                pea.l      [A6 - 0x1E]
0000120E  4EAD 178A                jsr        [A5 + 0x178A /* export_749, CODE:32 @ 00004E80 */]
00001212  204D                     movea.l    A0, A5
00001214  D1FC FFFE D2C2           add.l      A0, 0xFFFED2C2
0000121A  10BC FFFF                move.b     [A0], 0xFF
0000121E  4FEF 0014                lea.l      A7, [A7 + 0x14]
00001222  6000 0156                bra        +0x158 /* 0000137A */
label00001226:
00001226  4878 00C8                push.l     0xC8
0000122A  4EAD 05F2                jsr        [A5 + 0x5F2 /* export_186, CODE:10 @ 00002C12 */]
0000122E  4A40                     tst.w      D0
00001230  584F                     addq.w     A7, 4
00001232  6700 0110                beq        +0x112 /* 00001344 */
00001236  4EAD 0292                jsr        [A5 + 0x292 /* export_78, CODE:3 @ 00002B02 */]
0000123A  C1FC 0022                muls.w     D0, 0x22 /* '\"' */
0000123E  204D                     movea.l    A0, A5
00001240  D1FC FFFD 71EC           add.l      A0, 0xFFFD71EC
00001246  3E30 0006                move.w     D7, [A0 + D0.w + 0x6]
0000124A  9E7C 00A0                sub.w      D7, 0xA0
0000124E  204D                     movea.l    A0, A5
00001250  D1FC FFFE D2C2           add.l      A0, 0xFFFED2C2
00001256  1087                     move.b     [A0], D7
00001258  486E FFE2                pea.l      [A6 - 0x1E]
0000125C  4EAD 1782                jsr        [A5 + 0x1782 /* export_748, CODE:32 @ 00004E1E */]
00001260  4205                     clr.b      D5
00001262  7000                     moveq.l    D0, 0x00
00001264  1005                     move.b     D0, D5
00001266  2F00                     move.l     -[A7], D0
00001268  2F2E FFF6                move.l     -[A7], [A6 - 0xA]
0000126C  204D                     movea.l    A0, A5
0000126E  D1FC FFFE D04C           add.l      A0, 0xFFFED04C
00001274  4850                     pea.l      [A0]
00001276  486E FFE2                pea.l      [A6 - 0x1E]
0000127A  4EAD 178A                jsr        [A5 + 0x178A /* export_749, CODE:32 @ 00004E80 */]
0000127E  2007                     move.l     D0, D7
00001280  E540                     asl        D0.w, 2
00001282  204D                     movea.l    A0, A5
00001284  D1FC FFFD CE6A           add.l      A0, 0xFFFDCE6A
0000128A  2D70 0000 FED2           move.l     [A6 - 0x12E], [A0 + D0.w]
00001290  7001                     moveq.l    D0, 0x01
00001292  2F00                     move.l     -[A7], D0
00001294  2F2E FFF6                move.l     -[A7], [A6 - 0xA]
00001298  2F2E FED2                move.l     -[A7], [A6 - 0x12E]
0000129C  486E FFE2                pea.l      [A6 - 0x1E]
000012A0  4EAD 178A                jsr        [A5 + 0x178A /* export_749, CODE:32 @ 00004E80 */]
000012A4  7000                     moveq.l    D0, 0x00
000012A6  2F00                     move.l     -[A7], D0
000012A8  2F2E FFF6                move.l     -[A7], [A6 - 0xA]
000012AC  204D                     movea.l    A0, A5
000012AE  D1FC FFFE D082           add.l      A0, 0xFFFED082
000012B4  4850                     pea.l      [A0]
000012B6  486E FFE2                pea.l      [A6 - 0x1E]
000012BA  4EAD 178A                jsr        [A5 + 0x178A /* export_749, CODE:32 @ 00004E80 */]
000012BE  2007                     move.l     D0, D7
000012C0  E540                     asl        D0.w, 2
000012C2  204D                     movea.l    A0, A5
000012C4  D1FC FFFD CE96           add.l      A0, 0xFFFDCE96
000012CA  2D70 0000 FED6           move.l     [A6 - 0x12A], [A0 + D0.w]
000012D0  7001                     moveq.l    D0, 0x01
000012D2  2F00                     move.l     -[A7], D0
000012D4  2F2E FFF6                move.l     -[A7], [A6 - 0xA]
000012D8  2F2E FED6                move.l     -[A7], [A6 - 0x12A]
000012DC  486E FFE2                pea.l      [A6 - 0x1E]
000012E0  4EAD 178A                jsr        [A5 + 0x178A /* export_749, CODE:32 @ 00004E80 */]
000012E4  7000                     moveq.l    D0, 0x00
000012E6  2F00                     move.l     -[A7], D0
000012E8  2F2E FFF6                move.l     -[A7], [A6 - 0xA]
000012EC  204D                     movea.l    A0, A5
000012EE  D1FC FFFE D08A           add.l      A0, 0xFFFED08A
000012F4  4850                     pea.l      [A0]
000012F6  486E FFE2                pea.l      [A6 - 0x1E]
000012FA  4EAD 178A                jsr        [A5 + 0x178A /* export_749, CODE:32 @ 00004E80 */]
000012FE  2007                     move.l     D0, D7
00001300  E540                     asl        D0.w, 2
00001302  204D                     movea.l    A0, A5
00001304  D1FC FFFD CE96           add.l      A0, 0xFFFDCE96
0000130A  2D70 0000 FEDA           move.l     [A6 - 0x126], [A0 + D0.w]
00001310  7001                     moveq.l    D0, 0x01
00001312  2F00                     move.l     -[A7], D0
00001314  2F2E FFF6                move.l     -[A7], [A6 - 0xA]
00001318  2F2E FEDA                move.l     -[A7], [A6 - 0x126]
0000131C  486E FFE2                pea.l      [A6 - 0x1E]
00001320  4EAD 178A                jsr        [A5 + 0x178A /* export_749, CODE:32 @ 00004E80 */]
00001324  7000                     moveq.l    D0, 0x00
00001326  2F00                     move.l     -[A7], D0
00001328  2F2E FFF6                move.l     -[A7], [A6 - 0xA]
0000132C  204D                     movea.l    A0, A5
0000132E  D1FC FFFE D094           add.l      A0, 0xFFFED094
00001334  4850                     pea.l      [A0]
00001336  486E FFE2                pea.l      [A6 - 0x1E]
0000133A  4EAD 178A                jsr        [A5 + 0x178A /* export_749, CODE:32 @ 00004E80 */]
0000133E  4FEF 0074                lea.l      A7, [A7 + 0x74]
00001342  6036                     bra        +0x38 /* 0000137A */
label00001344:
00001344  486E FFE2                pea.l      [A6 - 0x1E]
00001348  4EAD 1782                jsr        [A5 + 0x1782 /* export_748, CODE:32 @ 00004E1E */]
0000134C  4205                     clr.b      D5
0000134E  7000                     moveq.l    D0, 0x00
00001350  1005                     move.b     D0, D5
00001352  2F00                     move.l     -[A7], D0
00001354  2F2E FFF6                move.l     -[A7], [A6 - 0xA]
00001358  204D                     movea.l    A0, A5
0000135A  D1FC FFFE D0C2           add.l      A0, 0xFFFED0C2
00001360  4850                     pea.l      [A0]
00001362  486E FFE2                pea.l      [A6 - 0x1E]
00001366  4EAD 178A                jsr        [A5 + 0x178A /* export_749, CODE:32 @ 00004E80 */]
0000136A  204D                     movea.l    A0, A5
0000136C  D1FC FFFE D2C2           add.l      A0, 0xFFFED2C2
00001372  10BC FFFF                move.b     [A0], 0xFF
00001376  4FEF 0014                lea.l      A7, [A7 + 0x14]
label0000137A:
0000137A  7000                     moveq.l    D0, 0x00
0000137C  2F00                     move.l     -[A7], D0
0000137E  204D                     movea.l    A0, A5
00001380  D1FC FFFE D0DE           add.l      A0, 0xFFFED0DE
00001386  4850                     pea.l      [A0]
00001388  4EAD 073A                jsr        [A5 + 0x73A /* export_227, CODE:12 @ 00004474 */]
0000138C  70FF                     moveq.l    D0, 0xFFFFFFFF
0000138E  204D                     movea.l    A0, A5
00001390  D1FC FFFE D2C2           add.l      A0, 0xFFFED2C2
00001396  B010                     cmp.b      D0, [A0]
00001398  504F                     addq.w     A7, 8
0000139A  662A                     bne        +0x2C /* 000013C6 */
0000139C  7001                     moveq.l    D0, 0x01
0000139E  2F00                     move.l     -[A7], D0
000013A0  7200                     moveq.l    D1, 0x00
000013A2  2F01                     move.l     -[A7], D1
000013A4  4878 0096                push.l     0x96
000013A8  4878 00C0                push.l     0xC0
000013AC  2F01                     move.l     -[A7], D1
000013AE  2F00                     move.l     -[A7], D0
000013B0  704A                     moveq.l    D0, 0x4A
000013B2  2F00                     move.l     -[A7], D0
000013B4  206E FFEE                movea.l    A0, [A6 - 0x12]
000013B8  2F10                     move.l     -[A7], [A0]
000013BA  4EBA 4608                jsr        [PC + 0x4608 /* 000059C4 */]
000013BE  3E00                     move.w     D7, D0
000013C0  4FEF 0020                lea.l      A7, [A7 + 0x20]
000013C4  6058                     bra        +0x5A /* 0000141E */
label000013C6:
000013C6  7001                     moveq.l    D0, 0x01
000013C8  2F00                     move.l     -[A7], D0
000013CA  7200                     moveq.l    D1, 0x00
000013CC  2F01                     move.l     -[A7], D1
000013CE  4878 0096                push.l     0x96
000013D2  4878 00C0                push.l     0xC0
000013D6  700C                     moveq.l    D0, 0x0C
000013D8  2F00                     move.l     -[A7], D0
000013DA  700B                     moveq.l    D0, 0x0B
000013DC  2F00                     move.l     -[A7], D0
000013DE  704A                     moveq.l    D0, 0x4A
000013E0  2F00                     move.l     -[A7], D0
000013E2  206E FFEE                movea.l    A0, [A6 - 0x12]
000013E6  2F10                     move.l     -[A7], [A0]
000013E8  4EBA 45DA                jsr        [PC + 0x45DA /* 000059C4 */]
000013EC  3E00                     move.w     D7, D0
000013EE  4FEF 0020                lea.l      A7, [A7 + 0x20]
000013F2  6620                     bne        +0x22 /* 00001414 */
000013F4  4878 00C8                push.l     0xC8
000013F8  70FF                     moveq.l    D0, 0xFFFFFFFF
000013FA  2F00                     move.l     -[A7], D0
000013FC  4EAD 05FA                jsr        [A5 + 0x5FA /* export_187, CODE:10 @ 00002C4A */]
00001400  4A80                     tst.l      D0
00001402  504F                     addq.w     A7, 8
00001404  6718                     beq        +0x1A /* 0000141E */
00001406  204D                     movea.l    A0, A5
00001408  D1FC FFFE D2CE           add.l      A0, 0xFFFED2CE
0000140E  30BC 0001                move.w     [A0], 0x1
00001412  600A                     bra        +0xC /* 0000141E */
label00001414:
00001414  204D                     movea.l    A0, A5
00001416  D1FC FFFE D2CE           add.l      A0, 0xFFFED2CE
0000141C  4250                     clr.w      [A0]
label0000141E:
0000141E  204D                     movea.l    A0, A5
00001420  D1FC FFFE D2CA           add.l      A0, 0xFFFED2CA
00001426  10BC 0003                move.b     [A0], 0x3
label0000142A:
0000142A  7002                     moveq.l    D0, 0x02
0000142C  2F00                     move.l     -[A7], D0
0000142E  486E FFE2                pea.l      [A6 - 0x1E]
00001432  4EAD 177A                jsr        [A5 + 0x177A /* export_747, CODE:32 @ 00004DBC */]
00001436  504F                     addq.w     A7, 8
00001438  6000 00EA                bra        +0xEC /* 00001524 */
label0000143C:
0000143C  7000                     moveq.l    D0, 0x00
0000143E  204D                     movea.l    A0, A5
00001440  D1FC FFFD CEC6           add.l      A0, 0xFFFDCEC6
00001446  3010                     move.w     D0, [A0]
00001448  E588                     lsl        D0, 2
0000144A  7200                     moveq.l    D1, 0x00
0000144C  204D                     movea.l    A0, A5
0000144E  D1FC FFFD CECA           add.l      A0, 0xFFFDCECA
00001454  3210                     move.w     D1, [A0]
00001456  D280                     add.l      D1, D0
00001458  7018                     moveq.l    D0, 0x18
0000145A  B081                     cmp.l      D0, D1
0000145C  6600 00C6                bne        +0xC8 /* 00001524 */
00001460  204D                     movea.l    A0, A5
00001462  D1FC FFFE BED6           add.l      A0, 0xFFFEBED6
00001468  4A10                     tst.b      [A0]
0000146A  6700 00B8                beq        +0xBA /* 00001524 */
0000146E  7001                     moveq.l    D0, 0x01
00001470  2F00                     move.l     -[A7], D0
00001472  4EBA 1096                jsr        [PC + 0x1096 /* 0000250A */]
00001476  4A40                     tst.w      D0
00001478  584F                     addq.w     A7, 4
0000147A  6700 00A8                beq        +0xAA /* 00001524 */
0000147E  4878 03E8                push.l     0x3E8
00001482  4EAD 05F2                jsr        [A5 + 0x5F2 /* export_186, CODE:10 @ 00002C12 */]
00001486  4A40                     tst.w      D0
00001488  584F                     addq.w     A7, 4
0000148A  6700 008E                beq        +0x90 /* 0000151A */
0000148E  486E FEDE                pea.l      [A6 - 0x122]
00001492  703D                     moveq.l    D0, 0x3D
00001494  2F00                     move.l     -[A7], D0
00001496  204D                     movea.l    A0, A5
00001498  D1FC FFFE D0EC           add.l      A0, 0xFFFED0EC
0000149E  4850                     pea.l      [A0]
000014A0  4EAD 03C2                jsr        [A5 + 0x3C2 /* export_116, CODE:6 @ 0000321C */]
000014A4  7000                     moveq.l    D0, 0x00
000014A6  2F00                     move.l     -[A7], D0
000014A8  204D                     movea.l    A0, A5
000014AA  D1FC FFFE D0F8           add.l      A0, 0xFFFED0F8
000014B0  4850                     pea.l      [A0]
000014B2  4EAD 073A                jsr        [A5 + 0x73A /* export_227, CODE:12 @ 00004474 */]
000014B6  7001                     moveq.l    D0, 0x01
000014B8  2F00                     move.l     -[A7], D0
000014BA  7200                     moveq.l    D1, 0x00
000014BC  2F01                     move.l     -[A7], D1
000014BE  4878 0096                push.l     0x96
000014C2  4878 00C0                push.l     0xC0
000014C6  700C                     moveq.l    D0, 0x0C
000014C8  2F00                     move.l     -[A7], D0
000014CA  700B                     moveq.l    D0, 0x0B
000014CC  2F00                     move.l     -[A7], D0
000014CE  704A                     moveq.l    D0, 0x4A
000014D0  2F00                     move.l     -[A7], D0
000014D2  486E FEDE                pea.l      [A6 - 0x122]
000014D6  4EBA 44EC                jsr        [PC + 0x44EC /* 000059C4 */]
000014DA  3E00                     move.w     D7, D0
000014DC  4FEF 0034                lea.l      A7, [A7 + 0x34]
000014E0  6620                     bne        +0x22 /* 00001502 */
000014E2  4878 01F4                push.l     0x1F4
000014E6  70FF                     moveq.l    D0, 0xFFFFFFFF
000014E8  2F00                     move.l     -[A7], D0
000014EA  4EAD 05FA                jsr        [A5 + 0x5FA /* export_187, CODE:10 @ 00002C4A */]
000014EE  4A80                     tst.l      D0
000014F0  504F                     addq.w     A7, 8
000014F2  6718                     beq        +0x1A /* 0000150C */
000014F4  204D                     movea.l    A0, A5
000014F6  D1FC FFFE D2CE           add.l      A0, 0xFFFED2CE
000014FC  30BC 03E8                move.w     [A0], 0x3E8
00001500  600A                     bra        +0xC /* 0000150C */
label00001502:
00001502  204D                     movea.l    A0, A5
00001504  D1FC FFFE D2CE           add.l      A0, 0xFFFED2CE
0000150A  4250                     clr.w      [A0]
label0000150C:
0000150C  204D                     movea.l    A0, A5
0000150E  D1FC FFFE D2CA           add.l      A0, 0xFFFED2CA
00001514  10BC 0002                move.b     [A0], 0x2
00001518  600A                     bra        +0xC /* 00001524 */
label0000151A:
0000151A  204D                     movea.l    A0, A5
0000151C  D1FC FFFE D2CC           add.l      A0, 0xFFFED2CC
00001522  4210                     clr.b      [A0]
label00001524:
00001524  4EAD 076A                jsr        [A5 + 0x76A /* export_233, CODE:13 @ 00001938 */]
00001528  4EAD 0682                jsr        [A5 + 0x682 /* export_204, CODE:11 @ 000039D0 */]
0000152C  7000                     moveq.l    D0, 0x00
0000152E  204D                     movea.l    A0, A5
00001530  D1FC FFFD CEC6           add.l      A0, 0xFFFDCEC6
00001536  3010                     move.w     D0, [A0]
00001538  E588                     lsl        D0, 2
0000153A  7200                     moveq.l    D1, 0x00
0000153C  204D                     movea.l    A0, A5
0000153E  D1FC FFFD CECA           add.l      A0, 0xFFFDCECA
00001544  3210                     move.w     D1, [A0]
00001546  D280                     add.l      D1, D0
00001548  204D                     movea.l    A0, A5
0000154A  D1FC FFFE D63E           add.l      A0, 0xFFFED63E
00001550  1010                     move.b     D0, [A0]
00001552  4880                     ext.w      D0
00001554  C1FC 0030                muls.w     D0, 0x30 /* '0' */
00001558  D041                     add.w      D0, D1
0000155A  204D                     movea.l    A0, A5
0000155C  D1FC FFFE D54E           add.l      A0, 0xFFFED54E
00001562  1030 0000                move.b     D0, [A0 + D0.w]
00001566  49C0                     lea.l      A4, D0
00001568  204D                     movea.l    A0, A5
0000156A  D1FC FFFE D546           add.l      A0, 0xFFFED546
00001570  2080                     move.l     [A0], D0
00001572  7000                     moveq.l    D0, 0x00
00001574  204D                     movea.l    A0, A5
00001576  D1FC FFFD CECA           add.l      A0, 0xFFFDCECA
0000157C  3010                     move.w     D0, [A0]
0000157E  7204                     moveq.l    D1, 0x04
00001580  B280                     cmp.l      D1, D0
00001582  6600 03F4                bne        +0x3F6 /* 00001978 */
00001586  204D                     movea.l    A0, A5
00001588  D1FC FFFD CECA           add.l      A0, 0xFFFDCECA
0000158E  4250                     clr.w      [A0]
00001590  204D                     movea.l    A0, A5
00001592  D1FC FFFD CEC6           add.l      A0, 0xFFFDCEC6
00001598  3010                     move.w     D0, [A0]
0000159A  5250                     addq.w     [A0], 1
0000159C  204D                     movea.l    A0, A5
0000159E  D1FC FFFE D2C0           add.l      A0, 0xFFFED2C0
000015A4  4A10                     tst.b      [A0]
000015A6  6700 00A4                beq        +0xA6 /* 0000164C */
000015AA  204D                     movea.l    A0, A5
000015AC  D1FC FFFE D2BC           add.l      A0, 0xFFFED2BC
000015B2  2F10                     move.l     -[A7], [A0]
000015B4  4878 03E8                push.l     0x3E8
000015B8  4EAD 05FA                jsr        [A5 + 0x5FA /* export_187, CODE:10 @ 00002C4A */]
000015BC  3A00                     move.w     D5, D0
000015BE  504F                     addq.w     A7, 8
000015C0  665C                     bne        +0x5E /* 0000161E */
000015C2  204D                     movea.l    A0, A5
000015C4  D1FC FFFE D2C0           add.l      A0, 0xFFFED2C0
000015CA  5310                     subq.b     [A0], 1
000015CC  204D                     movea.l    A0, A5
000015CE  D1FC FFFE D2C0           add.l      A0, 0xFFFED2C0
000015D4  4A10                     tst.b      [A0]
000015D6  663A                     bne        +0x3C /* 00001612 */
000015D8  7027                     moveq.l    D0, 0x27
000015DA  2F00                     move.l     -[A7], D0
000015DC  204D                     movea.l    A0, A5
000015DE  D1FC FFFE D2BC           add.l      A0, 0xFFFED2BC
000015E4  2F10                     move.l     -[A7], [A0]
000015E6  4EAD 0642                jsr        [A5 + 0x642 /* export_196, CODE:10 @ 0000406C */]
000015EA  4A40                     tst.w      D0
000015EC  504F                     addq.w     A7, 8
000015EE  675C                     beq        +0x5E /* 0000164C */
000015F0  204D                     movea.l    A0, A5
000015F2  D1FC FFFE D2BC           add.l      A0, 0xFFFED2BC
000015F8  7000                     moveq.l    D0, 0x00
000015FA  2080                     move.l     [A0], D0
000015FC  204D                     movea.l    A0, A5
000015FE  D1FC FFFE D2C0           add.l      A0, 0xFFFED2C0
00001604  4210                     clr.b      [A0]
00001606  4878 00A8                push.l     0xA8
0000160A  4EAD 02F2                jsr        [A5 + 0x2F2 /* export_90, CODE:3 @ 000062C4 */]
0000160E  584F                     addq.w     A7, 4
00001610  603A                     bra        +0x3C /* 0000164C */
label00001612:
00001612  4878 00A9                push.l     0xA9
00001616  4EAD 02F2                jsr        [A5 + 0x2F2 /* export_90, CODE:3 @ 000062C4 */]
0000161A  584F                     addq.w     A7, 4
0000161C  602E                     bra        +0x30 /* 0000164C */
label0000161E:
0000161E  48C5                     ext.l      D5
00001620  204D                     movea.l    A0, A5
00001622  D1FC FFFE D2BC           add.l      A0, 0xFFFED2BC
00001628  BA90                     cmp.l      D5, [A0]
0000162A  6620                     bne        +0x22 /* 0000164C */
0000162C  204D                     movea.l    A0, A5
0000162E  D1FC FFFE D2BC           add.l      A0, 0xFFFED2BC
00001634  7000                     moveq.l    D0, 0x00
00001636  2080                     move.l     [A0], D0
00001638  204D                     movea.l    A0, A5
0000163A  D1FC FFFE D2C0           add.l      A0, 0xFFFED2C0
00001640  4210                     clr.b      [A0]
00001642  4878 00AA                push.l     0xAA
00001646  4EAD 02F2                jsr        [A5 + 0x2F2 /* export_90, CODE:3 @ 000062C4 */]
0000164A  584F                     addq.w     A7, 4
label0000164C:
0000164C  204D                     movea.l    A0, A5
0000164E  D1FC FFFE BD7E           add.l      A0, 0xFFFEBD7E
00001654  4A10                     tst.b      [A0]
00001656  6700 00AA                beq        +0xAC /* 00001702 */
0000165A  204D                     movea.l    A0, A5
0000165C  D1FC FFFF 044C           add.l      A0, 0xFFFF044C
00001662  2F10                     move.l     -[A7], [A0]
00001664  4878 09C4                push.l     0x9C4
00001668  4EAD 05FA                jsr        [A5 + 0x5FA /* export_187, CODE:10 @ 00002C4A */]
0000166C  3A00                     move.w     D5, D0
0000166E  504F                     addq.w     A7, 8
00001670  6660                     bne        +0x62 /* 000016D2 */
00001672  204D                     movea.l    A0, A5
00001674  D1FC FFFE BD7E           add.l      A0, 0xFFFEBD7E
0000167A  5310                     subq.b     [A0], 1
0000167C  204D                     movea.l    A0, A5
0000167E  D1FC FFFE BD7E           add.l      A0, 0xFFFEBD7E
00001684  4A10                     tst.b      [A0]
00001686  663E                     bne        +0x40 /* 000016C6 */
00001688  7024                     moveq.l    D0, 0x24
0000168A  2F00                     move.l     -[A7], D0
0000168C  204D                     movea.l    A0, A5
0000168E  D1FC FFFF 044C           add.l      A0, 0xFFFF044C
00001694  2F10                     move.l     -[A7], [A0]
00001696  4EAD 0642                jsr        [A5 + 0x642 /* export_196, CODE:10 @ 0000406C */]
0000169A  4A40                     tst.w      D0
0000169C  504F                     addq.w     A7, 8
0000169E  6700 00AC                beq        +0xAE /* 0000174C */
000016A2  204D                     movea.l    A0, A5
000016A4  D1FC FFFF 044C           add.l      A0, 0xFFFF044C
000016AA  7000                     moveq.l    D0, 0x00
000016AC  2080                     move.l     [A0], D0
000016AE  204D                     movea.l    A0, A5
000016B0  D1FC FFFE BD7E           add.l      A0, 0xFFFEBD7E
000016B6  4210                     clr.b      [A0]
000016B8  4878 00A5                push.l     0xA5
000016BC  4EAD 02F2                jsr        [A5 + 0x2F2 /* export_90, CODE:3 @ 000062C4 */]
000016C0  584F                     addq.w     A7, 4
000016C2  6000 0088                bra        +0x8A /* 0000174C */
label000016C6:
000016C6  4878 00A2                push.l     0xA2
000016CA  4EAD 02F2                jsr        [A5 + 0x2F2 /* export_90, CODE:3 @ 000062C4 */]
000016CE  584F                     addq.w     A7, 4
000016D0  607A                     bra        +0x7C /* 0000174C */
label000016D2:
000016D2  48C5                     ext.l      D5
000016D4  204D                     movea.l    A0, A5
000016D6  D1FC FFFF 044C           add.l      A0, 0xFFFF044C
000016DC  BA90                     cmp.l      D5, [A0]
000016DE  666C                     bne        +0x6E /* 0000174C */
000016E0  204D                     movea.l    A0, A5
000016E2  D1FC FFFF 044C           add.l      A0, 0xFFFF044C
000016E8  7000                     moveq.l    D0, 0x00
000016EA  2080                     move.l     [A0], D0
000016EC  204D                     movea.l    A0, A5
000016EE  D1FC FFFE BD7E           add.l      A0, 0xFFFEBD7E
000016F4  4210                     clr.b      [A0]
000016F6  4878 00A3                push.l     0xA3
000016FA  4EAD 02F2                jsr        [A5 + 0x2F2 /* export_90, CODE:3 @ 000062C4 */]
000016FE  584F                     addq.w     A7, 4
00001700  604A                     bra        +0x4C /* 0000174C */
label00001702:
00001702  7000                     moveq.l    D0, 0x00
00001704  204D                     movea.l    A0, A5
00001706  D1FC FFFD CEC6           add.l      A0, 0xFFFDCEC6
0000170C  3010                     move.w     D0, [A0]
0000170E  7206                     moveq.l    D1, 0x06
00001710  B280                     cmp.l      D1, D0
00001712  6712                     beq        +0x14 /* 00001726 */
00001714  7000                     moveq.l    D0, 0x00
00001716  204D                     movea.l    A0, A5
00001718  D1FC FFFD CEC6           add.l      A0, 0xFFFDCEC6
0000171E  3010                     move.w     D0, [A0]
00001720  7209                     moveq.l    D1, 0x09
00001722  B280                     cmp.l      D1, D0
00001724  6626                     bne        +0x28 /* 0000174C */
label00001726:
00001726  4EAD 0632                jsr        [A5 + 0x632 /* export_194, CODE:10 @ 00003E38 */]
0000172A  204D                     movea.l    A0, A5
0000172C  D1FC FFFE BD76           add.l      A0, 0xFFFEBD76
00001732  B090                     cmp.l      D0, [A0]
00001734  6316                     bls        +0x18 /* 0000174C */
00001736  204D                     movea.l    A0, A5
00001738  D1FC FFFE BD7E           add.l      A0, 0xFFFEBD7E
0000173E  4A10                     tst.b      [A0]
00001740  660A                     bne        +0xC /* 0000174C */
00001742  4878 00A1                push.l     0xA1
00001746  4EAD 02F2                jsr        [A5 + 0x2F2 /* export_90, CODE:3 @ 000062C4 */]
0000174A  584F                     addq.w     A7, 4
label0000174C:
0000174C  7000                     moveq.l    D0, 0x00
0000174E  204D                     movea.l    A0, A5
00001750  D1FC FFFD CEC6           add.l      A0, 0xFFFDCEC6
00001756  3010                     move.w     D0, [A0]
00001758  720C                     moveq.l    D1, 0x0C
0000175A  B280                     cmp.l      D1, D0
0000175C  6600 01CC                bne        +0x1CE /* 0000192A */
00001760  204D                     movea.l    A0, A5
00001762  D1FC FFFD CEC6           add.l      A0, 0xFFFDCEC6
00001768  4250                     clr.w      [A0]
0000176A  4EAD 063A                jsr        [A5 + 0x63A /* export_195, CODE:10 @ 00003EFC */]
0000176E  4EAD 0622                jsr        [A5 + 0x622 /* export_192, CODE:10 @ 00003BE4 */]
00001772  4EAD 03B2                jsr        [A5 + 0x3B2 /* export_114, CODE:6 @ 00002950 */]
00001776  204D                     movea.l    A0, A5
00001778  D1FC FFFE D2D4           add.l      A0, 0xFFFED2D4
0000177E  4250                     clr.w      [A0]
00001780  4EAD 066A                jsr        [A5 + 0x66A /* export_201, CODE:11 @ 00000B80 */]
00001784  4EAD 0672                jsr        [A5 + 0x672 /* export_202, CODE:11 @ 00000C52 */]
00001788  204D                     movea.l    A0, A5
0000178A  D1FC FFFE BD76           add.l      A0, 0xFFFEBD76
00001790  0C90 0000 EA60           cmpi.l     [A0], 0xEA60
00001796  640E                     bcc        +0x10 /* 000017A6 */
00001798  7000                     moveq.l    D0, 0x00
0000179A  2F00                     move.l     -[A7], D0
0000179C  4EAD 0662                jsr        [A5 + 0x662 /* export_200, CODE:11 @ 000003B0 */]
000017A0  584F                     addq.w     A7, 4
000017A2  6000 00E0                bra        +0xE2 /* 00001884 */
label000017A6:
000017A6  204D                     movea.l    A0, A5
000017A8  D1FC FFFE BD76           add.l      A0, 0xFFFEBD76
000017AE  0C90 0000 EA60           cmpi.l     [A0], 0xEA60
000017B4  651E                     bcs        +0x20 /* 000017D4 */
000017B6  204D                     movea.l    A0, A5
000017B8  D1FC FFFE BD76           add.l      A0, 0xFFFEBD76
000017BE  0C90 0003 0D40           cmpi.l     [A0], 0x30D40
000017C4  640E                     bcc        +0x10 /* 000017D4 */
000017C6  7001                     moveq.l    D0, 0x01
000017C8  2F00                     move.l     -[A7], D0
000017CA  4EAD 0662                jsr        [A5 + 0x662 /* export_200, CODE:11 @ 000003B0 */]
000017CE  584F                     addq.w     A7, 4
000017D0  6000 00B2                bra        +0xB4 /* 00001884 */
label000017D4:
000017D4  204D                     movea.l    A0, A5
000017D6  D1FC FFFE BD76           add.l      A0, 0xFFFEBD76
000017DC  0C90 0003 0D40           cmpi.l     [A0], 0x30D40
000017E2  651E                     bcs        +0x20 /* 00001802 */
000017E4  204D                     movea.l    A0, A5
000017E6  D1FC FFFE BD76           add.l      A0, 0xFFFEBD76
000017EC  0C90 0006 1A80           cmpi.l     [A0], 0x61A80
000017F2  640E                     bcc        +0x10 /* 00001802 */
000017F4  7002                     moveq.l    D0, 0x02
000017F6  2F00                     move.l     -[A7], D0
000017F8  4EAD 0662                jsr        [A5 + 0x662 /* export_200, CODE:11 @ 000003B0 */]
000017FC  584F                     addq.w     A7, 4
000017FE  6000 0084                bra        +0x86 /* 00001884 */
label00001802:
00001802  204D                     movea.l    A0, A5
00001804  D1FC FFFE BD76           add.l      A0, 0xFFFEBD76
0000180A  0C90 0006 1A80           cmpi.l     [A0], 0x61A80
00001810  651C                     bcs        +0x1E /* 0000182E */
00001812  204D                     movea.l    A0, A5
00001814  D1FC FFFE BD76           add.l      A0, 0xFFFEBD76
0000181A  0C90 0008 6470           cmpi.l     [A0], 0x86470
00001820  640C                     bcc        +0xE /* 0000182E */
00001822  7003                     moveq.l    D0, 0x03
00001824  2F00                     move.l     -[A7], D0
00001826  4EAD 0662                jsr        [A5 + 0x662 /* export_200, CODE:11 @ 000003B0 */]
0000182A  584F                     addq.w     A7, 4
0000182C  6056                     bra        +0x58 /* 00001884 */
label0000182E:
0000182E  204D                     movea.l    A0, A5
00001830  D1FC FFFE BD76           add.l      A0, 0xFFFEBD76
00001836  0C90 0008 6470           cmpi.l     [A0], 0x86470
0000183C  651C                     bcs        +0x1E /* 0000185A */
0000183E  204D                     movea.l    A0, A5
00001840  D1FC FFFE BD76           add.l      A0, 0xFFFEBD76
00001846  0C90 000B 71B0           cmpi.l     [A0], 0xB71B0
0000184C  640C                     bcc        +0xE /* 0000185A */
0000184E  7004                     moveq.l    D0, 0x04
00001850  2F00                     move.l     -[A7], D0
00001852  4EAD 0662                jsr        [A5 + 0x662 /* export_200, CODE:11 @ 000003B0 */]
00001856  584F                     addq.w     A7, 4
00001858  602A                     bra        +0x2C /* 00001884 */
label0000185A:
0000185A  204D                     movea.l    A0, A5
0000185C  D1FC FFFE BD76           add.l      A0, 0xFFFEBD76
00001862  0C90 000B 71B0           cmpi.l     [A0], 0xB71B0
00001868  651A                     bcs        +0x1C /* 00001884 */
0000186A  204D                     movea.l    A0, A5
0000186C  D1FC FFFE BD76           add.l      A0, 0xFFFEBD76
00001872  0C90 000F 423F           cmpi.l     [A0], 0xF423F
00001878  640A                     bcc        +0xC /* 00001884 */
0000187A  7005                     moveq.l    D0, 0x05
0000187C  2F00                     move.l     -[A7], D0
0000187E  4EAD 0662                jsr        [A5 + 0x662 /* export_200, CODE:11 @ 000003B0 */]
00001882  584F                     addq.w     A7, 4
label00001884:
00001884  224D                     movea.l    A1, A5
00001886  D3FC FFFF 7868           add.l      A1, 0xFFFF7868
0000188C  2051                     movea.l    A0, [A1]
0000188E  2068 0128                movea.l    A0, [A0 + 0x128]
00001892  2D48 FFDE                move.l     [A6 - 0x22], A0
00001896  2F28 00D4                move.l     -[A7], [A0 + 0xD4]
0000189A  4EAD 0AEA                jsr        [A5 + 0xAEA /* export_345, CODE:18 @ 0000395A */]
0000189E  204D                     movea.l    A0, A5
000018A0  D1FC FFFD CEC8           add.l      A0, 0xFFFDCEC8
000018A6  5250                     addq.w     [A0], 1
000018A8  558F                     subq.l     A7, 2
000018AA  A861                     syscall    Random
000018AC  7E07                     moveq.l    D7, 0x07
000018AE  CE5F                     and.w      D7, [A7]+
000018B0  5047                     addq.w     D7, 8
000018B2  204D                     movea.l    A0, A5
000018B4  D1FC FFFD 93F4           add.l      A0, 0xFFFD93F4
000018BA  3087                     move.w     [A0], D7
000018BC  204D                     movea.l    A0, A5
000018BE  D1FC FFFE D63E           add.l      A0, 0xFFFED63E
000018C4  1010                     move.b     D0, [A0]
000018C6  5210                     addq.b     [A0], 1
000018C8  7004                     moveq.l    D0, 0x04
000018CA  204D                     movea.l    A0, A5
000018CC  D1FC FFFE D63E           add.l      A0, 0xFFFED63E
000018D2  B010                     cmp.b      D0, [A0]
000018D4  584F                     addq.w     A7, 4
000018D6  6C0A                     bge        +0xC /* 000018E2 */
000018D8  204D                     movea.l    A0, A5
000018DA  D1FC FFFE D63E           add.l      A0, 0xFFFED63E
000018E0  4210                     clr.b      [A0]
label000018E2:
000018E2  204D                     movea.l    A0, A5
000018E4  D1FC FFFE D732           add.l      A0, 0xFFFED732
000018EA  1010                     move.b     D0, [A0]
000018EC  5210                     addq.b     [A0], 1
000018EE  7004                     moveq.l    D0, 0x04
000018F0  204D                     movea.l    A0, A5
000018F2  D1FC FFFE D732           add.l      A0, 0xFFFED732
000018F8  B010                     cmp.b      D0, [A0]
000018FA  6C0A                     bge        +0xC /* 00001906 */
000018FC  204D                     movea.l    A0, A5
000018FE  D1FC FFFE D732           add.l      A0, 0xFFFED732
00001904  4210                     clr.b      [A0]
label00001906:
00001906  204D                     movea.l    A0, A5
00001908  D1FC FFFE D826           add.l      A0, 0xFFFED826
0000190E  1010                     move.b     D0, [A0]
00001910  5210                     addq.b     [A0], 1
00001912  7004                     moveq.l    D0, 0x04
00001914  204D                     movea.l    A0, A5
00001916  D1FC FFFE D826           add.l      A0, 0xFFFED826
0000191C  B010                     cmp.b      D0, [A0]
0000191E  6C0A                     bge        +0xC /* 0000192A */
00001920  204D                     movea.l    A0, A5
00001922  D1FC FFFE D826           add.l      A0, 0xFFFED826
00001928  4210                     clr.b      [A0]
label0000192A:
0000192A  7000                     moveq.l    D0, 0x00
0000192C  204D                     movea.l    A0, A5
0000192E  D1FC FFFD CEC6           add.l      A0, 0xFFFDCEC6
00001934  3010                     move.w     D0, [A0]
00001936  7202                     moveq.l    D1, 0x02
00001938  B280                     cmp.l      D1, D0
0000193A  6734                     beq        +0x36 /* 00001970 */
0000193C  7000                     moveq.l    D0, 0x00
0000193E  204D                     movea.l    A0, A5
00001940  D1FC FFFD CEC6           add.l      A0, 0xFFFDCEC6
00001946  3010                     move.w     D0, [A0]
00001948  7206                     moveq.l    D1, 0x06
0000194A  B280                     cmp.l      D1, D0
0000194C  6722                     beq        +0x24 /* 00001970 */
0000194E  7000                     moveq.l    D0, 0x00
00001950  204D                     movea.l    A0, A5
00001952  D1FC FFFD CEC6           add.l      A0, 0xFFFDCEC6
00001958  3010                     move.w     D0, [A0]
0000195A  7209                     moveq.l    D1, 0x09
0000195C  B280                     cmp.l      D1, D0
0000195E  6710                     beq        +0x12 /* 00001970 */
00001960  7000                     moveq.l    D0, 0x00
00001962  204D                     movea.l    A0, A5
00001964  D1FC FFFD CEC6           add.l      A0, 0xFFFDCEC6
0000196A  3010                     move.w     D0, [A0]
0000196C  4A80                     tst.l      D0
0000196E  6604                     bne        +0x6 /* 00001974 */
label00001970:
00001970  4EBA F5BA                jsr        [PC - 0xA46 /* 00000F2C */]
label00001974:
00001974  4EAD 026A                jsr        [A5 + 0x26A /* export_73, CODE:3 @ 0000197A */]
label00001978:
00001978  7002                     moveq.l    D0, 0x02
0000197A  204D                     movea.l    A0, A5
0000197C  D1FC FFFE D824           add.l      A0, 0xFFFED824
00001982  B010                     cmp.b      D0, [A0]
00001984  6E0C                     bgt        +0xE /* 00001992 */
00001986  204D                     movea.l    A0, A5
00001988  D1FC FFFE D824           add.l      A0, 0xFFFED824
0000198E  5510                     subq.b     [A0], 2
00001990  600A                     bra        +0xC /* 0000199C */
label00001992:
00001992  204D                     movea.l    A0, A5
00001994  D1FC FFFE D824           add.l      A0, 0xFFFED824
0000199A  4210                     clr.b      [A0]
label0000199C:
0000199C  4EAD 08DA                jsr        [A5 + 0x8DA /* export_279, CODE:15 @ 00002BC4 */]
000019A0  204D                     movea.l    A0, A5
000019A2  D1FC FFFE D732           add.l      A0, 0xFFFED732
000019A8  1010                     move.b     D0, [A0]
000019AA  4880                     ext.w      D0
000019AC  C1FC 0030                muls.w     D0, 0x30 /* '0' */
000019B0  48C0                     ext.l      D0
000019B2  7200                     moveq.l    D1, 0x00
000019B4  204D                     movea.l    A0, A5
000019B6  D1FC FFFD CECA           add.l      A0, 0xFFFDCECA
000019BC  3210                     move.w     D1, [A0]
000019BE  D280                     add.l      D1, D0
000019C0  7000                     moveq.l    D0, 0x00
000019C2  204D                     movea.l    A0, A5
000019C4  D1FC FFFD CEC6           add.l      A0, 0xFFFDCEC6
000019CA  3010                     move.w     D0, [A0]
000019CC  E588                     lsl        D0, 2
000019CE  3C00                     move.w     D6, D0
000019D0  DC41                     add.w      D6, D1
000019D2  3006                     move.w     D0, D6
000019D4  5246                     addq.w     D6, 1
000019D6  0C46 00F0                cmpi.w     D6, 0xF0
000019DA  6D02                     blt        +0x4 /* 000019DE */
000019DC  4246                     clr.w      D6
label000019DE:
000019DE  204D                     movea.l    A0, A5
000019E0  D1FC FFFE D642           add.l      A0, 0xFFFED642
000019E6  7003                     moveq.l    D0, 0x03
000019E8  B030 6000                cmp.b      D0, [A0 + D6.w]
000019EC  6C18                     bge        +0x1A /* 00001A06 */
000019EE  204D                     movea.l    A0, A5
000019F0  D1FC FFFE D104           add.l      A0, 0xFFFED104
000019F6  4850                     pea.l      [A0]
000019F8  4EAD 0742                jsr        [A5 + 0x742 /* export_228, CODE:12 @ 000045BA */]
000019FC  7047                     moveq.l    D0, 0x47
000019FE  2F00                     move.l     -[A7], D0
00001A00  4EAD 032A                jsr        [A5 + 0x32A /* export_97, CODE:5 @ 00000560 */]
00001A04  504F                     addq.w     A7, 8
label00001A06:
00001A06  558F                     subq.l     A7, 2
00001A08  A861                     syscall    Random
00001A0A  301F                     move.w     D0, [A7]+
00001A0C  48C0                     ext.l      D0
00001A0E  2F00                     move.l     -[A7], D0
00001A10  4EAD 145A                jsr        [A5 + 0x145A /* export_647, CODE:31 @ 00000000 */]
00001A14  4C7C 0801 0000 0005      divu.l     D5:D0, 0x8010000
00001A1C  204D                     movea.l    A0, A5
00001A1E  D1FC FFFE D549           add.l      A0, 0xFFFED549
00001A24  D210                     add.b      D1, [A0]
00001A26  204D                     movea.l    A0, A5
00001A28  D1FC FFFE D872           add.l      A0, 0xFFFED872
00001A2E  1081                     move.b     [A0], D1
00001A30  204D                     movea.l    A0, A5
00001A32  D1FC FFFE D549           add.l      A0, 0xFFFED549
00001A38  224D                     movea.l    A1, A5
00001A3A  D3FC FFFE D54A           add.l      A1, 0xFFFED54A
00001A40  1290                     move.b     [A1], [A0]
00001A42  204D                     movea.l    A0, A5
00001A44  D1FC FFFD CECE           add.l      A0, 0xFFFDCECE
00001A4A  3010                     move.w     D0, [A0]
00001A4C  204D                     movea.l    A0, A5
00001A4E  D1FC FFFE D834           add.l      A0, 0xFFFED834
00001A54  224D                     movea.l    A1, A5
00001A56  D3FC FFFE D842           add.l      A1, 0xFFFED842
00001A5C  12B0 0000                move.b     [A1], [A0 + D0.w]
00001A60  204D                     movea.l    A0, A5
00001A62  D1FC FFFE D842           add.l      A0, 0xFFFED842
00001A68  1010                     move.b     D0, [A0]
00001A6A  49C0                     lea.l      A4, D0
00001A6C  2F00                     move.l     -[A7], D0
00001A6E  4EAD 08D2                jsr        [A5 + 0x8D2 /* export_278, CODE:15 @ 00002A8E */]
00001A72  4247                     clr.w      D7
00001A74  504F                     addq.w     A7, 8
label00001A76:
00001A76  204D                     movea.l    A0, A5
00001A78  D1FC FFFD CECE           add.l      A0, 0xFFFDCECE
00001A7E  3010                     move.w     D0, [A0]
00001A80  D047                     add.w      D0, D7
00001A82  204D                     movea.l    A0, A5
00001A84  D1FC FFFE D834           add.l      A0, 0xFFFED834
00001A8A  7200                     moveq.l    D1, 0x00
00001A8C  1230 0000                move.b     D1, [A0 + D0.w]
00001A90  2F01                     move.l     -[A7], D1
00001A92  224D                     movea.l    A1, A5
00001A94  D3FC FFFF 7868           add.l      A1, 0xFFFF7868
00001A9A  2051                     movea.l    A0, [A1]
00001A9C  2F28 0128                move.l     -[A7], [A0 + 0x128]
00001AA0  4EAD 07F2                jsr        [A5 + 0x7F2 /* export_250, CODE:13 @ 0000619C */]
00001AA4  504F                     addq.w     A7, 8
00001AA6  3007                     move.w     D0, D7
00001AA8  5247                     addq.w     D7, 1
00001AAA  0C47 0003                cmpi.w     D7, 0x3
00001AAE  6DC6                     blt        -0x38 /* 00001A76 */
00001AB0  204D                     movea.l    A0, A5
00001AB2  D1FC FFFD CEBE           add.l      A0, 0xFFFDCEBE
00001AB8  224D                     movea.l    A1, A5
00001ABA  D3FC FFFD CE46           add.l      A1, 0xFFFDCE46
00001AC0  2290                     move.l     [A1], [A0]
label00001AC2:
00001AC2  3006                     move.w     D0, D6
00001AC4  EE40                     asr        D0.w, 7
00001AC6  3680                     move.w     [A3], D0
00001AC8  707F                     moveq.l    D0, 0x7F
00001ACA  C046                     and.w      D0, D6
00001ACC  3880                     move.w     [A4], D0
00001ACE  705F                     moveq.l    D0, 0x5F
00001AD0  B054                     cmp.w      D0, [A4]
00001AD2  6C04                     bge        +0x6 /* 00001AD8 */
00001AD4  38BC 005F                move.w     [A4], 0x5F /* '_' */
label00001AD8:
00001AD8  705F                     moveq.l    D0, 0x5F
00001ADA  B053                     cmp.w      D0, [A3]
00001ADC  6C04                     bge        +0x6 /* 00001AE2 */
00001ADE  36BC 005F                move.w     [A3], 0x5F /* '_' */
label00001AE2:
00001AE2  4CEE 18E8 FEBA           movem.l    D3,D5,D6,D7,A3,A4, [A6 - 0x146]
00001AE8  4E5E                     unlink     A6
00001AEA  4E75                     rts
00001AEC  8E73 696D 7469 6D65 5... dc.b       "simtime__FPsT1"
fn00001AFE:
00001AFE  4E56 0000                link       A6, 0
00001B02  48E7 0300                movem.l    -[A7], D6,D7
00001B06  7002                     moveq.l    D0, 0x02
00001B08  204D                     movea.l    A0, A5
00001B0A  D1FC FFFE D640           add.l      A0, 0xFFFED640
00001B10  B010                     cmp.b      D0, [A0]
00001B12  6E22                     bgt        +0x24 /* 00001B36 */
00001B14  204D                     movea.l    A0, A5
00001B16  D1FC FFFE D640           add.l      A0, 0xFFFED640
00001B1C  1010                     move.b     D0, [A0]
00001B1E  49C0                     lea.l      A4, D0
00001B20  204D                     movea.l    A0, A5
00001B22  D1FC FFFE D546           add.l      A0, 0xFFFED546
00001B28  9190                     sub.l      [A0], D0
00001B2A  204D                     movea.l    A0, A5
00001B2C  D1FC FFFE D640           add.l      A0, 0xFFFED640
00001B32  5510                     subq.b     [A0], 2
00001B34  6014                     bra        +0x16 /* 00001B4A */
label00001B36:
00001B36  204D                     movea.l    A0, A5
00001B38  D1FC FFFE D640           add.l      A0, 0xFFFED640
00001B3E  4210                     clr.b      [A0]
00001B40  7005                     moveq.l    D0, 0x05
00001B42  2F00                     move.l     -[A7], D0
00001B44  4EAD 034A                jsr        [A5 + 0x34A /* export_101, CODE:6 @ 00000EB2 */]
00001B48  584F                     addq.w     A7, 4
label00001B4A:
00001B4A  7000                     moveq.l    D0, 0x00
00001B4C  204D                     movea.l    A0, A5
00001B4E  D1FC FFFD CECE           add.l      A0, 0xFFFDCECE
00001B54  3010                     move.w     D0, [A0]
00001B56  4A80                     tst.l      D0
00001B58  0800 0000                btst.b     D0, 0x0
00001B5C  675C                     beq        +0x5E /* 00001BBA */
00001B5E  4246                     clr.w      D6
00001B60  7E01                     moveq.l    D7, 0x01
00001B62  6048                     bra        +0x4A /* 00001BAC */
label00001B64:
00001B64  2007                     move.l     D0, D7
00001B66  C1FC 0044                muls.w     D0, 0x44 /* 'D' */
00001B6A  204D                     movea.l    A0, A5
00001B6C  D1FC FFFD AFAE           add.l      A0, 0xFFFDAFAE
00001B72  323C 0100                move.w     D1, 0x100
00001B76  C270 0006                and.w      D1, [A0 + D0.w + 0x6]
00001B7A  672C                     beq        +0x2E /* 00001BA8 */
00001B7C  7001                     moveq.l    D0, 0x01
00001B7E  2F00                     move.l     -[A7], D0
00001B80  48C7                     ext.l      D7
00001B82  2F07                     move.l     -[A7], D7
00001B84  2F00                     move.l     -[A7], D0
00001B86  4EAD 0532                jsr        [A5 + 0x532 /* export_162, CODE:9 @ 0000465E */]
00001B8A  7002                     moveq.l    D0, 0x02
00001B8C  2F00                     move.l     -[A7], D0
00001B8E  48C7                     ext.l      D7
00001B90  2F07                     move.l     -[A7], D7
00001B92  2F00                     move.l     -[A7], D0
00001B94  4EAD 0532                jsr        [A5 + 0x532 /* export_162, CODE:9 @ 0000465E */]
00001B98  48C7                     ext.l      D7
00001B9A  2F07                     move.l     -[A7], D7
00001B9C  4EAD 0522                jsr        [A5 + 0x522 /* export_160, CODE:9 @ 00003696 */]
00001BA0  3006                     move.w     D0, D6
00001BA2  5246                     addq.w     D6, 1
00001BA4  4FEF 001C                lea.l      A7, [A7 + 0x1C]
label00001BA8:
00001BA8  3007                     move.w     D0, D7
00001BAA  5247                     addq.w     D7, 1
label00001BAC:
00001BAC  204D                     movea.l    A0, A5
00001BAE  D1FC FFFD AFAC           add.l      A0, 0xFFFDAFAC
00001BB4  BC50                     cmp.w      D6, [A0]
00001BB6  6DAC                     blt        -0x52 /* 00001B64 */
00001BB8  6004                     bra        +0x6 /* 00001BBE */
label00001BBA:
00001BBA  4EAD 027A                jsr        [A5 + 0x27A /* export_75, CODE:3 @ 00001BA0 */]
label00001BBE:
00001BBE  4EBA EE64                jsr        [PC - 0x119C /* 00000A24 */]
00001BC2  4CEE 00C0 FFF8           movem.l    D6,D7, [A6 - 0x8]
00001BC8  4E5E                     unlink     A6
00001BCA  4E75                     rts
00001BCC  8D73 696D 6461 696C 7... dc.b       "simdailys__Fv"
fn00001BDC:
00001BDC  4E56 0000                link       A6, 0
00001BE0  48E7 0108                movem.l    -[A7], D7,A4
00001BE4  204D                     movea.l    A0, A5
00001BE6  D1FC FFFE D21A           add.l      A0, 0xFFFED21A
00001BEC  49D0                     lea.l      A4, [A0]
00001BEE  3E2E 000A                move.w     D7, [A6 + 0xA]
00001BF2  1034 7600                move.b     D0, [A4 + D7.w * 8]
00001BF6  0800 0000                btst.b     D0, 0x0
00001BFA  6712                     beq        +0x14 /* 00001C0E */
00001BFC  0234 00FE 7600           andi.b     [A4 + D7.w * 8], 0xFE
00001C02  204D                     movea.l    A0, A5
00001C04  D1FC FFFE D29A           add.l      A0, 0xFFFED29A
00001C0A  1010                     move.b     D0, [A0]
00001C0C  5310                     subq.b     [A0], 1
label00001C0E:
00001C0E  4CEE 1080 FFF8           movem.l    D7,A4, [A6 - 0x8]
00001C14  4E5E                     unlink     A6
00001C16  4E75                     rts
00001C18  8B6B 696C 6C63 6172 5... dc.b       "killcar__Fs"
fn00001C26:
00001C26  4E56 0000                link       A6, 0
00001C2A  48E7 1108                movem.l    -[A7], D3,D7,A4
00001C2E  204D                     movea.l    A0, A5
00001C30  D1FC FFFE D21A           add.l      A0, 0xFFFED21A
00001C36  49D0                     lea.l      A4, [A0]
00001C38  204D                     movea.l    A0, A5
00001C3A  D1FC FFFE D29A           add.l      A0, 0xFFFED29A
00001C40  4210                     clr.b      [A0]
00001C42  4247                     clr.w      D7
00001C44  7610                     moveq.l    D3, 0x10
label00001C46:
00001C46  4234 7600                clr.b      [A4 + D7.w * 8]
00001C4A  3007                     move.w     D0, D7
00001C4C  5247                     addq.w     D7, 1
00001C4E  B647                     cmp.w      D3, D7
00001C50  6EF4                     bgt        -0xA /* 00001C46 */
00001C52  4CEE 1088 FFF4           movem.l    D3,D7,A4, [A6 - 0xC]
00001C58  4E5E                     unlink     A6
00001C5A  4E75                     rts
00001C5C  8F6B 696C 6C61 6C6C 6... dc.b       "killallcars__Fv"
export_257:
fn00001C6E:
00001C6E  4E56 0000                link       A6, 0
00001C72  48E7 1F08                movem.l    -[A7], D3,D4,D5,D6,D7,A4
00001C76  182E 0013                move.b     D4, [A6 + 0x13]
00001C7A  3A2E 000E                move.w     D5, [A6 + 0xE]
00001C7E  3C2E 000A                move.w     D6, [A6 + 0xA]
00001C82  204D                     movea.l    A0, A5
00001C84  D1FC FFFE D21A           add.l      A0, 0xFFFED21A
00001C8A  49D0                     lea.l      A4, [A0]
00001C8C  7010                     moveq.l    D0, 0x10
00001C8E  204D                     movea.l    A0, A5
00001C90  D1FC FFFE D29A           add.l      A0, 0xFFFED29A
00001C96  B010                     cmp.b      D0, [A0]
00001C98  6E04                     bgt        +0x6 /* 00001C9E */
00001C9A  7000                     moveq.l    D0, 0x00
00001C9C  6050                     bra        +0x52 /* 00001CEE */
label00001C9E:
00001C9E  4207                     clr.b      D7
label00001CA0:
00001CA0  4887                     ext.w      D7
00001CA2  7001                     moveq.l    D0, 0x01
00001CA4  C034 7600                and.b      D0, [A4 + D7.w * 8]
00001CA8  663A                     bne        +0x3C /* 00001CE4 */
00001CAA  4887                     ext.w      D7
00001CAC  0034 0003 7600           ori.b      [A4 + D7.w * 8], 0x3
00001CB2  4887                     ext.w      D7
00001CB4  3986 7602                move.w     [A4 + D7.w * 8 + 0x2], D6
00001CB8  4887                     ext.w      D7
00001CBA  3985 7604                move.w     [A4 + D7.w * 8 + 0x4], D5
00001CBE  4887                     ext.w      D7
00001CC0  1984 7606                move.b     [A4 + D7.w * 8 + 0x6], D4
00001CC4  558F                     subq.l     A7, 2
00001CC6  A861                     syscall    Random
00001CC8  7003                     moveq.l    D0, 0x03
00001CCA  C05F                     and.w      D0, [A7]+
00001CCC  4887                     ext.w      D7
00001CCE  1980 7607                move.b     [A4 + D7.w * 8 + 0x7], D0
00001CD2  204D                     movea.l    A0, A5
00001CD4  D1FC FFFE D29A           add.l      A0, 0xFFFED29A
00001CDA  1010                     move.b     D0, [A0]
00001CDC  5210                     addq.b     [A0], 1
00001CDE  4887                     ext.w      D7
00001CE0  3007                     move.w     D0, D7
00001CE2  600A                     bra        +0xC /* 00001CEE */
label00001CE4:
00001CE4  1007                     move.b     D0, D7
00001CE6  5207                     addq.b     D7, 1
00001CE8  0C07 0010                cmpi.b     D7, 0x10
00001CEC  6DB2                     blt        -0x4C /* 00001CA0 */
label00001CEE:
00001CEE  4CEE 10F8 FFE8           movem.l    D3,D4,D5,D6,D7,A4, [A6 - 0x18]
00001CF4  4E5E                     unlink     A6
00001CF6  4E75                     rts
00001CF8  8E6D 616B 6563 6172 5... dc.b       "makecar__FsT1c"
fn00001D0A:
00001D0A  4E56 FFEE                link       A6, -0x0012
00001D0E  48E7 0F18                movem.l    -[A7], D4,D5,D6,D7,A3,A4
00001D12  204D                     movea.l    A0, A5
00001D14  D1FC FFFE D21A           add.l      A0, 0xFFFED21A
00001D1A  47D0                     lea.l      A3, [A0]
00001D1C  1E2E 000B                move.b     D7, [A6 + 0xB]
00001D20  7A01                     moveq.l    D5, 0x01
00001D22  4887                     ext.w      D7
00001D24  3A33 7602                move.w     D5, [A3 + D7.w * 8 + 0x2]
00001D28  4887                     ext.w      D7
00001D2A  3C33 7604                move.w     D6, [A3 + D7.w * 8 + 0x4]
00001D2E  4887                     ext.w      D7
00001D30  1033 7606                move.b     D0, [A3 + D7.w * 8 + 0x6]
00001D34  4880                     ext.w      D0
00001D36  3D40 FFEE                move.w     [A6 - 0x12], D0
00001D3A  4887                     ext.w      D7
00001D3C  1D73 7607 FFF9           move.b     [A6 - 0x7], [A3 + D7.w * 8 + 0x7]
00001D42  4887                     ext.w      D7
00001D44  1033 7600                move.b     D0, [A3 + D7.w * 8]
00001D48  4880                     ext.w      D0
00001D4A  3D40 FFF6                move.w     [A6 - 0xA], D0
00001D4E  2005                     move.l     D0, D5
00001D50  C1FC 00C0                muls.w     D0, 0xC0
00001D54  204D                     movea.l    A0, A5
00001D56  D1FC FFFE 42D4           add.l      A0, 0xFFFE42D4
00001D5C  2206                     move.l     D1, D6
00001D5E  D241                     add.w      D1, D1
00001D60  D240                     add.w      D1, D0
00001D62  3830 1000                move.w     D4, [A0 + D1.w]
00001D66  2005                     move.l     D0, D5
00001D68  C1FC 00C0                muls.w     D0, 0xC0
00001D6C  204D                     movea.l    A0, A5
00001D6E  D1FC FFFD FAD4           add.l      A0, 0xFFFDFAD4
00001D74  2206                     move.l     D1, D6
00001D76  D241                     add.w      D1, D1
00001D78  D240                     add.w      D1, D0
00001D7A  3830 1000                move.w     D4, [A0 + D1.w]
00001D7E  7002                     moveq.l    D0, 0x02
00001D80  C06E FFF6                and.w      D0, [A6 - 0xA]
00001D84  6700 0212                beq        +0x214 /* 00001F98 */
00001D88  2005                     move.l     D0, D5
00001D8A  C1FC 00C0                muls.w     D0, 0xC0
00001D8E  204D                     movea.l    A0, A5
00001D90  D1FC FFFE 42D4           add.l      A0, 0xFFFE42D4
00001D96  2206                     move.l     D1, D6
00001D98  D241                     add.w      D1, D1
00001D9A  D240                     add.w      D1, D0
00001D9C  0270 F7FF 1000           andi.w     [A0 + D1.w], 0xF7FF
00001DA2  2005                     move.l     D0, D5
00001DA4  C1FC 00C0                muls.w     D0, 0xC0
00001DA8  204D                     movea.l    A0, A5
00001DAA  D1FC FFFE 42D4           add.l      A0, 0xFFFE42D4
00001DB0  2206                     move.l     D1, D6
00001DB2  D241                     add.w      D1, D1
00001DB4  D240                     add.w      D1, D0
00001DB6  0270 BFFF 1000           andi.w     [A0 + D1.w], 0xBFFF
00001DBC  2005                     move.l     D0, D5
00001DBE  C1FC 00C0                muls.w     D0, 0xC0
00001DC2  204D                     movea.l    A0, A5
00001DC4  D1FC FFFD FAD4           add.l      A0, 0xFFFDFAD4
00001DCA  2206                     move.l     D1, D6
00001DCC  D241                     add.w      D1, D1
00001DCE  D240                     add.w      D1, D0
00001DD0  7000                     moveq.l    D0, 0x00
00001DD2  3030 1000                move.w     D0, [A0 + D1.w]
00001DD6  323C F800                move.w     D1, 0xF800
00001DDA  C240                     and.w      D1, D0
00001DDC  7000                     moveq.l    D0, 0x00
00001DDE  3001                     move.w     D0, D1
00001DE0  7200                     moveq.l    D1, 0x00
00001DE2  8240                     or.w       D1, D0
00001DE4  2005                     move.l     D0, D5
00001DE6  C1FC 00C0                muls.w     D0, 0xC0
00001DEA  204D                     movea.l    A0, A5
00001DEC  D1FC FFFD FAD4           add.l      A0, 0xFFFDFAD4
00001DF2  2406                     move.l     D2, D6
00001DF4  D442                     add.w      D2, D2
00001DF6  D440                     add.w      D2, D0
00001DF8  3181 2000                move.w     [A0 + D2.w], D1
00001DFC  2005                     move.l     D0, D5
00001DFE  C1FC 00C0                muls.w     D0, 0xC0
00001E02  204D                     movea.l    A0, A5
00001E04  D1FC FFFE 42D4           add.l      A0, 0xFFFE42D4
00001E0A  2206                     move.l     D1, D6
00001E0C  D241                     add.w      D1, D1
00001E0E  D240                     add.w      D1, D0
00001E10  0270 BFFF 1000           andi.w     [A0 + D1.w], 0xBFFF
00001E16  486E FFF4                pea.l      [A6 - 0xC]
00001E1A  486E FFF2                pea.l      [A6 - 0xE]
00001E1E  486E FFF0                pea.l      [A6 - 0x10]
00001E22  48C6                     ext.l      D6
00001E24  2F06                     move.l     -[A7], D6
00001E26  48C5                     ext.l      D5
00001E28  2F05                     move.l     -[A7], D5
00001E2A  302E FFEE                move.w     D0, [A6 - 0x12]
00001E2E  48C0                     ext.l      D0
00001E30  2F00                     move.l     -[A7], D0
00001E32  4EBA 0304                jsr        [PC + 0x304 /* 00002138 */]
00001E36  3800                     move.w     D4, D0
00001E38  4FEF 0018                lea.l      A7, [A7 + 0x18]
00001E3C  6610                     bne        +0x12 /* 00001E4E */
00001E3E  49C7                     lea.l      A4, D7
00001E40  2F07                     move.l     -[A7], D7
00001E42  4EBA FD98                jsr        [PC - 0x268 /* 00001BDC */]
00001E46  7000                     moveq.l    D0, 0x00
00001E48  584F                     addq.w     A7, 4
00001E4A  6000 02D2                bra        +0x2D4 /* 0000211E */
label00001E4E:
00001E4E  302E FFF0                move.w     D0, [A6 - 0x10]
00001E52  C1FC 00C0                muls.w     D0, 0xC0
00001E56  204D                     movea.l    A0, A5
00001E58  D1FC FFFE 42D4           add.l      A0, 0xFFFE42D4
00001E5E  322E FFF2                move.w     D1, [A6 - 0xE]
00001E62  D241                     add.w      D1, D1
00001E64  D240                     add.w      D1, D0
00001E66  7000                     moveq.l    D0, 0x00
00001E68  3030 1000                move.w     D0, [A0 + D1.w]
00001E6C  323C 0800                move.w     D1, 0x800
00001E70  C240                     and.w      D1, D0
00001E72  6762                     beq        +0x64 /* 00001ED6 */
00001E74  302E FFF2                move.w     D0, [A6 - 0xE]
00001E78  48C0                     ext.l      D0
00001E7A  2F00                     move.l     -[A7], D0
00001E7C  302E FFF0                move.w     D0, [A6 - 0x10]
00001E80  48C0                     ext.l      D0
00001E82  2F00                     move.l     -[A7], D0
00001E84  4EAD 0252                jsr        [A5 + 0x252 /* export_70, CODE:3 @ 00001456 */]
00001E88  3D40 FFFA                move.w     [A6 - 0x6], D0
00001E8C  504F                     addq.w     A7, 8
00001E8E  673C                     beq        +0x3E /* 00001ECC */
00001E90  302E FFFA                move.w     D0, [A6 - 0x6]
00001E94  C1FC 0022                muls.w     D0, 0x22 /* '\"' */
00001E98  204D                     movea.l    A0, A5
00001E9A  D1FC FFFD 71EC           add.l      A0, 0xFFFD71EC
00001EA0  7200                     moveq.l    D1, 0x00
00001EA2  3230 0002                move.w     D1, [A0 + D0.w + 0x2]
00001EA6  7008                     moveq.l    D0, 0x08
00001EA8  C041                     and.w      D0, D1
00001EAA  6620                     bne        +0x22 /* 00001ECC */
00001EAC  302E FFF2                move.w     D0, [A6 - 0xE]
00001EB0  48C0                     ext.l      D0
00001EB2  2F00                     move.l     -[A7], D0
00001EB4  302E FFF0                move.w     D0, [A6 - 0x10]
00001EB8  48C0                     ext.l      D0
00001EBA  2F00                     move.l     -[A7], D0
00001EBC  302E FFFA                move.w     D0, [A6 - 0x6]
00001EC0  48C0                     ext.l      D0
00001EC2  2F00                     move.l     -[A7], D0
00001EC4  4EAD 028A                jsr        [A5 + 0x28A /* export_77, CODE:3 @ 00002826 */]
00001EC8  4FEF 000C                lea.l      A7, [A7 + 0xC]
label00001ECC:
00001ECC  026E FFFD FFF6           andi.w     [A6 - 0xA], 0xFFFD
00001ED2  6000 01E8                bra        +0x1EA /* 000020BC */
label00001ED6:
00001ED6  4A44                     tst.w      D4
00001ED8  6700 01E2                beq        +0x1E4 /* 000020BC */
00001EDC  302E FFF0                move.w     D0, [A6 - 0x10]
00001EE0  C1FC 00C0                muls.w     D0, 0xC0
00001EE4  204D                     movea.l    A0, A5
00001EE6  D1FC FFFE 42D4           add.l      A0, 0xFFFE42D4
00001EEC  322E FFF2                move.w     D1, [A6 - 0xE]
00001EF0  D241                     add.w      D1, D1
00001EF2  D240                     add.w      D1, D0
00001EF4  0070 0800 1000           ori.w      [A0 + D1.w], 0x800
00001EFA  302E FFF0                move.w     D0, [A6 - 0x10]
00001EFE  C1FC 00C0                muls.w     D0, 0xC0
00001F02  204D                     movea.l    A0, A5
00001F04  D1FC FFFE 42D4           add.l      A0, 0xFFFE42D4
00001F0A  322E FFF2                move.w     D1, [A6 - 0xE]
00001F0E  D241                     add.w      D1, D1
00001F10  D240                     add.w      D1, D0
00001F12  0270 BFFF 1000           andi.w     [A0 + D1.w], 0xBFFF
00001F18  302E FFF0                move.w     D0, [A6 - 0x10]
00001F1C  C1FC 00C0                muls.w     D0, 0xC0
00001F20  204D                     movea.l    A0, A5
00001F22  D1FC FFFD FAD4           add.l      A0, 0xFFFDFAD4
00001F28  322E FFF2                move.w     D1, [A6 - 0xE]
00001F2C  D241                     add.w      D1, D1
00001F2E  D240                     add.w      D1, D0
00001F30  7000                     moveq.l    D0, 0x00
00001F32  3030 1000                move.w     D0, [A0 + D1.w]
00001F36  323C F800                move.w     D1, 0xF800
00001F3A  C240                     and.w      D1, D0
00001F3C  7000                     moveq.l    D0, 0x00
00001F3E  3001                     move.w     D0, D1
00001F40  322E FFF4                move.w     D1, [A6 - 0xC]
00001F44  E241                     asr        D1.w, 1
00001F46  48C1                     ext.l      D1
00001F48  D2BC 0000 0394           add.l      D1, 0x394
00001F4E  142E FFF9                move.b     D2, [A6 - 0x7]
00001F52  49C2                     lea.l      A4, D2
00001F54  E58A                     lsl        D2, 2
00001F56  D481                     add.l      D2, D1
00001F58  8480                     or.l       D2, D0
00001F5A  302E FFF0                move.w     D0, [A6 - 0x10]
00001F5E  C1FC 00C0                muls.w     D0, 0xC0
00001F62  204D                     movea.l    A0, A5
00001F64  D1FC FFFD FAD4           add.l      A0, 0xFFFDFAD4
00001F6A  322E FFF2                move.w     D1, [A6 - 0xE]
00001F6E  D241                     add.w      D1, D1
00001F70  D240                     add.w      D1, D0
00001F72  3182 1000                move.w     [A0 + D1.w], D2
00001F76  302E FFF0                move.w     D0, [A6 - 0x10]
00001F7A  C1FC 00C0                muls.w     D0, 0xC0
00001F7E  204D                     movea.l    A0, A5
00001F80  D1FC FFFE 42D4           add.l      A0, 0xFFFE42D4
00001F86  322E FFF2                move.w     D1, [A6 - 0xE]
00001F8A  D241                     add.w      D1, D1
00001F8C  D240                     add.w      D1, D0
00001F8E  0270 BFFF 1000           andi.w     [A0 + D1.w], 0xBFFF
00001F94  6000 0126                bra        +0x128 /* 000020BC */
label00001F98:
00001F98  486E FFF4                pea.l      [A6 - 0xC]
00001F9C  486E FFF2                pea.l      [A6 - 0xE]
00001FA0  486E FFF0                pea.l      [A6 - 0x10]
00001FA4  48C6                     ext.l      D6
00001FA6  2F06                     move.l     -[A7], D6
00001FA8  48C5                     ext.l      D5
00001FAA  2F05                     move.l     -[A7], D5
00001FAC  302E FFEE                move.w     D0, [A6 - 0x12]
00001FB0  48C0                     ext.l      D0
00001FB2  2F00                     move.l     -[A7], D0
00001FB4  4EBA 0182                jsr        [PC + 0x182 /* 00002138 */]
00001FB8  3800                     move.w     D4, D0
00001FBA  4FEF 0018                lea.l      A7, [A7 + 0x18]
00001FBE  6610                     bne        +0x12 /* 00001FD0 */
00001FC0  49C7                     lea.l      A4, D7
00001FC2  2F07                     move.l     -[A7], D7
00001FC4  4EBA FC16                jsr        [PC - 0x3EA /* 00001BDC */]
00001FC8  7000                     moveq.l    D0, 0x00
00001FCA  584F                     addq.w     A7, 4
00001FCC  6000 0150                bra        +0x152 /* 0000211E */
label00001FD0:
00001FD0  4A44                     tst.w      D4
00001FD2  6700 00E8                beq        +0xEA /* 000020BC */
00001FD6  302E FFF0                move.w     D0, [A6 - 0x10]
00001FDA  C1FC 00C0                muls.w     D0, 0xC0
00001FDE  204D                     movea.l    A0, A5
00001FE0  D1FC FFFE 42D4           add.l      A0, 0xFFFE42D4
00001FE6  322E FFF2                move.w     D1, [A6 - 0xE]
00001FEA  D241                     add.w      D1, D1
00001FEC  D240                     add.w      D1, D0
00001FEE  7000                     moveq.l    D0, 0x00
00001FF0  3030 1000                move.w     D0, [A0 + D1.w]
00001FF4  323C 0800                move.w     D1, 0x800
00001FF8  C240                     and.w      D1, D0
00001FFA  6600 00C0                bne        +0xC2 /* 000020BC */
00001FFE  006E 0002 FFF6           ori.w      [A6 - 0xA], 0x2
00002004  302E FFF0                move.w     D0, [A6 - 0x10]
00002008  C1FC 00C0                muls.w     D0, 0xC0
0000200C  204D                     movea.l    A0, A5
0000200E  D1FC FFFE 42D4           add.l      A0, 0xFFFE42D4
00002014  322E FFF2                move.w     D1, [A6 - 0xE]
00002018  D241                     add.w      D1, D1
0000201A  D240                     add.w      D1, D0
0000201C  0070 0800 1000           ori.w      [A0 + D1.w], 0x800
00002022  302E FFF0                move.w     D0, [A6 - 0x10]
00002026  C1FC 00C0                muls.w     D0, 0xC0
0000202A  204D                     movea.l    A0, A5
0000202C  D1FC FFFE 42D4           add.l      A0, 0xFFFE42D4
00002032  322E FFF2                move.w     D1, [A6 - 0xE]
00002036  D241                     add.w      D1, D1
00002038  D240                     add.w      D1, D0
0000203A  0270 BFFF 1000           andi.w     [A0 + D1.w], 0xBFFF
00002040  302E FFF0                move.w     D0, [A6 - 0x10]
00002044  C1FC 00C0                muls.w     D0, 0xC0
00002048  204D                     movea.l    A0, A5
0000204A  D1FC FFFD FAD4           add.l      A0, 0xFFFDFAD4
00002050  322E FFF2                move.w     D1, [A6 - 0xE]
00002054  D241                     add.w      D1, D1
00002056  D240                     add.w      D1, D0
00002058  7000                     moveq.l    D0, 0x00
0000205A  3030 1000                move.w     D0, [A0 + D1.w]
0000205E  323C F800                move.w     D1, 0xF800
00002062  C240                     and.w      D1, D0
00002064  7000                     moveq.l    D0, 0x00
00002066  3001                     move.w     D0, D1
00002068  322E FFF4                move.w     D1, [A6 - 0xC]
0000206C  E241                     asr        D1.w, 1
0000206E  48C1                     ext.l      D1
00002070  D2BC 0000 0394           add.l      D1, 0x394
00002076  142E FFF9                move.b     D2, [A6 - 0x7]
0000207A  49C2                     lea.l      A4, D2
0000207C  E58A                     lsl        D2, 2
0000207E  D481                     add.l      D2, D1
00002080  8480                     or.l       D2, D0
00002082  302E FFF0                move.w     D0, [A6 - 0x10]
00002086  C1FC 00C0                muls.w     D0, 0xC0
0000208A  204D                     movea.l    A0, A5
0000208C  D1FC FFFD FAD4           add.l      A0, 0xFFFDFAD4
00002092  322E FFF2                move.w     D1, [A6 - 0xE]
00002096  D241                     add.w      D1, D1
00002098  D240                     add.w      D1, D0
0000209A  3182 1000                move.w     [A0 + D1.w], D2
0000209E  302E FFF0                move.w     D0, [A6 - 0x10]
000020A2  C1FC 00C0                muls.w     D0, 0xC0
000020A6  204D                     movea.l    A0, A5
000020A8  D1FC FFFE 42D4           add.l      A0, 0xFFFE42D4
000020AE  322E FFF2                move.w     D1, [A6 - 0xE]
000020B2  D241                     add.w      D1, D1
000020B4  D240                     add.w      D1, D0
000020B6  0270 BFFF 1000           andi.w     [A0 + D1.w], 0xBFFF
label000020BC:
000020BC  4887                     ext.w      D7
000020BE  37AE FFF0 7602           move.w     [A3 + D7.w * 8 + 0x2], [A6 - 0x10]
000020C4  4887                     ext.w      D7
000020C6  37AE FFF2 7604           move.w     [A3 + D7.w * 8 + 0x4], [A6 - 0xE]
000020CC  4887                     ext.w      D7
000020CE  17AE FFF5 7606           move.b     [A3 + D7.w * 8 + 0x6], [A6 - 0xB]
000020D4  4887                     ext.w      D7
000020D6  17AE FFF7 7600           move.b     [A3 + D7.w * 8], [A6 - 0x9]
000020DC  204D                     movea.l    A0, A5
000020DE  D1FC FFFF 7868           add.l      A0, 0xFFFF7868
000020E4  2050                     movea.l    A0, [A0]
000020E6  2D48 FFFC                move.l     [A6 - 0x4], A0
000020EA  2868 0128                movea.l    A4, [A0 + 0x128]
000020EE  7000                     moveq.l    D0, 0x00
000020F0  2640                     movea.l    A3, D0
000020F2  2F0B                     move.l     -[A7], A3
000020F4  2F0C                     move.l     -[A7], A4
000020F6  2F3C 454D 6F76           move.l     -[A7], 0x454D6F76 /* 'EMov' */
000020FC  206C 00F0                movea.l    A0, [A4 + 0xF0]
00002100  2248                     movea.l    A1, A0
00002102  2269 0060                movea.l    A1, [A1 + 0x60]
00002106  D0E9 0058                add.w      A0, [A1 + 0x58]
0000210A  2F08                     move.l     -[A7], A0
0000210C  206C 00F0                movea.l    A0, [A4 + 0xF0]
00002110  2068 0060                movea.l    A0, [A0 + 0x60]
00002114  2268 005C                movea.l    A1, [A0 + 0x5C]
00002118  4E91                     jsr        [A1]
0000211A  4FEF 0010                lea.l      A7, [A7 + 0x10]
label0000211E:
0000211E  4CEE 18F0 FFD6           movem.l    D4,D5,D6,D7,A3,A4, [A6 - 0x2A]
00002124  4E5E                     unlink     A6
00002126  4E75                     rts
00002128  8C6D 6F76 6561 6361 7... dc.b       "moveacar__Fc"
fn00002138:
00002138  4E56 FFF8                link       A6, -0x0008
0000213C  48E7 0F18                movem.l    -[A7], D4,D5,D6,D7,A3,A4
00002140  204D                     movea.l    A0, A5
00002142  D1FC FFFE D2AC           add.l      A0, 0xFFFED2AC
00002148  47D0                     lea.l      A3, [A0]
0000214A  204D                     movea.l    A0, A5
0000214C  D1FC FFFE D2A4           add.l      A0, 0xFFFED2A4
00002152  49D0                     lea.l      A4, [A0]
00002154  7801                     moveq.l    D4, 0x01
00002156  7C01                     moveq.l    D6, 0x01
00002158  7801                     moveq.l    D4, 0x01
0000215A  382E 000A                move.w     D4, [A6 + 0xA]
0000215E  422E FFFF                clr.b      [A6 - 0x1]
label00002162:
00002162  302E 0012                move.w     D0, [A6 + 0x12]
00002166  48C0                     ext.l      D0
00002168  2F00                     move.l     -[A7], D0
0000216A  302E 000E                move.w     D0, [A6 + 0xE]
0000216E  48C0                     ext.l      D0
00002170  2F00                     move.l     -[A7], D0
00002172  204D                     movea.l    A0, A5
00002174  D1FC FFFD AD58           add.l      A0, 0xFFFDAD58
0000217A  4850                     pea.l      [A0]
0000217C  4EAD 04DA                jsr        [A5 + 0x4DA /* export_151, CODE:8 @ 000014DE */]
00002180  1A00                     move.b     D5, D0
00002182  4885                     ext.w      D5
00002184  1D73 5000 FFFD           move.b     [A6 - 0x3], [A3 + D5.w]
0000218A  7001                     moveq.l    D0, 0x01
0000218C  B02E FFFD                cmp.b      D0, [A6 - 0x3]
00002190  4FEF 000C                lea.l      A7, [A7 + 0xC]
00002194  6C16                     bge        +0x18 /* 000021AC */
00002196  302E 000A                move.w     D0, [A6 + 0xA]
0000219A  E240                     asr        D0.w, 1
0000219C  204D                     movea.l    A0, A5
0000219E  D1FC FFFE D29C           add.l      A0, 0xFFFED29C
000021A4  1030 0000                move.b     D0, [A0 + D0.w]
000021A8  4600                     not.b      D0
000021AA  CA00                     and.b      D5, D0
label000021AC:
000021AC  4885                     ext.w      D5
000021AE  1D73 5000 FFFE           move.b     [A6 - 0x2], [A3 + D5.w]
000021B4  558F                     subq.l     A7, 2
000021B6  A861                     syscall    Random
000021B8  7001                     moveq.l    D0, 0x01
000021BA  C05F                     and.w      D0, [A7]+
000021BC  673A                     beq        +0x3C /* 000021F8 */
000021BE  7001                     moveq.l    D0, 0x01
000021C0  B02E FFFE                cmp.b      D0, [A6 - 0x2]
000021C4  6E32                     bgt        +0x34 /* 000021F8 */
000021C6  7C01                     moveq.l    D6, 0x01
000021C8  558F                     subq.l     A7, 2
000021CA  A861                     syscall    Random
000021CC  7E03                     moveq.l    D7, 0x03
000021CE  CE5F                     and.w      D7, [A7]+
000021D0  6016                     bra        +0x18 /* 000021E8 */
label000021D2:
000021D2  4887                     ext.w      D7
000021D4  1034 7000                move.b     D0, [A4 + D7.w]
000021D8  C005                     and.b      D0, D5
000021DA  6704                     beq        +0x6 /* 000021E0 */
000021DC  4206                     clr.b      D6
000021DE  6008                     bra        +0xA /* 000021E8 */
label000021E0:
000021E0  1007                     move.b     D0, D7
000021E2  5207                     addq.b     D7, 1
000021E4  0207 0003                andi.b     D7, 0x3
label000021E8:
000021E8  4A06                     tst.b      D6
000021EA  66E6                     bne        -0x18 /* 000021D2 */
000021EC  49C7                     lea.l      A4, D7
000021EE  2007                     move.l     D0, D7
000021F0  E388                     lsl        D0, 1
000021F2  3D40 000A                move.w     [A6 + 0xA], D0
000021F6  3800                     move.w     D4, D0
label000021F8:
000021F8  2004                     move.l     D0, D4
000021FA  D040                     add.w      D0, D0
000021FC  204D                     movea.l    A0, A5
000021FE  D1FC FFFE 9F8A           add.l      A0, 0xFFFE9F8A
00002204  1030 0000                move.b     D0, [A0 + D0.w]
00002208  4880                     ext.w      D0
0000220A  D06E 000E                add.w      D0, [A6 + 0xE]
0000220E  3D40 FFF8                move.w     [A6 - 0x8], D0
00002212  2004                     move.l     D0, D4
00002214  D040                     add.w      D0, D0
00002216  204D                     movea.l    A0, A5
00002218  D1FC FFFE 9F8A           add.l      A0, 0xFFFE9F8A
0000221E  1030 0001                move.b     D0, [A0 + D0.w + 0x1]
00002222  4880                     ext.w      D0
00002224  D06E 0012                add.w      D0, [A6 + 0x12]
00002228  3D40 FFFA                move.w     [A6 - 0x6], D0
0000222C  486E FFFA                pea.l      [A6 - 0x6]
00002230  486E FFF8                pea.l      [A6 - 0x8]
00002234  4EBA 37F6                jsr        [PC + 0x37F6 /* 00005A2C */]
00002238  302E FFF8                move.w     D0, [A6 - 0x8]
0000223C  C1FC 00C0                muls.w     D0, 0xC0
00002240  204D                     movea.l    A0, A5
00002242  D1FC FFFE 42D4           add.l      A0, 0xFFFE42D4
00002248  322E FFFA                move.w     D1, [A6 - 0x6]
0000224C  D241                     add.w      D1, D1
0000224E  D240                     add.w      D1, D0
00002250  7000                     moveq.l    D0, 0x00
00002252  3030 1000                move.w     D0, [A0 + D1.w]
00002256  323C 07FF                move.w     D1, 0x7FF
0000225A  C240                     and.w      D1, D0
0000225C  7000                     moveq.l    D0, 0x00
0000225E  3001                     move.w     D0, D1
00002260  4A80                     tst.l      D0
00002262  204D                     movea.l    A0, A5
00002264  D1FC FFFF 794A           add.l      A0, 0xFFFF794A
0000226A  3210                     move.w     D1, [A0]
0000226C  48C1                     ext.l      D1
0000226E  B280                     cmp.l      D1, D0
00002270  504F                     addq.w     A7, 8
00002272  6E4A                     bgt        +0x4C /* 000022BE */
00002274  302E FFF8                move.w     D0, [A6 - 0x8]
00002278  C1FC 00C0                muls.w     D0, 0xC0
0000227C  204D                     movea.l    A0, A5
0000227E  D1FC FFFE 42D4           add.l      A0, 0xFFFE42D4
00002284  322E FFFA                move.w     D1, [A6 - 0x6]
00002288  D241                     add.w      D1, D1
0000228A  D240                     add.w      D1, D0
0000228C  7000                     moveq.l    D0, 0x00
0000228E  3030 1000                move.w     D0, [A0 + D1.w]
00002292  323C 07FF                move.w     D1, 0x7FF
00002296  C240                     and.w      D1, D0
00002298  7000                     moveq.l    D0, 0x00
0000229A  3001                     move.w     D0, D1
0000229C  4A80                     tst.l      D0
0000229E  204D                     movea.l    A0, A5
000022A0  D1FC FFFF 794A           add.l      A0, 0xFFFF794A
000022A6  3210                     move.w     D1, [A0]
000022A8  48C1                     ext.l      D1
000022AA  7400                     moveq.l    D2, 0x00
000022AC  204D                     movea.l    A0, A5
000022AE  D1FC FFFF 78A6           add.l      A0, 0xFFFF78A6
000022B4  1410                     move.b     D2, [A0]
000022B6  D481                     add.l      D2, D1
000022B8  B480                     cmp.l      D2, D0
000022BA  6E00 0130                bgt        +0x132 /* 000023EC */
label000022BE:
000022BE  302E FFF8                move.w     D0, [A6 - 0x8]
000022C2  C1FC 00C0                muls.w     D0, 0xC0
000022C6  204D                     movea.l    A0, A5
000022C8  D1FC FFFE 42D4           add.l      A0, 0xFFFE42D4
000022CE  322E FFFA                move.w     D1, [A6 - 0x6]
000022D2  D241                     add.w      D1, D1
000022D4  D240                     add.w      D1, D0
000022D6  7000                     moveq.l    D0, 0x00
000022D8  3030 1000                move.w     D0, [A0 + D1.w]
000022DC  323C 07FF                move.w     D1, 0x7FF
000022E0  C240                     and.w      D1, D0
000022E2  7000                     moveq.l    D0, 0x00
000022E4  3001                     move.w     D0, D1
000022E6  4A80                     tst.l      D0
000022E8  204D                     movea.l    A0, A5
000022EA  D1FC FFFF 7A42           add.l      A0, 0xFFFF7A42
000022F0  3210                     move.w     D1, [A0]
000022F2  48C1                     ext.l      D1
000022F4  B280                     cmp.l      D1, D0
000022F6  6E4A                     bgt        +0x4C /* 00002342 */
000022F8  302E FFF8                move.w     D0, [A6 - 0x8]
000022FC  C1FC 00C0                muls.w     D0, 0xC0
00002300  204D                     movea.l    A0, A5
00002302  D1FC FFFE 42D4           add.l      A0, 0xFFFE42D4
00002308  322E FFFA                move.w     D1, [A6 - 0x6]
0000230C  D241                     add.w      D1, D1
0000230E  D240                     add.w      D1, D0
00002310  7000                     moveq.l    D0, 0x00
00002312  3030 1000                move.w     D0, [A0 + D1.w]
00002316  323C 07FF                move.w     D1, 0x7FF
0000231A  C240                     and.w      D1, D0
0000231C  7000                     moveq.l    D0, 0x00
0000231E  3001                     move.w     D0, D1
00002320  4A80                     tst.l      D0
00002322  204D                     movea.l    A0, A5
00002324  D1FC FFFF 7A42           add.l      A0, 0xFFFF7A42
0000232A  3210                     move.w     D1, [A0]
0000232C  48C1                     ext.l      D1
0000232E  7400                     moveq.l    D2, 0x00
00002330  204D                     movea.l    A0, A5
00002332  D1FC FFFF 7922           add.l      A0, 0xFFFF7922
00002338  1410                     move.b     D2, [A0]
0000233A  D481                     add.l      D2, D1
0000233C  B480                     cmp.l      D2, D0
0000233E  6E00 00AC                bgt        +0xAE /* 000023EC */
label00002342:
00002342  302E FFF8                move.w     D0, [A6 - 0x8]
00002346  C1FC 00C0                muls.w     D0, 0xC0
0000234A  204D                     movea.l    A0, A5
0000234C  D1FC FFFE 42D4           add.l      A0, 0xFFFE42D4
00002352  322E FFFA                move.w     D1, [A6 - 0x6]
00002356  D241                     add.w      D1, D1
00002358  D240                     add.w      D1, D0
0000235A  7000                     moveq.l    D0, 0x00
0000235C  3030 1000                move.w     D0, [A0 + D1.w]
00002360  323C 07FF                move.w     D1, 0x7FF
00002364  C240                     and.w      D1, D0
00002366  7000                     moveq.l    D0, 0x00
00002368  3001                     move.w     D0, D1
0000236A  4A80                     tst.l      D0
0000236C  204D                     movea.l    A0, A5
0000236E  D1FC FFFF 794C           add.l      A0, 0xFFFF794C
00002374  3210                     move.w     D1, [A0]
00002376  48C1                     ext.l      D1
00002378  B280                     cmp.l      D1, D0
0000237A  6E00 0090                bgt        +0x92 /* 0000240C */
0000237E  302E FFF8                move.w     D0, [A6 - 0x8]
00002382  C1FC 00C0                muls.w     D0, 0xC0
00002386  204D                     movea.l    A0, A5
00002388  D1FC FFFE 42D4           add.l      A0, 0xFFFE42D4
0000238E  322E FFFA                move.w     D1, [A6 - 0x6]
00002392  D241                     add.w      D1, D1
00002394  D240                     add.w      D1, D0
00002396  7000                     moveq.l    D0, 0x00
00002398  3030 1000                move.w     D0, [A0 + D1.w]
0000239C  323C 07FF                move.w     D1, 0x7FF
000023A0  C240                     and.w      D1, D0
000023A2  7000                     moveq.l    D0, 0x00
000023A4  3001                     move.w     D0, D1
000023A6  4A80                     tst.l      D0
000023A8  204D                     movea.l    A0, A5
000023AA  D1FC FFFF 794C           add.l      A0, 0xFFFF794C
000023B0  3210                     move.w     D1, [A0]
000023B2  48C1                     ext.l      D1
000023B4  7400                     moveq.l    D2, 0x00
000023B6  204D                     movea.l    A0, A5
000023B8  D1FC FFFF 78A7           add.l      A0, 0xFFFF78A7
000023BE  1410                     move.b     D2, [A0]
000023C0  D481                     add.l      D2, D1
000023C2  B480                     cmp.l      D2, D0
000023C4  6F46                     ble        +0x48 /* 0000240C */
000023C6  302E FFF8                move.w     D0, [A6 - 0x8]
000023CA  C1FC 00C0                muls.w     D0, 0xC0
000023CE  204D                     movea.l    A0, A5
000023D0  D1FC FFFD FAD4           add.l      A0, 0xFFFDFAD4
000023D6  322E FFFA                move.w     D1, [A6 - 0x6]
000023DA  D241                     add.w      D1, D1
000023DC  D240                     add.w      D1, D0
000023DE  7000                     moveq.l    D0, 0x00
000023E0  3030 1000                move.w     D0, [A0 + D1.w]
000023E4  323C 0800                move.w     D1, 0x800
000023E8  C240                     and.w      D1, D0
000023EA  6620                     bne        +0x22 /* 0000240C */
label000023EC:
000023EC  3D44 000A                move.w     [A6 + 0xA], D4
000023F0  206E 0018                movea.l    A0, [A6 + 0x18]
000023F4  30AE FFFA                move.w     [A0], [A6 - 0x6]
000023F8  206E 0014                movea.l    A0, [A6 + 0x14]
000023FC  30AE FFF8                move.w     [A0], [A6 - 0x8]
00002400  206E 001C                movea.l    A0, [A6 + 0x1C]
00002404  30AE 000A                move.w     [A0], [A6 + 0xA]
00002408  7001                     moveq.l    D0, 0x01
0000240A  6020                     bra        +0x22 /* 0000242C */
label0000240C:
0000240C  5444                     addq.w     D4, 2
0000240E  0244 0007                andi.w     D4, 0x7
00002412  102E FFFF                move.b     D0, [A6 - 0x1]
00002416  522E FFFF                addq.b     [A6 - 0x1], 1
0000241A  B86E 000A                cmp.w      D4, [A6 + 0xA]
0000241E  670A                     beq        +0xC /* 0000242A */
00002420  7004                     moveq.l    D0, 0x04
00002422  B02E FFFF                cmp.b      D0, [A6 - 0x1]
00002426  6C00 FD3A                bge        -0x2C4 /* 00002162 */
label0000242A:
0000242A  7000                     moveq.l    D0, 0x00
label0000242C:
0000242C  4CEE 18F0 FFE0           movem.l    D4,D5,D6,D7,A3,A4, [A6 - 0x20]
00002432  4E5E                     unlink     A6
00002434  4E75                     rts
00002436  9B67 6574 5F6E 6577 5... dc.b       "get_new_car_loc__FsN21PsN24"
fn00002454:
00002454  4E56 0000                link       A6, 0
00002458  48E7 0108                movem.l    -[A7], D7,A4
0000245C  204D                     movea.l    A0, A5
0000245E  D1FC FFFE D21A           add.l      A0, 0xFFFED21A
00002464  49D0                     lea.l      A4, [A0]
00002466  7001                     moveq.l    D0, 0x01
00002468  204D                     movea.l    A0, A5
0000246A  D1FC FFFD CE36           add.l      A0, 0xFFFDCE36
00002470  B090                     cmp.l      D0, [A0]
00002472  6724                     beq        +0x26 /* 00002498 */
00002474  204D                     movea.l    A0, A5
00002476  D1FC FFFD CEBE           add.l      A0, 0xFFFDCEBE
0000247C  2010                     move.l     D0, [A0]
0000247E  204D                     movea.l    A0, A5
00002480  D1FC FFFE D212           add.l      A0, 0xFFFED212
00002486  9090                     sub.l      D0, [A0]
00002488  204D                     movea.l    A0, A5
0000248A  D1FC FFFD CE36           add.l      A0, 0xFFFDCE36
00002490  B090                     cmp.l      D0, [A0]
00002492  6404                     bcc        +0x6 /* 00002498 */
00002494  7000                     moveq.l    D0, 0x00
00002496  603C                     bra        +0x3E /* 000024D4 */
label00002498:
00002498  4247                     clr.w      D7
0000249A  601A                     bra        +0x1C /* 000024B6 */
label0000249C:
0000249C  1034 7600                move.b     D0, [A4 + D7.w * 8]
000024A0  0800 0000                btst.b     D0, 0x0
000024A4  670C                     beq        +0xE /* 000024B2 */
000024A6  1007                     move.b     D0, D7
000024A8  49C0                     lea.l      A4, D0
000024AA  2F00                     move.l     -[A7], D0
000024AC  4EBA F85C                jsr        [PC - 0x7A4 /* 00001D0A */]
000024B0  584F                     addq.w     A7, 4
label000024B2:
000024B2  3007                     move.w     D0, D7
000024B4  5247                     addq.w     D7, 1
label000024B6:
000024B6  7000                     moveq.l    D0, 0x00
000024B8  3007                     move.w     D0, D7
000024BA  0C40 0010                cmpi.w     D0, 0x10
000024BE  65DC                     bcs        -0x22 /* 0000249C */
000024C0  204D                     movea.l    A0, A5
000024C2  D1FC FFFD CEBE           add.l      A0, 0xFFFDCEBE
000024C8  224D                     movea.l    A1, A5
000024CA  D3FC FFFE D212           add.l      A1, 0xFFFED212
000024D0  2290                     move.l     [A1], [A0]
000024D2  7000                     moveq.l    D0, 0x00
label000024D4:
000024D4  4CEE 1080 FFF8           movem.l    D7,A4, [A6 - 0x8]
000024DA  4E5E                     unlink     A6
000024DC  4E75                     rts
000024DE  8B73 696D 6361 7273 5... dc.b       "simcars__Fv"
fn000024EC:
000024EC  4E56 0000                link       A6, 0
000024F0  7000                     moveq.l    D0, 0x00
000024F2  4E5E                     unlink     A6
000024F4  4E75                     rts
000024F6  9073 696D 686F 6D65 7... dc.b       "simhomestead__Fv"
fn0000250A:
0000250A  4E56 FFD6                link       A6, -0x002A
0000250E  48E7 1F18                movem.l    -[A7], D3,D4,D5,D6,D7,A3,A4
00002512  182E 000B                move.b     D4, [A6 + 0xB]
00002516  204D                     movea.l    A0, A5
00002518  D1FC FFFE FC02           add.l      A0, 0xFFFEFC02
0000251E  4A10                     tst.b      [A0]
00002520  6606                     bne        +0x8 /* 00002528 */
00002522  7000                     moveq.l    D0, 0x00
00002524  6000 076E                bra        +0x770 /* 00002C94 */
label00002528:
00002528  7000                     moveq.l    D0, 0x00
0000252A  2F00                     move.l     -[A7], D0
0000252C  2F00                     move.l     -[A7], D0
0000252E  486E FFE2                pea.l      [A6 - 0x1E]
00002532  4EAD 1772                jsr        [A5 + 0x1772 /* export_746, CODE:32 @ 00004CE0 */]
00002536  1004                     move.b     D0, D4
00002538  4FEF 000C                lea.l      A7, [A7 + 0xC]
0000253C  670C                     beq        +0xE /* 0000254A */
0000253E  5300                     subq.b     D0, 1
00002540  6736                     beq        +0x38 /* 00002578 */
00002542  5300                     subq.b     D0, 1
00002544  6760                     beq        +0x62 /* 000025A6 */
00002546  6000 008A                bra        +0x8C /* 000025D2 */
label0000254A:
0000254A  486E FFE2                pea.l      [A6 - 0x1E]
0000254E  4EAD 1782                jsr        [A5 + 0x1782 /* export_748, CODE:32 @ 00004E1E */]
00002552  4205                     clr.b      D5
00002554  7000                     moveq.l    D0, 0x00
00002556  1005                     move.b     D0, D5
00002558  2F00                     move.l     -[A7], D0
0000255A  2F2E FFF6                move.l     -[A7], [A6 - 0xA]
0000255E  204D                     movea.l    A0, A5
00002560  D1FC FFFE D110           add.l      A0, 0xFFFED110
00002566  4850                     pea.l      [A0]
00002568  486E FFE2                pea.l      [A6 - 0x1E]
0000256C  4EAD 178A                jsr        [A5 + 0x178A /* export_749, CODE:32 @ 00004E80 */]
00002570  4FEF 0014                lea.l      A7, [A7 + 0x14]
00002574  6000 00BC                bra        +0xBE /* 00002632 */
label00002578:
00002578  486E FFE2                pea.l      [A6 - 0x1E]
0000257C  4EAD 1782                jsr        [A5 + 0x1782 /* export_748, CODE:32 @ 00004E1E */]
00002580  4205                     clr.b      D5
00002582  7000                     moveq.l    D0, 0x00
00002584  1005                     move.b     D0, D5
00002586  2F00                     move.l     -[A7], D0
00002588  2F2E FFF6                move.l     -[A7], [A6 - 0xA]
0000258C  204D                     movea.l    A0, A5
0000258E  D1FC FFFE D11A           add.l      A0, 0xFFFED11A
00002594  4850                     pea.l      [A0]
00002596  486E FFE2                pea.l      [A6 - 0x1E]
0000259A  4EAD 178A                jsr        [A5 + 0x178A /* export_749, CODE:32 @ 00004E80 */]
0000259E  4FEF 0014                lea.l      A7, [A7 + 0x14]
000025A2  6000 008E                bra        +0x90 /* 00002632 */
label000025A6:
000025A6  486E FFE2                pea.l      [A6 - 0x1E]
000025AA  4EAD 1782                jsr        [A5 + 0x1782 /* export_748, CODE:32 @ 00004E1E */]
000025AE  4205                     clr.b      D5
000025B0  7000                     moveq.l    D0, 0x00
000025B2  1005                     move.b     D0, D5
000025B4  2F00                     move.l     -[A7], D0
000025B6  2F2E FFF6                move.l     -[A7], [A6 - 0xA]
000025BA  204D                     movea.l    A0, A5
000025BC  D1FC FFFE D122           add.l      A0, 0xFFFED122
000025C2  4850                     pea.l      [A0]
000025C4  486E FFE2                pea.l      [A6 - 0x1E]
000025C8  4EAD 178A                jsr        [A5 + 0x178A /* export_749, CODE:32 @ 00004E80 */]
000025CC  4FEF 0014                lea.l      A7, [A7 + 0x14]
000025D0  6060                     bra        +0x62 /* 00002632 */
label000025D2:
000025D2  486E FFE2                pea.l      [A6 - 0x1E]
000025D6  4EAD 1782                jsr        [A5 + 0x1782 /* export_748, CODE:32 @ 00004E1E */]
000025DA  4205                     clr.b      D5
000025DC  7000                     moveq.l    D0, 0x00
000025DE  1005                     move.b     D0, D5
000025E0  2F00                     move.l     -[A7], D0
000025E2  2F2E FFF6                move.l     -[A7], [A6 - 0xA]
000025E6  204D                     movea.l    A0, A5
000025E8  D1FC FFFE D12C           add.l      A0, 0xFFFED12C
000025EE  4850                     pea.l      [A0]
000025F0  486E FFE2                pea.l      [A6 - 0x1E]
000025F4  4EAD 178A                jsr        [A5 + 0x178A /* export_749, CODE:32 @ 00004E80 */]
000025F8  49C4                     lea.l      A4, D4
000025FA  2F04                     move.l     -[A7], D4
000025FC  486E FFE2                pea.l      [A6 - 0x1E]
00002600  4EAD 17FA                jsr        [A5 + 0x17FA /* export_763, CODE:32 @ 000057BC */]
00002604  486E FFE2                pea.l      [A6 - 0x1E]
00002608  4EAD 1792                jsr        [A5 + 0x1792 /* export_750, CODE:32 @ 000050C2 */]
0000260C  224D                     movea.l    A1, A5
0000260E  D3FC FFFF FB4A           add.l      A1, 0xFFFFFB4A
00002614  41D1                     lea.l      A0, [A1]
00002616  588F                     addq.l     A7, 4
00002618  2F08                     move.l     -[A7], A0
0000261A  ABFF                     syscall    DebugStr
0000261C  7002                     moveq.l    D0, 0x02
0000261E  2F00                     move.l     -[A7], D0
00002620  486E FFE2                pea.l      [A6 - 0x1E]
00002624  4EAD 177A                jsr        [A5 + 0x177A /* export_747, CODE:32 @ 00004DBC */]
00002628  7000                     moveq.l    D0, 0x00
0000262A  4FEF 0024                lea.l      A7, [A7 + 0x24]
0000262E  6000 0664                bra        +0x666 /* 00002C94 */
label00002632:
00002632  42AE FFDA                clr.l      [A6 - 0x26]
00002636  42AE FFD6                clr.l      [A6 - 0x2A]
0000263A  598F                     subq.l     A7, 4
0000263C  2F3C 5049 4354           move.l     -[A7], 0x50494354 /* 'PICT' */
00002642  486E FFE2                pea.l      [A6 - 0x1E]
00002646  4EAD 1792                jsr        [A5 + 0x1792 /* export_750, CODE:32 @ 000050C2 */]
0000264A  224D                     movea.l    A1, A5
0000264C  D3FC FFFF FB4A           add.l      A1, 0xFFFFFB4A
00002652  41D1                     lea.l      A0, [A1]
00002654  588F                     addq.l     A7, 4
00002656  2F08                     move.l     -[A7], A0
00002658  A9A1                     syscall    GetNamedResource
0000265A  265F                     movea.l    A3, [A7]+
0000265C  200B                     move.l     D0, A3
0000265E  6768                     beq        +0x6A /* 000026C8 */
00002660  204B                     movea.l    A0, A3
00002662  A064                     syscall    MoveHHi
00002664  A029                     syscall    HLock
00002666  2053                     movea.l    A0, [A3]
00002668  43EE FFD6                lea.l      A1, [A6 - 0x2A]
0000266C  5488                     addq.l     A0, 2
0000266E  22D8                     move.l     [A1]+, [A0]+
00002670  22D8                     move.l     [A1]+, [A0]+
00002672  486E FFD6                pea.l      [A6 - 0x2A]
00002676  302E FFD8                move.w     D0, [A6 - 0x28]
0000267A  48C0                     ext.l      D0
0000267C  4480                     neg.l      D0
0000267E  3F00                     move.w     -[A7], D0
00002680  302E FFD6                move.w     D0, [A6 - 0x2A]
00002684  48C0                     ext.l      D0
00002686  4480                     neg.l      D0
00002688  3F00                     move.w     -[A7], D0
0000268A  A8A8                     syscall    OffsetRect
0000268C  204D                     movea.l    A0, A5
0000268E  D1FC FFFF 2042           add.l      A0, 0xFFFF2042
00002694  4A90                     tst.l      [A0]
00002696  672A                     beq        +0x2C /* 000026C2 */
00002698  486E FFD6                pea.l      [A6 - 0x2A]
0000269C  2F0B                     move.l     -[A7], A3
0000269E  7000                     moveq.l    D0, 0x00
000026A0  204D                     movea.l    A0, A5
000026A2  D1FC FFFF 7A68           add.l      A0, 0xFFFF7A68
000026A8  3010                     move.w     D0, [A0]
000026AA  2F00                     move.l     -[A7], D0
000026AC  224D                     movea.l    A1, A5
000026AE  D3FC FFFF 2042           add.l      A1, 0xFFFF2042
000026B4  2051                     movea.l    A0, [A1]
000026B6  2F28 01E0                move.l     -[A7], [A0 + 0x1E0]
000026BA  4EAD 1B12                jsr        [A5 + 0x1B12 /* export_862, CODE:34 @ 0000374A */]
000026BE  4FEF 0010                lea.l      A7, [A7 + 0x10]
label000026C2:
000026C2  2F0B                     move.l     -[A7], A3
000026C4  A9A3                     syscall    ReleaseResource
000026C6  6020                     bra        +0x22 /* 000026E8 */
label000026C8:
000026C8  204D                     movea.l    A0, A5
000026CA  D1FC FFFE D14E           add.l      A0, 0xFFFED14E
000026D0  4850                     pea.l      [A0]
000026D2  ABFF                     syscall    DebugStr
000026D4  7002                     moveq.l    D0, 0x02
000026D6  2F00                     move.l     -[A7], D0
000026D8  486E FFE2                pea.l      [A6 - 0x1E]
000026DC  4EAD 177A                jsr        [A5 + 0x177A /* export_747, CODE:32 @ 00004DBC */]
000026E0  7000                     moveq.l    D0, 0x00
000026E2  504F                     addq.w     A7, 8
000026E4  6000 05AE                bra        +0x5B0 /* 00002C94 */
label000026E8:
000026E8  7001                     moveq.l    D0, 0x01
000026EA  204D                     movea.l    A0, A5
000026EC  D1FC FFFE D2CC           add.l      A0, 0xFFFED2CC
000026F2  B010                     cmp.b      D0, [A0]
000026F4  6600 0122                bne        +0x124 /* 00002818 */
000026F8  4205                     clr.b      D5
000026FA  6000 010A                bra        +0x10C /* 00002806 */
label000026FE:
000026FE  4885                     ext.w      D5
00002700  204D                     movea.l    A0, A5
00002702  D1FC FFFE FBFA           add.l      A0, 0xFFFEFBFA
00002708  7C00                     moveq.l    D6, 0x00
0000270A  1C30 5000                move.b     D6, [A0 + D5.w]
0000270E  4885                     ext.w      D5
00002710  204D                     movea.l    A0, A5
00002712  D1FC FFFE FBF2           add.l      A0, 0xFFFEFBF2
00002718  7E00                     moveq.l    D7, 0x00
0000271A  1E30 5000                move.b     D7, [A0 + D5.w]
0000271E  5446                     addq.w     D6, 2
00002720  5647                     addq.w     D7, 3
00002722  2006                     move.l     D0, D6
00002724  C1FC 00C0                muls.w     D0, 0xC0
00002728  204D                     movea.l    A0, A5
0000272A  D1FC FFFE 42D4           add.l      A0, 0xFFFE42D4
00002730  2207                     move.l     D1, D7
00002732  D241                     add.w      D1, D1
00002734  D240                     add.w      D1, D0
00002736  0270 F7FF 1000           andi.w     [A0 + D1.w], 0xF7FF
0000273C  48C6                     ext.l      D6
0000273E  2006                     move.l     D0, D6
00002740  C1FC 00C0                muls.w     D0, 0xC0
00002744  204D                     movea.l    A0, A5
00002746  D1FC FFFE 4394           add.l      A0, 0xFFFE4394
0000274C  2207                     move.l     D1, D7
0000274E  D241                     add.w      D1, D1
00002750  D240                     add.w      D1, D0
00002752  0270 F7FF 1000           andi.w     [A0 + D1.w], 0xF7FF
00002758  48C7                     ext.l      D7
0000275A  2006                     move.l     D0, D6
0000275C  C1FC 00C0                muls.w     D0, 0xC0
00002760  204D                     movea.l    A0, A5
00002762  D1FC FFFE 42D4           add.l      A0, 0xFFFE42D4
00002768  2207                     move.l     D1, D7
0000276A  D241                     add.w      D1, D1
0000276C  D240                     add.w      D1, D0
0000276E  0270 F7FF 1002           andi.w     [A0 + D1.w + 0x2], 0xF7FF
00002774  48C7                     ext.l      D7
00002776  48C6                     ext.l      D6
00002778  2006                     move.l     D0, D6
0000277A  C1FC 00C0                muls.w     D0, 0xC0
0000277E  204D                     movea.l    A0, A5
00002780  D1FC FFFE 4394           add.l      A0, 0xFFFE4394
00002786  2207                     move.l     D1, D7
00002788  D241                     add.w      D1, D1
0000278A  D240                     add.w      D1, D0
0000278C  0270 F7FF 1002           andi.w     [A0 + D1.w + 0x2], 0xF7FF
00002792  2006                     move.l     D0, D6
00002794  C1FC 00C0                muls.w     D0, 0xC0
00002798  204D                     movea.l    A0, A5
0000279A  D1FC FFFE 42D4           add.l      A0, 0xFFFE42D4
000027A0  2207                     move.l     D1, D7
000027A2  D241                     add.w      D1, D1
000027A4  D240                     add.w      D1, D0
000027A6  0270 BFFF 1000           andi.w     [A0 + D1.w], 0xBFFF
000027AC  48C6                     ext.l      D6
000027AE  2006                     move.l     D0, D6
000027B0  C1FC 00C0                muls.w     D0, 0xC0
000027B4  204D                     movea.l    A0, A5
000027B6  D1FC FFFE 4394           add.l      A0, 0xFFFE4394
000027BC  2207                     move.l     D1, D7
000027BE  D241                     add.w      D1, D1
000027C0  D240                     add.w      D1, D0
000027C2  0270 BFFF 1000           andi.w     [A0 + D1.w], 0xBFFF
000027C8  48C7                     ext.l      D7
000027CA  2006                     move.l     D0, D6
000027CC  C1FC 00C0                muls.w     D0, 0xC0
000027D0  204D                     movea.l    A0, A5
000027D2  D1FC FFFE 42D4           add.l      A0, 0xFFFE42D4
000027D8  2207                     move.l     D1, D7
000027DA  D241                     add.w      D1, D1
000027DC  D240                     add.w      D1, D0
000027DE  0270 BFFF 1002           andi.w     [A0 + D1.w + 0x2], 0xBFFF
000027E4  48C7                     ext.l      D7
000027E6  48C6                     ext.l      D6
000027E8  2006                     move.l     D0, D6
000027EA  C1FC 00C0                muls.w     D0, 0xC0
000027EE  204D                     movea.l    A0, A5
000027F0  D1FC FFFE 4394           add.l      A0, 0xFFFE4394
000027F6  2207                     move.l     D1, D7
000027F8  D241                     add.w      D1, D1
000027FA  D240                     add.w      D1, D0
000027FC  0270 BFFF 1002           andi.w     [A0 + D1.w + 0x2], 0xBFFF
00002802  1005                     move.b     D0, D5
00002804  5205                     addq.b     D5, 1
label00002806:
00002806  204D                     movea.l    A0, A5
00002808  D1FC FFFE FC02           add.l      A0, 0xFFFEFC02
0000280E  BA10                     cmp.b      D5, [A0]
00002810  6D00 FEEC                blt        -0x112 /* 000026FE */
00002814  6000 0200                bra        +0x202 /* 00002A16 */
label00002818:
00002818  7002                     moveq.l    D0, 0x02
0000281A  204D                     movea.l    A0, A5
0000281C  D1FC FFFE D2CC           add.l      A0, 0xFFFED2CC
00002822  B010                     cmp.b      D0, [A0]
00002824  6600 01F0                bne        +0x1F2 /* 00002A16 */
00002828  4205                     clr.b      D5
0000282A  6000 01DC                bra        +0x1DE /* 00002A08 */
label0000282E:
0000282E  4885                     ext.w      D5
00002830  204D                     movea.l    A0, A5
00002832  D1FC FFFE FBFA           add.l      A0, 0xFFFEFBFA
00002838  7000                     moveq.l    D0, 0x00
0000283A  1030 5000                move.b     D0, [A0 + D5.w]
0000283E  3C00                     move.w     D6, D0
00002840  5246                     addq.w     D6, 1
00002842  4885                     ext.w      D5
00002844  204D                     movea.l    A0, A5
00002846  D1FC FFFE FBF2           add.l      A0, 0xFFFEFBF2
0000284C  7000                     moveq.l    D0, 0x00
0000284E  1030 5000                move.b     D0, [A0 + D5.w]
00002852  3E00                     move.w     D7, D0
00002854  5247                     addq.w     D7, 1
00002856  204D                     movea.l    A0, A5
00002858  D1FC FFFF 7A68           add.l      A0, 0xFFFF7A68
0000285E  3010                     move.w     D0, [A0]
00002860  48C0                     ext.l      D0
00002862  7209                     moveq.l    D1, 0x09
00002864  D081                     add.l      D0, D1
00002866  48C7                     ext.l      D7
00002868  48C6                     ext.l      D6
0000286A  2406                     move.l     D2, D6
0000286C  C5FC 00C0                muls.w     D2, 0xC0
00002870  204D                     movea.l    A0, A5
00002872  D1FC FFFE 4454           add.l      A0, 0xFFFE4454
00002878  2607                     move.l     D3, D7
0000287A  D643                     add.w      D3, D3
0000287C  D642                     add.w      D3, D2
0000287E  3180 3002                move.w     [A0 + D3.w + 0x2], D0
00002882  204D                     movea.l    A0, A5
00002884  D1FC FFFF 7A68           add.l      A0, 0xFFFF7A68
0000288A  3010                     move.w     D0, [A0]
0000288C  48C0                     ext.l      D0
0000288E  5280                     addq.l     D0, 1
00002890  48C6                     ext.l      D6
00002892  2406                     move.l     D2, D6
00002894  C5FC 00C0                muls.w     D2, 0xC0
00002898  204D                     movea.l    A0, A5
0000289A  D1FC FFFE 4394           add.l      A0, 0xFFFE4394
000028A0  2607                     move.l     D3, D7
000028A2  D643                     add.w      D3, D3
000028A4  D642                     add.w      D3, D2
000028A6  3180 3000                move.w     [A0 + D3.w], D0
000028AA  204D                     movea.l    A0, A5
000028AC  D1FC FFFF 7A68           add.l      A0, 0xFFFF7A68
000028B2  3010                     move.w     D0, [A0]
000028B4  48C0                     ext.l      D0
000028B6  740E                     moveq.l    D2, 0x0E
000028B8  D082                     add.l      D0, D2
000028BA  48C7                     ext.l      D7
000028BC  2606                     move.l     D3, D6
000028BE  C7FC 00C0                muls.w     D3, 0xC0
000028C2  204D                     movea.l    A0, A5
000028C4  D1FC FFFE 42D4           add.l      A0, 0xFFFE42D4
000028CA  2207                     move.l     D1, D7
000028CC  D241                     add.w      D1, D1
000028CE  D243                     add.w      D1, D3
000028D0  3180 1004                move.w     [A0 + D1.w + 0x4], D0
000028D4  204D                     movea.l    A0, A5
000028D6  D1FC FFFF 7A68           add.l      A0, 0xFFFF7A68
000028DC  3010                     move.w     D0, [A0]
000028DE  48C0                     ext.l      D0
000028E0  721C                     moveq.l    D1, 0x1C
000028E2  D081                     add.l      D0, D1
000028E4  48C7                     ext.l      D7
000028E6  2606                     move.l     D3, D6
000028E8  C7FC 00C0                muls.w     D3, 0xC0
000028EC  204D                     movea.l    A0, A5
000028EE  D1FC FFFE 42D4           add.l      A0, 0xFFFE42D4
000028F4  2207                     move.l     D1, D7
000028F6  D241                     add.w      D1, D1
000028F8  D243                     add.w      D1, D3
000028FA  3180 1008                move.w     [A0 + D1.w + 0x8], D0
000028FE  204D                     movea.l    A0, A5
00002900  D1FC FFFF 7A68           add.l      A0, 0xFFFF7A68
00002906  3010                     move.w     D0, [A0]
00002908  48C0                     ext.l      D0
0000290A  7210                     moveq.l    D1, 0x10
0000290C  D081                     add.l      D0, D1
0000290E  48C7                     ext.l      D7
00002910  48C6                     ext.l      D6
00002912  2606                     move.l     D3, D6
00002914  C7FC 00C0                muls.w     D3, 0xC0
00002918  204D                     movea.l    A0, A5
0000291A  D1FC FFFE 4454           add.l      A0, 0xFFFE4454
00002920  2207                     move.l     D1, D7
00002922  D241                     add.w      D1, D1
00002924  D243                     add.w      D1, D3
00002926  3180 1004                move.w     [A0 + D1.w + 0x4], D0
0000292A  204D                     movea.l    A0, A5
0000292C  D1FC FFFF 7A68           add.l      A0, 0xFFFF7A68
00002932  3010                     move.w     D0, [A0]
00002934  48C0                     ext.l      D0
00002936  720B                     moveq.l    D1, 0x0B
00002938  D081                     add.l      D0, D1
0000293A  48C7                     ext.l      D7
0000293C  48C6                     ext.l      D6
0000293E  2606                     move.l     D3, D6
00002940  C7FC 00C0                muls.w     D3, 0xC0
00002944  204D                     movea.l    A0, A5
00002946  D1FC FFFE 45D4           add.l      A0, 0xFFFE45D4
0000294C  2207                     move.l     D1, D7
0000294E  D241                     add.w      D1, D1
00002950  D243                     add.w      D1, D3
00002952  3180 1002                move.w     [A0 + D1.w + 0x2], D0
00002956  48C7                     ext.l      D7
00002958  48C6                     ext.l      D6
0000295A  2006                     move.l     D0, D6
0000295C  C1FC 00C0                muls.w     D0, 0xC0
00002960  204D                     movea.l    A0, A5
00002962  D1FC FFFE 4454           add.l      A0, 0xFFFE4454
00002968  2207                     move.l     D1, D7
0000296A  D241                     add.w      D1, D1
0000296C  D240                     add.w      D1, D0
0000296E  0270 BFFF 1002           andi.w     [A0 + D1.w + 0x2], 0xBFFF
00002974  48C6                     ext.l      D6
00002976  2006                     move.l     D0, D6
00002978  C1FC 00C0                muls.w     D0, 0xC0
0000297C  204D                     movea.l    A0, A5
0000297E  D1FC FFFE 4394           add.l      A0, 0xFFFE4394
00002984  2207                     move.l     D1, D7
00002986  D241                     add.w      D1, D1
00002988  D240                     add.w      D1, D0
0000298A  0270 BFFF 1000           andi.w     [A0 + D1.w], 0xBFFF
00002990  48C7                     ext.l      D7
00002992  2006                     move.l     D0, D6
00002994  C1FC 00C0                muls.w     D0, 0xC0
00002998  204D                     movea.l    A0, A5
0000299A  D1FC FFFE 42D4           add.l      A0, 0xFFFE42D4
000029A0  2207                     move.l     D1, D7
000029A2  D241                     add.w      D1, D1
000029A4  D240                     add.w      D1, D0
000029A6  0270 BFFF 1004           andi.w     [A0 + D1.w + 0x4], 0xBFFF
000029AC  48C7                     ext.l      D7
000029AE  2006                     move.l     D0, D6
000029B0  C1FC 00C0                muls.w     D0, 0xC0
000029B4  204D                     movea.l    A0, A5
000029B6  D1FC FFFE 42D4           add.l      A0, 0xFFFE42D4
000029BC  2207                     move.l     D1, D7
000029BE  D241                     add.w      D1, D1
000029C0  D240                     add.w      D1, D0
000029C2  0270 BFFF 1008           andi.w     [A0 + D1.w + 0x8], 0xBFFF
000029C8  48C7                     ext.l      D7
000029CA  48C6                     ext.l      D6
000029CC  2006                     move.l     D0, D6
000029CE  C1FC 00C0                muls.w     D0, 0xC0
000029D2  204D                     movea.l    A0, A5
000029D4  D1FC FFFE 4454           add.l      A0, 0xFFFE4454
000029DA  2207                     move.l     D1, D7
000029DC  D241                     add.w      D1, D1
000029DE  D240                     add.w      D1, D0
000029E0  0270 BFFF 1004           andi.w     [A0 + D1.w + 0x4], 0xBFFF
000029E6  48C7                     ext.l      D7
000029E8  48C6                     ext.l      D6
000029EA  2006                     move.l     D0, D6
000029EC  C1FC 00C0                muls.w     D0, 0xC0
000029F0  204D                     movea.l    A0, A5
000029F2  D1FC FFFE 45D4           add.l      A0, 0xFFFE45D4
000029F8  2207                     move.l     D1, D7
000029FA  D241                     add.w      D1, D1
000029FC  D240                     add.w      D1, D0
000029FE  0270 BFFF 1002           andi.w     [A0 + D1.w + 0x2], 0xBFFF
00002A04  1005                     move.b     D0, D5
00002A06  5205                     addq.b     D5, 1
label00002A08:
00002A08  204D                     movea.l    A0, A5
00002A0A  D1FC FFFE FC02           add.l      A0, 0xFFFEFC02
00002A10  BA10                     cmp.b      D5, [A0]
00002A12  6D00 FE1A                blt        -0x1E4 /* 0000282E */
label00002A16:
00002A16  4A04                     tst.b      D4
00002A18  6600 01F0                bne        +0x1F2 /* 00002C0A */
00002A1C  4205                     clr.b      D5
00002A1E  6000 01DC                bra        +0x1DE /* 00002BFC */
label00002A22:
00002A22  4885                     ext.w      D5
00002A24  204D                     movea.l    A0, A5
00002A26  D1FC FFFE FBFA           add.l      A0, 0xFFFEFBFA
00002A2C  7000                     moveq.l    D0, 0x00
00002A2E  1030 5000                move.b     D0, [A0 + D5.w]
00002A32  3C00                     move.w     D6, D0
00002A34  5246                     addq.w     D6, 1
00002A36  4885                     ext.w      D5
00002A38  204D                     movea.l    A0, A5
00002A3A  D1FC FFFE FBF2           add.l      A0, 0xFFFEFBF2
00002A40  7000                     moveq.l    D0, 0x00
00002A42  1030 5000                move.b     D0, [A0 + D5.w]
00002A46  3E00                     move.w     D7, D0
00002A48  5247                     addq.w     D7, 1
00002A4A  204D                     movea.l    A0, A5
00002A4C  D1FC FFFF 7A68           add.l      A0, 0xFFFF7A68
00002A52  3010                     move.w     D0, [A0]
00002A54  48C0                     ext.l      D0
00002A56  7209                     moveq.l    D1, 0x09
00002A58  D081                     add.l      D0, D1
00002A5A  48C7                     ext.l      D7
00002A5C  48C6                     ext.l      D6
00002A5E  2406                     move.l     D2, D6
00002A60  C5FC 00C0                muls.w     D2, 0xC0
00002A64  204D                     movea.l    A0, A5
00002A66  D1FC FFFE 4454           add.l      A0, 0xFFFE4454
00002A6C  2607                     move.l     D3, D7
00002A6E  D643                     add.w      D3, D3
00002A70  D642                     add.w      D3, D2
00002A72  3180 3002                move.w     [A0 + D3.w + 0x2], D0
00002A76  204D                     movea.l    A0, A5
00002A78  D1FC FFFF 7A68           add.l      A0, 0xFFFF7A68
00002A7E  3010                     move.w     D0, [A0]
00002A80  48C0                     ext.l      D0
00002A82  5280                     addq.l     D0, 1
00002A84  48C6                     ext.l      D6
00002A86  2406                     move.l     D2, D6
00002A88  C5FC 00C0                muls.w     D2, 0xC0
00002A8C  204D                     movea.l    A0, A5
00002A8E  D1FC FFFE 4394           add.l      A0, 0xFFFE4394
00002A94  2607                     move.l     D3, D7
00002A96  D643                     add.w      D3, D3
00002A98  D642                     add.w      D3, D2
00002A9A  3180 3000                move.w     [A0 + D3.w], D0
00002A9E  204D                     movea.l    A0, A5
00002AA0  D1FC FFFF 7A68           add.l      A0, 0xFFFF7A68
00002AA6  3010                     move.w     D0, [A0]
00002AA8  48C0                     ext.l      D0
00002AAA  740E                     moveq.l    D2, 0x0E
00002AAC  D082                     add.l      D0, D2
00002AAE  48C7                     ext.l      D7
00002AB0  2606                     move.l     D3, D6
00002AB2  C7FC 00C0                muls.w     D3, 0xC0
00002AB6  204D                     movea.l    A0, A5
00002AB8  D1FC FFFE 42D4           add.l      A0, 0xFFFE42D4
00002ABE  2207                     move.l     D1, D7
00002AC0  D241                     add.w      D1, D1
00002AC2  D243                     add.w      D1, D3
00002AC4  3180 1004                move.w     [A0 + D1.w + 0x4], D0
00002AC8  204D                     movea.l    A0, A5
00002ACA  D1FC FFFF 7A68           add.l      A0, 0xFFFF7A68
00002AD0  3010                     move.w     D0, [A0]
00002AD2  48C0                     ext.l      D0
00002AD4  721C                     moveq.l    D1, 0x1C
00002AD6  D081                     add.l      D0, D1
00002AD8  48C7                     ext.l      D7
00002ADA  2606                     move.l     D3, D6
00002ADC  C7FC 00C0                muls.w     D3, 0xC0
00002AE0  204D                     movea.l    A0, A5
00002AE2  D1FC FFFE 42D4           add.l      A0, 0xFFFE42D4
00002AE8  2207                     move.l     D1, D7
00002AEA  D241                     add.w      D1, D1
00002AEC  D243                     add.w      D1, D3
00002AEE  3180 1008                move.w     [A0 + D1.w + 0x8], D0
00002AF2  204D                     movea.l    A0, A5
00002AF4  D1FC FFFF 7A68           add.l      A0, 0xFFFF7A68
00002AFA  3010                     move.w     D0, [A0]
00002AFC  48C0                     ext.l      D0
00002AFE  7210                     moveq.l    D1, 0x10
00002B00  D081                     add.l      D0, D1
00002B02  48C7                     ext.l      D7
00002B04  48C6                     ext.l      D6
00002B06  2606                     move.l     D3, D6
00002B08  C7FC 00C0                muls.w     D3, 0xC0
00002B0C  204D                     movea.l    A0, A5
00002B0E  D1FC FFFE 4454           add.l      A0, 0xFFFE4454
00002B14  2207                     move.l     D1, D7
00002B16  D241                     add.w      D1, D1
00002B18  D243                     add.w      D1, D3
00002B1A  3180 1004                move.w     [A0 + D1.w + 0x4], D0
00002B1E  204D                     movea.l    A0, A5
00002B20  D1FC FFFF 7A68           add.l      A0, 0xFFFF7A68
00002B26  3010                     move.w     D0, [A0]
00002B28  48C0                     ext.l      D0
00002B2A  720B                     moveq.l    D1, 0x0B
00002B2C  D081                     add.l      D0, D1
00002B2E  48C7                     ext.l      D7
00002B30  48C6                     ext.l      D6
00002B32  2606                     move.l     D3, D6
00002B34  C7FC 00C0                muls.w     D3, 0xC0
00002B38  204D                     movea.l    A0, A5
00002B3A  D1FC FFFE 45D4           add.l      A0, 0xFFFE45D4
00002B40  2207                     move.l     D1, D7
00002B42  D241                     add.w      D1, D1
00002B44  D243                     add.w      D1, D3
00002B46  3180 1002                move.w     [A0 + D1.w + 0x2], D0
00002B4A  48C7                     ext.l      D7
00002B4C  48C6                     ext.l      D6
00002B4E  2006                     move.l     D0, D6
00002B50  C1FC 00C0                muls.w     D0, 0xC0
00002B54  204D                     movea.l    A0, A5
00002B56  D1FC FFFE 4454           add.l      A0, 0xFFFE4454
00002B5C  2207                     move.l     D1, D7
00002B5E  D241                     add.w      D1, D1
00002B60  D240                     add.w      D1, D0
00002B62  0270 BFFF 1002           andi.w     [A0 + D1.w + 0x2], 0xBFFF
00002B68  48C6                     ext.l      D6
00002B6A  2006                     move.l     D0, D6
00002B6C  C1FC 00C0                muls.w     D0, 0xC0
00002B70  204D                     movea.l    A0, A5
00002B72  D1FC FFFE 4394           add.l      A0, 0xFFFE4394
00002B78  2207                     move.l     D1, D7
00002B7A  D241                     add.w      D1, D1
00002B7C  D240                     add.w      D1, D0
00002B7E  0270 BFFF 1000           andi.w     [A0 + D1.w], 0xBFFF
00002B84  48C7                     ext.l      D7
00002B86  2006                     move.l     D0, D6
00002B88  C1FC 00C0                muls.w     D0, 0xC0
00002B8C  204D                     movea.l    A0, A5
00002B8E  D1FC FFFE 42D4           add.l      A0, 0xFFFE42D4
00002B94  2207                     move.l     D1, D7
00002B96  D241                     add.w      D1, D1
00002B98  D240                     add.w      D1, D0
00002B9A  0270 BFFF 1004           andi.w     [A0 + D1.w + 0x4], 0xBFFF
00002BA0  48C7                     ext.l      D7
00002BA2  2006                     move.l     D0, D6
00002BA4  C1FC 00C0                muls.w     D0, 0xC0
00002BA8  204D                     movea.l    A0, A5
00002BAA  D1FC FFFE 42D4           add.l      A0, 0xFFFE42D4
00002BB0  2207                     move.l     D1, D7
00002BB2  D241                     add.w      D1, D1
00002BB4  D240                     add.w      D1, D0
00002BB6  0270 BFFF 1008           andi.w     [A0 + D1.w + 0x8], 0xBFFF
00002BBC  48C7                     ext.l      D7
00002BBE  48C6                     ext.l      D6
00002BC0  2006                     move.l     D0, D6
00002BC2  C1FC 00C0                muls.w     D0, 0xC0
00002BC6  204D                     movea.l    A0, A5
00002BC8  D1FC FFFE 4454           add.l      A0, 0xFFFE4454
00002BCE  2207                     move.l     D1, D7
00002BD0  D241                     add.w      D1, D1
00002BD2  D240                     add.w      D1, D0
00002BD4  0270 BFFF 1004           andi.w     [A0 + D1.w + 0x4], 0xBFFF
00002BDA  48C7                     ext.l      D7
00002BDC  48C6                     ext.l      D6
00002BDE  2006                     move.l     D0, D6
00002BE0  C1FC 00C0                muls.w     D0, 0xC0
00002BE4  204D                     movea.l    A0, A5
00002BE6  D1FC FFFE 45D4           add.l      A0, 0xFFFE45D4
00002BEC  2207                     move.l     D1, D7
00002BEE  D241                     add.w      D1, D1
00002BF0  D240                     add.w      D1, D0
00002BF2  0270 BFFF 1002           andi.w     [A0 + D1.w + 0x2], 0xBFFF
00002BF8  1005                     move.b     D0, D5
00002BFA  5205                     addq.b     D5, 1
label00002BFC:
00002BFC  204D                     movea.l    A0, A5
00002BFE  D1FC FFFE FC02           add.l      A0, 0xFFFEFC02
00002C04  BA10                     cmp.b      D5, [A0]
00002C06  6D00 FE1A                blt        -0x1E4 /* 00002A22 */
label00002C0A:
00002C0A  204D                     movea.l    A0, A5
00002C0C  D1FC FFFE D2CC           add.l      A0, 0xFFFED2CC
00002C12  1084                     move.b     [A0], D4
00002C14  4246                     clr.w      D6
00002C16  7660                     moveq.l    D3, 0x60
label00002C18:
00002C18  4247                     clr.w      D7
label00002C1A:
00002C1A  2006                     move.l     D0, D6
00002C1C  C1FC 00C0                muls.w     D0, 0xC0
00002C20  204D                     movea.l    A0, A5
00002C22  D1FC FFFE 42D4           add.l      A0, 0xFFFE42D4
00002C28  2207                     move.l     D1, D7
00002C2A  D241                     add.w      D1, D1
00002C2C  D240                     add.w      D1, D0
00002C2E  0270 BFFF 1000           andi.w     [A0 + D1.w], 0xBFFF
00002C34  3007                     move.w     D0, D7
00002C36  5247                     addq.w     D7, 1
00002C38  B647                     cmp.w      D3, D7
00002C3A  6EDE                     bgt        -0x20 /* 00002C1A */
00002C3C  3006                     move.w     D0, D6
00002C3E  5246                     addq.w     D6, 1
00002C40  B646                     cmp.w      D3, D6
00002C42  6ED4                     bgt        -0x2A /* 00002C18 */
00002C44  204D                     movea.l    A0, A5
00002C46  D1FC FFFF 7868           add.l      A0, 0xFFFF7868
00002C4C  2050                     movea.l    A0, [A0]
00002C4E  2D48 FFDE                move.l     [A6 - 0x22], A0
00002C52  2868 0128                movea.l    A4, [A0 + 0x128]
00002C56  7000                     moveq.l    D0, 0x00
00002C58  2640                     movea.l    A3, D0
00002C5A  2F0B                     move.l     -[A7], A3
00002C5C  2F0C                     move.l     -[A7], A4
00002C5E  2F3C 454D 6F76           move.l     -[A7], 0x454D6F76 /* 'EMov' */
00002C64  206C 00F0                movea.l    A0, [A4 + 0xF0]
00002C68  2248                     movea.l    A1, A0
00002C6A  2269 0060                movea.l    A1, [A1 + 0x60]
00002C6E  D0E9 0058                add.w      A0, [A1 + 0x58]
00002C72  2F08                     move.l     -[A7], A0
00002C74  206C 00F0                movea.l    A0, [A4 + 0xF0]
00002C78  2068 0060                movea.l    A0, [A0 + 0x60]
00002C7C  2268 005C                movea.l    A1, [A0 + 0x5C]
00002C80  4E91                     jsr        [A1]
00002C82  7002                     moveq.l    D0, 0x02
00002C84  2F00                     move.l     -[A7], D0
00002C86  486E FFE2                pea.l      [A6 - 0x1E]
00002C8A  4EAD 177A                jsr        [A5 + 0x177A /* export_747, CODE:32 @ 00004DBC */]
00002C8E  7001                     moveq.l    D0, 0x01
00002C90  4FEF 0018                lea.l      A7, [A7 + 0x18]
label00002C94:
00002C94  4CEE 18F8 FFBA           movem.l    D3,D4,D5,D6,D7,A3,A4, [A6 - 0x46]
00002C9A  4E5E                     unlink     A6
00002C9C  4E75                     rts
00002C9E  8E73 6574 7374 6164 6... dc.b       "setstadium__Fc"
fn00002CB0:
00002CB0  4E56 FFE2                link       A6, -0x001E
00002CB4  48E7 1318                movem.l    -[A7], D3,D6,D7,A3,A4
00002CB8  204D                     movea.l    A0, A5
00002CBA  D1FC FFFE D2CA           add.l      A0, 0xFFFED2CA
00002CC0  4A10                     tst.b      [A0]
00002CC2  6700 0244                beq        +0x246 /* 00002F08 */
00002CC6  204D                     movea.l    A0, A5
00002CC8  D1FC FFFE D2CA           add.l      A0, 0xFFFED2CA
00002CCE  1010                     move.b     D0, [A0]
00002CD0  5310                     subq.b     [A0], 1
00002CD2  204D                     movea.l    A0, A5
00002CD4  D1FC FFFE D2CA           add.l      A0, 0xFFFED2CA
00002CDA  4A10                     tst.b      [A0]
00002CDC  6600 022A                bne        +0x22C /* 00002F08 */
00002CE0  204D                     movea.l    A0, A5
00002CE2  D1FC FFFE D2CE           add.l      A0, 0xFFFED2CE
00002CE8  4A50                     tst.w      [A0]
00002CEA  6700 008C                beq        +0x8E /* 00002D78 */
00002CEE  7001                     moveq.l    D0, 0x01
00002CF0  204D                     movea.l    A0, A5
00002CF2  D1FC FFFE D2CC           add.l      A0, 0xFFFED2CC
00002CF8  B010                     cmp.b      D0, [A0]
00002CFA  667C                     bne        +0x7E /* 00002D78 */
00002CFC  558F                     subq.l     A7, 2
00002CFE  A861                     syscall    Random
00002D00  7003                     moveq.l    D0, 0x03
00002D02  C05F                     and.w      D0, [A7]+
00002D04  7200                     moveq.l    D1, 0x00
00002D06  3200                     move.w     D1, D0
00002D08  7002                     moveq.l    D0, 0x02
00002D0A  B081                     cmp.l      D0, D1
00002D0C  663A                     bne        +0x3C /* 00002D48 */
00002D0E  7001                     moveq.l    D0, 0x01
00002D10  2F00                     move.l     -[A7], D0
00002D12  7200                     moveq.l    D1, 0x00
00002D14  2F01                     move.l     -[A7], D1
00002D16  4878 0096                push.l     0x96
00002D1A  4878 00C0                push.l     0xC0
00002D1E  2F01                     move.l     -[A7], D1
00002D20  2F00                     move.l     -[A7], D0
00002D22  704B                     moveq.l    D0, 0x4B
00002D24  2F00                     move.l     -[A7], D0
00002D26  204D                     movea.l    A0, A5
00002D28  D1FC FFFE D168           add.l      A0, 0xFFFED168
00002D2E  4850                     pea.l      [A0]
00002D30  4EBA 2C92                jsr        [PC + 0x2C92 /* 000059C4 */]
00002D34  4878 03E8                push.l     0x3E8
00002D38  7000                     moveq.l    D0, 0x00
00002D3A  2F00                     move.l     -[A7], D0
00002D3C  4EAD 0602                jsr        [A5 + 0x602 /* export_188, CODE:10 @ 00002E6C */]
00002D40  4FEF 0028                lea.l      A7, [A7 + 0x28]
00002D44  6000 01B8                bra        +0x1BA /* 00002EFE */
label00002D48:
00002D48  7001                     moveq.l    D0, 0x01
00002D4A  2F00                     move.l     -[A7], D0
00002D4C  7200                     moveq.l    D1, 0x00
00002D4E  2F01                     move.l     -[A7], D1
00002D50  4878 0096                push.l     0x96
00002D54  4878 00C0                push.l     0xC0
00002D58  2F01                     move.l     -[A7], D1
00002D5A  7012                     moveq.l    D0, 0x12
00002D5C  2F00                     move.l     -[A7], D0
00002D5E  704C                     moveq.l    D0, 0x4C
00002D60  2F00                     move.l     -[A7], D0
00002D62  204D                     movea.l    A0, A5
00002D64  D1FC FFFE D196           add.l      A0, 0xFFFED196
00002D6A  4850                     pea.l      [A0]
00002D6C  4EBA 2C56                jsr        [PC + 0x2C56 /* 000059C4 */]
00002D70  4FEF 0020                lea.l      A7, [A7 + 0x20]
00002D74  6000 0188                bra        +0x18A /* 00002EFE */
label00002D78:
00002D78  204D                     movea.l    A0, A5
00002D7A  D1FC FFFE D2CE           add.l      A0, 0xFFFED2CE
00002D80  4A50                     tst.w      [A0]
00002D82  6700 017A                beq        +0x17C /* 00002EFE */
00002D86  7002                     moveq.l    D0, 0x02
00002D88  204D                     movea.l    A0, A5
00002D8A  D1FC FFFE D2CC           add.l      A0, 0xFFFED2CC
00002D90  B010                     cmp.b      D0, [A0]
00002D92  6600 016A                bne        +0x16C /* 00002EFE */
00002D96  70FF                     moveq.l    D0, 0xFFFFFFFF
00002D98  204D                     movea.l    A0, A5
00002D9A  D1FC FFFE D2C2           add.l      A0, 0xFFFED2C2
00002DA0  B010                     cmp.b      D0, [A0]
00002DA2  6700 015A                beq        +0x15C /* 00002EFE */
00002DA6  7000                     moveq.l    D0, 0x00
00002DA8  2F00                     move.l     -[A7], D0
00002DAA  2F00                     move.l     -[A7], D0
00002DAC  486E FFE2                pea.l      [A6 - 0x1E]
00002DB0  4EAD 1772                jsr        [A5 + 0x1772 /* export_746, CODE:32 @ 00004CE0 */]
00002DB4  558F                     subq.l     A7, 2
00002DB6  A861                     syscall    Random
00002DB8  301F                     move.w     D0, [A7]+
00002DBA  0800 0000                btst.b     D0, 0x0
00002DBE  4FEF 000C                lea.l      A7, [A7 + 0xC]
00002DC2  6700 00A6                beq        +0xA8 /* 00002E6A */
00002DC6  204D                     movea.l    A0, A5
00002DC8  D1FC FFFE D2C2           add.l      A0, 0xFFFED2C2
00002DCE  1010                     move.b     D0, [A0]
00002DD0  4880                     ext.w      D0
00002DD2  E540                     asl        D0.w, 2
00002DD4  204D                     movea.l    A0, A5
00002DD6  D1FC FFFD CE6A           add.l      A0, 0xFFFDCE6A
00002DDC  2670 0000                movea.l    A3, [A0 + D0.w]
00002DE0  7E01                     moveq.l    D7, 0x01
00002DE2  486E FFE2                pea.l      [A6 - 0x1E]
00002DE6  4EAD 1782                jsr        [A5 + 0x1782 /* export_748, CODE:32 @ 00004E1E */]
00002DEA  1C07                     move.b     D6, D7
00002DEC  7000                     moveq.l    D0, 0x00
00002DEE  1006                     move.b     D0, D6
00002DF0  2F00                     move.l     -[A7], D0
00002DF2  2F2E FFF6                move.l     -[A7], [A6 - 0xA]
00002DF6  2F0B                     move.l     -[A7], A3
00002DF8  486E FFE2                pea.l      [A6 - 0x1E]
00002DFC  4EAD 178A                jsr        [A5 + 0x178A /* export_749, CODE:32 @ 00004E80 */]
00002E00  7000                     moveq.l    D0, 0x00
00002E02  2F00                     move.l     -[A7], D0
00002E04  2F2E FFF6                move.l     -[A7], [A6 - 0xA]
00002E08  204D                     movea.l    A0, A5
00002E0A  D1FC FFFE D1C6           add.l      A0, 0xFFFED1C6
00002E10  4850                     pea.l      [A0]
00002E12  486E FFE2                pea.l      [A6 - 0x1E]
00002E16  4EAD 178A                jsr        [A5 + 0x178A /* export_749, CODE:32 @ 00004E80 */]
00002E1A  7001                     moveq.l    D0, 0x01
00002E1C  2F00                     move.l     -[A7], D0
00002E1E  7200                     moveq.l    D1, 0x00
00002E20  2F01                     move.l     -[A7], D1
00002E22  4878 0096                push.l     0x96
00002E26  4878 00C0                push.l     0xC0
00002E2A  2F01                     move.l     -[A7], D1
00002E2C  2F00                     move.l     -[A7], D0
00002E2E  204D                     movea.l    A0, A5
00002E30  D1FC FFFE D2C2           add.l      A0, 0xFFFED2C2
00002E36  1410                     move.b     D2, [A0]
00002E38  7646                     moveq.l    D3, 0x46
00002E3A  D403                     add.b      D2, D3
00002E3C  49C2                     lea.l      A4, D2
00002E3E  2F02                     move.l     -[A7], D2
00002E40  206E FFEE                movea.l    A0, [A6 - 0x12]
00002E44  2F10                     move.l     -[A7], [A0]
00002E46  4EBA 2B7C                jsr        [PC + 0x2B7C /* 000059C4 */]
00002E4A  4878 03E8                push.l     0x3E8
00002E4E  7000                     moveq.l    D0, 0x00
00002E50  2F00                     move.l     -[A7], D0
00002E52  4EAD 0602                jsr        [A5 + 0x602 /* export_188, CODE:10 @ 00002E6C */]
00002E56  204D                     movea.l    A0, A5
00002E58  D1FC FFFE D2C2           add.l      A0, 0xFFFED2C2
00002E5E  10BC FFFF                move.b     [A0], 0xFF
00002E62  4FEF 004C                lea.l      A7, [A7 + 0x4C]
00002E66  6000 0088                bra        +0x8A /* 00002EF0 */
label00002E6A:
00002E6A  204D                     movea.l    A0, A5
00002E6C  D1FC FFFE D2C2           add.l      A0, 0xFFFED2C2
00002E72  1010                     move.b     D0, [A0]
00002E74  4880                     ext.w      D0
00002E76  E540                     asl        D0.w, 2
00002E78  204D                     movea.l    A0, A5
00002E7A  D1FC FFFD CE6A           add.l      A0, 0xFFFDCE6A
00002E80  2870 0000                movea.l    A4, [A0 + D0.w]
00002E84  7C01                     moveq.l    D6, 0x01
00002E86  486E FFE2                pea.l      [A6 - 0x1E]
00002E8A  4EAD 1782                jsr        [A5 + 0x1782 /* export_748, CODE:32 @ 00004E1E */]
00002E8E  1E06                     move.b     D7, D6
00002E90  7000                     moveq.l    D0, 0x00
00002E92  1007                     move.b     D0, D7
00002E94  2F00                     move.l     -[A7], D0
00002E96  2F2E FFF6                move.l     -[A7], [A6 - 0xA]
00002E9A  2F0C                     move.l     -[A7], A4
00002E9C  486E FFE2                pea.l      [A6 - 0x1E]
00002EA0  4EAD 178A                jsr        [A5 + 0x178A /* export_749, CODE:32 @ 00004E80 */]
00002EA4  7000                     moveq.l    D0, 0x00
00002EA6  2F00                     move.l     -[A7], D0
00002EA8  2F2E FFF6                move.l     -[A7], [A6 - 0xA]
00002EAC  204D                     movea.l    A0, A5
00002EAE  D1FC FFFE D1F2           add.l      A0, 0xFFFED1F2
00002EB4  4850                     pea.l      [A0]
00002EB6  486E FFE2                pea.l      [A6 - 0x1E]
00002EBA  4EAD 178A                jsr        [A5 + 0x178A /* export_749, CODE:32 @ 00004E80 */]
00002EBE  7001                     moveq.l    D0, 0x01
00002EC0  2F00                     move.l     -[A7], D0
00002EC2  7200                     moveq.l    D1, 0x00
00002EC4  2F01                     move.l     -[A7], D1
00002EC6  4878 0096                push.l     0x96
00002ECA  4878 00C0                push.l     0xC0
00002ECE  2F01                     move.l     -[A7], D1
00002ED0  2F00                     move.l     -[A7], D0
00002ED2  704A                     moveq.l    D0, 0x4A
00002ED4  2F00                     move.l     -[A7], D0
00002ED6  206E FFEE                movea.l    A0, [A6 - 0x12]
00002EDA  2F10                     move.l     -[A7], [A0]
00002EDC  4EBA 2AE6                jsr        [PC + 0x2AE6 /* 000059C4 */]
00002EE0  204D                     movea.l    A0, A5
00002EE2  D1FC FFFE D2C2           add.l      A0, 0xFFFED2C2
00002EE8  10BC FFFF                move.b     [A0], 0xFF
00002EEC  4FEF 0044                lea.l      A7, [A7 + 0x44]
label00002EF0:
00002EF0  7002                     moveq.l    D0, 0x02
00002EF2  2F00                     move.l     -[A7], D0
00002EF4  486E FFE2                pea.l      [A6 - 0x1E]
00002EF8  4EAD 177A                jsr        [A5 + 0x177A /* export_747, CODE:32 @ 00004DBC */]
00002EFC  504F                     addq.w     A7, 8
label00002EFE:
00002EFE  7000                     moveq.l    D0, 0x00
00002F00  2F00                     move.l     -[A7], D0
00002F02  4EBA F606                jsr        [PC - 0x9FA /* 0000250A */]
00002F06  584F                     addq.w     A7, 4
label00002F08:
00002F08  4CEE 18C8 FFCE           movem.l    D3,D6,D7,A3,A4, [A6 - 0x32]
00002F0E  4E5E                     unlink     A6
00002F10  4E75                     rts
00002F12  9173 7461 6469 756D 7... dc.b       "stadiumweekly__Fv"
fn00002F26:
00002F26  4E56 FFF8                link       A6, -0x0008
00002F2A  48E7 1718                movem.l    -[A7], D3,D5,D6,D7,A3,A4
00002F2E  204D                     movea.l    A0, A5
00002F30  D1FC FFFE FC02           add.l      A0, 0xFFFEFC02
00002F36  4A10                     tst.b      [A0]
00002F38  6606                     bne        +0x8 /* 00002F40 */
00002F3A  7000                     moveq.l    D0, 0x00
00002F3C  6000 0614                bra        +0x616 /* 00003552 */
label00002F40:
00002F40  7001                     moveq.l    D0, 0x01
00002F42  204D                     movea.l    A0, A5
00002F44  D1FC FFFE D2CC           add.l      A0, 0xFFFED2CC
00002F4A  B010                     cmp.b      D0, [A0]
00002F4C  6600 0294                bne        +0x296 /* 000031E2 */
00002F50  204D                     movea.l    A0, A5
00002F52  D1FC FFFD CEBE           add.l      A0, 0xFFFDCEBE
00002F58  2010                     move.l     D0, [A0]
00002F5A  204D                     movea.l    A0, A5
00002F5C  D1FC FFFD CE4E           add.l      A0, 0xFFFDCE4E
00002F62  9090                     sub.l      D0, [A0]
00002F64  7207                     moveq.l    D1, 0x07
00002F66  B280                     cmp.l      D1, D0
00002F68  6306                     bls        +0x8 /* 00002F70 */
00002F6A  7000                     moveq.l    D0, 0x00
00002F6C  6000 05E4                bra        +0x5E6 /* 00003552 */
label00002F70:
00002F70  4205                     clr.b      D5
00002F72  6000 0240                bra        +0x242 /* 000031B4 */
label00002F76:
00002F76  7000                     moveq.l    D0, 0x00
00002F78  1005                     move.b     D0, D5
00002F7A  204D                     movea.l    A0, A5
00002F7C  D1FC FFFE FBFA           add.l      A0, 0xFFFEFBFA
00002F82  7C00                     moveq.l    D6, 0x00
00002F84  1C30 0000                move.b     D6, [A0 + D0.w]
00002F88  7000                     moveq.l    D0, 0x00
00002F8A  1005                     move.b     D0, D5
00002F8C  204D                     movea.l    A0, A5
00002F8E  D1FC FFFE FBF2           add.l      A0, 0xFFFEFBF2
00002F94  7E00                     moveq.l    D7, 0x00
00002F96  1E30 0000                move.b     D7, [A0 + D0.w]
00002F9A  5446                     addq.w     D6, 2
00002F9C  5647                     addq.w     D7, 3
00002F9E  2006                     move.l     D0, D6
00002FA0  C1FC 00C0                muls.w     D0, 0xC0
00002FA4  204D                     movea.l    A0, A5
00002FA6  D1FC FFFE 42D4           add.l      A0, 0xFFFE42D4
00002FAC  2207                     move.l     D1, D7
00002FAE  D241                     add.w      D1, D1
00002FB0  D240                     add.w      D1, D0
00002FB2  0270 F7FF 1000           andi.w     [A0 + D1.w], 0xF7FF
00002FB8  48C6                     ext.l      D6
00002FBA  2006                     move.l     D0, D6
00002FBC  C1FC 00C0                muls.w     D0, 0xC0
00002FC0  204D                     movea.l    A0, A5
00002FC2  D1FC FFFE 4394           add.l      A0, 0xFFFE4394
00002FC8  2207                     move.l     D1, D7
00002FCA  D241                     add.w      D1, D1
00002FCC  D240                     add.w      D1, D0
00002FCE  0270 F7FF 1000           andi.w     [A0 + D1.w], 0xF7FF
00002FD4  48C7                     ext.l      D7
00002FD6  2006                     move.l     D0, D6
00002FD8  C1FC 00C0                muls.w     D0, 0xC0
00002FDC  204D                     movea.l    A0, A5
00002FDE  D1FC FFFE 42D4           add.l      A0, 0xFFFE42D4
00002FE4  2207                     move.l     D1, D7
00002FE6  D241                     add.w      D1, D1
00002FE8  D240                     add.w      D1, D0
00002FEA  0270 F7FF 1002           andi.w     [A0 + D1.w + 0x2], 0xF7FF
00002FF0  48C7                     ext.l      D7
00002FF2  48C6                     ext.l      D6
00002FF4  2006                     move.l     D0, D6
00002FF6  C1FC 00C0                muls.w     D0, 0xC0
00002FFA  204D                     movea.l    A0, A5
00002FFC  D1FC FFFE 4394           add.l      A0, 0xFFFE4394
00003002  2207                     move.l     D1, D7
00003004  D241                     add.w      D1, D1
00003006  D240                     add.w      D1, D0
00003008  0270 F7FF 1002           andi.w     [A0 + D1.w + 0x2], 0xF7FF
0000300E  2006                     move.l     D0, D6
00003010  C1FC 00C0                muls.w     D0, 0xC0
00003014  204D                     movea.l    A0, A5
00003016  D1FC FFFE 42D4           add.l      A0, 0xFFFE42D4
0000301C  2207                     move.l     D1, D7
0000301E  D241                     add.w      D1, D1
00003020  D240                     add.w      D1, D0
00003022  0270 BFFF 1000           andi.w     [A0 + D1.w], 0xBFFF
00003028  48C6                     ext.l      D6
0000302A  2006                     move.l     D0, D6
0000302C  C1FC 00C0                muls.w     D0, 0xC0
00003030  204D                     movea.l    A0, A5
00003032  D1FC FFFE 4394           add.l      A0, 0xFFFE4394
00003038  2207                     move.l     D1, D7
0000303A  D241                     add.w      D1, D1
0000303C  D240                     add.w      D1, D0
0000303E  0270 BFFF 1000           andi.w     [A0 + D1.w], 0xBFFF
00003044  48C7                     ext.l      D7
00003046  2006                     move.l     D0, D6
00003048  C1FC 00C0                muls.w     D0, 0xC0
0000304C  204D                     movea.l    A0, A5
0000304E  D1FC FFFE 42D4           add.l      A0, 0xFFFE42D4
00003054  2207                     move.l     D1, D7
00003056  D241                     add.w      D1, D1
00003058  D240                     add.w      D1, D0
0000305A  0270 BFFF 1002           andi.w     [A0 + D1.w + 0x2], 0xBFFF
00003060  48C7                     ext.l      D7
00003062  48C6                     ext.l      D6
00003064  2006                     move.l     D0, D6
00003066  C1FC 00C0                muls.w     D0, 0xC0
0000306A  204D                     movea.l    A0, A5
0000306C  D1FC FFFE 4394           add.l      A0, 0xFFFE4394
00003072  2207                     move.l     D1, D7
00003074  D241                     add.w      D1, D1
00003076  D240                     add.w      D1, D0
00003078  0270 BFFF 1002           andi.w     [A0 + D1.w + 0x2], 0xBFFF
0000307E  204D                     movea.l    A0, A5
00003080  D1FC FFFE D2C8           add.l      A0, 0xFFFED2C8
00003086  5210                     addq.b     [A0], 1
00003088  204D                     movea.l    A0, A5
0000308A  D1FC FFFE D2C8           add.l      A0, 0xFFFED2C8
00003090  0210 0003                andi.b     [A0], 0x3
00003094  204D                     movea.l    A0, A5
00003096  D1FC FFFE D2C8           add.l      A0, 0xFFFED2C8
0000309C  4A10                     tst.b      [A0]
0000309E  6624                     bne        +0x26 /* 000030C4 */
000030A0  558F                     subq.l     A7, 2
000030A2  A861                     syscall    Random
000030A4  7001                     moveq.l    D0, 0x01
000030A6  C05F                     and.w      D0, [A7]+
000030A8  204D                     movea.l    A0, A5
000030AA  D1FC FFFE D2C6           add.l      A0, 0xFFFED2C6
000030B0  1080                     move.b     [A0], D0
000030B2  558F                     subq.l     A7, 2
000030B4  A861                     syscall    Random
000030B6  7001                     moveq.l    D0, 0x01
000030B8  C05F                     and.w      D0, [A7]+
000030BA  204D                     movea.l    A0, A5
000030BC  D1FC FFFE D2C4           add.l      A0, 0xFFFED2C4
000030C2  1080                     move.b     [A0], D0
label000030C4:
000030C4  204D                     movea.l    A0, A5
000030C6  D1FC FFFE D2C4           add.l      A0, 0xFFFED2C4
000030CC  1010                     move.b     D0, [A0]
000030CE  4880                     ext.w      D0
000030D0  D047                     add.w      D0, D7
000030D2  204D                     movea.l    A0, A5
000030D4  D1FC FFFE D2C6           add.l      A0, 0xFFFED2C6
000030DA  1210                     move.b     D1, [A0]
000030DC  4881                     ext.w      D1
000030DE  D246                     add.w      D1, D6
000030E0  C3FC 00C0                muls.w     D1, 0xC0
000030E4  204D                     movea.l    A0, A5
000030E6  D1FC FFFD FAD4           add.l      A0, 0xFFFDFAD4
000030EC  D040                     add.w      D0, D0
000030EE  D041                     add.w      D0, D1
000030F0  7200                     moveq.l    D1, 0x00
000030F2  3230 0000                move.w     D1, [A0 + D0.w]
000030F6  303C F800                move.w     D0, 0xF800
000030FA  C041                     and.w      D0, D1
000030FC  7200                     moveq.l    D1, 0x00
000030FE  3200                     move.w     D1, D0
00003100  2D41 FFF8                move.l     [A6 - 0x8], D1
00003104  558F                     subq.l     A7, 2
00003106  A861                     syscall    Random
00003108  7007                     moveq.l    D0, 0x07
0000310A  C05F                     and.w      D0, [A7]+
0000310C  7200                     moveq.l    D1, 0x00
0000310E  3200                     move.w     D1, D0
00003110  D2BC 0000 03A9           add.l      D1, 0x3A9
00003116  202E FFF8                move.l     D0, [A6 - 0x8]
0000311A  8280                     or.l       D1, D0
0000311C  204D                     movea.l    A0, A5
0000311E  D1FC FFFE D2C4           add.l      A0, 0xFFFED2C4
00003124  1010                     move.b     D0, [A0]
00003126  4880                     ext.w      D0
00003128  D047                     add.w      D0, D7
0000312A  204D                     movea.l    A0, A5
0000312C  D1FC FFFE D2C6           add.l      A0, 0xFFFED2C6
00003132  1410                     move.b     D2, [A0]
00003134  4882                     ext.w      D2
00003136  D446                     add.w      D2, D6
00003138  C5FC 00C0                muls.w     D2, 0xC0
0000313C  204D                     movea.l    A0, A5
0000313E  D1FC FFFD FAD4           add.l      A0, 0xFFFDFAD4
00003144  D040                     add.w      D0, D0
00003146  D042                     add.w      D0, D2
00003148  3181 0000                move.w     [A0 + D0.w], D1
0000314C  204D                     movea.l    A0, A5
0000314E  D1FC FFFE D2C4           add.l      A0, 0xFFFED2C4
00003154  1010                     move.b     D0, [A0]
00003156  4880                     ext.w      D0
00003158  D047                     add.w      D0, D7
0000315A  204D                     movea.l    A0, A5
0000315C  D1FC FFFE D2C6           add.l      A0, 0xFFFED2C6
00003162  1210                     move.b     D1, [A0]
00003164  4881                     ext.w      D1
00003166  D246                     add.w      D1, D6
00003168  C3FC 00C0                muls.w     D1, 0xC0
0000316C  204D                     movea.l    A0, A5
0000316E  D1FC FFFE 42D4           add.l      A0, 0xFFFE42D4
00003174  D040                     add.w      D0, D0
00003176  D041                     add.w      D0, D1
00003178  0270 BFFF 0000           andi.w     [A0 + D0.w], 0xBFFF
0000317E  204D                     movea.l    A0, A5
00003180  D1FC FFFE D2C4           add.l      A0, 0xFFFED2C4
00003186  1010                     move.b     D0, [A0]
00003188  4880                     ext.w      D0
0000318A  D047                     add.w      D0, D7
0000318C  204D                     movea.l    A0, A5
0000318E  D1FC FFFE D2C6           add.l      A0, 0xFFFED2C6
00003194  1210                     move.b     D1, [A0]
00003196  4881                     ext.w      D1
00003198  D246                     add.w      D1, D6
0000319A  C3FC 00C0                muls.w     D1, 0xC0
0000319E  204D                     movea.l    A0, A5
000031A0  D1FC FFFE 42D4           add.l      A0, 0xFFFE42D4
000031A6  D040                     add.w      D0, D0
000031A8  D041                     add.w      D0, D1
000031AA  0070 0800 0000           ori.w      [A0 + D0.w], 0x800
000031B0  1005                     move.b     D0, D5
000031B2  5205                     addq.b     D5, 1
label000031B4:
000031B4  7000                     moveq.l    D0, 0x00
000031B6  1005                     move.b     D0, D5
000031B8  4A80                     tst.l      D0
000031BA  204D                     movea.l    A0, A5
000031BC  D1FC FFFE FC02           add.l      A0, 0xFFFEFC02
000031C2  1210                     move.b     D1, [A0]
000031C4  4881                     ext.w      D1
000031C6  B240                     cmp.w      D1, D0
000031C8  6E00 FDAC                bgt        -0x252 /* 00002F76 */
000031CC  204D                     movea.l    A0, A5
000031CE  D1FC FFFD CEBE           add.l      A0, 0xFFFDCEBE
000031D4  224D                     movea.l    A1, A5
000031D6  D3FC FFFD CE4E           add.l      A1, 0xFFFDCE4E
000031DC  2290                     move.l     [A1], [A0]
000031DE  6000 0300                bra        +0x302 /* 000034E0 */
label000031E2:
000031E2  7002                     moveq.l    D0, 0x02
000031E4  204D                     movea.l    A0, A5
000031E6  D1FC FFFE D2CC           add.l      A0, 0xFFFED2CC
000031EC  B010                     cmp.b      D0, [A0]
000031EE  6600 02F0                bne        +0x2F2 /* 000034E0 */
000031F2  204D                     movea.l    A0, A5
000031F4  D1FC FFFD CEBE           add.l      A0, 0xFFFDCEBE
000031FA  2010                     move.l     D0, [A0]
000031FC  204D                     movea.l    A0, A5
000031FE  D1FC FFFD CE4E           add.l      A0, 0xFFFDCE4E
00003204  9090                     sub.l      D0, [A0]
00003206  7207                     moveq.l    D1, 0x07
00003208  B280                     cmp.l      D1, D0
0000320A  6306                     bls        +0x8 /* 00003212 */
0000320C  7000                     moveq.l    D0, 0x00
0000320E  6000 0342                bra        +0x344 /* 00003552 */
label00003212:
00003212  4205                     clr.b      D5
00003214  6000 02A0                bra        +0x2A2 /* 000034B6 */
label00003218:
00003218  7000                     moveq.l    D0, 0x00
0000321A  1005                     move.b     D0, D5
0000321C  204D                     movea.l    A0, A5
0000321E  D1FC FFFE FBFA           add.l      A0, 0xFFFEFBFA
00003224  7200                     moveq.l    D1, 0x00
00003226  1230 0000                move.b     D1, [A0 + D0.w]
0000322A  3C01                     move.w     D6, D1
0000322C  5246                     addq.w     D6, 1
0000322E  7000                     moveq.l    D0, 0x00
00003230  1005                     move.b     D0, D5
00003232  204D                     movea.l    A0, A5
00003234  D1FC FFFE FBF2           add.l      A0, 0xFFFEFBF2
0000323A  7200                     moveq.l    D1, 0x00
0000323C  1230 0000                move.b     D1, [A0 + D0.w]
00003240  3E01                     move.w     D7, D1
00003242  5247                     addq.w     D7, 1
00003244  558F                     subq.l     A7, 2
00003246  A861                     syscall    Random
00003248  301F                     move.w     D0, [A7]+
0000324A  0800 0000                btst.b     D0, 0x0
0000324E  6700 00B4                beq        +0xB6 /* 00003304 */
00003252  48C7                     ext.l      D7
00003254  48C6                     ext.l      D6
00003256  2006                     move.l     D0, D6
00003258  C1FC 00C0                muls.w     D0, 0xC0
0000325C  204D                     movea.l    A0, A5
0000325E  D1FC FFFE 4454           add.l      A0, 0xFFFE4454
00003264  2207                     move.l     D1, D7
00003266  D241                     add.w      D1, D1
00003268  D240                     add.w      D1, D0
0000326A  31BC 020E 1002           move.w     [A0 + D1.w + 0x2], 0x20E
00003270  48C6                     ext.l      D6
00003272  2006                     move.l     D0, D6
00003274  C1FC 00C0                muls.w     D0, 0xC0
00003278  204D                     movea.l    A0, A5
0000327A  D1FC FFFE 4394           add.l      A0, 0xFFFE4394
00003280  2207                     move.l     D1, D7
00003282  D241                     add.w      D1, D1
00003284  D240                     add.w      D1, D0
00003286  31BC 020F 1000           move.w     [A0 + D1.w], 0x20F
0000328C  48C7                     ext.l      D7
0000328E  2006                     move.l     D0, D6
00003290  C1FC 00C0                muls.w     D0, 0xC0
00003294  204D                     movea.l    A0, A5
00003296  D1FC FFFE 42D4           add.l      A0, 0xFFFE42D4
0000329C  2207                     move.l     D1, D7
0000329E  D241                     add.w      D1, D1
000032A0  D240                     add.w      D1, D0
000032A2  31BC 0210 1004           move.w     [A0 + D1.w + 0x4], 0x210
000032A8  48C7                     ext.l      D7
000032AA  2006                     move.l     D0, D6
000032AC  C1FC 00C0                muls.w     D0, 0xC0
000032B0  204D                     movea.l    A0, A5
000032B2  D1FC FFFE 42D4           add.l      A0, 0xFFFE42D4
000032B8  2207                     move.l     D1, D7
000032BA  D241                     add.w      D1, D1
000032BC  D240                     add.w      D1, D0
000032BE  31BC 0210 1008           move.w     [A0 + D1.w + 0x8], 0x210
000032C4  48C7                     ext.l      D7
000032C6  48C6                     ext.l      D6
000032C8  2006                     move.l     D0, D6
000032CA  C1FC 00C0                muls.w     D0, 0xC0
000032CE  204D                     movea.l    A0, A5
000032D0  D1FC FFFE 4454           add.l      A0, 0xFFFE4454
000032D6  2207                     move.l     D1, D7
000032D8  D241                     add.w      D1, D1
000032DA  D240                     add.w      D1, D0
000032DC  31BC 0211 1004           move.w     [A0 + D1.w + 0x4], 0x211
000032E2  48C7                     ext.l      D7
000032E4  48C6                     ext.l      D6
000032E6  2006                     move.l     D0, D6
000032E8  C1FC 00C0                muls.w     D0, 0xC0
000032EC  204D                     movea.l    A0, A5
000032EE  D1FC FFFE 45D4           add.l      A0, 0xFFFE45D4
000032F4  2207                     move.l     D1, D7
000032F6  D241                     add.w      D1, D1
000032F8  D240                     add.w      D1, D0
000032FA  31BC 0211 1002           move.w     [A0 + D1.w + 0x2], 0x211
00003300  6000 0102                bra        +0x104 /* 00003404 */
label00003304:
00003304  204D                     movea.l    A0, A5
00003306  D1FC FFFF 7A68           add.l      A0, 0xFFFF7A68
0000330C  3010                     move.w     D0, [A0]
0000330E  48C0                     ext.l      D0
00003310  7209                     moveq.l    D1, 0x09
00003312  D081                     add.l      D0, D1
00003314  48C7                     ext.l      D7
00003316  48C6                     ext.l      D6
00003318  2406                     move.l     D2, D6
0000331A  C5FC 00C0                muls.w     D2, 0xC0
0000331E  204D                     movea.l    A0, A5
00003320  D1FC FFFE 4454           add.l      A0, 0xFFFE4454
00003326  2607                     move.l     D3, D7
00003328  D643                     add.w      D3, D3
0000332A  D642                     add.w      D3, D2
0000332C  3180 3002                move.w     [A0 + D3.w + 0x2], D0
00003330  204D                     movea.l    A0, A5
00003332  D1FC FFFF 7A68           add.l      A0, 0xFFFF7A68
00003338  3010                     move.w     D0, [A0]
0000333A  48C0                     ext.l      D0
0000333C  5280                     addq.l     D0, 1
0000333E  48C6                     ext.l      D6
00003340  2406                     move.l     D2, D6
00003342  C5FC 00C0                muls.w     D2, 0xC0
00003346  204D                     movea.l    A0, A5
00003348  D1FC FFFE 4394           add.l      A0, 0xFFFE4394
0000334E  2607                     move.l     D3, D7
00003350  D643                     add.w      D3, D3
00003352  D642                     add.w      D3, D2
00003354  3180 3000                move.w     [A0 + D3.w], D0
00003358  204D                     movea.l    A0, A5
0000335A  D1FC FFFF 7A68           add.l      A0, 0xFFFF7A68
00003360  3010                     move.w     D0, [A0]
00003362  48C0                     ext.l      D0
00003364  740E                     moveq.l    D2, 0x0E
00003366  D082                     add.l      D0, D2
00003368  48C7                     ext.l      D7
0000336A  2606                     move.l     D3, D6
0000336C  C7FC 00C0                muls.w     D3, 0xC0
00003370  204D                     movea.l    A0, A5
00003372  D1FC FFFE 42D4           add.l      A0, 0xFFFE42D4
00003378  2207                     move.l     D1, D7
0000337A  D241                     add.w      D1, D1
0000337C  D243                     add.w      D1, D3
0000337E  3180 1004                move.w     [A0 + D1.w + 0x4], D0
00003382  204D                     movea.l    A0, A5
00003384  D1FC FFFF 7A68           add.l      A0, 0xFFFF7A68
0000338A  3010                     move.w     D0, [A0]
0000338C  48C0                     ext.l      D0
0000338E  721C                     moveq.l    D1, 0x1C
00003390  D081                     add.l      D0, D1
00003392  48C7                     ext.l      D7
00003394  2606                     move.l     D3, D6
00003396  C7FC 00C0                muls.w     D3, 0xC0
0000339A  204D                     movea.l    A0, A5
0000339C  D1FC FFFE 42D4           add.l      A0, 0xFFFE42D4
000033A2  2207                     move.l     D1, D7
000033A4  D241                     add.w      D1, D1
000033A6  D243                     add.w      D1, D3
000033A8  3180 1008                move.w     [A0 + D1.w + 0x8], D0
000033AC  204D                     movea.l    A0, A5
000033AE  D1FC FFFF 7A68           add.l      A0, 0xFFFF7A68
000033B4  3010                     move.w     D0, [A0]
000033B6  48C0                     ext.l      D0
000033B8  720B                     moveq.l    D1, 0x0B
000033BA  D081                     add.l      D0, D1
000033BC  48C7                     ext.l      D7
000033BE  48C6                     ext.l      D6
000033C0  2606                     move.l     D3, D6
000033C2  C7FC 00C0                muls.w     D3, 0xC0
000033C6  204D                     movea.l    A0, A5
000033C8  D1FC FFFE 4454           add.l      A0, 0xFFFE4454
000033CE  2207                     move.l     D1, D7
000033D0  D241                     add.w      D1, D1
000033D2  D243                     add.w      D1, D3
000033D4  3180 1004                move.w     [A0 + D1.w + 0x4], D0
000033D8  204D                     movea.l    A0, A5
000033DA  D1FC FFFF 7A68           add.l      A0, 0xFFFF7A68
000033E0  3010                     move.w     D0, [A0]
000033E2  48C0                     ext.l      D0
000033E4  7210                     moveq.l    D1, 0x10
000033E6  D081                     add.l      D0, D1
000033E8  48C7                     ext.l      D7
000033EA  48C6                     ext.l      D6
000033EC  2606                     move.l     D3, D6
000033EE  C7FC 00C0                muls.w     D3, 0xC0
000033F2  204D                     movea.l    A0, A5
000033F4  D1FC FFFE 45D4           add.l      A0, 0xFFFE45D4
000033FA  2207                     move.l     D1, D7
000033FC  D241                     add.w      D1, D1
000033FE  D243                     add.w      D1, D3
00003400  3180 1002                move.w     [A0 + D1.w + 0x2], D0
label00003404:
00003404  48C7                     ext.l      D7
00003406  48C6                     ext.l      D6
00003408  2006                     move.l     D0, D6
0000340A  C1FC 00C0                muls.w     D0, 0xC0
0000340E  204D                     movea.l    A0, A5
00003410  D1FC FFFE 4454           add.l      A0, 0xFFFE4454
00003416  2207                     move.l     D1, D7
00003418  D241                     add.w      D1, D1
0000341A  D240                     add.w      D1, D0
0000341C  0270 BFFF 1002           andi.w     [A0 + D1.w + 0x2], 0xBFFF
00003422  48C6                     ext.l      D6
00003424  2006                     move.l     D0, D6
00003426  C1FC 00C0                muls.w     D0, 0xC0
0000342A  204D                     movea.l    A0, A5
0000342C  D1FC FFFE 4394           add.l      A0, 0xFFFE4394
00003432  2207                     move.l     D1, D7
00003434  D241                     add.w      D1, D1
00003436  D240                     add.w      D1, D0
00003438  0270 BFFF 1000           andi.w     [A0 + D1.w], 0xBFFF
0000343E  48C7                     ext.l      D7
00003440  2006                     move.l     D0, D6
00003442  C1FC 00C0                muls.w     D0, 0xC0
00003446  204D                     movea.l    A0, A5
00003448  D1FC FFFE 42D4           add.l      A0, 0xFFFE42D4
0000344E  2207                     move.l     D1, D7
00003450  D241                     add.w      D1, D1
00003452  D240                     add.w      D1, D0
00003454  0270 BFFF 1004           andi.w     [A0 + D1.w + 0x4], 0xBFFF
0000345A  48C7                     ext.l      D7
0000345C  2006                     move.l     D0, D6
0000345E  C1FC 00C0                muls.w     D0, 0xC0
00003462  204D                     movea.l    A0, A5
00003464  D1FC FFFE 42D4           add.l      A0, 0xFFFE42D4
0000346A  2207                     move.l     D1, D7
0000346C  D241                     add.w      D1, D1
0000346E  D240                     add.w      D1, D0
00003470  0270 BFFF 1008           andi.w     [A0 + D1.w + 0x8], 0xBFFF
00003476  48C7                     ext.l      D7
00003478  48C6                     ext.l      D6
0000347A  2006                     move.l     D0, D6
0000347C  C1FC 00C0                muls.w     D0, 0xC0
00003480  204D                     movea.l    A0, A5
00003482  D1FC FFFE 4454           add.l      A0, 0xFFFE4454
00003488  2207                     move.l     D1, D7
0000348A  D241                     add.w      D1, D1
0000348C  D240                     add.w      D1, D0
0000348E  0270 BFFF 1004           andi.w     [A0 + D1.w + 0x4], 0xBFFF
00003494  48C7                     ext.l      D7
00003496  48C6                     ext.l      D6
00003498  2006                     move.l     D0, D6
0000349A  C1FC 00C0                muls.w     D0, 0xC0
0000349E  204D                     movea.l    A0, A5
000034A0  D1FC FFFE 45D4           add.l      A0, 0xFFFE45D4
000034A6  2207                     move.l     D1, D7
000034A8  D241                     add.w      D1, D1
000034AA  D240                     add.w      D1, D0
000034AC  0270 BFFF 1002           andi.w     [A0 + D1.w + 0x2], 0xBFFF
000034B2  1005                     move.b     D0, D5
000034B4  5205                     addq.b     D5, 1
label000034B6:
000034B6  7000                     moveq.l    D0, 0x00
000034B8  1005                     move.b     D0, D5
000034BA  4A80                     tst.l      D0
000034BC  204D                     movea.l    A0, A5
000034BE  D1FC FFFE FC02           add.l      A0, 0xFFFEFC02
000034C4  1210                     move.b     D1, [A0]
000034C6  4881                     ext.w      D1
000034C8  B240                     cmp.w      D1, D0
000034CA  6E00 FD4C                bgt        -0x2B2 /* 00003218 */
000034CE  204D                     movea.l    A0, A5
000034D0  D1FC FFFD CEBE           add.l      A0, 0xFFFDCEBE
000034D6  224D                     movea.l    A1, A5
000034D8  D3FC FFFD CE4E           add.l      A1, 0xFFFDCE4E
000034DE  2290                     move.l     [A1], [A0]
label000034E0:
000034E0  4246                     clr.w      D6
000034E2  7660                     moveq.l    D3, 0x60
label000034E4:
000034E4  4247                     clr.w      D7
label000034E6:
000034E6  2006                     move.l     D0, D6
000034E8  C1FC 00C0                muls.w     D0, 0xC0
000034EC  204D                     movea.l    A0, A5
000034EE  D1FC FFFE 42D4           add.l      A0, 0xFFFE42D4
000034F4  2207                     move.l     D1, D7
000034F6  D241                     add.w      D1, D1
000034F8  D240                     add.w      D1, D0
000034FA  0270 BFFF 1000           andi.w     [A0 + D1.w], 0xBFFF
00003500  3007                     move.w     D0, D7
00003502  5247                     addq.w     D7, 1
00003504  B647                     cmp.w      D3, D7
00003506  6EDE                     bgt        -0x20 /* 000034E6 */
00003508  3006                     move.w     D0, D6
0000350A  5246                     addq.w     D6, 1
0000350C  B646                     cmp.w      D3, D6
0000350E  6ED4                     bgt        -0x2A /* 000034E4 */
00003510  204D                     movea.l    A0, A5
00003512  D1FC FFFF 7868           add.l      A0, 0xFFFF7868
00003518  2050                     movea.l    A0, [A0]
0000351A  2D48 FFFC                move.l     [A6 - 0x4], A0
0000351E  2868 0128                movea.l    A4, [A0 + 0x128]
00003522  7000                     moveq.l    D0, 0x00
00003524  2640                     movea.l    A3, D0
00003526  2F0B                     move.l     -[A7], A3
00003528  2F0C                     move.l     -[A7], A4
0000352A  2F3C 454D 6F76           move.l     -[A7], 0x454D6F76 /* 'EMov' */
00003530  206C 00F0                movea.l    A0, [A4 + 0xF0]
00003534  2248                     movea.l    A1, A0
00003536  2269 0060                movea.l    A1, [A1 + 0x60]
0000353A  D0E9 0058                add.w      A0, [A1 + 0x58]
0000353E  2F08                     move.l     -[A7], A0
00003540  206C 00F0                movea.l    A0, [A4 + 0xF0]
00003544  2068 0060                movea.l    A0, [A0 + 0x60]
00003548  2268 005C                movea.l    A1, [A0 + 0x5C]
0000354C  4E91                     jsr        [A1]
0000354E  4FEF 0010                lea.l      A7, [A7 + 0x10]
label00003552:
00003552  4CEE 18E8 FFE0           movem.l    D3,D5,D6,D7,A3,A4, [A6 - 0x20]
00003558  4E5E                     unlink     A6
0000355A  4E75                     rts
0000355C  8E73 696D 7374 6164 6... dc.b       "simstadium__Fv"
fn0000356E:
0000356E  4E56 FFFE                link       A6, -0x0002
00003572  48E7 1F00                movem.l    -[A7], D3,D4,D5,D6,D7
00003576  4246                     clr.w      D6
00003578  4246                     clr.w      D6
0000357A  4246                     clr.w      D6
0000357C  204D                     movea.l    A0, A5
0000357E  D1FC FFFD 71EA           add.l      A0, 0xFFFD71EA
00003584  4A50                     tst.w      [A0]
00003586  6606                     bne        +0x8 /* 0000358E */
00003588  7000                     moveq.l    D0, 0x00
0000358A  6000 04F8                bra        +0x4FA /* 00003A84 */
label0000358E:
0000358E  204D                     movea.l    A0, A5
00003590  D1FC FFFD CEBE           add.l      A0, 0xFFFDCEBE
00003596  2010                     move.l     D0, [A0]
00003598  204D                     movea.l    A0, A5
0000359A  D1FC FFFD CE3A           add.l      A0, 0xFFFDCE3A
000035A0  9090                     sub.l      D0, [A0]
000035A2  0C80 0000 012C           cmpi.l     D0, 0x12C
000035A8  6300 01CE                bls        +0x1D0 /* 00003778 */
000035AC  4246                     clr.w      D6
000035AE  7604                     moveq.l    D3, 0x04
label000035B0:
000035B0  204D                     movea.l    A0, A5
000035B2  D1FC FFFD 719E           add.l      A0, 0xFFFD719E
000035B8  4230 6000                clr.b      [A0 + D6.w]
000035BC  2006                     move.l     D0, D6
000035BE  E540                     asl        D0.w, 2
000035C0  204D                     movea.l    A0, A5
000035C2  D1FC FFFD 718E           add.l      A0, 0xFFFD718E
000035C8  4270 0000                clr.w      [A0 + D0.w]
000035CC  2006                     move.l     D0, D6
000035CE  E540                     asl        D0.w, 2
000035D0  204D                     movea.l    A0, A5
000035D2  D1FC FFFD 718E           add.l      A0, 0xFFFD718E
000035D8  4270 0002                clr.w      [A0 + D0.w + 0x2]
000035DC  3006                     move.w     D0, D6
000035DE  5246                     addq.w     D6, 1
000035E0  B646                     cmp.w      D3, D6
000035E2  6ECC                     bgt        -0x32 /* 000035B0 */
000035E4  426E FFFE                clr.w      [A6 - 0x2]
000035E8  7E01                     moveq.l    D7, 0x01
000035EA  6000 00BA                bra        +0xBC /* 000036A6 */
label000035EE:
000035EE  2007                     move.l     D0, D7
000035F0  C1FC 0022                muls.w     D0, 0x22 /* '\"' */
000035F4  204D                     movea.l    A0, A5
000035F6  D1FC FFFD 71EC           add.l      A0, 0xFFFD71EC
000035FC  7200                     moveq.l    D1, 0x00
000035FE  3230 0002                move.w     D1, [A0 + D0.w + 0x2]
00003602  7020                     moveq.l    D0, 0x20
00003604  C041                     and.w      D0, D1
00003606  6700 009A                beq        +0x9C /* 000036A2 */
0000360A  2007                     move.l     D0, D7
0000360C  C1FC 0022                muls.w     D0, 0x22 /* '\"' */
00003610  204D                     movea.l    A0, A5
00003612  D1FC FFFD 71EC           add.l      A0, 0xFFFD71EC
00003618  7200                     moveq.l    D1, 0x00
0000361A  3230 0006                move.w     D1, [A0 + D0.w + 0x6]
0000361E  E541                     asl        D1.w, 2
00003620  204D                     movea.l    A0, A5
00003622  D1FC FFFD 6F0A           add.l      A0, 0xFFFD6F0A
00003628  2007                     move.l     D0, D7
0000362A  C1FC 0022                muls.w     D0, 0x22 /* '\"' */
0000362E  224D                     movea.l    A1, A5
00003630  D3FC FFFD 71EC           add.l      A1, 0xFFFD71EC
00003636  7400                     moveq.l    D2, 0x00
00003638  1431 0000                move.b     D2, [A1 + D0.w]
0000363C  D570 1000                add.w      [A0 + D1.w], D2
00003640  2007                     move.l     D0, D7
00003642  C1FC 0022                muls.w     D0, 0x22 /* '\"' */
00003646  204D                     movea.l    A0, A5
00003648  D1FC FFFD 71EC           add.l      A0, 0xFFFD71EC
0000364E  7200                     moveq.l    D1, 0x00
00003650  3230 0006                move.w     D1, [A0 + D0.w + 0x6]
00003654  E541                     asl        D1.w, 2
00003656  204D                     movea.l    A0, A5
00003658  D1FC FFFD 6F0A           add.l      A0, 0xFFFD6F0A
0000365E  2007                     move.l     D0, D7
00003660  C1FC 0022                muls.w     D0, 0x22 /* '\"' */
00003664  224D                     movea.l    A1, A5
00003666  D3FC FFFD 71EC           add.l      A1, 0xFFFD71EC
0000366C  7400                     moveq.l    D2, 0x00
0000366E  1431 0001                move.b     D2, [A1 + D0.w + 0x1]
00003672  D570 1002                add.w      [A0 + D1.w + 0x2], D2
00003676  2007                     move.l     D0, D7
00003678  C1FC 0022                muls.w     D0, 0x22 /* '\"' */
0000367C  204D                     movea.l    A0, A5
0000367E  D1FC FFFD 71EC           add.l      A0, 0xFFFD71EC
00003684  7200                     moveq.l    D1, 0x00
00003686  3230 0006                move.w     D1, [A0 + D0.w + 0x6]
0000368A  204D                     movea.l    A0, A5
0000368C  D1FC FFFD 70FD           add.l      A0, 0xFFFD70FD
00003692  1030 1000                move.b     D0, [A0 + D1.w]
00003696  5230 1000                addq.b     [A0 + D1.w], 1
0000369A  302E FFFE                move.w     D0, [A6 - 0x2]
0000369E  526E FFFE                addq.w     [A6 - 0x2], 1
label000036A2:
000036A2  3007                     move.w     D0, D7
000036A4  5247                     addq.w     D7, 1
label000036A6:
000036A6  302E FFFE                move.w     D0, [A6 - 0x2]
000036AA  204D                     movea.l    A0, A5
000036AC  D1FC FFFD 71EA           add.l      A0, 0xFFFD71EA
000036B2  B050                     cmp.w      D0, [A0]
000036B4  6D00 FF38                blt        -0xC6 /* 000035EE */
000036B8  4246                     clr.w      D6
label000036BA:
000036BA  204D                     movea.l    A0, A5
000036BC  D1FC FFFD 719E           add.l      A0, 0xFFFD719E
000036C2  4A30 6000                tst.b      [A0 + D6.w]
000036C6  6F00 0092                ble        +0x94 /* 0000375A */
000036CA  2006                     move.l     D0, D6
000036CC  E540                     asl        D0.w, 2
000036CE  204D                     movea.l    A0, A5
000036D0  D1FC FFFD 718E           add.l      A0, 0xFFFD718E
000036D6  224D                     movea.l    A1, A5
000036D8  D3FC FFFD 719E           add.l      A1, 0xFFFD719E
000036DE  1231 6000                move.b     D1, [A1 + D6.w]
000036E2  4881                     ext.w      D1
000036E4  7400                     moveq.l    D2, 0x00
000036E6  3430 0000                move.w     D2, [A0 + D0.w]
000036EA  84C1                     divu.w     D2, D1
000036EC  3182 0000                move.w     [A0 + D0.w], D2
000036F0  2006                     move.l     D0, D6
000036F2  E540                     asl        D0.w, 2
000036F4  204D                     movea.l    A0, A5
000036F6  D1FC FFFD 718E           add.l      A0, 0xFFFD718E
000036FC  224D                     movea.l    A1, A5
000036FE  D3FC FFFD 719E           add.l      A1, 0xFFFD719E
00003704  1231 6000                move.b     D1, [A1 + D6.w]
00003708  4881                     ext.w      D1
0000370A  7400                     moveq.l    D2, 0x00
0000370C  3430 0002                move.w     D2, [A0 + D0.w + 0x2]
00003710  84C1                     divu.w     D2, D1
00003712  3182 0002                move.w     [A0 + D0.w + 0x2], D2
00003716  2006                     move.l     D0, D6
00003718  E540                     asl        D0.w, 2
0000371A  204D                     movea.l    A0, A5
0000371C  D1FC FFFD 718E           add.l      A0, 0xFFFD718E
00003722  48E7 8080                movem.l    -[A7], D0,A0
00003726  558F                     subq.l     A7, 2
00003728  A861                     syscall    Random
0000372A  321F                     move.w     D1, [A7]+
0000372C  4CDF 0101                movem.l    D0,A0, [A7]+
00003730  7403                     moveq.l    D2, 0x03
00003732  C441                     and.w      D2, D1
00003734  D570 0000                add.w      [A0 + D0.w], D2
00003738  2006                     move.l     D0, D6
0000373A  E540                     asl        D0.w, 2
0000373C  204D                     movea.l    A0, A5
0000373E  D1FC FFFD 718E           add.l      A0, 0xFFFD718E
00003744  48E7 8080                movem.l    -[A7], D0,A0
00003748  558F                     subq.l     A7, 2
0000374A  A861                     syscall    Random
0000374C  321F                     move.w     D1, [A7]+
0000374E  4CDF 0101                movem.l    D0,A0, [A7]+
00003752  7403                     moveq.l    D2, 0x03
00003754  C441                     and.w      D2, D1
00003756  D570 0002                add.w      [A0 + D0.w + 0x2], D2
label0000375A:
0000375A  3006                     move.w     D0, D6
0000375C  5246                     addq.w     D6, 1
0000375E  0C46 0004                cmpi.w     D6, 0x4
00003762  6D00 FF56                blt        -0xA8 /* 000036BA */
00003766  204D                     movea.l    A0, A5
00003768  D1FC FFFD CEBE           add.l      A0, 0xFFFDCEBE
0000376E  224D                     movea.l    A1, A5
00003770  D3FC FFFD CE3A           add.l      A1, 0xFFFDCE3A
00003776  2290                     move.l     [A1], [A0]
label00003778:
00003778  204D                     movea.l    A0, A5
0000377A  D1FC FFFD CEBE           add.l      A0, 0xFFFDCEBE
00003780  2010                     move.l     D0, [A0]
00003782  204D                     movea.l    A0, A5
00003784  D1FC FFFD CE3E           add.l      A0, 0xFFFDCE3E
0000378A  9090                     sub.l      D0, [A0]
0000378C  204D                     movea.l    A0, A5
0000378E  D1FC FFFD CE36           add.l      A0, 0xFFFDCE36
00003794  B090                     cmp.l      D0, [A0]
00003796  6406                     bcc        +0x8 /* 0000379E */
00003798  7000                     moveq.l    D0, 0x00
0000379A  6000 02E8                bra        +0x2EA /* 00003A84 */
label0000379E:
0000379E  426E FFFE                clr.w      [A6 - 0x2]
000037A2  7E01                     moveq.l    D7, 0x01
000037A4  6000 02B8                bra        +0x2BA /* 00003A5E */
label000037A8:
000037A8  2007                     move.l     D0, D7
000037AA  C1FC 0022                muls.w     D0, 0x22 /* '\"' */
000037AE  204D                     movea.l    A0, A5
000037B0  D1FC FFFD 71EC           add.l      A0, 0xFFFD71EC
000037B6  7200                     moveq.l    D1, 0x00
000037B8  3230 0002                move.w     D1, [A0 + D0.w + 0x2]
000037BC  7020                     moveq.l    D0, 0x20
000037BE  C041                     and.w      D0, D1
000037C0  6700 0298                beq        +0x29A /* 00003A5A */
000037C4  2007                     move.l     D0, D7
000037C6  C1FC 0022                muls.w     D0, 0x22 /* '\"' */
000037CA  204D                     movea.l    A0, A5
000037CC  D1FC FFFD 71EC           add.l      A0, 0xFFFD71EC
000037D2  7200                     moveq.l    D1, 0x00
000037D4  3230 0002                move.w     D1, [A0 + D0.w + 0x2]
000037D8  7004                     moveq.l    D0, 0x04
000037DA  C041                     and.w      D0, D1
000037DC  6700 0228                beq        +0x22A /* 00003A06 */
000037E0  2007                     move.l     D0, D7
000037E2  C1FC 0022                muls.w     D0, 0x22 /* '\"' */
000037E6  204D                     movea.l    A0, A5
000037E8  D1FC FFFD 71EC           add.l      A0, 0xFFFD71EC
000037EE  4230 000E                clr.b      [A0 + D0.w + 0xE]
000037F2  558F                     subq.l     A7, 2
000037F4  A861                     syscall    Random
000037F6  7007                     moveq.l    D0, 0x07
000037F8  C05F                     and.w      D0, [A7]+
000037FA  7200                     moveq.l    D1, 0x00
000037FC  3200                     move.w     D1, D0
000037FE  7005                     moveq.l    D0, 0x05
00003800  B081                     cmp.l      D0, D1
00003802  6600 024E                bne        +0x250 /* 00003A52 */
00003806  2007                     move.l     D0, D7
00003808  C1FC 0022                muls.w     D0, 0x22 /* '\"' */
0000380C  204D                     movea.l    A0, A5
0000380E  D1FC FFFD 71EC           add.l      A0, 0xFFFD71EC
00003814  3830 0010                move.w     D4, [A0 + D0.w + 0x10]
00003818  2004                     move.l     D0, D4
0000381A  C1FC 0046                muls.w     D0, 0x46 /* 'F' */
0000381E  204D                     movea.l    A0, A5
00003820  D1FC FFFE D880           add.l      A0, 0xFFFED880
00003826  7A00                     moveq.l    D5, 0x00
00003828  1A30 0004                move.b     D5, [A0 + D0.w + 0x4]
0000382C  2004                     move.l     D0, D4
0000382E  C1FC 0046                muls.w     D0, 0x46 /* 'F' */
00003832  204D                     movea.l    A0, A5
00003834  D1FC FFFE D880           add.l      A0, 0xFFFED880
0000383A  7C00                     moveq.l    D6, 0x00
0000383C  1C30 0005                move.b     D6, [A0 + D0.w + 0x5]
00003840  48C6                     ext.l      D6
00003842  2F06                     move.l     -[A7], D6
00003844  3005                     move.w     D0, D5
00003846  5340                     subq.w     D0, 1
00003848  48C0                     ext.l      D0
0000384A  2F00                     move.l     -[A7], D0
0000384C  4EAD 0282                jsr        [A5 + 0x282 /* export_76, CODE:3 @ 000025C4 */]
00003850  4A40                     tst.w      D0
00003852  504F                     addq.w     A7, 8
00003854  677A                     beq        +0x7C /* 000038D0 */
00003856  2007                     move.l     D0, D7
00003858  C1FC 0022                muls.w     D0, 0x22 /* '\"' */
0000385C  204D                     movea.l    A0, A5
0000385E  D1FC FFFD 71EC           add.l      A0, 0xFFFD71EC
00003864  7200                     moveq.l    D1, 0x00
00003866  1230 0001                move.b     D1, [A0 + D0.w + 0x1]
0000386A  2F01                     move.l     -[A7], D1
0000386C  2007                     move.l     D0, D7
0000386E  C1FC 0022                muls.w     D0, 0x22 /* '\"' */
00003872  204D                     movea.l    A0, A5
00003874  D1FC FFFD 71EC           add.l      A0, 0xFFFD71EC
0000387A  7200                     moveq.l    D1, 0x00
0000387C  1230 0000                move.b     D1, [A0 + D0.w]
00003880  2F01                     move.l     -[A7], D1
00003882  48C4                     ext.l      D4
00003884  2F04                     move.l     -[A7], D4
00003886  4EAD 0952                jsr        [A5 + 0x952 /* export_294, CODE:16 @ 00001AD8 */]
0000388A  2007                     move.l     D0, D7
0000388C  C1FC 0022                muls.w     D0, 0x22 /* '\"' */
00003890  204D                     movea.l    A0, A5
00003892  D1FC FFFD 71EC           add.l      A0, 0xFFFD71EC
00003898  0270 FFFB 0002           andi.w     [A0 + D0.w + 0x2], 0xFFFB
0000389E  48C5                     ext.l      D5
000038A0  2005                     move.l     D0, D5
000038A2  5380                     subq.l     D0, 1
000038A4  2207                     move.l     D1, D7
000038A6  C3FC 0022                muls.w     D1, 0x22 /* '\"' */
000038AA  204D                     movea.l    A0, A5
000038AC  D1FC FFFD 71EC           add.l      A0, 0xFFFD71EC
000038B2  1180 1000                move.b     [A0 + D1.w], D0
000038B6  2007                     move.l     D0, D7
000038B8  C1FC 0022                muls.w     D0, 0x22 /* '\"' */
000038BC  204D                     movea.l    A0, A5
000038BE  D1FC FFFD 71EC           add.l      A0, 0xFFFD71EC
000038C4  1186 0001                move.b     [A0 + D0.w + 0x1], D6
000038C8  4FEF 000C                lea.l      A7, [A7 + 0xC]
000038CC  6000 0184                bra        +0x186 /* 00003A52 */
label000038D0:
000038D0  3006                     move.w     D0, D6
000038D2  5240                     addq.w     D0, 1
000038D4  48C0                     ext.l      D0
000038D6  2F00                     move.l     -[A7], D0
000038D8  3005                     move.w     D0, D5
000038DA  5340                     subq.w     D0, 1
000038DC  48C0                     ext.l      D0
000038DE  2F00                     move.l     -[A7], D0
000038E0  4EAD 0282                jsr        [A5 + 0x282 /* export_76, CODE:3 @ 000025C4 */]
000038E4  4A40                     tst.w      D0
000038E6  504F                     addq.w     A7, 8
000038E8  6700 0082                beq        +0x84 /* 0000396C */
000038EC  2007                     move.l     D0, D7
000038EE  C1FC 0022                muls.w     D0, 0x22 /* '\"' */
000038F2  204D                     movea.l    A0, A5
000038F4  D1FC FFFD 71EC           add.l      A0, 0xFFFD71EC
000038FA  7200                     moveq.l    D1, 0x00
000038FC  1230 0001                move.b     D1, [A0 + D0.w + 0x1]
00003900  2F01                     move.l     -[A7], D1
00003902  2007                     move.l     D0, D7
00003904  C1FC 0022                muls.w     D0, 0x22 /* '\"' */
00003908  204D                     movea.l    A0, A5
0000390A  D1FC FFFD 71EC           add.l      A0, 0xFFFD71EC
00003910  7200                     moveq.l    D1, 0x00
00003912  1230 0000                move.b     D1, [A0 + D0.w]
00003916  2F01                     move.l     -[A7], D1
00003918  48C4                     ext.l      D4
0000391A  2F04                     move.l     -[A7], D4
0000391C  4EAD 0952                jsr        [A5 + 0x952 /* export_294, CODE:16 @ 00001AD8 */]
00003920  2007                     move.l     D0, D7
00003922  C1FC 0022                muls.w     D0, 0x22 /* '\"' */
00003926  204D                     movea.l    A0, A5
00003928  D1FC FFFD 71EC           add.l      A0, 0xFFFD71EC
0000392E  0270 FFFB 0002           andi.w     [A0 + D0.w + 0x2], 0xFFFB
00003934  48C5                     ext.l      D5
00003936  2005                     move.l     D0, D5
00003938  5380                     subq.l     D0, 1
0000393A  2207                     move.l     D1, D7
0000393C  C3FC 0022                muls.w     D1, 0x22 /* '\"' */
00003940  204D                     movea.l    A0, A5
00003942  D1FC FFFD 71EC           add.l      A0, 0xFFFD71EC
00003948  1180 1000                move.b     [A0 + D1.w], D0
0000394C  48C6                     ext.l      D6
0000394E  2006                     move.l     D0, D6
00003950  5280                     addq.l     D0, 1
00003952  2207                     move.l     D1, D7
00003954  C3FC 0022                muls.w     D1, 0x22 /* '\"' */
00003958  204D                     movea.l    A0, A5
0000395A  D1FC FFFD 71EC           add.l      A0, 0xFFFD71EC
00003960  1180 1001                move.b     [A0 + D1.w + 0x1], D0
00003964  4FEF 000C                lea.l      A7, [A7 + 0xC]
00003968  6000 00E8                bra        +0xEA /* 00003A52 */
label0000396C:
0000396C  3006                     move.w     D0, D6
0000396E  5440                     addq.w     D0, 2
00003970  48C0                     ext.l      D0
00003972  2F00                     move.l     -[A7], D0
00003974  3005                     move.w     D0, D5
00003976  5340                     subq.w     D0, 1
00003978  48C0                     ext.l      D0
0000397A  2F00                     move.l     -[A7], D0
0000397C  4EAD 0282                jsr        [A5 + 0x282 /* export_76, CODE:3 @ 000025C4 */]
00003980  4A40                     tst.w      D0
00003982  504F                     addq.w     A7, 8
00003984  6700 00CC                beq        +0xCE /* 00003A52 */
00003988  2007                     move.l     D0, D7
0000398A  C1FC 0022                muls.w     D0, 0x22 /* '\"' */
0000398E  204D                     movea.l    A0, A5
00003990  D1FC FFFD 71EC           add.l      A0, 0xFFFD71EC
00003996  7200                     moveq.l    D1, 0x00
00003998  1230 0001                move.b     D1, [A0 + D0.w + 0x1]
0000399C  2F01                     move.l     -[A7], D1
0000399E  2007                     move.l     D0, D7
000039A0  C1FC 0022                muls.w     D0, 0x22 /* '\"' */
000039A4  204D                     movea.l    A0, A5
000039A6  D1FC FFFD 71EC           add.l      A0, 0xFFFD71EC
000039AC  7200                     moveq.l    D1, 0x00
000039AE  1230 0000                move.b     D1, [A0 + D0.w]
000039B2  2F01                     move.l     -[A7], D1
000039B4  48C4                     ext.l      D4
000039B6  2F04                     move.l     -[A7], D4
000039B8  4EAD 0952                jsr        [A5 + 0x952 /* export_294, CODE:16 @ 00001AD8 */]
000039BC  2007                     move.l     D0, D7
000039BE  C1FC 0022                muls.w     D0, 0x22 /* '\"' */
000039C2  204D                     movea.l    A0, A5
000039C4  D1FC FFFD 71EC           add.l      A0, 0xFFFD71EC
000039CA  0270 FFFB 0002           andi.w     [A0 + D0.w + 0x2], 0xFFFB
000039D0  48C5                     ext.l      D5
000039D2  2005                     move.l     D0, D5
000039D4  5380                     subq.l     D0, 1
000039D6  2207                     move.l     D1, D7
000039D8  C3FC 0022                muls.w     D1, 0x22 /* '\"' */
000039DC  204D                     movea.l    A0, A5
000039DE  D1FC FFFD 71EC           add.l      A0, 0xFFFD71EC
000039E4  1180 1000                move.b     [A0 + D1.w], D0
000039E8  48C6                     ext.l      D6
000039EA  2006                     move.l     D0, D6
000039EC  5480                     addq.l     D0, 2
000039EE  2207                     move.l     D1, D7
000039F0  C3FC 0022                muls.w     D1, 0x22 /* '\"' */
000039F4  204D                     movea.l    A0, A5
000039F6  D1FC FFFD 71EC           add.l      A0, 0xFFFD71EC
000039FC  1180 1001                move.b     [A0 + D1.w + 0x1], D0
00003A00  4FEF 000C                lea.l      A7, [A7 + 0xC]
00003A04  604C                     bra        +0x4E /* 00003A52 */
label00003A06:
00003A06  2007                     move.l     D0, D7
00003A08  C1FC 0022                muls.w     D0, 0x22 /* '\"' */
00003A0C  204D                     movea.l    A0, A5
00003A0E  D1FC FFFD 71EC           add.l      A0, 0xFFFD71EC
00003A14  7200                     moveq.l    D1, 0x00
00003A16  3230 0006                move.w     D1, [A0 + D0.w + 0x6]
00003A1A  C3FC 0012                muls.w     D1, 0x12
00003A1E  204D                     movea.l    A0, A5
00003A20  D1FC FFFE 90C4           add.l      A0, 0xFFFE90C4
00003A26  7000                     moveq.l    D0, 0x00
00003A28  1030 1000                move.b     D0, [A0 + D1.w]
00003A2C  D040                     add.w      D0, D0
00003A2E  204D                     movea.l    A0, A5
00003A30  D1FC FFFF 7942           add.l      A0, 0xFFFF7942
00003A36  3030 0000                move.w     D0, [A0 + D0.w]
00003A3A  48C0                     ext.l      D0
00003A3C  2F00                     move.l     -[A7], D0
00003A3E  48C7                     ext.l      D7
00003A40  2F07                     move.l     -[A7], D7
00003A42  4EAD 024A                jsr        [A5 + 0x24A /* export_69, CODE:3 @ 000001EA */]
00003A46  48C7                     ext.l      D7
00003A48  2F07                     move.l     -[A7], D7
00003A4A  4EAD 0262                jsr        [A5 + 0x262 /* export_72, CODE:3 @ 000016CE */]
00003A4E  4FEF 000C                lea.l      A7, [A7 + 0xC]
label00003A52:
00003A52  302E FFFE                move.w     D0, [A6 - 0x2]
00003A56  526E FFFE                addq.w     [A6 - 0x2], 1
label00003A5A:
00003A5A  3007                     move.w     D0, D7
00003A5C  5247                     addq.w     D7, 1
label00003A5E:
00003A5E  302E FFFE                move.w     D0, [A6 - 0x2]
00003A62  204D                     movea.l    A0, A5
00003A64  D1FC FFFD 71EA           add.l      A0, 0xFFFD71EA
00003A6A  B050                     cmp.w      D0, [A0]
00003A6C  6D00 FD3A                blt        -0x2C4 /* 000037A8 */
00003A70  204D                     movea.l    A0, A5
00003A72  D1FC FFFD CEBE           add.l      A0, 0xFFFDCEBE
00003A78  224D                     movea.l    A1, A5
00003A7A  D3FC FFFD CE3E           add.l      A1, 0xFFFDCE3E
00003A80  2290                     move.l     [A1], [A0]
00003A82  7000                     moveq.l    D0, 0x00
label00003A84:
00003A84  4CEE 00F8 FFEA           movem.l    D3,D4,D5,D6,D7, [A6 - 0x16]
00003A8A  4E5E                     unlink     A6
00003A8C  4E75                     rts
00003A8E  8F73 696D 616E 696D 6... dc.b       "simanimal__FsT1"
export_258:
fn00003AA0:
00003AA0  4E56 FFF2                link       A6, -0x000E
00003AA4  48E7 1F18                movem.l    -[A7], D3,D4,D5,D6,D7,A3,A4
00003AA8  42AE FFF4                clr.l      [A6 - 0xC]
00003AAC  42AE FFF8                clr.l      [A6 - 0x8]
00003AB0  204D                     movea.l    A0, A5
00003AB2  D1FC FFFE 8AE8           add.l      A0, 0xFFFE8AE8
00003AB8  4A10                     tst.b      [A0]
00003ABA  6706                     beq        +0x8 /* 00003AC2 */
00003ABC  7000                     moveq.l    D0, 0x00
00003ABE  6000 0A5C                bra        +0xA5E /* 0000451C */
label00003AC2:
00003AC2  204D                     movea.l    A0, A5
00003AC4  D1FC FFFD CEBE           add.l      A0, 0xFFFDCEBE
00003ACA  2010                     move.l     D0, [A0]
00003ACC  204D                     movea.l    A0, A5
00003ACE  D1FC FFFD CE52           add.l      A0, 0xFFFDCE52
00003AD4  9090                     sub.l      D0, [A0]
00003AD6  721E                     moveq.l    D1, 0x1E
00003AD8  B280                     cmp.l      D1, D0
00003ADA  6306                     bls        +0x8 /* 00003AE2 */
00003ADC  7000                     moveq.l    D0, 0x00
00003ADE  6000 0A3C                bra        +0xA3E /* 0000451C */
label00003AE2:
00003AE2  486E FFFA                pea.l      [A6 - 0x6]
00003AE6  486E FFF8                pea.l      [A6 - 0x8]
00003AEA  486E FFF6                pea.l      [A6 - 0xA]
00003AEE  486E FFF4                pea.l      [A6 - 0xC]
00003AF2  224D                     movea.l    A1, A5
00003AF4  D3FC FFFF 7868           add.l      A1, 0xFFFF7868
00003AFA  2051                     movea.l    A0, [A1]
00003AFC  2068 0128                movea.l    A0, [A0 + 0x128]
00003B00  2068 00F0                movea.l    A0, [A0 + 0xF0]
00003B04  2F28 01E0                move.l     -[A7], [A0 + 0x1E0]
00003B08  4EAD 0722                jsr        [A5 + 0x722 /* export_224, CODE:12 @ 000042D2 */]
00003B0C  3C2E FFF4                move.w     D6, [A6 - 0xC]
00003B10  4FEF 0014                lea.l      A7, [A7 + 0x14]
00003B14  6000 09AA                bra        +0x9AC /* 000044C0 */
label00003B18:
00003B18  3E2E FFF6                move.w     D7, [A6 - 0xA]
00003B1C  6000 0996                bra        +0x998 /* 000044B4 */
label00003B20:
00003B20  2006                     move.l     D0, D6
00003B22  C1FC 00C0                muls.w     D0, 0xC0
00003B26  204D                     movea.l    A0, A5
00003B28  D1FC FFFE 42D4           add.l      A0, 0xFFFE42D4
00003B2E  2207                     move.l     D1, D7
00003B30  D241                     add.w      D1, D1
00003B32  D240                     add.w      D1, D0
00003B34  7000                     moveq.l    D0, 0x00
00003B36  3030 1000                move.w     D0, [A0 + D1.w]
00003B3A  323C 07FF                move.w     D1, 0x7FF
00003B3E  C240                     and.w      D1, D0
00003B40  3D41 FFF2                move.w     [A6 - 0xE], D1
00003B44  2006                     move.l     D0, D6
00003B46  C1FC 00C0                muls.w     D0, 0xC0
00003B4A  204D                     movea.l    A0, A5
00003B4C  D1FC FFFD FAD4           add.l      A0, 0xFFFDFAD4
00003B52  2207                     move.l     D1, D7
00003B54  D241                     add.w      D1, D1
00003B56  D240                     add.w      D1, D0
00003B58  7000                     moveq.l    D0, 0x00
00003B5A  3030 1000                move.w     D0, [A0 + D1.w]
00003B5E  383C 07FF                move.w     D4, 0x7FF
00003B62  C840                     and.w      D4, D0
00003B64  0C44 040C                cmpi.w     D4, 0x40C
00003B68  6678                     bne        +0x7A /* 00003BE2 */
00003B6A  2006                     move.l     D0, D6
00003B6C  C1FC 00C0                muls.w     D0, 0xC0
00003B70  204D                     movea.l    A0, A5
00003B72  D1FC FFFD FAD4           add.l      A0, 0xFFFDFAD4
00003B78  2207                     move.l     D1, D7
00003B7A  D241                     add.w      D1, D1
00003B7C  D240                     add.w      D1, D0
00003B7E  7000                     moveq.l    D0, 0x00
00003B80  3030 1000                move.w     D0, [A0 + D1.w]
00003B84  323C F800                move.w     D1, 0xF800
00003B88  C240                     and.w      D1, D0
00003B8A  7000                     moveq.l    D0, 0x00
00003B8C  3001                     move.w     D0, D1
00003B8E  323C 040D                move.w     D1, 0x40D
00003B92  8240                     or.w       D1, D0
00003B94  2006                     move.l     D0, D6
00003B96  C1FC 00C0                muls.w     D0, 0xC0
00003B9A  204D                     movea.l    A0, A5
00003B9C  D1FC FFFD FAD4           add.l      A0, 0xFFFDFAD4
00003BA2  2407                     move.l     D2, D7
00003BA4  D442                     add.w      D2, D2
00003BA6  D440                     add.w      D2, D0
00003BA8  3181 2000                move.w     [A0 + D2.w], D1
00003BAC  2006                     move.l     D0, D6
00003BAE  C1FC 00C0                muls.w     D0, 0xC0
00003BB2  204D                     movea.l    A0, A5
00003BB4  D1FC FFFE 42D4           add.l      A0, 0xFFFE42D4
00003BBA  2207                     move.l     D1, D7
00003BBC  D241                     add.w      D1, D1
00003BBE  D240                     add.w      D1, D0
00003BC0  0270 BFFF 1000           andi.w     [A0 + D1.w], 0xBFFF
00003BC6  2006                     move.l     D0, D6
00003BC8  C1FC 00C0                muls.w     D0, 0xC0
00003BCC  204D                     movea.l    A0, A5
00003BCE  D1FC FFFE 42D4           add.l      A0, 0xFFFE42D4
00003BD4  2207                     move.l     D1, D7
00003BD6  D241                     add.w      D1, D1
00003BD8  D240                     add.w      D1, D0
00003BDA  0270 BFFF 1000           andi.w     [A0 + D1.w], 0xBFFF
00003BE0  607C                     bra        +0x7E /* 00003C5E */
label00003BE2:
00003BE2  0C44 040D                cmpi.w     D4, 0x40D
00003BE6  6676                     bne        +0x78 /* 00003C5E */
00003BE8  2006                     move.l     D0, D6
00003BEA  C1FC 00C0                muls.w     D0, 0xC0
00003BEE  204D                     movea.l    A0, A5
00003BF0  D1FC FFFD FAD4           add.l      A0, 0xFFFDFAD4
00003BF6  2207                     move.l     D1, D7
00003BF8  D241                     add.w      D1, D1
00003BFA  D240                     add.w      D1, D0
00003BFC  7000                     moveq.l    D0, 0x00
00003BFE  3030 1000                move.w     D0, [A0 + D1.w]
00003C02  323C F800                move.w     D1, 0xF800
00003C06  C240                     and.w      D1, D0
00003C08  7000                     moveq.l    D0, 0x00
00003C0A  3001                     move.w     D0, D1
00003C0C  323C 040C                move.w     D1, 0x40C
00003C10  8240                     or.w       D1, D0
00003C12  2006                     move.l     D0, D6
00003C14  C1FC 00C0                muls.w     D0, 0xC0
00003C18  204D                     movea.l    A0, A5
00003C1A  D1FC FFFD FAD4           add.l      A0, 0xFFFDFAD4
00003C20  2407                     move.l     D2, D7
00003C22  D442                     add.w      D2, D2
00003C24  D440                     add.w      D2, D0
00003C26  3181 2000                move.w     [A0 + D2.w], D1
00003C2A  2006                     move.l     D0, D6
00003C2C  C1FC 00C0                muls.w     D0, 0xC0
00003C30  204D                     movea.l    A0, A5
00003C32  D1FC FFFE 42D4           add.l      A0, 0xFFFE42D4
00003C38  2207                     move.l     D1, D7
00003C3A  D241                     add.w      D1, D1
00003C3C  D240                     add.w      D1, D0
00003C3E  0270 BFFF 1000           andi.w     [A0 + D1.w], 0xBFFF
00003C44  2006                     move.l     D0, D6
00003C46  C1FC 00C0                muls.w     D0, 0xC0
00003C4A  204D                     movea.l    A0, A5
00003C4C  D1FC FFFE 42D4           add.l      A0, 0xFFFE42D4
00003C52  2207                     move.l     D1, D7
00003C54  D241                     add.w      D1, D1
00003C56  D240                     add.w      D1, D0
00003C58  0270 BFFF 1000           andi.w     [A0 + D1.w], 0xBFFF
label00003C5E:
00003C5E  7073                     moveq.l    D0, 0x73
00003C60  B06E FFF2                cmp.w      D0, [A6 - 0xE]
00003C64  665C                     bne        +0x5E /* 00003CC2 */
00003C66  2006                     move.l     D0, D6
00003C68  C1FC 00C0                muls.w     D0, 0xC0
00003C6C  204D                     movea.l    A0, A5
00003C6E  D1FC FFFE 42D4           add.l      A0, 0xFFFE42D4
00003C74  2207                     move.l     D1, D7
00003C76  D241                     add.w      D1, D1
00003C78  D240                     add.w      D1, D0
00003C7A  7000                     moveq.l    D0, 0x00
00003C7C  3030 1000                move.w     D0, [A0 + D1.w]
00003C80  323C F800                move.w     D1, 0xF800
00003C84  C240                     and.w      D1, D0
00003C86  7000                     moveq.l    D0, 0x00
00003C88  3001                     move.w     D0, D1
00003C8A  807C 0074                or.w       D0, 0x74 /* 't' */
00003C8E  2206                     move.l     D1, D6
00003C90  C3FC 00C0                muls.w     D1, 0xC0
00003C94  204D                     movea.l    A0, A5
00003C96  D1FC FFFE 42D4           add.l      A0, 0xFFFE42D4
00003C9C  2407                     move.l     D2, D7
00003C9E  D442                     add.w      D2, D2
00003CA0  D441                     add.w      D2, D1
00003CA2  3180 2000                move.w     [A0 + D2.w], D0
00003CA6  2006                     move.l     D0, D6
00003CA8  C1FC 00C0                muls.w     D0, 0xC0
00003CAC  204D                     movea.l    A0, A5
00003CAE  D1FC FFFE 42D4           add.l      A0, 0xFFFE42D4
00003CB4  2207                     move.l     D1, D7
00003CB6  D241                     add.w      D1, D1
00003CB8  D240                     add.w      D1, D0
00003CBA  0270 BFFF 1000           andi.w     [A0 + D1.w], 0xBFFF
00003CC0  6062                     bra        +0x64 /* 00003D24 */
label00003CC2:
00003CC2  7074                     moveq.l    D0, 0x74
00003CC4  B06E FFF2                cmp.w      D0, [A6 - 0xE]
00003CC8  665A                     bne        +0x5C /* 00003D24 */
00003CCA  2006                     move.l     D0, D6
00003CCC  C1FC 00C0                muls.w     D0, 0xC0
00003CD0  204D                     movea.l    A0, A5
00003CD2  D1FC FFFE 42D4           add.l      A0, 0xFFFE42D4
00003CD8  2207                     move.l     D1, D7
00003CDA  D241                     add.w      D1, D1
00003CDC  D240                     add.w      D1, D0
00003CDE  7000                     moveq.l    D0, 0x00
00003CE0  3030 1000                move.w     D0, [A0 + D1.w]
00003CE4  323C F800                move.w     D1, 0xF800
00003CE8  C240                     and.w      D1, D0
00003CEA  7000                     moveq.l    D0, 0x00
00003CEC  3001                     move.w     D0, D1
00003CEE  807C 0073                or.w       D0, 0x73 /* 's' */
00003CF2  2206                     move.l     D1, D6
00003CF4  C3FC 00C0                muls.w     D1, 0xC0
00003CF8  204D                     movea.l    A0, A5
00003CFA  D1FC FFFE 42D4           add.l      A0, 0xFFFE42D4
00003D00  2407                     move.l     D2, D7
00003D02  D442                     add.w      D2, D2
00003D04  D441                     add.w      D2, D1
00003D06  3180 2000                move.w     [A0 + D2.w], D0
00003D0A  2006                     move.l     D0, D6
00003D0C  C1FC 00C0                muls.w     D0, 0xC0
00003D10  204D                     movea.l    A0, A5
00003D12  D1FC FFFE 42D4           add.l      A0, 0xFFFE42D4
00003D18  2207                     move.l     D1, D7
00003D1A  D241                     add.w      D1, D1
00003D1C  D240                     add.w      D1, D0
00003D1E  0270 BFFF 1000           andi.w     [A0 + D1.w], 0xBFFF
label00003D24:
00003D24  204D                     movea.l    A0, A5
00003D26  D1FC FFFF 7944           add.l      A0, 0xFFFF7944
00003D2C  3010                     move.w     D0, [A0]
00003D2E  48C0                     ext.l      D0
00003D30  7210                     moveq.l    D1, 0x10
00003D32  D081                     add.l      D0, D1
00003D34  342E FFF2                move.w     D2, [A6 - 0xE]
00003D38  48C2                     ext.l      D2
00003D3A  B082                     cmp.l      D0, D2
00003D3C  666C                     bne        +0x6E /* 00003DAA */
00003D3E  204D                     movea.l    A0, A5
00003D40  D1FC FFFF 7944           add.l      A0, 0xFFFF7944
00003D46  3010                     move.w     D0, [A0]
00003D48  48C0                     ext.l      D0
00003D4A  7211                     moveq.l    D1, 0x11
00003D4C  D081                     add.l      D0, D1
00003D4E  2406                     move.l     D2, D6
00003D50  C5FC 00C0                muls.w     D2, 0xC0
00003D54  204D                     movea.l    A0, A5
00003D56  D1FC FFFE 42D4           add.l      A0, 0xFFFE42D4
00003D5C  2607                     move.l     D3, D7
00003D5E  D643                     add.w      D3, D3
00003D60  D642                     add.w      D3, D2
00003D62  7400                     moveq.l    D2, 0x00
00003D64  3430 3000                move.w     D2, [A0 + D3.w]
00003D68  363C F800                move.w     D3, 0xF800
00003D6C  C642                     and.w      D3, D2
00003D6E  7400                     moveq.l    D2, 0x00
00003D70  3403                     move.w     D2, D3
00003D72  8480                     or.l       D2, D0
00003D74  2006                     move.l     D0, D6
00003D76  C1FC 00C0                muls.w     D0, 0xC0
00003D7A  204D                     movea.l    A0, A5
00003D7C  D1FC FFFE 42D4           add.l      A0, 0xFFFE42D4
00003D82  2607                     move.l     D3, D7
00003D84  D643                     add.w      D3, D3
00003D86  D640                     add.w      D3, D0
00003D88  3182 3000                move.w     [A0 + D3.w], D2
00003D8C  2006                     move.l     D0, D6
00003D8E  C1FC 00C0                muls.w     D0, 0xC0
00003D92  204D                     movea.l    A0, A5
00003D94  D1FC FFFE 42D4           add.l      A0, 0xFFFE42D4
00003D9A  2407                     move.l     D2, D7
00003D9C  D442                     add.w      D2, D2
00003D9E  D440                     add.w      D2, D0
00003DA0  0270 BFFF 2000           andi.w     [A0 + D2.w], 0xBFFF
00003DA6  6000 0084                bra        +0x86 /* 00003E2C */
label00003DAA:
00003DAA  204D                     movea.l    A0, A5
00003DAC  D1FC FFFF 7944           add.l      A0, 0xFFFF7944
00003DB2  3010                     move.w     D0, [A0]
00003DB4  48C0                     ext.l      D0
00003DB6  7211                     moveq.l    D1, 0x11
00003DB8  D081                     add.l      D0, D1
00003DBA  342E FFF2                move.w     D2, [A6 - 0xE]
00003DBE  48C2                     ext.l      D2
00003DC0  B082                     cmp.l      D0, D2
00003DC2  6668                     bne        +0x6A /* 00003E2C */
00003DC4  204D                     movea.l    A0, A5
00003DC6  D1FC FFFF 7944           add.l      A0, 0xFFFF7944
00003DCC  3010                     move.w     D0, [A0]
00003DCE  48C0                     ext.l      D0
00003DD0  7210                     moveq.l    D1, 0x10
00003DD2  D081                     add.l      D0, D1
00003DD4  2406                     move.l     D2, D6
00003DD6  C5FC 00C0                muls.w     D2, 0xC0
00003DDA  204D                     movea.l    A0, A5
00003DDC  D1FC FFFE 42D4           add.l      A0, 0xFFFE42D4
00003DE2  2607                     move.l     D3, D7
00003DE4  D643                     add.w      D3, D3
00003DE6  D642                     add.w      D3, D2
00003DE8  7400                     moveq.l    D2, 0x00
00003DEA  3430 3000                move.w     D2, [A0 + D3.w]
00003DEE  363C F800                move.w     D3, 0xF800
00003DF2  C642                     and.w      D3, D2
00003DF4  7400                     moveq.l    D2, 0x00
00003DF6  3403                     move.w     D2, D3
00003DF8  8480                     or.l       D2, D0
00003DFA  2006                     move.l     D0, D6
00003DFC  C1FC 00C0                muls.w     D0, 0xC0
00003E00  204D                     movea.l    A0, A5
00003E02  D1FC FFFE 42D4           add.l      A0, 0xFFFE42D4
00003E08  2607                     move.l     D3, D7
00003E0A  D643                     add.w      D3, D3
00003E0C  D640                     add.w      D3, D0
00003E0E  3182 3000                move.w     [A0 + D3.w], D2
00003E12  2006                     move.l     D0, D6
00003E14  C1FC 00C0                muls.w     D0, 0xC0
00003E18  204D                     movea.l    A0, A5
00003E1A  D1FC FFFE 42D4           add.l      A0, 0xFFFE42D4
00003E20  2407                     move.l     D2, D7
00003E22  D442                     add.w      D2, D2
00003E24  D440                     add.w      D2, D0
00003E26  0270 BFFF 2000           andi.w     [A0 + D2.w], 0xBFFF
label00003E2C:
00003E2C  302E FFF2                move.w     D0, [A6 - 0xE]
00003E30  204D                     movea.l    A0, A5
00003E32  D1FC FFFF 79BC           add.l      A0, 0xFFFF79BC
00003E38  B050                     cmp.w      D0, [A0]
00003E3A  6668                     bne        +0x6A /* 00003EA4 */
00003E3C  204D                     movea.l    A0, A5
00003E3E  D1FC FFFF 79BC           add.l      A0, 0xFFFF79BC
00003E44  3010                     move.w     D0, [A0]
00003E46  48C0                     ext.l      D0
00003E48  5280                     addq.l     D0, 1
00003E4A  2206                     move.l     D1, D6
00003E4C  C3FC 00C0                muls.w     D1, 0xC0
00003E50  204D                     movea.l    A0, A5
00003E52  D1FC FFFE 42D4           add.l      A0, 0xFFFE42D4
00003E58  2407                     move.l     D2, D7
00003E5A  D442                     add.w      D2, D2
00003E5C  D441                     add.w      D2, D1
00003E5E  7200                     moveq.l    D1, 0x00
00003E60  3230 2000                move.w     D1, [A0 + D2.w]
00003E64  343C F800                move.w     D2, 0xF800
00003E68  C441                     and.w      D2, D1
00003E6A  7200                     moveq.l    D1, 0x00
00003E6C  3202                     move.w     D1, D2
00003E6E  8280                     or.l       D1, D0
00003E70  2006                     move.l     D0, D6
00003E72  C1FC 00C0                muls.w     D0, 0xC0
00003E76  204D                     movea.l    A0, A5
00003E78  D1FC FFFE 42D4           add.l      A0, 0xFFFE42D4
00003E7E  2407                     move.l     D2, D7
00003E80  D442                     add.w      D2, D2
00003E82  D440                     add.w      D2, D0
00003E84  3181 2000                move.w     [A0 + D2.w], D1
00003E88  2006                     move.l     D0, D6
00003E8A  C1FC 00C0                muls.w     D0, 0xC0
00003E8E  204D                     movea.l    A0, A5
00003E90  D1FC FFFE 42D4           add.l      A0, 0xFFFE42D4
00003E96  2207                     move.l     D1, D7
00003E98  D241                     add.w      D1, D1
00003E9A  D240                     add.w      D1, D0
00003E9C  0270 BFFF 1000           andi.w     [A0 + D1.w], 0xBFFF
00003EA2  607C                     bra        +0x7E /* 00003F20 */
label00003EA4:
00003EA4  204D                     movea.l    A0, A5
00003EA6  D1FC FFFF 79BC           add.l      A0, 0xFFFF79BC
00003EAC  3010                     move.w     D0, [A0]
00003EAE  48C0                     ext.l      D0
00003EB0  5280                     addq.l     D0, 1
00003EB2  322E FFF2                move.w     D1, [A6 - 0xE]
00003EB6  48C1                     ext.l      D1
00003EB8  B081                     cmp.l      D0, D1
00003EBA  6664                     bne        +0x66 /* 00003F20 */
00003EBC  204D                     movea.l    A0, A5
00003EBE  D1FC FFFF 79BC           add.l      A0, 0xFFFF79BC
00003EC4  3010                     move.w     D0, [A0]
00003EC6  48C0                     ext.l      D0
00003EC8  2206                     move.l     D1, D6
00003ECA  C3FC 00C0                muls.w     D1, 0xC0
00003ECE  204D                     movea.l    A0, A5
00003ED0  D1FC FFFE 42D4           add.l      A0, 0xFFFE42D4
00003ED6  2407                     move.l     D2, D7
00003ED8  D442                     add.w      D2, D2
00003EDA  D441                     add.w      D2, D1
00003EDC  7200                     moveq.l    D1, 0x00
00003EDE  3230 2000                move.w     D1, [A0 + D2.w]
00003EE2  343C F800                move.w     D2, 0xF800
00003EE6  C441                     and.w      D2, D1
00003EE8  7200                     moveq.l    D1, 0x00
00003EEA  3202                     move.w     D1, D2
00003EEC  8280                     or.l       D1, D0
00003EEE  2006                     move.l     D0, D6
00003EF0  C1FC 00C0                muls.w     D0, 0xC0
00003EF4  204D                     movea.l    A0, A5
00003EF6  D1FC FFFE 42D4           add.l      A0, 0xFFFE42D4
00003EFC  2407                     move.l     D2, D7
00003EFE  D442                     add.w      D2, D2
00003F00  D440                     add.w      D2, D0
00003F02  3181 2000                move.w     [A0 + D2.w], D1
00003F06  2006                     move.l     D0, D6
00003F08  C1FC 00C0                muls.w     D0, 0xC0
00003F0C  204D                     movea.l    A0, A5
00003F0E  D1FC FFFE 42D4           add.l      A0, 0xFFFE42D4
00003F14  2207                     move.l     D1, D7
00003F16  D241                     add.w      D1, D1
00003F18  D240                     add.w      D1, D0
00003F1A  0270 BFFF 1000           andi.w     [A0 + D1.w], 0xBFFF
label00003F20:
00003F20  204D                     movea.l    A0, A5
00003F22  D1FC FFFF 7A12           add.l      A0, 0xFFFF7A12
00003F28  3A10                     move.w     D5, [A0]
00003F2A  7009                     moveq.l    D0, 0x09
00003F2C  204D                     movea.l    A0, A5
00003F2E  D1FC FFFE D54C           add.l      A0, 0xFFFED54C
00003F34  B010                     cmp.b      D0, [A0]
00003F36  6E00 0440                bgt        +0x442 /* 00004378 */
00003F3A  BA44                     cmp.w      D5, D4
00003F3C  667C                     bne        +0x7E /* 00003FBA */
00003F3E  2006                     move.l     D0, D6
00003F40  C1FC 00C0                muls.w     D0, 0xC0
00003F44  204D                     movea.l    A0, A5
00003F46  D1FC FFFD FAD4           add.l      A0, 0xFFFDFAD4
00003F4C  2207                     move.l     D1, D7
00003F4E  D241                     add.w      D1, D1
00003F50  D240                     add.w      D1, D0
00003F52  7000                     moveq.l    D0, 0x00
00003F54  3030 1000                move.w     D0, [A0 + D1.w]
00003F58  323C F800                move.w     D1, 0xF800
00003F5C  C240                     and.w      D1, D0
00003F5E  7000                     moveq.l    D0, 0x00
00003F60  3001                     move.w     D0, D1
00003F62  48C5                     ext.l      D5
00003F64  2205                     move.l     D1, D5
00003F66  5881                     addq.l     D1, 4
00003F68  8280                     or.l       D1, D0
00003F6A  2006                     move.l     D0, D6
00003F6C  C1FC 00C0                muls.w     D0, 0xC0
00003F70  204D                     movea.l    A0, A5
00003F72  D1FC FFFD FAD4           add.l      A0, 0xFFFDFAD4
00003F78  2407                     move.l     D2, D7
00003F7A  D442                     add.w      D2, D2
00003F7C  D440                     add.w      D2, D0
00003F7E  3181 2000                move.w     [A0 + D2.w], D1
00003F82  2006                     move.l     D0, D6
00003F84  C1FC 00C0                muls.w     D0, 0xC0
00003F88  204D                     movea.l    A0, A5
00003F8A  D1FC FFFE 42D4           add.l      A0, 0xFFFE42D4
00003F90  2207                     move.l     D1, D7
00003F92  D241                     add.w      D1, D1
00003F94  D240                     add.w      D1, D0
00003F96  0270 BFFF 1000           andi.w     [A0 + D1.w], 0xBFFF
00003F9C  2006                     move.l     D0, D6
00003F9E  C1FC 00C0                muls.w     D0, 0xC0
00003FA2  204D                     movea.l    A0, A5
00003FA4  D1FC FFFE 42D4           add.l      A0, 0xFFFE42D4
00003FAA  2207                     move.l     D1, D7
00003FAC  D241                     add.w      D1, D1
00003FAE  D240                     add.w      D1, D0
00003FB0  0270 BFFF 1000           andi.w     [A0 + D1.w], 0xBFFF
00003FB6  6000 04F8                bra        +0x4FA /* 000044B0 */
label00003FBA:
00003FBA  48C4                     ext.l      D4
00003FBC  48C5                     ext.l      D5
00003FBE  2005                     move.l     D0, D5
00003FC0  5880                     addq.l     D0, 4
00003FC2  B084                     cmp.l      D0, D4
00003FC4  667C                     bne        +0x7E /* 00004042 */
00003FC6  2006                     move.l     D0, D6
00003FC8  C1FC 00C0                muls.w     D0, 0xC0
00003FCC  204D                     movea.l    A0, A5
00003FCE  D1FC FFFD FAD4           add.l      A0, 0xFFFDFAD4
00003FD4  2207                     move.l     D1, D7
00003FD6  D241                     add.w      D1, D1
00003FD8  D240                     add.w      D1, D0
00003FDA  7000                     moveq.l    D0, 0x00
00003FDC  3030 1000                move.w     D0, [A0 + D1.w]
00003FE0  323C F800                move.w     D1, 0xF800
00003FE4  C240                     and.w      D1, D0
00003FE6  7000                     moveq.l    D0, 0x00
00003FE8  3001                     move.w     D0, D1
00003FEA  48C5                     ext.l      D5
00003FEC  2205                     move.l     D1, D5
00003FEE  5C81                     addq.l     D1, 6
00003FF0  8280                     or.l       D1, D0
00003FF2  2006                     move.l     D0, D6
00003FF4  C1FC 00C0                muls.w     D0, 0xC0
00003FF8  204D                     movea.l    A0, A5
00003FFA  D1FC FFFD FAD4           add.l      A0, 0xFFFDFAD4
00004000  2407                     move.l     D2, D7
00004002  D442                     add.w      D2, D2
00004004  D440                     add.w      D2, D0
00004006  3181 2000                move.w     [A0 + D2.w], D1
0000400A  2006                     move.l     D0, D6
0000400C  C1FC 00C0                muls.w     D0, 0xC0
00004010  204D                     movea.l    A0, A5
00004012  D1FC FFFE 42D4           add.l      A0, 0xFFFE42D4
00004018  2207                     move.l     D1, D7
0000401A  D241                     add.w      D1, D1
0000401C  D240                     add.w      D1, D0
0000401E  0270 BFFF 1000           andi.w     [A0 + D1.w], 0xBFFF
00004024  2006                     move.l     D0, D6
00004026  C1FC 00C0                muls.w     D0, 0xC0
0000402A  204D                     movea.l    A0, A5
0000402C  D1FC FFFE 42D4           add.l      A0, 0xFFFE42D4
00004032  2207                     move.l     D1, D7
00004034  D241                     add.w      D1, D1
00004036  D240                     add.w      D1, D0
00004038  0270 BFFF 1000           andi.w     [A0 + D1.w], 0xBFFF
0000403E  6000 0470                bra        +0x472 /* 000044B0 */
label00004042:
00004042  48C4                     ext.l      D4
00004044  48C5                     ext.l      D5
00004046  2005                     move.l     D0, D5
00004048  5C80                     addq.l     D0, 6
0000404A  B084                     cmp.l      D0, D4
0000404C  667C                     bne        +0x7E /* 000040CA */
0000404E  2006                     move.l     D0, D6
00004050  C1FC 00C0                muls.w     D0, 0xC0
00004054  204D                     movea.l    A0, A5
00004056  D1FC FFFD FAD4           add.l      A0, 0xFFFDFAD4
0000405C  2207                     move.l     D1, D7
0000405E  D241                     add.w      D1, D1
00004060  D240                     add.w      D1, D0
00004062  7000                     moveq.l    D0, 0x00
00004064  3030 1000                move.w     D0, [A0 + D1.w]
00004068  323C F800                move.w     D1, 0xF800
0000406C  C240                     and.w      D1, D0
0000406E  7000                     moveq.l    D0, 0x00
00004070  3001                     move.w     D0, D1
00004072  48C5                     ext.l      D5
00004074  2205                     move.l     D1, D5
00004076  5081                     addq.l     D1, 8
00004078  8280                     or.l       D1, D0
0000407A  2006                     move.l     D0, D6
0000407C  C1FC 00C0                muls.w     D0, 0xC0
00004080  204D                     movea.l    A0, A5
00004082  D1FC FFFD FAD4           add.l      A0, 0xFFFDFAD4
00004088  2407                     move.l     D2, D7
0000408A  D442                     add.w      D2, D2
0000408C  D440                     add.w      D2, D0
0000408E  3181 2000                move.w     [A0 + D2.w], D1
00004092  2006                     move.l     D0, D6
00004094  C1FC 00C0                muls.w     D0, 0xC0
00004098  204D                     movea.l    A0, A5
0000409A  D1FC FFFE 42D4           add.l      A0, 0xFFFE42D4
000040A0  2207                     move.l     D1, D7
000040A2  D241                     add.w      D1, D1
000040A4  D240                     add.w      D1, D0
000040A6  0270 BFFF 1000           andi.w     [A0 + D1.w], 0xBFFF
000040AC  2006                     move.l     D0, D6
000040AE  C1FC 00C0                muls.w     D0, 0xC0
000040B2  204D                     movea.l    A0, A5
000040B4  D1FC FFFE 42D4           add.l      A0, 0xFFFE42D4
000040BA  2207                     move.l     D1, D7
000040BC  D241                     add.w      D1, D1
000040BE  D240                     add.w      D1, D0
000040C0  0270 BFFF 1000           andi.w     [A0 + D1.w], 0xBFFF
000040C6  6000 03E8                bra        +0x3EA /* 000044B0 */
label000040CA:
000040CA  48C4                     ext.l      D4
000040CC  48C5                     ext.l      D5
000040CE  2005                     move.l     D0, D5
000040D0  5080                     addq.l     D0, 8
000040D2  B084                     cmp.l      D0, D4
000040D4  667C                     bne        +0x7E /* 00004152 */
000040D6  2006                     move.l     D0, D6
000040D8  C1FC 00C0                muls.w     D0, 0xC0
000040DC  204D                     movea.l    A0, A5
000040DE  D1FC FFFD FAD4           add.l      A0, 0xFFFDFAD4
000040E4  2207                     move.l     D1, D7
000040E6  D241                     add.w      D1, D1
000040E8  D240                     add.w      D1, D0
000040EA  7000                     moveq.l    D0, 0x00
000040EC  3030 1000                move.w     D0, [A0 + D1.w]
000040F0  323C F800                move.w     D1, 0xF800
000040F4  C240                     and.w      D1, D0
000040F6  7000                     moveq.l    D0, 0x00
000040F8  3001                     move.w     D0, D1
000040FA  48C5                     ext.l      D5
000040FC  2205                     move.l     D1, D5
000040FE  5881                     addq.l     D1, 4
00004100  8280                     or.l       D1, D0
00004102  2006                     move.l     D0, D6
00004104  C1FC 00C0                muls.w     D0, 0xC0
00004108  204D                     movea.l    A0, A5
0000410A  D1FC FFFD FAD4           add.l      A0, 0xFFFDFAD4
00004110  2407                     move.l     D2, D7
00004112  D442                     add.w      D2, D2
00004114  D440                     add.w      D2, D0
00004116  3181 2000                move.w     [A0 + D2.w], D1
0000411A  2006                     move.l     D0, D6
0000411C  C1FC 00C0                muls.w     D0, 0xC0
00004120  204D                     movea.l    A0, A5
00004122  D1FC FFFE 42D4           add.l      A0, 0xFFFE42D4
00004128  2207                     move.l     D1, D7
0000412A  D241                     add.w      D1, D1
0000412C  D240                     add.w      D1, D0
0000412E  0270 BFFF 1000           andi.w     [A0 + D1.w], 0xBFFF
00004134  2006                     move.l     D0, D6
00004136  C1FC 00C0                muls.w     D0, 0xC0
0000413A  204D                     movea.l    A0, A5
0000413C  D1FC FFFE 42D4           add.l      A0, 0xFFFE42D4
00004142  2207                     move.l     D1, D7
00004144  D241                     add.w      D1, D1
00004146  D240                     add.w      D1, D0
00004148  0270 BFFF 1000           andi.w     [A0 + D1.w], 0xBFFF
0000414E  6000 0360                bra        +0x362 /* 000044B0 */
label00004152:
00004152  48C4                     ext.l      D4
00004154  48C5                     ext.l      D5
00004156  2005                     move.l     D0, D5
00004158  5280                     addq.l     D0, 1
0000415A  B084                     cmp.l      D0, D4
0000415C  667C                     bne        +0x7E /* 000041DA */
0000415E  2006                     move.l     D0, D6
00004160  C1FC 00C0                muls.w     D0, 0xC0
00004164  204D                     movea.l    A0, A5
00004166  D1FC FFFD FAD4           add.l      A0, 0xFFFDFAD4
0000416C  2207                     move.l     D1, D7
0000416E  D241                     add.w      D1, D1
00004170  D240                     add.w      D1, D0
00004172  7000                     moveq.l    D0, 0x00
00004174  3030 1000                move.w     D0, [A0 + D1.w]
00004178  323C F800                move.w     D1, 0xF800
0000417C  C240                     and.w      D1, D0
0000417E  7000                     moveq.l    D0, 0x00
00004180  3001                     move.w     D0, D1
00004182  48C5                     ext.l      D5
00004184  2205                     move.l     D1, D5
00004186  5A81                     addq.l     D1, 5
00004188  8280                     or.l       D1, D0
0000418A  2006                     move.l     D0, D6
0000418C  C1FC 00C0                muls.w     D0, 0xC0
00004190  204D                     movea.l    A0, A5
00004192  D1FC FFFD FAD4           add.l      A0, 0xFFFDFAD4
00004198  2407                     move.l     D2, D7
0000419A  D442                     add.w      D2, D2
0000419C  D440                     add.w      D2, D0
0000419E  3181 2000                move.w     [A0 + D2.w], D1
000041A2  2006                     move.l     D0, D6
000041A4  C1FC 00C0                muls.w     D0, 0xC0
000041A8  204D                     movea.l    A0, A5
000041AA  D1FC FFFE 42D4           add.l      A0, 0xFFFE42D4
000041B0  2207                     move.l     D1, D7
000041B2  D241                     add.w      D1, D1
000041B4  D240                     add.w      D1, D0
000041B6  0270 BFFF 1000           andi.w     [A0 + D1.w], 0xBFFF
000041BC  2006                     move.l     D0, D6
000041BE  C1FC 00C0                muls.w     D0, 0xC0
000041C2  204D                     movea.l    A0, A5
000041C4  D1FC FFFE 42D4           add.l      A0, 0xFFFE42D4
000041CA  2207                     move.l     D1, D7
000041CC  D241                     add.w      D1, D1
000041CE  D240                     add.w      D1, D0
000041D0  0270 BFFF 1000           andi.w     [A0 + D1.w], 0xBFFF
000041D6  6000 02D8                bra        +0x2DA /* 000044B0 */
label000041DA:
000041DA  48C4                     ext.l      D4
000041DC  48C5                     ext.l      D5
000041DE  2005                     move.l     D0, D5
000041E0  5A80                     addq.l     D0, 5
000041E2  B084                     cmp.l      D0, D4
000041E4  667C                     bne        +0x7E /* 00004262 */
000041E6  2006                     move.l     D0, D6
000041E8  C1FC 00C0                muls.w     D0, 0xC0
000041EC  204D                     movea.l    A0, A5
000041EE  D1FC FFFD FAD4           add.l      A0, 0xFFFDFAD4
000041F4  2207                     move.l     D1, D7
000041F6  D241                     add.w      D1, D1
000041F8  D240                     add.w      D1, D0
000041FA  7000                     moveq.l    D0, 0x00
000041FC  3030 1000                move.w     D0, [A0 + D1.w]
00004200  323C F800                move.w     D1, 0xF800
00004204  C240                     and.w      D1, D0
00004206  7000                     moveq.l    D0, 0x00
00004208  3001                     move.w     D0, D1
0000420A  48C5                     ext.l      D5
0000420C  2205                     move.l     D1, D5
0000420E  5E81                     addq.l     D1, 7
00004210  8280                     or.l       D1, D0
00004212  2006                     move.l     D0, D6
00004214  C1FC 00C0                muls.w     D0, 0xC0
00004218  204D                     movea.l    A0, A5
0000421A  D1FC FFFD FAD4           add.l      A0, 0xFFFDFAD4
00004220  2407                     move.l     D2, D7
00004222  D442                     add.w      D2, D2
00004224  D440                     add.w      D2, D0
00004226  3181 2000                move.w     [A0 + D2.w], D1
0000422A  2006                     move.l     D0, D6
0000422C  C1FC 00C0                muls.w     D0, 0xC0
00004230  204D                     movea.l    A0, A5
00004232  D1FC FFFE 42D4           add.l      A0, 0xFFFE42D4
00004238  2207                     move.l     D1, D7
0000423A  D241                     add.w      D1, D1
0000423C  D240                     add.w      D1, D0
0000423E  0270 BFFF 1000           andi.w     [A0 + D1.w], 0xBFFF
00004244  2006                     move.l     D0, D6
00004246  C1FC 00C0                muls.w     D0, 0xC0
0000424A  204D                     movea.l    A0, A5
0000424C  D1FC FFFE 42D4           add.l      A0, 0xFFFE42D4
00004252  2207                     move.l     D1, D7
00004254  D241                     add.w      D1, D1
00004256  D240                     add.w      D1, D0
00004258  0270 BFFF 1000           andi.w     [A0 + D1.w], 0xBFFF
0000425E  6000 0250                bra        +0x252 /* 000044B0 */
label00004262:
00004262  48C4                     ext.l      D4
00004264  48C5                     ext.l      D5
00004266  2005                     move.l     D0, D5
00004268  5E80                     addq.l     D0, 7
0000426A  B084                     cmp.l      D0, D4
0000426C  667E                     bne        +0x80 /* 000042EC */
0000426E  2006                     move.l     D0, D6
00004270  C1FC 00C0                muls.w     D0, 0xC0
00004274  204D                     movea.l    A0, A5
00004276  D1FC FFFD FAD4           add.l      A0, 0xFFFDFAD4
0000427C  2207                     move.l     D1, D7
0000427E  D241                     add.w      D1, D1
00004280  D240                     add.w      D1, D0
00004282  7000                     moveq.l    D0, 0x00
00004284  3030 1000                move.w     D0, [A0 + D1.w]
00004288  323C F800                move.w     D1, 0xF800
0000428C  C240                     and.w      D1, D0
0000428E  7000                     moveq.l    D0, 0x00
00004290  3001                     move.w     D0, D1
00004292  48C5                     ext.l      D5
00004294  2205                     move.l     D1, D5
00004296  7409                     moveq.l    D2, 0x09
00004298  D282                     add.l      D1, D2
0000429A  8280                     or.l       D1, D0
0000429C  2006                     move.l     D0, D6
0000429E  C1FC 00C0                muls.w     D0, 0xC0
000042A2  204D                     movea.l    A0, A5
000042A4  D1FC FFFD FAD4           add.l      A0, 0xFFFDFAD4
000042AA  2607                     move.l     D3, D7
000042AC  D643                     add.w      D3, D3
000042AE  D640                     add.w      D3, D0
000042B0  3181 3000                move.w     [A0 + D3.w], D1
000042B4  2006                     move.l     D0, D6
000042B6  C1FC 00C0                muls.w     D0, 0xC0
000042BA  204D                     movea.l    A0, A5
000042BC  D1FC FFFE 42D4           add.l      A0, 0xFFFE42D4
000042C2  2207                     move.l     D1, D7
000042C4  D241                     add.w      D1, D1
000042C6  D240                     add.w      D1, D0
000042C8  0270 BFFF 1000           andi.w     [A0 + D1.w], 0xBFFF
000042CE  2006                     move.l     D0, D6
000042D0  C1FC 00C0                muls.w     D0, 0xC0
000042D4  204D                     movea.l    A0, A5
000042D6  D1FC FFFE 42D4           add.l      A0, 0xFFFE42D4
000042DC  2207                     move.l     D1, D7
000042DE  D241                     add.w      D1, D1
000042E0  D240                     add.w      D1, D0
000042E2  0270 BFFF 1000           andi.w     [A0 + D1.w], 0xBFFF
000042E8  6000 01C6                bra        +0x1C8 /* 000044B0 */
label000042EC:
000042EC  48C4                     ext.l      D4
000042EE  48C5                     ext.l      D5
000042F0  2005                     move.l     D0, D5
000042F2  7209                     moveq.l    D1, 0x09
000042F4  D081                     add.l      D0, D1
000042F6  B084                     cmp.l      D0, D4
000042F8  6600 01B6                bne        +0x1B8 /* 000044B0 */
000042FC  2006                     move.l     D0, D6
000042FE  C1FC 00C0                muls.w     D0, 0xC0
00004302  204D                     movea.l    A0, A5
00004304  D1FC FFFD FAD4           add.l      A0, 0xFFFDFAD4
0000430A  2207                     move.l     D1, D7
0000430C  D241                     add.w      D1, D1
0000430E  D240                     add.w      D1, D0
00004310  7000                     moveq.l    D0, 0x00
00004312  3030 1000                move.w     D0, [A0 + D1.w]
00004316  323C F800                move.w     D1, 0xF800
0000431A  C240                     and.w      D1, D0
0000431C  7000                     moveq.l    D0, 0x00
0000431E  3001                     move.w     D0, D1
00004320  48C5                     ext.l      D5
00004322  2205                     move.l     D1, D5
00004324  5A81                     addq.l     D1, 5
00004326  8280                     or.l       D1, D0
00004328  2006                     move.l     D0, D6
0000432A  C1FC 00C0                muls.w     D0, 0xC0
0000432E  204D                     movea.l    A0, A5
00004330  D1FC FFFD FAD4           add.l      A0, 0xFFFDFAD4
00004336  2407                     move.l     D2, D7
00004338  D442                     add.w      D2, D2
0000433A  D440                     add.w      D2, D0
0000433C  3181 2000                move.w     [A0 + D2.w], D1
00004340  2006                     move.l     D0, D6
00004342  C1FC 00C0                muls.w     D0, 0xC0
00004346  204D                     movea.l    A0, A5
00004348  D1FC FFFE 42D4           add.l      A0, 0xFFFE42D4
0000434E  2207                     move.l     D1, D7
00004350  D241                     add.w      D1, D1
00004352  D240                     add.w      D1, D0
00004354  0270 BFFF 1000           andi.w     [A0 + D1.w], 0xBFFF
0000435A  2006                     move.l     D0, D6
0000435C  C1FC 00C0                muls.w     D0, 0xC0
00004360  204D                     movea.l    A0, A5
00004362  D1FC FFFE 42D4           add.l      A0, 0xFFFE42D4
00004368  2207                     move.l     D1, D7
0000436A  D241                     add.w      D1, D1
0000436C  D240                     add.w      D1, D0
0000436E  0270 BFFF 1000           andi.w     [A0 + D1.w], 0xBFFF
00004374  6000 013A                bra        +0x13C /* 000044B0 */
label00004378:
00004378  48C4                     ext.l      D4
0000437A  48C5                     ext.l      D5
0000437C  2005                     move.l     D0, D5
0000437E  5880                     addq.l     D0, 4
00004380  B084                     cmp.l      D0, D4
00004382  6718                     beq        +0x1A /* 0000439C */
00004384  48C4                     ext.l      D4
00004386  48C5                     ext.l      D5
00004388  2005                     move.l     D0, D5
0000438A  5C80                     addq.l     D0, 6
0000438C  B084                     cmp.l      D0, D4
0000438E  670C                     beq        +0xE /* 0000439C */
00004390  48C4                     ext.l      D4
00004392  48C5                     ext.l      D5
00004394  2005                     move.l     D0, D5
00004396  5080                     addq.l     D0, 8
00004398  B084                     cmp.l      D0, D4
0000439A  6676                     bne        +0x78 /* 00004412 */
label0000439C:
0000439C  2006                     move.l     D0, D6
0000439E  C1FC 00C0                muls.w     D0, 0xC0
000043A2  204D                     movea.l    A0, A5
000043A4  D1FC FFFD FAD4           add.l      A0, 0xFFFDFAD4
000043AA  2207                     move.l     D1, D7
000043AC  D241                     add.w      D1, D1
000043AE  D240                     add.w      D1, D0
000043B0  7000                     moveq.l    D0, 0x00
000043B2  3030 1000                move.w     D0, [A0 + D1.w]
000043B6  323C F800                move.w     D1, 0xF800
000043BA  C240                     and.w      D1, D0
000043BC  7000                     moveq.l    D0, 0x00
000043BE  3001                     move.w     D0, D1
000043C0  48C5                     ext.l      D5
000043C2  2205                     move.l     D1, D5
000043C4  8280                     or.l       D1, D0
000043C6  2006                     move.l     D0, D6
000043C8  C1FC 00C0                muls.w     D0, 0xC0
000043CC  204D                     movea.l    A0, A5
000043CE  D1FC FFFD FAD4           add.l      A0, 0xFFFDFAD4
000043D4  2407                     move.l     D2, D7
000043D6  D442                     add.w      D2, D2
000043D8  D440                     add.w      D2, D0
000043DA  3181 2000                move.w     [A0 + D2.w], D1
000043DE  2006                     move.l     D0, D6
000043E0  C1FC 00C0                muls.w     D0, 0xC0
000043E4  204D                     movea.l    A0, A5
000043E6  D1FC FFFE 42D4           add.l      A0, 0xFFFE42D4
000043EC  2207                     move.l     D1, D7
000043EE  D241                     add.w      D1, D1
000043F0  D240                     add.w      D1, D0
000043F2  0270 BFFF 1000           andi.w     [A0 + D1.w], 0xBFFF
000043F8  2006                     move.l     D0, D6
000043FA  C1FC 00C0                muls.w     D0, 0xC0
000043FE  204D                     movea.l    A0, A5
00004400  D1FC FFFE 42D4           add.l      A0, 0xFFFE42D4
00004406  2207                     move.l     D1, D7
00004408  D241                     add.w      D1, D1
0000440A  D240                     add.w      D1, D0
0000440C  0270 BFFF 1000           andi.w     [A0 + D1.w], 0xBFFF
label00004412:
00004412  48C4                     ext.l      D4
00004414  48C5                     ext.l      D5
00004416  2005                     move.l     D0, D5
00004418  5A80                     addq.l     D0, 5
0000441A  B084                     cmp.l      D0, D4
0000441C  671A                     beq        +0x1C /* 00004438 */
0000441E  48C4                     ext.l      D4
00004420  48C5                     ext.l      D5
00004422  2005                     move.l     D0, D5
00004424  5E80                     addq.l     D0, 7
00004426  B084                     cmp.l      D0, D4
00004428  670E                     beq        +0x10 /* 00004438 */
0000442A  48C4                     ext.l      D4
0000442C  48C5                     ext.l      D5
0000442E  2005                     move.l     D0, D5
00004430  7209                     moveq.l    D1, 0x09
00004432  D081                     add.l      D0, D1
00004434  B084                     cmp.l      D0, D4
00004436  6678                     bne        +0x7A /* 000044B0 */
label00004438:
00004438  2006                     move.l     D0, D6
0000443A  C1FC 00C0                muls.w     D0, 0xC0
0000443E  204D                     movea.l    A0, A5
00004440  D1FC FFFD FAD4           add.l      A0, 0xFFFDFAD4
00004446  2207                     move.l     D1, D7
00004448  D241                     add.w      D1, D1
0000444A  D240                     add.w      D1, D0
0000444C  7000                     moveq.l    D0, 0x00
0000444E  3030 1000                move.w     D0, [A0 + D1.w]
00004452  323C F800                move.w     D1, 0xF800
00004456  C240                     and.w      D1, D0
00004458  7000                     moveq.l    D0, 0x00
0000445A  3001                     move.w     D0, D1
0000445C  48C5                     ext.l      D5
0000445E  2205                     move.l     D1, D5
00004460  5281                     addq.l     D1, 1
00004462  8280                     or.l       D1, D0
00004464  2006                     move.l     D0, D6
00004466  C1FC 00C0                muls.w     D0, 0xC0
0000446A  204D                     movea.l    A0, A5
0000446C  D1FC FFFD FAD4           add.l      A0, 0xFFFDFAD4
00004472  2407                     move.l     D2, D7
00004474  D442                     add.w      D2, D2
00004476  D440                     add.w      D2, D0
00004478  3181 2000                move.w     [A0 + D2.w], D1
0000447C  2006                     move.l     D0, D6
0000447E  C1FC 00C0                muls.w     D0, 0xC0
00004482  204D                     movea.l    A0, A5
00004484  D1FC FFFE 42D4           add.l      A0, 0xFFFE42D4
0000448A  2207                     move.l     D1, D7
0000448C  D241                     add.w      D1, D1
0000448E  D240                     add.w      D1, D0
00004490  0270 BFFF 1000           andi.w     [A0 + D1.w], 0xBFFF
00004496  2006                     move.l     D0, D6
00004498  C1FC 00C0                muls.w     D0, 0xC0
0000449C  204D                     movea.l    A0, A5
0000449E  D1FC FFFE 42D4           add.l      A0, 0xFFFE42D4
000044A4  2207                     move.l     D1, D7
000044A6  D241                     add.w      D1, D1
000044A8  D240                     add.w      D1, D0
000044AA  0270 BFFF 1000           andi.w     [A0 + D1.w], 0xBFFF
label000044B0:
000044B0  3007                     move.w     D0, D7
000044B2  5247                     addq.w     D7, 1
label000044B4:
000044B4  BE6E FFFA                cmp.w      D7, [A6 - 0x6]
000044B8  6D00 F666                blt        -0x998 /* 00003B20 */
000044BC  3006                     move.w     D0, D6
000044BE  5246                     addq.w     D6, 1
label000044C0:
000044C0  BC6E FFF8                cmp.w      D6, [A6 - 0x8]
000044C4  6D00 F652                blt        -0x9AC /* 00003B18 */
000044C8  204D                     movea.l    A0, A5
000044CA  D1FC FFFD CEBE           add.l      A0, 0xFFFDCEBE
000044D0  224D                     movea.l    A1, A5
000044D2  D3FC FFFD CE52           add.l      A1, 0xFFFDCE52
000044D8  2290                     move.l     [A1], [A0]
000044DA  204D                     movea.l    A0, A5
000044DC  D1FC FFFF 7868           add.l      A0, 0xFFFF7868
000044E2  2050                     movea.l    A0, [A0]
000044E4  2D48 FFFC                move.l     [A6 - 0x4], A0
000044E8  2868 0128                movea.l    A4, [A0 + 0x128]
000044EC  7000                     moveq.l    D0, 0x00
000044EE  2640                     movea.l    A3, D0
000044F0  2F0B                     move.l     -[A7], A3
000044F2  2F0C                     move.l     -[A7], A4
000044F4  2F3C 454D 6F76           move.l     -[A7], 0x454D6F76 /* 'EMov' */
000044FA  206C 00F0                movea.l    A0, [A4 + 0xF0]
000044FE  2248                     movea.l    A1, A0
00004500  2269 0060                movea.l    A1, [A1 + 0x60]
00004504  D0E9 0058                add.w      A0, [A1 + 0x58]
00004508  2F08                     move.l     -[A7], A0
0000450A  206C 00F0                movea.l    A0, [A4 + 0xF0]
0000450E  2068 0060                movea.l    A0, [A0 + 0x60]
00004512  2268 005C                movea.l    A1, [A0 + 0x5C]
00004516  4E91                     jsr        [A1]
00004518  4FEF 0010                lea.l      A7, [A7 + 0x10]
label0000451C:
0000451C  4CEE 18F8 FFD6           movem.l    D3,D4,D5,D6,D7,A3,A4, [A6 - 0x2A]
00004522  4E5E                     unlink     A6
00004524  4E75                     rts
00004526  9073 696D 616E 696D 6... dc.b       "simanimate__FsT1"
export_259:
0000453A  4E56 FFEE                link       A6, -0x0012
0000453E  48E7 1F00                movem.l    -[A7], D3,D4,D5,D6,D7
00004542  7004                     moveq.l    D0, 0x04
00004544  2F00                     move.l     -[A7], D0
00004546  204D                     movea.l    A0, A5
00004548  D1FC FFFF 7868           add.l      A0, 0xFFFF7868
0000454E  2F10                     move.l     -[A7], [A0]
00004550  4EAD 139A                jsr        [A5 + 0x139A /* export_623, CODE:27 @ 00001002 */]
00004554  4EBA 1EFC                jsr        [PC + 0x1EFC /* 00006452 */]
00004558  7002                     moveq.l    D0, 0x02
0000455A  2F00                     move.l     -[A7], D0
0000455C  7207                     moveq.l    D1, 0x07
0000455E  2F01                     move.l     -[A7], D1
00004560  4EBA 0E18                jsr        [PC + 0xE18 /* 0000537A */]
00004564  4247                     clr.w      D7
00004566  7660                     moveq.l    D3, 0x60
00004568  4FEF 0010                lea.l      A7, [A7 + 0x10]
label0000456C:
0000456C  4246                     clr.w      D6
label0000456E:
0000456E  2007                     move.l     D0, D7
00004570  C1FC 00C0                muls.w     D0, 0xC0
00004574  204D                     movea.l    A0, A5
00004576  D1FC FFFE 42D4           add.l      A0, 0xFFFE42D4
0000457C  2206                     move.l     D1, D6
0000457E  D241                     add.w      D1, D1
00004580  D240                     add.w      D1, D0
00004582  7000                     moveq.l    D0, 0x00
00004584  3030 1000                move.w     D0, [A0 + D1.w]
00004588  323C 07FF                move.w     D1, 0x7FF
0000458C  C240                     and.w      D1, D0
0000458E  7000                     moveq.l    D0, 0x00
00004590  3001                     move.w     D0, D1
00004592  4A80                     tst.l      D0
00004594  204D                     movea.l    A0, A5
00004596  D1FC FFFF 7942           add.l      A0, 0xFFFF7942
0000459C  3210                     move.w     D1, [A0]
0000459E  48C1                     ext.l      D1
000045A0  B280                     cmp.l      D1, D0
000045A2  6F54                     ble        +0x56 /* 000045F8 */
000045A4  2007                     move.l     D0, D7
000045A6  C1FC 00C0                muls.w     D0, 0xC0
000045AA  204D                     movea.l    A0, A5
000045AC  D1FC FFFE 42D4           add.l      A0, 0xFFFE42D4
000045B2  2206                     move.l     D1, D6
000045B4  D241                     add.w      D1, D1
000045B6  D240                     add.w      D1, D0
000045B8  7000                     moveq.l    D0, 0x00
000045BA  3030 1000                move.w     D0, [A0 + D1.w]
000045BE  323C F800                move.w     D1, 0xF800
000045C2  C240                     and.w      D1, D0
000045C4  7000                     moveq.l    D0, 0x00
000045C6  3001                     move.w     D0, D1
000045C8  4A80                     tst.l      D0
000045CA  204D                     movea.l    A0, A5
000045CC  D1FC FFFF 7942           add.l      A0, 0xFFFF7942
000045D2  3210                     move.w     D1, [A0]
000045D4  48C1                     ext.l      D1
000045D6  8280                     or.l       D1, D0
000045D8  203C FFFF BFFF           move.l     D0, 0xFFFFBFFF
000045DE  C081                     and.l      D0, D1
000045E0  2207                     move.l     D1, D7
000045E2  C3FC 00C0                muls.w     D1, 0xC0
000045E6  204D                     movea.l    A0, A5
000045E8  D1FC FFFE 42D4           add.l      A0, 0xFFFE42D4
000045EE  2406                     move.l     D2, D6
000045F0  D442                     add.w      D2, D2
000045F2  D441                     add.w      D2, D1
000045F4  3180 2000                move.w     [A0 + D2.w], D0
label000045F8:
000045F8  3006                     move.w     D0, D6
000045FA  5246                     addq.w     D6, 1
000045FC  B646                     cmp.w      D3, D6
000045FE  6E00 FF6E                bgt        -0x90 /* 0000456E */
00004602  3007                     move.w     D0, D7
00004604  5247                     addq.w     D7, 1
00004606  B647                     cmp.w      D3, D7
00004608  6E00 FF62                bgt        -0x9C /* 0000456C */
0000460C  204D                     movea.l    A0, A5
0000460E  D1FC FFFD AC08           add.l      A0, 0xFFFDAC08
00004614  1010                     move.b     D0, [A0]
00004616  0800 0000                btst.b     D0, 0x0
0000461A  6700 03A4                beq        +0x3A6 /* 000049C0 */
0000461E  558F                     subq.l     A7, 2
00004620  A861                     syscall    Random
00004622  301F                     move.w     D0, [A7]+
00004624  0800 0000                btst.b     D0, 0x0
00004628  6700 01CE                beq        +0x1D0 /* 000047F8 */
0000462C  558F                     subq.l     A7, 2
0000462E  A861                     syscall    Random
00004630  301F                     move.w     D0, [A7]+
00004632  48C0                     ext.l      D0
00004634  2F00                     move.l     -[A7], D0
00004636  4EAD 145A                jsr        [A5 + 0x145A /* export_647, CODE:31 @ 00000000 */]
0000463A  4C7C 0801 0000 005E      divu.l     D6:D0, 0x8010000
00004642  4881                     ext.w      D1
00004644  3E01                     move.w     D7, D1
00004646  4246                     clr.w      D6
00004648  584F                     addq.w     A7, 4
label0000464A:
0000464A  48C6                     ext.l      D6
0000464C  2F06                     move.l     -[A7], D6
0000464E  48C7                     ext.l      D7
00004650  2F07                     move.l     -[A7], D7
00004652  4EBA 0630                jsr        [PC + 0x630 /* 00004C84 */]
00004656  4A40                     tst.w      D0
00004658  504F                     addq.w     A7, 8
0000465A  6700 016A                beq        +0x16C /* 000047C6 */
0000465E  204D                     movea.l    A0, A5
00004660  D1FC FFFF 7944           add.l      A0, 0xFFFF7944
00004666  3010                     move.w     D0, [A0]
00004668  48C0                     ext.l      D0
0000466A  7210                     moveq.l    D1, 0x10
0000466C  D081                     add.l      D0, D1
0000466E  2407                     move.l     D2, D7
00004670  C5FC 00C0                muls.w     D2, 0xC0
00004674  204D                     movea.l    A0, A5
00004676  D1FC FFFE 42D4           add.l      A0, 0xFFFE42D4
0000467C  2606                     move.l     D3, D6
0000467E  D643                     add.w      D3, D3
00004680  D642                     add.w      D3, D2
00004682  3180 3000                move.w     [A0 + D3.w], D0
00004686  2007                     move.l     D0, D7
00004688  C1FC 00C0                muls.w     D0, 0xC0
0000468C  204D                     movea.l    A0, A5
0000468E  D1FC FFFE 42D4           add.l      A0, 0xFFFE42D4
00004694  2406                     move.l     D2, D6
00004696  D442                     add.w      D2, D2
00004698  D440                     add.w      D2, D0
0000469A  0070 2000 2000           ori.w      [A0 + D2.w], 0x2000 /* ' \0' */
000046A0  2007                     move.l     D0, D7
000046A2  C1FC 00C0                muls.w     D0, 0xC0
000046A6  204D                     movea.l    A0, A5
000046A8  D1FC FFFE 42D4           add.l      A0, 0xFFFE42D4
000046AE  2406                     move.l     D2, D6
000046B0  D442                     add.w      D2, D2
000046B2  D440                     add.w      D2, D0
000046B4  0070 1000 2000           ori.w      [A0 + D2.w], 0x1000
000046BA  2007                     move.l     D0, D7
000046BC  C1FC 0060                muls.w     D0, 0x60 /* '`' */
000046C0  204D                     movea.l    A0, A5
000046C2  D1FC FFFD D6D4           add.l      A0, 0xFFFDD6D4
000046C8  2406                     move.l     D2, D6
000046CA  D440                     add.w      D2, D0
000046CC  11BC 0001 2000           move.b     [A0 + D2.w], 0x1
000046D2  204D                     movea.l    A0, A5
000046D4  D1FC FFFF 7944           add.l      A0, 0xFFFF7944
000046DA  3010                     move.w     D0, [A0]
000046DC  48C0                     ext.l      D0
000046DE  D081                     add.l      D0, D1
000046E0  48C7                     ext.l      D7
000046E2  2407                     move.l     D2, D7
000046E4  C5FC 00C0                muls.w     D2, 0xC0
000046E8  204D                     movea.l    A0, A5
000046EA  D1FC FFFE 4394           add.l      A0, 0xFFFE4394
000046F0  2606                     move.l     D3, D6
000046F2  D643                     add.w      D3, D3
000046F4  D642                     add.w      D3, D2
000046F6  3180 3000                move.w     [A0 + D3.w], D0
000046FA  48C7                     ext.l      D7
000046FC  2007                     move.l     D0, D7
000046FE  C1FC 00C0                muls.w     D0, 0xC0
00004702  204D                     movea.l    A0, A5
00004704  D1FC FFFE 4394           add.l      A0, 0xFFFE4394
0000470A  2406                     move.l     D2, D6
0000470C  D442                     add.w      D2, D2
0000470E  D440                     add.w      D2, D0
00004710  0070 2000 2000           ori.w      [A0 + D2.w], 0x2000 /* ' \0' */
00004716  48C7                     ext.l      D7
00004718  2007                     move.l     D0, D7
0000471A  C1FC 00C0                muls.w     D0, 0xC0
0000471E  204D                     movea.l    A0, A5
00004720  D1FC FFFE 4394           add.l      A0, 0xFFFE4394
00004726  2406                     move.l     D2, D6
00004728  D442                     add.w      D2, D2
0000472A  D440                     add.w      D2, D0
0000472C  0070 1000 2000           ori.w      [A0 + D2.w], 0x1000
00004732  48C7                     ext.l      D7
00004734  2007                     move.l     D0, D7
00004736  C1FC 0060                muls.w     D0, 0x60 /* '`' */
0000473A  204D                     movea.l    A0, A5
0000473C  D1FC FFFD D734           add.l      A0, 0xFFFDD734
00004742  2406                     move.l     D2, D6
00004744  D440                     add.w      D2, D0
00004746  11BC 0001 2000           move.b     [A0 + D2.w], 0x1
0000474C  204D                     movea.l    A0, A5
0000474E  D1FC FFFF 7944           add.l      A0, 0xFFFF7944
00004754  3010                     move.w     D0, [A0]
00004756  48C0                     ext.l      D0
00004758  D081                     add.l      D0, D1
0000475A  48C7                     ext.l      D7
0000475C  2407                     move.l     D2, D7
0000475E  C5FC 00C0                muls.w     D2, 0xC0
00004762  204D                     movea.l    A0, A5
00004764  D1FC FFFE 4454           add.l      A0, 0xFFFE4454
0000476A  2606                     move.l     D3, D6
0000476C  D643                     add.w      D3, D3
0000476E  D642                     add.w      D3, D2
00004770  3180 3000                move.w     [A0 + D3.w], D0
00004774  48C7                     ext.l      D7
00004776  2007                     move.l     D0, D7
00004778  C1FC 00C0                muls.w     D0, 0xC0
0000477C  204D                     movea.l    A0, A5
0000477E  D1FC FFFE 4454           add.l      A0, 0xFFFE4454
00004784  2406                     move.l     D2, D6
00004786  D442                     add.w      D2, D2
00004788  D440                     add.w      D2, D0
0000478A  0070 2000 2000           ori.w      [A0 + D2.w], 0x2000 /* ' \0' */
00004790  48C7                     ext.l      D7
00004792  2007                     move.l     D0, D7
00004794  C1FC 00C0                muls.w     D0, 0xC0
00004798  204D                     movea.l    A0, A5
0000479A  D1FC FFFE 4454           add.l      A0, 0xFFFE4454
000047A0  2406                     move.l     D2, D6
000047A2  D442                     add.w      D2, D2
000047A4  D440                     add.w      D2, D0
000047A6  0070 1000 2000           ori.w      [A0 + D2.w], 0x1000
000047AC  48C7                     ext.l      D7
000047AE  2007                     move.l     D0, D7
000047B0  C1FC 0060                muls.w     D0, 0x60 /* '`' */
000047B4  204D                     movea.l    A0, A5
000047B6  D1FC FFFD D794           add.l      A0, 0xFFFDD794
000047BC  2406                     move.l     D2, D6
000047BE  D440                     add.w      D2, D0
000047C0  11BC 0001 2000           move.b     [A0 + D2.w], 0x1
label000047C6:
000047C6  558F                     subq.l     A7, 2
000047C8  A861                     syscall    Random
000047CA  301F                     move.w     D0, [A7]+
000047CC  0800 0000                btst.b     D0, 0x0
000047D0  670C                     beq        +0xE /* 000047DE */
000047D2  558F                     subq.l     A7, 2
000047D4  A861                     syscall    Random
000047D6  7001                     moveq.l    D0, 0x01
000047D8  C05F                     and.w      D0, [A7]+
000047DA  DE40                     add.w      D7, D0
000047DC  600A                     bra        +0xC /* 000047E8 */
label000047DE:
000047DE  558F                     subq.l     A7, 2
000047E0  A861                     syscall    Random
000047E2  7001                     moveq.l    D0, 0x01
000047E4  C05F                     and.w      D0, [A7]+
000047E6  9E40                     sub.w      D7, D0
label000047E8:
000047E8  3006                     move.w     D0, D6
000047EA  5246                     addq.w     D6, 1
000047EC  0C46 0060                cmpi.w     D6, 0x60 /* '`' */
000047F0  6D00 FE58                blt        -0x1A6 /* 0000464A */
000047F4  6000 01CA                bra        +0x1CC /* 000049C0 */
label000047F8:
000047F8  558F                     subq.l     A7, 2
000047FA  A861                     syscall    Random
000047FC  301F                     move.w     D0, [A7]+
000047FE  48C0                     ext.l      D0
00004800  2F00                     move.l     -[A7], D0
00004802  4EAD 145A                jsr        [A5 + 0x145A /* export_647, CODE:31 @ 00000000 */]
00004806  4C7C 0801 0000 005E      divu.l     D6:D0, 0x8010000
0000480E  4881                     ext.w      D1
00004810  3C01                     move.w     D6, D1
00004812  4247                     clr.w      D7
00004814  584F                     addq.w     A7, 4
label00004816:
00004816  48C6                     ext.l      D6
00004818  2F06                     move.l     -[A7], D6
0000481A  48C7                     ext.l      D7
0000481C  2F07                     move.l     -[A7], D7
0000481E  4EBA 0464                jsr        [PC + 0x464 /* 00004C84 */]
00004822  4A40                     tst.w      D0
00004824  504F                     addq.w     A7, 8
00004826  6700 016A                beq        +0x16C /* 00004992 */
0000482A  204D                     movea.l    A0, A5
0000482C  D1FC FFFF 7944           add.l      A0, 0xFFFF7944
00004832  3010                     move.w     D0, [A0]
00004834  48C0                     ext.l      D0
00004836  7210                     moveq.l    D1, 0x10
00004838  D081                     add.l      D0, D1
0000483A  2407                     move.l     D2, D7
0000483C  C5FC 00C0                muls.w     D2, 0xC0
00004840  204D                     movea.l    A0, A5
00004842  D1FC FFFE 42D4           add.l      A0, 0xFFFE42D4
00004848  2606                     move.l     D3, D6
0000484A  D643                     add.w      D3, D3
0000484C  D642                     add.w      D3, D2
0000484E  3180 3000                move.w     [A0 + D3.w], D0
00004852  2007                     move.l     D0, D7
00004854  C1FC 00C0                muls.w     D0, 0xC0
00004858  204D                     movea.l    A0, A5
0000485A  D1FC FFFE 42D4           add.l      A0, 0xFFFE42D4
00004860  2406                     move.l     D2, D6
00004862  D442                     add.w      D2, D2
00004864  D440                     add.w      D2, D0
00004866  0070 2000 2000           ori.w      [A0 + D2.w], 0x2000 /* ' \0' */
0000486C  2007                     move.l     D0, D7
0000486E  C1FC 00C0                muls.w     D0, 0xC0
00004872  204D                     movea.l    A0, A5
00004874  D1FC FFFE 42D4           add.l      A0, 0xFFFE42D4
0000487A  2406                     move.l     D2, D6
0000487C  D442                     add.w      D2, D2
0000487E  D440                     add.w      D2, D0
00004880  0070 1000 2000           ori.w      [A0 + D2.w], 0x1000
00004886  2007                     move.l     D0, D7
00004888  C1FC 0060                muls.w     D0, 0x60 /* '`' */
0000488C  204D                     movea.l    A0, A5
0000488E  D1FC FFFD D6D4           add.l      A0, 0xFFFDD6D4
00004894  2406                     move.l     D2, D6
00004896  D440                     add.w      D2, D0
00004898  11BC 0001 2000           move.b     [A0 + D2.w], 0x1
0000489E  204D                     movea.l    A0, A5
000048A0  D1FC FFFF 7944           add.l      A0, 0xFFFF7944
000048A6  3010                     move.w     D0, [A0]
000048A8  48C0                     ext.l      D0
000048AA  D081                     add.l      D0, D1
000048AC  48C6                     ext.l      D6
000048AE  2407                     move.l     D2, D7
000048B0  C5FC 00C0                muls.w     D2, 0xC0
000048B4  204D                     movea.l    A0, A5
000048B6  D1FC FFFE 42D4           add.l      A0, 0xFFFE42D4
000048BC  2606                     move.l     D3, D6
000048BE  D643                     add.w      D3, D3
000048C0  D642                     add.w      D3, D2
000048C2  3180 3002                move.w     [A0 + D3.w + 0x2], D0
000048C6  48C6                     ext.l      D6
000048C8  2007                     move.l     D0, D7
000048CA  C1FC 00C0                muls.w     D0, 0xC0
000048CE  204D                     movea.l    A0, A5
000048D0  D1FC FFFE 42D4           add.l      A0, 0xFFFE42D4
000048D6  2406                     move.l     D2, D6
000048D8  D442                     add.w      D2, D2
000048DA  D440                     add.w      D2, D0
000048DC  0070 2000 2002           ori.w      [A0 + D2.w + 0x2], 0x2000 /* ' \0' */
000048E2  48C6                     ext.l      D6
000048E4  2007                     move.l     D0, D7
000048E6  C1FC 00C0                muls.w     D0, 0xC0
000048EA  204D                     movea.l    A0, A5
000048EC  D1FC FFFE 42D4           add.l      A0, 0xFFFE42D4
000048F2  2406                     move.l     D2, D6
000048F4  D442                     add.w      D2, D2
000048F6  D440                     add.w      D2, D0
000048F8  0070 1000 2002           ori.w      [A0 + D2.w + 0x2], 0x1000
000048FE  48C6                     ext.l      D6
00004900  2007                     move.l     D0, D7
00004902  C1FC 0060                muls.w     D0, 0x60 /* '`' */
00004906  204D                     movea.l    A0, A5
00004908  D1FC FFFD D6D4           add.l      A0, 0xFFFDD6D4
0000490E  2406                     move.l     D2, D6
00004910  D440                     add.w      D2, D0
00004912  11BC 0001 2001           move.b     [A0 + D2.w + 0x1], 0x1
00004918  204D                     movea.l    A0, A5
0000491A  D1FC FFFF 7944           add.l      A0, 0xFFFF7944
00004920  3010                     move.w     D0, [A0]
00004922  48C0                     ext.l      D0
00004924  D081                     add.l      D0, D1
00004926  48C6                     ext.l      D6
00004928  2407                     move.l     D2, D7
0000492A  C5FC 00C0                muls.w     D2, 0xC0
0000492E  204D                     movea.l    A0, A5
00004930  D1FC FFFE 42D4           add.l      A0, 0xFFFE42D4
00004936  2606                     move.l     D3, D6
00004938  D643                     add.w      D3, D3
0000493A  D642                     add.w      D3, D2
0000493C  3180 3004                move.w     [A0 + D3.w + 0x4], D0
00004940  48C6                     ext.l      D6
00004942  2007                     move.l     D0, D7
00004944  C1FC 00C0                muls.w     D0, 0xC0
00004948  204D                     movea.l    A0, A5
0000494A  D1FC FFFE 42D4           add.l      A0, 0xFFFE42D4
00004950  2406                     move.l     D2, D6
00004952  D442                     add.w      D2, D2
00004954  D440                     add.w      D2, D0
00004956  0070 2000 2004           ori.w      [A0 + D2.w + 0x4], 0x2000 /* ' \0' */
0000495C  48C6                     ext.l      D6
0000495E  2007                     move.l     D0, D7
00004960  C1FC 00C0                muls.w     D0, 0xC0
00004964  204D                     movea.l    A0, A5
00004966  D1FC FFFE 42D4           add.l      A0, 0xFFFE42D4
0000496C  2406                     move.l     D2, D6
0000496E  D442                     add.w      D2, D2
00004970  D440                     add.w      D2, D0
00004972  0070 1000 2004           ori.w      [A0 + D2.w + 0x4], 0x1000
00004978  48C6                     ext.l      D6
0000497A  2007                     move.l     D0, D7
0000497C  C1FC 0060                muls.w     D0, 0x60 /* '`' */
00004980  204D                     movea.l    A0, A5
00004982  D1FC FFFD D6D4           add.l      A0, 0xFFFDD6D4
00004988  2406                     move.l     D2, D6
0000498A  D440                     add.w      D2, D0
0000498C  11BC 0001 2002           move.b     [A0 + D2.w + 0x2], 0x1
label00004992:
00004992  558F                     subq.l     A7, 2
00004994  A861                     syscall    Random
00004996  301F                     move.w     D0, [A7]+
00004998  0800 0000                btst.b     D0, 0x0
0000499C  670C                     beq        +0xE /* 000049AA */
0000499E  558F                     subq.l     A7, 2
000049A0  A861                     syscall    Random
000049A2  7001                     moveq.l    D0, 0x01
000049A4  C05F                     and.w      D0, [A7]+
000049A6  DC40                     add.w      D6, D0
000049A8  600A                     bra        +0xC /* 000049B4 */
label000049AA:
000049AA  558F                     subq.l     A7, 2
000049AC  A861                     syscall    Random
000049AE  7001                     moveq.l    D0, 0x01
000049B0  C05F                     and.w      D0, [A7]+
000049B2  9C40                     sub.w      D6, D0
label000049B4:
000049B4  3007                     move.w     D0, D7
000049B6  5247                     addq.w     D7, 1
000049B8  0C47 0060                cmpi.w     D7, 0x60 /* '`' */
000049BC  6D00 FE58                blt        -0x1A6 /* 00004816 */
label000049C0:
000049C0  7002                     moveq.l    D0, 0x02
000049C2  204D                     movea.l    A0, A5
000049C4  D1FC FFFD AC08           add.l      A0, 0xFFFDAC08
000049CA  C010                     and.b      D0, [A0]
000049CC  6700 027C                beq        +0x27E /* 00004C4A */
000049D0  558F                     subq.l     A7, 2
000049D2  A861                     syscall    Random
000049D4  301F                     move.w     D0, [A7]+
000049D6  48C0                     ext.l      D0
000049D8  2F00                     move.l     -[A7], D0
000049DA  4EAD 145A                jsr        [A5 + 0x145A /* export_647, CODE:31 @ 00000000 */]
000049DE  4C7C 0801 0000 0030      divu.l     D0:D0, 0x8010000
000049E6  4881                     ext.w      D1
000049E8  2D41 FFF2                move.l     [A6 - 0xE], D1
000049EC  558F                     subq.l     A7, 2
000049EE  A861                     syscall    Random
000049F0  301F                     move.w     D0, [A7]+
000049F2  48C0                     ext.l      D0
000049F4  2F00                     move.l     -[A7], D0
000049F6  4EAD 145A                jsr        [A5 + 0x145A /* export_647, CODE:31 @ 00000000 */]
000049FA  4C7C 0801 0000 0018      divu.l     D0:D0, 0x8010000
00004A02  4881                     ext.w      D1
00004A04  202E FFF2                move.l     D0, [A6 - 0xE]
00004A08  D240                     add.w      D1, D0
00004A0A  3D41 FFF8                move.w     [A6 - 0x8], D1
00004A0E  558F                     subq.l     A7, 2
00004A10  A861                     syscall    Random
00004A12  301F                     move.w     D0, [A7]+
00004A14  48C0                     ext.l      D0
00004A16  2F00                     move.l     -[A7], D0
00004A18  4EAD 145A                jsr        [A5 + 0x145A /* export_647, CODE:31 @ 00000000 */]
00004A1C  4C7C 0801 0000 0030      divu.l     D0:D0, 0x8010000
00004A24  4881                     ext.w      D1
00004A26  2D41 FFEE                move.l     [A6 - 0x12], D1
00004A2A  558F                     subq.l     A7, 2
00004A2C  A861                     syscall    Random
00004A2E  301F                     move.w     D0, [A7]+
00004A30  48C0                     ext.l      D0
00004A32  2F00                     move.l     -[A7], D0
00004A34  4EAD 145A                jsr        [A5 + 0x145A /* export_647, CODE:31 @ 00000000 */]
00004A38  4C7C 0801 0000 0018      divu.l     D0:D0, 0x8010000
00004A40  4881                     ext.w      D1
00004A42  202E FFEE                move.l     D0, [A6 - 0x12]
00004A46  D240                     add.w      D1, D0
00004A48  3D41 FFFA                move.w     [A6 - 0x6], D1
00004A4C  558F                     subq.l     A7, 2
00004A4E  A861                     syscall    Random
00004A50  7007                     moveq.l    D0, 0x07
00004A52  C05F                     and.w      D0, [A7]+
00004A54  5840                     addq.w     D0, 4
00004A56  3D40 FFF6                move.w     [A6 - 0xA], D0
00004A5A  3C2E FFFA                move.w     D6, [A6 - 0x6]
00004A5E  426E FFFC                clr.w      [A6 - 0x4]
00004A62  4FEF 0010                lea.l      A7, [A7 + 0x10]
00004A66  6000 00E6                bra        +0xE8 /* 00004B4E */
label00004A6A:
00004A6A  558F                     subq.l     A7, 2
00004A6C  A861                     syscall    Random
00004A6E  7003                     moveq.l    D0, 0x03
00004A70  C05F                     and.w      D0, [A7]+
00004A72  3D40 FFFE                move.w     [A6 - 0x2], D0
00004A76  302E FFFC                move.w     D0, [A6 - 0x4]
00004A7A  48C0                     ext.l      D0
00004A7C  E388                     lsl        D0, 1
00004A7E  5280                     addq.l     D0, 1
00004A80  382E FFFE                move.w     D4, [A6 - 0x2]
00004A84  D840                     add.w      D4, D0
00004A86  302E FFF8                move.w     D0, [A6 - 0x8]
00004A8A  48C0                     ext.l      D0
00004A8C  3204                     move.w     D1, D4
00004A8E  E241                     asr        D1.w, 1
00004A90  48C1                     ext.l      D1
00004A92  9081                     sub.l      D0, D1
00004A94  322E FFFE                move.w     D1, [A6 - 0x2]
00004A98  E241                     asr        D1.w, 1
00004A9A  3A01                     move.w     D5, D1
00004A9C  DA40                     add.w      D5, D0
00004A9E  3E05                     move.w     D7, D5
00004AA0  6000 0090                bra        +0x92 /* 00004B32 */
label00004AA4:
00004AA4  302E FFFA                move.w     D0, [A6 - 0x6]
00004AA8  48C0                     ext.l      D0
00004AAA  2F00                     move.l     -[A7], D0
00004AAC  48C7                     ext.l      D7
00004AAE  2F07                     move.l     -[A7], D7
00004AB0  4EBA 01D2                jsr        [PC + 0x1D2 /* 00004C84 */]
00004AB4  4A40                     tst.w      D0
00004AB6  504F                     addq.w     A7, 8
00004AB8  6774                     beq        +0x76 /* 00004B2E */
00004ABA  204D                     movea.l    A0, A5
00004ABC  D1FC FFFF 7944           add.l      A0, 0xFFFF7944
00004AC2  3010                     move.w     D0, [A0]
00004AC4  48C0                     ext.l      D0
00004AC6  7210                     moveq.l    D1, 0x10
00004AC8  D081                     add.l      D0, D1
00004ACA  2407                     move.l     D2, D7
00004ACC  C5FC 00C0                muls.w     D2, 0xC0
00004AD0  204D                     movea.l    A0, A5
00004AD2  D1FC FFFE 42D4           add.l      A0, 0xFFFE42D4
00004AD8  2606                     move.l     D3, D6
00004ADA  D643                     add.w      D3, D3
00004ADC  D642                     add.w      D3, D2
00004ADE  3180 3000                move.w     [A0 + D3.w], D0
00004AE2  2007                     move.l     D0, D7
00004AE4  C1FC 00C0                muls.w     D0, 0xC0
00004AE8  204D                     movea.l    A0, A5
00004AEA  D1FC FFFE 42D4           add.l      A0, 0xFFFE42D4
00004AF0  2406                     move.l     D2, D6
00004AF2  D442                     add.w      D2, D2
00004AF4  D440                     add.w      D2, D0
00004AF6  0070 2000 2000           ori.w      [A0 + D2.w], 0x2000 /* ' \0' */
00004AFC  2007                     move.l     D0, D7
00004AFE  C1FC 00C0                muls.w     D0, 0xC0
00004B02  204D                     movea.l    A0, A5
00004B04  D1FC FFFE 42D4           add.l      A0, 0xFFFE42D4
00004B0A  2406                     move.l     D2, D6
00004B0C  D442                     add.w      D2, D2
00004B0E  D440                     add.w      D2, D0
00004B10  0070 1000 2000           ori.w      [A0 + D2.w], 0x1000
00004B16  2007                     move.l     D0, D7
00004B18  C1FC 0060                muls.w     D0, 0x60 /* '`' */
00004B1C  204D                     movea.l    A0, A5
00004B1E  D1FC FFFD D6D4           add.l      A0, 0xFFFDD6D4
00004B24  2406                     move.l     D2, D6
00004B26  D440                     add.w      D2, D0
00004B28  11BC 0001 2000           move.b     [A0 + D2.w], 0x1
label00004B2E:
00004B2E  3007                     move.w     D0, D7
00004B30  5247                     addq.w     D7, 1
label00004B32:
00004B32  48C7                     ext.l      D7
00004B34  48C5                     ext.l      D5
00004B36  48C4                     ext.l      D4
00004B38  2005                     move.l     D0, D5
00004B3A  D084                     add.l      D0, D4
00004B3C  B087                     cmp.l      D0, D7
00004B3E  6E00 FF64                bgt        -0x9A /* 00004AA4 */
00004B42  3006                     move.w     D0, D6
00004B44  5246                     addq.w     D6, 1
00004B46  302E FFFC                move.w     D0, [A6 - 0x4]
00004B4A  526E FFFC                addq.w     [A6 - 0x4], 1
label00004B4E:
00004B4E  302E FFFC                move.w     D0, [A6 - 0x4]
00004B52  B06E FFF6                cmp.w      D0, [A6 - 0xA]
00004B56  6D00 FF12                blt        -0xEC /* 00004A6A */
00004B5A  6000 00E6                bra        +0xE8 /* 00004C42 */
label00004B5E:
00004B5E  558F                     subq.l     A7, 2
00004B60  A861                     syscall    Random
00004B62  7003                     moveq.l    D0, 0x03
00004B64  C05F                     and.w      D0, [A7]+
00004B66  3D40 FFFE                move.w     [A6 - 0x2], D0
00004B6A  302E FFFC                move.w     D0, [A6 - 0x4]
00004B6E  48C0                     ext.l      D0
00004B70  E388                     lsl        D0, 1
00004B72  5280                     addq.l     D0, 1
00004B74  382E FFFE                move.w     D4, [A6 - 0x2]
00004B78  D840                     add.w      D4, D0
00004B7A  302E FFF8                move.w     D0, [A6 - 0x8]
00004B7E  48C0                     ext.l      D0
00004B80  3204                     move.w     D1, D4
00004B82  E241                     asr        D1.w, 1
00004B84  48C1                     ext.l      D1
00004B86  9081                     sub.l      D0, D1
00004B88  322E FFFE                move.w     D1, [A6 - 0x2]
00004B8C  E241                     asr        D1.w, 1
00004B8E  3A01                     move.w     D5, D1
00004B90  DA40                     add.w      D5, D0
00004B92  3E05                     move.w     D7, D5
00004B94  6000 0090                bra        +0x92 /* 00004C26 */
label00004B98:
00004B98  302E FFFA                move.w     D0, [A6 - 0x6]
00004B9C  48C0                     ext.l      D0
00004B9E  2F00                     move.l     -[A7], D0
00004BA0  48C7                     ext.l      D7
00004BA2  2F07                     move.l     -[A7], D7
00004BA4  4EBA 00DE                jsr        [PC + 0xDE /* 00004C84 */]
00004BA8  4A40                     tst.w      D0
00004BAA  504F                     addq.w     A7, 8
00004BAC  6774                     beq        +0x76 /* 00004C22 */
00004BAE  204D                     movea.l    A0, A5
00004BB0  D1FC FFFF 7944           add.l      A0, 0xFFFF7944
00004BB6  3010                     move.w     D0, [A0]
00004BB8  48C0                     ext.l      D0
00004BBA  7210                     moveq.l    D1, 0x10
00004BBC  D081                     add.l      D0, D1
00004BBE  2407                     move.l     D2, D7
00004BC0  C5FC 00C0                muls.w     D2, 0xC0
00004BC4  204D                     movea.l    A0, A5
00004BC6  D1FC FFFE 42D4           add.l      A0, 0xFFFE42D4
00004BCC  2606                     move.l     D3, D6
00004BCE  D643                     add.w      D3, D3
00004BD0  D642                     add.w      D3, D2
00004BD2  3180 3000                move.w     [A0 + D3.w], D0
00004BD6  2007                     move.l     D0, D7
00004BD8  C1FC 00C0                muls.w     D0, 0xC0
00004BDC  204D                     movea.l    A0, A5
00004BDE  D1FC FFFE 42D4           add.l      A0, 0xFFFE42D4
00004BE4  2406                     move.l     D2, D6
00004BE6  D442                     add.w      D2, D2
00004BE8  D440                     add.w      D2, D0
00004BEA  0070 2000 2000           ori.w      [A0 + D2.w], 0x2000 /* ' \0' */
00004BF0  2007                     move.l     D0, D7
00004BF2  C1FC 00C0                muls.w     D0, 0xC0
00004BF6  204D                     movea.l    A0, A5
00004BF8  D1FC FFFE 42D4           add.l      A0, 0xFFFE42D4
00004BFE  2406                     move.l     D2, D6
00004C00  D442                     add.w      D2, D2
00004C02  D440                     add.w      D2, D0
00004C04  0070 1000 2000           ori.w      [A0 + D2.w], 0x1000
00004C0A  2007                     move.l     D0, D7
00004C0C  C1FC 0060                muls.w     D0, 0x60 /* '`' */
00004C10  204D                     movea.l    A0, A5
00004C12  D1FC FFFD D6D4           add.l      A0, 0xFFFDD6D4
00004C18  2406                     move.l     D2, D6
00004C1A  D440                     add.w      D2, D0
00004C1C  11BC 0001 2000           move.b     [A0 + D2.w], 0x1
label00004C22:
00004C22  3007                     move.w     D0, D7
00004C24  5247                     addq.w     D7, 1
label00004C26:
00004C26  48C7                     ext.l      D7
00004C28  48C5                     ext.l      D5
00004C2A  48C4                     ext.l      D4
00004C2C  2005                     move.l     D0, D5
00004C2E  D084                     add.l      D0, D4
00004C30  B087                     cmp.l      D0, D7
00004C32  6E00 FF64                bgt        -0x9A /* 00004B98 */
00004C36  3006                     move.w     D0, D6
00004C38  5246                     addq.w     D6, 1
00004C3A  302E FFFC                move.w     D0, [A6 - 0x4]
00004C3E  536E FFFC                subq.w     [A6 - 0x4], 1
label00004C42:
00004C42  4A6E FFFC                tst.w      [A6 - 0x4]
00004C46  6E00 FF16                bgt        -0xE8 /* 00004B5E */
label00004C4A:
00004C4A  4EAD 089A                jsr        [A5 + 0x89A /* export_271, CODE:15 @ 00000A94 */]
00004C4E  7000                     moveq.l    D0, 0x00
00004C50  2F00                     move.l     -[A7], D0
00004C52  204D                     movea.l    A0, A5
00004C54  D1FC FFFF 7868           add.l      A0, 0xFFFF7868
00004C5A  2F10                     move.l     -[A7], [A0]
00004C5C  4EAD 139A                jsr        [A5 + 0x139A /* export_623, CODE:27 @ 00001002 */]
00004C60  504F                     addq.w     A7, 8
00004C62  4CEE 00F8 FFDA           movem.l    D3,D4,D5,D6,D7, [A6 - 0x26]
00004C68  4E5E                     unlink     A6
00004C6A  4E75                     rts
00004C6C  9469 6E69 745F 7469 6... dc.b       "init_tile_buffer__Fv"
fn00004C84:
00004C84  4E56 0000                link       A6, 0
00004C88  48E7 0300                movem.l    -[A7], D6,D7
00004C8C  3C2E 000E                move.w     D6, [A6 + 0xE]
00004C90  3E2E 000A                move.w     D7, [A6 + 0xA]
00004C94  6D10                     blt        +0x12 /* 00004CA6 */
00004C96  0C47 0060                cmpi.w     D7, 0x60 /* '`' */
00004C9A  6C0A                     bge        +0xC /* 00004CA6 */
00004C9C  4A46                     tst.w      D6
00004C9E  6D06                     blt        +0x8 /* 00004CA6 */
00004CA0  0C46 0060                cmpi.w     D6, 0x60 /* '`' */
00004CA4  6D04                     blt        +0x6 /* 00004CAA */
label00004CA6:
00004CA6  7000                     moveq.l    D0, 0x00
00004CA8  6002                     bra        +0x4 /* 00004CAC */
label00004CAA:
00004CAA  7001                     moveq.l    D0, 0x01
label00004CAC:
00004CAC  4CEE 00C0 FFF8           movem.l    D6,D7, [A6 - 0x8]
00004CB2  4E5E                     unlink     A6
00004CB4  4E75                     rts
00004CB6  9063 6F6F 7264 696E 7... dc.b       "coordinrng__FsT1"
export_260:
00004CCA  4E56 0000                link       A6, 0
00004CCE  48E7 1300                movem.l    -[A7], D3,D6,D7
00004CD2  204D                     movea.l    A0, A5
00004CD4  D1FC FFFD CE1A           add.l      A0, 0xFFFDCE1A
00004CDA  7000                     moveq.l    D0, 0x00
00004CDC  2080                     move.l     [A0], D0
00004CDE  204D                     movea.l    A0, A5
00004CE0  D1FC FFFD CE1E           add.l      A0, 0xFFFDCE1E
00004CE6  2080                     move.l     [A0], D0
00004CE8  204D                     movea.l    A0, A5
00004CEA  D1FC FFFD CE3E           add.l      A0, 0xFFFDCE3E
00004CF0  2080                     move.l     [A0], D0
00004CF2  204D                     movea.l    A0, A5
00004CF4  D1FC FFFD CE4E           add.l      A0, 0xFFFDCE4E
00004CFA  2080                     move.l     [A0], D0
00004CFC  204D                     movea.l    A0, A5
00004CFE  D1FC FFFD CE46           add.l      A0, 0xFFFDCE46
00004D04  2080                     move.l     [A0], D0
00004D06  204D                     movea.l    A0, A5
00004D08  D1FC FFFD CE26           add.l      A0, 0xFFFDCE26
00004D0E  2080                     move.l     [A0], D0
00004D10  204D                     movea.l    A0, A5
00004D12  D1FC FFFD CE2A           add.l      A0, 0xFFFDCE2A
00004D18  2080                     move.l     [A0], D0
00004D1A  204D                     movea.l    A0, A5
00004D1C  D1FC FFFD CE2E           add.l      A0, 0xFFFDCE2E
00004D22  2080                     move.l     [A0], D0
00004D24  204D                     movea.l    A0, A5
00004D26  D1FC FFFD CE32           add.l      A0, 0xFFFDCE32
00004D2C  2080                     move.l     [A0], D0
00004D2E  204D                     movea.l    A0, A5
00004D30  D1FC FFFD CE56           add.l      A0, 0xFFFDCE56
00004D36  2080                     move.l     [A0], D0
00004D38  204D                     movea.l    A0, A5
00004D3A  D1FC FFFD CE5E           add.l      A0, 0xFFFDCE5E
00004D40  2080                     move.l     [A0], D0
00004D42  204D                     movea.l    A0, A5
00004D44  D1FC FFFD CE52           add.l      A0, 0xFFFDCE52
00004D4A  2080                     move.l     [A0], D0
00004D4C  204D                     movea.l    A0, A5
00004D4E  D1FC FFFD CE3A           add.l      A0, 0xFFFDCE3A
00004D54  2080                     move.l     [A0], D0
00004D56  204D                     movea.l    A0, A5
00004D58  D1FC FFFD AD22           add.l      A0, 0xFFFDAD22
00004D5E  10BC 0001                move.b     [A0], 0x1
00004D62  204D                     movea.l    A0, A5
00004D64  D1FC FFFD AD20           add.l      A0, 0xFFFDAD20
00004D6A  4210                     clr.b      [A0]
00004D6C  204D                     movea.l    A0, A5
00004D6E  D1FC FFFE BE6E           add.l      A0, 0xFFFEBE6E
00004D74  4210                     clr.b      [A0]
00004D76  4247                     clr.w      D7
00004D78  7608                     moveq.l    D3, 0x08
label00004D7A:
00004D7A  204D                     movea.l    A0, A5
00004D7C  D1FC FFFE BE70           add.l      A0, 0xFFFEBE70
00004D82  4230 7000                clr.b      [A0 + D7.w]
00004D86  3007                     move.w     D0, D7
00004D88  5247                     addq.w     D7, 1
00004D8A  B647                     cmp.w      D3, D7
00004D8C  6EEC                     bgt        -0x12 /* 00004D7A */
00004D8E  4247                     clr.w      D7
00004D90  7613                     moveq.l    D3, 0x13
label00004D92:
00004D92  2007                     move.l     D0, D7
00004D94  D040                     add.w      D0, D0
00004D96  204D                     movea.l    A0, A5
00004D98  D1FC FFFE BE78           add.l      A0, 0xFFFEBE78
00004D9E  4270 0000                clr.w      [A0 + D0.w]
00004DA2  3007                     move.w     D0, D7
00004DA4  5247                     addq.w     D7, 1
00004DA6  B647                     cmp.w      D3, D7
00004DA8  6EE8                     bgt        -0x16 /* 00004D92 */
00004DAA  4EAD 0622                jsr        [A5 + 0x622 /* export_192, CODE:10 @ 00003BE4 */]
00004DAE  204D                     movea.l    A0, A5
00004DB0  D1FC FFFD AD70           add.l      A0, 0xFFFDAD70
00004DB6  4210                     clr.b      [A0]
00004DB8  4247                     clr.w      D7
00004DBA  7660                     moveq.l    D3, 0x60
label00004DBC:
00004DBC  4246                     clr.w      D6
label00004DBE:
00004DBE  2007                     move.l     D0, D7
00004DC0  C1FC 00C0                muls.w     D0, 0xC0
00004DC4  204D                     movea.l    A0, A5
00004DC6  D1FC FFFE 42D4           add.l      A0, 0xFFFE42D4
00004DCC  2206                     move.l     D1, D6
00004DCE  D241                     add.w      D1, D1
00004DD0  D240                     add.w      D1, D0
00004DD2  0270 C7FF 1000           andi.w     [A0 + D1.w], 0xC7FF
00004DD8  2007                     move.l     D0, D7
00004DDA  C1FC 00C0                muls.w     D0, 0xC0
00004DDE  204D                     movea.l    A0, A5
00004DE0  D1FC FFFD FAD4           add.l      A0, 0xFFFDFAD4
00004DE6  2206                     move.l     D1, D6
00004DE8  D241                     add.w      D1, D1
00004DEA  D240                     add.w      D1, D0
00004DEC  0270 87FF 1000           andi.w     [A0 + D1.w], 0x87FF
00004DF2  3006                     move.w     D0, D6
00004DF4  5246                     addq.w     D6, 1
00004DF6  B646                     cmp.w      D3, D6
00004DF8  6EC4                     bgt        -0x3A /* 00004DBE */
00004DFA  3007                     move.w     D0, D7
00004DFC  5247                     addq.w     D7, 1
00004DFE  B647                     cmp.w      D3, D7
00004E00  6EBA                     bgt        -0x44 /* 00004DBC */
00004E02  4247                     clr.w      D7
00004E04  7604                     moveq.l    D3, 0x04
label00004E06:
00004E06  2007                     move.l     D0, D7
00004E08  C1FC 0012                muls.w     D0, 0x12
00004E0C  204D                     movea.l    A0, A5
00004E0E  D1FC FFFE 997C           add.l      A0, 0xFFFE997C
00004E14  4270 0004                clr.w      [A0 + D0.w + 0x4]
00004E18  3007                     move.w     D0, D7
00004E1A  5247                     addq.w     D7, 1
00004E1C  B647                     cmp.w      D3, D7
00004E1E  6EE6                     bgt        -0x18 /* 00004E06 */
00004E20  4247                     clr.w      D7
00004E22  7611                     moveq.l    D3, 0x11
label00004E24:
00004E24  2007                     move.l     D0, D7
00004E26  C1FC 0012                muls.w     D0, 0x12
00004E2A  204D                     movea.l    A0, A5
00004E2C  D1FC FFFE 984A           add.l      A0, 0xFFFE984A
00004E32  4270 0004                clr.w      [A0 + D0.w + 0x4]
00004E36  3007                     move.w     D0, D7
00004E38  5247                     addq.w     D7, 1
00004E3A  B647                     cmp.w      D3, D7
00004E3C  6EE6                     bgt        -0x18 /* 00004E24 */
00004E3E  4247                     clr.w      D7
00004E40  7610                     moveq.l    D3, 0x10
label00004E42:
00004E42  2007                     move.l     D0, D7
00004E44  C1FC 0012                muls.w     D0, 0x12
00004E48  204D                     movea.l    A0, A5
00004E4A  D1FC FFFE 9AE4           add.l      A0, 0xFFFE9AE4
00004E50  4270 0004                clr.w      [A0 + D0.w + 0x4]
00004E54  2007                     move.l     D0, D7
00004E56  C1FC 0012                muls.w     D0, 0x12
00004E5A  204D                     movea.l    A0, A5
00004E5C  D1FC FFFE 99C4           add.l      A0, 0xFFFE99C4
00004E62  4270 0004                clr.w      [A0 + D0.w + 0x4]
00004E66  3007                     move.w     D0, D7
00004E68  5247                     addq.w     D7, 1
00004E6A  B647                     cmp.w      D3, D7
00004E6C  6ED4                     bgt        -0x2A /* 00004E42 */
00004E6E  4247                     clr.w      D7
00004E70  7605                     moveq.l    D3, 0x05
label00004E72:
00004E72  2007                     move.l     D0, D7
00004E74  C1FC 0012                muls.w     D0, 0x12
00004E78  204D                     movea.l    A0, A5
00004E7A  D1FC FFFE 9C04           add.l      A0, 0xFFFE9C04
00004E80  4270 0004                clr.w      [A0 + D0.w + 0x4]
00004E84  3007                     move.w     D0, D7
00004E86  5247                     addq.w     D7, 1
00004E88  B647                     cmp.w      D3, D7
00004E8A  6EE6                     bgt        -0x18 /* 00004E72 */
00004E8C  4247                     clr.w      D7
00004E8E  363C 0100                move.w     D3, 0x100
label00004E92:
00004E92  2007                     move.l     D0, D7
00004E94  C1FC 0022                muls.w     D0, 0x22 /* '\"' */
00004E98  204D                     movea.l    A0, A5
00004E9A  D1FC FFFD 71EC           add.l      A0, 0xFFFD71EC
00004EA0  4270 0002                clr.w      [A0 + D0.w + 0x2]
00004EA4  3007                     move.w     D0, D7
00004EA6  5247                     addq.w     D7, 1
00004EA8  B647                     cmp.w      D3, D7
00004EAA  6EE6                     bgt        -0x18 /* 00004E92 */
00004EAC  204D                     movea.l    A0, A5
00004EAE  D1FC FFFD 71EA           add.l      A0, 0xFFFD71EA
00004EB4  4250                     clr.w      [A0]
00004EB6  4247                     clr.w      D7
00004EB8  7618                     moveq.l    D3, 0x18
label00004EBA:
00004EBA  2007                     move.l     D0, D7
00004EBC  C1FC 0012                muls.w     D0, 0x12
00004EC0  204D                     movea.l    A0, A5
00004EC2  D1FC FFFE 9C5E           add.l      A0, 0xFFFE9C5E
00004EC8  4270 0004                clr.w      [A0 + D0.w + 0x4]
00004ECC  3007                     move.w     D0, D7
00004ECE  5247                     addq.w     D7, 1
00004ED0  B647                     cmp.w      D3, D7
00004ED2  6EE6                     bgt        -0x18 /* 00004EBA */
00004ED4  4247                     clr.w      D7
00004ED6  767F                     moveq.l    D3, 0x7F
label00004ED8:
00004ED8  2007                     move.l     D0, D7
00004EDA  48C0                     ext.l      D0
00004EDC  E588                     lsl        D0, 2
00004EDE  2200                     move.l     D1, D0
00004EE0  E588                     lsl        D0, 2
00004EE2  D081                     add.l      D0, D1
00004EE4  204D                     movea.l    A0, A5
00004EE6  D1FC FFFE 8AF0           add.l      A0, 0xFFFE8AF0
00004EEC  4270 0002                clr.w      [A0 + D0.w + 0x2]
00004EF0  3007                     move.w     D0, D7
00004EF2  5247                     addq.w     D7, 1
00004EF4  B647                     cmp.w      D3, D7
00004EF6  6EE0                     bgt        -0x1E /* 00004ED8 */
00004EF8  204D                     movea.l    A0, A5
00004EFA  D1FC FFFE 8AEE           add.l      A0, 0xFFFE8AEE
00004F00  4250                     clr.w      [A0]
00004F02  4247                     clr.w      D7
00004F04  760C                     moveq.l    D3, 0x0C
label00004F06:
00004F06  2007                     move.l     D0, D7
00004F08  C1FC 0012                muls.w     D0, 0x12
00004F0C  204D                     movea.l    A0, A5
00004F0E  D1FC FFFE 9EB0           add.l      A0, 0xFFFE9EB0
00004F14  4270 0004                clr.w      [A0 + D0.w + 0x4]
00004F18  3007                     move.w     D0, D7
00004F1A  5247                     addq.w     D7, 1
00004F1C  B647                     cmp.w      D3, D7
00004F1E  6EE6                     bgt        -0x18 /* 00004F06 */
00004F20  4247                     clr.w      D7
00004F22  767F                     moveq.l    D3, 0x7F
label00004F24:
00004F24  2007                     move.l     D0, D7
00004F26  C1FC 003A                muls.w     D0, 0x3A /* ':' */
00004F2A  204D                     movea.l    A0, A5
00004F2C  D1FC FFFE 9F9C           add.l      A0, 0xFFFE9F9C
00004F32  4270 0002                clr.w      [A0 + D0.w + 0x2]
00004F36  3007                     move.w     D0, D7
00004F38  5247                     addq.w     D7, 1
00004F3A  B647                     cmp.w      D3, D7
00004F3C  6EE6                     bgt        -0x18 /* 00004F24 */
00004F3E  204D                     movea.l    A0, A5
00004F40  D1FC FFFE 9F9A           add.l      A0, 0xFFFE9F9A
00004F46  4250                     clr.w      [A0]
00004F48  4247                     clr.w      D7
00004F4A  7609                     moveq.l    D3, 0x09
label00004F4C:
00004F4C  2007                     move.l     D0, D7
00004F4E  C1FC 0012                muls.w     D0, 0x12
00004F52  204D                     movea.l    A0, A5
00004F54  D1FC FFFE 9E0E           add.l      A0, 0xFFFE9E0E
00004F5A  4270 0004                clr.w      [A0 + D0.w + 0x4]
00004F5E  3007                     move.w     D0, D7
00004F60  5247                     addq.w     D7, 1
00004F62  B647                     cmp.w      D3, D7
00004F64  6EE6                     bgt        -0x18 /* 00004F4C */
00004F66  4247                     clr.w      D7
00004F68  767F                     moveq.l    D3, 0x7F
label00004F6A:
00004F6A  2007                     move.l     D0, D7
00004F6C  C1FC 0046                muls.w     D0, 0x46 /* 'F' */
00004F70  204D                     movea.l    A0, A5
00004F72  D1FC FFFE D880           add.l      A0, 0xFFFED880
00004F78  4270 0002                clr.w      [A0 + D0.w + 0x2]
00004F7C  3007                     move.w     D0, D7
00004F7E  5247                     addq.w     D7, 1
00004F80  B647                     cmp.w      D3, D7
00004F82  6EE6                     bgt        -0x18 /* 00004F6A */
00004F84  204D                     movea.l    A0, A5
00004F86  D1FC FFFE 94DC           add.l      A0, 0xFFFE94DC
00004F8C  4250                     clr.w      [A0]
00004F8E  4247                     clr.w      D7
00004F90  7662                     moveq.l    D3, 0x62
label00004F92:
00004F92  2007                     move.l     D0, D7
00004F94  C1FC 0044                muls.w     D0, 0x44 /* 'D' */
00004F98  204D                     movea.l    A0, A5
00004F9A  D1FC FFFD AFAE           add.l      A0, 0xFFFDAFAE
00004FA0  4270 0006                clr.w      [A0 + D0.w + 0x6]
00004FA4  3007                     move.w     D0, D7
00004FA6  5247                     addq.w     D7, 1
00004FA8  B647                     cmp.w      D3, D7
00004FAA  6EE6                     bgt        -0x18 /* 00004F92 */
00004FAC  204D                     movea.l    A0, A5
00004FAE  D1FC FFFD AFAC           add.l      A0, 0xFFFDAFAC
00004FB4  4250                     clr.w      [A0]
00004FB6  4247                     clr.w      D7
00004FB8  363C 0200                move.w     D3, 0x200
label00004FBC:
00004FBC  2007                     move.l     D0, D7
00004FBE  C1FC 000C                muls.w     D0, 0xC
00004FC2  204D                     movea.l    A0, A5
00004FC4  D1FC FFFD 9400           add.l      A0, 0xFFFD9400
00004FCA  4230 000A                clr.b      [A0 + D0.w + 0xA]
00004FCE  3007                     move.w     D0, D7
00004FD0  5247                     addq.w     D7, 1
00004FD2  B647                     cmp.w      D3, D7
00004FD4  6EE6                     bgt        -0x18 /* 00004FBC */
00004FD6  204D                     movea.l    A0, A5
00004FD8  D1FC FFFD 93FE           add.l      A0, 0xFFFD93FE
00004FDE  4250                     clr.w      [A0]
00004FE0  4247                     clr.w      D7
00004FE2  7640                     moveq.l    D3, 0x40
label00004FE4:
00004FE4  2007                     move.l     D0, D7
00004FE6  48C0                     ext.l      D0
00004FE8  2200                     move.l     D1, D0
00004FEA  D080                     add.l      D0, D0
00004FEC  D081                     add.l      D0, D1
00004FEE  204D                     movea.l    A0, A5
00004FF0  D1FC FFFE D2DE           add.l      A0, 0xFFFED2DE
00004FF6  4230 0002                clr.b      [A0 + D0.w + 0x2]
00004FFA  2007                     move.l     D0, D7
00004FFC  48C0                     ext.l      D0
00004FFE  2200                     move.l     D1, D0
00005000  D080                     add.l      D0, D0
00005002  D081                     add.l      D0, D1
00005004  204D                     movea.l    A0, A5
00005006  D1FC FFFE D2DE           add.l      A0, 0xFFFED2DE
0000500C  4230 0001                clr.b      [A0 + D0.w + 0x1]
00005010  2007                     move.l     D0, D7
00005012  48C0                     ext.l      D0
00005014  2200                     move.l     D1, D0
00005016  D080                     add.l      D0, D0
00005018  D081                     add.l      D0, D1
0000501A  204D                     movea.l    A0, A5
0000501C  D1FC FFFE D2DE           add.l      A0, 0xFFFED2DE
00005022  4230 0000                clr.b      [A0 + D0.w]
00005026  3007                     move.w     D0, D7
00005028  5247                     addq.w     D7, 1
0000502A  B647                     cmp.w      D3, D7
0000502C  6EB6                     bgt        -0x48 /* 00004FE4 */
0000502E  4EBA CBF6                jsr        [PC - 0x340A /* 00001C26 */]
00005032  4EBA 001C                jsr        [PC + 0x1C /* 00005050 */]
00005036  4CEE 00C8 FFF4           movem.l    D3,D6,D7, [A6 - 0xC]
0000503C  4E5E                     unlink     A6
0000503E  4E75                     rts
00005040  8D64 6F6E 6577 6761 6... dc.b       "donewgame__Fv"
fn00005050:
00005050  4E56 0000                link       A6, 0
00005054  48E7 1100                movem.l    -[A7], D3,D7
00005058  204D                     movea.l    A0, A5
0000505A  D1FC FFFE D2DC           add.l      A0, 0xFFFED2DC
00005060  4210                     clr.b      [A0]
00005062  204D                     movea.l    A0, A5
00005064  D1FC FFFE D51E           add.l      A0, 0xFFFED51E
0000506A  4210                     clr.b      [A0]
0000506C  204D                     movea.l    A0, A5
0000506E  D1FC FFFE D2D0           add.l      A0, 0xFFFED2D0
00005074  4210                     clr.b      [A0]
00005076  204D                     movea.l    A0, A5
00005078  D1FC FFFE D2D8           add.l      A0, 0xFFFED2D8
0000507E  4210                     clr.b      [A0]
00005080  204D                     movea.l    A0, A5
00005082  D1FC FFFE D2DA           add.l      A0, 0xFFFED2DA
00005088  4210                     clr.b      [A0]
0000508A  204D                     movea.l    A0, A5
0000508C  D1FC FFFE C102           add.l      A0, 0xFFFEC102
00005092  4210                     clr.b      [A0]
00005094  204D                     movea.l    A0, A5
00005096  D1FC FFFE BECE           add.l      A0, 0xFFFEBECE
0000509C  10BC 0001                move.b     [A0], 0x1
000050A0  204D                     movea.l    A0, A5
000050A2  D1FC FFFE FC02           add.l      A0, 0xFFFEFC02
000050A8  4210                     clr.b      [A0]
000050AA  204D                     movea.l    A0, A5
000050AC  D1FC FFFE D2CC           add.l      A0, 0xFFFED2CC
000050B2  4210                     clr.b      [A0]
000050B4  204D                     movea.l    A0, A5
000050B6  D1FC FFFE BED0           add.l      A0, 0xFFFEBED0
000050BC  10BC 0001                move.b     [A0], 0x1
000050C0  204D                     movea.l    A0, A5
000050C2  D1FC FFFE BECC           add.l      A0, 0xFFFEBECC
000050C8  10BC 0001                move.b     [A0], 0x1
000050CC  204D                     movea.l    A0, A5
000050CE  D1FC FFFE BECA           add.l      A0, 0xFFFEBECA
000050D4  4210                     clr.b      [A0]
000050D6  204D                     movea.l    A0, A5
000050D8  D1FC FFFE 8AE4           add.l      A0, 0xFFFE8AE4
000050DE  10BC 0001                move.b     [A0], 0x1
000050E2  204D                     movea.l    A0, A5
000050E4  D1FC FFFE BED6           add.l      A0, 0xFFFEBED6
000050EA  10BC 0001                move.b     [A0], 0x1
000050EE  204D                     movea.l    A0, A5
000050F0  D1FC FFFF 7818           add.l      A0, 0xFFFF7818
000050F6  4210                     clr.b      [A0]
000050F8  204D                     movea.l    A0, A5
000050FA  D1FC FFFF 0444           add.l      A0, 0xFFFF0444
00005100  20BC 0000 9C40           move.l     [A0], 0x9C40
00005106  204D                     movea.l    A0, A5
00005108  D1FC FFFF 0448           add.l      A0, 0xFFFF0448
0000510E  20BC 0000 12C0           move.l     [A0], 0x12C0
00005114  204D                     movea.l    A0, A5
00005116  D1FC FFFE D2C8           add.l      A0, 0xFFFED2C8
0000511C  4210                     clr.b      [A0]
0000511E  204D                     movea.l    A0, A5
00005120  D1FC FFFD CE4E           add.l      A0, 0xFFFDCE4E
00005126  7000                     moveq.l    D0, 0x00
00005128  2080                     move.l     [A0], D0
0000512A  204D                     movea.l    A0, A5
0000512C  D1FC FFFE D2C2           add.l      A0, 0xFFFED2C2
00005132  4210                     clr.b      [A0]
00005134  204D                     movea.l    A0, A5
00005136  D1FC FFFE D2CE           add.l      A0, 0xFFFED2CE
0000513C  4250                     clr.w      [A0]
0000513E  204D                     movea.l    A0, A5
00005140  D1FC FFFE D2CC           add.l      A0, 0xFFFED2CC
00005146  4210                     clr.b      [A0]
00005148  204D                     movea.l    A0, A5
0000514A  D1FC FFFE BD6E           add.l      A0, 0xFFFEBD6E
00005150  2080                     move.l     [A0], D0
00005152  204D                     movea.l    A0, A5
00005154  D1FC FFFE BD72           add.l      A0, 0xFFFEBD72
0000515A  2080                     move.l     [A0], D0
0000515C  204D                     movea.l    A0, A5
0000515E  D1FC FFFE BD66           add.l      A0, 0xFFFEBD66
00005164  2080                     move.l     [A0], D0
00005166  204D                     movea.l    A0, A5
00005168  D1FC FFFE BD62           add.l      A0, 0xFFFEBD62
0000516E  2080                     move.l     [A0], D0
00005170  204D                     movea.l    A0, A5
00005172  D1FC FFFE BD0A           add.l      A0, 0xFFFEBD0A
00005178  2080                     move.l     [A0], D0
0000517A  204D                     movea.l    A0, A5
0000517C  D1FC FFFE BD5E           add.l      A0, 0xFFFEBD5E
00005182  2080                     move.l     [A0], D0
00005184  204D                     movea.l    A0, A5
00005186  D1FC FFFE BD5A           add.l      A0, 0xFFFEBD5A
0000518C  2080                     move.l     [A0], D0
0000518E  204D                     movea.l    A0, A5
00005190  D1FC FFFE BD56           add.l      A0, 0xFFFEBD56
00005196  2080                     move.l     [A0], D0
00005198  204D                     movea.l    A0, A5
0000519A  D1FC FFFE BD52           add.l      A0, 0xFFFEBD52
000051A0  2080                     move.l     [A0], D0
000051A2  204D                     movea.l    A0, A5
000051A4  D1FC FFFE 94DE           add.l      A0, 0xFFFE94DE
000051AA  4210                     clr.b      [A0]
000051AC  204D                     movea.l    A0, A5
000051AE  D1FC FFFE 94E0           add.l      A0, 0xFFFE94E0
000051B4  4210                     clr.b      [A0]
000051B6  204D                     movea.l    A0, A5
000051B8  D1FC FFFE BEC8           add.l      A0, 0xFFFEBEC8
000051BE  10BC 0002                move.b     [A0], 0x2
000051C2  204D                     movea.l    A0, A5
000051C4  D1FC FFFE D2D2           add.l      A0, 0xFFFED2D2
000051CA  4210                     clr.b      [A0]
000051CC  204D                     movea.l    A0, A5
000051CE  D1FC FFFE D2D6           add.l      A0, 0xFFFED2D6
000051D4  4250                     clr.w      [A0]
000051D6  204D                     movea.l    A0, A5
000051D8  D1FC FFFD CECE           add.l      A0, 0xFFFDCECE
000051DE  30BC 0001                move.w     [A0], 0x1
000051E2  204D                     movea.l    A0, A5
000051E4  D1FC FFFD CECC           add.l      A0, 0xFFFDCECC
000051EA  30BC 0001                move.w     [A0], 0x1
000051EE  204D                     movea.l    A0, A5
000051F0  D1FC FFFD CECA           add.l      A0, 0xFFFDCECA
000051F6  30BC 0001                move.w     [A0], 0x1
000051FA  204D                     movea.l    A0, A5
000051FC  D1FC FFFD CEC8           add.l      A0, 0xFFFDCEC8
00005202  30BC 07C8                move.w     [A0], 0x7C8
00005206  204D                     movea.l    A0, A5
00005208  D1FC FFFD CEC6           add.l      A0, 0xFFFDCEC6
0000520E  4250                     clr.w      [A0]
00005210  204D                     movea.l    A0, A5
00005212  D1FC FFFE BE6C           add.l      A0, 0xFFFEBE6C
00005218  10BC FFFF                move.b     [A0], 0xFF
0000521C  204D                     movea.l    A0, A5
0000521E  D1FC FFFD CEC2           add.l      A0, 0xFFFDCEC2
00005224  2080                     move.l     [A0], D0
00005226  204D                     movea.l    A0, A5
00005228  D1FC FFFD CEBE           add.l      A0, 0xFFFDCEBE
0000522E  2080                     move.l     [A0], D0
00005230  204D                     movea.l    A0, A5
00005232  D1FC FFFE 8AE6           add.l      A0, 0xFFFE8AE6
00005238  4210                     clr.b      [A0]
0000523A  204D                     movea.l    A0, A5
0000523C  D1FC FFFE 8AE2           add.l      A0, 0xFFFE8AE2
00005242  30BC 001E                move.w     [A0], 0x1E
00005246  204D                     movea.l    A0, A5
00005248  D1FC FFFE 8AE0           add.l      A0, 0xFFFE8AE0
0000524E  4210                     clr.b      [A0]
00005250  204D                     movea.l    A0, A5
00005252  D1FC FFFE 8ADE           add.l      A0, 0xFFFE8ADE
00005258  4210                     clr.b      [A0]
0000525A  204D                     movea.l    A0, A5
0000525C  D1FC FFFE 8ADC           add.l      A0, 0xFFFE8ADC
00005262  4210                     clr.b      [A0]
00005264  204D                     movea.l    A0, A5
00005266  D1FC FFFD 93F6           add.l      A0, 0xFFFD93F6
0000526C  2080                     move.l     [A0], D0
0000526E  204D                     movea.l    A0, A5
00005270  D1FC FFFE D2BC           add.l      A0, 0xFFFED2BC
00005276  2080                     move.l     [A0], D0
00005278  204D                     movea.l    A0, A5
0000527A  D1FC FFFE D2C0           add.l      A0, 0xFFFED2C0
00005280  4210                     clr.b      [A0]
00005282  204D                     movea.l    A0, A5
00005284  D1FC FFFD 93F0           add.l      A0, 0xFFFD93F0
0000528A  2080                     move.l     [A0], D0
0000528C  204D                     movea.l    A0, A5
0000528E  D1FC FFFD 93FA           add.l      A0, 0xFFFD93FA
00005294  2080                     move.l     [A0], D0
00005296  204D                     movea.l    A0, A5
00005298  D1FC FFFD 93EC           add.l      A0, 0xFFFD93EC
0000529E  2080                     move.l     [A0], D0
000052A0  204D                     movea.l    A0, A5
000052A2  D1FC FFFE BD0E           add.l      A0, 0xFFFEBD0E
000052A8  2080                     move.l     [A0], D0
000052AA  204D                     movea.l    A0, A5
000052AC  D1FC FFFF 044C           add.l      A0, 0xFFFF044C
000052B2  2080                     move.l     [A0], D0
000052B4  204D                     movea.l    A0, A5
000052B6  D1FC FFFE BD7E           add.l      A0, 0xFFFEBD7E
000052BC  4210                     clr.b      [A0]
000052BE  204D                     movea.l    A0, A5
000052C0  D1FC FFFE BD7A           add.l      A0, 0xFFFEBD7A
000052C6  2080                     move.l     [A0], D0
000052C8  204D                     movea.l    A0, A5
000052CA  D1FC FFFD AC08           add.l      A0, 0xFFFDAC08
000052D0  4210                     clr.b      [A0]
000052D2  204D                     movea.l    A0, A5
000052D4  D1FC FFFE D2D4           add.l      A0, 0xFFFED2D4
000052DA  4250                     clr.w      [A0]
000052DC  204D                     movea.l    A0, A5
000052DE  D1FC FFFE D826           add.l      A0, 0xFFFED826
000052E4  4210                     clr.b      [A0]
000052E6  204D                     movea.l    A0, A5
000052E8  D1FC FFFE D63E           add.l      A0, 0xFFFED63E
000052EE  4210                     clr.b      [A0]
000052F0  204D                     movea.l    A0, A5
000052F2  D1FC FFFE D732           add.l      A0, 0xFFFED732
000052F8  4210                     clr.b      [A0]
000052FA  4247                     clr.w      D7
000052FC  363C 0600                move.w     D3, 0x600
label00005300:
00005300  2007                     move.l     D0, D7
00005302  D040                     add.w      D0, D0
00005304  204D                     movea.l    A0, A5
00005306  D1FC FFFE C3CE           add.l      A0, 0xFFFEC3CE
0000530C  31BC 00D1 0000           move.w     [A0 + D0.w], 0xD1
00005312  3007                     move.w     D0, D7
00005314  5247                     addq.w     D7, 1
00005316  B647                     cmp.w      D3, D7
00005318  6EE6                     bgt        -0x18 /* 00005300 */
0000531A  4CEE 0088 FFF8           movem.l    D3,D7, [A6 - 0x8]
00005320  4E5E                     unlink     A6
00005322  4E75                     rts
00005324  9269 6E69 745F 7661 7... dc.b       "init_variables__Fv"
fn0000533A:
0000533A  4E56 0000                link       A6, 0
0000533E  486E 000F                pea.l      [A6 + 0xF]
00005342  486E 000B                pea.l      [A6 + 0xB]
00005346  4EBA 0492                jsr        [PC + 0x492 /* 000057DA */]
0000534A  102E 000F                move.b     D0, [A6 + 0xF]
0000534E  4880                     ext.w      D0
00005350  122E 000B                move.b     D1, [A6 + 0xB]
00005354  4881                     ext.w      D1
00005356  C3FC 0060                muls.w     D1, 0x60 /* '`' */
0000535A  204D                     movea.l    A0, A5
0000535C  D1FC FFFD D6D4           add.l      A0, 0xFFFDD6D4
00005362  D041                     add.w      D0, D1
00005364  1030 0000                move.b     D0, [A0 + D0.w]
00005368  4E5E                     unlink     A6
0000536A  4E75                     rts
0000536C  8A67 616C 745F 5F46 6... dc.b       "galt__FcT1"
fn0000537A:
0000537A  4E56 FFDE                link       A6, -0x0022
0000537E  48E7 1F00                movem.l    -[A7], D3,D4,D5,D6,D7
00005382  182E 000F                move.b     D4, [A6 + 0xF]
00005386  1A2E 000B                move.b     D5, [A6 + 0xB]
0000538A  4206                     clr.b      D6
label0000538C:
0000538C  4207                     clr.b      D7
label0000538E:
0000538E  4886                     ext.w      D6
00005390  4887                     ext.w      D7
00005392  2007                     move.l     D0, D7
00005394  C1FC 00C0                muls.w     D0, 0xC0
00005398  204D                     movea.l    A0, A5
0000539A  D1FC FFFE 42D4           add.l      A0, 0xFFFE42D4
000053A0  2206                     move.l     D1, D6
000053A2  D241                     add.w      D1, D1
000053A4  D240                     add.w      D1, D0
000053A6  7000                     moveq.l    D0, 0x00
000053A8  3030 1000                move.w     D0, [A0 + D1.w]
000053AC  4A80                     tst.l      D0
000053AE  204D                     movea.l    A0, A5
000053B0  D1FC FFFF 7942           add.l      A0, 0xFFFF7942
000053B6  3210                     move.w     D1, [A0]
000053B8  48C1                     ext.l      D1
000053BA  9081                     sub.l      D0, D1
000053BC  720F                     moveq.l    D1, 0x0F
000053BE  C280                     and.l      D1, D0
000053C0  4886                     ext.w      D6
000053C2  4887                     ext.w      D7
000053C4  2007                     move.l     D0, D7
000053C6  C1FC 0060                muls.w     D0, 0x60 /* '`' */
000053CA  204D                     movea.l    A0, A5
000053CC  D1FC FFFD D6D4           add.l      A0, 0xFFFDD6D4
000053D2  2406                     move.l     D2, D6
000053D4  D440                     add.w      D2, D0
000053D6  1181 2000                move.b     [A0 + D2.w], D1
000053DA  4886                     ext.w      D6
000053DC  4887                     ext.w      D7
000053DE  2007                     move.l     D0, D7
000053E0  C1FC 00C0                muls.w     D0, 0xC0
000053E4  204D                     movea.l    A0, A5
000053E6  D1FC FFFE 42D4           add.l      A0, 0xFFFE42D4
000053EC  2206                     move.l     D1, D6
000053EE  D241                     add.w      D1, D1
000053F0  D240                     add.w      D1, D0
000053F2  7000                     moveq.l    D0, 0x00
000053F4  3030 1000                move.w     D0, [A0 + D1.w]
000053F8  323C F800                move.w     D1, 0xF800
000053FC  C240                     and.w      D1, D0
000053FE  7000                     moveq.l    D0, 0x00
00005400  3001                     move.w     D0, D1
00005402  4A80                     tst.l      D0
00005404  204D                     movea.l    A0, A5
00005406  D1FC FFFF 7942           add.l      A0, 0xFFFF7942
0000540C  3210                     move.w     D1, [A0]
0000540E  48C1                     ext.l      D1
00005410  4886                     ext.w      D6
00005412  4887                     ext.w      D7
00005414  2407                     move.l     D2, D7
00005416  C5FC 0060                muls.w     D2, 0x60 /* '`' */
0000541A  204D                     movea.l    A0, A5
0000541C  D1FC FFFD D6D4           add.l      A0, 0xFFFDD6D4
00005422  2606                     move.l     D3, D6
00005424  D642                     add.w      D3, D2
00005426  1630 3000                move.b     D3, [A0 + D3.w]
0000542A  E40B                     lsr        D3.b, 2
0000542C  7400                     moveq.l    D2, 0x00
0000542E  1403                     move.b     D2, D3
00005430  D481                     add.l      D2, D1
00005432  204D                     movea.l    A0, A5
00005434  D1FC FFFE 8AEC           add.l      A0, 0xFFFE8AEC
0000543A  1210                     move.b     D1, [A0]
0000543C  49C1                     lea.l      A4, D1
0000543E  D282                     add.l      D1, D2
00005440  8280                     or.l       D1, D0
00005442  203C FFFF BFFF           move.l     D0, 0xFFFFBFFF
00005448  C081                     and.l      D0, D1
0000544A  4886                     ext.w      D6
0000544C  4887                     ext.w      D7
0000544E  2207                     move.l     D1, D7
00005450  C3FC 00C0                muls.w     D1, 0xC0
00005454  204D                     movea.l    A0, A5
00005456  D1FC FFFE 42D4           add.l      A0, 0xFFFE42D4
0000545C  2406                     move.l     D2, D6
0000545E  D442                     add.w      D2, D2
00005460  D441                     add.w      D2, D1
00005462  3180 2000                move.w     [A0 + D2.w], D0
00005466  4886                     ext.w      D6
00005468  4887                     ext.w      D7
0000546A  2007                     move.l     D0, D7
0000546C  C1FC 0060                muls.w     D0, 0x60 /* '`' */
00005470  204D                     movea.l    A0, A5
00005472  D1FC FFFD D6D4           add.l      A0, 0xFFFDD6D4
00005478  2206                     move.l     D1, D6
0000547A  D240                     add.w      D1, D0
0000547C  7000                     moveq.l    D0, 0x00
0000547E  1030 1000                move.b     D0, [A0 + D1.w]
00005482  0C00 000A                cmpi.b     D0, 0xA /* '\n' */
00005486  655A                     bcs        +0x5C /* 000054E2 */
00005488  558F                     subq.l     A7, 2
0000548A  A861                     syscall    Random
0000548C  700F                     moveq.l    D0, 0x0F
0000548E  C05F                     and.w      D0, [A7]+
00005490  7200                     moveq.l    D1, 0x00
00005492  3200                     move.w     D1, D0
00005494  4A81                     tst.l      D1
00005496  49C5                     lea.l      A4, D5
00005498  BA81                     cmp.l      D5, D1
0000549A  6F46                     ble        +0x48 /* 000054E2 */
0000549C  204D                     movea.l    A0, A5
0000549E  D1FC FFFF 79BE           add.l      A0, 0xFFFF79BE
000054A4  3010                     move.w     D0, [A0]
000054A6  48C0                     ext.l      D0
000054A8  4886                     ext.w      D6
000054AA  4887                     ext.w      D7
000054AC  2207                     move.l     D1, D7
000054AE  C3FC 0060                muls.w     D1, 0x60 /* '`' */
000054B2  204D                     movea.l    A0, A5
000054B4  D1FC FFFD D6D4           add.l      A0, 0xFFFDD6D4
000054BA  2406                     move.l     D2, D6
000054BC  D441                     add.w      D2, D1
000054BE  7200                     moveq.l    D1, 0x00
000054C0  1230 2000                move.b     D1, [A0 + D2.w]
000054C4  D280                     add.l      D1, D0
000054C6  4886                     ext.w      D6
000054C8  4887                     ext.w      D7
000054CA  2007                     move.l     D0, D7
000054CC  C1FC 00C0                muls.w     D0, 0xC0
000054D0  204D                     movea.l    A0, A5
000054D2  D1FC FFFE 42D4           add.l      A0, 0xFFFE42D4
000054D8  2406                     move.l     D2, D6
000054DA  D442                     add.w      D2, D2
000054DC  D440                     add.w      D2, D0
000054DE  3181 2000                move.w     [A0 + D2.w], D1
label000054E2:
000054E2  4886                     ext.w      D6
000054E4  4887                     ext.w      D7
000054E6  2007                     move.l     D0, D7
000054E8  C1FC 0060                muls.w     D0, 0x60 /* '`' */
000054EC  204D                     movea.l    A0, A5
000054EE  D1FC FFFD D6D4           add.l      A0, 0xFFFDD6D4
000054F4  2206                     move.l     D1, D6
000054F6  D240                     add.w      D1, D0
000054F8  7000                     moveq.l    D0, 0x00
000054FA  1030 1000                move.b     D0, [A0 + D1.w]
000054FE  0C00 0003                cmpi.b     D0, 0x3
00005502  6374                     bls        +0x76 /* 00005578 */
00005504  4886                     ext.w      D6
00005506  4887                     ext.w      D7
00005508  2007                     move.l     D0, D7
0000550A  C1FC 0060                muls.w     D0, 0x60 /* '`' */
0000550E  204D                     movea.l    A0, A5
00005510  D1FC FFFD D6D4           add.l      A0, 0xFFFDD6D4
00005516  2206                     move.l     D1, D6
00005518  D240                     add.w      D1, D0
0000551A  7000                     moveq.l    D0, 0x00
0000551C  1030 1000                move.b     D0, [A0 + D1.w]
00005520  0C00 0006                cmpi.b     D0, 0x6
00005524  6452                     bcc        +0x54 /* 00005578 */
00005526  558F                     subq.l     A7, 2
00005528  A861                     syscall    Random
0000552A  700F                     moveq.l    D0, 0x0F
0000552C  C05F                     and.w      D0, [A7]+
0000552E  7200                     moveq.l    D1, 0x00
00005530  3200                     move.w     D1, D0
00005532  4A81                     tst.l      D1
00005534  49C4                     lea.l      A4, D4
00005536  B881                     cmp.l      D4, D1
00005538  6F3E                     ble        +0x40 /* 00005578 */
0000553A  204D                     movea.l    A0, A5
0000553C  D1FC FFFF 7A64           add.l      A0, 0xFFFF7A64
00005542  3010                     move.w     D0, [A0]
00005544  48C0                     ext.l      D0
00005546  2D40 FFFA                move.l     [A6 - 0x6], D0
0000554A  558F                     subq.l     A7, 2
0000554C  A861                     syscall    Random
0000554E  7003                     moveq.l    D0, 0x03
00005550  C05F                     and.w      D0, [A7]+
00005552  7200                     moveq.l    D1, 0x00
00005554  3200                     move.w     D1, D0
00005556  202E FFFA                move.l     D0, [A6 - 0x6]
0000555A  D280                     add.l      D1, D0
0000555C  4886                     ext.w      D6
0000555E  4887                     ext.w      D7
00005560  2007                     move.l     D0, D7
00005562  C1FC 00C0                muls.w     D0, 0xC0
00005566  204D                     movea.l    A0, A5
00005568  D1FC FFFE 42D4           add.l      A0, 0xFFFE42D4
0000556E  2406                     move.l     D2, D6
00005570  D442                     add.w      D2, D2
00005572  D440                     add.w      D2, D0
00005574  3181 2000                move.w     [A0 + D2.w], D1
label00005578:
00005578  1007                     move.b     D0, D7
0000557A  5207                     addq.b     D7, 1
0000557C  0C07 0060                cmpi.b     D7, 0x60 /* '`' */
00005580  6D00 FE0C                blt        -0x1F2 /* 0000538E */
00005584  1006                     move.b     D0, D6
00005586  5206                     addq.b     D6, 1
00005588  0C06 0060                cmpi.b     D6, 0x60 /* '`' */
0000558C  6D00 FDFE                blt        -0x200 /* 0000538C */
00005590  7C01                     moveq.l    D6, 0x01
label00005592:
00005592  7E01                     moveq.l    D7, 0x01
label00005594:
00005594  1D47 FFFE                move.b     [A6 - 0x2], D7
00005598  1D46 FFFF                move.b     [A6 - 0x1], D6
0000559C  486E FFFF                pea.l      [A6 - 0x1]
000055A0  486E FFFE                pea.l      [A6 - 0x2]
000055A4  4EBA 0234                jsr        [PC + 0x234 /* 000057DA */]
000055A8  1006                     move.b     D0, D6
000055AA  5300                     subq.b     D0, 1
000055AC  49C0                     lea.l      A4, D0
000055AE  2F00                     move.l     -[A7], D0
000055B0  1007                     move.b     D0, D7
000055B2  5300                     subq.b     D0, 1
000055B4  49C0                     lea.l      A4, D0
000055B6  2F00                     move.l     -[A7], D0
000055B8  4EBA FD80                jsr        [PC - 0x280 /* 0000533A */]
000055BC  2D40 FFF6                move.l     [A6 - 0xA], D0
000055C0  1006                     move.b     D0, D6
000055C2  5300                     subq.b     D0, 1
000055C4  49C0                     lea.l      A4, D0
000055C6  2F00                     move.l     -[A7], D0
000055C8  49C7                     lea.l      A4, D7
000055CA  2F07                     move.l     -[A7], D7
000055CC  4EBA FD6C                jsr        [PC - 0x294 /* 0000533A */]
000055D0  222E FFF6                move.l     D1, [A6 - 0xA]
000055D4  D200                     add.b      D1, D0
000055D6  2D41 FFF2                move.l     [A6 - 0xE], D1
000055DA  1006                     move.b     D0, D6
000055DC  5300                     subq.b     D0, 1
000055DE  49C0                     lea.l      A4, D0
000055E0  2F00                     move.l     -[A7], D0
000055E2  1007                     move.b     D0, D7
000055E4  5200                     addq.b     D0, 1
000055E6  49C0                     lea.l      A4, D0
000055E8  2F00                     move.l     -[A7], D0
000055EA  4EBA FD4E                jsr        [PC - 0x2B2 /* 0000533A */]
000055EE  222E FFF2                move.l     D1, [A6 - 0xE]
000055F2  D200                     add.b      D1, D0
000055F4  2D41 FFEE                move.l     [A6 - 0x12], D1
000055F8  49C6                     lea.l      A4, D6
000055FA  2F06                     move.l     -[A7], D6
000055FC  1007                     move.b     D0, D7
000055FE  5300                     subq.b     D0, 1
00005600  49C0                     lea.l      A4, D0
00005602  2F00                     move.l     -[A7], D0
00005604  4EBA FD34                jsr        [PC - 0x2CC /* 0000533A */]
00005608  222E FFEE                move.l     D1, [A6 - 0x12]
0000560C  D200                     add.b      D1, D0
0000560E  2D41 FFEA                move.l     [A6 - 0x16], D1
00005612  49C6                     lea.l      A4, D6
00005614  2F06                     move.l     -[A7], D6
00005616  1007                     move.b     D0, D7
00005618  5200                     addq.b     D0, 1
0000561A  49C0                     lea.l      A4, D0
0000561C  2F00                     move.l     -[A7], D0
0000561E  4EBA FD1A                jsr        [PC - 0x2E6 /* 0000533A */]
00005622  222E FFEA                move.l     D1, [A6 - 0x16]
00005626  D200                     add.b      D1, D0
00005628  2D41 FFE6                move.l     [A6 - 0x1A], D1
0000562C  1006                     move.b     D0, D6
0000562E  5200                     addq.b     D0, 1
00005630  49C0                     lea.l      A4, D0
00005632  2F00                     move.l     -[A7], D0
00005634  1007                     move.b     D0, D7
00005636  5300                     subq.b     D0, 1
00005638  49C0                     lea.l      A4, D0
0000563A  2F00                     move.l     -[A7], D0
0000563C  4EBA FCFC                jsr        [PC - 0x304 /* 0000533A */]
00005640  222E FFE6                move.l     D1, [A6 - 0x1A]
00005644  D200                     add.b      D1, D0
00005646  2D41 FFE2                move.l     [A6 - 0x1E], D1
0000564A  1006                     move.b     D0, D6
0000564C  5200                     addq.b     D0, 1
0000564E  49C0                     lea.l      A4, D0
00005650  2F00                     move.l     -[A7], D0
00005652  49C7                     lea.l      A4, D7
00005654  2F07                     move.l     -[A7], D7
00005656  4EBA FCE2                jsr        [PC - 0x31E /* 0000533A */]
0000565A  222E FFE2                move.l     D1, [A6 - 0x1E]
0000565E  D200                     add.b      D1, D0
00005660  2D41 FFDE                move.l     [A6 - 0x22], D1
00005664  1006                     move.b     D0, D6
00005666  5200                     addq.b     D0, 1
00005668  49C0                     lea.l      A4, D0
0000566A  2F00                     move.l     -[A7], D0
0000566C  1007                     move.b     D0, D7
0000566E  5200                     addq.b     D0, 1
00005670  49C0                     lea.l      A4, D0
00005672  2F00                     move.l     -[A7], D0
00005674  4EBA FCC4                jsr        [PC - 0x33C /* 0000533A */]
00005678  222E FFDE                move.l     D1, [A6 - 0x22]
0000567C  D200                     add.b      D1, D0
0000567E  E609                     lsr        D1.b, 3
00005680  4886                     ext.w      D6
00005682  4887                     ext.w      D7
00005684  2007                     move.l     D0, D7
00005686  C1FC 0060                muls.w     D0, 0x60 /* '`' */
0000568A  204D                     movea.l    A0, A5
0000568C  D1FC FFFD D6D4           add.l      A0, 0xFFFDD6D4
00005692  2406                     move.l     D2, D6
00005694  D440                     add.w      D2, D0
00005696  1181 2000                move.b     [A0 + D2.w], D1
0000569A  4FEF 0048                lea.l      A7, [A7 + 0x48]
0000569E  1007                     move.b     D0, D7
000056A0  5207                     addq.b     D7, 1
000056A2  0C07 0060                cmpi.b     D7, 0x60 /* '`' */
000056A6  6D00 FEEC                blt        -0x112 /* 00005594 */
000056AA  1006                     move.b     D0, D6
000056AC  5206                     addq.b     D6, 1
000056AE  0C06 0060                cmpi.b     D6, 0x60 /* '`' */
000056B2  6D00 FEDE                blt        -0x120 /* 00005592 */
000056B6  4207                     clr.b      D7
label000056B8:
000056B8  4206                     clr.b      D6
label000056BA:
000056BA  558F                     subq.l     A7, 2
000056BC  A861                     syscall    Random
000056BE  700F                     moveq.l    D0, 0x0F
000056C0  C05F                     and.w      D0, [A7]+
000056C2  7200                     moveq.l    D1, 0x00
000056C4  3200                     move.w     D1, D0
000056C6  E589                     lsl        D1, 2
000056C8  4886                     ext.w      D6
000056CA  4887                     ext.w      D7
000056CC  2007                     move.l     D0, D7
000056CE  C1FC 000C                muls.w     D0, 0xC
000056D2  204D                     movea.l    A0, A5
000056D4  D1FC FFFE 9602           add.l      A0, 0xFFFE9602
000056DA  2406                     move.l     D2, D6
000056DC  D440                     add.w      D2, D0
000056DE  1181 2000                move.b     [A0 + D2.w], D1
000056E2  558F                     subq.l     A7, 2
000056E4  A861                     syscall    Random
000056E6  700F                     moveq.l    D0, 0x0F
000056E8  C05F                     and.w      D0, [A7]+
000056EA  7200                     moveq.l    D1, 0x00
000056EC  3200                     move.w     D1, D0
000056EE  E589                     lsl        D1, 2
000056F0  4886                     ext.w      D6
000056F2  4887                     ext.w      D7
000056F4  2007                     move.l     D0, D7
000056F6  C1FC 000C                muls.w     D0, 0xC
000056FA  204D                     movea.l    A0, A5
000056FC  D1FC FFFE 9692           add.l      A0, 0xFFFE9692
00005702  2406                     move.l     D2, D6
00005704  D440                     add.w      D2, D0
00005706  1181 2000                move.b     [A0 + D2.w], D1
0000570A  558F                     subq.l     A7, 2
0000570C  A861                     syscall    Random
0000570E  700F                     moveq.l    D0, 0x0F
00005710  C05F                     and.w      D0, [A7]+
00005712  7200                     moveq.l    D1, 0x00
00005714  3200                     move.w     D1, D0
00005716  E589                     lsl        D1, 2
00005718  4886                     ext.w      D6
0000571A  4887                     ext.w      D7
0000571C  2007                     move.l     D0, D7
0000571E  C1FC 000C                muls.w     D0, 0xC
00005722  204D                     movea.l    A0, A5
00005724  D1FC FFFE 9722           add.l      A0, 0xFFFE9722
0000572A  2406                     move.l     D2, D6
0000572C  D440                     add.w      D2, D0
0000572E  1181 2000                move.b     [A0 + D2.w], D1
00005732  4886                     ext.w      D6
00005734  4887                     ext.w      D7
00005736  2007                     move.l     D0, D7
00005738  C1FC 0060                muls.w     D0, 0x60 /* '`' */
0000573C  204D                     movea.l    A0, A5
0000573E  D1FC FFFD D6D4           add.l      A0, 0xFFFDD6D4
00005744  2206                     move.l     D1, D6
00005746  D240                     add.w      D1, D0
00005748  7000                     moveq.l    D0, 0x00
0000574A  1030 1000                move.b     D0, [A0 + D1.w]
0000574E  E988                     lsl        D0, 4
00005750  4886                     ext.w      D6
00005752  4887                     ext.w      D7
00005754  2207                     move.l     D1, D7
00005756  C3FC 000C                muls.w     D1, 0xC
0000575A  204D                     movea.l    A0, A5
0000575C  D1FC FFFE 94E2           add.l      A0, 0xFFFE94E2
00005762  2406                     move.l     D2, D6
00005764  D441                     add.w      D2, D1
00005766  1180 2000                move.b     [A0 + D2.w], D0
0000576A  4886                     ext.w      D6
0000576C  4887                     ext.w      D7
0000576E  2007                     move.l     D0, D7
00005770  C1FC 0060                muls.w     D0, 0x60 /* '`' */
00005774  204D                     movea.l    A0, A5
00005776  D1FC FFFD D6D4           add.l      A0, 0xFFFDD6D4
0000577C  2206                     move.l     D1, D6
0000577E  D240                     add.w      D1, D0
00005780  7000                     moveq.l    D0, 0x00
00005782  1030 1000                move.b     D0, [A0 + D1.w]
00005786  E588                     lsl        D0, 2
00005788  4886                     ext.w      D6
0000578A  4887                     ext.w      D7
0000578C  2207                     move.l     D1, D7
0000578E  C3FC 000C                muls.w     D1, 0xC
00005792  204D                     movea.l    A0, A5
00005794  D1FC FFFE 9572           add.l      A0, 0xFFFE9572
0000579A  2406                     move.l     D2, D6
0000579C  D441                     add.w      D2, D1
0000579E  1180 2000                move.b     [A0 + D2.w], D0
000057A2  1006                     move.b     D0, D6
000057A4  5206                     addq.b     D6, 1
000057A6  0C06 000C                cmpi.b     D6, 0xC
000057AA  6D00 FF0E                blt        -0xF0 /* 000056BA */
000057AE  1007                     move.b     D0, D7
000057B0  5207                     addq.b     D7, 1
000057B2  0C07 000C                cmpi.b     D7, 0xC
000057B6  6D00 FF00                blt        -0xFE /* 000056B8 */
000057BA  4CEE 00F8 FFCA           movem.l    D3,D4,D5,D6,D7, [A6 - 0x36]
000057C0  4E5E                     unlink     A6
000057C2  4E75                     rts
000057C4  9261 6464 7472 6565 7... dc.b       "addtreerocks__FcT1"
export_261:
fn000057DA:
000057DA  4E56 0000                link       A6, 0
000057DE  48E7 0018                movem.l    -[A7], A3,A4
000057E2  266E 000C                movea.l    A3, [A6 + 0xC]
000057E6  286E 0008                movea.l    A4, [A6 + 0x8]
000057EA  4A14                     tst.b      [A4]
000057EC  6C02                     bge        +0x4 /* 000057F0 */
000057EE  4214                     clr.b      [A4]
label000057F0:
000057F0  4A13                     tst.b      [A3]
000057F2  6C02                     bge        +0x4 /* 000057F6 */
000057F4  4213                     clr.b      [A3]
label000057F6:
000057F6  705F                     moveq.l    D0, 0x5F
000057F8  B014                     cmp.b      D0, [A4]
000057FA  6C04                     bge        +0x6 /* 00005800 */
000057FC  18BC 005F                move.b     [A4], 0x5F /* '_' */
label00005800:
00005800  705F                     moveq.l    D0, 0x5F
00005802  B013                     cmp.b      D0, [A3]
00005804  6C04                     bge        +0x6 /* 0000580A */
00005806  16BC 005F                move.b     [A3], 0x5F /* '_' */
label0000580A:
0000580A  7000                     moveq.l    D0, 0x00
0000580C  4CEE 1800 FFF8           movem.l    A3,A4, [A6 - 0x8]
00005812  4E5E                     unlink     A6
00005814  4E75                     rts
00005816  8F63 6F6F 7264 6669 7... dc.b       "coordfix__FPcT1"
export_262:
00005828  4E56 0000                link       A6, 0
0000582C  48E7 1300                movem.l    -[A7], D3,D6,D7
00005830  302E 000A                move.w     D0, [A6 + 0xA]
00005834  C1FC 00C0                muls.w     D0, 0xC0
00005838  204D                     movea.l    A0, A5
0000583A  D1FC FFFE 42D4           add.l      A0, 0xFFFE42D4
00005840  322E 000E                move.w     D1, [A6 + 0xE]
00005844  D241                     add.w      D1, D1
00005846  D240                     add.w      D1, D0
00005848  7000                     moveq.l    D0, 0x00
0000584A  3030 1000                move.w     D0, [A0 + D1.w]
0000584E  3C3C 07FF                move.w     D6, 0x7FF
00005852  CC40                     and.w      D6, D0
00005854  4247                     clr.w      D7
00005856  7609                     moveq.l    D3, 0x09
label00005858:
00005858  2007                     move.l     D0, D7
0000585A  D040                     add.w      D0, D0
0000585C  204D                     movea.l    A0, A5
0000585E  D1FC FFFF 0428           add.l      A0, 0xFFFF0428
00005864  BC70 0000                cmp.w      D6, [A0 + D0.w]
00005868  6D1A                     blt        +0x1C /* 00005884 */
0000586A  48C6                     ext.l      D6
0000586C  2007                     move.l     D0, D7
0000586E  D040                     add.w      D0, D0
00005870  204D                     movea.l    A0, A5
00005872  D1FC FFFF 0428           add.l      A0, 0xFFFF0428
00005878  3030 0000                move.w     D0, [A0 + D0.w]
0000587C  48C0                     ext.l      D0
0000587E  5480                     addq.l     D0, 2
00005880  B086                     cmp.l      D0, D6
00005882  6C70                     bge        +0x72 /* 000058F4 */
label00005884:
00005884  48C6                     ext.l      D6
00005886  2007                     move.l     D0, D7
00005888  D040                     add.w      D0, D0
0000588A  204D                     movea.l    A0, A5
0000588C  D1FC FFFF 0428           add.l      A0, 0xFFFF0428
00005892  3030 0000                move.w     D0, [A0 + D0.w]
00005896  48C0                     ext.l      D0
00005898  7228                     moveq.l    D1, 0x28
0000589A  D081                     add.l      D0, D1
0000589C  B086                     cmp.l      D0, D6
0000589E  6E1C                     bgt        +0x1E /* 000058BC */
000058A0  48C6                     ext.l      D6
000058A2  2007                     move.l     D0, D7
000058A4  D040                     add.w      D0, D0
000058A6  204D                     movea.l    A0, A5
000058A8  D1FC FFFF 0428           add.l      A0, 0xFFFF0428
000058AE  3030 0000                move.w     D0, [A0 + D0.w]
000058B2  48C0                     ext.l      D0
000058B4  722A                     moveq.l    D1, 0x2A
000058B6  D081                     add.l      D0, D1
000058B8  B086                     cmp.l      D0, D6
000058BA  6C38                     bge        +0x3A /* 000058F4 */
label000058BC:
000058BC  48C6                     ext.l      D6
000058BE  2007                     move.l     D0, D7
000058C0  D040                     add.w      D0, D0
000058C2  204D                     movea.l    A0, A5
000058C4  D1FC FFFF 0428           add.l      A0, 0xFFFF0428
000058CA  3030 0000                move.w     D0, [A0 + D0.w]
000058CE  48C0                     ext.l      D0
000058D0  7250                     moveq.l    D1, 0x50
000058D2  D081                     add.l      D0, D1
000058D4  B086                     cmp.l      D0, D6
000058D6  6E22                     bgt        +0x24 /* 000058FA */
000058D8  48C6                     ext.l      D6
000058DA  2007                     move.l     D0, D7
000058DC  D040                     add.w      D0, D0
000058DE  204D                     movea.l    A0, A5
000058E0  D1FC FFFF 0428           add.l      A0, 0xFFFF0428
000058E6  3030 0000                move.w     D0, [A0 + D0.w]
000058EA  48C0                     ext.l      D0
000058EC  7252                     moveq.l    D1, 0x52
000058EE  D081                     add.l      D0, D1
000058F0  B086                     cmp.l      D0, D6
000058F2  6D06                     blt        +0x8 /* 000058FA */
label000058F4:
000058F4  3007                     move.w     D0, D7
000058F6  5240                     addq.w     D0, 1
000058F8  600C                     bra        +0xE /* 00005906 */
label000058FA:
000058FA  3007                     move.w     D0, D7
000058FC  5247                     addq.w     D7, 1
000058FE  B647                     cmp.w      D3, D7
00005900  6E00 FF56                bgt        -0xA8 /* 00005858 */
00005904  7000                     moveq.l    D0, 0x00
label00005906:
00005906  4CEE 00C8 FFF4           movem.l    D3,D6,D7, [A6 - 0xC]
0000590C  4E5E                     unlink     A6
0000590E  4E75                     rts
00005910  9573 6361 6E66 6F72 7... dc.b       "scanfortownbldg__FsT1"
export_263:
00005928  4E56 0000                link       A6, 0
0000592C  48E7 0300                movem.l    -[A7], D6,D7
00005930  3C2E 000E                move.w     D6, [A6 + 0xE]
00005934  3E2E 000A                move.w     D7, [A6 + 0xA]
00005938  2007                     move.l     D0, D7
0000593A  C1FC 0060                muls.w     D0, 0x60 /* '`' */
0000593E  204D                     movea.l    A0, A5
00005940  D1FC FFFD D6D4           add.l      A0, 0xFFFDD6D4
00005946  2206                     move.l     D1, D6
00005948  D240                     add.w      D1, D0
0000594A  1230 1000                move.b     D1, [A0 + D1.w]
0000594E  E409                     lsr        D1.b, 2
00005950  7000                     moveq.l    D0, 0x00
00005952  1001                     move.b     D0, D1
00005954  4A80                     tst.l      D0
00005956  204D                     movea.l    A0, A5
00005958  D1FC FFFF 7942           add.l      A0, 0xFFFF7942
0000595E  3210                     move.w     D1, [A0]
00005960  48C1                     ext.l      D1
00005962  D280                     add.l      D1, D0
00005964  204D                     movea.l    A0, A5
00005966  D1FC FFFE 8AEC           add.l      A0, 0xFFFE8AEC
0000596C  1010                     move.b     D0, [A0]
0000596E  49C0                     lea.l      A4, D0
00005970  D081                     add.l      D0, D1
00005972  2207                     move.l     D1, D7
00005974  C3FC 00C0                muls.w     D1, 0xC0
00005978  204D                     movea.l    A0, A5
0000597A  D1FC FFFE 42D4           add.l      A0, 0xFFFE42D4
00005980  2406                     move.l     D2, D6
00005982  D442                     add.w      D2, D2
00005984  D441                     add.w      D2, D1
00005986  3180 2000                move.w     [A0 + D2.w], D0
0000598A  2007                     move.l     D0, D7
0000598C  C1FC 00C0                muls.w     D0, 0xC0
00005990  204D                     movea.l    A0, A5
00005992  D1FC FFFE 42D4           add.l      A0, 0xFFFE42D4
00005998  2206                     move.l     D1, D6
0000599A  D241                     add.w      D1, D1
0000599C  D240                     add.w      D1, D0
0000599E  31BC BFFF 1000           move.w     [A0 + D1.w], 0xBFFF
000059A4  4CEE 00C0 FFF8           movem.l    D6,D7, [A6 - 0x8]
000059AA  4E5E                     unlink     A6
000059AC  4E75                     rts
000059AE  9365 7261 7365 7469 6... dc.b       "erasetilespot__FsT1"
export_264:
fn000059C4:
000059C4  4E56 0000                link       A6, 0
000059C8  2F07                     move.l     -[A7], D7
000059CA  7000                     moveq.l    D0, 0x00
000059CC  102E 0027                move.b     D0, [A6 + 0x27]
000059D0  2F00                     move.l     -[A7], D0
000059D2  102E 0023                move.b     D0, [A6 + 0x23]
000059D6  49C0                     lea.l      A4, D0
000059D8  2F00                     move.l     -[A7], D0
000059DA  102E 0017                move.b     D0, [A6 + 0x17]
000059DE  49C0                     lea.l      A4, D0
000059E0  2F00                     move.l     -[A7], D0
000059E2  102E 0013                move.b     D0, [A6 + 0x13]
000059E6  49C0                     lea.l      A4, D0
000059E8  2F00                     move.l     -[A7], D0
000059EA  102E 000F                move.b     D0, [A6 + 0xF]
000059EE  49C0                     lea.l      A4, D0
000059F0  2F00                     move.l     -[A7], D0
000059F2  2F2E 0008                move.l     -[A7], [A6 + 0x8]
000059F6  204D                     movea.l    A0, A5
000059F8  D1FC FFFF 7868           add.l      A0, 0xFFFF7868
000059FE  2F10                     move.l     -[A7], [A0]
00005A00  4EAD 1422                jsr        [A5 + 0x1422 /* export_640, CODE:27 @ 00002C2E */]
00005A04  3E00                     move.w     D7, D0
00005A06  5340                     subq.w     D0, 1
00005A08  2E2E FFFC                move.l     D7, [A6 - 0x4]
00005A0C  4E5E                     unlink     A6
00005A0E  4E75                     rts
00005A10  9971 7569 636B 706F 7... dc.b       "quickpopup__FPccN22sT5N22"
export_265:
fn00005A2C:
00005A2C  4E56 0000                link       A6, 0
00005A30  48E7 0018                movem.l    -[A7], A3,A4
00005A34  266E 000C                movea.l    A3, [A6 + 0xC]
00005A38  286E 0008                movea.l    A4, [A6 + 0x8]
00005A3C  4A54                     tst.w      [A4]
00005A3E  6C04                     bge        +0x6 /* 00005A44 */
00005A40  4254                     clr.w      [A4]
00005A42  600A                     bra        +0xC /* 00005A4E */
label00005A44:
00005A44  7060                     moveq.l    D0, 0x60
00005A46  B054                     cmp.w      D0, [A4]
00005A48  6E04                     bgt        +0x6 /* 00005A4E */
00005A4A  38BC 005F                move.w     [A4], 0x5F /* '_' */
label00005A4E:
00005A4E  4A53                     tst.w      [A3]
00005A50  6C04                     bge        +0x6 /* 00005A56 */
00005A52  4253                     clr.w      [A3]
00005A54  600A                     bra        +0xC /* 00005A60 */
label00005A56:
00005A56  7060                     moveq.l    D0, 0x60
00005A58  B053                     cmp.w      D0, [A3]
00005A5A  6E04                     bgt        +0x6 /* 00005A60 */
00005A5C  36BC 005F                move.w     [A3], 0x5F /* '_' */
label00005A60:
00005A60  4CEE 1800 FFF8           movem.l    A3,A4, [A6 - 0x8]
00005A66  4E5E                     unlink     A6
00005A68  4E75                     rts
00005A6A  8F66 6978 636F 6F72 6... dc.b       "fixcoord__FPsT1"
export_266:
00005A7C  4E56 0000                link       A6, 0
00005A80  48E7 0318                movem.l    -[A7], D6,D7,A3,A4
00005A84  266E 0014                movea.l    A3, [A6 + 0x14]
00005A88  286E 0010                movea.l    A4, [A6 + 0x10]
00005A8C  3C2E 000E                move.w     D6, [A6 + 0xE]
00005A90  3E2E 000A                move.w     D7, [A6 + 0xA]
00005A94  3887                     move.w     [A4], D7
00005A96  3686                     move.w     [A3], D6
00005A98  4A47                     tst.w      D7
00005A9A  6C04                     bge        +0x6 /* 00005AA0 */
00005A9C  4254                     clr.w      [A4]
00005A9E  600A                     bra        +0xC /* 00005AAA */
label00005AA0:
00005AA0  0C47 0060                cmpi.w     D7, 0x60 /* '`' */
00005AA4  6D04                     blt        +0x6 /* 00005AAA */
00005AA6  38BC 005F                move.w     [A4], 0x5F /* '_' */
label00005AAA:
00005AAA  4A46                     tst.w      D6
00005AAC  6C04                     bge        +0x6 /* 00005AB2 */
00005AAE  4253                     clr.w      [A3]
00005AB0  600A                     bra        +0xC /* 00005ABC */
label00005AB2:
00005AB2  0C46 0060                cmpi.w     D6, 0x60 /* '`' */
00005AB6  6D04                     blt        +0x6 /* 00005ABC */
00005AB8  36BC 005F                move.w     [A3], 0x5F /* '_' */
label00005ABC:
00005ABC  4CEE 18C0 FFF0           movem.l    D6,D7,A3,A4, [A6 - 0x10]
00005AC2  4E5E                     unlink     A6
00005AC4  4E75                     rts
00005AC6  9766 6978 636F 6F72 6... dc.b       "fixcoordxmute__FsT1PsT3"
export_267:
fn00005AE0:
00005AE0  4E56 FFFE                link       A6, -0x0002
00005AE4  48E7 1F18                movem.l    -[A7], D3,D4,D5,D6,D7,A3,A4
00005AE8  204D                     movea.l    A0, A5
00005AEA  D1FC FFFE FBA4           add.l      A0, 0xFFFEFBA4
00005AF0  47D0                     lea.l      A3, [A0]
00005AF2  204D                     movea.l    A0, A5
00005AF4  D1FC FFFE FB64           add.l      A0, 0xFFFEFB64
00005AFA  49D0                     lea.l      A4, [A0]
00005AFC  382E 000E                move.w     D4, [A6 + 0xE]
00005B00  3A2E 000A                move.w     D5, [A6 + 0xA]
00005B04  204D                     movea.l    A0, A5
00005B06  D1FC FFFE FB60           add.l      A0, 0xFFFEFB60
00005B0C  1010                     move.b     D0, [A0]
00005B0E  5210                     addq.b     [A0], 1
00005B10  204D                     movea.l    A0, A5
00005B12  D1FC FFFE FB60           add.l      A0, 0xFFFEFB60
00005B18  0210 003F                andi.b     [A0], 0x3F /* '?' */
00005B1C  7000                     moveq.l    D0, 0x00
00005B1E  204D                     movea.l    A0, A5
00005B20  D1FC FFFE FB60           add.l      A0, 0xFFFEFB60
00005B26  1010                     move.b     D0, [A0]
00005B28  1E33 0000                move.b     D7, [A3 + D0.w]
00005B2C  204D                     movea.l    A0, A5
00005B2E  D1FC FFFE FB62           add.l      A0, 0xFFFEFB62
00005B34  1010                     move.b     D0, [A0]
00005B36  5210                     addq.b     [A0], 1
00005B38  7000                     moveq.l    D0, 0x00
00005B3A  204D                     movea.l    A0, A5
00005B3C  D1FC FFFE FB62           add.l      A0, 0xFFFEFB62
00005B42  1010                     move.b     D0, [A0]
00005B44  0C00 0040                cmpi.b     D0, 0x40 /* '@' */
00005B48  630C                     bls        +0xE /* 00005B56 */
00005B4A  204D                     movea.l    A0, A5
00005B4C  D1FC FFFE FB62           add.l      A0, 0xFFFEFB62
00005B52  10BC 0040                move.b     [A0], 0x40 /* '@' */
label00005B56:
00005B56  7000                     moveq.l    D0, 0x00
00005B58  1007                     move.b     D0, D7
00005B5A  0C40 00FF                cmpi.w     D0, 0xFF
00005B5E  666C                     bne        +0x6E /* 00005BCC */
00005B60  2005                     move.l     D0, D5
00005B62  C1FC 00C0                muls.w     D0, 0xC0
00005B66  204D                     movea.l    A0, A5
00005B68  D1FC FFFE 42D4           add.l      A0, 0xFFFE42D4
00005B6E  2204                     move.l     D1, D4
00005B70  D241                     add.w      D1, D1
00005B72  D240                     add.w      D1, D0
00005B74  7000                     moveq.l    D0, 0x00
00005B76  3030 1000                move.w     D0, [A0 + D1.w]
00005B7A  323C F800                move.w     D1, 0xF800
00005B7E  C240                     and.w      D1, D0
00005B80  7000                     moveq.l    D0, 0x00
00005B82  3001                     move.w     D0, D1
00005B84  323C 0298                move.w     D1, 0x298
00005B88  8240                     or.w       D1, D0
00005B8A  303C BFFF                move.w     D0, 0xBFFF
00005B8E  C041                     and.w      D0, D1
00005B90  2205                     move.l     D1, D5
00005B92  C3FC 00C0                muls.w     D1, 0xC0
00005B96  204D                     movea.l    A0, A5
00005B98  D1FC FFFE 42D4           add.l      A0, 0xFFFE42D4
00005B9E  2404                     move.l     D2, D4
00005BA0  D442                     add.w      D2, D2
00005BA2  D441                     add.w      D2, D1
00005BA4  3180 2000                move.w     [A0 + D2.w], D0
00005BA8  7000                     moveq.l    D0, 0x00
00005BAA  204D                     movea.l    A0, A5
00005BAC  D1FC FFFE FB60           add.l      A0, 0xFFFEFB60
00005BB2  1010                     move.b     D0, [A0]
00005BB4  1785 0000                move.b     [A3 + D0.w], D5
00005BB8  7000                     moveq.l    D0, 0x00
00005BBA  204D                     movea.l    A0, A5
00005BBC  D1FC FFFE FB60           add.l      A0, 0xFFFEFB60
00005BC2  1010                     move.b     D0, [A0]
00005BC4  1984 0000                move.b     [A4 + D0.w], D4
00005BC8  6000 01DE                bra        +0x1E0 /* 00005DA8 */
label00005BCC:
00005BCC  7000                     moveq.l    D0, 0x00
00005BCE  204D                     movea.l    A0, A5
00005BD0  D1FC FFFE FB60           add.l      A0, 0xFFFEFB60
00005BD6  1010                     move.b     D0, [A0]
00005BD8  1C34 0000                move.b     D6, [A4 + D0.w]
00005BDC  7000                     moveq.l    D0, 0x00
00005BDE  1006                     move.b     D0, D6
00005BE0  7200                     moveq.l    D1, 0x00
00005BE2  1207                     move.b     D1, D7
00005BE4  C3FC 00C0                muls.w     D1, 0xC0
00005BE8  204D                     movea.l    A0, A5
00005BEA  D1FC FFFE 42D4           add.l      A0, 0xFFFE42D4
00005BF0  D040                     add.w      D0, D0
00005BF2  D041                     add.w      D0, D1
00005BF4  7200                     moveq.l    D1, 0x00
00005BF6  3230 0000                move.w     D1, [A0 + D0.w]
00005BFA  303C 07FF                move.w     D0, 0x7FF
00005BFE  C041                     and.w      D0, D1
00005C00  3D40 FFFE                move.w     [A6 - 0x2], D0
00005C04  7000                     moveq.l    D0, 0x00
00005C06  1006                     move.b     D0, D6
00005C08  7200                     moveq.l    D1, 0x00
00005C0A  1207                     move.b     D1, D7
00005C0C  C3FC 00C0                muls.w     D1, 0xC0
00005C10  204D                     movea.l    A0, A5
00005C12  D1FC FFFE 42D4           add.l      A0, 0xFFFE42D4
00005C18  D040                     add.w      D0, D0
00005C1A  D041                     add.w      D0, D1
00005C1C  7200                     moveq.l    D1, 0x00
00005C1E  3230 0000                move.w     D1, [A0 + D0.w]
00005C22  303C 1000                move.w     D0, 0x1000
00005C26  C041                     and.w      D0, D1
00005C28  6626                     bne        +0x28 /* 00005C50 */
00005C2A  7000                     moveq.l    D0, 0x00
00005C2C  1006                     move.b     D0, D6
00005C2E  7200                     moveq.l    D1, 0x00
00005C30  1207                     move.b     D1, D7
00005C32  C3FC 00C0                muls.w     D1, 0xC0
00005C36  204D                     movea.l    A0, A5
00005C38  D1FC FFFE 42D4           add.l      A0, 0xFFFE42D4
00005C3E  D040                     add.w      D0, D0
00005C40  D041                     add.w      D0, D1
00005C42  7200                     moveq.l    D1, 0x00
00005C44  3230 0000                move.w     D1, [A0 + D0.w]
00005C48  303C 2000                move.w     D0, 0x2000 /* ' \0' */
00005C4C  C041                     and.w      D0, D1
00005C4E  6764                     beq        +0x66 /* 00005CB4 */
label00005C50:
00005C50  7000                     moveq.l    D0, 0x00
00005C52  1006                     move.b     D0, D6
00005C54  7200                     moveq.l    D1, 0x00
00005C56  1207                     move.b     D1, D7
00005C58  C3FC 00C0                muls.w     D1, 0xC0
00005C5C  204D                     movea.l    A0, A5
00005C5E  D1FC FFFE 42D4           add.l      A0, 0xFFFE42D4
00005C64  D040                     add.w      D0, D0
00005C66  D041                     add.w      D0, D1
00005C68  7200                     moveq.l    D1, 0x00
00005C6A  3230 0000                move.w     D1, [A0 + D0.w]
00005C6E  303C F800                move.w     D0, 0xF800
00005C72  C041                     and.w      D0, D1
00005C74  7200                     moveq.l    D1, 0x00
00005C76  3200                     move.w     D1, D0
00005C78  4A81                     tst.l      D1
00005C7A  204D                     movea.l    A0, A5
00005C7C  D1FC FFFF 7944           add.l      A0, 0xFFFF7944
00005C82  3010                     move.w     D0, [A0]
00005C84  48C0                     ext.l      D0
00005C86  7410                     moveq.l    D2, 0x10
00005C88  D082                     add.l      D0, D2
00005C8A  8081                     or.l       D0, D1
00005C8C  223C FFFF BFFF           move.l     D1, 0xFFFFBFFF
00005C92  C280                     and.l      D1, D0
00005C94  7000                     moveq.l    D0, 0x00
00005C96  1006                     move.b     D0, D6
00005C98  7600                     moveq.l    D3, 0x00
00005C9A  1607                     move.b     D3, D7
00005C9C  C7FC 00C0                muls.w     D3, 0xC0
00005CA0  204D                     movea.l    A0, A5
00005CA2  D1FC FFFE 42D4           add.l      A0, 0xFFFE42D4
00005CA8  D040                     add.w      D0, D0
00005CAA  D043                     add.w      D0, D3
00005CAC  3181 0000                move.w     [A0 + D0.w], D1
00005CB0  6000 008E                bra        +0x90 /* 00005D40 */
label00005CB4:
00005CB4  7000                     moveq.l    D0, 0x00
00005CB6  1006                     move.b     D0, D6
00005CB8  7200                     moveq.l    D1, 0x00
00005CBA  1207                     move.b     D1, D7
00005CBC  C3FC 00C0                muls.w     D1, 0xC0
00005CC0  204D                     movea.l    A0, A5
00005CC2  D1FC FFFE 42D4           add.l      A0, 0xFFFE42D4
00005CC8  D040                     add.w      D0, D0
00005CCA  D041                     add.w      D0, D1
00005CCC  7200                     moveq.l    D1, 0x00
00005CCE  3230 0000                move.w     D1, [A0 + D0.w]
00005CD2  303C F800                move.w     D0, 0xF800
00005CD6  C041                     and.w      D0, D1
00005CD8  7200                     moveq.l    D1, 0x00
00005CDA  3200                     move.w     D1, D0
00005CDC  4A81                     tst.l      D1
00005CDE  204D                     movea.l    A0, A5
00005CE0  D1FC FFFF 7942           add.l      A0, 0xFFFF7942
00005CE6  3010                     move.w     D0, [A0]
00005CE8  48C0                     ext.l      D0
00005CEA  7400                     moveq.l    D2, 0x00
00005CEC  1406                     move.b     D2, D6
00005CEE  7600                     moveq.l    D3, 0x00
00005CF0  1607                     move.b     D3, D7
00005CF2  C7FC 0060                muls.w     D3, 0x60 /* '`' */
00005CF6  204D                     movea.l    A0, A5
00005CF8  D1FC FFFD D6D4           add.l      A0, 0xFFFDD6D4
00005CFE  D443                     add.w      D2, D3
00005D00  1430 2000                move.b     D2, [A0 + D2.w]
00005D04  E40A                     lsr        D2.b, 2
00005D06  7600                     moveq.l    D3, 0x00
00005D08  1602                     move.b     D3, D2
00005D0A  D680                     add.l      D3, D0
00005D0C  204D                     movea.l    A0, A5
00005D0E  D1FC FFFE 8AEC           add.l      A0, 0xFFFE8AEC
00005D14  1010                     move.b     D0, [A0]
00005D16  49C0                     lea.l      A4, D0
00005D18  D083                     add.l      D0, D3
00005D1A  8081                     or.l       D0, D1
00005D1C  223C FFFF BFFF           move.l     D1, 0xFFFFBFFF
00005D22  C280                     and.l      D1, D0
00005D24  7000                     moveq.l    D0, 0x00
00005D26  1006                     move.b     D0, D6
00005D28  7400                     moveq.l    D2, 0x00
00005D2A  1407                     move.b     D2, D7
00005D2C  C5FC 00C0                muls.w     D2, 0xC0
00005D30  204D                     movea.l    A0, A5
00005D32  D1FC FFFE 42D4           add.l      A0, 0xFFFE42D4
00005D38  D040                     add.w      D0, D0
00005D3A  D042                     add.w      D0, D2
00005D3C  3181 0000                move.w     [A0 + D0.w], D1
label00005D40:
00005D40  2005                     move.l     D0, D5
00005D42  C1FC 00C0                muls.w     D0, 0xC0
00005D46  204D                     movea.l    A0, A5
00005D48  D1FC FFFE 42D4           add.l      A0, 0xFFFE42D4
00005D4E  2204                     move.l     D1, D4
00005D50  D241                     add.w      D1, D1
00005D52  D240                     add.w      D1, D0
00005D54  7000                     moveq.l    D0, 0x00
00005D56  3030 1000                move.w     D0, [A0 + D1.w]
00005D5A  323C F800                move.w     D1, 0xF800
00005D5E  C240                     and.w      D1, D0
00005D60  7000                     moveq.l    D0, 0x00
00005D62  3001                     move.w     D0, D1
00005D64  323C 0298                move.w     D1, 0x298
00005D68  8240                     or.w       D1, D0
00005D6A  303C BFFF                move.w     D0, 0xBFFF
00005D6E  C041                     and.w      D0, D1
00005D70  2205                     move.l     D1, D5
00005D72  C3FC 00C0                muls.w     D1, 0xC0
00005D76  204D                     movea.l    A0, A5
00005D78  D1FC FFFE 42D4           add.l      A0, 0xFFFE42D4
00005D7E  2404                     move.l     D2, D4
00005D80  D442                     add.w      D2, D2
00005D82  D441                     add.w      D2, D1
00005D84  3180 2000                move.w     [A0 + D2.w], D0
00005D88  7000                     moveq.l    D0, 0x00
00005D8A  204D                     movea.l    A0, A5
00005D8C  D1FC FFFE FB60           add.l      A0, 0xFFFEFB60
00005D92  1010                     move.b     D0, [A0]
00005D94  1785 0000                move.b     [A3 + D0.w], D5
00005D98  7000                     moveq.l    D0, 0x00
00005D9A  204D                     movea.l    A0, A5
00005D9C  D1FC FFFE FB60           add.l      A0, 0xFFFEFB60
00005DA2  1010                     move.b     D0, [A0]
00005DA4  1984 0000                move.b     [A4 + D0.w], D4
label00005DA8:
00005DA8  4CEE 18F8 FFE2           movem.l    D3,D4,D5,D6,D7,A3,A4, [A6 - 0x1E]
00005DAE  4E5E                     unlink     A6
00005DB0  4E75                     rts
00005DB2  9373 6574 5F65 7870 6... dc.b       "set_explosion__FsT1"
fn00005DC8:
00005DC8  4E56 FFFE                link       A6, -0x0002
00005DCC  48E7 1F18                movem.l    -[A7], D3,D4,D5,D6,D7,A3,A4
00005DD0  204D                     movea.l    A0, A5
00005DD2  D1FC FFFE FB64           add.l      A0, 0xFFFEFB64
00005DD8  47D0                     lea.l      A3, [A0]
00005DDA  204D                     movea.l    A0, A5
00005DDC  D1FC FFFE FBA4           add.l      A0, 0xFFFEFBA4
00005DE2  49D0                     lea.l      A4, [A0]
00005DE4  7000                     moveq.l    D0, 0x00
00005DE6  204D                     movea.l    A0, A5
00005DE8  D1FC FFFE FB62           add.l      A0, 0xFFFEFB62
00005DEE  1010                     move.b     D0, [A0]
00005DF0  4A80                     tst.l      D0
00005DF2  671A                     beq        +0x1C /* 00005E0E */
00005DF4  204D                     movea.l    A0, A5
00005DF6  D1FC FFFD CEBE           add.l      A0, 0xFFFDCEBE
00005DFC  2010                     move.l     D0, [A0]
00005DFE  204D                     movea.l    A0, A5
00005E00  D1FC FFFD CE56           add.l      A0, 0xFFFDCE56
00005E06  9090                     sub.l      D0, [A0]
00005E08  720F                     moveq.l    D1, 0x0F
00005E0A  B280                     cmp.l      D1, D0
00005E0C  6306                     bls        +0x8 /* 00005E14 */
label00005E0E:
00005E0E  7000                     moveq.l    D0, 0x00
00005E10  6000 0306                bra        +0x308 /* 00006118 */
label00005E14:
00005E14  4204                     clr.b      D4
00005E16  422E FFFF                clr.b      [A6 - 0x1]
00005E1A  6000 02D0                bra        +0x2D2 /* 000060EC */
label00005E1E:
00005E1E  4884                     ext.w      D4
00005E20  7000                     moveq.l    D0, 0x00
00005E22  1034 4000                move.b     D0, [A4 + D4.w]
00005E26  0C40 00FF                cmpi.w     D0, 0xFF
00005E2A  6700 02BC                beq        +0x2BE /* 000060E8 */
00005E2E  4884                     ext.w      D4
00005E30  1C34 4000                move.b     D6, [A4 + D4.w]
00005E34  4884                     ext.w      D4
00005E36  1E33 4000                move.b     D7, [A3 + D4.w]
00005E3A  4887                     ext.w      D7
00005E3C  4886                     ext.w      D6
00005E3E  2006                     move.l     D0, D6
00005E40  C1FC 00C0                muls.w     D0, 0xC0
00005E44  204D                     movea.l    A0, A5
00005E46  D1FC FFFE 42D4           add.l      A0, 0xFFFE42D4
00005E4C  2207                     move.l     D1, D7
00005E4E  D241                     add.w      D1, D1
00005E50  D240                     add.w      D1, D0
00005E52  7000                     moveq.l    D0, 0x00
00005E54  3030 1000                move.w     D0, [A0 + D1.w]
00005E58  3A3C 07FF                move.w     D5, 0x7FF
00005E5C  CA40                     and.w      D5, D0
00005E5E  3005                     move.w     D0, D5
00005E60  5245                     addq.w     D5, 1
00005E62  0C45 0298                cmpi.w     D5, 0x298
00005E66  6D00 0120                blt        +0x122 /* 00005F88 */
00005E6A  0C45 02A0                cmpi.w     D5, 0x2A0
00005E6E  6C00 0118                bge        +0x11A /* 00005F88 */
00005E72  4887                     ext.w      D7
00005E74  4886                     ext.w      D6
00005E76  2006                     move.l     D0, D6
00005E78  C1FC 00C0                muls.w     D0, 0xC0
00005E7C  204D                     movea.l    A0, A5
00005E7E  D1FC FFFE 42D4           add.l      A0, 0xFFFE42D4
00005E84  2207                     move.l     D1, D7
00005E86  D241                     add.w      D1, D1
00005E88  D240                     add.w      D1, D0
00005E8A  7000                     moveq.l    D0, 0x00
00005E8C  3030 1000                move.w     D0, [A0 + D1.w]
00005E90  323C F800                move.w     D1, 0xF800
00005E94  C240                     and.w      D1, D0
00005E96  7000                     moveq.l    D0, 0x00
00005E98  3001                     move.w     D0, D1
00005E9A  48C5                     ext.l      D5
00005E9C  2205                     move.l     D1, D5
00005E9E  5281                     addq.l     D1, 1
00005EA0  8280                     or.l       D1, D0
00005EA2  203C FFFF BFFF           move.l     D0, 0xFFFFBFFF
00005EA8  C081                     and.l      D0, D1
00005EAA  4887                     ext.w      D7
00005EAC  4886                     ext.w      D6
00005EAE  2206                     move.l     D1, D6
00005EB0  C3FC 00C0                muls.w     D1, 0xC0
00005EB4  204D                     movea.l    A0, A5
00005EB6  D1FC FFFE 42D4           add.l      A0, 0xFFFE42D4
00005EBC  2407                     move.l     D2, D7
00005EBE  D442                     add.w      D2, D2
00005EC0  D441                     add.w      D2, D1
00005EC2  3180 2000                move.w     [A0 + D2.w], D0
00005EC6  48C5                     ext.l      D5
00005EC8  2005                     move.l     D0, D5
00005ECA  5280                     addq.l     D0, 1
00005ECC  0C80 0000 029F           cmpi.l     D0, 0x29F
00005ED2  6600 020C                bne        +0x20E /* 000060E0 */
00005ED6  4887                     ext.w      D7
00005ED8  4886                     ext.w      D6
00005EDA  2006                     move.l     D0, D6
00005EDC  C1FC 00C0                muls.w     D0, 0xC0
00005EE0  204D                     movea.l    A0, A5
00005EE2  D1FC FFFE 42D4           add.l      A0, 0xFFFE42D4
00005EE8  2207                     move.l     D1, D7
00005EEA  D241                     add.w      D1, D1
00005EEC  D240                     add.w      D1, D0
00005EEE  7000                     moveq.l    D0, 0x00
00005EF0  3030 1000                move.w     D0, [A0 + D1.w]
00005EF4  323C 1000                move.w     D1, 0x1000
00005EF8  C240                     and.w      D1, D0
00005EFA  6628                     bne        +0x2A /* 00005F24 */
00005EFC  4887                     ext.w      D7
00005EFE  4886                     ext.w      D6
00005F00  2006                     move.l     D0, D6
00005F02  C1FC 00C0                muls.w     D0, 0xC0
00005F06  204D                     movea.l    A0, A5
00005F08  D1FC FFFE 42D4           add.l      A0, 0xFFFE42D4
00005F0E  2207                     move.l     D1, D7
00005F10  D241                     add.w      D1, D1
00005F12  D240                     add.w      D1, D0
00005F14  7000                     moveq.l    D0, 0x00
00005F16  3030 1000                move.w     D0, [A0 + D1.w]
00005F1A  323C 2000                move.w     D1, 0x2000 /* ' \0' */
00005F1E  C240                     and.w      D1, D0
00005F20  6700 01BE                beq        +0x1C0 /* 000060E0 */
label00005F24:
00005F24  4887                     ext.w      D7
00005F26  4886                     ext.w      D6
00005F28  2006                     move.l     D0, D6
00005F2A  C1FC 00C0                muls.w     D0, 0xC0
00005F2E  204D                     movea.l    A0, A5
00005F30  D1FC FFFE 42D4           add.l      A0, 0xFFFE42D4
00005F36  2207                     move.l     D1, D7
00005F38  D241                     add.w      D1, D1
00005F3A  D240                     add.w      D1, D0
00005F3C  7000                     moveq.l    D0, 0x00
00005F3E  3030 1000                move.w     D0, [A0 + D1.w]
00005F42  323C F800                move.w     D1, 0xF800
00005F46  C240                     and.w      D1, D0
00005F48  7000                     moveq.l    D0, 0x00
00005F4A  3001                     move.w     D0, D1
00005F4C  4A80                     tst.l      D0
00005F4E  204D                     movea.l    A0, A5
00005F50  D1FC FFFF 7944           add.l      A0, 0xFFFF7944
00005F56  3210                     move.w     D1, [A0]
00005F58  48C1                     ext.l      D1
00005F5A  7410                     moveq.l    D2, 0x10
00005F5C  D282                     add.l      D1, D2
00005F5E  8280                     or.l       D1, D0
00005F60  203C FFFF BFFF           move.l     D0, 0xFFFFBFFF
00005F66  C081                     and.l      D0, D1
00005F68  4887                     ext.w      D7
00005F6A  4886                     ext.w      D6
00005F6C  2206                     move.l     D1, D6
00005F6E  C3FC 00C0                muls.w     D1, 0xC0
00005F72  204D                     movea.l    A0, A5
00005F74  D1FC FFFE 42D4           add.l      A0, 0xFFFE42D4
00005F7A  2607                     move.l     D3, D7
00005F7C  D643                     add.w      D3, D3
00005F7E  D641                     add.w      D3, D1
00005F80  3180 3000                move.w     [A0 + D3.w], D0
00005F84  6000 015A                bra        +0x15C /* 000060E0 */
label00005F88:
00005F88  0C45 02A0                cmpi.w     D5, 0x2A0
00005F8C  6D00 0152                blt        +0x154 /* 000060E0 */
00005F90  4887                     ext.w      D7
00005F92  4886                     ext.w      D6
00005F94  2006                     move.l     D0, D6
00005F96  C1FC 00C0                muls.w     D0, 0xC0
00005F9A  204D                     movea.l    A0, A5
00005F9C  D1FC FFFE 42D4           add.l      A0, 0xFFFE42D4
00005FA2  2207                     move.l     D1, D7
00005FA4  D241                     add.w      D1, D1
00005FA6  D240                     add.w      D1, D0
00005FA8  7000                     moveq.l    D0, 0x00
00005FAA  3030 1000                move.w     D0, [A0 + D1.w]
00005FAE  323C 1000                move.w     D1, 0x1000
00005FB2  C240                     and.w      D1, D0
00005FB4  6626                     bne        +0x28 /* 00005FDC */
00005FB6  4887                     ext.w      D7
00005FB8  4886                     ext.w      D6
00005FBA  2006                     move.l     D0, D6
00005FBC  C1FC 00C0                muls.w     D0, 0xC0
00005FC0  204D                     movea.l    A0, A5
00005FC2  D1FC FFFE 42D4           add.l      A0, 0xFFFE42D4
00005FC8  2207                     move.l     D1, D7
00005FCA  D241                     add.w      D1, D1
00005FCC  D240                     add.w      D1, D0
00005FCE  7000                     moveq.l    D0, 0x00
00005FD0  3030 1000                move.w     D0, [A0 + D1.w]
00005FD4  323C 2000                move.w     D1, 0x2000 /* ' \0' */
00005FD8  C240                     and.w      D1, D0
00005FDA  6764                     beq        +0x66 /* 00006040 */
label00005FDC:
00005FDC  4887                     ext.w      D7
00005FDE  4886                     ext.w      D6
00005FE0  2006                     move.l     D0, D6
00005FE2  C1FC 00C0                muls.w     D0, 0xC0
00005FE6  204D                     movea.l    A0, A5
00005FE8  D1FC FFFE 42D4           add.l      A0, 0xFFFE42D4
00005FEE  2207                     move.l     D1, D7
00005FF0  D241                     add.w      D1, D1
00005FF2  D240                     add.w      D1, D0
00005FF4  7000                     moveq.l    D0, 0x00
00005FF6  3030 1000                move.w     D0, [A0 + D1.w]
00005FFA  323C F800                move.w     D1, 0xF800
00005FFE  C240                     and.w      D1, D0
00006000  7000                     moveq.l    D0, 0x00
00006002  3001                     move.w     D0, D1
00006004  4A80                     tst.l      D0
00006006  204D                     movea.l    A0, A5
00006008  D1FC FFFF 7944           add.l      A0, 0xFFFF7944
0000600E  3210                     move.w     D1, [A0]
00006010  48C1                     ext.l      D1
00006012  7410                     moveq.l    D2, 0x10
00006014  D282                     add.l      D1, D2
00006016  8280                     or.l       D1, D0
00006018  203C FFFF BFFF           move.l     D0, 0xFFFFBFFF
0000601E  C081                     and.l      D0, D1
00006020  4887                     ext.w      D7
00006022  4886                     ext.w      D6
00006024  2206                     move.l     D1, D6
00006026  C3FC 00C0                muls.w     D1, 0xC0
0000602A  204D                     movea.l    A0, A5
0000602C  D1FC FFFE 42D4           add.l      A0, 0xFFFE42D4
00006032  2607                     move.l     D3, D7
00006034  D643                     add.w      D3, D3
00006036  D641                     add.w      D3, D1
00006038  3180 3000                move.w     [A0 + D3.w], D0
0000603C  6000 008E                bra        +0x90 /* 000060CC */
label00006040:
00006040  4887                     ext.w      D7
00006042  4886                     ext.w      D6
00006044  2006                     move.l     D0, D6
00006046  C1FC 00C0                muls.w     D0, 0xC0
0000604A  204D                     movea.l    A0, A5
0000604C  D1FC FFFE 42D4           add.l      A0, 0xFFFE42D4
00006052  2207                     move.l     D1, D7
00006054  D241                     add.w      D1, D1
00006056  D240                     add.w      D1, D0
00006058  7000                     moveq.l    D0, 0x00
0000605A  3030 1000                move.w     D0, [A0 + D1.w]
0000605E  323C F800                move.w     D1, 0xF800
00006062  C240                     and.w      D1, D0
00006064  7000                     moveq.l    D0, 0x00
00006066  3001                     move.w     D0, D1
00006068  4A80                     tst.l      D0
0000606A  204D                     movea.l    A0, A5
0000606C  D1FC FFFF 7942           add.l      A0, 0xFFFF7942
00006072  3210                     move.w     D1, [A0]
00006074  48C1                     ext.l      D1
00006076  4887                     ext.w      D7
00006078  4886                     ext.w      D6
0000607A  2406                     move.l     D2, D6
0000607C  C5FC 0060                muls.w     D2, 0x60 /* '`' */
00006080  204D                     movea.l    A0, A5
00006082  D1FC FFFD D6D4           add.l      A0, 0xFFFDD6D4
00006088  2607                     move.l     D3, D7
0000608A  D642                     add.w      D3, D2
0000608C  1630 3000                move.b     D3, [A0 + D3.w]
00006090  E40B                     lsr        D3.b, 2
00006092  7400                     moveq.l    D2, 0x00
00006094  1403                     move.b     D2, D3
00006096  D481                     add.l      D2, D1
00006098  204D                     movea.l    A0, A5
0000609A  D1FC FFFE 8AEC           add.l      A0, 0xFFFE8AEC
000060A0  1210                     move.b     D1, [A0]
000060A2  49C1                     lea.l      A4, D1
000060A4  D282                     add.l      D1, D2
000060A6  8280                     or.l       D1, D0
000060A8  203C FFFF BFFF           move.l     D0, 0xFFFFBFFF
000060AE  C081                     and.l      D0, D1
000060B0  4887                     ext.w      D7
000060B2  4886                     ext.w      D6
000060B4  2206                     move.l     D1, D6
000060B6  C3FC 00C0                muls.w     D1, 0xC0
000060BA  204D                     movea.l    A0, A5
000060BC  D1FC FFFE 42D4           add.l      A0, 0xFFFE42D4
000060C2  2407                     move.l     D2, D7
000060C4  D442                     add.w      D2, D2
000060C6  D441                     add.w      D2, D1
000060C8  3180 2000                move.w     [A0 + D2.w], D0
label000060CC:
000060CC  4884                     ext.w      D4
000060CE  19BC 00FF 4000           move.b     [A4 + D4.w], 0xFF
000060D4  204D                     movea.l    A0, A5
000060D6  D1FC FFFE FB62           add.l      A0, 0xFFFEFB62
000060DC  1010                     move.b     D0, [A0]
000060DE  5310                     subq.b     [A0], 1
label000060E0:
000060E0  102E FFFF                move.b     D0, [A6 - 0x1]
000060E4  522E FFFF                addq.b     [A6 - 0x1], 1
label000060E8:
000060E8  1004                     move.b     D0, D4
000060EA  5204                     addq.b     D4, 1
label000060EC:
000060EC  102E FFFF                move.b     D0, [A6 - 0x1]
000060F0  4880                     ext.w      D0
000060F2  7200                     moveq.l    D1, 0x00
000060F4  204D                     movea.l    A0, A5
000060F6  D1FC FFFE FB62           add.l      A0, 0xFFFEFB62
000060FC  1210                     move.b     D1, [A0]
000060FE  B240                     cmp.w      D1, D0
00006100  6C00 FD1C                bge        -0x2E2 /* 00005E1E */
00006104  204D                     movea.l    A0, A5
00006106  D1FC FFFD CEBE           add.l      A0, 0xFFFDCEBE
0000610C  224D                     movea.l    A1, A5
0000610E  D3FC FFFD CE56           add.l      A1, 0xFFFDCE56
00006114  2290                     move.l     [A1], [A0]
00006116  7000                     moveq.l    D0, 0x00
label00006118:
00006118  4CEE 18F8 FFE2           movem.l    D3,D4,D5,D6,D7,A3,A4, [A6 - 0x1E]
0000611E  4E5E                     unlink     A6
00006120  4E75                     rts
00006122  9575 7064 6174 655F 6... dc.b       "update_explosions__Fv"
export_268:
0000613A  4E56 0000                link       A6, 0
0000613E  2F07                     move.l     -[A7], D7
00006140  558F                     subq.l     A7, 2
00006142  A861                     syscall    Random
00006144  7E7F                     moveq.l    D7, 0x7F
00006146  CE5F                     and.w      D7, [A7]+
00006148  0C47 0021                cmpi.w     D7, 0x21 /* '!' */
0000614C  6650                     bne        +0x52 /* 0000619E */
0000614E  7001                     moveq.l    D0, 0x01
00006150  2F00                     move.l     -[A7], D0
00006152  7200                     moveq.l    D1, 0x00
00006154  2F01                     move.l     -[A7], D1
00006156  4878 0096                push.l     0x96
0000615A  4878 00C0                push.l     0xC0
0000615E  2F01                     move.l     -[A7], D1
00006160  2F00                     move.l     -[A7], D0
00006162  704C                     moveq.l    D0, 0x4C
00006164  2F00                     move.l     -[A7], D0
00006166  204D                     movea.l    A0, A5
00006168  D1FC FFFE FB3A           add.l      A0, 0xFFFEFB3A
0000616E  4850                     pea.l      [A0]
00006170  4EBA F852                jsr        [PC - 0x7AE /* 000059C4 */]
00006174  204D                     movea.l    A0, A5
00006176  D1FC FFFE BD76           add.l      A0, 0xFFFEBD76
0000617C  2010                     move.l     D0, [A0]
0000617E  E488                     lsr        D0, 2
00006180  204D                     movea.l    A0, A5
00006182  D1FC FFFE BD76           add.l      A0, 0xFFFEBD76
00006188  2080                     move.l     [A0], D0
0000618A  302E 000A                move.w     D0, [A6 + 0xA]
0000618E  48C0                     ext.l      D0
00006190  2F00                     move.l     -[A7], D0
00006192  4EAD 0432                jsr        [A5 + 0x432 /* export_130, CODE:6 @ 00004B86 */]
00006196  7001                     moveq.l    D0, 0x01
00006198  4FEF 0024                lea.l      A7, [A7 + 0x24]
0000619C  6002                     bra        +0x4 /* 000061A0 */
label0000619E:
0000619E  7000                     moveq.l    D0, 0x00
label000061A0:
000061A0  2E2E FFFC                move.l     D7, [A6 - 0x4]
000061A4  4E5E                     unlink     A6
000061A6  4E75                     rts
000061A8  9264 6F73 7065 6369 6... dc.b       "dospecialcheck__Fs"
fn000061BE:
000061BE  4E56 0000                link       A6, 0
000061C2  48E7 0300                movem.l    -[A7], D6,D7
000061C6  3C2E 000E                move.w     D6, [A6 + 0xE]
000061CA  3E2E 000A                move.w     D7, [A6 + 0xA]
000061CE  6C06                     bge        +0x8 /* 000061D6 */
000061D0  7060                     moveq.l    D0, 0x60
000061D2  9047                     sub.w      D0, D7
000061D4  3E00                     move.w     D7, D0
label000061D6:
000061D6  0C47 0060                cmpi.w     D7, 0x60 /* '`' */
000061DA  6F08                     ble        +0xA /* 000061E4 */
000061DC  3007                     move.w     D0, D7
000061DE  907C 0060                sub.w      D0, 0x60 /* '`' */
000061E2  3E00                     move.w     D7, D0
label000061E4:
000061E4  4A46                     tst.w      D6
000061E6  6C06                     bge        +0x8 /* 000061EE */
000061E8  7060                     moveq.l    D0, 0x60
000061EA  9046                     sub.w      D0, D6
000061EC  3C00                     move.w     D6, D0
label000061EE:
000061EE  0C46 0060                cmpi.w     D6, 0x60 /* '`' */
000061F2  6F08                     ble        +0xA /* 000061FC */
000061F4  3006                     move.w     D0, D6
000061F6  907C 0060                sub.w      D0, 0x60 /* '`' */
000061FA  3C00                     move.w     D6, D0
label000061FC:
000061FC  2007                     move.l     D0, D7
000061FE  C1FC 00C0                muls.w     D0, 0xC0
00006202  204D                     movea.l    A0, A5
00006204  D1FC FFFE 42D4           add.l      A0, 0xFFFE42D4
0000620A  2206                     move.l     D1, D6
0000620C  D241                     add.w      D1, D1
0000620E  D240                     add.w      D1, D0
00006210  7000                     moveq.l    D0, 0x00
00006212  3030 1000                move.w     D0, [A0 + D1.w]
00006216  4A80                     tst.l      D0
00006218  204D                     movea.l    A0, A5
0000621A  D1FC FFFF 7942           add.l      A0, 0xFFFF7942
00006220  3210                     move.w     D1, [A0]
00006222  48C1                     ext.l      D1
00006224  9081                     sub.l      D0, D1
00006226  720F                     moveq.l    D1, 0x0F
00006228  C280                     and.l      D1, D0
0000622A  1001                     move.b     D0, D1
0000622C  4CEE 00C0 FFF8           movem.l    D6,D7, [A6 - 0x8]
00006232  4E5E                     unlink     A6
00006234  4E75                     rts
00006236  8E67 6574 6D61 7073 7... dc.b       "getmapss__FsT1"
fn00006248:
00006248  4E56 FFE8                link       A6, -0x0018
0000624C  48E7 1F00                movem.l    -[A7], D3,D4,D5,D6,D7
00006250  3C2E 000A                move.w     D6, [A6 + 0xA]
00006254  4244                     clr.w      D4
label00006256:
00006256  4245                     clr.w      D5
label00006258:
00006258  302E 000E                move.w     D0, [A6 + 0xE]
0000625C  C045                     and.w      D0, D5
0000625E  57C3                     seq        D3
00006260  4403                     neg.b      D3
00006262  4883                     ext.w      D3
00006264  3D43 FFFC                move.w     [A6 - 0x4], D3
00006268  302E 000E                move.w     D0, [A6 + 0xE]
0000626C  C044                     and.w      D0, D4
0000626E  57C3                     seq        D3
00006270  4403                     neg.b      D3
00006272  4883                     ext.w      D3
00006274  3E03                     move.w     D7, D3
00006276  6708                     beq        +0xA /* 00006280 */
00006278  4A6E FFFC                tst.w      [A6 - 0x4]
0000627C  6600 01A2                bne        +0x1A4 /* 00006420 */
label00006280:
00006280  558F                     subq.l     A7, 2
00006282  A861                     syscall    Random
00006284  301F                     move.w     D0, [A7]+
00006286  48C0                     ext.l      D0
00006288  2F00                     move.l     -[A7], D0
0000628A  4EAD 145A                jsr        [A5 + 0x145A /* export_647, CODE:31 @ 00000000 */]
0000628E  322E 000E                move.w     D1, [A6 + 0xE]
00006292  48C1                     ext.l      D1
00006294  4C41 0802                divs.l     D2:D0, D1
00006298  9446                     sub.w      D2, D6
0000629A  3D42 FFFE                move.w     [A6 - 0x2], D2
0000629E  4A6E FFFC                tst.w      [A6 - 0x4]
000062A2  584F                     addq.w     A7, 4
000062A4  6746                     beq        +0x48 /* 000062EC */
000062A6  48C5                     ext.l      D5
000062A8  2F05                     move.l     -[A7], D5
000062AA  3004                     move.w     D0, D4
000062AC  9046                     sub.w      D0, D6
000062AE  48C0                     ext.l      D0
000062B0  2F00                     move.l     -[A7], D0
000062B2  4EBA FF0A                jsr        [PC - 0xF6 /* 000061BE */]
000062B6  7200                     moveq.l    D1, 0x00
000062B8  1200                     move.b     D1, D0
000062BA  2D41 FFF8                move.l     [A6 - 0x8], D1
000062BE  48C5                     ext.l      D5
000062C0  2F05                     move.l     -[A7], D5
000062C2  3004                     move.w     D0, D4
000062C4  D046                     add.w      D0, D6
000062C6  48C0                     ext.l      D0
000062C8  2F00                     move.l     -[A7], D0
000062CA  4EBA FEF2                jsr        [PC - 0x10E /* 000061BE */]
000062CE  7200                     moveq.l    D1, 0x00
000062D0  1200                     move.b     D1, D0
000062D2  202E FFF8                move.l     D0, [A6 - 0x8]
000062D6  D240                     add.w      D1, D0
000062D8  3E01                     move.w     D7, D1
000062DA  E247                     asr        D7.w, 1
000062DC  302E FFFE                move.w     D0, [A6 - 0x2]
000062E0  D047                     add.w      D0, D7
000062E2  3E00                     move.w     D7, D0
000062E4  4FEF 0010                lea.l      A7, [A7 + 0x10]
000062E8  6000 00DC                bra        +0xDE /* 000063C6 */
label000062EC:
000062EC  4A47                     tst.w      D7
000062EE  6746                     beq        +0x48 /* 00006336 */
000062F0  3005                     move.w     D0, D5
000062F2  9046                     sub.w      D0, D6
000062F4  48C0                     ext.l      D0
000062F6  2F00                     move.l     -[A7], D0
000062F8  48C4                     ext.l      D4
000062FA  2F04                     move.l     -[A7], D4
000062FC  4EBA FEC0                jsr        [PC - 0x140 /* 000061BE */]
00006300  7200                     moveq.l    D1, 0x00
00006302  1200                     move.b     D1, D0
00006304  2D41 FFF4                move.l     [A6 - 0xC], D1
00006308  3005                     move.w     D0, D5
0000630A  D046                     add.w      D0, D6
0000630C  48C0                     ext.l      D0
0000630E  2F00                     move.l     -[A7], D0
00006310  48C4                     ext.l      D4
00006312  2F04                     move.l     -[A7], D4
00006314  4EBA FEA8                jsr        [PC - 0x158 /* 000061BE */]
00006318  7200                     moveq.l    D1, 0x00
0000631A  1200                     move.b     D1, D0
0000631C  202E FFF4                move.l     D0, [A6 - 0xC]
00006320  D240                     add.w      D1, D0
00006322  3E01                     move.w     D7, D1
00006324  E247                     asr        D7.w, 1
00006326  302E FFFE                move.w     D0, [A6 - 0x2]
0000632A  D047                     add.w      D0, D7
0000632C  3E00                     move.w     D7, D0
0000632E  4FEF 0010                lea.l      A7, [A7 + 0x10]
00006332  6000 0092                bra        +0x94 /* 000063C6 */
label00006336:
00006336  3005                     move.w     D0, D5
00006338  9046                     sub.w      D0, D6
0000633A  48C0                     ext.l      D0
0000633C  2F00                     move.l     -[A7], D0
0000633E  3004                     move.w     D0, D4
00006340  9046                     sub.w      D0, D6
00006342  48C0                     ext.l      D0
00006344  2F00                     move.l     -[A7], D0
00006346  4EBA FE76                jsr        [PC - 0x18A /* 000061BE */]
0000634A  7200                     moveq.l    D1, 0x00
0000634C  1200                     move.b     D1, D0
0000634E  2D41 FFF0                move.l     [A6 - 0x10], D1
00006352  3005                     move.w     D0, D5
00006354  D046                     add.w      D0, D6
00006356  48C0                     ext.l      D0
00006358  2F00                     move.l     -[A7], D0
0000635A  3004                     move.w     D0, D4
0000635C  9046                     sub.w      D0, D6
0000635E  48C0                     ext.l      D0
00006360  2F00                     move.l     -[A7], D0
00006362  4EBA FE5A                jsr        [PC - 0x1A6 /* 000061BE */]
00006366  7200                     moveq.l    D1, 0x00
00006368  1200                     move.b     D1, D0
0000636A  202E FFF0                move.l     D0, [A6 - 0x10]
0000636E  D240                     add.w      D1, D0
00006370  2D41 FFEC                move.l     [A6 - 0x14], D1
00006374  3005                     move.w     D0, D5
00006376  9046                     sub.w      D0, D6
00006378  48C0                     ext.l      D0
0000637A  2F00                     move.l     -[A7], D0
0000637C  3004                     move.w     D0, D4
0000637E  D046                     add.w      D0, D6
00006380  48C0                     ext.l      D0
00006382  2F00                     move.l     -[A7], D0
00006384  4EBA FE38                jsr        [PC - 0x1C8 /* 000061BE */]
00006388  7200                     moveq.l    D1, 0x00
0000638A  1200                     move.b     D1, D0
0000638C  202E FFEC                move.l     D0, [A6 - 0x14]
00006390  D240                     add.w      D1, D0
00006392  2D41 FFE8                move.l     [A6 - 0x18], D1
00006396  3005                     move.w     D0, D5
00006398  D046                     add.w      D0, D6
0000639A  48C0                     ext.l      D0
0000639C  2F00                     move.l     -[A7], D0
0000639E  3004                     move.w     D0, D4
000063A0  D046                     add.w      D0, D6
000063A2  48C0                     ext.l      D0
000063A4  2F00                     move.l     -[A7], D0
000063A6  4EBA FE16                jsr        [PC - 0x1EA /* 000061BE */]
000063AA  7200                     moveq.l    D1, 0x00
000063AC  1200                     move.b     D1, D0
000063AE  202E FFE8                move.l     D0, [A6 - 0x18]
000063B2  3E01                     move.w     D7, D1
000063B4  DE40                     add.w      D7, D0
000063B6  3007                     move.w     D0, D7
000063B8  E440                     asr        D0.w, 2
000063BA  322E FFFE                move.w     D1, [A6 - 0x2]
000063BE  D240                     add.w      D1, D0
000063C0  3E01                     move.w     D7, D1
000063C2  4FEF 0020                lea.l      A7, [A7 + 0x20]
label000063C6:
000063C6  0C47 0001                cmpi.w     D7, 0x1
000063CA  6C02                     bge        +0x4 /* 000063CE */
000063CC  7E01                     moveq.l    D7, 0x01
label000063CE:
000063CE  0C47 000F                cmpi.w     D7, 0xF
000063D2  6F02                     ble        +0x4 /* 000063D6 */
000063D4  7E0F                     moveq.l    D7, 0x0F
label000063D6:
000063D6  700F                     moveq.l    D0, 0x0F
000063D8  C047                     and.w      D0, D7
000063DA  7200                     moveq.l    D1, 0x00
000063DC  3200                     move.w     D1, D0
000063DE  4A81                     tst.l      D1
000063E0  204D                     movea.l    A0, A5
000063E2  D1FC FFFF 7942           add.l      A0, 0xFFFF7942
000063E8  3010                     move.w     D0, [A0]
000063EA  48C0                     ext.l      D0
000063EC  D081                     add.l      D0, D1
000063EE  2204                     move.l     D1, D4
000063F0  C3FC 00C0                muls.w     D1, 0xC0
000063F4  204D                     movea.l    A0, A5
000063F6  D1FC FFFE 42D4           add.l      A0, 0xFFFE42D4
000063FC  2405                     move.l     D2, D5
000063FE  D442                     add.w      D2, D2
00006400  D441                     add.w      D2, D1
00006402  3180 2000                move.w     [A0 + D2.w], D0
00006406  2004                     move.l     D0, D4
00006408  C1FC 00C0                muls.w     D0, 0xC0
0000640C  204D                     movea.l    A0, A5
0000640E  D1FC FFFE 42D4           add.l      A0, 0xFFFE42D4
00006414  2205                     move.l     D1, D5
00006416  D241                     add.w      D1, D1
00006418  D240                     add.w      D1, D0
0000641A  0270 BFFF 1000           andi.w     [A0 + D1.w], 0xBFFF
label00006420:
00006420  DA46                     add.w      D5, D6
00006422  0C45 0060                cmpi.w     D5, 0x60 /* '`' */
00006426  6D00 FE30                blt        -0x1CE /* 00006258 */
0000642A  D846                     add.w      D4, D6
0000642C  0C44 0060                cmpi.w     D4, 0x60 /* '`' */
00006430  6D00 FE24                blt        -0x1DA /* 00006256 */
00006434  4CEE 00F8 FFD4           movem.l    D3,D4,D5,D6,D7, [A6 - 0x2C]
0000643A  4E5E                     unlink     A6
0000643C  4E75                     rts
0000643E  9164 6F66 7261 636C 6... dc.b       "dofraclevel__FsT1"
fn00006452:
00006452  4E56 0000                link       A6, 0
00006456  48E7 1300                movem.l    -[A7], D3,D6,D7
0000645A  4246                     clr.w      D6
0000645C  7660                     moveq.l    D3, 0x60
label0000645E:
0000645E  4247                     clr.w      D7
label00006460:
00006460  2006                     move.l     D0, D6
00006462  C1FC 00C0                muls.w     D0, 0xC0
00006466  204D                     movea.l    A0, A5
00006468  D1FC FFFE 42D4           add.l      A0, 0xFFFE42D4
0000646E  2207                     move.l     D1, D7
00006470  D241                     add.w      D1, D1
00006472  D240                     add.w      D1, D0
00006474  4270 1000                clr.w      [A0 + D1.w]
00006478  2006                     move.l     D0, D6
0000647A  C1FC 00C0                muls.w     D0, 0xC0
0000647E  204D                     movea.l    A0, A5
00006480  D1FC FFFE 42D4           add.l      A0, 0xFFFE42D4
00006486  2207                     move.l     D1, D7
00006488  D241                     add.w      D1, D1
0000648A  D240                     add.w      D1, D0
0000648C  0270 BFFF 1000           andi.w     [A0 + D1.w], 0xBFFF
00006492  2006                     move.l     D0, D6
00006494  C1FC 00C0                muls.w     D0, 0xC0
00006498  204D                     movea.l    A0, A5
0000649A  D1FC FFFD FAD4           add.l      A0, 0xFFFDFAD4
000064A0  2207                     move.l     D1, D7
000064A2  D241                     add.w      D1, D1
000064A4  D240                     add.w      D1, D0
000064A6  4270 1000                clr.w      [A0 + D1.w]
000064AA  2006                     move.l     D0, D6
000064AC  C1FC 0060                muls.w     D0, 0x60 /* '`' */
000064B0  204D                     movea.l    A0, A5
000064B2  D1FC FFFD D6D4           add.l      A0, 0xFFFDD6D4
000064B8  2207                     move.l     D1, D7
000064BA  D240                     add.w      D1, D0
000064BC  4230 1000                clr.b      [A0 + D1.w]
000064C0  3007                     move.w     D0, D7
000064C2  5247                     addq.w     D7, 1
000064C4  B647                     cmp.w      D3, D7
000064C6  6E98                     bgt        -0x66 /* 00006460 */
000064C8  3006                     move.w     D0, D6
000064CA  5246                     addq.w     D6, 1
000064CC  B646                     cmp.w      D3, D6
000064CE  6E8E                     bgt        -0x70 /* 0000645E */
000064D0  701F                     moveq.l    D0, 0x1F
000064D2  2F00                     move.l     -[A7], D0
000064D4  7210                     moveq.l    D1, 0x10
000064D6  2F01                     move.l     -[A7], D1
000064D8  4EBA FD6E                jsr        [PC - 0x292 /* 00006248 */]
000064DC  700F                     moveq.l    D0, 0x0F
000064DE  2F00                     move.l     -[A7], D0
000064E0  7208                     moveq.l    D1, 0x08
000064E2  2F01                     move.l     -[A7], D1
000064E4  4EBA FD62                jsr        [PC - 0x29E /* 00006248 */]
000064E8  7007                     moveq.l    D0, 0x07
000064EA  2F00                     move.l     -[A7], D0
000064EC  7204                     moveq.l    D1, 0x04
000064EE  2F01                     move.l     -[A7], D1
000064F0  4EBA FD56                jsr        [PC - 0x2AA /* 00006248 */]
000064F4  7003                     moveq.l    D0, 0x03
000064F6  2F00                     move.l     -[A7], D0
000064F8  7202                     moveq.l    D1, 0x02
000064FA  2F01                     move.l     -[A7], D1
000064FC  4EBA FD4A                jsr        [PC - 0x2B6 /* 00006248 */]
00006500  7001                     moveq.l    D0, 0x01
00006502  2F00                     move.l     -[A7], D0
00006504  2F00                     move.l     -[A7], D0
00006506  4EBA FD40                jsr        [PC - 0x2C0 /* 00006248 */]
0000650A  4FEF 0028                lea.l      A7, [A7 + 0x28]
0000650E  4CEE 00C8 FFF4           movem.l    D3,D6,D7, [A6 - 0xC]
00006514  4E5E                     unlink     A6
00006516  4E75                     rts
00006518  8E66 7261 6374 616C 6... dc.b       "fractalmap__Fv"
