# near model CODE resource
# jump table entries: 5168-5168 (1 of them)
export_646:
00000000  48E7 7FF8                movem.l    -[A7], D1,D2,D3,D4,D5,D6,D7,A0,A1,A2,A3,A4
00000004  49FA 01A8                lea.l      A4, [PC + 0x1A8 /* 000001AE, value 0x28EC6, cstring "" */]
00000008  302C 0004                move.w     D0, [A4 + 0x4]
0000000C  5340                     subq.w     D0, 1
0000000E  6704                     beq        +0x6 /* 00000014 */
00000010  70FF                     moveq.l    D0, 0xFFFFFFFF
00000012  6032                     bra        +0x34 /* 00000046 */
label00000014:
00000014  264D                     movea.l    A3, A5
00000016  97D4                     sub.l      A3, [A4]
00000018  2F0B                     move.l     -[A7], A3
0000001A  2F14                     move.l     -[A7], [A4]
0000001C  6100 014C                bsr        +0x14E /* 0000016A */
00000020  202C 0008                move.l     D0, [A4 + 0x8]
00000024  4874 0800                pea.l      [A4 + D0]
00000028  2F0B                     move.l     -[A7], A3
0000002A  6100 002E                bsr        +0x30 /* 0000005A */
0000002E  504F                     addq.w     A7, 8
00000030  202C 000C                move.l     D0, [A4 + 0xC]
00000034  4874 0800                pea.l      [A4 + D0]
00000038  2F0B                     move.l     -[A7], A3
0000003A  2F0D                     move.l     -[A7], A5
0000003C  6100 00D0                bsr        +0xD2 /* 0000010E */
00000040  4FEF 000C                lea.l      A7, [A7 + 0xC]
00000044  7000                     moveq.l    D0, 0x00
label00000046:
00000046  4CDF 1FFE                movem.l    D1,D2,D3,D4,D5,D6,D7,A0,A1,A2,A3,A4, [A7]+
0000004A  4E75                     rts
0000004C  8009 5F44 4154 4149 4... dc.b       "_DATAINIT"
fn0000005A:
0000005A  226F 0004                movea.l    A1, [A7 + 0x4]
0000005E  206F 0008                movea.l    A0, [A7 + 0x8]
00000062  48E7 1800                movem.l    -[A7], D3,D4
label00000066:
00000066  7601                     moveq.l    D3, 0x01
00000068  7200                     moveq.l    D1, 0x00
0000006A  1218                     move.b     D1, [A0]+
0000006C  2401                     move.l     D2, D1
0000006E  0241 000F                andi.w     D1, 0xF
00000072  660A                     bne        +0xC /* 0000007E */
00000074  6100 0044                bsr        +0x46 /* 000000BA */
00000078  2200                     move.l     D1, D0
0000007A  6724                     beq        +0x26 /* 000000A0 */
0000007C  6002                     bra        +0x4 /* 00000080 */
label0000007E:
0000007E  D241                     add.w      D1, D1
label00000080:
00000080  0242 00F0                andi.w     D2, 0xF0
00000084  6608                     bne        +0xA /* 0000008E */
00000086  6100 0032                bsr        +0x34 /* 000000BA */
0000008A  2400                     move.l     D2, D0
0000008C  6002                     bra        +0x4 /* 00000090 */
label0000008E:
0000008E  E64A                     lsr        D2.w, 3
label00000090:
00000090  D3C2                     add.l      A1, D2
00000092  2801                     move.l     D4, D1
label00000094:
00000094  12D8                     move.b     [A1]+, [A0]+
00000096  5384                     subq.l     D4, 1
00000098  66FA                     bne        -0x4 /* 00000094 */
0000009A  5383                     subq.l     D3, 1
0000009C  66F2                     bne        -0xC /* 00000090 */
0000009E  60C6                     bra        -0x38 /* 00000066 */
label000000A0:
000000A0  4CDF 0018                movem.l    D3,D4, [A7]+
000000A4  4E75                     rts
000000A6  8010 756E 636F 6D70 7... dc.b       "uncompress_world"
fn000000BA:
000000BA  7000                     moveq.l    D0, 0x00
000000BC  1018                     move.b     D0, [A0]+
000000BE  6A42                     bpl        +0x44 /* 00000102 */
000000C0  0800 0006                btst.b     D0, 0x6
000000C4  6734                     beq        +0x36 /* 000000FA */
000000C6  0800 0005                btst.b     D0, 0x5
000000CA  6720                     beq        +0x22 /* 000000EC */
000000CC  0800 0004                btst.b     D0, 0x4
000000D0  670A                     beq        +0xC /* 000000DC */
000000D2  61E6                     bsr        -0x18 /* 000000BA */
000000D4  2600                     move.l     D3, D0
000000D6  61E2                     bsr        -0x1C /* 000000BA */
000000D8  C143                     exg        D0, D3
000000DA  4E75                     rts
label000000DC:
000000DC  1018                     move.b     D0, [A0]+
000000DE  E180                     asl        D0, 8
000000E0  1018                     move.b     D0, [A0]+
000000E2  E180                     asl        D0, 8
000000E4  1018                     move.b     D0, [A0]+
000000E6  E180                     asl        D0, 8
000000E8  1018                     move.b     D0, [A0]+
000000EA  4E75                     rts
label000000EC:
000000EC  0200 001F                andi.b     D0, 0x1F
000000F0  E180                     asl        D0, 8
000000F2  1018                     move.b     D0, [A0]+
000000F4  E180                     asl        D0, 8
000000F6  1018                     move.b     D0, [A0]+
000000F8  4E75                     rts
label000000FA:
000000FA  0200 003F                andi.b     D0, 0x3F /* '?' */
000000FE  E180                     asl        D0, 8
00000100  1018                     move.b     D0, [A0]+
label00000102:
00000102  4E75                     rts
00000104  8006 6765 745F 726C 0000 dc.b       "get_rl"
fn0000010E:
0000010E  222F 0004                move.l     D1, [A7 + 0x4]
00000112  226F 0008                movea.l    A1, [A7 + 0x8]
00000116  206F 000C                movea.l    A0, [A7 + 0xC]
label0000011A:
0000011A  7401                     moveq.l    D2, 0x01
0000011C  7000                     moveq.l    D0, 0x00
0000011E  1018                     move.b     D0, [A0]+
00000120  670C                     beq        +0xE /* 0000012E */
00000122  6A26                     bpl        +0x28 /* 0000014A */
00000124  0880 0007                bclr.b     D0, 0x7
00000128  E188                     lsl        D0, 8
0000012A  1018                     move.b     D0, [A0]+
0000012C  601C                     bra        +0x1E /* 0000014A */
label0000012E:
0000012E  1018                     move.b     D0, [A0]+
00000130  6724                     beq        +0x26 /* 00000156 */
00000132  6A0E                     bpl        +0x10 /* 00000142 */
00000134  E188                     lsl        D0, 8
00000136  1018                     move.b     D0, [A0]+
00000138  E188                     lsl        D0, 8
0000013A  1018                     move.b     D0, [A0]+
0000013C  E188                     lsl        D0, 8
0000013E  1018                     move.b     D0, [A0]+
00000140  6008                     bra        +0xA /* 0000014A */
label00000142:
00000142  2400                     move.l     D2, D0
00000144  6100 FF74                bsr        -0x8A /* 000000BA */
00000148  C142                     exg        D0, D2
label0000014A:
0000014A  D080                     add.l      D0, D0
label0000014C:
0000014C  D3C0                     add.l      A1, D0
0000014E  D391                     add.l      [A1], D1
00000150  5382                     subq.l     D2, 1
00000152  66F8                     bne        -0x6 /* 0000014C */
00000154  60C4                     bra        -0x3A /* 0000011A */
label00000156:
00000156  4E75                     rts
00000158  800E 7265 6C6F 6361 7... dc.b       "relocate_world"
fn0000016A:
0000016A  7400                     moveq.l    D2, 0x00
0000016C  205F                     movea.l    A0, [A7]+
0000016E  201F                     move.l     D0, [A7]+
00000170  225F                     movea.l    A1, [A7]+
00000172  6728                     beq        +0x2A /* 0000019C */
label00000174:
00000174  3209                     move.w     D1, A1
00000176  0241 0003                andi.w     D1, 0x3
0000017A  6708                     beq        +0xA /* 00000184 */
0000017C  12C2                     move.b     [A1]+, D2
0000017E  5380                     subq.l     D0, 1
00000180  66F2                     bne        -0xC /* 00000174 */
00000182  6018                     bra        +0x1A /* 0000019C */
label00000184:
00000184  2200                     move.l     D1, D0
00000186  E489                     lsr        D1, 2
00000188  6706                     beq        +0x8 /* 00000190 */
label0000018A:
0000018A  22C2                     move.l     [A1]+, D2
0000018C  5381                     subq.l     D1, 1
0000018E  66FA                     bne        -0x4 /* 0000018A */
label00000190:
00000190  0240 0003                andi.w     D0, 0x3
00000194  6002                     bra        +0x4 /* 00000198 */
label00000196:
00000196  12C2                     move.b     [A1]+, D2
label00000198:
00000198  51C8 FFFC                dbf        D0, -0x6 /* 00000196 */
label0000019C:
0000019C  4ED0                     jmp        [A0]
0000019E  800A 5A45 524F 4255 4... dc.b       "ZEROBUFFER"
000001AC  0000 0002                ori.b      D0, 0x2
000001B0  8EC6                     divu.w     D7, D6
000001B2  0001 0000                ori.b      D1, 0x0
000001B6  0000 0014                ori.b      D0, 0x14
000001BA  0000 6FCF                ori.b      D0, 0xCF
000001BE  0000 0000                ori.b      D0, 0x0
000001C2  0E00 736D                .invalid.b D0, 0x6D /* 'm' */ // invalid immediate operation
000001C6  6163                     bsr        +0x65 /* 0000022B */
000001C8  6B2E                     bmi        +0x30 /* 000001F8 */
000001CA  766F                     moveq.l    D3, 0x6F
000001CC  6300 736D                bls        +0x736F /* 0000753B */
000001D0  6163                     bsr        +0x65 /* 00000235 */
000001D2  6B2E                     bmi        +0x30 /* 00000202 */
000001D4  766F                     moveq.l    D3, 0x6F
000001D6  6300 636F                bls        +0x6371 /* 00006547 */
000001DA  7731                     moveq.l    D3, 0x31
000001DC  2E76 6F63 1463 6F77 322E movea.l    A7, [[A6 + 0x1463] + 0x6F77322E]
000001E6  766F                     moveq.l    D3, 0x6F
000001E8  6319                     bls        +0x1B /* 00000203 */
000001EA  7069                     moveq.l    D0, 0x69
000001EC  672E                     beq        +0x30 /* 0000021C */
000001EE  766F                     moveq.l    D3, 0x6F
000001F0  6300 7368                bls        +0x736A /* 0000755A */
000001F4  6565                     bcs        +0x67 /* 0000025B */
000001F6  7031                     moveq.l    D0, 0x31
label000001F8:
000001F8  2E76 6F63 10F0 0A02 7368 movea.l    A7, [[A6 + 0x10F0] + 0xA027368]
label00000202:
00000202  6565                     bcs        +0x67 /* 00000269 */
00000204  7032                     moveq.l    D0, 0x32
00000206  2E76 6F63 686F 7273 6531 movea.l    A7, [[A6 + 0x686F] + 0x72736531]
00000210  2E76 6F63 0047 1701 0203 movea.l    A7, [[A6 + 0x47] + 0x17010203]
0000021A  0405 0607                subi.b     D5, 0x7
// begin alternate branch 0000021C-00000234
label0000021C:
0000021C  0607 0405                addi.b     D7, 0x5
00000220  0607 0001                addi.b     D7, 0x1
00000224  0203 00A0                andi.b     D3, 0xA0
00000228  00A0 0050 0040           ori.l      -[A0], 0x500040 /* 'P\0@' */
0000022E  0032 0023 0038           ori.b      [A2 + D0.w + 0x38], 0x23 /* '#' */
// end alternate branch 0000021C-00000234
label0000021C: // (misaligned)
0000021E  0405 0607                subi.b     D5, 0x7
00000222  0001 0203                ori.b      D1, 0x3
00000226  00A0 00A0 0050           ori.l      -[A0], 0xA00050
0000022C  0040 0032                ori.w      D0, 0x32 /* '2' */
00000230  0023 0038                ori.b      -[A3], 0x38 /* '8' */
00000234  0038 0002 0002           ori.b      [0x00000002], 0x2
0000023A  0001 0001                ori.b      D1, 0x1
0000023E  0008 0008                ori.b      A0, 0x8
00000242  0004 0002                ori.b      D4, 0x2
00000246  0030 0028 002C           ori.b      [A0 + D0.w + 0x2C], 0x28 /* '(' */
0000024C  0018 0064                ori.b      [A0]+, 0x64 /* 'd' */
00000250  0050 0020                ori.w      [A0], 0x20 /* ' ' */
00000254  000C 03C0                ori.b      A4, 0xC0
00000258  03C0                     .incomplete
0000025A  02D0                     .incomplete
0000025C  01E0                     .incomplete
0000025E  0001 A20B                ori.b      D1, 0xB
00000262  0F05                     btst       D5, D7
00000264  9812                     sub.b      D4, [A2]
00000266  0100                     btst       D0, D0
00000268  7769                     moveq.l    D3, 0x69
0000026A  6E64                     bgt        +0x66 /* 000002D0 */
0000026C  2E76 6F63 1565 7665 6E74 movea.l    A7, [[A6 + 0x1565] + 0x76656E74]
00000276  732E                     moveq.l    D1, 0x2E
00000278  6461                     bcc        +0x63 /* 000002DB */
0000027A  7414                     moveq.l    D2, 0x14
0000027C  7769                     moveq.l    D3, 0x69
0000027E  6E64                     bgt        +0x66 /* 000002E4 */
00000280  2E76 6F63 10F0 0A05 6576 movea.l    A7, [[A6 + 0x10F0] + 0xA056576]
0000028A  656E                     bcs        +0x70 /* 000002FA */
0000028C  7473                     moveq.l    D2, 0x73
0000028E  2E64                     movea.l    A7, -[A4]
00000290  6174                     bsr        +0x76 /* 00000306 */
00000292  0961                     bchg       -[A1], D4
00000294  6C69                     bge        +0x6B /* 000002FF */
00000296  656E                     bcs        +0x70 /* 00000306 */
00000298  2E6D 6964                movea.l    A7, [A5 + 0x6964]
0000029C  6576                     bcs        +0x78 /* 00000314 */
0000029E  656E                     bcs        +0x70 /* 0000030E */
000002A0  7473                     moveq.l    D2, 0x73
000002A2  2E64                     movea.l    A7, -[A4]
000002A4  6174                     bsr        +0x76 /* 0000031A */
000002A6  6576                     bcs        +0x78 /* 0000031E */
000002A8  656E                     bcs        +0x70 /* 00000318 */
000002AA  7473                     moveq.l    D2, 0x73
000002AC  2E64                     movea.l    A7, -[A4]
000002AE  6174                     bsr        +0x76 /* 00000324 */
000002B0  6576                     bcs        +0x78 /* 00000328 */
000002B2  656E                     bcs        +0x70 /* 00000322 */
000002B4  7473                     moveq.l    D2, 0x73
000002B6  2E64                     movea.l    A7, -[A4]
000002B8  6174                     bsr        +0x76 /* 0000032E */
000002BA  1B74 6F72 6E61 646F 2... move.b     [A5 + 0x6F63], [[A4 + 0x6E61646F] + 0x2E76]
000002C6  0065 7665                ori.w      -[A5], 0x7665 /* 've' */
000002CA  6E74                     bgt        +0x76 /* 00000340 */
000002CC  732E                     moveq.l    D1, 0x2E
000002CE  6461                     bcc        +0x63 /* 00000331 */
label000002D0:
000002D0  7415                     moveq.l    D2, 0x15
000002D2  6576                     bcs        +0x78 /* 0000034A */
000002D4  656E                     bcs        +0x70 /* 00000344 */
000002D6  7473                     moveq.l    D2, 0x73
000002D8  2E64                     movea.l    A7, -[A4]
000002DA  6174                     bsr        +0x76 /* 00000350 */
000002DC  10F0 1402                move.b     [A0]+, [A0 + D1.w * 4 + 0x2]
000002E0  666C                     bne        +0x6E /* 0000034E */
000002E2  6F6F                     ble        +0x71 /* 00000353 */
label000002E4:
000002E4  642E                     bcc        +0x30 /* 00000314 */
000002E6  766F                     moveq.l    D3, 0x6F
000002E8  6300 6576                bls        +0x6578 /* 00006860 */
000002EC  656E                     bcs        +0x70 /* 0000035C */
000002EE  7473                     moveq.l    D2, 0x73
000002F0  2E64                     movea.l    A7, -[A4]
000002F2  6174                     bsr        +0x76 /* 00000368 */
000002F4  7377                     moveq.l    D1, 0x77
000002F6  6172                     bsr        +0x74 /* 0000036A */
000002F8  6D2E                     blt        +0x30 /* 00000328 */
label000002FA:
000002FA  766F                     moveq.l    D3, 0x6F
000002FC  6300 6576                bls        +0x6578 /* 00006874 */
00000300  656E                     bcs        +0x70 /* 00000370 */
00000302  7473                     moveq.l    D2, 0x73
00000304  2E64                     movea.l    A7, -[A4]
fn00000306:
00000306  6174                     bsr        +0x76 /* 0000037C */
00000308  10F0 0A03                move.b     [A0]+, [A0 + D0 * 2 + 0x3]
0000030C  6576                     bcs        +0x78 /* 00000384 */
label0000030E:
0000030E  656E                     bcs        +0x70 /* 0000037E */
00000310  7473                     moveq.l    D2, 0x73
00000312  2E64                     movea.l    A7, -[A4]
label00000314:
00000314  6174                     bsr        +0x76 /* 0000038A */
00000316  6576                     bcs        +0x78 /* 0000038E */
label00000318:
00000318  656E                     bcs        +0x70 /* 00000388 */
fn0000031A:
0000031A  7473                     moveq.l    D2, 0x73
0000031C  2E64                     movea.l    A7, -[A4]
label0000031E:
0000031E  6174                     bsr        +0x76 /* 00000394 */
00000320  6576                     bcs        +0x78 /* 00000398 */
label00000322:
00000322  656E                     bcs        +0x70 /* 00000392 */
fn00000324:
00000324  7473                     moveq.l    D2, 0x73
00000326  2E64                     movea.l    A7, -[A4]
label00000328:
00000328  6174                     bsr        +0x76 /* 0000039E */
0000032A  1017                     move.b     D0, [A7]
0000032C  6578                     bcs        +0x7A /* 000003A6 */
fn0000032E:
0000032E  706C                     moveq.l    D0, 0x6C
00000330  6F64                     ble        +0x66 /* 00000396 */
00000332  652E                     bcs        +0x30 /* 00000362 */
00000334  766F                     moveq.l    D3, 0x6F
00000336  6300 6578                bls        +0x657A /* 000068B0 */
0000033A  706C                     moveq.l    D0, 0x6C
0000033C  6F64                     ble        +0x66 /* 000003A2 */
0000033E  652E                     bcs        +0x30 /* 0000036E */
label00000340:
00000340  766F                     moveq.l    D3, 0x6F
00000342  6300 0313                bls        +0x315 /* 00000657 */
// begin alternate branch 00000344-00000346
label00000344:
00000344  0313                     btst       [A3], D1
// end alternate branch 00000344-00000346
label00000344: // (misaligned)
00000346  0100                     btst       D0, D0
00000348  0100                     btst       D0, D0
label0000034A:
0000034A  030D                     btst       A5, D1
0000034C  0100                     btst       D0, D0
label0000034E:
0000034E  0100                     btst       D0, D0
fn00000350:
00000350  010B                     btst       A3, D0
00000352  0130 0F4E                btst       <<invalid full ext with IS == 1 and I/IS == 6>>, D0
00000356  000B 0050                ori.b      A3, 0x50 /* 'P' */
0000035A  0024 FFFF                ori.b      -[A4], 0xFF
// begin alternate branch 0000035C-0000035E
label0000035C:
0000035C  FFFF                     .invalid   <<F/7/7>>
// end alternate branch 0000035C-0000035E
label0000035C: // (misaligned)
0000035E  FFFF                     .invalid   <<F/7/7>>
00000360  FFFF                     .invalid   <<F/7/7>>
label00000362:
00000362  FFFF                     .invalid   <<F/7/7>>
00000364  0013 0953                ori.b      [A3], 0x53 /* 'S' */
fn00000368:
00000368  000B 0054                ori.b      A3, 0x54 /* 'T' */
// begin alternate branch 0000036A-00000374
fn0000036A:
0000036A  0054 000B                ori.w      [A4], 0xB
label0000036E:
0000036E  0080 0022 0081           ori.l      D0, 0x220081
// end alternate branch 0000036A-00000374
fn0000036A: // (misaligned)
0000036C  000B 0080                ori.b      A3, 0x80
label0000036E: // (misaligned)
label00000370:
00000370  0022 0081                ori.b      -[A2], 0x81
00000374  0024 003D                ori.b      -[A4], 0x3D /* '=' */
00000378  0022 000F                ori.b      -[A2], 0xF
fn0000037C:
0000037C  0504                     btst       D4, D2
label0000037E:
0000037E  000B 0080                ori.b      A3, 0x80
00000382  0022 0005                ori.b      -[A2], 0x5
// begin alternate branch 00000384-00000388
label00000384:
00000384  0005 000B                ori.b      D5, 0xB
// end alternate branch 00000384-00000388
label00000384: // (misaligned)
00000386  000B FFFF                ori.b      A3, 0xFF
// begin alternate branch 00000388-0000038A
label00000388:
00000388  FFFF                     .invalid   <<F/7/7>>
// end alternate branch 00000388-0000038A
label00000388: // (misaligned)
fn0000038A:
0000038A  FFFF                     .invalid   <<F/7/7>>
0000038C  5475 686F                addq.w     [A5 + D6 + 0x6F], 2
// begin alternate branch 0000038E-00000390
label0000038E:
0000038E  686F                     bvc        +0x71 /* 000003FF */
// end alternate branch 0000038E-00000390
label0000038E: // (misaligned)
00000390  682E                     bvc        +0x30 /* 000003C0 */
label00000392:
00000392  766F                     moveq.l    D3, 0x6F
fn00000394:
00000394  6310                     bls        +0x12 /* 000003A6 */
label00000396:
00000396  F008 0D75                pmovefd    A0, MR3
// begin alternate branch 00000398-0000039C
label00000398:
00000398  0D75 686F                bchg       [A5 + D6 + 0x6F], D6
// end alternate branch 00000398-0000039C
label00000398: // (misaligned)
0000039A  686F                     bvc        +0x71 /* 0000040B */
0000039C  682E                     bvc        +0x30 /* 000003CC */
fn0000039E:
0000039E  766F                     moveq.l    D3, 0x6F
000003A0  6375                     bls        +0x77 /* 00000417 */
label000003A2:
000003A2  686F                     bvc        +0x71 /* 00000413 */
000003A4  682E                     bvc        +0x30 /* 000003D4 */
label000003A6:
000003A6  766F                     moveq.l    D3, 0x6F
000003A8  6375                     bls        +0x77 /* 0000041F */
000003AA  686F                     bvc        +0x71 /* 0000041B */
000003AC  682E                     bvc        +0x30 /* 000003DC */
000003AE  766F                     moveq.l    D3, 0x6F
000003B0  6375                     bls        +0x77 /* 00000427 */
000003B2  686F                     bvc        +0x71 /* 00000423 */
000003B4  682E                     bvc        +0x30 /* 000003E4 */
000003B6  766F                     moveq.l    D3, 0x6F
000003B8  6375                     bls        +0x77 /* 0000042F */
000003BA  686F                     bvc        +0x71 /* 0000042B */
000003BC  682E                     bvc        +0x30 /* 000003EC */
000003BE  766F                     moveq.l    D3, 0x6F
label000003C0:
000003C0  6375                     bls        +0x77 /* 00000437 */
000003C2  686F                     bvc        +0x71 /* 00000433 */
000003C4  682E                     bvc        +0x30 /* 000003F4 */
000003C6  766F                     moveq.l    D3, 0x6F
000003C8  6375                     bls        +0x77 /* 0000043F */
000003CA  686F                     bvc        +0x71 /* 0000043B */
label000003CC:
000003CC  682E                     bvc        +0x30 /* 000003FC */
000003CE  766F                     moveq.l    D3, 0x6F
000003D0  6375                     bls        +0x77 /* 00000447 */
000003D2  686F                     bvc        +0x71 /* 00000443 */
label000003D4:
000003D4  682E                     bvc        +0x30 /* 00000404 */
000003D6  766F                     moveq.l    D3, 0x6F
000003D8  6375                     bls        +0x77 /* 0000044F */
000003DA  686F                     bvc        +0x71 /* 0000044B */
label000003DC:
000003DC  682E                     bvc        +0x30 /* 0000040C */
000003DE  766F                     moveq.l    D3, 0x6F
000003E0  6375                     bls        +0x77 /* 00000457 */
000003E2  686F                     bvc        +0x71 /* 00000453 */
label000003E4:
000003E4  682E                     bvc        +0x30 /* 00000414 */
000003E6  766F                     moveq.l    D3, 0x6F
000003E8  6375                     bls        +0x77 /* 0000045F */
000003EA  686F                     bvc        +0x71 /* 0000045B */
label000003EC:
000003EC  682E                     bvc        +0x30 /* 0000041C */
000003EE  766F                     moveq.l    D3, 0x6F
000003F0  6375                     bls        +0x77 /* 00000467 */
000003F2  686F                     bvc        +0x71 /* 00000463 */
label000003F4:
000003F4  682E                     bvc        +0x30 /* 00000424 */
000003F6  766F                     moveq.l    D3, 0x6F
000003F8  6375                     bls        +0x77 /* 0000046F */
000003FA  686F                     bvc        +0x71 /* 0000046B */
label000003FC:
000003FC  682E                     bvc        +0x30 /* 0000042C */
000003FE  766F                     moveq.l    D3, 0x6F
00000400  6394                     bls        -0x6A /* 00000396 */
00000402  7568                     moveq.l    D2, 0x68
label00000404:
00000404  6F68                     ble        +0x6A /* 0000046E */
00000406  2E76 6F63 1662 756C 6C64 movea.l    A7, [[A6 + 0x1662] + 0x756C6C64]
// begin alternate branch 0000040C-00000410
label0000040C:
0000040C  756C                     moveq.l    D2, 0x6C
0000040E  6C64                     bge        +0x66 /* 00000474 */
// end alternate branch 0000040C-00000410
label0000040C: // (misaligned)
00000410  6F7A                     ble        +0x7C /* 0000048C */
00000412  652E                     bcs        +0x30 /* 00000442 */
label00000414:
00000414  766F                     moveq.l    D3, 0x6F
00000416  6315                     bls        +0x17 /* 0000042D */
00000418  6576                     bcs        +0x78 /* 00000490 */
0000041A  656E                     bcs        +0x70 /* 0000048A */
label0000041C:
0000041C  7473                     moveq.l    D2, 0x73
0000041E  2E64                     movea.l    A7, -[A4]
00000420  6174                     bsr        +0x76 /* 00000496 */
00000422  1A65                     movea.b    A5, -[A5]
label00000424:
00000424  7870                     moveq.l    D4, 0x70
00000426  6C6F                     bge        +0x71 /* 00000497 */
00000428  6465                     bcc        +0x67 /* 0000048F */
0000042A  2E76 6F63 0075 686F 682E movea.l    A7, [[A6 + 0x75] + 0x686F682E]
// begin alternate branch 0000042C-00000434
label0000042C:
0000042C  6F63                     ble        +0x65 /* 00000491 */
0000042E  0075 686F 682E           ori.w      [A5 + D6 + 0x2E], 0x686F /* 'ho' */
// end alternate branch 0000042C-00000434
label0000042C: // (misaligned)
00000434  766F                     moveq.l    D3, 0x6F
00000436  6310                     bls        +0x12 /* 00000448 */
00000438  4A59                     tst.w      [A1]+
0000043A  6F75                     ble        +0x77 /* 000004B1 */
0000043C  2063                     movea.l    A0, -[A3]
0000043E  616E                     bsr        +0x70 /* 000004AE */
00000440  6E6F                     bgt        +0x71 /* 000004B1 */
label00000442:
00000442  7420                     moveq.l    D2, 0x20
00000444  6275                     bhi        +0x77 /* 000004BB */
00000446  6C6C                     bge        +0x6E /* 000004B4 */
label00000448:
00000448  646F                     bcc        +0x71 /* 000004B9 */
0000044A  7A65                     moveq.l    D5, 0x65
0000044C  2061                     movea.l    A0, -[A1]
0000044E  2066                     movea.l    A0, -[A6]
00000450  6965                     bvs        +0x67 /* 000004B7 */
00000452  6C64                     bge        +0x66 /* 000004B8 */
00000454  2077 6869                movea.l    A0, [A7 + D6 + 0x69]
00000458  6C65                     bge        +0x67 /* 000004BF */
0000045A  2065                     movea.l    A0, -[A5]
0000045C  7175                     moveq.l    D0, 0x75
0000045E  6970                     bvs        +0x72 /* 000004D0 */
00000460  6D65                     blt        +0x67 /* 000004C7 */
00000462  6E74                     bgt        +0x76 /* 000004D8 */
00000464  2069 7320                movea.l    A0, [A1 + 0x7320]
00000468  6F70                     ble        +0x72 /* 000004DA */
0000046A  6572                     bcs        +0x74 /* 000004DE */
0000046C  6174                     bsr        +0x76 /* 000004E2 */
label0000046E:
0000046E  696E                     bvs        +0x70 /* 000004DE */
00000470  6720                     beq        +0x22 /* 00000492 */
00000472  696E                     bvs        +0x70 /* 000004E2 */
label00000474:
00000474  2069 742E                movea.l    A0, [A1 + 0x742E]
00000478  0065 7665                ori.w      -[A5], 0x7665 /* 've' */
0000047C  6E74                     bgt        +0x76 /* 000004F2 */
0000047E  732E                     moveq.l    D1, 0x2E
00000480  6461                     bcc        +0x63 /* 000004E3 */
00000482  7410                     moveq.l    D2, 0x10
00000484  6065                     bra        +0x67 /* 000004EB */
00000486  7870                     moveq.l    D4, 0x70
00000488  6C6F                     bge        +0x71 /* 000004F9 */
label0000048A:
0000048A  6465                     bcc        +0x67 /* 000004F1 */
label0000048C:
0000048C  2E76 6F63 0065 7870 6C6F movea.l    A7, [[A6 + 0x65] + 0x78706C6F]
// begin alternate branch 00000490-00000494
label00000490:
00000490  0065 7870                ori.w      -[A5], 0x7870 /* 'xp' */
// end alternate branch 00000490-00000494
// begin alternate branch 00000492-00000496
label00000492:
00000492  7870                     moveq.l    D4, 0x70
00000494  6C6F                     bge        +0x71 /* 00000505 */
// end alternate branch 00000492-00000496
label00000490: // (misaligned)
label00000492: // (misaligned)
fn00000496:
00000496  6465                     bcc        +0x67 /* 000004FD */
00000498  2E76 6F63 0065 7870 6C6F movea.l    A7, [[A6 + 0x65] + 0x78706C6F]
000004A2  6465                     bcc        +0x67 /* 00000509 */
000004A4  2E76 6F63 0065 7870 6C6F movea.l    A7, [[A6 + 0x65] + 0x78706C6F]
fn000004AE:
000004AE  6465                     bcc        +0x67 /* 00000515 */
000004B0  2E76 6F63 0063 6C69 636B movea.l    A7, [[A6 + 0x63] + 0x6C69636B]
// begin alternate branch 000004B4-000004B8
label000004B4:
000004B4  0063 6C69                ori.w      -[A3], 0x6C69 /* 'li' */
// end alternate branch 000004B4-000004B8
// begin alternate branch 000004B8-000004BA
label000004B8:
000004B8  636B                     bls        +0x6D /* 00000525 */
// end alternate branch 000004B8-000004BA
label000004B4: // (misaligned)
label000004B8: // (misaligned)
000004BA  2E76 6F63 0063 6C69 636B movea.l    A7, [[A6 + 0x63] + 0x6C69636B]
000004C4  2E76 6F63 0063 6C69 636B movea.l    A7, [[A6 + 0x63] + 0x6C69636B]
000004CE  2E76 6F63 0063 6C69 636B movea.l    A7, [[A6 + 0x63] + 0x6C69636B]
// begin alternate branch 000004D0-000004D8
label000004D0:
000004D0  6F63                     ble        +0x65 /* 00000535 */
000004D2  0063 6C69                ori.w      -[A3], 0x6C69 /* 'li' */
000004D6  636B                     bls        +0x6D /* 00000543 */
// end alternate branch 000004D0-000004D8
label000004D0: // (misaligned)
label000004D8:
000004D8  2E76 6F63 0075 686F 682E movea.l    A7, [[A6 + 0x75] + 0x686F682E]
// begin alternate branch 000004DA-000004E2
label000004DA:
000004DA  6F63                     ble        +0x65 /* 0000053F */
000004DC  0075 686F 682E           ori.w      [A5 + D6 + 0x2E], 0x686F /* 'ho' */
// end alternate branch 000004DA-000004E2
// begin alternate branch 000004DE-000004E2
label000004DE:
000004DE  686F                     bvc        +0x71 /* 0000054F */
000004E0  682E                     bvc        +0x30 /* 00000510 */
// end alternate branch 000004DE-000004E2
label000004DA: // (misaligned)
label000004DE: // (misaligned)
fn000004E2:
000004E2  766F                     moveq.l    D3, 0x6F
000004E4  6314                     bls        +0x16 /* 000004FA */
000004E6  7568                     moveq.l    D2, 0x68
000004E8  6F68                     ble        +0x6A /* 00000552 */
000004EA  2E76 6F63 1670 6C6F 7074 movea.l    A7, [[A6 + 0x1670] + 0x6C6F7074]
// begin alternate branch 000004F2-000004F4
label000004F2:
000004F2  7074                     moveq.l    D0, 0x74
// end alternate branch 000004F2-000004F4
label000004F2: // (misaligned)
000004F4  6F6F                     ble        +0x71 /* 00000565 */
000004F6  6C2E                     bge        +0x30 /* 00000526 */
000004F8  766F                     moveq.l    D3, 0x6F
label000004FA:
000004FA  6300 0307                bls        +0x309 /* 00000803 */
000004FE  0100                     btst       D0, D0
00000500  0200 1505                andi.b     D0, 0x5
00000504  0300                     btst       D0, D1
00000506  0400 0100                subi.b     D0, 0x0
0000050A  0500                     btst       D0, D2
0000050C  0100                     btst       D0, D0
0000050E  0600 0700                addi.b     D0, 0x0
// begin alternate branch 00000510-00000512
label00000510:
00000510  0700                     btst       D0, D3
// end alternate branch 00000510-00000512
label00000510: // (misaligned)
00000512  0800 0900                btst.b     D0, 0x0
00000516  0A01 2414                xori.b     D1, 0x14
0000051A  7568                     moveq.l    D2, 0x68
0000051C  6F68                     ble        +0x6A /* 00000586 */
0000051E  2E76 6F63 102E 2D43 616E movea.l    A7, [[A6 + 0x102E] + 0x2D43616E]
// begin alternate branch 00000526-00000528
label00000526:
00000526  616E                     bsr        +0x70 /* 00000596 */
// end alternate branch 00000526-00000528
label00000526: // (misaligned)
00000528  2774 206F 7065           move.l     [A3 + 0x7065], [A4 + D2.w + 0x6F]
0000052E  6E20                     bgt        +0x22 /* 00000550 */
00000530  6869                     bvc        +0x6B /* 0000059B */
00000532  7374                     moveq.l    D1, 0x74
00000534  6F72                     ble        +0x74 /* 000005A8 */
00000536  7920                     moveq.l    D4, 0x20
00000538  6669                     bne        +0x6B /* 000005A3 */
0000053A  6C65                     bge        +0x67 /* 000005A1 */
0000053C  2069 6E20                movea.l    A0, [A1 + 0x6E20]
00000540  7772                     moveq.l    D3, 0x72
00000542  6974                     bvs        +0x76 /* 000005B8 */
00000544  655F                     bcs        +0x61 /* 000005A5 */
00000546  7363                     moveq.l    D1, 0x63
00000548  6865                     bvc        +0x67 /* 000005AF */
0000054A  645F                     bcc        +0x61 /* 000005AB */
0000054C  6669                     bne        +0x6B /* 000005B7 */
0000054E  656C                     bcs        +0x6E /* 000005BC */
label00000550:
00000550  6421                     bcc        +0x23 /* 00000573 */
label00000552:
00000552  1D0C                     move.b     -[A6], A4
00000554  716D                     moveq.l    D0, 0x6D
00000556  6573                     bcs        +0x75 /* 000005CB */
00000558  7361                     moveq.l    D1, 0x61
0000055A  6765                     beq        +0x67 /* 000005C1 */
0000055C  2E64                     movea.l    A7, -[A4]
0000055E  6174                     bsr        +0x76 /* 000005D4 */
00000560  000B 746F                ori.b      A3, 0x6F /* 'o' */
00000564  776E                     moveq.l    D3, 0x6E
00000566  6C79                     bge        +0x7B /* 000005E1 */
00000568  302E 636D                move.w     D0, [A6 + 0x636D]
0000056C  7010                     moveq.l    D0, 0x10
0000056E  2304                     move.l     -[A1], D4
00000570  7261                     moveq.l    D1, 0x61
00000572  696E                     bvs        +0x70 /* 000005E2 */
00000574  0004 2E64                ori.b      D4, 0x64 /* 'd' */
00000578  6174                     bsr        +0x76 /* 000005EE */
0000057A  0004 7769                ori.b      D4, 0x69 /* 'i' */
0000057E  6E64                     bgt        +0x66 /* 000005E4 */
00000580  0004 2E64                ori.b      D4, 0x64 /* 'd' */
00000584  6174                     bsr        +0x76 /* 000005FA */
label00000586:
00000586  0004 7465                ori.b      D4, 0x65 /* 'e' */
0000058A  6D70                     blt        +0x72 /* 000005FC */
0000058C  0004 2E64                ori.b      D4, 0x64 /* 'd' */
00000590  6174                     bsr        +0x76 /* 00000606 */
00000592  0001 9E7A                ori.b      D1, 0x7A /* 'z' */
fn00000596:
00000596  0300                     btst       D0, D1
00000598  0113                     btst       [A3], D0
0000059A  0F00                     btst       D0, D7
0000059C  010B                     btst       A3, D0
0000059E  0100                     btst       D0, D0
000005A0  0107                     btst       D7, D0
000005A2  F000 010F                pmovefd    D0, MR0
000005A6  3C00                     move.w     D6, D0
label000005A8:
000005A8  0107                     btst       D7, D0
000005AA  0F2E FFFD                btst       [A6 - 0x3], D7
000005AE  CE8E                     and.l      D7, A6
000005B0  FFFD                     .invalid   <<F/7/7>>
000005B2  CE88                     and.l      D7, A0
000005B4  FFFD                     .invalid   <<F/7/7>>
000005B6  CE80                     and.l      D7, D0
label000005B8:
000005B8  FFFD                     .invalid   <<F/7/7>>
000005BA  CE7A 426F                and.w      D7, [PC + 0x426F /* 0000482B, value 0x101 */]
// begin alternate branch 000005BC-000005C0
label000005BC:
000005BC  426F 6769                clr.w      [A7 + 0x6769]
// end alternate branch 000005BC-000005C0
label000005BC: // (misaligned)
000005BE  6769                     beq        +0x6B /* 00000629 */
000005C0  6500 5374                bcs        +0x5376 /* 00005936 */
000005C4  656C                     bcs        +0x6E /* 00000632 */
000005C6  6C61                     bge        +0x63 /* 00000629 */
000005C8  164D                     movea.b    A3, A5
000005CA  6973                     bvs        +0x75 /* 0000063F */
000005CC  7379                     moveq.l    D1, 0x79
000005CE  0052 6173                ori.w      [A2], 0x6173 /* 'as' */
000005D2  6361                     bls        +0x63 /* 00000635 */
fn000005D4:
000005D4  6C10                     bge        +0x12 /* 000005E6 */
000005D6  23FF FDCE B4FF           move.l     [0xFDCEB4FF], <<invalid special address>>
000005DC  FDCE                     .invalid   <<F/7/6>>
000005DE  B0FF                     cmpa.w     A0, <<invalid special address>>
000005E0  FDCE                     .invalid   <<F/7/6>>
label000005E2:
000005E2  ACFF                     syscall    GetFName/GetFontName, auto_pop
label000005E4:
000005E4  FDCE                     .invalid   <<F/7/6>>
label000005E6:
000005E6  A653                     syscall    0x053, flags=6
000005E8  6865                     bvc        +0x67 /* 0000064F */
000005EA  6570                     bcs        +0x72 /* 0000065C */
000005EC  0050 6967                ori.w      [A0], 0x6967 /* 'ig' */
// begin alternate branch 000005EE-000005F0
fn000005EE:
000005EE  6967                     bvs        +0x69 /* 00000657 */
// end alternate branch 000005EE-000005F0
fn000005EE: // (misaligned)
000005F0  0043 6F77                ori.w      D3, 0x6F77 /* 'ow' */
000005F4  0048 6F72                ori.w      A0, 0x6F72 /* 'or' */
000005F8  7365                     moveq.l    D1, 0x65
fn000005FA:
000005FA  040F 07C8                subi.b     A7, 0xC8
// begin alternate branch 000005FC-000005FE
label000005FC:
000005FC  07C8                     .incomplete
// end alternate branch 000005FC-000005FE
label000005FC: // (misaligned)
000005FE  0001 0001                ori.b      D1, 0x1
00000602  0001 0007                ori.b      D1, 0x7
fn00000606:
00000606  C0BC 0501 0001           and.l      D0, 0x5010001
0000060C  0020 0020                ori.b      -[A0], 0x20 /* ' ' */
00000610  0107                     btst       D7, D0
00000612  1E01                     move.b     D7, D1
00000614  0003 0580                ori.b      D3, 0x80
00000618  0008 028D                ori.b      A0, 0x8D
0000061C  5D05                     subq.b     D5, 6
0000061E  0001 2002                ori.b      D1, 0x2
00000622  0314                     btst       [A4], D1
00000624  0101                     btst       D1, D0
00000626  0102                     btst       D2, D0
00000628  0702                     btst       D2, D3
0000062A  0001 2100                ori.b      D1, 0x0
0000062E  0503                     btst       D3, D2
00000630  5001                     addq.b     D1, 8
label00000632:
00000632  0101                     btst       D1, D0
00000634  0132 3D00                btst       [A2 + <<invalid base displacement size>> + D3 * 4], D0
00000638  0122                     btst       -[A2], D0
0000063A  0005 03B4                ori.b      D5, 0xB4
0000063E  0101                     btst       D1, D0
00000640  0102                     btst       D2, D0
00000642  323E                     move.w     D1, <<invalid special address>>
00000644  0001 2300                ori.b      D1, 0x0
00000648  0503                     btst       D3, D2
0000064A  0A01 0101                xori.b     D1, 0x1
0000064E  0332 0100                btst       [A2 + <<invalid base displacement size>> + D0], D1
00000652  0124                     btst       -[A4], D0
00000654  0005 0301                ori.b      D5, 0x1
00000658  0101                     btst       D1, D0
0000065A  0104                     btst       D4, D0
label0000065C:
0000065C  3204                     move.w     D1, D4
0000065E  0001 2500                ori.b      D1, 0x0
00000662  0503                     btst       D3, D2
00000664  1E01                     move.b     D7, D1
00000666  0100                     btst       D0, D0
00000668  0532 0200                btst       [A2 + D0.w * 2], D2
0000066C  0126                     btst       -[A6], D0
0000066E  0005 0328                ori.b      D5, 0x28 /* '(' */
00000672  0101                     btst       D1, D0
00000674  0006 3246                ori.b      D6, 0x46 /* 'F' */
00000678  0001 2722                ori.b      D1, 0x22 /* '\"' */
0000067C  0303                     btst       D3, D1
0000067E  0007 3253                ori.b      D7, 0x53 /* 'S' */
00000682  0001 2800                ori.b      D1, 0x0
00000686  0503                     btst       D3, D2
00000688  1901                     move.b     -[A4], D1
0000068A  0100                     btst       D0, D0
0000068C  0832 4E00 0129 0005      btst.b     [[A2 + 0x5 + D0]], 0x0
00000694  0332 0101                btst       [[A2 + <<invalid base displacement size>> + D0]], D1
00000698  0009 327D                ori.b      A1, 0x7D /* '}' */
0000069C  0001 2A13                ori.b      D1, 0x13
000006A0  0398                     bclr       [A0]+, D1
000006A2  0101                     btst       D1, D0
000006A4  000A 324F                ori.b      A2, 0x4F /* 'O' */
000006A8  0001 2B00                ori.b      D1, 0x0
000006AC  0503                     btst       D3, D2
000006AE  0F01                     btst       D1, D7
000006B0  0100                     btst       D0, D0
000006B2  0B32 5100                btst       [A2 + <<invalid base displacement size>> + D5], D5
000006B6  012C 0005                btst       [A4 + 0x5], D0
000006BA  0364                     bchg       -[A4], D1
000006BC  0101                     btst       D1, D0
000006BE  000C 3280                ori.b      A4, 0x80
000006C2  0001 2D00                ori.b      D1, 0x0
000006C6  0503                     btst       D3, D2
000006C8  2801                     move.l     D4, D1
000006CA  0100                     btst       D0, D0
000006CC  0D32 FF00                btst       [A2 + <<invalid base displacement size>> + A7 * 8], D6
000006D0  012E 0005                btst       [A6 + 0x5], D0
000006D4  0378 0808                bchg       [0x00000808 /* JShieldCrsr */], D1
000006D8  000E 3250                ori.b      A6, 0x50 /* 'P' */
000006DC  0001 2F00                ori.b      D1, 0x0
000006E0  0503                     btst       D3, D2
000006E2  4B01                     .invalid   5, D1 // invalid opcode 4 with b == 4
000006E4  0101                     btst       D1, D0
000006E6  0F32 8100                btst       [A2 + <<invalid base displacement size>> + A0], D7
000006EA  0130 0005                btst       [A0 + D0.w + 0x5], D0
000006EE  0323                     btst       -[A3], D1
000006F0  0101                     btst       D1, D0
000006F2  010F                     btst       A7, D0
000006F4  3001                     move.w     D0, D1
000006F6  4A10                     tst.b      [A0]
000006F8  01DC                     .incomplete
000006FA  0005 03C8                ori.b      D5, 0xC8
000006FE  0101                     btst       D1, D0
00000700  0034 3001 4B10           ori.b      [A4 + D4 * 2], 0x1
00000706  01DD                     .incomplete
00000708  0005 03C8                ori.b      D5, 0xC8
0000070C  0101                     btst       D1, D0
0000070E  0035 3001 4C10           ori.b      [A5 + D4 * 4 + 0x10], 0x1
00000714  01DE                     .incomplete
00000716  0005 03C8                ori.b      D5, 0xC8
0000071A  0101                     btst       D1, D0
0000071C  0036 3001 4D10           ori.b      [A6 + D4 * 4], 0x1
00000722  01DF                     .incomplete
00000724  0005 03C8                ori.b      D5, 0xC8
00000728  0101                     btst       D1, D0
0000072A  0037 3001 5710           ori.b      [A7 + D5 * 8], 0x1
00000730  01C0                     .incomplete
00000732  0203 B401                andi.b     D3, 0x1
00000736  0104                     btst       D4, D0
00000738  0001 0758                ori.b      D1, 0x58 /* 'X' */
0000073C  1001                     move.b     D0, D1
0000073E  C100                     abcd       D0, D0
00000740  0503                     btst       D3, D2
00000742  B401                     cmp.b      D2, D1
00000744  0104                     btst       D4, D0
00000746  0130 0159                btst       [[A0]], D0
0000074A  1001                     move.b     D0, D1
0000074C  C200                     and.b      D1, D0
0000074E  0503                     btst       D3, D2
00000750  B401                     cmp.b      D2, D1
00000752  0104                     btst       D4, D0
00000754  0230 015A 1001           andi.b     [A0 + D1.w + 0x1], 0x5A /* 'Z' */
0000075A  C300                     abcd       D1, D0
0000075C  0503                     btst       D3, D2
0000075E  B401                     cmp.b      D2, D1
00000760  0104                     btst       D4, D0
00000762  0330 015B 1001 C400      btst       [[A0] + 0x1001C400], D1
0000076A  0503                     btst       D3, D2
0000076C  B401                     cmp.b      D2, D1
0000076E  0104                     btst       D4, D0
00000770  0430 015C 1001           subi.b     [A0 + D1.w + 0x1], 0x5C /* '\\' */
00000776  C500                     abcd       D2, D0
00000778  0503                     btst       D3, D2
0000077A  B401                     cmp.b      D2, D1
0000077C  0104                     btst       D4, D0
0000077E  0530 015D                btst       <<invalid full ext with IS == 1 and I/IS == 5>>, D2
00000782  1001                     move.b     D0, D1
00000784  C600                     and.b      D3, D0
00000786  0503                     btst       D3, D2
00000788  B401                     cmp.b      D2, D1
0000078A  0104                     btst       D4, D0
0000078C  0630 015E 1001           addi.b     [A0 + D1.w + 0x1], 0x5E /* '^' */
00000792  C700                     abcd       D3, D0
00000794  0503                     btst       D3, D2
00000796  B401                     cmp.b      D2, D1
00000798  0104                     btst       D4, D0
0000079A  0730 015F                btst       <<invalid full ext with IS == 1 and I/IS == 7>>, D3
0000079E  1001                     move.b     D0, D1
000007A0  C800                     and.b      D4, D0
000007A2  0503                     btst       D3, D2
000007A4  B401                     cmp.b      D2, D1
000007A6  0104                     btst       D4, D0
000007A8  0830 0160 1001           btst.b     [A0 + D1.w + 0x1], 0x60 /* '`' */
000007AE  C900                     abcd       D4, D0
000007B0  0503                     btst       D3, D2
000007B2  B401                     cmp.b      D2, D1
000007B4  0104                     btst       D4, D0
000007B6  0930 0161 1001           btst       [[A0 + 0x1001]], D4
000007BC  CA00                     and.b      D5, D0
000007BE  0503                     btst       D3, D2
000007C0  B401                     cmp.b      D2, D1
000007C2  0104                     btst       D4, D0
000007C4  0A30 0162 1001           xori.b     [A0 + D1.w + 0x1], 0x62 /* 'b' */
000007CA  CB00                     abcd       D5, D0
000007CC  0503                     btst       D3, D2
000007CE  B401                     cmp.b      D2, D1
000007D0  0104                     btst       D4, D0
000007D2  0B30 0163 1001 CC00 0503 btst       [[A0 + 0x1001] - 0x33FFFAFD], D5
000007DC  B401                     cmp.b      D2, D1
000007DE  0104                     btst       D4, D0
000007E0  0C30 0164 1001           cmpi.b     [A0 + D1.w + 0x1], 0x64 /* 'd' */
000007E6  CD00                     abcd       D6, D0
000007E8  0503                     btst       D3, D2
000007EA  B401                     cmp.b      D2, D1
000007EC  0104                     btst       D4, D0
000007EE  0D30 0165                btst       <<invalid full ext with IS == 1 and I/IS == 5>>, D6
000007F2  1001                     move.b     D0, D1
000007F4  CE00                     and.b      D7, D0
000007F6  0503                     btst       D3, D2
000007F8  B401                     cmp.b      D2, D1
000007FA  0104                     btst       D4, D0
000007FC  0E30 0166 1001           .invalid.b [A0 + D1.w + 0x1], 0x66 /* 'f' */ // invalid immediate operation
00000802  CF00                     abcd       D7, D0
00000804  0503                     btst       D3, D2
00000806  B401                     cmp.b      D2, D1
00000808  0104                     btst       D4, D0
0000080A  0F30 016D                btst       <<invalid full ext with IS == 1 and I/IS == 5>>, D7
0000080E  1001                     move.b     D0, D1
00000810  A802                     syscall    SndAddModifier
00000812  03B4 0101                bclr       [[A4 + <<invalid base displacement size>> + D0]], D1
00000816  0400 0107                subi.b     D0, 0x7
0000081A  6E10                     bgt        +0x12 /* 0000082C */
0000081C  01A9 0005                bclr       [A1 + 0x5], D0
00000820  03B4 0101                bclr       [[A4 + <<invalid base displacement size>> + D0]], D1
00000824  0401 3001                subi.b     D1, 0x1
00000828  6F10                     ble        +0x12 /* 0000083A */
0000082A  01AA 0005                bclr       [A2 + 0x5], D0
// begin alternate branch 0000082C-00000832
label0000082C:
0000082C  0005 03B4                ori.b      D5, 0xB4
00000830  0101                     btst       D1, D0
// end alternate branch 0000082C-00000832
label0000082C: // (misaligned)
0000082E  03B4 0101                bclr       [[A4 + <<invalid base displacement size>> + D0]], D1
00000832  0402 3001                subi.b     D2, 0x1
00000836  7010                     moveq.l    D0, 0x10
00000838  01AB 0005                bclr       [A3 + 0x5], D0
// begin alternate branch 0000083A-00000840
label0000083A:
0000083A  0005 03B4                ori.b      D5, 0xB4
0000083E  0101                     btst       D1, D0
// end alternate branch 0000083A-00000840
label0000083A: // (misaligned)
0000083C  03B4 0101                bclr       [[A4 + <<invalid base displacement size>> + D0]], D1
00000840  0403 3001                subi.b     D3, 0x1
00000844  7110                     moveq.l    D0, 0x10
00000846  01AC 0005                bclr       [A4 + 0x5], D0
0000084A  03B4 0101                bclr       [[A4 + <<invalid base displacement size>> + D0]], D1
0000084E  0404 3001                subi.b     D4, 0x1
00000852  7210                     moveq.l    D1, 0x10
00000854  01AD 0005                bclr       [A5 + 0x5], D0
00000858  03B4 0101                bclr       [[A4 + <<invalid base displacement size>> + D0]], D1
0000085C  0405 3001                subi.b     D5, 0x1
00000860  7310                     moveq.l    D1, 0x10
00000862  01AE 0005                bclr       [A6 + 0x5], D0
00000866  03B4 0101                bclr       [[A4 + <<invalid base displacement size>> + D0]], D1
0000086A  0406 3001                subi.b     D6, 0x1
0000086E  7410                     moveq.l    D2, 0x10
00000870  01AF 0005                bclr       [A7 + 0x5], D0
00000874  03B4 0101                bclr       [[A4 + <<invalid base displacement size>> + D0]], D1
00000878  0407 3001                subi.b     D7, 0x1
0000087C  7510                     moveq.l    D2, 0x10
0000087E  01B0 0005                bclr       [A0 + D0.w + 0x5], D0
00000882  03B4 0101                bclr       [[A4 + <<invalid base displacement size>> + D0]], D1
00000886  0408 3001                subi.b     A0, 0x1
0000088A  7610                     moveq.l    D3, 0x10
0000088C  01B1 0005                bclr       [A1 + D0.w + 0x5], D0
00000890  03B4 0101                bclr       [[A4 + <<invalid base displacement size>> + D0]], D1
00000894  0409 3001                subi.b     A1, 0x1
00000898  7710                     moveq.l    D3, 0x10
0000089A  01B2 0005                bclr       [A2 + D0.w + 0x5], D0
0000089E  03B4 0101                bclr       [[A4 + <<invalid base displacement size>> + D0]], D1
000008A2  040A 3001                subi.b     A2, 0x1
000008A6  7810                     moveq.l    D4, 0x10
000008A8  01B3 0005                bclr       [A3 + D0.w + 0x5], D0
000008AC  03B4 0101                bclr       [[A4 + <<invalid base displacement size>> + D0]], D1
000008B0  040B 3001                subi.b     A3, 0x1
000008B4  7910                     moveq.l    D4, 0x10
000008B6  01B4 0005                bclr       [A4 + D0.w + 0x5], D0
000008BA  03B4 0101                bclr       [[A4 + <<invalid base displacement size>> + D0]], D1
000008BE  040C 3001                subi.b     A4, 0x1
000008C2  7A10                     moveq.l    D5, 0x10
000008C4  01B5 0005                bclr       [A5 + D0.w + 0x5], D0
000008C8  03B4 0101                bclr       [[A4 + <<invalid base displacement size>> + D0]], D1
000008CC  040D 3001                subi.b     A5, 0x1
000008D0  7B10                     moveq.l    D5, 0x10
000008D2  01B6 0005                bclr       [A6 + D0.w + 0x5], D0
000008D6  03B4 0101                bclr       [[A4 + <<invalid base displacement size>> + D0]], D1
000008DA  040E 3001                subi.b     A6, 0x1
000008DE  7C10                     moveq.l    D6, 0x10
000008E0  01B7 0005                bclr       [A7 + D0.w + 0x5], D0
000008E4  03B4 0101                bclr       [[A4 + <<invalid base displacement size>> + D0]], D1
000008E8  040F 3001                subi.b     A7, 0x1
000008EC  2510                     move.l     -[A2], [A0]
000008EE  01A0                     bclr       -[A0], D0
000008F0  1303                     move.b     -[A1], D3
000008F2  7001                     moveq.l    D0, 0x01
000008F4  0104                     btst       D4, D0
000008F6  1E30 0122 1001 A113      move.b     D7, [[A0 + 0x1001 + D0] - 0x5EED]
000008FE  01E0                     .incomplete
00000900  0101                     btst       D1, D0
00000902  0420 3001                subi.b     -[A0], 0x1
00000906  2310                     move.l     -[A1], [A0]
00000908  01A2                     bclr       -[A2], D0
0000090A  1301                     move.b     -[A1], D1
0000090C  7C01                     moveq.l    D6, 0x01
0000090E  0104                     btst       D4, D0
00000910  1C30 0124                move.b     D6, <<invalid full ext with I/IS == 4>>
00000914  1001                     move.b     D0, D1
00000916  A300                     syscall    Open/PBHOpen/HOpen, flags=3
00000918  0503                     btst       D3, D2
0000091A  B401                     cmp.b      D2, D1
0000091C  0104                     btst       D4, D0
0000091E  1A30 0124                move.b     D5, <<invalid full ext with I/IS == 4>>
00000922  1001                     move.b     D0, D1
00000924  A313                     syscall    FlushVol, flags=3
00000926  0884 0101                bclr.b     D4, 0x1
0000092A  041E 3001                subi.b     [A6]+, 0x1
0000092E  4910                     .invalid   4, [A0] // invalid opcode 4 with b == 4
00000930  0180                     bclr       D0, D0
00000932  0003 03B4                ori.b      D3, 0xB4
00000936  0202 4001                andi.b     D2, 0x1
0000093A  4910                     .invalid   4, [A0] // invalid opcode 4 with b == 4
0000093C  0181                     bclr       D1, D0
0000093E  00F0                     .incomplete
00000940  0102                     btst       D2, D0
00000942  03B4 0130 0149 1001      bclr       [A4 + 0x1491001 + D0], D1
0000094A  8200                     or.b       D1, D0
0000094C  F001 0203                pmove      MR0, D1
00000950  B402                     cmp.b      D2, D2
00000952  3001                     move.w     D0, D1
00000954  4910                     .invalid   4, [A0] // invalid opcode 4 with b == 4
00000956  0183                     bclr       D3, D0
00000958  00F0                     .incomplete
0000095A  0102                     btst       D2, D0
0000095C  03B4 0330 0149 1001      bclr       [A4 + 0x1491001 + D0 * 2], D1
00000964  8400                     or.b       D2, D0
00000966  F001 0203                pmove      MR0, D1
0000096A  B404                     cmp.b      D2, D4
0000096C  3001                     move.w     D0, D1
0000096E  4910                     .invalid   4, [A0] // invalid opcode 4 with b == 4
00000970  0185                     bclr       D5, D0
00000972  00F0                     .incomplete
00000974  0102                     btst       D2, D0
00000976  03B4 0530 0149 1001      bclr       [A4 + 0x1491001 + D0 * 4], D1
0000097E  8600                     or.b       D3, D0
00000980  F001 0203                pmove      MR0, D1
00000984  B406                     cmp.b      D2, D6
00000986  3001                     move.w     D0, D1
00000988  4910                     .invalid   4, [A0] // invalid opcode 4 with b == 4
0000098A  0187                     bclr       D7, D0
0000098C  00F0                     .incomplete
0000098E  0102                     btst       D2, D0
00000990  03B4 0730 0149 1001      bclr       [A4 + 0x1491001 + D0 * 8], D1
00000998  8800                     or.b       D4, D0
0000099A  F001 0203                pmove      MR0, D1
0000099E  B408                     cmp.b      D2, A0
000009A0  3001                     move.w     D0, D1
000009A2  4910                     .invalid   4, [A0] // invalid opcode 4 with b == 4
000009A4  0189                     bclr       A1, D0
000009A6  00F0                     .incomplete
000009A8  0102                     btst       D2, D0
000009AA  03B4 0930 0149 1001      bclr       [A4 + 0x1491001 + D0], D1
000009B2  8A00                     or.b       D5, D0
000009B4  F001 0203                pmove      MR0, D1
000009B8  B40A                     cmp.b      D2, A2
000009BA  3001                     move.w     D0, D1
000009BC  4910                     .invalid   4, [A0] // invalid opcode 4 with b == 4
000009BE  018B                     bclr       A3, D0
000009C0  00F0                     .incomplete
000009C2  0102                     btst       D2, D0
000009C4  03B4 0B30 0149 1001      bclr       [A4 + 0x1491001 + D0 * 2], D1
000009CC  8C00                     or.b       D6, D0
000009CE  F001 0203                pmove      MR0, D1
000009D2  B40C                     cmp.b      D2, A4
000009D4  3001                     move.w     D0, D1
000009D6  4910                     .invalid   4, [A0] // invalid opcode 4 with b == 4
000009D8  018D                     bclr       A5, D0
000009DA  00F0                     .incomplete
000009DC  0102                     btst       D2, D0
000009DE  03B4 0D30 0149 1001      bclr       [A4 + 0x1491001 + D0 * 4], D1
000009E6  8E00                     or.b       D7, D0
000009E8  F001 0203                pmove      MR0, D1
000009EC  B40E                     cmp.b      D2, A6
000009EE  3001                     move.w     D0, D1
000009F0  4910                     .invalid   4, [A0] // invalid opcode 4 with b == 4
000009F2  018F                     bclr       A7, D0
000009F4  00F0                     .incomplete
000009F6  0102                     btst       D2, D0
000009F8  03B4 0F30 0149 1001      bclr       [A4 + 0x1491001 + D0 * 8], D1
00000A00  9000                     sub.b      D0, D0
00000A02  F001 0203                pmove      MR0, D1
00000A06  B410                     cmp.b      D2, [A0]
00000A08  3001                     move.w     D0, D1
00000A0A  4910                     .invalid   4, [A0] // invalid opcode 4 with b == 4
00000A0C  0191                     bclr       [A1], D0
00000A0E  00F0                     .incomplete
00000A10  0102                     btst       D2, D0
00000A12  03B4 1130 0149 1001      bclr       [A4 + 0x1491001 + D1], D1
00000A1A  9200                     sub.b      D1, D0
00000A1C  F001 0203                pmove      MR0, D1
00000A20  B412                     cmp.b      D2, [A2]
00000A22  3001                     move.w     D0, D1
00000A24  4910                     .invalid   4, [A0] // invalid opcode 4 with b == 4
00000A26  0193                     bclr       [A3], D0
00000A28  00F0                     .incomplete
00000A2A  0102                     btst       D2, D0
00000A2C  03B4 1330 0149 1001      bclr       [A4 + 0x1491001 + D1 * 2], D1
00000A34  9800                     sub.b      D4, D0
00000A36  F001 0203                pmove      MR0, D1
00000A3A  B410                     cmp.b      D2, [A0]
00000A3C  3001                     move.w     D0, D1
00000A3E  4910                     .invalid   4, [A0] // invalid opcode 4 with b == 4
00000A40  0199                     bclr       [A1]+, D0
00000A42  00F0                     .incomplete
00000A44  0102                     btst       D2, D0
00000A46  03B4 1130 0149 1001      bclr       [A4 + 0x1491001 + D1], D1
00000A4E  9A00                     sub.b      D5, D0
00000A50  F001 0203                pmove      MR0, D1
00000A54  B412                     cmp.b      D2, [A2]
00000A56  3001                     move.w     D0, D1
00000A58  4910                     .invalid   4, [A0] // invalid opcode 4 with b == 4
00000A5A  019B                     bclr       [A3]+, D0
00000A5C  00F0                     .incomplete
00000A5E  0102                     btst       D2, D0
00000A60  03B4 1330 0106 1001      bclr       [A4 + 0x1061001 + D1 * 2], D1
00000A68  4013                     negx.b     [A3]
00000A6A  0320                     btst       -[A0], D1
00000A6C  0101                     btst       D1, D0
00000A6E  002A 3001 0710           ori.b      [A2 + 0x710], 0x1
00000A74  0141                     bchg       D1, D0
00000A76  1309                     move.b     -[A1], A1
00000A78  6002                     bra        +0x4 /* 00000A7C */
00000A7A  0200 2A30                andi.b     D0, 0x30 /* '0' */
// begin alternate branch 00000A7C-00000A80
label00000A7C:
00000A7C  2A30 0108                move.l     D5, [A0 + <<invalid base displacement size>> + D0]
// end alternate branch 00000A7C-00000A80
label00000A7C: // (misaligned)
00000A7E  0108                     btst       A0, D0
00000A80  1001                     move.b     D0, D1
00000A82  4213                     clr.b      [A3]
00000A84  04B0 0302 002B 3001      subi.l     [A0 + D3.w + 0x1], 0x302002B
00000A8C  0910                     btst       [A0], D4
00000A8E  0143                     bchg       D3, D0
00000A90  1305                     move.b     -[A1], D5
00000A92  A003                     syscall    Write
00000A94  0300                     btst       D0, D1
00000A96  2B30 010A 1001           move.l     -[A5], [[A0 + <<invalid base displacement size>> + D0] + 0x1001]
00000A9C  4413                     neg.b      [A3]
00000A9E  08CA 0303                bset.b     A2, 0x3
00000AA2  002C 3001 0B10           ori.b      [A4 + 0xB10], 0x1
00000AA8  0145                     bchg       D5, D0
00000AAA  1309                     move.b     -[A1], A1
00000AAC  D804                     add.b      D4, D4
00000AAE  0300                     btst       D0, D1
00000AB0  2C30 013D 1001 4613      move.l     D6, [[A0 + 0x10014613] + D0]
00000AB8  03E8                     .incomplete
00000ABA  0101                     btst       D1, D0
00000ABC  0033 3001 6810           ori.b      [A3 + D6 + 0x10], 0x1
00000AC2  0147                     bchg       D7, D0
00000AC4  1307                     move.b     -[A1], D7
00000AC6  D002                     add.b      D0, D2
00000AC8  0200 2D30                andi.b     D0, 0x30 /* '0' */
00000ACC  0167                     bchg       -[A7], D0
00000ACE  1001                     move.b     D0, D1
00000AD0  4800                     nbcd.b     D0
00000AD2  0503                     btst       D3, D2
00000AD4  C801                     and.b      D4, D1
00000AD6  0100                     btst       D0, D0
00000AD8  3230 0128 0007           move.w     D1, [A0 + 0x7 + D0]
00000ADE  0501                     btst       D1, D2
00000AE0  9001                     sub.b      D0, D1
00000AE2  0101                     btst       D1, D0
00000AE4  2201                     move.l     D1, D1
00000AE6  0001 052A                ori.b      D1, 0x2A /* '*' */
00000AEA  1001                     move.b     D0, D1
00000AEC  0103                     btst       D3, D0
00000AEE  03C8                     .incomplete
00000AF0  0101                     btst       D1, D0
00000AF2  0123                     btst       -[A3], D0
00000AF4  0400 0105                subi.b     D0, 0x5
00000AF8  2C10                     move.l     D6, [A0]
00000AFA  0102                     btst       D2, D0
00000AFC  0303                     btst       D3, D1
00000AFE  C801                     and.b      D4, D1
00000B00  0101                     btst       D1, D0
00000B02  240C                     move.l     D2, A4
00000B04  0001 0532                ori.b      D1, 0x32 /* '2' */
00000B08  1001                     move.b     D0, D1
00000B0A  0303                     btst       D3, D1
00000B0C  03C8                     .incomplete
00000B0E  0101                     btst       D1, D0
00000B10  0225 0C00                andi.b     -[A5], 0x0
00000B14  0105                     btst       D5, D0
00000B16  3410                     move.w     D2, [A0]
00000B18  0104                     btst       D4, D0
00000B1A  1007                     move.b     D0, D7
00000B1C  0190                     bclr       [A0], D0
00000B1E  0102                     btst       D2, D0
00000B20  0126                     btst       -[A6], D0
00000B22  0100                     btst       D0, D0
00000B24  0105                     btst       D5, D0
00000B26  3610                     move.w     D3, [A0]
00000B28  0105                     btst       D5, D0
00000B2A  0303                     btst       D3, D1
00000B2C  C801                     and.b      D4, D1
00000B2E  0202 270C                andi.b     D2, 0xC
00000B32  0001 0547                ori.b      D1, 0x47 /* 'G' */
00000B36  1001                     move.b     D0, D1
00000B38  0603 03FA                addi.b     D3, 0xFA
00000B3C  0101                     btst       D1, D0
00000B3E  0128 0900                btst       [A0 + 0x900], D0
00000B42  0105                     btst       D5, D0
00000B44  4810                     nbcd.b     [A0]
00000B46  0107                     btst       D7, D0
00000B48  1007                     move.b     D0, D7
00000B4A  01F4                     .incomplete
00000B4C  0102                     btst       D2, D0
00000B4E  0228 0900 0105           andi.b     [A0 + 0x105], 0x0
00000B54  5210                     addq.b     [A0], 1
00000B56  0108                     btst       A0, D0
00000B58  1317                     move.b     -[A1], [A7]
00000B5A  7002                     moveq.l    D0, 0x02
00000B5C  0204 2900                andi.b     D4, 0x0
00000B60  0F3F                     btst       <<invalid special address>>, D7
00000B62  FF01                     .extension 0xF01 <<F/4-5/7>> // unimplemented
00000B64  FF01                     .extension 0xF01 <<F/4-5/7>> // unimplemented
00000B66  0001 0100                ori.b      D1, 0x0
00000B6A  01FF                     .incomplete
00000B6C  01FF                     .incomplete
00000B6E  00FF                     .incomplete
00000B70  FF01                     .extension 0xF01 <<F/4-5/7>> // unimplemented
00000B72  9CC8                     sub.w      A6, A0
00000B74  0124                     btst       -[A4], D0
00000B76  1475 686F                movea.b    A2, [A5 + D6 + 0x6F]
00000B7A  682E                     bvc        +0x30 /* 00000BAA */
00000B7C  766F                     moveq.l    D3, 0x6F
00000B7E  6316                     bls        +0x18 /* 00000B96 */
00000B80  706C                     moveq.l    D0, 0x6C
00000B82  6F70                     ble        +0x72 /* 00000BF4 */
00000B84  6974                     bvs        +0x76 /* 00000BFA */
00000B86  656D                     bcs        +0x6F /* 00000BF5 */
00000B88  2E76 6F63 10F0 0802 7568 movea.l    A7, [[A6 + 0x10F0] + 0x8027568]
00000B92  6F68                     ble        +0x6A /* 00000BFC */
00000B94  2E76 6F63 7568 6F68 2E76 movea.l    A7, [[A6 + 0x7568] + 0x6F682E76]
// begin alternate branch 00000B96-00000BA6
label00000B96:
00000B96  6F63                     ble        +0x65 /* 00000BFB */
00000B98  7568                     moveq.l    D2, 0x68
00000B9A  6F68                     ble        +0x6A /* 00000C04 */
00000B9C  2E76 6F63 1067 6578 706C movea.l    A7, [[A6 + 0x1067] + 0x6578706C]
// end alternate branch 00000B96-00000BA6
label00000B96: // (misaligned)
00000B9E  6F63                     ble        +0x65 /* 00000C03 */
00000BA0  1067                     movea.b    A0, -[A7]
00000BA2  6578                     bcs        +0x7A /* 00000C1C */
00000BA4  706C                     moveq.l    D0, 0x6C
00000BA6  6F64                     ble        +0x66 /* 00000C0C */
00000BA8  652E                     bcs        +0x30 /* 00000BD8 */
label00000BAA:
00000BAA  766F                     moveq.l    D3, 0x6F
00000BAC  6300 596F                bls        +0x5971 /* 0000651D */
00000BB0  7520                     moveq.l    D2, 0x20
00000BB2  6861                     bvc        +0x63 /* 00000C15 */
00000BB4  7665                     moveq.l    D3, 0x65
00000BB6  2068 6164                movea.l    A0, [A0 + 0x6164]
00000BBA  2074 6F20 7365           movea.l    A0, [A4 + 0x7365 + D6 * 8]
00000BC0  6C6C                     bge        +0x6E /* 00000C2E */
00000BC2  2079 6F75 7220           movea.l    A0, [0x6F757220]
00000BC8  686F                     bvc        +0x71 /* 00000C39 */
00000BCA  6D65                     blt        +0x67 /* 00000C31 */
00000BCC  7374                     moveq.l    D1, 0x74
00000BCE  6561                     bcs        +0x63 /* 00000C31 */
00000BD0  6420                     bcc        +0x22 /* 00000BF2 */
00000BD2  746F                     moveq.l    D2, 0x6F
00000BD4  2070 6179 2079 6F75      movea.l    A0, [[A0 + 0x20796F75]]
// begin alternate branch 00000BD8-00000BDE
label00000BD8:
00000BD8  2079 6F75 7220           movea.l    A0, [0x6F757220]
// end alternate branch 00000BD8-00000BDE
label00000BD8: // (misaligned)
00000BDC  7220                     moveq.l    D1, 0x20
00000BDE  6465                     bcc        +0x67 /* 00000C45 */
00000BE0  6274                     bhi        +0x76 /* 00000C56 */
00000BE2  732E                     moveq.l    D1, 0x2E
00000BE4  2020                     move.l     D0, -[A0]
00000BE6  576F 756C                subq.w     [A7 + 0x756C], 3
00000BEA  6420                     bcc        +0x22 /* 00000C0C */
00000BEC  796F                     moveq.l    D4, 0x6F
00000BEE  7520                     moveq.l    D2, 0x20
00000BF0  6C69                     bge        +0x6B /* 00000C5B */
label00000BF2:
00000BF2  6B65                     bmi        +0x67 /* 00000C59 */
label00000BF4:
00000BF4  2074 6F20 7374           movea.l    A0, [A4 + 0x7374 + D6 * 8]
label00000BFA:
00000BFA  6172                     bsr        +0x74 /* 00000C6E */
label00000BFC:
00000BFC  7420                     moveq.l    D2, 0x20
00000BFE  6120                     bsr        +0x22 /* 00000C20 */
00000C00  6E65                     bgt        +0x67 /* 00000C67 */
00000C02  7720                     moveq.l    D3, 0x20
label00000C04:
00000C04  6761                     beq        +0x63 /* 00000C67 */
00000C06  6D65                     blt        +0x67 /* 00000C6D */
00000C08  3F01                     move.w     -[A7], D1
00000C0A  7F4E                     moveq.l    D7, 0x4E
label00000C0C:
00000C0C  2055                     movea.l    A0, [A5]
00000C0E  0964                     bchg       -[A4], D4
00000C10  6661                     bne        +0x63 /* 00000C73 */
00000C12  726D                     moveq.l    D1, 0x6D
00000C14  2E6D 6964                movea.l    A7, [A5 + 0x6964]
00000C18  1509                     move.b     -[A2], A1
00000C1A  6666                     bne        +0x68 /* 00000C82 */
label00000C1C:
00000C1C  6172                     bsr        +0x74 /* 00000C90 */
00000C1E  6D2E                     blt        +0x30 /* 00000C4E */
fn00000C20:
00000C20  6D69                     blt        +0x6B /* 00000C8B */
00000C22  6414                     bcc        +0x16 /* 00000C38 */
00000C24  626F                     bhi        +0x71 /* 00000C95 */
00000C26  6F73                     ble        +0x75 /* 00000C9B */
00000C28  2E76 6F63 105E 596F 7572 movea.l    A7, [[A6 + 0x105E] + 0x596F7572]
// begin alternate branch 00000C2E-00000C32
label00000C2E:
00000C2E  596F 7572                subq.w     [A7 + 0x7572], 4
// end alternate branch 00000C2E-00000C32
label00000C2E: // (misaligned)
00000C32  2063                     movea.l    A0, -[A3]
00000C34  6173                     bsr        +0x75 /* 00000CA9 */
00000C36  6820                     bvc        +0x22 /* 00000C58 */
label00000C38:
00000C38  6F6E                     ble        +0x70 /* 00000CA8 */
00000C3A  2068 616E                movea.l    A0, [A0 + 0x616E]
00000C3E  6420                     bcc        +0x22 /* 00000C60 */
00000C40  6973                     bvs        +0x75 /* 00000CB5 */
00000C42  2064                     movea.l    A0, -[A4]
00000C44  726F                     moveq.l    D1, 0x6F
00000C46  7070                     moveq.l    D0, 0x70
00000C48  696E                     bvs        +0x70 /* 00000CB8 */
00000C4A  6720                     beq        +0x22 /* 00000C6C */
00000C4C  7261                     moveq.l    D1, 0x61
label00000C4E:
00000C4E  7069                     moveq.l    D0, 0x69
00000C50  646C                     bcc        +0x6E /* 00000CBE */
00000C52  7921                     moveq.l    D4, 0x21
00000C54  2048                     movea.l    A0, A0
label00000C56:
00000C56  6F6D                     ble        +0x6F /* 00000CC5 */
label00000C58:
00000C58  6520                     bcs        +0x22 /* 00000C7A */
00000C5A  696D                     bvs        +0x6F /* 00000CC9 */
00000C5C  7072                     moveq.l    D0, 0x72
00000C5E  6F76                     ble        +0x78 /* 00000CD6 */
label00000C60:
00000C60  656D                     bcs        +0x6F /* 00000CCF */
00000C62  656E                     bcs        +0x70 /* 00000CD2 */
00000C64  7473                     moveq.l    D2, 0x73
00000C66  2061                     movea.l    A0, -[A1]
00000C68  7265                     moveq.l    D1, 0x65
00000C6A  2067                     movea.l    A0, -[A7]
label00000C6C:
00000C6C  6F69                     ble        +0x6B /* 00000CD7 */
fn00000C6E:
00000C6E  6E67                     bgt        +0x69 /* 00000CD7 */
00000C70  2074 6F20 6861           movea.l    A0, [A4 + 0x6861 + D6 * 8]
00000C76  7665                     moveq.l    D3, 0x65
00000C78  2074 6F20 7761           movea.l    A0, [A4 + 0x7761 + D6 * 8]
// begin alternate branch 00000C7A-00000C7E
label00000C7A:
00000C7A  6F20                     ble        +0x22 /* 00000C9C */
00000C7C  7761                     moveq.l    D3, 0x61
// end alternate branch 00000C7A-00000C7E
label00000C7A: // (misaligned)
00000C7E  6974                     bvs        +0x76 /* 00000CF4 */
00000C80  2100                     move.l     -[A0], D0
label00000C82:
00000C82  6368                     bls        +0x6A /* 00000CEC */
00000C84  6565                     bcs        +0x67 /* 00000CEB */
00000C86  7273                     moveq.l    D1, 0x73
00000C88  2E76 6F63 1067 0A63 6F77 movea.l    A7, [[A6 + 0x1067] + 0xA636F77]
// begin alternate branch 00000C90-00000C92
fn00000C90:
00000C90  6F77                     ble        +0x79 /* 00000D09 */
// end alternate branch 00000C90-00000C92
fn00000C90: // (misaligned)
00000C92  6D61                     blt        +0x63 /* 00000CF5 */
00000C94  6E2E                     bgt        +0x30 /* 00000CC4 */
00000C96  6D69                     blt        +0x6B /* 00000D01 */
00000C98  6400 596F                bcc        +0x5971 /* 00006609 */
label00000C9C:
00000C9C  7520                     moveq.l    D2, 0x20
00000C9E  6172                     bsr        +0x74 /* 00000D12 */
00000CA0  6520                     bcs        +0x22 /* 00000CC2 */
00000CA2  646F                     bcc        +0x71 /* 00000D13 */
00000CA4  696E                     bvs        +0x70 /* 00000D14 */
00000CA6  6720                     beq        +0x22 /* 00000CC8 */
label00000CA8:
00000CA8  5645                     addq.w     D5, 3
00000CAA  5259                     addq.w     [A1]+, 1
00000CAC  2077 656C                movea.l    A0, <<invalid full ext with I/IS == 4>>
00000CB0  6C21                     bge        +0x23 /* 00000CD3 */
00000CB2  2059                     movea.l    A0, [A1]+
00000CB4  6F75                     ble        +0x77 /* 00000D2B */
00000CB6  7220                     moveq.l    D1, 0x20
label00000CB8:
00000CB8  6361                     bls        +0x63 /* 00000D1B */
00000CBA  7368                     moveq.l    D1, 0x68
00000CBC  206F 6E20                movea.l    A0, [A7 + 0x6E20]
// begin alternate branch 00000CBE-00000CC0
label00000CBE:
00000CBE  6E20                     bgt        +0x22 /* 00000CE0 */
// end alternate branch 00000CBE-00000CC0
label00000CBE: // (misaligned)
00000CC0  6861                     bvc        +0x63 /* 00000D23 */
label00000CC2:
00000CC2  6E64                     bgt        +0x66 /* 00000D28 */
label00000CC4:
00000CC4  2069 7320                movea.l    A0, [A1 + 0x7320]
label00000CC8:
00000CC8  7665                     moveq.l    D3, 0x65
00000CCA  7279                     moveq.l    D1, 0x79
00000CCC  2068 6967                movea.l    A0, [A0 + 0x6967]
00000CD0  682E                     bvc        +0x30 /* 00000D00 */
label00000CD2:
00000CD2  2048                     movea.l    A0, A0
00000CD4  6F6D                     ble        +0x6F /* 00000D43 */
label00000CD6:
00000CD6  6520                     bcs        +0x22 /* 00000CF8 */
00000CD8  696D                     bvs        +0x6F /* 00000D47 */
00000CDA  7072                     moveq.l    D0, 0x72
00000CDC  6F76                     ble        +0x78 /* 00000D54 */
00000CDE  656D                     bcs        +0x6F /* 00000D4D */
label00000CE0:
00000CE0  656E                     bcs        +0x70 /* 00000D50 */
00000CE2  7473                     moveq.l    D2, 0x73
00000CE4  2061                     movea.l    A0, -[A1]
00000CE6  7265                     moveq.l    D1, 0x65
00000CE8  2075 6E64                movea.l    A0, [A5 + D6 * 8 + 0x64]
label00000CEC:
00000CEC  6572                     bcs        +0x74 /* 00000D60 */
00000CEE  2077 6179 2100 FF00      movea.l    A0, [[A7 + 0x2100FF00]]
// begin alternate branch 00000CF4-00000CF6
label00000CF4:
00000CF4  FF00                     .extension 0xF00 <<F/4-5/7>> // unimplemented
// end alternate branch 00000CF4-00000CF6
label00000CF4: // (misaligned)
00000CF6  015B                     bchg       [A3]+, D0
label00000CF8:
00000CF8  0200 3A03                andi.b     D0, 0x3
00000CFC  0100                     btst       D0, D0
00000CFE  0100                     btst       D0, D0
label00000D00:
00000D00  0100                     btst       D0, D0
00000D02  0100                     btst       D0, D0
00000D04  0100                     btst       D0, D0
00000D06  0100                     btst       D0, D0
00000D08  5772 6F6E                subq.w     <<invalid full ext with IS == 1 and I/IS == 6>>, 3
00000D0C  6720                     beq        +0x22 /* 00000D2E */
00000D0E  4669 6C65                not.w      [A1 + 0x6C65]
fn00000D12:
00000D12  2046                     movea.l    A0, D6
label00000D14:
00000D14  6F72                     ble        +0x74 /* 00000D88 */
00000D16  6D61                     blt        +0x63 /* 00000D79 */
00000D18  742E                     moveq.l    D2, 0x2E
00000D1A  2020                     move.l     D0, -[A0]
00000D1C  596F 7520                subq.w     [A7 + 0x7520], 4
00000D20  6361                     bls        +0x63 /* 00000D83 */
00000D22  6E6E                     bgt        +0x70 /* 00000D92 */
00000D24  6F74                     ble        +0x76 /* 00000D9A */
00000D26  206C 6F61                movea.l    A0, [A4 + 0x6F61]
// begin alternate branch 00000D28-00000D2A
label00000D28:
00000D28  6F61                     ble        +0x63 /* 00000D8B */
// end alternate branch 00000D28-00000D2A
label00000D28: // (misaligned)
00000D2A  6420                     bcc        +0x22 /* 00000D4C */
00000D2C  7468                     moveq.l    D2, 0x68
label00000D2E:
00000D2E  6973                     bvs        +0x75 /* 00000DA3 */
00000D30  2066                     movea.l    A0, -[A6]
00000D32  696C                     bvs        +0x6E /* 00000DA0 */
00000D34  6521                     bcs        +0x23 /* 00000D57 */
00000D36  1305                     move.b     -[A1], D5
00000D38  5375 6761 7216           subq.w     [[A5 + 0x7216]], 1
00000D3E  0B53                     bchg       [A3], D5
00000D40  7567                     moveq.l    D2, 0x67
00000D42  6172                     bsr        +0x74 /* 00000DB6 */
00000D44  2042                     movea.l    A0, D2
00000D46  6565                     bcs        +0x67 /* 00000DAD */
00000D48  7473                     moveq.l    D2, 0x73
00000D4A  1F1D                     move.b     -[A7], [A5]+
label00000D4C:
00000D4C  436F 756C                chk.w      D1, [A7 + 0x756C]
label00000D50:
00000D50  646E                     bcc        +0x70 /* 00000DC0 */
00000D52  2774 206C 6F61           move.l     [A3 + 0x6F61], [A4 + D2.w + 0x6C]
// begin alternate branch 00000D54-00000D58
label00000D54:
00000D54  206C 6F61                movea.l    A0, [A4 + 0x6F61]
// end alternate branch 00000D54-00000D58
label00000D54: // (misaligned)
00000D58  6420                     bcc        +0x22 /* 00000D7A */
00000D5A  6372                     bls        +0x74 /* 00000DCE */
00000D5C  6F70                     ble        +0x72 /* 00000DCE */
00000D5E  2072 6573 6F75 7263 6... movea.l    A0, [[A2 + 0x6F757263] + 0x653A2013]
// begin alternate branch 00000D60-00000D6A
label00000D60:
00000D60  6573                     bcs        +0x75 /* 00000DD5 */
00000D62  6F75                     ble        +0x77 /* 00000DD9 */
00000D64  7263                     moveq.l    D1, 0x63
00000D66  653A                     bcs        +0x3C /* 00000DA2 */
00000D68  2013                     move.l     D0, [A3]
// end alternate branch 00000D60-00000D6A
label00000D60: // (misaligned)
00000D6A  0553                     bchg       [A3], D2
00000D6C  7567                     moveq.l    D2, 0x67
00000D6E  6172                     bsr        +0x74 /* 00000DE2 */
00000D70  160B                     move.b     D3, A3
00000D72  5375 6761 7220           subq.w     [[A5 + 0x7220]], 1
00000D78  4265                     clr.w      -[A5]
label00000D7A:
00000D7A  6574                     bcs        +0x76 /* 00000DF0 */
00000D7C  7317                     moveq.l    D1, 0x17
00000D7E  0233 3200 0233           andi.b     [A3 + D0.w * 2 + 0x33], 0x0
00000D84  3200                     move.w     D1, D0
00000D86  0220 6100                andi.b     -[A0], 0x0
// begin alternate branch 00000D88-00000D8C
label00000D88:
00000D88  6100 0162                bsr        +0x164 /* 00000EEC */
// end alternate branch 00000D88-00000D8C
label00000D88: // (misaligned)
00000D8A  0162                     bchg       -[A2], D0
00000D8C  1101                     move.b     -[A0], D1
00000D8E  6315                     bls        +0x17 /* 00000DA5 */
00000D90  0941                     bchg       D1, D4
label00000D92:
00000D92  4C4C 5449                divul.l    D1:D5, A4
00000D96  4C45 532E                divu.l     D6:D5, D5
label00000D9A:
00000D9A  100D                     move.b     D0, A5
00000D9C  0C69 7465 6D74           cmpi.w     [A1 + 0x6D74], 0x7465 /* 'te' */
// begin alternate branch 00000DA0-00000DA2
label00000DA0:
00000DA0  6D74                     blt        +0x76 /* 00000E16 */
// end alternate branch 00000DA0-00000DA2
label00000DA0: // (misaligned)
label00000DA2:
00000DA2  6578                     bcs        +0x7A /* 00000E1C */
00000DA4  742E                     moveq.l    D2, 0x2E
00000DA6  6461                     bcc        +0x63 /* 00000E09 */
00000DA8  7400                     moveq.l    D2, 0x00
00000DAA  3C81                     move.w     [A6], D1
00000DAC  9C08                     sub.b      D6, A0
00000DAE  0002 080B                ori.b      D2, 0xB
00000DB2  0306                     btst       D6, D1
00000DB4  0706                     btst       D6, D3
fn00000DB6:
00000DB6  0B08                     btst       A0, D5
00000DB8  0001 0103                ori.b      D1, 0x3
00000DBC  090B                     btst       A3, D4
00000DBE  0D0F                     btst       A7, D6
label00000DC0:
00000DC0  0100                     btst       D0, D0
00000DC2  0100                     btst       D0, D0
00000DC4  0200 5468                andi.b     D0, 0x68 /* 'h' */
00000DC8  6973                     bvs        +0x75 /* 00000E3D */
00000DCA  2063                     movea.l    A0, -[A3]
00000DCC  726F                     moveq.l    D1, 0x6F
label00000DCE:
00000DCE  7020                     moveq.l    D0, 0x20
00000DD0  6861                     bvc        +0x63 /* 00000E33 */
00000DD2  7320                     moveq.l    D1, 0x20
00000DD4  6120                     bsr        +0x22 /* 00000DF6 */
00000DD6  6669                     bne        +0x6B /* 00000E41 */
00000DD8  7865                     moveq.l    D4, 0x65
00000DDA  6420                     bcc        +0x22 /* 00000DFC */
00000DDC  6861                     bvc        +0x63 /* 00000E3F */
00000DDE  7276                     moveq.l    D1, 0x76
00000DE0  6573                     bcs        +0x75 /* 00000E55 */
fn00000DE2:
00000DE2  7420                     moveq.l    D2, 0x20
00000DE4  7765                     moveq.l    D3, 0x65
00000DE6  656B                     bcs        +0x6D /* 00000E53 */
00000DE8  2E0A                     move.l     D7, A2
00000DEA  81E5                     divs.w     D0, -[A5]
00000DEC  FFFE                     .invalid   <<F/7/7>>
00000DEE  C364                     and.w      -[A4], D1
label00000DF0:
00000DF0  FFFE                     .invalid   <<F/7/7>>
00000DF2  C35C                     and.w      [A4]+, D1
00000DF4  FFFE                     .invalid   <<F/7/7>>
fn00000DF6:
00000DF6  C354                     and.w      [A4], D1
00000DF8  FFFE                     .invalid   <<F/7/7>>
00000DFA  C34E                     exg        A1, A6
label00000DFC:
00000DFC  4661                     not.w      -[A1]
00000DFE  6C6C                     bge        +0x6E /* 00000E6C */
00000E00  10F0 0603                move.b     [A0]+, [A0 + D0.w * 8 + 0x3]
00000E04  5375 6D6D                subq.w     <<invalid full ext with IS == 1 and I/IS == 5>>, 1
00000E08  6572                     bcs        +0x74 /* 00000E7C */
00000E0A  5370 7269                subq.w     [A0 + D7.w * 2 + 0x69], 1
00000E0E  6E67                     bgt        +0x69 /* 00000E77 */
00000E10  5769 6E74                subq.w     [A1 + 0x6E74], 3
00000E14  6572                     bcs        +0x74 /* 00000E88 */
label00000E16:
00000E16  105F                     movea.b    A0, [A7]+
00000E18  FFFE                     .invalid   <<F/7/7>>
00000E1A  C3C8                     muls.w     D1, A0
label00000E1C:
00000E1C  FFFE                     .invalid   <<F/7/7>>
00000E1E  C3C4                     muls.w     D1, D4
00000E20  FFFE                     .invalid   <<F/7/7>>
00000E22  C3C0                     muls.w     D1, D0
00000E24  FFFE                     .invalid   <<F/7/7>>
00000E26  C3BC FFFE C3B8           and.l      0xFFFEC3B8, D1
00000E2C  FFFE                     .invalid   <<F/7/7>>
00000E2E  C3B4 FFFE                and.l      <<invalid full ext with IS == 1 and I/IS == 6>>, D1
00000E32  C3B0 FFFE                and.l      <<invalid full ext with IS == 1 and I/IS == 6>>, D1
00000E36  C3AC FFFE                and.l      [A4 - 0x2], D1
00000E3A  C3A8 FFFE                and.l      [A0 - 0x2], D1
00000E3E  C3A4                     and.l      -[A4], D1
00000E40  FFFE                     .invalid   <<F/7/7>>
00000E42  C3A0                     and.l      -[A0], D1
00000E44  FFFE                     .invalid   <<F/7/7>>
00000E46  C39C                     and.l      [A4]+, D1
00000E48  4465                     neg.w      -[A5]
00000E4A  6300 4E6F                bls        +0x4E71 /* 00005CBB */
00000E4E  7600                     moveq.l    D3, 0x00
00000E50  4F63                     chk.w      D7, -[A3]
00000E52  7400                     moveq.l    D2, 0x00
00000E54  5365                     subq.w     -[A5], 1
00000E56  7000                     moveq.l    D0, 0x00
00000E58  4175 6700                chk.w      D0, [A5 + <<invalid base displacement size>> + D6 * 8]
00000E5C  4A75 6C00                tst.w      [A5 + D6 * 4]
00000E60  4A75 6E00                tst.w      [A5 + D6 * 8]
00000E64  4D61                     chk.w      D6, -[A1]
00000E66  7900                     moveq.l    D4, 0x00
00000E68  4170 7200                chk.w      D0, [A0 + D7.w * 2]
label00000E6C:
00000E6C  4D61                     chk.w      D6, -[A1]
00000E6E  7200                     moveq.l    D1, 0x00
00000E70  4665                     not.w      -[A5]
00000E72  6200 4A61                bhi        +0x4A63 /* 000058D5 */
00000E76  6E00 018C                bgt        +0x18E /* 00001004 */
00000E7A  0701                     btst       D1, D3
label00000E7C:
00000E7C  0070 3D62 6972 6431 2... ori.w      [[A0 + 0x64312E76] + 0x6F63], 0x3D62 /* '=b' */
label00000E88:
00000E88  0062 6972                ori.w      -[A2], 0x6972 /* 'ir' */
00000E8C  6432                     bcc        +0x34 /* 00000EC0 */
00000E8E  2E76 6F63 0065 7870 6C6F movea.l    A7, [[A6 + 0x65] + 0x78706C6F]
00000E98  6465                     bcc        +0x67 /* 00000EFF */
00000E9A  2E76 6F63 001A 5468 6520 movea.l    A7, [[A6 + 0x1A] + 0x54686520]
00000EA4  746F                     moveq.l    D2, 0x6F
00000EA6  776E                     moveq.l    D3, 0x6E
00000EA8  2066                     movea.l    A0, -[A6]
00000EAA  6169                     bsr        +0x6B /* 00000F15 */
00000EAC  7220                     moveq.l    D1, 0x20
00000EAE  6973                     bvs        +0x75 /* 00000F23 */
00000EB0  2073 7461                movea.l    A0, [A3 + D7.w * 4 + 0x61]
00000EB4  7274                     moveq.l    D1, 0x74
00000EB6  696E                     bvs        +0x70 /* 00000F26 */
00000EB8  6721                     beq        +0x23 /* 00000EDB */
00000EBA  0033 5468 6520 546F      ori.b      [A3 + 0x546F + D6 * 4], 0x68 /* 'h' */
// begin alternate branch 00000EC0-00000EC4
label00000EC0:
00000EC0  546F 776E                addq.w     [A7 + 0x776E], 2
// end alternate branch 00000EC0-00000EC4
label00000EC0: // (misaligned)
00000EC2  776E                     moveq.l    D3, 0x6E
00000EC4  2046                     movea.l    A0, D6
00000EC6  6169                     bsr        +0x6B /* 00000F31 */
00000EC8  7220                     moveq.l    D1, 0x20
00000ECA  6973                     bvs        +0x75 /* 00000F3F */
00000ECC  2073 7461                movea.l    A0, [A3 + D7.w * 4 + 0x61]
00000ED0  7274                     moveq.l    D1, 0x74
00000ED2  696E                     bvs        +0x70 /* 00000F42 */
00000ED4  6721                     beq        +0x23 /* 00000EF7 */
00000ED6  2057                     movea.l    A0, [A7]
00000ED8  6F75                     ble        +0x77 /* 00000F4F */
00000EDA  6C64                     bge        +0x66 /* 00000F40 */
00000EDC  2079 6F75 206C           movea.l    A0, [0x6F75206C]
00000EE2  696B                     bvs        +0x6D /* 00000F4F */
00000EE4  6520                     bcs        +0x22 /* 00000F06 */
00000EE6  746F                     moveq.l    D2, 0x6F
00000EE8  2065                     movea.l    A0, -[A5]
00000EEA  6E74                     bgt        +0x76 /* 00000F60 */
fn00000EEC:
00000EEC  6572                     bcs        +0x74 /* 00000F60 */
00000EEE  2013                     move.l     D0, [A3]
00000EF0  0520                     btst       -[A0], D2
00000EF2  7468                     moveq.l    D2, 0x68
00000EF4  6520                     bcs        +0x22 /* 00000F16 */
00000EF6  1036 0820                move.b     D0, [A6 + D0 + 0x20]
00000EFA  696E                     bvs        +0x70 /* 00000F6A */
00000EFC  2074 6865                movea.l    A0, [A4 + D6 + 0x65]
00000F00  2000                     move.l     D0, D0
00000F02  2B20                     move.l     -[A5], -[A0]
00000F04  6A75                     bpl        +0x77 /* 00000F7B */
label00000F06:
00000F06  6467                     bcc        +0x69 /* 00000F6F */
00000F08  696E                     bvs        +0x70 /* 00000F78 */
00000F0A  6720                     beq        +0x22 /* 00000F2C */
00000F0C  636F                     bls        +0x71 /* 00000F7D */
00000F0E  6E74                     bgt        +0x76 /* 00000F84 */
00000F10  6573                     bcs        +0x75 /* 00000F85 */
00000F12  743F                     moveq.l    D2, 0x3F
00000F14  2045                     movea.l    A0, D5
label00000F16:
00000F16  6E74                     bgt        +0x76 /* 00000F8C */
00000F18  7279                     moveq.l    D1, 0x79
00000F1A  2066                     movea.l    A0, -[A6]
00000F1C  6565                     bcs        +0x67 /* 00000F83 */
00000F1E  2069 7320                movea.l    A0, [A1 + 0x7320]
00000F22  3230 3020                move.w     D1, [A0 + D3.w + 0x20]
label00000F26:
00000F26  646F                     bcc        +0x71 /* 00000F97 */
00000F28  6C6C                     bge        +0x6E /* 00000F96 */
00000F2A  6172                     bsr        +0x74 /* 00000F9E */
label00000F2C:
00000F2C  732E                     moveq.l    D1, 0x2E
00000F2E  1034 1A54                move.b     D0, [A4 + D1 * 2 + 0x54]
00000F32  6865                     bvc        +0x67 /* 00000F99 */
00000F34  2054                     movea.l    A0, [A4]
00000F36  6F77                     ble        +0x79 /* 00000FAF */
00000F38  6E20                     bgt        +0x22 /* 00000F5A */
00000F3A  4661                     not.w      -[A1]
00000F3C  6972                     bvs        +0x74 /* 00000FB0 */
00000F3E  2069 7320                movea.l    A0, [A1 + 0x7320]
// begin alternate branch 00000F40-00000F42
label00000F40:
00000F40  7320                     moveq.l    D1, 0x20
// end alternate branch 00000F40-00000F42
label00000F40: // (misaligned)
label00000F42:
00000F42  7374                     moveq.l    D1, 0x74
00000F44  6172                     bsr        +0x74 /* 00000FB8 */
00000F46  7469                     moveq.l    D2, 0x69
00000F48  6E67                     bgt        +0x69 /* 00000FB1 */
00000F4A  2100                     move.l     -[A0], D0
00000F4C  0C63 6172                cmpi.w     -[A3], 0x6172 /* 'ar' */
00000F50  6E69                     bgt        +0x6B /* 00000FBB */
00000F52  7661                     moveq.l    D3, 0x61
00000F54  6C2E                     bge        +0x30 /* 00000F84 */
00000F56  6D69                     blt        +0x6B /* 00000FC1 */
00000F58  6400 6576                bcc        +0x6578 /* 000074D0 */
// begin alternate branch 00000F5A-00000F5C
label00000F5A:
00000F5A  6576                     bcs        +0x78 /* 00000FD2 */
// end alternate branch 00000F5A-00000F5C
label00000F5A: // (misaligned)
00000F5C  656E                     bcs        +0x70 /* 00000FCC */
00000F5E  7473                     moveq.l    D2, 0x73
label00000F60:
00000F60  2E64                     movea.l    A7, -[A4]
00000F62  6174                     bsr        +0x76 /* 00000FD8 */
00000F64  1509                     move.b     -[A2], A1
00000F66  726F                     moveq.l    D1, 0x6F
00000F68  6465                     bcc        +0x67 /* 00000FCF */
label00000F6A:
00000F6A  6F2E                     ble        +0x30 /* 00000F9A */
00000F6C  6D69                     blt        +0x6B /* 00000FD7 */
00000F6E  641A                     bcc        +0x1C /* 00000F8A */
00000F70  7468                     moveq.l    D2, 0x68
00000F72  756E                     moveq.l    D2, 0x6E
00000F74  6465                     bcc        +0x67 /* 00000FDB */
00000F76  722E                     moveq.l    D1, 0x2E
label00000F78:
00000F78  766F                     moveq.l    D3, 0x6F
00000F7A  6300 0753                bls        +0x755 /* 000016CF */
00000F7E  7461                     moveq.l    D2, 0x61
00000F80  6469                     bcc        +0x6B /* 00000FEB */
00000F82  756D                     moveq.l    D2, 0x6D
label00000F84:
00000F84  1305                     move.b     -[A1], D5
00000F86  526F 6465                addq.w     [A7 + 0x6465], 1
label00000F8A:
00000F8A  6F10                     ble        +0x12 /* 00000F9C */
label00000F8C:
00000F8C  2A08                     move.l     D5, A0
00000F8E  4361                     chk.w      D1, -[A1]
00000F90  726E                     moveq.l    D1, 0x6E
00000F92  6976                     bvs        +0x78 /* 0000100A */
00000F94  616C                     bsr        +0x6E /* 00001002 */
label00000F96:
00000F96  001F 556E                ori.b      [A7]+, 0x6E /* 'n' */
label00000F9A:
00000F9A  6578                     bcs        +0x7A /* 00001014 */
label00000F9C:
00000F9C  7065                     moveq.l    D0, 0x65
fn00000F9E:
00000F9E  6374                     bls        +0x76 /* 00001014 */
00000FA0  6564                     bcs        +0x66 /* 00001006 */
00000FA2  206D 6F64                movea.l    A0, [A5 + 0x6F64]
00000FA6  6520                     bcs        +0x22 /* 00000FC8 */
00000FA8  696E                     bvs        +0x70 /* 00001018 */
00000FAA  2053                     movea.l    A0, [A3]
00000FAC  6574                     bcs        +0x76 /* 00001022 */
00000FAE  5374 6164                subq.w     <<invalid full ext with I/IS == 4>>, 1
// begin alternate branch 00000FB0-00000FB2
label00000FB0:
00000FB0  6164                     bsr        +0x66 /* 00001016 */
// end alternate branch 00000FB0-00000FB2
label00000FB0: // (misaligned)
00000FB2  6975                     bvs        +0x77 /* 00001029 */
00000FB4  6D3A                     blt        +0x3C /* 00000FF0 */
00000FB6  201C                     move.l     D0, [A4]+
fn00000FB8:
00000FB8  1763 616E                move.b     [A3 + 0x616E], -[A3]
00000FBC  2774 2070 756C           move.l     [A3 + 0x756C], [A4 + D2.w + 0x70]
00000FC2  6C20                     bge        +0x22 /* 00000FE4 */
00000FC4  7570                     moveq.l    D2, 0x70
00000FC6  2065                     movea.l    A0, -[A5]
label00000FC8:
00000FC8  7665                     moveq.l    D3, 0x65
00000FCA  6E74                     bgt        +0x76 /* 00001040 */
label00000FCC:
00000FCC  5069 6374                addq.w     [A1 + 0x6374], 8
00000FD0  105C                     movea.b    A0, [A4]+
label00000FD2:
00000FD2  596F 7572                subq.w     [A7 + 0x7572], 4
00000FD6  2063                     movea.l    A0, -[A3]
fn00000FD8:
00000FD8  6F75                     ble        +0x77 /* 0000104F */
00000FDA  7369                     moveq.l    D1, 0x69
00000FDC  6E20                     bgt        +0x22 /* 00000FFE */
00000FDE  4A65                     tst.w      -[A5]
00000FE0  6420                     bcc        +0x22 /* 00001002 */
00000FE2  574F                     subq.w     A7, 3
label00000FE4:
00000FE4  4E21                     .invalid   // invalid opcode 4
00000FE6  2120                     move.l     -[A0], -[A0]
00000FE8  596F 7520                subq.w     [A7 + 0x7520], 4
00000FEC  6D61                     blt        +0x63 /* 0000104F */
00000FEE  6465                     bcc        +0x67 /* 00001055 */
label00000FF0:
00000FF0  2035 3030                move.l     D0, [A5 + D3.w + 0x30]
00000FF4  2064                     movea.l    A0, -[A4]
00000FF6  6F6C                     ble        +0x6E /* 00001064 */
00000FF8  6C61                     bge        +0x63 /* 0000105B */
00000FFA  7273                     moveq.l    D1, 0x73
00000FFC  2121                     move.l     -[A0], -[A1]
label00000FFE:
00000FFE  2100                     move.l     -[A0], D0
00001000  596F 7572                subq.w     [A7 + 0x7572], 4
// begin alternate branch 00001002-00001004
fn00001002:
00001002  7572                     moveq.l    D2, 0x72
// end alternate branch 00001002-00001004
fn00001002: // (misaligned)
label00001004:
00001004  2063                     movea.l    A0, -[A3]
label00001006:
00001006  6F75                     ble        +0x77 /* 0000107D */
00001008  7369                     moveq.l    D1, 0x69
label0000100A:
0000100A  6E20                     bgt        +0x22 /* 0000102C */
0000100C  4A65                     tst.w      -[A5]
0000100E  6420                     bcc        +0x22 /* 00001030 */
00001010  4C4F 5354                divu.l     D4:D5, A7
label00001014:
00001014  2E20                     move.l     D7, -[A0]
fn00001016:
00001016  596F 7520                subq.w     [A7 + 0x7520], 4
// begin alternate branch 00001018-0000101A
label00001018:
00001018  7520                     moveq.l    D2, 0x20
// end alternate branch 00001018-0000101A
label00001018: // (misaligned)
0000101A  6C6F                     bge        +0x71 /* 0000108B */
0000101C  7374                     moveq.l    D1, 0x74
0000101E  2079 6F75 7220           movea.l    A0, [0x6F757220]
// begin alternate branch 00001022-00001024
label00001022:
00001022  7220                     moveq.l    D1, 0x20
// end alternate branch 00001022-00001024
label00001022: // (misaligned)
00001024  3530 3020                move.w     -[A2], [A0 + D3.w + 0x20]
00001028  6275                     bhi        +0x77 /* 0000109F */
0000102A  636B                     bls        +0x6D /* 00001097 */
label0000102C:
0000102C  732E                     moveq.l    D1, 0x2E
0000102E  102A 2920                move.b     D0, [A2 + 0x2920]
// begin alternate branch 00001030-00001032
label00001030:
00001030  2920                     move.l     -[A4], -[A0]
// end alternate branch 00001030-00001032
label00001030: // (misaligned)
00001032  574F                     subq.w     A7, 3
00001034  4E20                     .invalid   // invalid opcode 4
00001036  4649                     not.w      A1
00001038  5253                     addq.w     [A3], 1
0000103A  5420                     addq.b     -[A0], 2
0000103C  5052                     addq.w     [A2], 8
0000103E  495A                     chk.w      D4, [A2]+
label00001040:
00001040  4521                     .invalid   2, -[A1] // invalid opcode 4 with b == 4
00001042  2121                     move.l     -[A0], -[A1]
00001044  2059                     movea.l    A0, [A1]+
00001046  6F75                     ble        +0x77 /* 000010BD */
00001048  2057                     movea.l    A0, [A7]
0000104A  696E                     bvs        +0x70 /* 000010BA */
0000104C  2031 3030                move.l     D0, [A1 + D3.w + 0x30]
00001050  3020                     move.w     D0, -[A0]
00001052  446F 6C6C                neg.w      [A7 + 0x6C6C]
00001056  6172                     bsr        +0x74 /* 000010CA */
00001058  7321                     moveq.l    D1, 0x21
0000105A  101F                     move.b     D0, [A7]+
0000105C  1E20                     move.b     D7, -[A0]
0000105E  204C                     movea.l    A0, A4
00001060  4F53                     chk.w      D7, [A3]
00001062  5421                     addq.b     -[A1], 2
label00001064:
00001064  2057                     movea.l    A0, [A7]
00001066  656C                     bcs        +0x6E /* 000010D4 */
00001068  6C2C                     bge        +0x2E /* 00001096 */
0000106A  206D 6179                movea.l    A0, [A5 + 0x6179]
0000106E  6265                     bhi        +0x67 /* 000010D5 */
00001070  206E 6578                movea.l    A0, [A6 + 0x6578]
00001074  7420                     moveq.l    D2, 0x20
00001076  7965                     moveq.l    D4, 0x65
00001078  6172                     bsr        +0x74 /* 000010EC */
0000107A  2E40                     movea.l    A7, D0
0000107C  0101                     btst       D1, D0
0000107E  0280 8204 0801           andi.l     D0, 0x82040801
00001084  0222 0102                andi.b     -[A2], 0x2
00001088  0408 000F                subi.b     A0, 0xF
0000108C  0501                     btst       D1, D2
0000108E  0102                     btst       D2, D0
00001090  0102                     btst       D2, D0
00001092  0203 0102                andi.b     D3, 0x2
label00001096:
00001096  0203 0203                andi.b     D3, 0x3
0000109A  0304                     btst       D4, D1
0000109C  0020 8267                ori.b      -[A0], 0x67 /* 'g' */
000010A0  3700                     move.w     -[A3], D0
000010A2  3300                     move.w     -[A1], D0
000010A4  2F00                     move.l     -[A7], D0
000010A6  3100                     move.w     -[A0], D0
000010A8  2B00                     move.l     -[A5], D0
000010AA  3900                     move.w     -[A4], D0
000010AC  2D00                     move.l     -[A6], D0
000010AE  4100                     .invalid   0, D0 // invalid opcode 4 with b == 4
000010B0  2700                     move.l     -[A3], D0
000010B2  3500                     move.w     -[A2], D0
000010B4  3B00                     move.w     -[A5], D0
000010B6  4300                     .invalid   1, D0 // invalid opcode 4 with b == 4
000010B8  2900                     move.l     -[A4], D0
label000010BA:
000010BA  3D00                     move.w     -[A6], D0
000010BC  3FFF                     move.w     <<invalid special address>>, <<invalid special address>>
000010BE  FFB0                     .invalid   <<F/6/7>>
000010C0  0080 F407 0400           ori.l      D0, 0xF4070400
000010C6  0500                     btst       D0, D2
000010C8  2D2F 2D2F                move.l     -[A6], [A7 + 0x2D2F]
// begin alternate branch 000010CA-000010D6
fn000010CA:
000010CA  2D2F 312D                move.l     -[A6], [A7 + 0x312D]
000010CE  3132 3739 3236 3A37      move.w     -[A0], [[A2 + 0x32363A37 + D3 * 8]]
// end alternate branch 000010CA-000010D6
fn000010CA: // (misaligned)
000010CC  312D 3132                move.w     -[A0], [A5 + 0x3132 /* export_1570, out of jump table range */]
000010D0  3739 3236 3A37           move.w     -[A3], [0x32363A37]
// begin alternate branch 000010D4-000010DA
label000010D4:
000010D4  3A37 393C                move.w     D5, <<invalid full ext with I/IS == 4>>
000010D8  3C41                     movea.w    A6, D1
// end alternate branch 000010D4-000010DA
label000010D4: // (misaligned)
000010D6  393C 3C41                move.w     -[A4], 0x3C41 /* '<A' */
000010DA  4240                     clr.w      D0
000010DC  4442                     neg.w      D2
000010DE  4546                     chk.w      D2, D6
000010E0  5A55                     addq.w     [A5], 5
000010E2  5F57                     subq.w     [A7], 7
000010E4  554E                     subq.w     A6, 2
000010E6  5557                     subq.w     [A7], 2
000010E8  5557                     subq.w     [A7], 2
000010EA  4E4B                     trap       11
fn000010EC:
000010EC  4B4E                     chk.w      D5, A6
000010EE  4A46                     tst.w      D6
000010F0  464A                     not.w      A2
000010F2  443E                     neg.b      <<invalid special address>>
000010F4  4137 3732 2D2F 2D2F 312D .invalid   0, [[A7 + 0x2D2F2D2F + D3 * 8] + 0x312D] // invalid opcode 4 with b == 4
000010FE  3132 3739 3236 3A37      move.w     -[A0], [[A2 + 0x32363A37 + D3 * 8]]
00001106  393C 3C41                move.w     -[A4], 0x3C41 /* '<A' */
0000110A  4240                     clr.w      D0
0000110C  4442                     neg.w      D2
0000110E  4546                     chk.w      D2, D6
00001110  5A55                     addq.w     [A5], 5
00001112  5F57                     subq.w     [A7], 7
00001114  554E                     subq.w     A6, 2
00001116  5557                     subq.w     [A7], 2
00001118  5557                     subq.w     [A7], 2
0000111A  4E4B                     trap       11
0000111C  4B4E                     chk.w      D5, A6
0000111E  4A46                     tst.w      D6
00001120  464A                     not.w      A2
00001122  443E                     neg.b      <<invalid special address>>
00001124  4137 3732 2D2F 2D2F 312D .invalid   0, [[A7 + 0x2D2F2D2F + D3 * 8] + 0x312D] // invalid opcode 4 with b == 4
0000112E  3132 3739 3236 3A37      move.w     -[A0], [[A2 + 0x32363A37 + D3 * 8]]
00001136  393C 3C41                move.w     -[A4], 0x3C41 /* '<A' */
0000113A  4240                     clr.w      D0
0000113C  4442                     neg.w      D2
0000113E  4546                     chk.w      D2, D6
00001140  5A55                     addq.w     [A5], 5
00001142  5F57                     subq.w     [A7], 7
00001144  554E                     subq.w     A6, 2
00001146  5557                     subq.w     [A7], 2
00001148  5557                     subq.w     [A7], 2
0000114A  4E4B                     trap       11
0000114C  4B4E                     chk.w      D5, A6
0000114E  4A46                     tst.w      D6
00001150  464A                     not.w      A2
00001152  443E                     neg.b      <<invalid special address>>
00001154  4137 3732 2D2F 2D2F 312D .invalid   0, [[A7 + 0x2D2F2D2F + D3 * 8] + 0x312D] // invalid opcode 4 with b == 4
0000115E  3132 3739 3236 3A37      move.w     -[A0], [[A2 + 0x32363A37 + D3 * 8]]
00001166  393C 3C41                move.w     -[A4], 0x3C41 /* '<A' */
0000116A  4240                     clr.w      D0
0000116C  4442                     neg.w      D2
0000116E  4546                     chk.w      D2, D6
00001170  5A55                     addq.w     [A5], 5
00001172  5F57                     subq.w     [A7], 7
00001174  554E                     subq.w     A6, 2
00001176  5557                     subq.w     [A7], 2
00001178  5557                     subq.w     [A7], 2
0000117A  4E4B                     trap       11
0000117C  4B4E                     chk.w      D5, A6
0000117E  4A46                     tst.w      D6
00001180  464A                     not.w      A2
00001182  443E                     neg.b      <<invalid special address>>
00001184  4137 3732 2D2F 2D2F 312D .invalid   0, [[A7 + 0x2D2F2D2F + D3 * 8] + 0x312D] // invalid opcode 4 with b == 4
0000118E  3132 3739 3236 3A37      move.w     -[A0], [[A2 + 0x32363A37 + D3 * 8]]
00001196  393C 3C41                move.w     -[A4], 0x3C41 /* '<A' */
0000119A  4240                     clr.w      D0
0000119C  4442                     neg.w      D2
0000119E  4546                     chk.w      D2, D6
000011A0  5A55                     addq.w     [A5], 5
000011A2  5F57                     subq.w     [A7], 7
000011A4  554E                     subq.w     A6, 2
000011A6  5557                     subq.w     [A7], 2
000011A8  5557                     subq.w     [A7], 2
000011AA  4E4B                     trap       11
000011AC  4B4E                     chk.w      D5, A6
000011AE  4A46                     tst.w      D6
000011B0  464A                     not.w      A2
000011B2  443E                     neg.b      <<invalid special address>>
000011B4  4137 3732 300B 01FF 0101 .invalid   0, [[A7 + 0x300B01FF + D3 * 8] + 0x101] // invalid opcode 4 with b == 4
000011BE  FFFF                     .invalid   <<F/7/7>>
000011C0  0002 0202                ori.b      D2, 0x2
000011C4  FF10                     .extension 0xF10 <<F/4-5/7>> // unimplemented
000011C6  0F01                     btst       D1, D7
000011C8  01FC                     .incomplete
000011CA  FFFF                     .invalid   <<F/7/7>>
000011CC  FF00                     .extension 0xF00 <<F/4-5/7>> // unimplemented
000011CE  FF01                     .extension 0xF01 <<F/4-5/7>> // unimplemented
000011D0  FFFF                     .invalid   <<F/7/7>>
000011D2  FFFF                     .invalid   <<F/7/7>>
000011D4  FFFF                     .invalid   <<F/7/7>>
000011D6  1003                     move.b     D0, D3
000011D8  0101                     btst       D1, D0
000011DA  0120                     btst       -[A0], D0
000011DC  0301                     btst       D1, D1
000011DE  0101                     btst       D1, D0
000011E0  10F0 0102 01FF           move.b     [A0]+, [[A0 + <<invalid base displacement size>> + D0] + 0x1FF]
000011E6  100B                     move.b     D0, A3
000011E8  01FF                     .incomplete
000011EA  0101                     btst       D1, D0
000011EC  FFFF                     .invalid   <<F/7/7>>
000011EE  0002 0202                ori.b      D2, 0x2
000011F2  FF10                     .extension 0xF10 <<F/4-5/7>> // unimplemented
000011F4  0F01                     btst       D1, D7
000011F6  01FC                     .incomplete
000011F8  FFFF                     .invalid   <<F/7/7>>
000011FA  FF00                     .extension 0xF00 <<F/4-5/7>> // unimplemented
000011FC  FF01                     .extension 0xF01 <<F/4-5/7>> // unimplemented
000011FE  FFFF                     .invalid   <<F/7/7>>
00001200  FFFF                     .invalid   <<F/7/7>>
00001202  FFFF                     .invalid   <<F/7/7>>
00001204  1003                     move.b     D0, D3
00001206  0101                     btst       D1, D0
00001208  0120                     btst       -[A0], D0
0000120A  0301                     btst       D1, D1
0000120C  0101                     btst       D1, D0
0000120E  10F0 0102 01FF           move.b     [A0]+, [[A0 + <<invalid base displacement size>> + D0] + 0x1FF]
00001214  100B                     move.b     D0, A3
00001216  01FF                     .incomplete
00001218  0101                     btst       D1, D0
0000121A  FFFF                     .invalid   <<F/7/7>>
0000121C  0002 0202                ori.b      D2, 0x2
00001220  FF10                     .extension 0xF10 <<F/4-5/7>> // unimplemented
00001222  0F01                     btst       D1, D7
00001224  01FC                     .incomplete
00001226  FFFF                     .invalid   <<F/7/7>>
00001228  FF00                     .extension 0xF00 <<F/4-5/7>> // unimplemented
0000122A  FF01                     .extension 0xF01 <<F/4-5/7>> // unimplemented
0000122C  FFFF                     .invalid   <<F/7/7>>
0000122E  FFFF                     .invalid   <<F/7/7>>
00001230  FFFF                     .invalid   <<F/7/7>>
00001232  1003                     move.b     D0, D3
00001234  0101                     btst       D1, D0
00001236  0120                     btst       -[A0], D0
00001238  0301                     btst       D1, D1
0000123A  0101                     btst       D1, D0
0000123C  10F0 0102 01FF           move.b     [A0]+, [[A0 + <<invalid base displacement size>> + D0] + 0x1FF]
00001242  100B                     move.b     D0, A3
00001244  01FF                     .incomplete
00001246  0101                     btst       D1, D0
00001248  FFFF                     .invalid   <<F/7/7>>
0000124A  0002 0202                ori.b      D2, 0x2
0000124E  FF10                     .extension 0xF10 <<F/4-5/7>> // unimplemented
00001250  0F01                     btst       D1, D7
00001252  01FC                     .incomplete
00001254  FFFF                     .invalid   <<F/7/7>>
00001256  FF00                     .extension 0xF00 <<F/4-5/7>> // unimplemented
00001258  FF01                     .extension 0xF01 <<F/4-5/7>> // unimplemented
0000125A  FFFF                     .invalid   <<F/7/7>>
0000125C  FFFF                     .invalid   <<F/7/7>>
0000125E  FFFF                     .invalid   <<F/7/7>>
00001260  1003                     move.b     D0, D3
00001262  0101                     btst       D1, D0
00001264  0120                     btst       -[A0], D0
00001266  0301                     btst       D1, D1
00001268  0101                     btst       D1, D0
0000126A  10F0 0102 01FF           move.b     [A0]+, [[A0 + <<invalid base displacement size>> + D0] + 0x1FF]
00001270  100B                     move.b     D0, A3
00001272  01FF                     .incomplete
00001274  0101                     btst       D1, D0
00001276  FFFF                     .invalid   <<F/7/7>>
00001278  0002 0202                ori.b      D2, 0x2
0000127C  FF10                     .extension 0xF10 <<F/4-5/7>> // unimplemented
0000127E  0F01                     btst       D1, D7
00001280  01FC                     .incomplete
00001282  FFFF                     .invalid   <<F/7/7>>
00001284  FF00                     .extension 0xF00 <<F/4-5/7>> // unimplemented
00001286  FF01                     .extension 0xF01 <<F/4-5/7>> // unimplemented
00001288  FFFF                     .invalid   <<F/7/7>>
0000128A  FFFF                     .invalid   <<F/7/7>>
0000128C  FFFF                     .invalid   <<F/7/7>>
0000128E  1003                     move.b     D0, D3
00001290  0101                     btst       D1, D0
00001292  0120                     btst       -[A0], D0
00001294  0301                     btst       D1, D1
00001296  0101                     btst       D1, D0
00001298  10F0 0102 01FF           move.b     [A0]+, [[A0 + <<invalid base displacement size>> + D0] + 0x1FF]
0000129E  1080                     move.b     [A0], D0
000012A0  F005 0705                pmovefd    MR1, D5
000012A4  0709                     btst       A1, D3
000012A6  0509                     btst       A1, D2
000012A8  0505                     btst       D5, D2
000012AA  0700                     btst       D0, D3
000012AC  0408 0507                subi.b     A0, 0x7
000012B0  000A 0F10                ori.b      A2, 0x10
000012B4  0E12 1013                .invalid.b [A2], 0x13 // invalid immediate operation
000012B8  0A14 1919                xori.b     [A4], 0x19
000012BC  1B26                     move.b     -[A5], -[A6]
000012BE  302D 2555                move.w     D0, [A5 + 0x2555]
000012C2  574E                     subq.w     A6, 3
000012C4  4B23                     .invalid   5, -[A3] // invalid opcode 4 with b == 4
000012C6  2622                     move.l     D3, -[A2]
000012C8  1E14                     move.b     D7, [A4]
000012CA  181C                     move.b     D4, [A4]+
000012CC  160F                     move.b     D3, A7
000012CE  050F                     btst       A7, D2
000012D0  0C05 0705                cmpi.b     D5, 0x5
000012D4  0709                     btst       A1, D3
000012D6  0509                     btst       A1, D2
000012D8  0505                     btst       D5, D2
000012DA  0700                     btst       D0, D3
000012DC  0408 0507                subi.b     A0, 0x7
000012E0  000A 0F10                ori.b      A2, 0x10
000012E4  0E12 1013                .invalid.b [A2], 0x13 // invalid immediate operation
000012E8  0A14 1919                xori.b     [A4], 0x19
000012EC  1B26                     move.b     -[A5], -[A6]
000012EE  302D 2555                move.w     D0, [A5 + 0x2555]
000012F2  574E                     subq.w     A6, 3
000012F4  4B23                     .invalid   5, -[A3] // invalid opcode 4 with b == 4
000012F6  2622                     move.l     D3, -[A2]
000012F8  1E14                     move.b     D7, [A4]
000012FA  181C                     move.b     D4, [A4]+
000012FC  160F                     move.b     D3, A7
000012FE  050F                     btst       A7, D2
00001300  0C05 0705                cmpi.b     D5, 0x5
00001304  0709                     btst       A1, D3
00001306  0509                     btst       A1, D2
00001308  0505                     btst       D5, D2
0000130A  0700                     btst       D0, D3
0000130C  0408 0507                subi.b     A0, 0x7
00001310  000A 0F10                ori.b      A2, 0x10
00001314  0E12 1013                .invalid.b [A2], 0x13 // invalid immediate operation
00001318  0A14 1919                xori.b     [A4], 0x19
0000131C  1B26                     move.b     -[A5], -[A6]
0000131E  302D 2555                move.w     D0, [A5 + 0x2555]
00001322  574E                     subq.w     A6, 3
00001324  4B23                     .invalid   5, -[A3] // invalid opcode 4 with b == 4
00001326  2622                     move.l     D3, -[A2]
00001328  1E14                     move.b     D7, [A4]
0000132A  181C                     move.b     D4, [A4]+
0000132C  160F                     move.b     D3, A7
0000132E  050F                     btst       A7, D2
00001330  0C05 0705                cmpi.b     D5, 0x5
00001334  0709                     btst       A1, D3
00001336  0509                     btst       A1, D2
00001338  0505                     btst       D5, D2
0000133A  0700                     btst       D0, D3
0000133C  0408 0507                subi.b     A0, 0x7
00001340  000A 0F10                ori.b      A2, 0x10
00001344  0E12 1013                .invalid.b [A2], 0x13 // invalid immediate operation
00001348  0A14 1919                xori.b     [A4], 0x19
0000134C  1B26                     move.b     -[A5], -[A6]
0000134E  302D 2555                move.w     D0, [A5 + 0x2555]
00001352  574E                     subq.w     A6, 3
00001354  4B23                     .invalid   5, -[A3] // invalid opcode 4 with b == 4
00001356  2622                     move.l     D3, -[A2]
00001358  1E14                     move.b     D7, [A4]
0000135A  181C                     move.b     D4, [A4]+
0000135C  160F                     move.b     D3, A7
0000135E  050F                     btst       A7, D2
00001360  0C05 0705                cmpi.b     D5, 0x5
00001364  0709                     btst       A1, D3
00001366  0509                     btst       A1, D2
00001368  0505                     btst       D5, D2
0000136A  0700                     btst       D0, D3
0000136C  0408 0507                subi.b     A0, 0x7
00001370  000A 0F10                ori.b      A2, 0x10
00001374  0E12 1013                .invalid.b [A2], 0x13 // invalid immediate operation
00001378  0A14 1919                xori.b     [A4], 0x19
0000137C  1B26                     move.b     -[A5], -[A6]
0000137E  302D 2555                move.w     D0, [A5 + 0x2555]
00001382  574E                     subq.w     A6, 3
00001384  4B23                     .invalid   5, -[A3] // invalid opcode 4 with b == 4
00001386  2622                     move.l     D3, -[A2]
00001388  1E14                     move.b     D7, [A4]
0000138A  181C                     move.b     D4, [A4]+
0000138C  160F                     move.b     D3, A7
0000138E  050F                     btst       A7, D2
00001390  0C20 0F40                cmpi.b     -[A0], 0x40 /* '@' */
00001394  403C 0808 0404           negx.b     0x8080404
0000139A  0402 0202                subi.b     D2, 0x2
0000139E  0203 0303                andi.b     D3, 0x3
000013A2  050D                     btst       A5, D2
000013A4  2D0A                     move.l     -[A6], A2
000013A6  1722                     move.b     -[A3], -[A2]
000013A8  2D00                     move.l     -[A6], D0
000013AA  536C 6F77                subq.w     [A4 + 0x6F77], 1
000013AE  2253                     movea.l    A1, [A3]
000013B0  6C6F                     bge        +0x71 /* 00001421 */
000013B2  7726                     moveq.l    D3, 0x26
000013B4  4176 6572 6167 6500 4661 chk.w      D0, [[A6 + 0x61676500] + 0x4661]
000013BE  7374                     moveq.l    D1, 0x74
000013C0  2246                     movea.l    A1, D6
000013C2  6173                     bsr        +0x75 /* 00001437 */
000013C4  7440                     moveq.l    D2, 0x40
000013C6  0914                     btst       [A4], D4
000013C8  0014 0014                ori.b      [A4], 0x14
000013CC  0014 0002                ori.b      [A4], 0x2
000013D0  0024 A2BB                ori.b      -[A4], 0xBB
000013D4  596F 7527                subq.w     [A7 + 0x7527], 4
000013D8  7665                     moveq.l    D3, 0x65
000013DA  2062                     movea.l    A0, -[A2]
000013DC  6565                     bcs        +0x67 /* 00001443 */
000013DE  6E20                     bgt        +0x22 /* 00001400 */
000013E0  4255                     clr.w      [A5]
000013E2  5354                     subq.w     [A4], 1
000013E4  4544                     chk.w      D2, D4
000013E6  2120                     move.l     -[A0], -[A0]
000013E8  4D41                     chk.w      D6, D1
000013EA  4A4F                     tst.w      A7
000013EC  5220                     addq.b     -[A0], 1
000013EE  4649                     not.w      A1
000013F0  4E45                     trap       5
000013F2  2064                     movea.l    A0, -[A4]
000013F4  7564                     moveq.l    D2, 0x64
000013F6  6521                     bcs        +0x23 /* 00001419 */
000013F8  000B 8088                ori.b      A3, 0x88
000013FC  6578                     bcs        +0x7A /* 00001476 */
000013FE  706C                     moveq.l    D0, 0x6C
label00001400:
00001400  6F64                     ble        +0x66 /* 00001466 */
00001402  652E                     bcs        +0x30 /* 00001432 */
00001404  766F                     moveq.l    D3, 0x6F
00001406  6308                     bls        +0xA /* 00001410 */
00001408  130D                     move.b     -[A1], A5
0000140A  0D0D                     btst       A5, D6
0000140C  0D0D                     btst       A5, D6
0000140E  0D0D                     btst       A5, D6
label00001410:
00001410  0D0D                     btst       A5, D6
00001412  0D0D                     btst       A5, D6
00001414  0D0D                     btst       A5, D6
00001416  0D0D                     btst       A5, D6
00001418  0D00                     btst       D0, D6
0000141A  0187                     bclr       D7, D0
0000141C  80FF                     divu.w     D0, <<invalid special address>>
0000141E  0C80 9301 4001           cmpi.l     D0, 0x93014001
00001424  4301                     .invalid   1, D1 // invalid opcode 4 with b == 4
00001426  4601                     not.b      D1
00001428  4901                     .invalid   4, D1 // invalid opcode 4 with b == 4
0000142A  4C01 4F01                muls.l     D1:D4, D1
0000142E  5201                     addq.b     D1, 1
00001430  6001                     bra        +0x3 /* 00001433 */
label00001432:
00001432  6301                     bls        +0x3 /* 00001435 */
00001434  6601                     bne        +0x3 /* 00001437 */
00001436  6901                     bvs        +0x3 /* 00001439 */
00001438  6C10                     bge        +0x12 /* 0000144A */
0000143A  F002 03FF                pmovefd    MR0, D2
0000143E  FF9C                     .invalid   <<F/6/7>>
00001440  4012                     negx.b     [A2]
00001442  C021                     and.b      D0, -[A1]
00001444  3A98                     move.w     [A5], [A0]+
00001446  7808                     moveq.l    D4, 0x08
00001448  4173 7365                chk.w      D0, <<invalid full ext with IS == 1 and I/IS == 5>>
// begin alternate branch 0000144A-0000144C
label0000144A:
0000144A  7365                     moveq.l    D1, 0x65
// end alternate branch 0000144A-0000144C
label0000144A: // (misaligned)
0000144C  7473                     moveq.l    D2, 0x73
0000144E  0D0D                     btst       A5, D6
00001450  0005 4361                ori.b      D5, 0x61 /* 'a' */
00001454  7368                     moveq.l    D1, 0x68
00001456  0911                     btst       [A1], D4
00001458  010D                     btst       A5, D0
0000145A  170A                     move.b     -[A3], A2
0000145C  4D61                     chk.w      D6, -[A1]
0000145E  6368                     bls        +0x6A /* 000014C8 */
00001460  696E                     bvs        +0x70 /* 000014D0 */
00001462  6572                     bcs        +0x74 /* 000014D6 */
00001464  7909                     moveq.l    D4, 0x09
label00001466:
00001466  0001 0D13                ori.b      D1, 0x13
0000146A  054C                     bchg       A4, D2
0000146C  616E                     bsr        +0x70 /* 000014DC */
0000146E  6409                     bcc        +0xB /* 00001479 */
00001470  1101                     move.b     -[A0], D1
00001472  0D16                     btst       [A6], D6
00001474  0846 7574                bchg.b     D6, 0x74 /* 't' */
// begin alternate branch 00001476-00001478
label00001476:
00001476  7574                     moveq.l    D2, 0x74
// end alternate branch 00001476-00001478
label00001476: // (misaligned)
00001478  7572                     moveq.l    D2, 0x72
0000147A  6573                     bcs        +0x75 /* 000014EF */
0000147C  0900                     btst       D0, D4
0000147E  010D                     btst       A5, D0
00001480  180A                     move.b     D4, A2
00001482  4C69 7665 7374           divu.l     D4:D7, [A1 + 0x7665]
00001488  6F63                     ble        +0x65 /* 000014ED */
0000148A  6B09                     bmi        +0xB /* 00001495 */
0000148C  0003 0D0D                ori.b      D3, 0xD /* '\r' */
00001490  0D17                     btst       [A7], D6
00001492  0D54                     bchg       [A4], D6
00001494  6F74                     ble        +0x76 /* 0000150A */
00001496  616C                     bsr        +0x6E /* 00001504 */
00001498  2041                     movea.l    A0, D1
0000149A  7373                     moveq.l    D1, 0x73
0000149C  6574                     bcs        +0x76 /* 00001512 */
0000149E  7309                     moveq.l    D1, 0x09
000014A0  1020                     move.b     D0, -[A0]
000014A2  120D                     move.b     D1, A5
000014A4  0D41                     bchg       D1, D6
000014A6  6E6E                     bgt        +0x70 /* 00001516 */
000014A8  7561                     moveq.l    D2, 0x61
000014AA  6C20                     bge        +0x22 /* 000014CC */
000014AC  5265                     addq.w     -[A5], 1
000014AE  7665                     moveq.l    D3, 0x65
000014B0  6E75                     bgt        +0x77 /* 00001527 */
000014B2  650D                     bcs        +0xF /* 000014C1 */
000014B4  0D00                     btst       D0, D6
000014B6  0B43                     bchg       D3, D5
000014B8  726F                     moveq.l    D1, 0x6F
000014BA  7020                     moveq.l    D0, 0x20
000014BC  5361                     subq.w     -[A1], 1
000014BE  6C65                     bge        +0x67 /* 00001525 */
000014C0  7309                     moveq.l    D1, 0x09
000014C2  1101                     move.b     -[A0], D1
000014C4  0D1A                     btst       [A2]+, D6
000014C6  104D                     movea.b    A0, A5
label000014C8:
000014C8  6163                     bsr        +0x65 /* 0000152D */
000014CA  6869                     bvc        +0x6B /* 00001535 */
label000014CC:
000014CC  6E65                     bgt        +0x67 /* 00001533 */
000014CE  7279                     moveq.l    D1, 0x79
label000014D0:
000014D0  2053                     movea.l    A0, [A3]
000014D2  616C                     bsr        +0x6E /* 00001540 */
000014D4  6573                     bcs        +0x75 /* 00001549 */
label000014D6:
000014D6  0900                     btst       D0, D4
000014D8  010D                     btst       A5, D0
000014DA  160B                     move.b     D3, A3
fn000014DC:
000014DC  4C61 6E64                divsl.l    D4:D6, -[A1]
000014E0  2053                     movea.l    A0, [A3]
000014E2  616C                     bsr        +0x6E /* 00001550 */
000014E4  6573                     bcs        +0x75 /* 00001559 */
000014E6  0911                     btst       [A1], D4
000014E8  010D                     btst       A5, D0
000014EA  170D                     move.b     -[A3], A5
000014EC  4675 7475                not.w      [A5 + D7.w * 4 + 0x75]
000014F0  7265                     moveq.l    D1, 0x65
000014F2  7320                     moveq.l    D1, 0x20
000014F4  536F 6C64                subq.w     [A7 + 0x6C64], 1
000014F8  0911                     btst       [A1], D4
000014FA  010D                     btst       A5, D0
000014FC  170D                     move.b     -[A3], A5
000014FE  416E 696D                chk.w      D0, [A6 + 0x696D]
00001502  616C                     bsr        +0x6E /* 00001570 */
fn00001504:
00001504  2053                     movea.l    A0, [A3]
00001506  616C                     bsr        +0x6E /* 00001574 */
00001508  6573                     bcs        +0x75 /* 0000157D */
label0000150A:
0000150A  091B                     btst       [A3]+, D4
0000150C  020D 0D00                andi.b     A5, 0x0
00001510  0E54 6F74                .invalid.w [A4], 0x6F74 /* 'ot' */ // invalid immediate operation
// begin alternate branch 00001512-00001514
label00001512:
00001512  6F74                     ble        +0x76 /* 00001588 */
// end alternate branch 00001512-00001514
label00001512: // (misaligned)
00001514  616C                     bsr        +0x6E /* 00001582 */
label00001516:
00001516  2052                     movea.l    A0, [A2]
00001518  6576                     bcs        +0x78 /* 00001590 */
0000151A  656E                     bcs        +0x70 /* 0000158A */
0000151C  7565                     moveq.l    D2, 0x65
0000151E  0900                     btst       D0, D4
00001520  010D                     btst       A5, D0
00001522  1A13                     move.b     D5, [A3]
00001524  4578 7065                chk.w      D2, [0x00007065]
00001528  6E64                     bgt        +0x66 /* 0000158E */
0000152A  6974                     bvs        +0x76 /* 000015A0 */
0000152C  7572                     moveq.l    D2, 0x72
0000152E  6573                     bcs        +0x75 /* 000015A3 */
00001530  0D0D                     btst       A5, D6
00001532  5365                     subq.w     -[A5], 1
00001534  6564                     bcs        +0x66 /* 0000159A */
00001536  0911                     btst       [A1], D4
00001538  010D                     btst       A5, D0
0000153A  170A                     move.b     -[A3], A2
0000153C  4D61                     chk.w      D6, -[A1]
0000153E  6368                     bls        +0x6A /* 000015A8 */
fn00001540:
00001540  696E                     bvs        +0x70 /* 000015B0 */
00001542  6572                     bcs        +0x74 /* 000015B6 */
00001544  7909                     moveq.l    D4, 0x09
00001546  0001 0D18                ori.b      D1, 0x18
0000154A  0F4C                     bchg       A4, D7
0000154C  616E                     bsr        +0x70 /* 000015BC */
0000154E  6420                     bcc        +0x22 /* 00001570 */
fn00001550:
00001550  5075 7263                addq.w     [A5 + D7.w * 2 + 0x63], 8
00001554  6861                     bvc        +0x63 /* 000015B7 */
00001556  7365                     moveq.l    D1, 0x65
00001558  7309                     moveq.l    D1, 0x09
0000155A  1101                     move.b     -[A0], D1
0000155C  0D18                     btst       [A0]+, D6
0000155E  0F46                     bchg       D6, D7
00001560  7574                     moveq.l    D2, 0x74
00001562  7572                     moveq.l    D2, 0x72
00001564  6573                     bcs        +0x75 /* 000015D9 */
00001566  204C                     movea.l    A0, A4
00001568  6F73                     ble        +0x75 /* 000015DD */
0000156A  7365                     moveq.l    D1, 0x65
0000156C  7309                     moveq.l    D1, 0x09
0000156E  1101                     move.b     -[A0], D1
fn00001570:
00001570  0D16                     btst       [A6], D6
00001572  0B53                     bchg       [A3], D5
fn00001574:
00001574  7472                     moveq.l    D2, 0x72
00001576  7563                     moveq.l    D2, 0x63
00001578  7475                     moveq.l    D2, 0x75
0000157A  7265                     moveq.l    D1, 0x65
0000157C  7309                     moveq.l    D1, 0x09
0000157E  1101                     move.b     -[A0], D1
00001580  0D10                     btst       [A0], D6
fn00001582:
00001582  F00E 020A                pmove      MR0, A6
00001586  4C69 7665 7374           divu.l     D4:D7, [A1 + 0x7665]
// begin alternate branch 00001588-0000158C
label00001588:
00001588  7665                     moveq.l    D3, 0x65
label0000158A:
0000158A  7374                     moveq.l    D1, 0x74
// end alternate branch 00001588-0000158C
label00001588: // (misaligned)
label0000158A: // (misaligned)
0000158C  6F63                     ble        +0x65 /* 000015F1 */
label0000158E:
0000158E  6B09                     bmi        +0xB /* 00001599 */
label00001590:
00001590  0001 0D0A                ori.b      D1, 0xA /* '\n' */
00001594  4368 656D                chk.w      D1, [A0 + 0x656D]
00001598  6963                     bvs        +0x65 /* 000015FD */
label0000159A:
0000159A  616C                     bsr        +0x6E /* 00001608 */
0000159C  7309                     moveq.l    D1, 0x09
0000159E  0001 0D19                ori.b      D1, 0x19
// begin alternate branch 000015A0-000015A2
label000015A0:
000015A0  0D19                     btst       [A1]+, D6
// end alternate branch 000015A0-000015A2
label000015A0: // (misaligned)
000015A2  0E4C 6F61                .invalid.w A4, 0x6F61 /* 'oa' */ // invalid immediate operation
000015A6  6E20                     bgt        +0x22 /* 000015C8 */
label000015A8:
000015A8  496E 7465                chk.w      D4, [A6 + 0x7465]
000015AC  7265                     moveq.l    D1, 0x65
000015AE  7374                     moveq.l    D1, 0x74
label000015B0:
000015B0  0900                     btst       D0, D4
000015B2  010D                     btst       A5, D0
000015B4  1A10                     move.b     D5, [A0]
label000015B6:
000015B6  4C65 6173                divu.l     D3:D6, -[A5]
000015BA  6564                     bcs        +0x66 /* 00001620 */
fn000015BC:
000015BC  204D                     movea.l    A0, A5
000015BE  6163                     bsr        +0x65 /* 00001623 */
000015C0  6869                     bvc        +0x6B /* 0000162B */
000015C2  6E65                     bgt        +0x67 /* 00001629 */
000015C4  7309                     moveq.l    D1, 0x09
000015C6  0001 0D15                ori.b      D1, 0x15
// begin alternate branch 000015C8-000015CA
label000015C8:
000015C8  0D15                     btst       [A5], D6
// end alternate branch 000015C8-000015CA
label000015C8: // (misaligned)
000015CA  0654 6178                addi.w     [A4], 0x6178 /* 'ax' */
000015CE  6573                     bcs        +0x75 /* 00001643 */
000015D0  0900                     btst       D0, D4
000015D2  010D                     btst       A5, D0
000015D4  1026                     move.b     D0, -[A6]
000015D6  0E4D 6973                .invalid.w A5, 0x6973 /* 'is' */ // invalid immediate operation
000015DA  6365                     bls        +0x67 /* 00001641 */
000015DC  6C6C                     bge        +0x6E /* 0000164A */
000015DE  616E                     bsr        +0x70 /* 0000164E */
000015E0  656F                     bcs        +0x71 /* 00001651 */
000015E2  7573                     moveq.l    D2, 0x73
000015E4  0900                     btst       D0, D4
000015E6  150D                     move.b     -[A2], A5
000015E8  0D0D                     btst       A5, D6
000015EA  0D0D                     btst       A5, D6
000015EC  0D54                     bchg       [A4], D6
000015EE  6F74                     ble        +0x76 /* 00001664 */
000015F0  616C                     bsr        +0x6E /* 0000165E */
000015F2  2045                     movea.l    A0, D5
000015F4  7870                     moveq.l    D4, 0x70
000015F6  656E                     bcs        +0x70 /* 00001666 */
000015F8  7365                     moveq.l    D1, 0x65
000015FA  7309                     moveq.l    D1, 0x09
000015FC  1052                     movea.b    A0, [A2]
000015FE  100D                     move.b     D0, A5
00001600  0D50                     bchg       [A0], D6
00001602  726F                     moveq.l    D1, 0x6F
00001604  6669                     bne        +0x6B /* 0000166F */
00001606  7420                     moveq.l    D2, 0x20
fn00001608:
00001608  2F20                     move.l     -[A7], -[A0]
0000160A  4C6F 7373 0900           divs.l     D0:D0, [A7 + 0x7373]
00001610  1045                     movea.b    A0, D5
00001612  7374                     moveq.l    D1, 0x74
00001614  696D                     bvs        +0x6F /* 00001683 */
00001616  6174                     bsr        +0x76 /* 0000168C */
00001618  6564                     bcs        +0x66 /* 0000167E */
0000161A  2054                     movea.l    A0, [A4]
0000161C  6178                     bsr        +0x7A /* 00001696 */
0000161E  6573                     bcs        +0x75 /* 00001693 */
label00001620:
00001620  0900                     btst       D0, D4
00001622  180D                     move.b     D4, A5
00001624  5175 6172 7465 726C 7920 subq.w     [[A5 + 0x7465726C] + 0x7920], 8
0000162E  4C6F 616E 2050           divu.l     D0:D2, [A7 + 0x616E]
00001634  6179                     bsr        +0x7B /* 000016AF */
00001636  6D65                     blt        +0x67 /* 0000169D */
00001638  6E74                     bgt        +0x76 /* 000016AE */
0000163A  0900                     btst       D0, D4
0000163C  FFFF                     .invalid   <<F/7/7>>
0000163E  A5EE                     syscall    vCkExtFS, flags=5
00001640  FFFF                     .invalid   <<F/7/7>>
00001642  0684 FFFF 0784           addi.l     D4, 0xFFFF0784
00001648  FFFF                     .invalid   <<F/7/7>>
label0000164A:
0000164A  087C FFFF 08B4           bchg.b     0xB4, 0xFF
// begin alternate branch 0000164E-00001658
fn0000164E:
0000164E  08B4 7109 8230           bclr.b     [A4 + A0.w * 2 + 0x30], 0x9 /* '\t' */
00001654  F002 1D14                pmovefd    D2, MR7
// end alternate branch 0000164E-00001658
fn0000164E: // (misaligned)
00001650  7109                     moveq.l    D0, 0x09
00001652  8230 F002                or.b       D1, [A0 + A7.w + 0x2]
00001656  1D14                     move.b     -[A6], [A4]
00001658  9214                     sub.b      D1, [A4]
0000165A  9A14                     sub.b      D5, [A4]
0000165C  A214                     syscall    GetVol/PBHGetVol/HGetVol, flags=2
fn0000165E:
0000165E  AA14                     syscall    RGBForeColor
00001660  E214                     roxr       D4.b, 1
00001662  DA14                     add.b      D5, [A4]
label00001664:
00001664  D214                     add.b      D1, [A4]
label00001666:
00001666  B214                     cmp.b      D1, [A4]
00001668  BA14                     cmp.b      D5, [A4]
0000166A  C214                     and.b      D1, [A4]
0000166C  CA20                     and.b      D5, -[A0]
0000166E  8A1E                     or.b       D5, [A6]+
00001670  C21E                     and.b      D1, [A6]+
00001672  CA1F                     and.b      D5, [A7]+
00001674  121F                     move.b     D1, [A7]+
00001676  1A1F                     move.b     D5, [A7]+
00001678  221F                     move.l     D1, [A7]+
0000167A  2A1F                     move.l     D5, [A7]+
0000167C  321F                     move.w     D1, [A7]+
label0000167E:
0000167E  3A1F                     move.w     D5, [A7]+
00001680  4A1E                     tst.b      [A6]+
00001682  DA1E                     add.b      D5, [A6]+
00001684  E21E                     ror        D6.b, 1
00001686  EA1E                     ror        D6.b, 5
00001688  F21E FA1F                .cpgen     0xF21E, 0xFA1F // unimplemented
fn0000168C:
0000168C  0A01 AA09                xori.b     D1, 0x9 /* '\t' */
00001690  8A81                     or.l       D5, D1
00001692  FF80                     .invalid   <<F/6/7>>
00001694  2109                     move.l     -[A0], A1
fn00001696:
00001696  8230 F002                or.b       D1, [A0 + A7.w + 0x2]
0000169A  041D 1A1D                subi.b     [A5]+, 0x1D
0000169E  221D                     move.l     D1, [A5]+
000016A0  521D                     addq.b     [A5]+, 1
000016A2  4A32 1D2A FF80 2101      tst.b      [[A2 - 0x80 + D1 * 4] + 0x2101]
000016AA  AA30                     syscall    DisposeGDevice/DisposGDevice
000016AC  F002 051C                pmovefd    D2, MR1
// begin alternate branch 000016AE-000016B0
label000016AE:
000016AE  051C                     btst       [A4]+, D2
// end alternate branch 000016AE-000016B0
label000016AE: // (misaligned)
000016B0  D21C                     add.b      D1, [A4]+
000016B2  DA1C                     add.b      D5, [A4]+
000016B4  C21C                     and.b      D1, [A4]+
000016B6  2A1C                     move.l     D5, [A4]+
000016B8  6232                     bhi        +0x34 /* 000016EC */
000016BA  1C5A                     movea.b    A6, [A2]+
000016BC  FF80                     .invalid   <<F/6/7>>
000016BE  221E                     move.l     D1, [A6]+
000016C0  CAFF                     mulu.w     D5, <<invalid special address>>
000016C2  8021                     or.b       D0, -[A1]
000016C4  1F0A                     move.b     -[A7], A2
000016C6  30F0 020E                move.w     [A0]+, [A0 + D0.w * 2 + 0xE]
000016CA  1C6A 1C72                movea.b    A6, [A2 + 0x1C72]
000016CE  1C7A 1C32                movea.b    A6, [PC + 0x1C32 /* 00003302, value 0x12 */]
000016D2  1C9A                     move.b     [A6], [A2]+
000016D4  1C3A 1CA2                move.b     D6, [PC + 0x1CA2 /* 00003378, value 0x12 */]
000016D8  1C42                     movea.b    A6, D2
000016DA  1CAA 1C52                move.b     [A6], [A2 + 0x1C52]
000016DE  1CB2 1C4A                move.b     [A6], [A2 + D1 * 4 + 0x4A]
000016E2  1CE2                     move.b     [A6]+, -[A2]
000016E4  1CEA B116                move.b     [A6]+, [A2 - 0x4EEA]
000016E8  0A30 F002 0416           xori.b     [A0 + D0.w * 4 + 0x16], 0x2
// begin alternate branch 000016EC-000016F0
label000016EC:
000016EC  0416 1216                subi.b     [A6], 0x16
// end alternate branch 000016EC-000016F0
label000016EC: // (misaligned)
000016EE  1216                     move.b     D1, [A6]
000016F0  2216                     move.l     D1, [A6]
000016F2  1A16                     move.b     D5, [A6]
000016F4  2AB1 160A                move.l     [A5], [A1 + D1.w * 8 + 0xA]
000016F8  3216                     move.w     D1, [A6]
000016FA  12FE                     move.b     [A1]+, <<invalid special address>>
000016FC  CC21                     and.b      D6, -[A1]
000016FE  14E2                     move.b     [A2]+, -[A2]
00001700  30F0 0202                move.w     [A0]+, [A0 + D0.w * 2 + 0x2]
00001704  161A                     move.b     D3, [A2]+
00001706  162A 48FF                move.b     D3, [A2 + 0x48FF]
0000170A  FFA5                     .invalid   <<F/6/7>>
0000170C  EEFF FF08                bfset      <<invalid special address>> {D4:8}
00001710  FCFF FF0A                .extension 0xCFF <<F/2-3/6>> // unimplemented
00001714  F4FF                     cpusha     DATA+INST
00001716  FF0B                     .extension 0xF0B <<F/4-5/7>> // unimplemented
00001718  2C71 09F2 30F0 023C 1492 movea.l    A6, [[0x30F0023C] + 0x1492]
00001722  149A                     move.b     [A2], [A2]+
00001724  14A2                     move.b     [A2], -[A2]
00001726  14AA 14E2                move.b     [A2], [A2 + 0x14E2]
0000172A  14DA                     move.b     [A2]+, [A2]+
0000172C  14D2                     move.b     [A2]+, [A2]
0000172E  14B2 14BA                move.b     [A2], [A2 + D1.w * 4 - 0x46]
00001732  09FA                     .incomplete
00001734  14CA                     move.b     [A2]+, A2
00001736  10BA 12AA                move.b     [A0], [PC + 0x12AA /* 000029E2, value 0xDA */]
0000173A  0A02 10CA                xori.b     D2, 0xCA
0000173E  10D2                     move.b     [A0]+, [A2]
00001740  10DA                     move.b     [A0]+, [A2]+
00001742  10E2                     move.b     [A0]+, -[A2]
00001744  10EA 10F2                move.b     [A0]+, [A2 + 0x10F2]
00001748  10FA 1102                move.b     [A0]+, [PC + 0x1102 /* 0000284C, value 0x20 ' ', cstring " mask pict!" */]
0000174C  12A2                     move.b     [A1], -[A2]
0000174E  1252                     movea.b    A1, [A2]
00001750  110A                     move.b     -[A0], A2
00001752  1112                     move.b     -[A0], [A2]
00001754  111A                     move.b     -[A0], [A2]+
00001756  128A                     move.b     [A1], A2
00001758  1292                     move.b     [A1], [A2]
0000175A  129A                     move.b     [A1], [A2]+
0000175C  1122                     move.b     -[A0], -[A2]
0000175E  112A 1132                move.b     -[A0], [A2 + 0x1132]
00001762  113A 1142                move.b     -[A0], [PC + 0x1142 /* 000028A6, value 0x74 't', cstring "t create offscreen port for loc"... */]
00001766  11CA 11DA                move.b     [0x000011DA], A2
0000176A  11D2 1222                move.b     [0x00001222], [A2]
0000176E  122A 1232                move.b     D1, [A2 + 0x1232]
00001772  123A 1242                move.b     D1, [PC + 0x1242 /* 000029B6, value 0x8A */]
00001776  124A                     movea.b    A1, A2
00001778  114A 1152                move.b     [A0 + 0x1152], A2
0000177C  115A 1162                move.b     [A0 + 0x1162], [A2]+
00001780  116A 1172 117A           move.b     [A0 + 0x117A], [A2 + 0x1172]
00001786  1182 125A                move.b     [A0 + D1.w * 2 + 0x5A], D2
0000178A  1192 119A 11A2           move.b     [[ + D1] + 0x11A2], [A2]
00001790  11AA 0A0A 11BA 11C2 B... move.b     [[0x11C2B116 + D1] + 0xA32], [A2 + 0xA0A]
0000179C  1612                     move.b     D3, [A2]
0000179E  FE90 2114                .extension 0xE90 <<F/2-3/7>> // unimplemented
000017A2  E230                     roxr       D0.b, D1
000017A4  F002 0216                pmove      MR0, D2
000017A8  1A16                     move.b     D5, [A6]
000017AA  2AB1 160A                move.l     [A5], [A1 + D1.w * 8 + 0xA]
000017AE  30F0 0204                move.w     [A0]+, [A0 + D0.w * 2 + 0x4]
000017B2  1612                     move.b     D3, [A2]
000017B4  1622                     move.b     D3, -[A2]
000017B6  161A                     move.b     D3, [A2]+
000017B8  162A 4663                move.b     D3, [A2 + 0x4663]
000017BC  6F6D                     ble        +0x6F /* 0000182B */
000017BE  7062                     moveq.l    D0, 0x62
000017C0  6565                     bcs        +0x67 /* 00001827 */
000017C2  702E                     moveq.l    D0, 0x2E
000017C4  766F                     moveq.l    D3, 0x6F
000017C6  6310                     bls        +0x12 /* 000017D8 */
000017C8  F00C 0263                pmove      MR0, A4
000017CC  6F6D                     ble        +0x6F /* 0000183B */
000017CE  7062                     moveq.l    D0, 0x62
000017D0  6565                     bcs        +0x67 /* 00001837 */
000017D2  702E                     moveq.l    D0, 0x2E
000017D4  766F                     moveq.l    D3, 0x6F
000017D6  6363                     bls        +0x65 /* 0000183B */
label000017D8:
000017D8  6F6D                     ble        +0x6F /* 00001847 */
000017DA  7062                     moveq.l    D0, 0x62
000017DC  6565                     bcs        +0x67 /* 00001843 */
000017DE  702E                     moveq.l    D0, 0x2E
000017E0  766F                     moveq.l    D3, 0x6F
000017E2  6310                     bls        +0x12 /* 000017F4 */
000017E4  2012                     move.l     D0, [A2]
000017E6  3E20                     move.w     D7, -[A0]
000017E8  4C4F 414E                divu.l     D6:D4, A7
000017EC  2041                     movea.l    A0, D1
000017EE  4D4F                     chk.w      D6, A7
000017F0  554E                     subq.w     A6, 2
000017F2  5409                     addq.b     A1, 2
label000017F4:
000017F4  0909                     btst       A1, D4
000017F6  3A20                     move.w     D5, -[A0]
000017F8  0063 6F6D                ori.w      -[A3], 0x6F6D /* 'om' */
000017FC  7062                     moveq.l    D0, 0x62
000017FE  6565                     bcs        +0x67 /* 00001865 */
00001800  702E                     moveq.l    D0, 0x2E
00001802  766F                     moveq.l    D3, 0x6F
00001804  6310                     bls        +0x12 /* 00001816 */
00001806  F00C 0263                pmove      MR0, A4
0000180A  6F6D                     ble        +0x6F /* 00001879 */
0000180C  7062                     moveq.l    D0, 0x62
0000180E  6565                     bcs        +0x67 /* 00001875 */
00001810  702E                     moveq.l    D0, 0x2E
00001812  766F                     moveq.l    D3, 0x6F
00001814  6363                     bls        +0x65 /* 00001879 */
label00001816:
00001816  6F6D                     ble        +0x6F /* 00001885 */
00001818  7062                     moveq.l    D0, 0x62
0000181A  6565                     bcs        +0x67 /* 00001881 */
0000181C  702E                     moveq.l    D0, 0x2E
0000181E  766F                     moveq.l    D3, 0x6F
00001820  6310                     bls        +0x12 /* 00001832 */
00001822  3E12                     move.w     D7, [A2]
00001824  3E20                     move.w     D7, -[A0]
00001826  4C4F 414E                divu.l     D6:D4, A7
0000182A  2041                     movea.l    A0, D1
0000182C  4D4F                     chk.w      D6, A7
0000182E  554E                     subq.w     A6, 2
00001830  5409                     addq.b     A1, 2
label00001832:
00001832  0909                     btst       A1, D4
00001834  3A20                     move.w     D5, -[A0]
00001836  0014 3E20                ori.b      [A4], 0x20 /* ' ' */
0000183A  4341                     chk.w      D1, D1
0000183C  5348                     subq.w     A0, 1
0000183E  2041                     movea.l    A0, D1
00001840  5641                     addq.w     D1, 3
00001842  494C                     chk.w      D4, A4
00001844  4142                     chk.w      D0, D2
00001846  4C45 0909                divs.l     D1:D0, D5
0000184A  3A20                     move.w     D5, -[A0]
0000184C  0013 3E20                ori.b      [A3], 0x20 /* ' ' */
00001850  544F                     addq.w     A7, 2
00001852  5441                     addq.w     D1, 2
00001854  4C20 4445                mulu.l     D5:D4, -[A0]
00001858  4254                     clr.w      [A4]
0000185A  5309                     subq.b     A1, 1
0000185C  0909                     btst       A1, D4
0000185E  093A 2010                btst       [PC + 0x2010 /* 00003870, value 0x16 */], D4
00001862  2C14                     move.l     D6, [A4]
00001864  3E20                     move.w     D7, -[A0]
00001866  4352                     chk.w      D1, [A2]
00001868  4544                     chk.w      D2, D4
0000186A  4954                     chk.w      D4, [A4]
0000186C  204C                     movea.l    A0, A4
0000186E  494D                     chk.w      D4, A5
00001870  4954                     chk.w      D4, [A4]
00001872  0909                     btst       A1, D4
00001874  0909                     btst       A1, D4
00001876  3A20                     move.w     D5, -[A0]
00001878  0015 2020                ori.b      [A5], 0x20 /* ' ' */
0000187C  2049                     movea.l    A0, A1
0000187E  4E54 4552                link       A4, -0xFFFFBAAE
00001882  4553                     chk.w      D2, [A3]
00001884  5420                     addq.b     -[A0], 2
00001886  5241                     addq.w     D1, 1
00001888  5445                     addq.w     D5, 2
0000188A  0909                     btst       A1, D4
0000188C  093A 201C                btst       [PC + 0x201C /* 000038AA, value 0x65 'e', cstring "ek Till" */], D4
00001890  1720                     move.b     -[A3], -[A0]
00001892  2020                     move.l     D0, -[A0]
00001894  5155                     subq.w     [A5], 8
00001896  4152                     chk.w      D0, [A2]
00001898  5445                     addq.w     D5, 2
0000189A  524C                     addq.w     A4, 1
0000189C  5920                     subq.b     -[A0], 4
0000189E  5041                     addq.w     D1, 8
000018A0  594D                     subq.w     A5, 4
000018A2  454E                     chk.w      D2, A6
000018A4  5409                     addq.b     A1, 2
000018A6  3A20                     move.w     D5, -[A0]
000018A8  1046                     movea.b    A0, D6
000018AA  123E                     move.b     D1, <<invalid special address>>
000018AC  204C                     movea.l    A0, A4
000018AE  4F41                     chk.w      D7, D1
000018B0  4E20                     .invalid   // invalid opcode 4
000018B2  414D                     chk.w      D0, A5
000018B4  4F55                     chk.w      D7, [A5]
000018B6  4E54 0909                link       A4, -0xFFFFF6F7
000018BA  093A 2000                btst       [PC + 0x2000 /* 000038BC, value 0x6C 'l' */], D4
000018BE  1C3E                     move.b     D6, <<invalid special address>>
000018C0  2055                     movea.l    A0, [A5]
000018C2  7365                     moveq.l    D1, 0x65
000018C4  206B 6579                movea.l    A0, [A3 + 0x6579]
000018C8  7061                     moveq.l    D0, 0x61
000018CA  6420                     bcc        +0x22 /* 000018EC */
000018CC  746F                     moveq.l    D2, 0x6F
000018CE  2065                     movea.l    A0, -[A5]
000018D0  6E74                     bgt        +0x76 /* 00001946 */
000018D2  6572                     bcs        +0x74 /* 00001946 */
000018D4  2061                     movea.l    A0, -[A1]
000018D6  6D6F                     blt        +0x71 /* 00001947 */
000018D8  756E                     moveq.l    D2, 0x6E
000018DA  7400                     moveq.l    D2, 0x00
000018DC  FFFF                     .invalid   <<F/7/7>>
000018DE  A5EE                     syscall    vCkExtFS, flags=5
000018E0  FFFF                     .invalid   <<F/7/7>>
000018E2  0C9A FFFF 0E92           cmpi.l     [A2]+, 0xFFFF0E92
000018E8  FFFF                     .invalid   <<F/7/7>>
000018EA  0ECA                     .incomplete
label000018EC:
000018EC  FFFF                     .invalid   <<F/7/7>>
000018EE  BACE                     cmpa.w     A5, A6
000018F0  710A                     moveq.l    D0, 0x0A
000018F2  1A30 F002                move.b     D5, [A0 + A7.w + 0x2]
000018F6  3C14                     move.w     D6, [A4]
000018F8  9214                     sub.b      D1, [A4]
000018FA  9A14                     sub.b      D5, [A4]
000018FC  A214                     syscall    GetVol/PBHGetVol/HGetVol, flags=2
000018FE  AA14                     syscall    RGBForeColor
00001900  E214                     roxr       D4.b, 1
00001902  DA14                     add.b      D5, [A4]
00001904  D214                     add.b      D1, [A4]
00001906  B214                     cmp.b      D1, [A4]
00001908  BA0A                     cmp.b      D5, A2
0000190A  2214                     move.l     D1, [A4]
0000190C  CA10                     and.b      D5, [A0]
0000190E  BA12                     cmp.b      D5, [A2]
00001910  AA0A                     syscall    PenPixPat
00001912  3210                     move.w     D1, [A0]
00001914  CA10                     and.b      D5, [A0]
00001916  D210                     add.b      D1, [A0]
00001918  DA10                     add.b      D5, [A0]
0000191A  E20A                     lsr        D2.b, 1
0000191C  2A10                     move.l     D5, [A0]
0000191E  F210 FA11                .cpgen     0xF210, 0xFA11 // unimplemented
00001922  0212 A212                andi.b     [A2], 0x12
00001926  5211                     addq.b     [A1], 1
00001928  0A11 1211                xori.b     [A1], 0x11
0000192C  1A12                     move.b     D5, [A2]
0000192E  8A12                     or.b       D5, [A2]
00001930  9212                     sub.b      D1, [A2]
00001932  9A11                     sub.b      D5, [A1]
00001934  220A                     move.l     D1, A2
00001936  4211                     clr.b      [A1]
00001938  3211                     move.w     D1, [A1]
0000193A  3A11                     move.w     D5, [A1]
0000193C  4211                     clr.b      [A1]
0000193E  CA11                     and.b      D5, [A1]
00001940  DA11                     add.b      D5, [A1]
00001942  D212                     add.b      D1, [A2]
00001944  2212                     move.l     D1, [A2]
label00001946:
00001946  2A12                     move.l     D5, [A2]
00001948  3212                     move.w     D1, [A2]
0000194A  3A12                     move.w     D5, [A2]
0000194C  4212                     clr.b      [A2]
0000194E  4A11                     tst.b      [A1]
00001950  4A11                     tst.b      [A1]
00001952  5211                     addq.b     [A1], 1
00001954  5A11                     addq.b     [A1], 5
00001956  6211                     bhi        +0x13 /* 00001969 */
00001958  6A11                     bpl        +0x13 /* 0000196B */
0000195A  7211                     moveq.l    D1, 0x11
0000195C  7A11                     moveq.l    D5, 0x11
0000195E  8212                     or.b       D1, [A2]
00001960  5A11                     addq.b     [A1], 5
00001962  9211                     sub.b      D1, [A1]
00001964  9A11                     sub.b      D5, [A1]
00001966  A211                     syscall    GetEOF, flags=2
00001968  AA0A                     syscall    PenPixPat
0000196A  4A11                     tst.b      [A1]
0000196C  BA0A                     cmp.b      D5, A2
0000196E  52B1 160A                addq.l     [A1 + D1.w * 8 + 0xA], 1
00001972  3216                     move.w     D1, [A6]
00001974  12FE                     move.b     [A1]+, <<invalid special address>>
00001976  4E21                     .invalid   // invalid opcode 4
00001978  14E2                     move.b     [A2]+, -[A2]
0000197A  30F0 0202                move.w     [A0]+, [A0 + D0.w * 2 + 0x2]
0000197E  161A                     move.b     D3, [A2]+
00001980  162A B116                move.b     D3, [A2 - 0x4EEA]
00001984  0A30 F002 0416           xori.b     [A0 + D0.w * 4 + 0x16], 0x2
0000198A  1216                     move.b     D1, [A6]
0000198C  2216                     move.l     D1, [A6]
0000198E  1A16                     move.b     D5, [A6]
00001990  2A40                     movea.l    A5, D0
00001992  440C                     neg.b      A4
00001994  6974                     bvs        +0x76 /* 00001A0A */
00001996  656D                     bcs        +0x6F /* 00001A05 */
00001998  7465                     moveq.l    D2, 0x65
0000199A  7874                     moveq.l    D4, 0x74
0000199C  2E64                     movea.l    A7, -[A4]
0000199E  6174                     bsr        +0x76 /* 00001A14 */
000019A0  0008 5072                ori.b      A0, 0x72 /* 'r' */
000019A4  6963                     bvs        +0x65 /* 00001A09 */
000019A6  650D                     bcs        +0xF /* 000019B5 */
000019A8  2020                     move.l     D0, -[A0]
000019AA  0006 4F77                ori.b      D6, 0x77 /* 'w' */
000019AE  6E0D                     bgt        +0xF /* 000019BD */
000019B0  2020                     move.l     D0, -[A0]
000019B2  0023 636F                ori.b      -[A3], 0x6F /* 'o' */
000019B6  756C                     moveq.l    D2, 0x6C
000019B8  646E                     bcc        +0x70 /* 00001A28 */
000019BA  2774 2063 7265           move.l     [A3 + 0x7265], [A4 + D2.w + 0x63]
000019C0  6174                     bsr        +0x76 /* 00001A36 */
000019C2  6520                     bcs        +0x22 /* 000019E4 */
000019C4  4255                     clr.w      [A5]
000019C6  5920                     subq.b     -[A0], 4
000019C8  6F66                     ble        +0x68 /* 00001A30 */
000019CA  6673                     bne        +0x75 /* 00001A3F */
000019CC  6372                     bls        +0x74 /* 00001A40 */
000019CE  6565                     bcs        +0x67 /* 00001A35 */
000019D0  6E20                     bgt        +0x22 /* 000019F2 */
000019D2  706F                     moveq.l    D0, 0x6F
000019D4  7274                     moveq.l    D1, 0x74
000019D6  7310                     moveq.l    D1, 0x10
000019D8  24FF                     move.l     [A2]+, <<invalid special address>>
000019DA  FFA5                     .invalid   <<F/6/7>>
000019DC  EEFF FF0F                bfset      <<invalid special address>> {D4:15}
000019E0  6CFF FF11 64FF           bge        -0xEE9AFF /* FF117EE1 */
// begin alternate branch 000019E4-000019EA
label000019E4:
000019E4  64FF FF11 9CFF           bcc        -0xEE62FF /* FF11B6E5 */
// end alternate branch 000019E4-000019EA
label000019E4: // (misaligned)
000019E6  FF11                     .extension 0xF11 <<F/4-5/7>> // unimplemented
000019E8  9CFF                     sub.w      A6, <<invalid special address>>
000019EA  FFBA                     .invalid   <<F/6/7>>
000019EC  CEFF                     mulu.w     D7, <<invalid special address>>
000019EE  FF11                     .extension 0xF11 <<F/4-5/7>> // unimplemented
000019F0  D4FF                     add.w      A2, <<invalid special address>>
label000019F2:
000019F2  FF12                     .extension 0xF12 <<F/4-5/7>> // unimplemented
000019F4  D4FF                     add.w      A2, <<invalid special address>>
000019F6  FF13                     .extension 0xF13 <<F/4-5/7>> // unimplemented
000019F8  CCFF                     mulu.w     D6, <<invalid special address>>
000019FA  FF14                     .extension 0xF14 <<F/4-5/7>> // unimplemented
000019FC  0471 0BE2 30F0           subi.w     [A1 + D3.w - 0x10], 0xBE2
00001A02  023C 1492                andi.b     ccr, 146
00001A06  149A                     move.b     [A2], [A2]+
00001A08  14A2                     move.b     [A2], -[A2]
label00001A0A:
00001A0A  14AA 14E2                move.b     [A2], [A2 + 0x14E2]
00001A0E  14DA                     move.b     [A2]+, [A2]+
00001A10  14D2                     move.b     [A2]+, [A2]
00001A12  14B2 14BA                move.b     [A2], [A2 + D1.w * 4 - 0x46]
// begin alternate branch 00001A14-00001A18
fn00001A14:
00001A14  14BA 0BEA                move.b     [A2], [PC + 0xBEA /* 00002600, value 0x69 'i' */]
// end alternate branch 00001A14-00001A18
fn00001A14: // (misaligned)
00001A16  0BEA                     .incomplete
00001A18  14CA                     move.b     [A2]+, A2
00001A1A  10BA 12AA                move.b     [A0], [PC + 0x12AA /* 00002CC6, value 0xBA */]
00001A1E  0BF2                     .incomplete
00001A20  10CA                     move.b     [A0]+, A2
00001A22  10D2                     move.b     [A0]+, [A2]
00001A24  10DA                     move.b     [A0]+, [A2]+
00001A26  10E2                     move.b     [A0]+, -[A2]
label00001A28:
00001A28  10EA 10F2                move.b     [A0]+, [A2 + 0x10F2]
00001A2C  10FA 1102                move.b     [A0]+, [PC + 0x1102 /* 00002B30, value 0xAA */]
label00001A30:
00001A30  12A2                     move.b     [A1], -[A2]
00001A32  1252                     movea.b    A1, [A2]
00001A34  110A                     move.b     -[A0], A2
fn00001A36:
00001A36  1112                     move.b     -[A0], [A2]
00001A38  111A                     move.b     -[A0], [A2]+
00001A3A  128A                     move.b     [A1], A2
00001A3C  1292                     move.b     [A1], [A2]
00001A3E  129A                     move.b     [A1], [A2]+
label00001A40:
00001A40  1122                     move.b     -[A0], -[A2]
00001A42  112A 1132                move.b     -[A0], [A2 + 0x1132]
00001A46  113A 1142                move.b     -[A0], [PC + 0x1142 /* 00002B8A, value 0x72 'r' */]
00001A4A  11CA 11DA                move.b     [0x000011DA], A2
00001A4E  11D2 1222                move.b     [0x00001222], [A2]
00001A52  122A 1232                move.b     D1, [A2 + 0x1232]
00001A56  123A 1242                move.b     D1, [PC + 0x1242 /* 00002C9A, value 0x2 */]
00001A5A  124A                     movea.b    A1, A2
00001A5C  114A 1152                move.b     [A0 + 0x1152], A2
00001A60  115A 1162                move.b     [A0 + 0x1162], [A2]+
00001A64  116A 1172 117A           move.b     [A0 + 0x117A], [A2 + 0x1172]
00001A6A  1182 125A                move.b     [A0 + D1.w * 2 + 0x5A], D2
00001A6E  0C0A 119A                cmpi.b     A2, 0x9A
00001A72  11A2 11AA 0C02 11BA      move.b     [[0xC02 + D1] + 0x11BA], -[A2]
00001A7A  0A5A B116                xori.w     [A2]+, 0xB116
00001A7E  0A32 1612 FDBC           xori.b     <<invalid full ext with I/IS == 4>>, 0x12
00001A84  2114                     move.l     -[A0], [A4]
00001A86  E230                     roxr       D0.b, D1
00001A88  F002 0216                pmove      MR0, D2
00001A8C  1A16                     move.b     D5, [A6]
00001A8E  2AB1 160A                move.l     [A5], [A1 + D1.w * 8 + 0xA]
00001A92  30F0 0204                move.w     [A0]+, [A0 + D0.w * 2 + 0x4]
00001A96  1612                     move.b     D3, [A2]
00001A98  1622                     move.b     D3, -[A2]
00001A9A  161A                     move.b     D3, [A2]+
00001A9C  162A B10C                move.b     D3, [A2 - 0x4EF4]
00001AA0  1230 F002                move.b     D1, [A0 + A7.w + 0x2]
00001AA4  1D14                     move.b     -[A6], [A4]
00001AA6  9214                     sub.b      D1, [A4]
00001AA8  9A14                     sub.b      D5, [A4]
00001AAA  A214                     syscall    GetVol/PBHGetVol/HGetVol, flags=2
00001AAC  AA14                     syscall    RGBForeColor
00001AAE  E214                     roxr       D4.b, 1
00001AB0  DA14                     add.b      D5, [A4]
00001AB2  D214                     add.b      D1, [A4]
00001AB4  B214                     cmp.b      D1, [A4]
00001AB6  BA14                     cmp.b      D5, [A4]
00001AB8  C214                     and.b      D1, [A4]
00001ABA  CA20                     and.b      D5, -[A0]
00001ABC  8A1E                     or.b       D5, [A6]+
00001ABE  C21E                     and.b      D1, [A6]+
00001AC0  CA1F                     and.b      D5, [A7]+
00001AC2  121F                     move.b     D1, [A7]+
00001AC4  1A1F                     move.b     D5, [A7]+
00001AC6  221F                     move.l     D1, [A7]+
00001AC8  2A1F                     move.l     D5, [A7]+
00001ACA  321F                     move.w     D1, [A7]+
00001ACC  3A1F                     move.w     D5, [A7]+
00001ACE  4A1E                     tst.b      [A6]+
00001AD0  DA1E                     add.b      D5, [A6]+
00001AD2  E21E                     ror        D6.b, 1
00001AD4  EA1E                     ror        D6.b, 5
00001AD6  F21E FA1F                .cpgen     0xF21E, 0xFA1F // unimplemented
00001ADA  0A01 AA0C                xori.b     D1, 0xC
00001ADE  1A81                     move.b     [A5], D1
00001AE0  FF80                     .invalid   <<F/6/7>>
00001AE2  210C                     move.l     -[A0], A4
00001AE4  1230 F002                move.b     D1, [A0 + A7.w + 0x2]
00001AE8  041D 1A1D                subi.b     [A5]+, 0x1D
00001AEC  221D                     move.l     D1, [A5]+
00001AEE  521D                     addq.b     [A5]+, 1
00001AF0  4A32 1D2A FF80 2101      tst.b      [[A2 - 0x80 + D1 * 4] + 0x2101]
00001AF8  AA30                     syscall    DisposeGDevice/DisposGDevice
00001AFA  F002 051C                pmovefd    D2, MR1
00001AFE  D21C                     add.b      D1, [A4]+
00001B00  DA1C                     add.b      D5, [A4]+
00001B02  C21C                     and.b      D1, [A4]+
00001B04  2A1C                     move.l     D5, [A4]+
00001B06  6232                     bhi        +0x34 /* 00001B3A */
00001B08  1C5A                     movea.b    A6, [A2]+
00001B0A  FF80                     .invalid   <<F/6/7>>
00001B0C  221E                     move.l     D1, [A6]+
00001B0E  CAFF                     mulu.w     D5, <<invalid special address>>
00001B10  8021                     or.b       D0, -[A1]
00001B12  1F0A                     move.b     -[A7], A2
00001B14  30F0 020E                move.w     [A0]+, [A0 + D0.w * 2 + 0xE]
00001B18  1C6A 1C72                movea.b    A6, [A2 + 0x1C72]
00001B1C  1C7A 1C32                movea.b    A6, [PC + 0x1C32 /* 00003750, value 0xBA */]
00001B20  1C9A                     move.b     [A6], [A2]+
00001B22  1C3A 1CA2                move.b     D6, [PC + 0x1CA2 /* 000037C6, value 0x61 'a' */]
00001B26  1C42                     movea.b    A6, D2
00001B28  1CAA 1C52                move.b     [A6], [A2 + 0x1C52]
00001B2C  1CB2 1C4A                move.b     [A6], [A2 + D1 * 4 + 0x4A]
00001B30  1CE2                     move.b     [A6]+, -[A2]
00001B32  1CEA B116                move.b     [A6]+, [A2 - 0x4EEA]
00001B36  0A30 F002 0416           xori.b     [A0 + D0.w * 4 + 0x16], 0x2
// begin alternate branch 00001B3A-00001B3E
label00001B3A:
00001B3A  0416 1216                subi.b     [A6], 0x16
// end alternate branch 00001B3A-00001B3E
label00001B3A: // (misaligned)
00001B3C  1216                     move.b     D1, [A6]
00001B3E  2216                     move.l     D1, [A6]
00001B40  1A16                     move.b     D5, [A6]
00001B42  2AB1 160A                move.l     [A5], [A1 + D1.w * 8 + 0xA]
00001B46  3216                     move.w     D1, [A6]
00001B48  12FE                     move.b     [A1]+, <<invalid special address>>
00001B4A  BE21                     cmp.b      D7, -[A1]
00001B4C  14E2                     move.b     [A2]+, -[A2]
00001B4E  30F0 0202                move.w     [A0]+, [A0 + D0.w * 2 + 0x2]
00001B52  161A                     move.b     D3, [A2]+
00001B54  162A 0027                move.b     D3, [A2 + 0x27]
00001B58  09A1                     bclr       -[A1], D4
00001B5A  00A2 00A3 00A0           ori.l      -[A2], 0xA300A0
00001B60  00C0                     .incomplete
00001B62  00C1                     .incomplete
00001B64  00C2                     .incomplete
00001B66  00C3                     .incomplete
00001B68  00C4                     .incomplete
00001B6A  00C5                     .incomplete
00001B6C  00C6                     .incomplete
00001B6E  00C7                     .incomplete
00001B70  00C8                     .incomplete
00001B72  00C9                     .incomplete
00001B74  00CA                     .incomplete
00001B76  00CB                     .incomplete
00001B78  00CC                     .incomplete
00001B7A  00CD                     .incomplete
00001B7C  00CE                     .incomplete
00001B7E  00CF                     .incomplete
00001B80  0027 0301                ori.b      -[A7], 0x1
00001B84  0002 0003                ori.b      D2, 0x3
00001B88  0004 0005                ori.b      D4, 0x5
00001B8C  0007 0008                ori.b      D7, 0x8
00001B90  0040 0041                ori.w      D0, 0x41 /* 'A' */
00001B94  0042 0043                ori.w      D2, 0x43 /* 'C' */
00001B98  0044 0045                ori.w      D4, 0x45 /* 'E' */
00001B9C  0046 0047                ori.w      D6, 0x47 /* 'G' */
00001BA0  0048 00DC                ori.w      A0, 0xDC
00001BA4  00DD                     .incomplete
00001BA6  00DE                     .incomplete
00001BA8  00DF                     .incomplete
00001BAA  0015 0504                ori.b      [A5], 0x4
00001BAE  0014 001C                ori.b      [A4], 0x1C
00001BB2  0025 0029                ori.b      -[A5], 0x29 /* ')' */
00001BB6  0444 6174                subi.w     D4, 0x6174 /* 'at' */
00001BBA  6500 0546                bcs        +0x548 /* 00002102 */
00001BBE  756E                     moveq.l    D2, 0x6E
00001BC0  6473                     bcc        +0x75 /* 00001C35 */
00001BC2  1305                     move.b     -[A1], D5
00001BC4  5765                     subq.w     -[A5], 3
00001BC6  656B                     bcs        +0x6D /* 00001C33 */
00001BC8  2010                     move.l     D0, [A0]
00001BCA  5604                     addq.b     D4, 3
00001BCC  206F 6620                movea.l    A0, [A7 + 0x6620]
00001BD0  0004 4A61                ori.b      D4, 0x61 /* 'a' */
00001BD4  6E20                     bgt        +0x22 /* 00001BF6 */
00001BD6  0004 4665                ori.b      D4, 0x65 /* 'e' */
00001BDA  6220                     bhi        +0x22 /* 00001BFC */
00001BDC  0004 4D61                ori.b      D4, 0x61 /* 'a' */
00001BE0  7220                     moveq.l    D1, 0x20
00001BE2  0004 4170                ori.b      D4, 0x70 /* 'p' */
00001BE6  7220                     moveq.l    D1, 0x20
00001BE8  0004 4D61                ori.b      D4, 0x61 /* 'a' */
00001BEC  7920                     moveq.l    D4, 0x20
00001BEE  0004 4A75                ori.b      D4, 0x75 /* 'u' */
00001BF2  6E20                     bgt        +0x22 /* 00001C14 */
00001BF4  0004 4A75                ori.b      D4, 0x75 /* 'u' */
// begin alternate branch 00001BF6-00001BFA
label00001BF6:
00001BF6  4A75 6C20                tst.w      [A5 + D6 * 4 + 0x20]
// end alternate branch 00001BF6-00001BFA
label00001BF6: // (misaligned)
00001BF8  6C20                     bge        +0x22 /* 00001C1A */
00001BFA  0004 4175                ori.b      D4, 0x75 /* 'u' */
// begin alternate branch 00001BFC-00001C04
label00001BFC:
00001BFC  4175 6720 0004           chk.w      D0, [A5 + 0x4 + D6 * 8]
00001C02  5365                     subq.w     -[A5], 1
// end alternate branch 00001BFC-00001C04
label00001BFC: // (misaligned)
00001BFE  6720                     beq        +0x22 /* 00001C20 */
00001C00  0004 5365                ori.b      D4, 0x65 /* 'e' */
00001C04  7020                     moveq.l    D0, 0x20
00001C06  0004 4F63                ori.b      D4, 0x63 /* 'c' */
00001C0A  7420                     moveq.l    D2, 0x20
00001C0C  0004 4E6F                ori.b      D4, 0x6F /* 'o' */
00001C10  7620                     moveq.l    D3, 0x20
00001C12  0004 4465                ori.b      D4, 0x65 /* 'e' */
// begin alternate branch 00001C14-00001C16
label00001C14:
00001C14  4465                     neg.w      -[A5]
// end alternate branch 00001C14-00001C16
label00001C14: // (misaligned)
00001C16  6320                     bls        +0x22 /* 00001C38 */
00001C18  0007 6F6F                ori.b      D7, 0x6F /* 'o' */
// begin alternate branch 00001C1A-00001C1C
label00001C1A:
00001C1A  6F6F                     ble        +0x71 /* 00001C8B */
// end alternate branch 00001C1A-00001C1C
label00001C1A: // (misaligned)
00001C1C  7073                     moveq.l    D0, 0x73
00001C1E  3A20                     move.w     D5, -[A0]
label00001C20:
00001C20  2010                     move.l     D0, [A0]
00001C22  20FF                     move.l     [A0]+, <<invalid special address>>
00001C24  FFA5                     .invalid   <<F/6/7>>
00001C26  EEFF FF9B                bfset      <<invalid special address>> {D6:27}
00001C2A  36FF                     move.w     [A3]+, <<invalid special address>>
00001C2C  FF9D                     .invalid   <<F/6/7>>
00001C2E  2EFF                     move.l     [A7]+, <<invalid special address>>
00001C30  FF9D                     .invalid   <<F/6/7>>
00001C32  66FF FF15 2AFF           bne        -0xEAD4FF /* FF154733 */
label00001C38:
00001C38  FF17                     .extension 0xF17 <<F/4-5/7>> // unimplemented
00001C3A  22FF                     move.l     [A1]+, <<invalid special address>>
00001C3C  FF17                     .extension 0xF17 <<F/4-5/7>> // unimplemented
00001C3E  5AFF                     spl        <<invalid special address>>
00001C40  FFBA                     .invalid   <<F/6/7>>
00001C42  CE71 0A6A                and.w      D7, [A1 + D0 * 2 + 0x6A]
00001C46  30F0 023C                move.w     [A0]+, [A0 + D0.w * 2 + 0x3C]
00001C4A  1492                     move.b     [A2], [A2]
00001C4C  149A                     move.b     [A2], [A2]+
00001C4E  14A2                     move.b     [A2], -[A2]
00001C50  14AA 14E2                move.b     [A2], [A2 + 0x14E2]
00001C54  14DA                     move.b     [A2]+, [A2]+
00001C56  14D2                     move.b     [A2]+, [A2]
00001C58  14B2 14BA                move.b     [A2], [A2 + D1.w * 4 - 0x46]
00001C5C  0A72 14CA 10BA           xori.w     [A2 + D1.w - 0x46], 0x14CA
00001C62  12AA 109A                move.b     [A1], [A2 + 0x109A]
00001C66  10CA                     move.b     [A0]+, A2
00001C68  10A2                     move.b     [A0], -[A2]
00001C6A  10DA                     move.b     [A0]+, [A2]+
00001C6C  10E2                     move.b     [A0]+, -[A2]
00001C6E  10EA 10F2                move.b     [A0]+, [A2 + 0x10F2]
00001C72  10FA 1102                move.b     [A0]+, [PC + 0x1102 /* 00002D76, value 0x72 'r' */]
00001C76  12A2                     move.b     [A1], -[A2]
00001C78  1252                     movea.b    A1, [A2]
00001C7A  110A                     move.b     -[A0], A2
00001C7C  1112                     move.b     -[A0], [A2]
00001C7E  111A                     move.b     -[A0], [A2]+
00001C80  128A                     move.b     [A1], A2
00001C82  1292                     move.b     [A1], [A2]
00001C84  129A                     move.b     [A1], [A2]+
00001C86  1122                     move.b     -[A0], -[A2]
00001C88  1082                     move.b     [A0], D2
00001C8A  1132 113A 1142 11CA 11DA move.b     -[A0], [[A2 + 0x114211CA + D1] + 0x11DA]
00001C94  11D2 1222                move.b     [0x00001222], [A2]
00001C98  122A 1232                move.b     D1, [A2 + 0x1232]
00001C9C  123A 1242                move.b     D1, [PC + 0x1242 /* 00002EE0, value 0x11 */]
00001CA0  124A                     movea.b    A1, A2
00001CA2  114A 1152                move.b     [A0 + 0x1152], A2
00001CA6  115A 1162                move.b     [A0 + 0x1162], [A2]+
00001CAA  116A 1172 117A           move.b     [A0 + 0x117A], [A2 + 0x1172]
00001CB0  1182 1092                move.b     [A0 + D1.w - 0x6E], D2
00001CB4  1192 119A 11A2           move.b     [[ + D1] + 0x11A2], [A2]
00001CBA  11AA 0A7A 11BA 0A8A B... move.b     [[0xA8AB116 + D1] + 0xA30], [A2 + 0xA7A]
00001CC6  F002 0416                pmove      D2, MR1
00001CCA  1216                     move.b     D1, [A6]
00001CCC  2216                     move.l     D1, [A6]
00001CCE  1A16                     move.b     D5, [A6]
00001CD0  2AB1 160A                move.l     [A5], [A1 + D1.w * 8 + 0xA]
00001CD4  3216                     move.w     D1, [A6]
00001CD6  12FE                     move.b     [A1]+, <<invalid special address>>
00001CD8  6A21                     bpl        +0x23 /* 00001CFB */
00001CDA  14E2                     move.b     [A2]+, -[A2]
00001CDC  30F0 0202                move.w     [A0]+, [A0 + D0.w * 2 + 0x2]
00001CE0  161A                     move.b     D3, [A2]+
00001CE2  162A 4AFF                move.b     D3, [A2 + 0x4AFF]
00001CE6  FFA5                     .invalid   <<F/6/7>>
00001CE8  EEFF FF17                bfset      <<invalid special address>> {D4:23}
00001CEC  A6FF                     syscall    XFindLine/TEFindLine, flags=6
00001CEE  FF18                     .extension 0xF18 <<F/4-5/7>> // unimplemented
00001CF0  A6FF                     syscall    XFindLine/TEFindLine, flags=6
00001CF2  FF19                     .extension 0xF19 <<F/4-5/7>> // unimplemented
00001CF4  9EFF                     sub.w      A7, <<invalid special address>>
00001CF6  FF19                     .extension 0xF19 <<F/4-5/7>> // unimplemented
00001CF8  D671 0CAA                add.w      D3, [A1 + D0 * 4 - 0x56]
00001CFC  30F0 021D                move.w     [A0]+, [A0 + D0.w * 2 + 0x1D]
00001D00  1492                     move.b     [A2], [A2]
00001D02  149A                     move.b     [A2], [A2]+
00001D04  14A2                     move.b     [A2], -[A2]
00001D06  14AA 14E2                move.b     [A2], [A2 + 0x14E2]
00001D0A  14DA                     move.b     [A2]+, [A2]+
00001D0C  14D2                     move.b     [A2]+, [A2]
00001D0E  14B2 14BA                move.b     [A2], [A2 + D1.w * 4 - 0x46]
00001D12  14C2                     move.b     [A2]+, D2
00001D14  14CA                     move.b     [A2]+, A2
00001D16  208A                     move.l     [A0], A2
00001D18  1EC2                     move.b     [A7]+, D2
00001D1A  1ECA                     move.b     [A7]+, A2
00001D1C  1F12                     move.b     -[A7], [A2]
00001D1E  1F1A                     move.b     -[A7], [A2]+
00001D20  1F22                     move.b     -[A7], -[A2]
00001D22  1F2A 1F32                move.b     -[A7], [A2 + 0x1F32]
00001D26  1F3A 1F4A                move.b     -[A7], [PC + 0x1F4A /* 00003C72, value 0x1 */]
00001D2A  1EDA                     move.b     [A7]+, [A2]+
00001D2C  1EE2                     move.b     [A7]+, -[A2]
00001D2E  1EEA 1EF2                move.b     [A7]+, [A2 + 0x1EF2]
00001D32  1EFA 1F0A                move.b     [A7]+, [PC + 0x1F0A /* 00003C3E, value 0x1F */]
00001D36  01AA 0CBA                bclr       [A2 + 0xCBA], D0
00001D3A  81FF                     divs.w     D0, <<invalid special address>>
00001D3C  8021                     or.b       D0, -[A1]
00001D3E  0CAA 30F0 0204 1D1A      cmpi.l     [A2 + 0x1D1A], 0x30F00204
00001D46  1D22                     move.b     -[A6], -[A2]
00001D48  1D52 1D4A                move.b     [A6 + 0x1D4A], [A2]
00001D4C  321D                     move.w     D1, [A5]+
00001D4E  2AFF                     move.l     [A5]+, <<invalid special address>>
00001D50  8021                     or.b       D0, -[A1]
00001D52  01AA 30F0                bclr       [A2 + 0x30F0], D0
00001D56  0205 1CD2                andi.b     D5, 0xD2
00001D5A  1CDA                     move.b     [A6]+, [A2]+
00001D5C  1CC2                     move.b     [A6]+, D2
00001D5E  1C2A 1C62                move.b     D6, [A2 + 0x1C62]
00001D62  321C                     move.w     D1, [A4]+
00001D64  5AFF                     spl        <<invalid special address>>
00001D66  8022                     or.b       D0, -[A2]
00001D68  1ECA                     move.b     [A7]+, A2
00001D6A  FF80                     .invalid   <<F/6/7>>
00001D6C  211F                     move.l     -[A0], [A7]+
00001D6E  0A30 F002 0E1C           xori.b     [A0 + D0 * 8 + 0x1C], 0x2
00001D74  6A1C                     bpl        +0x1E /* 00001D92 */
00001D76  721C                     moveq.l    D1, 0x1C
00001D78  7A1C                     moveq.l    D5, 0x1C
00001D7A  321C                     move.w     D1, [A4]+
00001D7C  9A1C                     sub.b      D5, [A4]+
00001D7E  3A1C                     move.w     D5, [A4]+
00001D80  A21C                     syscall    FreeMem, flags=2
00001D82  421C                     clr.b      [A4]+
00001D84  AA1C                     syscall    SetCCursor
00001D86  521C                     addq.b     [A4]+, 1
00001D88  B21C                     cmp.b      D1, [A4]+
00001D8A  4A1C                     tst.b      [A4]+
00001D8C  E21C                     ror        D4.b, 1
00001D8E  EAB1                     roxr       D1, D5
00001D90  160A                     move.b     D3, A2
label00001D92:
00001D92  30F0 0204                move.w     [A0]+, [A0 + D0.w * 2 + 0x4]
00001D96  1612                     move.b     D3, [A2]
00001D98  1622                     move.b     D3, -[A2]
00001D9A  161A                     move.b     D3, [A2]+
00001D9C  162A B116                move.b     D3, [A2 - 0x4EEA]
00001DA0  0A32 1612 FEC4           xori.b     [A2 + A7 * 8 - 0x3C], 0x12
00001DA6  2114                     move.l     -[A0], [A4]
00001DA8  E230                     roxr       D0.b, D1
00001DAA  F002 0216                pmove      MR0, D2
00001DAE  1A16                     move.b     D5, [A6]
00001DB0  2A48                     movea.l    A5, A0
00001DB2  FFFF                     .invalid   <<F/7/7>>
00001DB4  A5EE                     syscall    vCkExtFS, flags=5
00001DB6  FFFF                     .invalid   <<F/7/7>>
00001DB8  1A1E                     move.b     D5, [A6]+
00001DBA  FFFF                     .invalid   <<F/7/7>>
00001DBC  1C16                     move.b     D6, [A6]
00001DBE  FFFF                     .invalid   <<F/7/7>>
00001DC0  1C4E                     movea.b    A6, A6
00001DC2  710A                     moveq.l    D0, 0x0A
00001DC4  B230 F002                cmp.b      D1, [A0 + A7.w + 0x2]
00001DC8  3C14                     move.w     D6, [A4]
00001DCA  9214                     sub.b      D1, [A4]
00001DCC  9A14                     sub.b      D5, [A4]
00001DCE  A214                     syscall    GetVol/PBHGetVol/HGetVol, flags=2
00001DD0  AA14                     syscall    RGBForeColor
00001DD2  E214                     roxr       D4.b, 1
00001DD4  DA14                     add.b      D5, [A4]
00001DD6  D214                     add.b      D1, [A4]
00001DD8  B214                     cmp.b      D1, [A4]
00001DDA  BA0A                     cmp.b      D5, A2
00001DDC  BA14                     cmp.b      D5, [A4]
00001DDE  CA10                     and.b      D5, [A0]
00001DE0  BA12                     cmp.b      D5, [A2]
00001DE2  AA10                     syscall    FillCRoundRect
00001DE4  C210                     and.b      D1, [A0]
00001DE6  CA10                     and.b      D5, [A0]
00001DE8  D210                     add.b      D1, [A0]
00001DEA  DA10                     add.b      D5, [A0]
00001DEC  E210                     roxr       D0.b, 1
00001DEE  EA10                     roxr       D0.b, 5
00001DF0  F210 FA11                .cpgen     0xF210, 0xFA11 // unimplemented
00001DF4  0212 A212                andi.b     [A2], 0x12
00001DF8  5211                     addq.b     [A1], 1
00001DFA  0A11 1211                xori.b     [A1], 0x11
00001DFE  1A12                     move.b     D5, [A2]
00001E00  8A12                     or.b       D5, [A2]
00001E02  9212                     sub.b      D1, [A2]
00001E04  9A11                     sub.b      D5, [A1]
00001E06  2211                     move.l     D1, [A1]
00001E08  2A11                     move.l     D5, [A1]
00001E0A  3211                     move.w     D1, [A1]
00001E0C  3A11                     move.w     D5, [A1]
00001E0E  4211                     clr.b      [A1]
00001E10  CA11                     and.b      D5, [A1]
00001E12  DA11                     add.b      D5, [A1]
00001E14  D212                     add.b      D1, [A2]
00001E16  2212                     move.l     D1, [A2]
00001E18  2A12                     move.l     D5, [A2]
00001E1A  3212                     move.w     D1, [A2]
00001E1C  3A12                     move.w     D5, [A2]
00001E1E  4212                     clr.b      [A2]
00001E20  4A11                     tst.b      [A1]
00001E22  4A11                     tst.b      [A1]
00001E24  5211                     addq.b     [A1], 1
00001E26  5A11                     addq.b     [A1], 5
00001E28  6211                     bhi        +0x13 /* 00001E3B */
00001E2A  6A11                     bpl        +0x13 /* 00001E3D */
00001E2C  7211                     moveq.l    D1, 0x11
00001E2E  7A11                     moveq.l    D5, 0x11
00001E30  8212                     or.b       D1, [A2]
00001E32  5A11                     addq.b     [A1], 5
00001E34  9211                     sub.b      D1, [A1]
00001E36  9A11                     sub.b      D5, [A1]
00001E38  A211                     syscall    GetEOF, flags=2
00001E3A  AA0A                     syscall    PenPixPat
00001E3C  C211                     and.b      D1, [A1]
00001E3E  BA11                     cmp.b      D5, [A1]
00001E40  C2B1 160A                and.l      D1, [A1 + D1.w * 8 + 0xA]
00001E44  3216                     move.w     D1, [A6]
00001E46  12FE                     move.b     [A1]+, <<invalid special address>>
00001E48  8021                     or.b       D0, -[A1]
00001E4A  14E2                     move.b     [A2]+, -[A2]
00001E4C  30F0 0202                move.w     [A0]+, [A0 + D0.w * 2 + 0x2]
00001E50  161A                     move.b     D3, [A2]+
00001E52  162A B116                move.b     D3, [A2 - 0x4EEA]
00001E56  0A30 F002 0416           xori.b     [A0 + D0.w * 4 + 0x16], 0x2
00001E5C  1216                     move.b     D1, [A6]
00001E5E  2216                     move.l     D1, [A6]
00001E60  1A16                     move.b     D5, [A6]
00001E62  2A70 6C08                movea.l    A5, [A0 + D6 * 4 + 0x8]
00001E66  556E 7469                subq.w     [A6 + 0x7469], 2
00001E6A  746C                     moveq.l    D2, 0x6C
00001E6C  6564                     bcs        +0x66 /* 00001ED2 */
00001E6E  0063 6C69                ori.w      -[A3], 0x6C69 /* 'li' */
00001E72  636B                     bls        +0x6D /* 00001EDF */
00001E74  2E76 6F63 0008 436F 7374 movea.l    A7, [[A6 + 0x8] + 0x436F7374]
00001E7E  3A20                     move.w     D5, -[A0]
00001E80  3235 0006                move.w     D1, [A5 + D0.w + 0x6]
00001E84  436F 7374                chk.w      D1, [A7 + 0x7374]
00001E88  3A20                     move.w     D5, -[A0]
00001E8A  0006 436F                ori.b      D6, 0x6F /* 'o' */
00001E8E  7374                     moveq.l    D1, 0x74
00001E90  3A20                     move.w     D5, -[A0]
00001E92  0006 436F                ori.b      D6, 0x6F /* 'o' */
00001E96  7374                     moveq.l    D1, 0x74
00001E98  3A20                     move.w     D5, -[A0]
00001E9A  0006 436F                ori.b      D6, 0x6F /* 'o' */
00001E9E  7374                     moveq.l    D1, 0x74
00001EA0  3A20                     move.w     D5, -[A0]
00001EA2  0006 436F                ori.b      D6, 0x6F /* 'o' */
00001EA6  7374                     moveq.l    D1, 0x74
00001EA8  3A20                     move.w     D5, -[A0]
00001EAA  0006 436F                ori.b      D6, 0x6F /* 'o' */
00001EAE  7374                     moveq.l    D1, 0x74
00001EB0  3A20                     move.w     D5, -[A0]
00001EB2  0006 436F                ori.b      D6, 0x6F /* 'o' */
00001EB6  7374                     moveq.l    D1, 0x74
00001EB8  3A20                     move.w     D5, -[A0]
00001EBA  0006 436F                ori.b      D6, 0x6F /* 'o' */
00001EBE  7374                     moveq.l    D1, 0x74
00001EC0  3A20                     move.w     D5, -[A0]
00001EC2  0006 436F                ori.b      D6, 0x6F /* 'o' */
00001EC6  7374                     moveq.l    D1, 0x74
00001EC8  3A20                     move.w     D5, -[A0]
00001ECA  0005 4C4C                ori.b      D5, 0x4C /* 'L' */
00001ECE  414D                     chk.w      D0, A5
00001ED0  4110                     .invalid   0, [A0] // invalid opcode 4 with b == 4
label00001ED2:
00001ED2  2822                     move.l     D4, -[A2]
00001ED4  5468 6520                addq.w     [A0 + 0x6520], 2
00001ED8  4C6C 616D 6120           divu.l     D0:D6, [A4 + 0x616D]
00001EDE  6973                     bvs        +0x75 /* 00001F53 */
00001EE0  2061                     movea.l    A0, -[A1]
00001EE2  2071 7561 6472           movea.l    A0, [[A1 + 0x6472]]
00001EE8  6170                     bsr        +0x72 /* 00001F5A */
00001EEA  6564                     bcs        +0x66 /* 00001F50 */
00001EEC  2220                     move.l     D1, -[A0]
00001EEE  2D20                     move.l     -[A6], -[A0]
00001EF0  5769 6C6C                subq.w     [A1 + 0x6C6C], 3
00001EF4  2057                     movea.l    A0, [A7]
00001EF6  7269                     moveq.l    D1, 0x69
00001EF8  6768                     beq        +0x6A /* 00001F62 */
00001EFA  7410                     moveq.l    D2, 0x10
00001EFC  5804                     addq.b     D4, 4
00001EFE  4655                     not.w      [A5]
00001F00  4E44                     trap       4
00001F02  0059 6F75                ori.w      [A1]+, 0x6F75 /* 'ou' */
00001F06  206A 7573                movea.l    A0, [A2 + 0x7573]
00001F0A  7420                     moveq.l    D2, 0x20
00001F0C  646F                     bcc        +0x71 /* 00001F7D */
00001F0E  6E61                     bgt        +0x63 /* 00001F71 */
00001F10  7465                     moveq.l    D2, 0x65
00001F12  6420                     bcc        +0x22 /* 00001F34 */
00001F14  2431 3030                move.l     D2, [A1 + D3.w + 0x30]
00001F18  3030 2074                move.w     D0, [A0 + D2.w + 0x74]
00001F1C  6F20                     ble        +0x22 /* 00001F3E */
00001F1E  7468                     moveq.l    D2, 0x68
00001F20  6520                     bcs        +0x22 /* 00001F42 */
00001F22  746F                     moveq.l    D2, 0x6F
00001F24  776E                     moveq.l    D3, 0x6E
00001F26  2E20                     move.l     D7, -[A0]
00001F28  5468 6520                addq.w     [A0 + 0x6520], 2
00001F2C  6D61                     blt        +0x63 /* 00001F8F */
00001F2E  796F                     moveq.l    D4, 0x6F
00001F30  7220                     moveq.l    D1, 0x20
00001F32  616E                     bsr        +0x70 /* 00001FA2 */
label00001F34:
00001F34  6420                     bcc        +0x22 /* 00001F56 */
00001F36  6869                     bvc        +0x6B /* 00001FA1 */
00001F38  7320                     moveq.l    D1, 0x20
00001F3A  6E65                     bgt        +0x67 /* 00001FA1 */
00001F3C  7720                     moveq.l    D3, 0x20
label00001F3E:
00001F3E  6361                     bls        +0x63 /* 00001FA1 */
00001F40  7220                     moveq.l    D1, 0x20
label00001F42:
00001F42  7468                     moveq.l    D2, 0x68
00001F44  616E                     bsr        +0x70 /* 00001FB4 */
00001F46  6B20                     bmi        +0x22 /* 00001F68 */
00001F48  796F                     moveq.l    D4, 0x6F
00001F4A  7521                     moveq.l    D2, 0x21
00001F4C  0004 434F                ori.b      D4, 0x4F /* 'O' */
label00001F50:
00001F50  524E                     addq.w     A6, 1
00001F52  0001 2410                ori.b      D1, 0x10
label00001F56:
00001F56  F00A 0409                pmove      A2, MR1
fn00001F5A:
00001F5A  4665                     not.w      -[A5]
00001F5C  7274                     moveq.l    D1, 0x74
00001F5E  696C                     bvs        +0x6E /* 00001FCC */
00001F60  697A                     bvs        +0x7C /* 00001FDC */
label00001F62:
00001F62  6509                     bcs        +0xB /* 00001F6D */
00001F64  5065                     addq.w     -[A5], 8
00001F66  7374                     moveq.l    D1, 0x74
label00001F68:
00001F68  6963                     bvs        +0x65 /* 00001FCD */
00001F6A  6964                     bvs        +0x66 /* 00001FD0 */
00001F6C  6509                     bcs        +0xB /* 00001F77 */
00001F6E  4865                     pea.l      -[A5]
00001F70  7262                     moveq.l    D1, 0x62
00001F72  6963                     bvs        +0x65 /* 00001FD7 */
00001F74  6964                     bvs        +0x66 /* 00001FDA */
00001F76  6509                     bcs        +0xB /* 00001F81 */
00001F78  4675 6E67                not.w      [A5 + D6 * 8 + 0x67]
00001F7C  6963                     bvs        +0x65 /* 00001FE1 */
00001F7E  6964                     bvs        +0x66 /* 00001FE4 */
00001F80  6510                     bcs        +0x12 /* 00001F92 */
00001F82  200A                     move.l     D0, A2
00001F84  4E6F                     move       A7, USP
00001F86  6E65                     bgt        +0x67 /* 00001FED */
00001F88  206F 776E                movea.l    A0, [A7 + 0x776E]
00001F8C  6564                     bcs        +0x66 /* 00001FF2 */
00001F8E  00FF                     .incomplete
00001F90  FFA5                     .invalid   <<F/6/7>>
label00001F92:
00001F92  EEFF FF1D                bfset      <<invalid special address>> {D4:29}
00001F96  CEFF                     mulu.w     D7, <<invalid special address>>
00001F98  FF1F                     .extension 0xF1F <<F/4-5/7>> // unimplemented
00001F9A  C6FF                     mulu.w     D3, <<invalid special address>>
00001F9C  FF1F                     .extension 0xF1F <<F/4-5/7>> // unimplemented
00001F9E  FEFF FFBA                .extension 0xEFF <<F/2-3/7>> // unimplemented
fn00001FA2:
00001FA2  CE71 0E9A                and.w      D7, [A1 + D0 * 8 - 0x66]
00001FA6  30F0 020E                move.w     [A0]+, [A0 + D0.w * 2 + 0xE]
00001FAA  1492                     move.b     [A2], [A2]
00001FAC  149A                     move.b     [A2], [A2]+
00001FAE  14A2                     move.b     [A2], -[A2]
00001FB0  14AA 14E2                move.b     [A2], [A2 + 0x14E2]
fn00001FB4:
00001FB4  14DA                     move.b     [A2]+, [A2]+
00001FB6  14D2                     move.b     [A2]+, [A2]
00001FB8  14B2 14BA                move.b     [A2], [A2 + D1.w * 4 - 0x46]
00001FBC  0EA2 14CA 10BA           .invalid.l -[A2], 0x14CA10BA // invalid immediate operation
00001FC2  12AA 0EB2                move.b     [A1], [A2 + 0xEB2]
00001FC6  0001 073A                ori.b      D1, 0x3A /* ':' */
00001FCA  30F0 022D                move.w     [A0]+, [A0 + D0.w * 2 + 0x2D]
// begin alternate branch 00001FCC-00001FD2
label00001FCC:
00001FCC  022D 10D2 10DA           andi.b     [A5 + 0x10DA /* export_535, CODE:26 @ 000015D6 */], 0xD2
// end alternate branch 00001FCC-00001FD2
label00001FCC: // (misaligned)
00001FCE  10D2                     move.b     [A0]+, [A2]
label00001FD0:
00001FD0  10DA                     move.b     [A0]+, [A2]+
00001FD2  0EEA                     .incomplete
00001FD4  0EC2                     .incomplete
00001FD6  10F2 0EDA                move.b     [A0]+, [A2 + D0 * 8 - 0x26]
label00001FDA:
00001FDA  1102                     move.b     -[A0], D2
label00001FDC:
00001FDC  0EBA 1252 110A 1112      .invalid.l [PC + 0x1112 /* 000030F0, value 0xCA10D210 */], 0x1252110A // invalid immediate operation
label00001FE4:
00001FE4  111A                     move.b     -[A0], [A2]+
00001FE6  0ECA                     .incomplete
00001FE8  1292                     move.b     [A1], [A2]
00001FEA  129A                     move.b     [A1], [A2]+
00001FEC  1122                     move.b     -[A0], -[A2]
00001FEE  112A 1132                move.b     -[A0], [A2 + 0x1132]
label00001FF2:
00001FF2  113A 1142                move.b     -[A0], [PC + 0x1142 /* 00003136, value 0x72 'r' */]
00001FF6  11CA 11DA                move.b     [0x000011DA], A2
00001FFA  11D2 1222                move.b     [0x00001222], [A2]
00001FFE  122A 1232                move.b     D1, [A2 + 0x1232]
00002002  123A 1242                move.b     D1, [PC + 0x1242 /* 00003246, value 0x64 'd' */]
00002006  124A                     movea.b    A1, A2
00002008  114A 1152                move.b     [A0 + 0x1152], A2
0000200C  115A 1162                move.b     [A0 + 0x1162], [A2]+
00002010  116A 1172 117A           move.b     [A0 + 0x117A], [A2 + 0x1172]
00002016  0EE2                     .incomplete
00002018  125A                     movea.b    A1, [A2]+
0000201A  1192 119A 11A2           move.b     [[ + D1] + 0x11A2], [A2]
00002020  11AA 0EAA 11BA 0ED2 B... move.b     [[0xED2B116 + D1] + 0xA32], [A2 + 0xEAA]
0000202C  1612                     move.b     D3, [A2]
0000202E  FE1C 2114                .unknown   0xFE1C 0x2114 (W = 7)
00002032  E230                     roxr       D0.b, D1
00002034  F002 0216                pmove      MR0, D2
00002038  1A16                     move.b     D5, [A6]
0000203A  2AB1 160A                move.l     [A5], [A1 + D1.w * 8 + 0xA]
0000203E  30F0 0204                move.w     [A0]+, [A0 + D0.w * 2 + 0x4]
00002042  1612                     move.b     D3, [A2]
00002044  1622                     move.b     D3, -[A2]
00002046  161A                     move.b     D3, [A2]+
00002048  162A 42FF                move.b     D3, [A2 + 0x42FF]
0000204C  FFFF                     .invalid   <<F/7/7>>
0000204E  FF12                     .extension 0xF12 <<F/4-5/7>> // unimplemented
00002050  FFFF                     .invalid   <<F/7/7>>
00002052  FFFF                     .invalid   <<F/7/7>>
00002054  301D                     move.w     D0, [A5]+
00002056  0657 696E                addi.w     [A7], 0x696E /* 'in' */
0000205A  7465                     moveq.l    D2, 0x65
0000205C  7200                     moveq.l    D1, 0x00
0000205E  0653 7072                addi.w     [A3], 0x7072 /* 'pr' */
00002062  696E                     bvs        +0x70 /* 000020D2 */
00002064  6700 0653                beq        +0x655 /* 000026B9 */
00002068  756D                     moveq.l    D2, 0x6D
0000206A  6D65                     blt        +0x67 /* 000020D1 */
0000206C  7200                     moveq.l    D1, 0x00
0000206E  0446 616C                subi.w     D6, 0x616C /* 'al' */
00002072  6C00 3029                bge        +0x302B /* 0000509D */
00002076  FFFF                     .invalid   <<F/7/7>>
00002078  A5EE                     syscall    vCkExtFS, flags=5
0000207A  FFFF                     .invalid   <<F/7/7>>
0000207C  20BC FFFF 22B4           move.l     [A0], 0xFFFF22B4
00002082  FFFF                     .invalid   <<F/7/7>>
00002084  22EC FFFF                move.l     [A1]+, [A4 - 0x1]
00002088  2324                     move.l     -[A1], -[A4]
0000208A  FFFF                     .invalid   <<F/7/7>>
0000208C  2424                     move.l     D2, -[A4]
0000208E  FFFF                     .invalid   <<F/7/7>>
00002090  251C                     move.l     -[A2], [A4]+
00002092  FFFF                     .invalid   <<F/7/7>>
00002094  2554 FFFF                move.l     [A2 - 0x1], [A4]
00002098  258C FFFF                move.l     <<invalid full ext with IS == 1 and I/IS == 7>>, A4
0000209C  268C                     move.l     [A3], A4
0000209E  FFFF                     .invalid   <<F/7/7>>
000020A0  2784 FFFF                move.l     <<invalid full ext with IS == 1 and I/IS == 7>>, D4
000020A4  27BC 710A D230 F002      move.l     [A3 + A7.w + 0x2], 0x710AD230
000020AC  3C14                     move.w     D6, [A4]
000020AE  9214                     sub.b      D1, [A4]
000020B0  9A14                     sub.b      D5, [A4]
000020B2  A214                     syscall    GetVol/PBHGetVol/HGetVol, flags=2
000020B4  AA14                     syscall    RGBForeColor
000020B6  E214                     roxr       D4.b, 1
000020B8  DA14                     add.b      D5, [A4]
000020BA  D214                     add.b      D1, [A4]
000020BC  B214                     cmp.b      D1, [A4]
000020BE  BA0A                     cmp.b      D5, A2
000020C0  DA14                     add.b      D5, [A4]
000020C2  CA10                     and.b      D5, [A0]
000020C4  BA12                     cmp.b      D5, [A2]
000020C6  AA0A                     syscall    PenPixPat
000020C8  E210                     roxr       D0.b, 1
000020CA  CA10                     and.b      D5, [A0]
000020CC  D210                     add.b      D1, [A0]
000020CE  DA10                     add.b      D5, [A0]
000020D0  E210                     roxr       D0.b, 1
label000020D2:
000020D2  EA10                     roxr       D0.b, 5
000020D4  F210 FA0A                .cpgen     0xF210, 0xFA0A // unimplemented
000020D8  FA12 A212                .unknown   0xFA12 0xA212 (W = 5)
000020DC  5211                     addq.b     [A1], 1
000020DE  0A11 1211                xori.b     [A1], 0x11
000020E2  1A12                     move.b     D5, [A2]
000020E4  8A12                     or.b       D5, [A2]
000020E6  9212                     sub.b      D1, [A2]
000020E8  9A11                     sub.b      D5, [A1]
000020EA  2211                     move.l     D1, [A1]
000020EC  2A11                     move.l     D5, [A1]
000020EE  320A                     move.w     D1, A2
000020F0  F211 4211                ftwotox    fp4, (int32_t) [A1]
000020F4  CA11                     and.b      D5, [A1]
000020F6  DA11                     add.b      D5, [A1]
000020F8  D212                     add.b      D1, [A2]
000020FA  2212                     move.l     D1, [A2]
000020FC  2A12                     move.l     D5, [A2]
000020FE  3212                     move.w     D1, [A2]
00002100  3A12                     move.w     D5, [A2]
label00002102:
00002102  4212                     clr.b      [A2]
00002104  4A11                     tst.b      [A1]
00002106  4A11                     tst.b      [A1]
00002108  5211                     addq.b     [A1], 1
0000210A  5A11                     addq.b     [A1], 5
0000210C  6211                     bhi        +0x13 /* 0000211F */
0000210E  6A11                     bpl        +0x13 /* 00002121 */
00002110  7211                     moveq.l    D1, 0x11
00002112  7A11                     moveq.l    D5, 0x11
00002114  8212                     or.b       D1, [A2]
00002116  5A11                     addq.b     [A1], 5
00002118  9211                     sub.b      D1, [A1]
0000211A  9A11                     sub.b      D5, [A1]
0000211C  A211                     syscall    GetEOF, flags=2
0000211E  AA0B                     syscall    BackPixPat
00002120  0211 BA11                andi.b     [A1], 0x11
00002124  C2B1 160A                and.l      D1, [A1 + D1.w * 8 + 0xA]
00002128  3216                     move.w     D1, [A6]
0000212A  12FE                     move.b     [A1]+, <<invalid special address>>
0000212C  6621                     bne        +0x23 /* 0000214F */
0000212E  14E2                     move.b     [A2]+, -[A2]
00002130  30F0 0202                move.w     [A0]+, [A0 + D0.w * 2 + 0x2]
00002134  161A                     move.b     D3, [A2]+
00002136  162A B116                move.b     D3, [A2 - 0x4EEA]
0000213A  0A30 F002 0416           xori.b     [A0 + D0.w * 4 + 0x16], 0x2
00002140  1216                     move.b     D1, [A6]
00002142  2216                     move.l     D1, [A6]
00002144  1A16                     move.b     D5, [A6]
00002146  2AB1 0B0A 30F0           move.l     [A5], [[A1 + <<invalid base displacement size>> + D0 * 2] + 0x30F0]
0000214C  021D 1492                andi.b     [A5]+, 0x92
00002150  149A                     move.b     [A2], [A2]+
00002152  14A2                     move.b     [A2], -[A2]
00002154  14AA 14E2                move.b     [A2], [A2 + 0x14E2]
00002158  14DA                     move.b     [A2]+, [A2]+
0000215A  14D2                     move.b     [A2]+, [A2]
0000215C  14B2 14BA                move.b     [A2], [A2 + D1.w * 4 - 0x46]
00002160  14C2                     move.b     [A2]+, D2
00002162  14CA                     move.b     [A2]+, A2
00002164  208A                     move.l     [A0], A2
00002166  1EC2                     move.b     [A7]+, D2
00002168  1ECA                     move.b     [A7]+, A2
0000216A  1F12                     move.b     -[A7], [A2]
0000216C  1F1A                     move.b     -[A7], [A2]+
0000216E  1F22                     move.b     -[A7], -[A2]
00002170  1F2A 1F32                move.b     -[A7], [A2 + 0x1F32]
00002174  1F3A 1F4A                move.b     -[A7], [PC + 0x1F4A /* 000040C0, value 0x23 '#' */]
00002178  1EDA                     move.b     [A7]+, [A2]+
0000217A  1EE2                     move.b     [A7]+, -[A2]
0000217C  1EEA 1EF2                move.b     [A7]+, [A2 + 0x1EF2]
00002180  1EFA 1F0A                move.b     [A7]+, [PC + 0x1F0A /* 0000408C, value 0x1A */]
00002184  01AA 0B12                bclr       [A2 + 0xB12], D0
00002188  81FF                     divs.w     D0, <<invalid special address>>
0000218A  8021                     or.b       D0, -[A1]
0000218C  0B0A                     btst       A2, D5
0000218E  30F0 0204                move.w     [A0]+, [A0 + D0.w * 2 + 0x4]
00002192  1D1A                     move.b     -[A6], [A2]+
00002194  1D22                     move.b     -[A6], -[A2]
00002196  1D52 1D4A                move.b     [A6 + 0x1D4A], [A2]
0000219A  321D                     move.w     D1, [A5]+
0000219C  2AFF                     move.l     [A5]+, <<invalid special address>>
0000219E  8021                     or.b       D0, -[A1]
000021A0  01AA 30F0                bclr       [A2 + 0x30F0], D0
000021A4  0205 1CD2                andi.b     D5, 0xD2
000021A8  1CDA                     move.b     [A6]+, [A2]+
000021AA  1CC2                     move.b     [A6]+, D2
000021AC  1C2A 1C62                move.b     D6, [A2 + 0x1C62]
000021B0  321C                     move.w     D1, [A4]+
000021B2  5AFF                     spl        <<invalid special address>>
000021B4  8022                     or.b       D0, -[A2]
000021B6  1ECA                     move.b     [A7]+, A2
000021B8  FF80                     .invalid   <<F/6/7>>
000021BA  211F                     move.l     -[A0], [A7]+
000021BC  0A30 F002 0E1C           xori.b     [A0 + D0 * 8 + 0x1C], 0x2
000021C2  6A1C                     bpl        +0x1E /* 000021E0 */
000021C4  721C                     moveq.l    D1, 0x1C
000021C6  7A1C                     moveq.l    D5, 0x1C
000021C8  321C                     move.w     D1, [A4]+
000021CA  9A1C                     sub.b      D5, [A4]+
000021CC  3A1C                     move.w     D5, [A4]+
000021CE  A21C                     syscall    FreeMem, flags=2
000021D0  421C                     clr.b      [A4]+
000021D2  AA1C                     syscall    SetCCursor
000021D4  521C                     addq.b     [A4]+, 1
000021D6  B21C                     cmp.b      D1, [A4]+
000021D8  4A1C                     tst.b      [A4]+
000021DA  E21C                     ror        D4.b, 1
000021DC  EAB1                     roxr       D1, D5
000021DE  160A                     move.b     D3, A2
label000021E0:
000021E0  30F0 0204                move.w     [A0]+, [A0 + D0.w * 2 + 0x4]
000021E4  1612                     move.b     D3, [A2]
000021E6  1622                     move.b     D3, -[A2]
000021E8  161A                     move.b     D3, [A2]+
000021EA  162A B116                move.b     D3, [A2 - 0x4EEA]
000021EE  0A32 1612 FECA           xori.b     [A2 + A7 * 8 - 0x36], 0x12
000021F4  2114                     move.l     -[A0], [A4]
000021F6  E230                     roxr       D0.b, D1
000021F8  F002 0216                pmove      MR0, D2
000021FC  1A16                     move.b     D5, [A6]
000021FE  2AB1 0B1A 30F0           move.l     [A5], [[A1 + D0 * 2] + 0x30F0]
00002204  021D 1492                andi.b     [A5]+, 0x92
00002208  149A                     move.b     [A2], [A2]+
0000220A  14A2                     move.b     [A2], -[A2]
0000220C  14AA 14E2                move.b     [A2], [A2 + 0x14E2]
00002210  14DA                     move.b     [A2]+, [A2]+
00002212  14D2                     move.b     [A2]+, [A2]
00002214  14B2 14BA                move.b     [A2], [A2 + D1.w * 4 - 0x46]
00002218  14C2                     move.b     [A2]+, D2
0000221A  14CA                     move.b     [A2]+, A2
0000221C  208A                     move.l     [A0], A2
0000221E  1EC2                     move.b     [A7]+, D2
00002220  1ECA                     move.b     [A7]+, A2
00002222  1F12                     move.b     -[A7], [A2]
00002224  1F1A                     move.b     -[A7], [A2]+
00002226  1F22                     move.b     -[A7], -[A2]
00002228  1F2A 1F32                move.b     -[A7], [A2 + 0x1F32]
0000222C  1F3A 1F4A                move.b     -[A7], [PC + 0x1F4A /* 00004178, value 0xD5 */]
00002230  1EDA                     move.b     [A7]+, [A2]+
00002232  1EE2                     move.b     [A7]+, -[A2]
00002234  1EEA 1EF2                move.b     [A7]+, [A2 + 0x1EF2]
00002238  1EFA 1F0A                move.b     [A7]+, [PC + 0x1F0A /* 00004144, value 0x1 */]
0000223C  01AA 0B22                bclr       [A2 + 0xB22], D0
00002240  81FF                     divs.w     D0, <<invalid special address>>
00002242  8021                     or.b       D0, -[A1]
00002244  0B1A                     btst       [A2]+, D5
00002246  30F0 0204                move.w     [A0]+, [A0 + D0.w * 2 + 0x4]
0000224A  1D1A                     move.b     -[A6], [A2]+
0000224C  1D22                     move.b     -[A6], -[A2]
0000224E  1D52 1D4A                move.b     [A6 + 0x1D4A], [A2]
00002252  321D                     move.w     D1, [A5]+
00002254  2AFF                     move.l     [A5]+, <<invalid special address>>
00002256  8021                     or.b       D0, -[A1]
00002258  01AA 30F0                bclr       [A2 + 0x30F0], D0
0000225C  0205 1CD2                andi.b     D5, 0xD2
00002260  1CDA                     move.b     [A6]+, [A2]+
00002262  1CC2                     move.b     [A6]+, D2
00002264  1C2A 1C62                move.b     D6, [A2 + 0x1C62]
00002268  321C                     move.w     D1, [A4]+
0000226A  5AFF                     spl        <<invalid special address>>
0000226C  8022                     or.b       D0, -[A2]
0000226E  1ECA                     move.b     [A7]+, A2
00002270  FF80                     .invalid   <<F/6/7>>
00002272  211F                     move.l     -[A0], [A7]+
00002274  0A30 F002 0E1C           xori.b     [A0 + D0 * 8 + 0x1C], 0x2
0000227A  6A1C                     bpl        +0x1E /* 00002298 */
0000227C  721C                     moveq.l    D1, 0x1C
0000227E  7A1C                     moveq.l    D5, 0x1C
00002280  321C                     move.w     D1, [A4]+
00002282  9A1C                     sub.b      D5, [A4]+
00002284  3A1C                     move.w     D5, [A4]+
00002286  A21C                     syscall    FreeMem, flags=2
00002288  421C                     clr.b      [A4]+
0000228A  AA1C                     syscall    SetCCursor
0000228C  521C                     addq.b     [A4]+, 1
0000228E  B21C                     cmp.b      D1, [A4]+
00002290  4A1C                     tst.b      [A4]+
00002292  E21C                     ror        D4.b, 1
00002294  EAB1                     roxr       D1, D5
00002296  160A                     move.b     D3, A2
label00002298:
00002298  30F0 0204                move.w     [A0]+, [A0 + D0.w * 2 + 0x4]
0000229C  1612                     move.b     D3, [A2]
0000229E  1622                     move.b     D3, -[A2]
000022A0  161A                     move.b     D3, [A2]+
000022A2  162A B116                move.b     D3, [A2 - 0x4EEA]
000022A6  0A32 1612 FECA           xori.b     [A2 + A7 * 8 - 0x36], 0x12
000022AC  2114                     move.l     -[A0], [A4]
000022AE  E230                     roxr       D0.b, D1
000022B0  F002 0216                pmove      MR0, D2
000022B4  1A16                     move.b     D5, [A6]
000022B6  2A48                     movea.l    A5, A0
000022B8  04B5 04B6 04B7 04B8      subi.l     [A5 + D0.w * 4 - 0x48], 0x4B604B7
000022C0  04B3 04B4 04B9 04B2      subi.l     [A3 + D0.w * 4 - 0x4E], 0x4B404B9
000022C8  404E                     negx.w     A6
000022CA  2663                     movea.l    A3, -[A3]
000022CC  6F75                     ble        +0x77 /* 00002343 */
000022CE  6C64                     bge        +0x66 /* 00002334 */
000022D0  6E27                     bgt        +0x29 /* 000022F9 */
000022D2  7420                     moveq.l    D2, 0x20
000022D4  6372                     bls        +0x74 /* 00002348 */
000022D6  6561                     bcs        +0x63 /* 00002339 */
000022D8  7465                     moveq.l    D2, 0x65
000022DA  2065                     movea.l    A0, -[A5]
000022DC  7861                     moveq.l    D4, 0x61
000022DE  6D69                     blt        +0x6B /* 00002349 */
000022E0  6E65                     bgt        +0x67 /* 00002347 */
000022E2  206F 6666                movea.l    A0, [A7 + 0x6666]
000022E6  7363                     moveq.l    D1, 0x63
000022E8  7265                     moveq.l    D1, 0x65
000022EA  656E                     bcs        +0x70 /* 0000235A */
000022EC  2070 6F72 7400 254F 6E65 movea.l    A0, [[A0 + 0x7400254F] + 0x6E65]
000022F6  2076 6572 7920 7665 7279 movea.l    A0, [[A6 + 0x79207665] + 0x7279]
00002300  2062                     movea.l    A0, -[A2]
00002302  6164                     bsr        +0x66 /* 00002368 */
00002304  6C79                     bge        +0x7B /* 0000237F */
00002306  2064                     movea.l    A0, -[A4]
00002308  616D                     bsr        +0x6F /* 00002377 */
0000230A  6167                     bsr        +0x69 /* 00002373 */
0000230C  6564                     bcs        +0x66 /* 00002372 */
0000230E  2061                     movea.l    A0, -[A1]
00002310  6972                     bvs        +0x74 /* 00002384 */
00002312  6372                     bls        +0x74 /* 00002386 */
00002314  6166                     bsr        +0x68 /* 0000237C */
00002316  742E                     moveq.l    D2, 0x2E
00002318  1080                     move.b     [A0], D0
0000231A  8048                     or.w       D0, A0
0000231C  496E 7369                chk.w      D4, [A6 + 0x7369]
00002320  6465                     bcc        +0x67 /* 00002387 */
00002322  206F 6620                movea.l    A0, [A7 + 0x6620]
00002326  6120                     bsr        +0x22 /* 00002348 */
00002328  7761                     moveq.l    D3, 0x61
0000232A  7465                     moveq.l    D2, 0x65
0000232C  7220                     moveq.l    D1, 0x20
0000232E  746F                     moveq.l    D2, 0x6F
00002330  7765                     moveq.l    D3, 0x65
00002332  722C                     moveq.l    D1, 0x2C
label00002334:
00002334  2074 6865                movea.l    A0, [A4 + D6 + 0x65]
00002338  2061                     movea.l    A0, -[A1]
0000233A  6D6F                     blt        +0x71 /* 000023AB */
0000233C  756E                     moveq.l    D2, 0x6E
0000233E  7420                     moveq.l    D2, 0x20
00002340  6F66                     ble        +0x68 /* 000023A8 */
00002342  2062                     movea.l    A0, -[A2]
00002344  6C75                     bge        +0x77 /* 000023BB */
00002346  6520                     bcs        +0x22 /* 00002368 */
fn00002348:
00002348  7368                     moveq.l    D1, 0x68
0000234A  6F77                     ble        +0x79 /* 000023C3 */
0000234C  7320                     moveq.l    D1, 0x20
0000234E  686F                     bvc        +0x71 /* 000023BF */
00002350  7720                     moveq.l    D3, 0x20
00002352  6675                     bne        +0x77 /* 000023C9 */
00002354  6C6C                     bge        +0x6E /* 000023C2 */
00002356  2074 6865                movea.l    A0, [A4 + D6 + 0x65]
label0000235A:
0000235A  2074 6F77                movea.l    A0, <<invalid full ext with IS == 1 and I/IS == 7>>
0000235E  6572                     bcs        +0x74 /* 000023D2 */
00002360  2069 732E                movea.l    A0, [A1 + 0x732E]
00002364  002A 546F 776E           ori.b      [A2 + 0x776E], 0x6F /* 'o' */
// begin alternate branch 00002368-0000236A
fn00002368:
00002368  776E                     moveq.l    D3, 0x6E
// end alternate branch 00002368-0000236A
fn00002368: // (misaligned)
0000236A  2061                     movea.l    A0, -[A1]
0000236C  7265                     moveq.l    D1, 0x65
0000236E  612C                     bsr        +0x2E /* 0000239C */
00002370  2062                     movea.l    A0, -[A2]
label00002372:
00002372  6F79                     ble        +0x7B /* 000023ED */
00002374  2064                     movea.l    A0, -[A4]
00002376  6F65                     ble        +0x67 /* 000023DD */
00002378  7320                     moveq.l    D1, 0x20
0000237A  6675                     bne        +0x77 /* 000023F1 */
fn0000237C:
0000237C  6E20                     bgt        +0x22 /* 0000239E */
0000237E  7374                     moveq.l    D1, 0x74
00002380  7566                     moveq.l    D2, 0x66
00002382  6620                     bne        +0x22 /* 000023A4 */
label00002384:
00002384  6861                     bvc        +0x63 /* 000023E7 */
label00002386:
00002386  7070                     moveq.l    D0, 0x70
00002388  656E                     bcs        +0x70 /* 000023F8 */
0000238A  2068 6572                movea.l    A0, [A0 + 0x6572]
0000238E  6521                     bcs        +0x23 /* 000023B1 */
00002390  0006 4461                ori.b      D6, 0x61 /* 'a' */
00002394  6D61                     blt        +0x63 /* 000023F7 */
00002396  6765                     beq        +0x67 /* 000023FD */
00002398  0001 2410                ori.b      D1, 0x10
fn0000239C:
0000239C  F002 0201                pmove      MR0, D2
// begin alternate branch 0000239E-000023A2
label0000239E:
0000239E  0201 2401                andi.b     D1, 0x1
// end alternate branch 0000239E-000023A2
label0000239E: // (misaligned)
000023A0  2401                     move.l     D2, D1
000023A2  2410                     move.l     D2, [A0]
label000023A4:
000023A4  2010                     move.l     D0, [A0]
000023A6  546F 776E                addq.w     [A7 + 0x776E], 2
// begin alternate branch 000023A8-000023AA
label000023A8:
000023A8  776E                     moveq.l    D3, 0x6E
// end alternate branch 000023A8-000023AA
label000023A8: // (misaligned)
000023AA  2052                     movea.l    A0, [A2]
000023AC  6573                     bcs        +0x75 /* 00002421 */
000023AE  6964                     bvs        +0x66 /* 00002414 */
000023B0  656E                     bcs        +0x70 /* 00002420 */
000023B2  7469                     moveq.l    D2, 0x69
000023B4  616C                     bsr        +0x6E /* 00002422 */
000023B6  000D 546F                ori.b      A5, 0x6F /* 'o' */
000023BA  776E                     moveq.l    D3, 0x6E
000023BC  2062                     movea.l    A0, -[A2]
000023BE  7569                     moveq.l    D2, 0x69
000023C0  6C64                     bge        +0x66 /* 00002426 */
label000023C2:
000023C2  696E                     bvs        +0x70 /* 00002432 */
000023C4  6710                     beq        +0x12 /* 000023D6 */
000023C6  80A0                     or.l       D0, -[A0]
000023C8  1245                     movea.b    A1, D5
000023CA  6D70                     blt        +0x72 /* 0000243C */
000023CC  7479                     moveq.l    D2, 0x79
000023CE  2053                     movea.l    A0, [A3]
000023D0  746F                     moveq.l    D2, 0x6F
label000023D2:
000023D2  7261                     moveq.l    D1, 0x61
000023D4  6765                     beq        +0x67 /* 0000243B */
label000023D6:
000023D6  2053                     movea.l    A0, [A3]
000023D8  706F                     moveq.l    D0, 0x6F
000023DA  7400                     moveq.l    D2, 0x00
000023DC  4442                     neg.w      D2
000023DE  7265                     moveq.l    D1, 0x65
000023E0  6E64                     bgt        +0x66 /* 00002446 */
000023E2  616E                     bsr        +0x70 /* 00002452 */
000023E4  2043                     movea.l    A0, D3
000023E6  7265                     moveq.l    D1, 0x65
000023E8  616E                     bsr        +0x70 /* 00002458 */
000023EA  6520                     bcs        +0x22 /* 0000240C */
000023EC  6865                     bvc        +0x67 /* 00002453 */
000023EE  6164                     bsr        +0x66 /* 00002454 */
000023F0  696E                     bvs        +0x70 /* 00002460 */
000023F2  6720                     beq        +0x22 /* 00002414 */
000023F4  686F                     bvc        +0x71 /* 00002465 */
000023F6  6D65                     blt        +0x67 /* 0000245D */
label000023F8:
000023F8  2061                     movea.l    A0, -[A1]
000023FA  6674                     bne        +0x76 /* 00002470 */
000023FC  6572                     bcs        +0x74 /* 00002470 */
000023FE  2061                     movea.l    A0, -[A1]
00002400  206C 6174                movea.l    A0, [A4 + 0x6174]
00002404  6520                     bcs        +0x22 /* 00002426 */
00002406  6E69                     bgt        +0x6B /* 00002471 */
00002408  6768                     beq        +0x6A /* 00002472 */
0000240A  7420                     moveq.l    D2, 0x20
label0000240C:
0000240C  7072                     moveq.l    D0, 0x72
0000240E  6F67                     ble        +0x69 /* 00002477 */
00002410  7261                     moveq.l    D1, 0x61
00002412  6D6D                     blt        +0x6F /* 00002481 */
label00002414:
00002414  696E                     bvs        +0x70 /* 00002484 */
00002416  6720                     beq        +0x22 /* 00002438 */
00002418  7468                     moveq.l    D2, 0x68
0000241A  6520                     bcs        +0x22 /* 0000243C */
0000241C  6661                     bne        +0x63 /* 0000247F */
0000241E  726D                     moveq.l    D1, 0x6D
label00002420:
00002420  2E00                     move.l     D7, D0
fn00002422:
00002422  0A42 6172                xori.w     D2, 0x6172 /* 'ar' */
label00002426:
00002426  6520                     bcs        +0x22 /* 00002448 */
00002428  4C61 6E64                divsl.l    D4:D6, -[A1]
0000242C  2E00                     move.l     D7, D0
0000242E  0C69 7465 6D74           cmpi.w     [A1 + 0x6D74], 0x7465 /* 'te' */
// begin alternate branch 00002432-00002434
label00002432:
00002432  6D74                     blt        +0x76 /* 000024A8 */
// end alternate branch 00002432-00002434
label00002432: // (misaligned)
00002434  6578                     bcs        +0x7A /* 000024AE */
00002436  742E                     moveq.l    D2, 0x2E
label00002438:
00002438  6461                     bcc        +0x63 /* 0000249B */
0000243A  7400                     moveq.l    D2, 0x00
label0000243C:
0000243C  0C69 7465 6D74           cmpi.w     [A1 + 0x6D74], 0x7465 /* 'te' */
00002442  6578                     bcs        +0x7A /* 000024BC */
00002444  742E                     moveq.l    D2, 0x2E
label00002446:
00002446  6461                     bcc        +0x63 /* 000024A9 */
label00002448:
00002448  7400                     moveq.l    D2, 0x00
0000244A  1D45 7272                move.b     [A6 + 0x7272], D5
0000244E  6F72                     ble        +0x74 /* 000024C2 */
00002450  3A20                     move.w     D5, -[A0]
fn00002452:
00002452  5265                     addq.w     -[A5], 1
fn00002454:
00002454  6164                     bsr        +0x66 /* 000024BA */
00002456  4465                     neg.w      -[A5]
fn00002458:
00002458  7363                     moveq.l    D1, 0x63
0000245A  7269                     moveq.l    D1, 0x69
0000245C  7074                     moveq.l    D0, 0x74
0000245E  696F                     bvs        +0x71 /* 000024CF */
label00002460:
00002460  6E20                     bgt        +0x22 /* 00002482 */
00002462  6661                     bne        +0x63 /* 000024C5 */
00002464  696C                     bvs        +0x6E /* 000024D2 */
00002466  6564                     bcs        +0x66 /* 000024CC */
00002468  1020                     move.b     D0, -[A0]
0000246A  FFFF                     .invalid   <<F/7/7>>
0000246C  A5EE                     syscall    vCkExtFS, flags=5
0000246E  FFFF                     .invalid   <<F/7/7>>
label00002470:
00002470  29CA FFFF 2BC2           move.l     0xFFFF2BC2, A2
// begin alternate branch 00002472-00002476
label00002472:
00002472  FFFF                     .invalid   <<F/7/7>>
00002474  2BC2                     move.l     <<invalid special address>>, D2
// end alternate branch 00002472-00002476
label00002472: // (misaligned)
00002476  FFFF                     .invalid   <<F/7/7>>
00002478  2BFA FFFF                move.l     <<invalid special address>>, [PC - 0x1 /* 00002479, value 0xFAFFFF2C */]
0000247C  2C32 FFFF                move.l     D6, <<invalid full ext with IS == 1 and I/IS == 7>>
00002480  2D32 FFFF                move.l     -[A6], <<invalid full ext with IS == 1 and I/IS == 7>>
// begin alternate branch 00002482-00002484
label00002482:
00002482  FFFF                     .invalid   <<F/7/7>>
// end alternate branch 00002482-00002484
label00002482: // (misaligned)
label00002484:
00002484  2E2A FFFF                move.l     D7, [A2 - 0x1]
00002488  2E62                     movea.l    A7, -[A2]
0000248A  710F                     moveq.l    D0, 0x0F
0000248C  1230 F002                move.b     D1, [A0 + A7.w + 0x2]
00002490  3C14                     move.w     D6, [A4]
00002492  9214                     sub.b      D1, [A4]
00002494  9A14                     sub.b      D5, [A4]
00002496  A214                     syscall    GetVol/PBHGetVol/HGetVol, flags=2
00002498  AA14                     syscall    RGBForeColor
0000249A  E214                     roxr       D4.b, 1
0000249C  DA14                     add.b      D5, [A4]
0000249E  D214                     add.b      D1, [A4]
000024A0  B214                     cmp.b      D1, [A4]
000024A2  BA0F                     cmp.b      D5, A7
000024A4  1A14                     move.b     D5, [A4]
000024A6  CA10                     and.b      D5, [A0]
label000024A8:
000024A8  BA12                     cmp.b      D5, [A2]
000024AA  AA0F                     syscall    FillCOval
000024AC  3210                     move.w     D1, [A0]
label000024AE:
000024AE  CA10                     and.b      D5, [A0]
000024B0  D210                     add.b      D1, [A0]
000024B2  DA0F                     add.b      D5, A7
000024B4  2A10                     move.l     D5, [A0]
000024B6  EA10                     roxr       D0.b, 5
000024B8  F20F 2211                .invalid   fmove, !rm
// begin alternate branch 000024BA-000024BC
fn000024BA:
000024BA  2211                     move.l     D1, [A1]
// end alternate branch 000024BA-000024BC
fn000024BA: // (misaligned)
label000024BC:
000024BC  0212 A212                andi.b     [A2], 0x12
000024C0  5211                     addq.b     [A1], 1
label000024C2:
000024C2  0A11 1211                xori.b     [A1], 0x11
000024C6  1A12                     move.b     D5, [A2]
000024C8  8A12                     or.b       D5, [A2]
000024CA  9212                     sub.b      D1, [A2]
label000024CC:
000024CC  9A11                     sub.b      D5, [A1]
000024CE  2211                     move.l     D1, [A1]
000024D0  2A11                     move.l     D5, [A1]
label000024D2:
000024D2  3211                     move.w     D1, [A1]
000024D4  3A11                     move.w     D5, [A1]
000024D6  4211                     clr.b      [A1]
000024D8  CA11                     and.b      D5, [A1]
000024DA  DA11                     add.b      D5, [A1]
000024DC  D212                     add.b      D1, [A2]
000024DE  2212                     move.l     D1, [A2]
000024E0  2A12                     move.l     D5, [A2]
000024E2  3212                     move.w     D1, [A2]
000024E4  3A12                     move.w     D5, [A2]
000024E6  4212                     clr.b      [A2]
000024E8  4A11                     tst.b      [A1]
000024EA  4A11                     tst.b      [A1]
000024EC  5211                     addq.b     [A1], 1
000024EE  5A11                     addq.b     [A1], 5
000024F0  6211                     bhi        +0x13 /* 00002503 */
000024F2  6A11                     bpl        +0x13 /* 00002505 */
000024F4  7211                     moveq.l    D1, 0x11
000024F6  7A11                     moveq.l    D5, 0x11
000024F8  8212                     or.b       D1, [A2]
000024FA  5A11                     addq.b     [A1], 5
000024FC  9211                     sub.b      D1, [A1]
000024FE  9A11                     sub.b      D5, [A1]
00002500  A211                     syscall    GetEOF, flags=2
00002502  AA0F                     syscall    FillCOval
00002504  3A11                     move.w     D5, [A1]
00002506  BA11                     cmp.b      D5, [A1]
00002508  C2B1 160A                and.l      D1, [A1 + D1.w * 8 + 0xA]
0000250C  3216                     move.w     D1, [A6]
0000250E  12FE                     move.b     [A1]+, <<invalid special address>>
00002510  8C21                     or.b       D6, -[A1]
00002512  14E2                     move.b     [A2]+, -[A2]
00002514  30F0 0202                move.w     [A0]+, [A0 + D0.w * 2 + 0x2]
00002518  161A                     move.b     D3, [A2]+
0000251A  162A B116                move.b     D3, [A2 - 0x4EEA]
0000251E  0A30 F002 0416           xori.b     [A0 + D0.w * 4 + 0x16], 0x2
00002524  1216                     move.b     D1, [A6]
00002526  2216                     move.l     D1, [A6]
00002528  1A16                     move.b     D5, [A6]
0000252A  2AB1 0F42 30F0           move.l     [A5], [[A1 + <<invalid base displacement size>>] + 0x30F0]
00002530  021D 1492                andi.b     [A5]+, 0x92
00002534  149A                     move.b     [A2], [A2]+
00002536  14A2                     move.b     [A2], -[A2]
00002538  14AA 14E2                move.b     [A2], [A2 + 0x14E2]
0000253C  14DA                     move.b     [A2]+, [A2]+
0000253E  14D2                     move.b     [A2]+, [A2]
00002540  14B2 14BA                move.b     [A2], [A2 + D1.w * 4 - 0x46]
00002544  14C2                     move.b     [A2]+, D2
00002546  14CA                     move.b     [A2]+, A2
00002548  208A                     move.l     [A0], A2
0000254A  1EC2                     move.b     [A7]+, D2
0000254C  1ECA                     move.b     [A7]+, A2
0000254E  1F12                     move.b     -[A7], [A2]
00002550  1F1A                     move.b     -[A7], [A2]+
00002552  1F22                     move.b     -[A7], -[A2]
00002554  1F2A 1F32                move.b     -[A7], [A2 + 0x1F32]
00002558  1F3A 1F4A                move.b     -[A7], [PC + 0x1F4A /* 000044A4, value 0x44 'D' */]
0000255C  1EDA                     move.b     [A7]+, [A2]+
0000255E  1EE2                     move.b     [A7]+, -[A2]
00002560  1EEA 1EF2                move.b     [A7]+, [A2 + 0x1EF2]
00002564  1EFA 1F0A                move.b     [A7]+, [PC + 0x1F0A /* 00004470, value 0xF0 */]
00002568  01AA 0F4A                bclr       [A2 + 0xF4A], D0
0000256C  81FF                     divs.w     D0, <<invalid special address>>
0000256E  8021                     or.b       D0, -[A1]
00002570  0F42                     bchg       D2, D7
00002572  30F0 0204                move.w     [A0]+, [A0 + D0.w * 2 + 0x4]
00002576  1D1A                     move.b     -[A6], [A2]+
00002578  1D22                     move.b     -[A6], -[A2]
0000257A  1D52 1D4A                move.b     [A6 + 0x1D4A], [A2]
0000257E  321D                     move.w     D1, [A5]+
00002580  2AFF                     move.l     [A5]+, <<invalid special address>>
00002582  8021                     or.b       D0, -[A1]
00002584  01AA 30F0                bclr       [A2 + 0x30F0], D0
00002588  0205 1CD2                andi.b     D5, 0xD2
0000258C  1CDA                     move.b     [A6]+, [A2]+
0000258E  1CC2                     move.b     [A6]+, D2
00002590  1C2A 1C62                move.b     D6, [A2 + 0x1C62]
00002594  321C                     move.w     D1, [A4]+
00002596  5AFF                     spl        <<invalid special address>>
00002598  8022                     or.b       D0, -[A2]
0000259A  1ECA                     move.b     [A7]+, A2
0000259C  FF80                     .invalid   <<F/6/7>>
0000259E  211F                     move.l     -[A0], [A7]+
000025A0  0A30 F002 0E1C           xori.b     [A0 + D0 * 8 + 0x1C], 0x2
000025A6  6A1C                     bpl        +0x1E /* 000025C4 */
000025A8  721C                     moveq.l    D1, 0x1C
000025AA  7A1C                     moveq.l    D5, 0x1C
000025AC  321C                     move.w     D1, [A4]+
000025AE  9A1C                     sub.b      D5, [A4]+
000025B0  3A1C                     move.w     D5, [A4]+
000025B2  A21C                     syscall    FreeMem, flags=2
000025B4  421C                     clr.b      [A4]+
000025B6  AA1C                     syscall    SetCCursor
000025B8  521C                     addq.b     [A4]+, 1
000025BA  B21C                     cmp.b      D1, [A4]+
000025BC  4A1C                     tst.b      [A4]+
000025BE  E21C                     ror        D4.b, 1
000025C0  EAB1                     roxr       D1, D5
000025C2  160A                     move.b     D3, A2
label000025C4:
000025C4  30F0 0204                move.w     [A0]+, [A0 + D0.w * 2 + 0x4]
000025C8  1612                     move.b     D3, [A2]
000025CA  1622                     move.b     D3, -[A2]
000025CC  161A                     move.b     D3, [A2]+
000025CE  162A B116                move.b     D3, [A2 - 0x4EEA]
000025D2  0A32 1612 FE72           xori.b     [A2 + A7 * 8 + 0x72], 0x12
000025D8  2114                     move.l     -[A0], [A4]
000025DA  E230                     roxr       D0.b, D1
000025DC  F002 0216                pmove      MR0, D2
000025E0  1A16                     move.b     D5, [A6]
000025E2  2A4A                     movea.l    A5, A2
000025E4  636C                     bls        +0x6E /* 00002652 */
000025E6  6963                     bvs        +0x65 /* 0000264B */
000025E8  6B2E                     bmi        +0x30 /* 00002618 */
000025EA  766F                     moveq.l    D3, 0x6F
000025EC  6300 0463                bls        +0x465 /* 00002A51 */
000025F0  6172                     bsr        +0x74 /* 00002664 */
000025F2  6400 032E                bcc        +0x330 /* 00002922 */
000025F6  6863                     bvc        +0x65 /* 0000265B */
000025F8  1E1B                     move.b     D7, [A3]+
000025FA  4472 6177                neg.w      <<invalid full ext with IS == 1 and I/IS == 7>>
000025FE  2066                     movea.l    A0, -[A6]
00002600  696C                     bvs        +0x6E /* 0000266E */
00002602  652D                     bcs        +0x2F /* 00002631 */
00002604  7265                     moveq.l    D1, 0x65
00002606  7369                     moveq.l    D1, 0x69
00002608  6465                     bcc        +0x67 /* 0000266F */
0000260A  6E74                     bgt        +0x76 /* 00002680 */
0000260C  2062                     movea.l    A0, -[A2]
0000260E  6974                     bvs        +0x76 /* 00002684 */
00002610  6D61                     blt        +0x63 /* 00002673 */
00002612  703A                     moveq.l    D0, 0x3A
00002614  201D                     move.l     D0, [A5]+
00002616  0643 616E                addi.w     D3, 0x616E /* 'an' */
// begin alternate branch 00002618-0000261A
label00002618:
00002618  616E                     bsr        +0x70 /* 00002688 */
// end alternate branch 00002618-0000261A
label00002618: // (misaligned)
0000261A  6365                     bls        +0x67 /* 00002681 */
0000261C  6C00 044E                bge        +0x450 /* 00002A6C */
00002620  6578                     bcs        +0x7A /* 0000269A */
00002622  7400                     moveq.l    D2, 0x00
00002624  0450 7265                subi.w     [A0], 0x7265 /* 're' */
00002628  7600                     moveq.l    D3, 0x00
0000262A  0543                     bchg       D3, D2
0000262C  6C6F                     bge        +0x71 /* 0000269D */
0000262E  7365                     moveq.l    D1, 0x65
00002630  1020                     move.b     D0, -[A0]
00002632  FFFF                     .invalid   <<F/7/7>>
00002634  A5EE                     syscall    vCkExtFS, flags=5
00002636  FFFF                     .invalid   <<F/7/7>>
00002638  2F0A                     move.l     -[A7], A2
0000263A  FFFF                     .invalid   <<F/7/7>>
0000263C  3102                     move.w     -[A0], D2
0000263E  FFFF                     .invalid   <<F/7/7>>
00002640  313A FFFF                move.w     -[A0], [PC - 0x1 /* 00002641, value 0x3AFF */]
00002644  3172 FFFF 3272           move.w     [A0 + 0x3272], <<invalid full ext with IS == 1 and I/IS == 7>>
0000264A  FFFF                     .invalid   <<F/7/7>>
0000264C  336A FFFF 33A2           move.w     [A1 + 0x33A2], [A2 - 0x1]
label00002652:
00002652  710C                     moveq.l    D0, 0x0C
00002654  CA30 F002                and.b      D5, [A0 + A7.w + 0x2]
00002658  3C14                     move.w     D6, [A4]
0000265A  9214                     sub.b      D1, [A4]
0000265C  9A14                     sub.b      D5, [A4]
0000265E  A214                     syscall    GetVol/PBHGetVol/HGetVol, flags=2
00002660  AA14                     syscall    RGBForeColor
00002662  E214                     roxr       D4.b, 1
fn00002664:
00002664  DA14                     add.b      D5, [A4]
00002666  D214                     add.b      D1, [A4]
00002668  B214                     cmp.b      D1, [A4]
0000266A  BA0C                     cmp.b      D5, A4
0000266C  D214                     add.b      D1, [A4]
label0000266E:
0000266E  CA10                     and.b      D5, [A0]
00002670  BA12                     cmp.b      D5, [A2]
00002672  AA0C                     syscall    GetPixPat
00002674  DA10                     add.b      D5, [A0]
00002676  CA10                     and.b      D5, [A0]
00002678  D210                     add.b      D1, [A0]
0000267A  DA10                     add.b      D5, [A0]
0000267C  E210                     roxr       D0.b, 1
0000267E  EA10                     roxr       D0.b, 5
label00002680:
00002680  F210 FA11                .cpgen     0xF210, 0xFA11 // unimplemented
label00002684:
00002684  0212 A212                andi.b     [A2], 0x12
fn00002688:
00002688  5211                     addq.b     [A1], 1
0000268A  0A11 1211                xori.b     [A1], 0x11
0000268E  1A12                     move.b     D5, [A2]
00002690  8A12                     or.b       D5, [A2]
00002692  9212                     sub.b      D1, [A2]
00002694  9A11                     sub.b      D5, [A1]
00002696  220C                     move.l     D1, A4
00002698  E211                     roxr       D1.b, 1
label0000269A:
0000269A  3211                     move.w     D1, [A1]
0000269C  3A11                     move.w     D5, [A1]
0000269E  4211                     clr.b      [A1]
000026A0  CA11                     and.b      D5, [A1]
000026A2  DA11                     add.b      D5, [A1]
000026A4  D212                     add.b      D1, [A2]
000026A6  2212                     move.l     D1, [A2]
000026A8  2A12                     move.l     D5, [A2]
000026AA  3212                     move.w     D1, [A2]
000026AC  3A12                     move.w     D5, [A2]
000026AE  4212                     clr.b      [A2]
000026B0  4A11                     tst.b      [A1]
000026B2  4A11                     tst.b      [A1]
000026B4  5211                     addq.b     [A1], 1
000026B6  5A11                     addq.b     [A1], 5
000026B8  6211                     bhi        +0x13 /* 000026CB */
000026BA  6A11                     bpl        +0x13 /* 000026CD */
000026BC  7211                     moveq.l    D1, 0x11
000026BE  7A11                     moveq.l    D5, 0x11
000026C0  8212                     or.b       D1, [A2]
000026C2  5A11                     addq.b     [A1], 5
000026C4  9211                     sub.b      D1, [A1]
000026C6  9A11                     sub.b      D5, [A1]
000026C8  A211                     syscall    GetEOF, flags=2
000026CA  AA0C                     syscall    GetPixPat
000026CC  EA11                     roxr       D1.b, 5
000026CE  BA11                     cmp.b      D5, [A1]
000026D0  C2B1 160A                and.l      D1, [A1 + D1.w * 8 + 0xA]
000026D4  3216                     move.w     D1, [A6]
000026D6  12FE                     move.b     [A1]+, <<invalid special address>>
000026D8  9021                     sub.b      D0, -[A1]
000026DA  14E2                     move.b     [A2]+, -[A2]
000026DC  30F0 0202                move.w     [A0]+, [A0 + D0.w * 2 + 0x2]
000026E0  161A                     move.b     D3, [A2]+
000026E2  162A B116                move.b     D3, [A2 - 0x4EEA]
000026E6  0A30 F002 0416           xori.b     [A0 + D0.w * 4 + 0x16], 0x2
000026EC  1216                     move.b     D1, [A6]
000026EE  2216                     move.l     D1, [A6]
000026F0  1A16                     move.b     D5, [A6]
000026F2  2AB1 0CF2                move.l     [A5], [A1 + D0 * 4 - 0xE]
000026F6  30F0 021D                move.w     [A0]+, [A0 + D0.w * 2 + 0x1D]
000026FA  1492                     move.b     [A2], [A2]
000026FC  149A                     move.b     [A2], [A2]+
000026FE  14A2                     move.b     [A2], -[A2]
00002700  14AA 14E2                move.b     [A2], [A2 + 0x14E2]
00002704  14DA                     move.b     [A2]+, [A2]+
00002706  14D2                     move.b     [A2]+, [A2]
00002708  14B2 14BA                move.b     [A2], [A2 + D1.w * 4 - 0x46]
0000270C  14C2                     move.b     [A2]+, D2
0000270E  14CA                     move.b     [A2]+, A2
00002710  208A                     move.l     [A0], A2
00002712  1EC2                     move.b     [A7]+, D2
00002714  1ECA                     move.b     [A7]+, A2
00002716  1F12                     move.b     -[A7], [A2]
00002718  1F1A                     move.b     -[A7], [A2]+
0000271A  1F22                     move.b     -[A7], -[A2]
0000271C  1F2A 1F32                move.b     -[A7], [A2 + 0x1F32]
00002720  1F3A 1F4A                move.b     -[A7], [PC + 0x1F4A /* 0000466C, value 0xCA */]
00002724  1EDA                     move.b     [A7]+, [A2]+
00002726  1EE2                     move.b     [A7]+, -[A2]
00002728  1EEA 1EF2                move.b     [A7]+, [A2 + 0x1EF2]
0000272C  1EFA 1F0A                move.b     [A7]+, [PC + 0x1F0A /* 00004638, value 0xE2 */]
00002730  01AA 0CFA                bclr       [A2 + 0xCFA], D0
00002734  81FF                     divs.w     D0, <<invalid special address>>
00002736  8021                     or.b       D0, -[A1]
00002738  0CF2                     .incomplete
0000273A  30F0 0204                move.w     [A0]+, [A0 + D0.w * 2 + 0x4]
0000273E  1D1A                     move.b     -[A6], [A2]+
00002740  1D22                     move.b     -[A6], -[A2]
00002742  1D52 1D4A                move.b     [A6 + 0x1D4A], [A2]
00002746  321D                     move.w     D1, [A5]+
00002748  2AFF                     move.l     [A5]+, <<invalid special address>>
0000274A  8021                     or.b       D0, -[A1]
0000274C  01AA 30F0                bclr       [A2 + 0x30F0], D0
00002750  0205 1CD2                andi.b     D5, 0xD2
00002754  1CDA                     move.b     [A6]+, [A2]+
00002756  1CC2                     move.b     [A6]+, D2
00002758  1C2A 1C62                move.b     D6, [A2 + 0x1C62]
0000275C  321C                     move.w     D1, [A4]+
0000275E  5AFF                     spl        <<invalid special address>>
00002760  8022                     or.b       D0, -[A2]
00002762  1ECA                     move.b     [A7]+, A2
00002764  FF80                     .invalid   <<F/6/7>>
00002766  211F                     move.l     -[A0], [A7]+
00002768  0A30 F002 0E1C           xori.b     [A0 + D0 * 8 + 0x1C], 0x2
0000276E  6A1C                     bpl        +0x1E /* 0000278C */
00002770  721C                     moveq.l    D1, 0x1C
00002772  7A1C                     moveq.l    D5, 0x1C
00002774  321C                     move.w     D1, [A4]+
00002776  9A1C                     sub.b      D5, [A4]+
00002778  3A1C                     move.w     D5, [A4]+
0000277A  A21C                     syscall    FreeMem, flags=2
0000277C  421C                     clr.b      [A4]+
0000277E  AA1C                     syscall    SetCCursor
00002780  521C                     addq.b     [A4]+, 1
00002782  B21C                     cmp.b      D1, [A4]+
00002784  4A1C                     tst.b      [A4]+
00002786  E21C                     ror        D4.b, 1
00002788  EAB1                     roxr       D1, D5
0000278A  160A                     move.b     D3, A2
label0000278C:
0000278C  30F0 0204                move.w     [A0]+, [A0 + D0.w * 2 + 0x4]
00002790  1612                     move.b     D3, [A2]
00002792  1622                     move.b     D3, -[A2]
00002794  161A                     move.b     D3, [A2]+
00002796  162A B116                move.b     D3, [A2 - 0x4EEA]
0000279A  0A32 1612 FCC8           xori.b     [A2 + A7 * 4 - 0x38], 0x12
000027A0  2114                     move.l     -[A0], [A4]
000027A2  E230                     roxr       D0.b, D1
000027A4  F002 0216                pmove      MR0, D2
000027A8  1A16                     move.b     D5, [A6]
000027AA  2A00                     move.l     D5, D0
000027AC  3081                     move.w     [A0], D1
000027AE  0416 436F                subi.b     [A6], 0x6F /* 'o' */
000027B2  756C                     moveq.l    D2, 0x6C
000027B4  646E                     bcc        +0x70 /* 00002824 */
000027B6  2774 2066 696E           move.l     [A3 + 0x696E], [A4 + D2.w + 0x66]
000027BC  6420                     bcc        +0x22 /* 000027DE */
000027BE  7069                     moveq.l    D0, 0x69
000027C0  6374                     bls        +0x76 /* 00002836 */
000027C2  7572                     moveq.l    D2, 0x72
000027C4  6521                     bcs        +0x23 /* 000027E7 */
000027C6  0017 5469                ori.b      [A7], 0x69 /* 'i' */
000027CA  6C65                     bge        +0x67 /* 00002831 */
000027CC  2070 6963 7475 7265 2074 movea.l    A0, [[A0 + 0x7475] + 0x72652074]
000027D6  6F6F                     ble        +0x71 /* 00002847 */
000027D8  2073 6D61 6C6C           movea.l    A0, [[A3 + 0x6C6C]]
label000027DE:
000027DE  2110                     move.l     -[A0], [A0]
000027E0  2A29 436F                move.l     D5, [A1 + 0x436F]
000027E4  756C                     moveq.l    D2, 0x6C
000027E6  646E                     bcc        +0x70 /* 00002856 */
000027E8  2774 2063 7265           move.l     [A3 + 0x7265], [A4 + D2.w + 0x63]
000027EE  6174                     bsr        +0x76 /* 00002864 */
000027F0  6520                     bcs        +0x22 /* 00002812 */
000027F2  6F66                     ble        +0x68 /* 0000285A */
000027F4  6673                     bne        +0x75 /* 00002869 */
000027F6  6372                     bls        +0x74 /* 0000286A */
000027F8  6565                     bcs        +0x67 /* 0000285F */
000027FA  6E20                     bgt        +0x22 /* 0000281C */
000027FC  706F                     moveq.l    D0, 0x6F
000027FE  7274                     moveq.l    D1, 0x74
00002800  2066                     movea.l    A0, -[A6]
00002802  6F72                     ble        +0x74 /* 00002876 */
00002804  2074 696C                movea.l    A0, <<invalid full ext with I/IS == 4>>
00002808  6573                     bcs        +0x75 /* 0000287D */
0000280A  2110                     move.l     -[A0], [A0]
0000280C  80BA 2E43                or.l       D0, [PC + 0x2E43 /* 00005651, value 0x2A223222 '*\"2\"' */]
00002810  6F75                     ble        +0x77 /* 00002887 */
label00002812:
00002812  6C64                     bge        +0x66 /* 00002878 */
00002814  6E27                     bgt        +0x29 /* 0000283D */
00002816  7420                     moveq.l    D2, 0x20
00002818  6372                     bls        +0x74 /* 0000288C */
0000281A  6561                     bcs        +0x63 /* 0000287D */
label0000281C:
0000281C  7465                     moveq.l    D2, 0x65
0000281E  206F 6666                movea.l    A0, [A7 + 0x6666]
00002822  7363                     moveq.l    D1, 0x63
label00002824:
00002824  7265                     moveq.l    D1, 0x65
00002826  656E                     bcs        +0x70 /* 00002896 */
00002828  2070 6F72 7420 666F 7220 movea.l    A0, [[A0 + 0x7420666F] + 0x7220]
00002832  6D61                     blt        +0x63 /* 00002895 */
00002834  736B                     moveq.l    D1, 0x6B
label00002836:
00002836  2074 696C                movea.l    A0, <<invalid full ext with I/IS == 4>>
0000283A  6573                     bcs        +0x75 /* 000028AF */
0000283C  2100                     move.l     -[A0], D0
0000283E  1843                     movea.b    A4, D3
00002840  6F75                     ble        +0x77 /* 000028B7 */
00002842  6C64                     bge        +0x66 /* 000028A8 */
00002844  6E27                     bgt        +0x29 /* 0000286D */
00002846  7420                     moveq.l    D2, 0x20
00002848  6C6F                     bge        +0x71 /* 000028B9 */
0000284A  6164                     bsr        +0x66 /* 000028B0 */
0000284C  206D 6173                movea.l    A0, [A5 + 0x6173]
00002850  6B20                     bmi        +0x22 /* 00002872 */
00002852  7069                     moveq.l    D0, 0x69
00002854  6374                     bls        +0x76 /* 000028CA */
label00002856:
00002856  2100                     move.l     -[A0], D0
00002858  2A63                     movea.l    A5, -[A3]
label0000285A:
0000285A  6F75                     ble        +0x77 /* 000028D1 */
0000285C  6C64                     bge        +0x66 /* 000028C2 */
0000285E  6E27                     bgt        +0x29 /* 00002887 */
00002860  7420                     moveq.l    D2, 0x20
00002862  6372                     bls        +0x74 /* 000028D6 */
fn00002864:
00002864  6561                     bcs        +0x63 /* 000028C7 */
00002866  7465                     moveq.l    D2, 0x65
00002868  206F 6666                movea.l    A0, [A7 + 0x6666]
// begin alternate branch 0000286A-0000286C
label0000286A:
0000286A  6666                     bne        +0x68 /* 000028D2 */
// end alternate branch 0000286A-0000286C
label0000286A: // (misaligned)
0000286C  7363                     moveq.l    D1, 0x63
0000286E  7265                     moveq.l    D1, 0x65
00002870  656E                     bcs        +0x70 /* 000028E0 */
label00002872:
00002872  2070 6F72 7420 666F 7220 movea.l    A0, [[A0 + 0x7420666F] + 0x7220]
// begin alternate branch 00002876-0000287C
label00002876:
00002876  7420                     moveq.l    D2, 0x20
label00002878:
00002878  666F                     bne        +0x71 /* 000028E9 */
0000287A  7220                     moveq.l    D1, 0x20
// end alternate branch 00002876-0000287C
label00002876: // (misaligned)
label00002878: // (misaligned)
0000287C  746F                     moveq.l    D2, 0x6F
0000287E  726E                     moveq.l    D1, 0x6E
00002880  6164                     bsr        +0x66 /* 000028E6 */
00002882  6F00 1843                ble        +0x1845 /* 000040C7 */
00002886  6F75                     ble        +0x77 /* 000028FD */
00002888  6C64                     bge        +0x66 /* 000028EE */
0000288A  6E27                     bgt        +0x29 /* 000028B3 */
label0000288C:
0000288C  7420                     moveq.l    D2, 0x20
0000288E  6C6F                     bge        +0x71 /* 000028FF */
00002890  6164                     bsr        +0x66 /* 000028F6 */
00002892  206D 6173                movea.l    A0, [A5 + 0x6173]
label00002896:
00002896  6B20                     bmi        +0x22 /* 000028B8 */
00002898  7069                     moveq.l    D0, 0x69
0000289A  6374                     bls        +0x76 /* 00002910 */
0000289C  2100                     move.l     -[A0], D0
0000289E  2963 6F75                move.l     [A4 + 0x6F75], -[A3]
000028A2  6C64                     bge        +0x66 /* 00002908 */
000028A4  6E27                     bgt        +0x29 /* 000028CD */
000028A6  7420                     moveq.l    D2, 0x20
label000028A8:
000028A8  6372                     bls        +0x74 /* 0000291C */
000028AA  6561                     bcs        +0x63 /* 0000290D */
000028AC  7465                     moveq.l    D2, 0x65
000028AE  206F 6666                movea.l    A0, [A7 + 0x6666]
// begin alternate branch 000028B0-000028B2
fn000028B0:
000028B0  6666                     bne        +0x68 /* 00002918 */
// end alternate branch 000028B0-000028B2
fn000028B0: // (misaligned)
000028B2  7363                     moveq.l    D1, 0x63
000028B4  7265                     moveq.l    D1, 0x65
000028B6  656E                     bcs        +0x70 /* 00002926 */
label000028B8:
000028B8  2070 6F72 7420 666F 7220 movea.l    A0, [[A0 + 0x7420666F] + 0x7220]
label000028C2:
000028C2  6C6F                     bge        +0x71 /* 00002933 */
000028C4  6375                     bls        +0x77 /* 0000293B */
000028C6  7374                     moveq.l    D1, 0x74
000028C8  1046                     movea.b    A0, D6
label000028CA:
000028CA  1843                     movea.b    A4, D3
000028CC  6F75                     ble        +0x77 /* 00002943 */
000028CE  6C64                     bge        +0x66 /* 00002934 */
000028D0  6E27                     bgt        +0x29 /* 000028F9 */
label000028D2:
000028D2  7420                     moveq.l    D2, 0x20
000028D4  6C6F                     bge        +0x71 /* 00002945 */
label000028D6:
000028D6  6164                     bsr        +0x66 /* 0000293C */
000028D8  206D 6173                movea.l    A0, [A5 + 0x6173]
000028DC  6B20                     bmi        +0x22 /* 000028FE */
000028DE  7069                     moveq.l    D0, 0x69
label000028E0:
000028E0  6374                     bls        +0x76 /* 00002956 */
000028E2  2100                     move.l     -[A0], D0
000028E4  2B63 6F75                move.l     [A5 + 0x6F75], -[A3]
// begin alternate branch 000028E6-000028E8
fn000028E6:
000028E6  6F75                     ble        +0x77 /* 0000295D */
// end alternate branch 000028E6-000028E8
fn000028E6: // (misaligned)
000028E8  6C64                     bge        +0x66 /* 0000294E */
000028EA  6E27                     bgt        +0x29 /* 00002913 */
000028EC  7420                     moveq.l    D2, 0x20
label000028EE:
000028EE  6372                     bls        +0x74 /* 00002962 */
000028F0  6561                     bcs        +0x63 /* 00002953 */
000028F2  7465                     moveq.l    D2, 0x65
000028F4  206F 6666                movea.l    A0, [A7 + 0x6666]
// begin alternate branch 000028F6-000028F8
fn000028F6:
000028F6  6666                     bne        +0x68 /* 0000295E */
// end alternate branch 000028F6-000028F8
fn000028F6: // (misaligned)
000028F8  7363                     moveq.l    D1, 0x63
000028FA  7265                     moveq.l    D1, 0x65
000028FC  656E                     bcs        +0x70 /* 0000296C */
label000028FE:
000028FE  2070 6F72 7420 666F 7220 movea.l    A0, [[A0 + 0x7420666F] + 0x7220]
label00002908:
00002908  6169                     bsr        +0x6B /* 00002973 */
0000290A  7270                     moveq.l    D1, 0x70
0000290C  6C61                     bge        +0x63 /* 0000296F */
0000290E  6E65                     bgt        +0x67 /* 00002975 */
label00002910:
00002910  1072 1843                movea.b    A0, [A2 + D1 + 0x43]
00002914  6F75                     ble        +0x77 /* 0000298B */
00002916  6C64                     bge        +0x66 /* 0000297C */
label00002918:
00002918  6E27                     bgt        +0x29 /* 00002941 */
0000291A  7420                     moveq.l    D2, 0x20
label0000291C:
0000291C  6C6F                     bge        +0x71 /* 0000298D */
0000291E  6164                     bsr        +0x66 /* 00002984 */
00002920  206D 6173                movea.l    A0, [A5 + 0x6173]
// begin alternate branch 00002922-00002924
label00002922:
00002922  6173                     bsr        +0x75 /* 00002997 */
// end alternate branch 00002922-00002924
label00002922: // (misaligned)
00002924  6B20                     bmi        +0x22 /* 00002946 */
label00002926:
00002926  7069                     moveq.l    D0, 0x69
00002928  6374                     bls        +0x76 /* 0000299E */
0000292A  2100                     move.l     -[A0], D0
0000292C  2863                     movea.l    A4, -[A3]
0000292E  6F75                     ble        +0x77 /* 000029A5 */
00002930  6C64                     bge        +0x66 /* 00002996 */
00002932  6E27                     bgt        +0x29 /* 0000295B */
label00002934:
00002934  7420                     moveq.l    D2, 0x20
00002936  6372                     bls        +0x74 /* 000029AA */
00002938  6561                     bcs        +0x63 /* 0000299B */
0000293A  7465                     moveq.l    D2, 0x65
fn0000293C:
0000293C  206F 6666                movea.l    A0, [A7 + 0x6666]
00002940  7363                     moveq.l    D1, 0x63
00002942  7265                     moveq.l    D1, 0x65
00002944  656E                     bcs        +0x70 /* 000029B4 */
label00002946:
00002946  2070 6F72 7420 666F 7220 movea.l    A0, [[A0 + 0x7420666F] + 0x7220]
// begin alternate branch 0000294E-00002950
label0000294E:
0000294E  7220                     moveq.l    D1, 0x20
// end alternate branch 0000294E-00002950
label0000294E: // (misaligned)
00002950  7370                     moveq.l    D1, 0x70
00002952  7261                     moveq.l    D1, 0x61
00002954  7900                     moveq.l    D4, 0x00
label00002956:
00002956  1843                     movea.b    A4, D3
00002958  6F75                     ble        +0x77 /* 000029CF */
0000295A  6C64                     bge        +0x66 /* 000029C0 */
0000295C  6E27                     bgt        +0x29 /* 00002985 */
label0000295E:
0000295E  7420                     moveq.l    D2, 0x20
00002960  6C6F                     bge        +0x71 /* 000029D1 */
label00002962:
00002962  6164                     bsr        +0x66 /* 000029C8 */
00002964  206D 6173                movea.l    A0, [A5 + 0x6173]
00002968  6B20                     bmi        +0x22 /* 0000298A */
0000296A  7069                     moveq.l    D0, 0x69
label0000296C:
0000296C  6374                     bls        +0x76 /* 000029E2 */
0000296E  2100                     move.l     -[A0], D0
00002970  FFFF                     .invalid   <<F/7/7>>
00002972  A5EE                     syscall    vCkExtFS, flags=5
00002974  FFFF                     .invalid   <<F/7/7>>
00002976  36AA FFFF                move.w     [A3], [A2 - 0x1]
0000297A  384A                     movea.w    A4, A2
label0000297C:
0000297C  FFFF                     .invalid   <<F/7/7>>
0000297E  3942 FFFF                move.w     [A4 - 0x1], D2
00002982  397A 7107 0A30           move.w     [A4 + 0xA30], [PC + 0x7107 /* 00009A8B */]
// begin alternate branch 00002984-0000298C
fn00002984:
00002984  7107                     moveq.l    D0, 0x07
00002986  0A30 F002 3114           xori.b     <<invalid full ext with I/IS == 4>>, 0x2
// end alternate branch 00002984-0000298C
fn00002984: // (misaligned)
00002988  F002 3114                .pflush    0xF002, 0x3114 // unimplemented
// begin alternate branch 0000298A-0000298C
label0000298A:
0000298A  3114                     move.w     -[A0], [A4]
// end alternate branch 0000298A-0000298C
label0000298A: // (misaligned)
0000298C  9214                     sub.b      D1, [A4]
0000298E  9A14                     sub.b      D5, [A4]
00002990  A214                     syscall    GetVol/PBHGetVol/HGetVol, flags=2
00002992  AA14                     syscall    RGBForeColor
00002994  E214                     roxr       D4.b, 1
label00002996:
00002996  DA14                     add.b      D5, [A4]
00002998  D214                     add.b      D1, [A4]
0000299A  B214                     cmp.b      D1, [A4]
0000299C  BA21                     cmp.b      D5, -[A1]
label0000299E:
0000299E  C214                     and.b      D1, [A4]
000029A0  CA21                     and.b      D5, -[A1]
000029A2  5A21                     addq.b     -[A1], 5
000029A4  6221                     bhi        +0x23 /* 000029C7 */
000029A6  7221                     moveq.l    D1, 0x21
000029A8  EA21                     asr        D1.b, D5
label000029AA:
000029AA  F221 FA22                .cpgen     0xF221, 0xFA22 // unimplemented
000029AE  0222 0A22                andi.b     -[A2], 0x22 /* '\"' */
000029B2  1221                     move.b     D1, -[A1]
label000029B4:
000029B4  8221                     or.b       D1, -[A1]
000029B6  8A21                     or.b       D5, -[A1]
000029B8  9221                     sub.b      D1, -[A1]
000029BA  9A21                     sub.b      D5, -[A1]
000029BC  A221                     syscall    GetPtrSize, flags=2
000029BE  AA21                     syscall    OpColor
label000029C0:
000029C0  7A21                     moveq.l    D5, 0x21
000029C2  521F                     addq.b     [A7]+, 1
000029C4  C21F                     and.b      D1, [A7]+
000029C6  CA21                     and.b      D5, -[A1]
fn000029C8:
000029C8  4A1D                     tst.b      [A5]+
000029CA  DA22                     add.b      D5, -[A2]
000029CC  1A22                     move.b     D5, -[A2]
000029CE  2207                     move.l     D1, D7
000029D0  1222                     move.b     D1, -[A2]
000029D2  4A1D                     tst.b      [A5]+
000029D4  E222                     asr        D2.b, D1
000029D6  2A22                     move.l     D5, -[A2]
000029D8  3222                     move.w     D1, -[A2]
000029DA  4206                     clr.b      D6
000029DC  F221 CA21                .cpgen     0xF221, 0xCA21 // unimplemented
000029E0  D206                     add.b      D1, D6
label000029E2:
000029E2  DA1A                     add.b      D5, [A2]+
000029E4  D21A                     add.b      D1, [A2]+
000029E6  DA1A                     add.b      D5, [A2]+
000029E8  CA06                     and.b      D5, D6
000029EA  C207                     and.b      D1, D7
000029EC  1A81                     move.b     [A5], D1
000029EE  FF80                     .invalid   <<F/6/7>>
000029F0  2107                     move.l     -[A0], D7
000029F2  0A30 F002 041D           xori.b     [A0 + D0.w * 4 + 0x1D], 0x2
000029F8  1A1D                     move.b     D5, [A5]+
000029FA  221D                     move.l     D1, [A5]+
000029FC  521D                     addq.b     [A5]+, 1
000029FE  4A32 1D2A FF80 20F0      tst.b      [[A2 - 0x80 + D1 * 4] + 0x20F0]
00002A06  0402 2152                subi.b     D2, 0x52 /* 'R' */
00002A0A  FF80                     .invalid   <<F/6/7>>
00002A0C  224A                     movea.l    A1, A2
00002A0E  FF80                     .invalid   <<F/6/7>>
00002A10  2107                     move.l     -[A0], D7
00002A12  1232 1CC2                move.b     D1, [A2 + D1 * 4 - 0x3E]
00002A16  FF80                     .invalid   <<F/6/7>>
00002A18  2221                     move.l     D1, -[A1]
00002A1A  4AFF                     tas.b      <<invalid special address>>
00002A1C  8021                     or.b       D0, -[A1]
00002A1E  1DDA                     move.b     <<invalid special address>>, [A2]+
00002A20  321C                     move.w     D1, [A4]+
00002A22  5AFF                     spl        <<invalid special address>>
00002A24  8022                     or.b       D0, -[A2]
00002A26  2172 FF80 2121           move.l     [A0 + 0x2121], [ + <<invalid base displacement size>> + A7 * 8]
00002A2C  7A30                     moveq.l    D5, 0x30
00002A2E  F002 021C                pmove      MR0, D2
00002A32  6A1C                     bpl        +0x1E /* 00002A50 */
00002A34  7232                     moveq.l    D1, 0x32
00002A36  1C7A FF80                movea.b    A6, [PC - 0x80 /* 000029B8, value 0x92 */]
00002A3A  221F                     move.l     D1, [A7]+
00002A3C  C2FF                     mulu.w     D1, <<invalid special address>>
00002A3E  8021                     or.b       D0, -[A1]
00002A40  1FCA                     move.b     <<invalid special address>>, A2
00002A42  30F0 0206                move.w     [A0]+, [A0 + D0.w * 2 + 0x6]
00002A46  1C3A 1CA2                move.b     D6, [PC + 0x1CA2 /* 000046EA, value 0xF0 */]
00002A4A  1C42                     movea.b    A6, D2
00002A4C  1CAA 1C52                move.b     [A6], [A2 + 0x1C52]
label00002A50:
00002A50  1CB2 321C                move.b     [A6], [A2 + D3.w * 2 + 0x1C]
00002A54  4AFF                     tas.b      <<invalid special address>>
00002A56  8022                     or.b       D0, -[A2]
00002A58  221A                     move.l     D1, [A2]+
00002A5A  FF80                     .invalid   <<F/6/7>>
00002A5C  2122                     move.l     -[A0], -[A2]
00002A5E  22B1 160A                move.l     [A1], [A1 + D1.w * 8 + 0xA]
00002A62  30F0 0204                move.w     [A0]+, [A0 + D0.w * 2 + 0x4]
00002A66  1612                     move.b     D3, [A2]
00002A68  1622                     move.b     D3, -[A2]
00002A6A  161A                     move.b     D3, [A2]+
label00002A6C:
00002A6C  162A B116                move.b     D3, [A2 - 0x4EEA]
00002A70  0A32 1612 FCD8           xori.b     [A2 + A7 * 4 - 0x28], 0x12
00002A76  2114                     move.l     -[A0], [A4]
00002A78  E230                     roxr       D0.b, D1
00002A7A  F002 0216                pmove      MR0, D2
00002A7E  1A16                     move.b     D5, [A6]
00002A80  2A41                     movea.l    A5, D1
00002A82  0154                     bchg       [A4], D0
00002A84  10F0 0203                move.b     [A0]+, [A0 + D0.w * 2 + 0x3]
00002A88  0148                     bchg       A0, D0
00002A8A  0144                     bchg       D4, D0
00002A8C  014C                     bchg       A4, D0
00002A8E  1AFF                     move.b     [A5]+, <<invalid special address>>
00002A90  FFA5                     .invalid   <<F/6/7>>
00002A92  EEFF FF39                bfset      <<invalid special address>> {D4:D1}
00002A96  D6FF                     add.w      A3, <<invalid special address>>
00002A98  FF3A                     .extension 0xF3A <<F/4-5/7>> // unimplemented
00002A9A  DEFF                     add.w      A7, <<invalid special address>>
00002A9C  FF3B                     .extension 0xF3B <<F/4-5/7>> // unimplemented
00002A9E  D6FF                     add.w      A3, <<invalid special address>>
00002AA0  FF3C                     .extension 0xF3C <<F/4-5/7>> // unimplemented
00002AA2  0E71 099A 30F0           .invalid.w [A1 + D3.w - 0x10], 0x99A // invalid immediate operation
00002AA8  021E 1492                andi.b     [A6]+, 0x92
00002AAC  149A                     move.b     [A2], [A2]+
00002AAE  14A2                     move.b     [A2], -[A2]
00002AB0  14AA 14E2                move.b     [A2], [A2 + 0x14E2]
00002AB4  14DA                     move.b     [A2]+, [A2]+
00002AB6  14D2                     move.b     [A2]+, [A2]
00002AB8  14B2 14BA                move.b     [A2], [A2 + D1.w * 4 - 0x46]
00002ABC  14C2                     move.b     [A2]+, D2
00002ABE  14CA                     move.b     [A2]+, A2
00002AC0  09B2 1EC2                bclr       [A2 + D1 * 8 - 0x3E], D4
00002AC4  1ECA                     move.b     [A7]+, A2
00002AC6  1F12                     move.b     -[A7], [A2]
00002AC8  1F1A                     move.b     -[A7], [A2]+
00002ACA  1F22                     move.b     -[A7], -[A2]
00002ACC  1F2A 1F32                move.b     -[A7], [A2 + 0x1F32]
00002AD0  1F3A 1F4A                move.b     -[A7], [PC + 0x1F4A /* 00004A1C, value 0x80 */]
00002AD4  1EDA                     move.b     [A7]+, [A2]+
00002AD6  1EE2                     move.b     [A7]+, -[A2]
00002AD8  1EEA 1EF2                move.b     [A7]+, [A2 + 0x1EF2]
00002ADC  1EFA 09BA                move.b     [A7]+, [PC + 0x9BA /* 00003498, value 0x69 'i', cstring "ing for sale" */]
00002AE0  01AA 09AA                bclr       [A2 + 0x9AA], D0
00002AE4  09C2                     .incomplete
00002AE6  81FF                     divs.w     D0, <<invalid special address>>
00002AE8  8021                     or.b       D0, -[A1]
00002AEA  099A                     bclr       [A2]+, D4
00002AEC  30F0 0204                move.w     [A0]+, [A0 + D0.w * 2 + 0x4]
00002AF0  1D1A                     move.b     -[A6], [A2]+
00002AF2  1D22                     move.b     -[A6], -[A2]
00002AF4  1D52 1D4A                move.b     [A6 + 0x1D4A], [A2]
00002AF8  321D                     move.w     D1, [A5]+
00002AFA  2AFF                     move.l     [A5]+, <<invalid special address>>
00002AFC  8021                     or.b       D0, -[A1]
00002AFE  01AA 30F0                bclr       [A2 + 0x30F0], D0
00002B02  0205 1CD2                andi.b     D5, 0xD2
00002B06  1CDA                     move.b     [A6]+, [A2]+
00002B08  1CC2                     move.b     [A6]+, D2
00002B0A  1C2A 1C62                move.b     D6, [A2 + 0x1C62]
00002B0E  321C                     move.w     D1, [A4]+
00002B10  5AFF                     spl        <<invalid special address>>
00002B12  8022                     or.b       D0, -[A2]
00002B14  1ECA                     move.b     [A7]+, A2
00002B16  FF80                     .invalid   <<F/6/7>>
00002B18  2109                     move.l     -[A0], A1
00002B1A  BA30 F002                cmp.b      D5, [A0 + A7.w + 0x2]
00002B1E  0E1C 6A1C                .invalid.b [A4]+, 0x1C // invalid immediate operation
00002B22  721C                     moveq.l    D1, 0x1C
00002B24  7A1C                     moveq.l    D5, 0x1C
00002B26  321C                     move.w     D1, [A4]+
00002B28  9A1C                     sub.b      D5, [A4]+
00002B2A  3A1C                     move.w     D5, [A4]+
00002B2C  A21C                     syscall    FreeMem, flags=2
00002B2E  421C                     clr.b      [A4]+
00002B30  AA1C                     syscall    SetCCursor
00002B32  521C                     addq.b     [A4]+, 1
00002B34  B21C                     cmp.b      D1, [A4]+
00002B36  4A1C                     tst.b      [A4]+
00002B38  E21C                     ror        D4.b, 1
00002B3A  EAB1                     roxr       D1, D5
00002B3C  160A                     move.b     D3, A2
00002B3E  30F0 0204                move.w     [A0]+, [A0 + D0.w * 2 + 0x4]
00002B42  1612                     move.b     D3, [A2]
00002B44  1622                     move.b     D3, -[A2]
00002B46  161A                     move.b     D3, [A2]+
00002B48  162A B116                move.b     D3, [A2 - 0x4EEA]
00002B4C  0A32 1612 FEC0           xori.b     [A2 + A7 * 8 - 0x40], 0x12
00002B52  2114                     move.l     -[A0], [A4]
00002B54  E230                     roxr       D0.b, D1
00002B56  F002 0216                pmove      MR0, D2
00002B5A  1A16                     move.b     D5, [A6]
00002B5C  2A64                     movea.l    A5, -[A4]
00002B5E  01D0                     .incomplete
00002B60  01EF                     .incomplete
00002B62  01CF                     .incomplete
00002B64  01D2                     .incomplete
00002B66  4038 3743                negx.b     [0x00003743]
00002B6A  6F75                     ble        +0x77 /* 00002BE1 */
00002B6C  6C64                     bge        +0x66 /* 00002BD2 */
00002B6E  6E27                     bgt        +0x29 /* 00002B97 */
00002B70  7420                     moveq.l    D2, 0x20
00002B72  6372                     bls        +0x74 /* 00002BE6 */
00002B74  6561                     bcs        +0x63 /* 00002BD7 */
00002B76  7465                     moveq.l    D2, 0x65
00002B78  206F 6666                movea.l    A0, [A7 + 0x6666]
00002B7C  7363                     moveq.l    D1, 0x63
00002B7E  7265                     moveq.l    D1, 0x65
00002B80  656E                     bcs        +0x70 /* 00002BF0 */
00002B82  2070 6F72 7420 666F 7220 movea.l    A0, [[A0 + 0x7420666F] + 0x7220]
00002B8C  6669                     bne        +0x6B /* 00002BF7 */
00002B8E  656C                     bcs        +0x6E /* 00002BFC */
00002B90  6420                     bcc        +0x22 /* 00002BB2 */
00002B92  7363                     moveq.l    D1, 0x63
00002B94  6865                     bvc        +0x67 /* 00002BFB */
00002B96  6475                     bcc        +0x77 /* 00002C0D */
00002B98  6C65                     bge        +0x67 /* 00002BFF */
00002B9A  2074 696C                movea.l    A0, <<invalid full ext with I/IS == 4>>
00002B9E  6521                     bcs        +0x23 /* 00002BC1 */
00002BA0  5101                     subq.b     D1, 8
00002BA2  2410                     move.l     D2, [A0]
00002BA4  3202                     move.w     D1, D2
00002BA6  2020                     move.l     D0, -[A0]
00002BA8  002D 636F 756C           ori.b      [A5 + 0x756C], 0x6F /* 'o' */
00002BAE  646E                     bcc        +0x70 /* 00002C1E */
00002BB0  2774 2063 7265           move.l     [A3 + 0x7265], [A4 + D2.w + 0x63]
// begin alternate branch 00002BB2-00002BB6
label00002BB2:
00002BB2  2063                     movea.l    A0, -[A3]
00002BB4  7265                     moveq.l    D1, 0x65
// end alternate branch 00002BB2-00002BB6
label00002BB2: // (misaligned)
00002BB6  6174                     bsr        +0x76 /* 00002C2C */
00002BB8  6520                     bcs        +0x22 /* 00002BDA */
00002BBA  6669                     bne        +0x6B /* 00002C25 */
00002BBC  656C                     bcs        +0x6E /* 00002C2A */
00002BBE  6420                     bcc        +0x22 /* 00002BE0 */
00002BC0  7363                     moveq.l    D1, 0x63
00002BC2  6865                     bvc        +0x67 /* 00002C29 */
00002BC4  6475                     bcc        +0x77 /* 00002C3B */
00002BC6  6C65                     bge        +0x67 /* 00002C2D */
00002BC8  206F 6666                movea.l    A0, [A7 + 0x6666]
00002BCC  7363                     moveq.l    D1, 0x63
00002BCE  7265                     moveq.l    D1, 0x65
00002BD0  656E                     bcs        +0x70 /* 00002C40 */
label00002BD2:
00002BD2  2070 6F72 7410 34FF FFA5 movea.l    A0, [[A0 + 0x741034FF] - 0x5B]
// begin alternate branch 00002BDA-00002BDC
label00002BDA:
00002BDA  FFA5                     .invalid   <<F/6/7>>
// end alternate branch 00002BDA-00002BDC
label00002BDA: // (misaligned)
00002BDC  EEFF FF3D                bfset      <<invalid special address>> {D4:D5}
label00002BE0:
00002BE0  08FF FF3F                bset.b     <<invalid special address>>, 0x3F /* '?' */
00002BE4  00FF                     .incomplete
label00002BE6:
00002BE6  FF3F                     .extension 0xF3F <<F/4-5/7>> // unimplemented
00002BE8  38FF                     move.w     [A4]+, <<invalid special address>>
00002BEA  FFBA                     .invalid   <<F/6/7>>
00002BEC  CEFF                     mulu.w     D7, <<invalid special address>>
00002BEE  FF3F                     .extension 0xF3F <<F/4-5/7>> // unimplemented
label00002BF0:
00002BF0  70FF                     moveq.l    D0, 0xFFFFFFFF
00002BF2  FF40                     .extension 0xF40 <<F/4-5/7>> // unimplemented
00002BF4  E8FF FF41                bftst      <<invalid special address>> {D5:1}
00002BF8  20FF                     move.l     [A0]+, <<invalid special address>>
00002BFA  FF41                     .extension 0xF41 <<F/4-5/7>> // unimplemented
label00002BFC:
00002BFC  58FF                     svc        <<invalid special address>>
00002BFE  FF42                     .extension 0xF42 <<F/4-5/7>> // unimplemented
00002C00  50FF                     st         <<invalid special address>>
00002C02  FF43                     .extension 0xF43 <<F/4-5/7>> // unimplemented
00002C04  C8FF                     mulu.w     D4, <<invalid special address>>
00002C06  FF44                     .extension 0xF44 <<F/4-5/7>> // unimplemented
00002C08  00FF                     .incomplete
00002C0A  FF44                     .extension 0xF44 <<F/4-5/7>> // unimplemented
00002C0C  3871 0B32 30F0 023C 1492 movea.w    A4, [[A1 + 0x30F0023C + D0 * 2] + 0x1492]
00002C16  149A                     move.b     [A2], [A2]+
00002C18  14A2                     move.b     [A2], -[A2]
00002C1A  14AA 14E2                move.b     [A2], [A2 + 0x14E2]
label00002C1E:
00002C1E  14DA                     move.b     [A2]+, [A2]+
00002C20  14D2                     move.b     [A2]+, [A2]
00002C22  14B2 14BA                move.b     [A2], [A2 + D1.w * 4 - 0x46]
00002C26  0B42                     bchg       D2, D5
00002C28  14CA                     move.b     [A2]+, A2
label00002C2A:
00002C2A  10BA 12AA                move.b     [A0], [PC + 0x12AA /* 00003ED6, value 0x68 'h', cstring "heat" */]
// begin alternate branch 00002C2C-00002C32
fn00002C2C:
00002C2C  12AA 0B3A                move.b     [A1], [A2 + 0xB3A]
00002C30  10CA                     move.b     [A0]+, A2
// end alternate branch 00002C2C-00002C32
fn00002C2C: // (misaligned)
00002C2E  0B3A 10CA                btst       [PC + 0x10CA /* 00003CFA, value 0x1F */], D5
00002C32  10D2                     move.b     [A0]+, [A2]
00002C34  10DA                     move.b     [A0]+, [A2]+
00002C36  10E2                     move.b     [A0]+, -[A2]
00002C38  10EA 10F2                move.b     [A0]+, [A2 + 0x10F2]
00002C3C  10FA 0B6A                move.b     [A0]+, [PC + 0xB6A /* 000037A8, value 0x68 'h' */]
label00002C40:
00002C40  12A2                     move.b     [A1], -[A2]
00002C42  1252                     movea.b    A1, [A2]
00002C44  110A                     move.b     -[A0], A2
00002C46  1112                     move.b     -[A0], [A2]
00002C48  111A                     move.b     -[A0], [A2]+
00002C4A  128A                     move.b     [A1], A2
00002C4C  1292                     move.b     [A1], [A2]
00002C4E  129A                     move.b     [A1], [A2]+
00002C50  1122                     move.b     -[A0], -[A2]
00002C52  112A 1132                move.b     -[A0], [A2 + 0x1132]
00002C56  0B62                     bchg       -[A2], D5
00002C58  1142 11CA                move.b     [A0 + 0x11CA], D2
00002C5C  11DA 11D2                move.b     [0x000011D2], [A2]+
00002C60  1222                     move.b     D1, -[A2]
00002C62  122A 1232                move.b     D1, [A2 + 0x1232]
00002C66  123A 1242                move.b     D1, [PC + 0x1242 /* 00003EAA, value 0x65 'e', cstring "ed" */]
00002C6A  124A                     movea.b    A1, A2
00002C6C  114A 1152                move.b     [A0 + 0x1152], A2
00002C70  115A 1162                move.b     [A0 + 0x1162], [A2]+
00002C74  116A 1172 117A           move.b     [A0 + 0x117A], [A2 + 0x1172]
00002C7A  1182 125A                move.b     [A0 + D1.w * 2 + 0x5A], D2
00002C7E  1192 0B5A 11A2           move.b     [[A0] + 0x11A2], [A2]
00002C84  11AA 0B52 11BA 0B4A B... move.b     [[0xB4AB116 + D1] + 0xA32], [A2 + 0xB52]
00002C90  1612                     move.b     D3, [A2]
00002C92  FDBA                     .invalid   <<F/6/6>>
00002C94  2114                     move.l     -[A0], [A4]
00002C96  E230                     roxr       D0.b, D1
00002C98  F002 0216                pmove      MR0, D2
00002C9C  1A16                     move.b     D5, [A6]
00002C9E  2AB1 160A                move.l     [A5], [A1 + D1.w * 8 + 0xA]
00002CA2  30F0 0204                move.w     [A0]+, [A0 + D0.w * 2 + 0x4]
00002CA6  1612                     move.b     D3, [A2]
00002CA8  1622                     move.b     D3, -[A2]
00002CAA  161A                     move.b     D3, [A2]+
00002CAC  162A B10D                move.b     D3, [A2 - 0x4EF3]
00002CB0  0A30 F002 2C14           xori.b     [A0 + D2 * 4 + 0x14], 0x2
00002CB6  9214                     sub.b      D1, [A4]
00002CB8  9A14                     sub.b      D5, [A4]
00002CBA  A214                     syscall    GetVol/PBHGetVol/HGetVol, flags=2
00002CBC  AA14                     syscall    RGBForeColor
00002CBE  E214                     roxr       D4.b, 1
00002CC0  DA14                     add.b      D5, [A4]
00002CC2  D214                     add.b      D1, [A4]
00002CC4  B214                     cmp.b      D1, [A4]
00002CC6  BA21                     cmp.b      D5, -[A1]
00002CC8  C214                     and.b      D1, [A4]
00002CCA  CA21                     and.b      D5, -[A1]
00002CCC  5A21                     addq.b     -[A1], 5
00002CCE  6221                     bhi        +0x23 /* 00002CF1 */
00002CD0  7221                     moveq.l    D1, 0x21
00002CD2  EA21                     asr        D1.b, D5
00002CD4  F221 FA22                .cpgen     0xF221, 0xFA22 // unimplemented
00002CD8  0222 0A22                andi.b     -[A2], 0x22 /* '\"' */
00002CDC  1221                     move.b     D1, -[A1]
00002CDE  8221                     or.b       D1, -[A1]
00002CE0  8A21                     or.b       D5, -[A1]
00002CE2  9221                     sub.b      D1, -[A1]
00002CE4  9A21                     sub.b      D5, -[A1]
00002CE6  A221                     syscall    GetPtrSize, flags=2
00002CE8  AA21                     syscall    OpColor
00002CEA  7A21                     moveq.l    D5, 0x21
00002CEC  521F                     addq.b     [A7]+, 1
00002CEE  C21F                     and.b      D1, [A7]+
00002CF0  CA21                     and.b      D5, -[A1]
00002CF2  4A1D                     tst.b      [A5]+
00002CF4  DA22                     add.b      D5, -[A2]
00002CF6  1A22                     move.b     D5, -[A2]
00002CF8  2221                     move.l     D1, -[A1]
00002CFA  6A22                     bpl        +0x24 /* 00002D1E */
00002CFC  4A1D                     tst.b      [A5]+
00002CFE  E222                     asr        D2.b, D1
00002D00  2A22                     move.l     D5, -[A2]
00002D02  3222                     move.w     D1, -[A2]
00002D04  4221                     clr.b      -[A1]
00002D06  E221                     asr        D1.b, D1
00002D08  CA21                     and.b      D5, -[A1]
00002D0A  D20D                     add.b      D1, A5
00002D0C  12B1 160A                move.b     [A1], [A1 + D1.w * 8 + 0xA]
00002D10  3216                     move.w     D1, [A6]
00002D12  12FE                     move.b     [A1]+, <<invalid special address>>
00002D14  0421 14E2                subi.b     -[A1], 0xE2
00002D18  30F0 0202                move.w     [A0]+, [A0 + D0.w * 2 + 0x2]
00002D1C  161A                     move.b     D3, [A2]+
label00002D1E:
00002D1E  162A B116                move.b     D3, [A2 - 0x4EEA]
00002D22  0A30 F002 0416           xori.b     [A0 + D0.w * 4 + 0x16], 0x2
00002D28  1216                     move.b     D1, [A6]
00002D2A  2216                     move.l     D1, [A6]
00002D2C  1A16                     move.b     D5, [A6]
00002D2E  2A81                     move.l     [A5], D1
00002D30  FF80                     .invalid   <<F/6/7>>
00002D32  210D                     move.l     -[A0], A5
00002D34  0A30 F002 041D           xori.b     [A0 + D0.w * 4 + 0x1D], 0x2
00002D3A  1A1D                     move.b     D5, [A5]+
00002D3C  221D                     move.l     D1, [A5]+
00002D3E  521D                     addq.b     [A5]+, 1
00002D40  4A32 1D2A FF80 20F0      tst.b      [[A2 - 0x80 + D1 * 4] + 0x20F0]
00002D48  0402 2152                subi.b     D2, 0x52 /* 'R' */
00002D4C  FF80                     .invalid   <<F/6/7>>
00002D4E  224A                     movea.l    A1, A2
00002D50  FF80                     .invalid   <<F/6/7>>
00002D52  2121                     move.l     -[A0], -[A1]
00002D54  6A32                     bpl        +0x34 /* 00002D88 */
00002D56  1CC2                     move.b     [A6]+, D2
00002D58  FF80                     .invalid   <<F/6/7>>
00002D5A  2221                     move.l     D1, -[A1]
00002D5C  4AFF                     tas.b      <<invalid special address>>
00002D5E  8021                     or.b       D0, -[A1]
00002D60  1DDA                     move.b     <<invalid special address>>, [A2]+
00002D62  321C                     move.w     D1, [A4]+
00002D64  5AFF                     spl        <<invalid special address>>
00002D66  8022                     or.b       D0, -[A2]
00002D68  2172 FF80 2121           move.l     [A0 + 0x2121], [ + <<invalid base displacement size>> + A7 * 8]
00002D6E  7A30                     moveq.l    D5, 0x30
00002D70  F002 021C                pmove      MR0, D2
00002D74  6A1C                     bpl        +0x1E /* 00002D92 */
00002D76  7232                     moveq.l    D1, 0x32
00002D78  1C7A FF80                movea.b    A6, [PC - 0x80 /* 00002CFA, value 0x6A 'j' */]
00002D7C  221F                     move.l     D1, [A7]+
00002D7E  C2FF                     mulu.w     D1, <<invalid special address>>
00002D80  8021                     or.b       D0, -[A1]
00002D82  1FCA                     move.b     <<invalid special address>>, A2
00002D84  30F0 0206                move.w     [A0]+, [A0 + D0.w * 2 + 0x6]
label00002D88:
00002D88  1C3A 1CA2                move.b     D6, [PC + 0x1CA2 /* 00004A2C, value 0x1C */]
00002D8C  1C42                     movea.b    A6, D2
00002D8E  1CAA 1C52                move.b     [A6], [A2 + 0x1C52]
label00002D92:
00002D92  1CB2 321C                move.b     [A6], [A2 + D3.w * 2 + 0x1C]
00002D96  4AFF                     tas.b      <<invalid special address>>
00002D98  8022                     or.b       D0, -[A2]
00002D9A  221A                     move.l     D1, [A2]+
00002D9C  FF80                     .invalid   <<F/6/7>>
00002D9E  2122                     move.l     -[A0], -[A2]
00002DA0  22B1 0D22 30F0 022C      move.l     [A1], [[A1 + 0x30F0 + D0 * 4] + 0x22C]
00002DA8  1492                     move.b     [A2], [A2]
00002DAA  149A                     move.b     [A2], [A2]+
00002DAC  14A2                     move.b     [A2], -[A2]
00002DAE  14AA 14E2                move.b     [A2], [A2 + 0x14E2]
00002DB2  14DA                     move.b     [A2]+, [A2]+
00002DB4  14D2                     move.b     [A2]+, [A2]
00002DB6  14B2 14BA                move.b     [A2], [A2 + D1.w * 4 - 0x46]
00002DBA  0D2A 14CA                btst       [A2 + 0x14CA], D6
00002DBE  215A 2162                move.l     [A0 + 0x2162], [A2]+
00002DC2  2172 21EA 21F2 21FA 2202 move.l     [A0 + 0x2202], [[0x21F2] + 0x21FA]
00002DCC  220A                     move.l     D1, A2
00002DCE  2212                     move.l     D1, [A2]
00002DD0  2182 218A 2192           move.l     [[ + <<invalid base displacement size>> + D2] + 0x2192], D2
00002DD6  219A 21A2 21AA 0D32      move.l     [[0x21AA + D2] + 0xD32], [A2]+
00002DDE  2152 1FC2                move.l     [A0 + 0x1FC2], [A2]
00002DE2  1FCA                     move.b     <<invalid special address>>, A2
00002DE4  214A 1DDA                move.l     [A0 + 0x1DDA], A2
00002DE8  221A                     move.l     D1, [A2]+
00002DEA  2222                     move.l     D1, -[A2]
00002DEC  216A 224A 1DE2           move.l     [A0 + 0x1DE2], [A2 + 0x224A]
00002DF2  222A 2232                move.l     D1, [A2 + 0x2232]
00002DF6  2242                     movea.l    A1, D2
00002DF8  21E2 21CA                move.l     [0x000021CA], -[A2]
00002DFC  21D2 0D3A                move.l     [0x00000D3A /* LastBG */], [A2]
00002E00  B116                     xor.b      [A6], D0
00002E02  0A32 1612 FE02           xori.b     [A2 + A7 * 8 + 0x2], 0x12
00002E08  2114                     move.l     -[A0], [A4]
00002E0A  E230                     roxr       D0.b, D1
00002E0C  F002 0216                pmove      MR0, D2
00002E10  1A16                     move.b     D5, [A6]
00002E12  2AB1 160A                move.l     [A5], [A1 + D1.w * 8 + 0xA]
00002E16  30F0 0204                move.w     [A0]+, [A0 + D0.w * 2 + 0x4]
00002E1A  1612                     move.b     D3, [A2]
00002E1C  1622                     move.b     D3, -[A2]
00002E1E  161A                     move.b     D3, [A2]+
00002E20  162A 81FF                move.b     D3, [A2 - 0x7E01]
00002E24  8021                     or.b       D0, -[A1]
00002E26  0D22                     btst       -[A2], D6
00002E28  30F0 0204                move.w     [A0]+, [A0 + D0.w * 2 + 0x4]
00002E2C  1D1A                     move.b     -[A6], [A2]+
00002E2E  1D22                     move.b     -[A6], -[A2]
00002E30  1D52 1D4A                move.b     [A6 + 0x1D4A], [A2]
00002E34  321D                     move.w     D1, [A5]+
00002E36  2AFF                     move.l     [A5]+, <<invalid special address>>
00002E38  8020                     or.b       D0, -[A0]
00002E3A  F004 0221                pmove      MR0, D4
00002E3E  52FF                     shi        <<invalid special address>>
00002E40  8022                     or.b       D0, -[A2]
00002E42  4AFF                     tas.b      <<invalid special address>>
00002E44  8021                     or.b       D0, -[A1]
00002E46  216A 321C C2FF           move.l     [A0 - 0x3D01], [A2 + 0x321C]
00002E4C  8022                     or.b       D0, -[A2]
00002E4E  214A FF80                move.l     [A0 - 0x80], A2
00002E52  211D                     move.l     -[A0], [A5]+
00002E54  DA32 1C5A                add.b      D5, [A2 + D1 * 4 + 0x5A]
00002E58  FF80                     .invalid   <<F/6/7>>
00002E5A  2221                     move.l     D1, -[A1]
00002E5C  72FF                     moveq.l    D1, 0xFFFFFFFF
00002E5E  8021                     or.b       D0, -[A1]
00002E60  0D32 30F0                btst       [A2 + D3.w - 0x10], D6
00002E64  0202 1C6A                andi.b     D2, 0x6A /* 'j' */
00002E68  1C72 321C                movea.b    A6, [A2 + D3.w * 2 + 0x1C]
00002E6C  7AFF                     moveq.l    D5, 0xFFFFFFFF
00002E6E  8022                     or.b       D0, -[A2]
00002E70  1FC2                     move.b     <<invalid special address>>, D2
00002E72  FF80                     .invalid   <<F/6/7>>
00002E74  211F                     move.l     -[A0], [A7]+
00002E76  CA30 F002                and.b      D5, [A0 + A7.w + 0x2]
00002E7A  061C 3A1C                addi.b     [A4]+, 0x1C
00002E7E  A21C                     syscall    FreeMem, flags=2
00002E80  421C                     clr.b      [A4]+
00002E82  AA1C                     syscall    SetCCursor
00002E84  521C                     addq.b     [A4]+, 1
00002E86  B232 1C4A                cmp.b      D1, [A2 + D1 * 4 + 0x4A]
00002E8A  FF80                     .invalid   <<F/6/7>>
00002E8C  2222                     move.l     D1, -[A2]
00002E8E  1AFF                     move.b     [A5]+, <<invalid special address>>
00002E90  8021                     or.b       D0, -[A1]
00002E92  2222                     move.l     D1, -[A2]
00002E94  B8FF                     cmpa.w     A4, <<invalid special address>>
00002E96  FFA5                     .invalid   <<F/6/7>>
00002E98  EEFF FF45                bfset      <<invalid special address>> {D5:5}
00002E9C  4EFF                     jmp        <<invalid special address>>
00002E9E  FF47                     .extension 0xF47 <<F/4-5/7>> // unimplemented
00002EA0  46FF                     move.w     SR, <<invalid special address>>
00002EA2  FF47                     .extension 0xF47 <<F/4-5/7>> // unimplemented
00002EA4  7E71                     moveq.l    D7, 0x71
00002EA6  0D4A                     bchg       A2, D6
00002EA8  30F0 023C                move.w     [A0]+, [A0 + D0.w * 2 + 0x3C]
00002EAC  1492                     move.b     [A2], [A2]
00002EAE  149A                     move.b     [A2], [A2]+
00002EB0  14A2                     move.b     [A2], -[A2]
00002EB2  14AA 14E2                move.b     [A2], [A2 + 0x14E2]
00002EB6  14DA                     move.b     [A2]+, [A2]+
00002EB8  14D2                     move.b     [A2]+, [A2]
00002EBA  14B2 14BA                move.b     [A2], [A2 + D1.w * 4 - 0x46]
00002EBE  0D5A                     bchg       [A2]+, D6
00002EC0  14CA                     move.b     [A2]+, A2
00002EC2  10BA 12AA                move.b     [A0], [PC + 0x12AA /* 0000416E, value 0xB8 */]
00002EC6  0D52                     bchg       [A2], D6
00002EC8  10CA                     move.b     [A0]+, A2
00002ECA  10D2                     move.b     [A0]+, [A2]
00002ECC  10DA                     move.b     [A0]+, [A2]+
00002ECE  10E2                     move.b     [A0]+, -[A2]
00002ED0  10EA 10F2                move.b     [A0]+, [A2 + 0x10F2]
00002ED4  10FA 0D62                move.b     [A0]+, [PC + 0xD62 /* 00003C38, value 0x1E */]
00002ED8  12A2                     move.b     [A1], -[A2]
00002EDA  1252                     movea.b    A1, [A2]
00002EDC  110A                     move.b     -[A0], A2
00002EDE  1112                     move.b     -[A0], [A2]
00002EE0  111A                     move.b     -[A0], [A2]+
00002EE2  128A                     move.b     [A1], A2
00002EE4  1292                     move.b     [A1], [A2]
00002EE6  129A                     move.b     [A1], [A2]+
00002EE8  1122                     move.b     -[A0], -[A2]
00002EEA  112A 1132                move.b     -[A0], [A2 + 0x1132]
00002EEE  113A 1142                move.b     -[A0], [PC + 0x1142 /* 00004032, value 0xD2 */]
00002EF2  11CA 11DA                move.b     [0x000011DA], A2
00002EF6  11D2 1222                move.b     [0x00001222], [A2]
00002EFA  122A 1232                move.b     D1, [A2 + 0x1232]
00002EFE  123A 1242                move.b     D1, [PC + 0x1242 /* 00004142, value 0x1 */]
00002F02  124A                     movea.b    A1, A2
00002F04  114A 1152                move.b     [A0 + 0x1152], A2
00002F08  115A 1162                move.b     [A0 + 0x1162], [A2]+
00002F0C  116A 1172 117A           move.b     [A0 + 0x117A], [A2 + 0x1172]
00002F12  1182 125A                move.b     [A0 + D1.w * 2 + 0x5A], D2
00002F16  1192 119A 11A2           move.b     [[ + D1] + 0x11A2], [A2]
00002F1C  11AA 0D6A 11BA 11C2 B... move.b     [[0x11C2B116 + D1] + 0xA32], [A2 + 0xD6A]
00002F28  1612                     move.b     D3, [A2]
00002F2A  FE64 2114                .extension 0xE64 <<F/1/7>>, 0x2114 // unimplemented
00002F2E  E230                     roxr       D0.b, D1
00002F30  F002 0216                pmove      MR0, D2
00002F34  1A16                     move.b     D5, [A6]
00002F36  2AB1 160A                move.l     [A5], [A1 + D1.w * 8 + 0xA]
00002F3A  30F0 0204                move.w     [A0]+, [A0 + D0.w * 2 + 0x4]
00002F3E  1612                     move.b     D3, [A2]
00002F40  1622                     move.b     D3, -[A2]
00002F42  161A                     move.b     D3, [A2]+
00002F44  162A 4D08                move.b     D3, [A2 + 0x4D08]
00002F48  4F76 6572 6865 6164 0008 chk.w      D7, [[A6 + 0x68656164] + 0x8]
00002F52  5072 6F70 6572 7479      addq.w     [A2 + 0x65727479], 8
00002F5A  0005 5765                ori.b      D5, 0x65 /* 'e' */
00002F5E  6564                     bcs        +0x66 /* 00002FC4 */
00002F60  7313                     moveq.l    D1, 0x13
00002F62  0550                     bchg       [A0], D2
00002F64  6573                     bcs        +0x75 /* 00002FD9 */
00002F66  7473                     moveq.l    D2, 0x73
00002F68  170D                     move.b     -[A3], A5
00002F6A  536F 696C                subq.w     [A7 + 0x696C], 1
00002F6E  2054                     movea.l    A0, [A4]
00002F70  6F78                     ble        +0x7A /* 00002FEA */
00002F72  6963                     bvs        +0x65 /* 00002FD7 */
00002F74  6974                     bvs        +0x76 /* 00002FEA */
00002F76  7916                     moveq.l    D4, 0x16
00002F78  0B47                     bchg       D7, D5
00002F7A  726F                     moveq.l    D1, 0x6F
00002F7C  756E                     moveq.l    D2, 0x6E
00002F7E  6477                     bcc        +0x79 /* 00002FF7 */
00002F80  6174                     bsr        +0x76 /* 00002FF6 */
00002F82  6572                     bcs        +0x74 /* 00002FF6 */
00002F84  1026                     move.b     D0, -[A6]
00002F86  0E53 6F69                .invalid.w [A3], 0x6F69 /* 'oi' */ // invalid immediate operation
00002F8A  6C20                     bge        +0x22 /* 00002FAC */
00002F8C  4E75                     rts
00002F8E  7472                     moveq.l    D2, 0x72
00002F90  6965                     bvs        +0x67 /* 00002FF7 */
00002F92  6E74                     bgt        +0x76 /* 00003008 */
00002F94  7300                     moveq.l    D1, 0x00
00002F96  0C46 6965                cmpi.w     D6, 0x6965 /* 'ie' */
00002F9A  6C64                     bge        +0x66 /* 00003000 */
00002F9C  2050                     movea.l    A0, [A0]
00002F9E  726F                     moveq.l    D1, 0x6F
00002FA0  6669                     bne        +0x6B /* 0000300B */
00002FA2  7400                     moveq.l    D2, 0x00
00002FA4  0744                     bchg       D4, D3
00002FA6  6973                     bvs        +0x75 /* 0000301B */
00002FA8  6561                     bcs        +0x63 /* 0000300B */
00002FAA  7365                     moveq.l    D1, 0x65
label00002FAC:
00002FAC  1504                     move.b     -[A2], D4
00002FAE  5365                     subq.w     -[A5], 1
00002FB0  6C6C                     bge        +0x6E /* 0000301E */
00002FB2  0003 4275                ori.b      D3, 0x75 /* 'u' */
00002FB6  7910                     moveq.l    D4, 0x10
00002FB8  2C0C                     move.l     D6, A4
00002FBA  4C61 6E64                divsl.l    D4:D6, -[A1]
00002FBE  2056                     movea.l    A0, [A6]
00002FC0  616C                     bsr        +0x6E /* 0000302E */
00002FC2  7565                     moveq.l    D2, 0x65
label00002FC4:
00002FC4  0D24                     btst       -[A4], D6
00002FC6  0008 4F76                ori.b      A0, 0x76 /* 'v' */
00002FCA  6572                     bcs        +0x74 /* 0000303E */
00002FCC  6865                     bvc        +0x67 /* 00003033 */
00002FCE  6164                     bsr        +0x66 /* 00003034 */
00002FD0  00FF                     .incomplete
00002FD2  FFA5                     .invalid   <<F/6/7>>
00002FD4  EEFF FF48                bfset      <<invalid special address>> {D5:8}
00002FD8  58FF                     svc        <<invalid special address>>
00002FDA  FF4A                     .extension 0xF4A <<F/4-5/7>> // unimplemented
00002FDC  50FF                     st         <<invalid special address>>
00002FDE  FF4A                     .extension 0xF4A <<F/4-5/7>> // unimplemented
00002FE0  88FF                     divu.w     D4, <<invalid special address>>
00002FE2  FFBA                     .invalid   <<F/6/7>>
00002FE4  CE71 103A                and.w      D7, [A1 + D1.w + 0x3A]
00002FE8  30F0 023C                move.w     [A0]+, [A0 + D0.w * 2 + 0x3C]
// begin alternate branch 00002FEA-00002FEE
label00002FEA:
00002FEA  023C 1492                andi.b     ccr, 146
// end alternate branch 00002FEA-00002FEE
label00002FEA: // (misaligned)
00002FEC  1492                     move.b     [A2], [A2]
00002FEE  149A                     move.b     [A2], [A2]+
00002FF0  14A2                     move.b     [A2], -[A2]
00002FF2  14AA 14E2                move.b     [A2], [A2 + 0x14E2]
fn00002FF6:
00002FF6  14DA                     move.b     [A2]+, [A2]+
00002FF8  14D2                     move.b     [A2]+, [A2]
00002FFA  14B2 14BA                move.b     [A2], [A2 + D1.w * 4 - 0x46]
00002FFE  104A                     movea.b    A0, A2
label00003000:
00003000  14CA                     move.b     [A2]+, A2
00003002  10BA 12AA                move.b     [A0], [PC + 0x12AA /* 000042AE, value 0x20 ' ', cstring " SimFarm is:\        " */]
00003006  105A                     movea.b    A0, [A2]+
label00003008:
00003008  10CA                     move.b     [A0]+, A2
0000300A  10D2                     move.b     [A0]+, [A2]
0000300C  10DA                     move.b     [A0]+, [A2]+
0000300E  09CA                     .incomplete
00003010  10EA 10F2                move.b     [A0]+, [A2 + 0x10F2]
00003014  10FA 1102                move.b     [A0]+, [PC + 0x1102 /* 00004118, value 0xB */]
00003018  12A2                     move.b     [A1], -[A2]
0000301A  1252                     movea.b    A1, [A2]
0000301C  110A                     move.b     -[A0], A2
label0000301E:
0000301E  1112                     move.b     -[A0], [A2]
00003020  111A                     move.b     -[A0], [A2]+
00003022  128A                     move.b     [A1], A2
00003024  1292                     move.b     [A1], [A2]
00003026  129A                     move.b     [A1], [A2]+
00003028  1122                     move.b     -[A0], -[A2]
0000302A  112A 1132                move.b     -[A0], [A2 + 0x1132]
fn0000302E:
0000302E  09D2                     .incomplete
00003030  1142 11CA                move.b     [A0 + 0x11CA], D2
fn00003034:
00003034  11DA 11D2                move.b     [0x000011D2], [A2]+
00003038  1222                     move.b     D1, -[A2]
0000303A  122A 1232                move.b     D1, [A2 + 0x1232]
label0000303E:
0000303E  123A 1242                move.b     D1, [PC + 0x1242 /* 00004282, value 0x4E 'N' */]
00003042  124A                     movea.b    A1, A2
00003044  114A 1152                move.b     [A0 + 0x1152], A2
00003048  115A 1162                move.b     [A0 + 0x1162], [A2]+
0000304C  116A 1172 117A           move.b     [A0 + 0x117A], [A2 + 0x1172]
00003052  1182 125A                move.b     [A0 + D1.w * 2 + 0x5A], D2
00003056  106A 1072                movea.b    A0, [A2 + 0x1072]
0000305A  11A2 11AA 1052 11BA      move.b     [[0x1052 + D1] + 0x11BA], -[A2]
00003062  1062                     movea.b    A0, -[A2]
00003064  B116                     xor.b      [A6], D0
00003066  0A32 1612 FE3C           xori.b     [A2 + A7 * 8 + 0x3C], 0x12
0000306C  2114                     move.l     -[A0], [A4]
0000306E  E230                     roxr       D0.b, D1
00003070  F002 0216                pmove      MR0, D2
00003074  1A16                     move.b     D5, [A6]
00003076  2AB1 160A                move.l     [A5], [A1 + D1.w * 8 + 0xA]
0000307A  30F0 0204                move.w     [A0]+, [A0 + D0.w * 2 + 0x4]
0000307E  1612                     move.b     D3, [A2]
00003080  1622                     move.b     D3, -[A2]
00003082  161A                     move.b     D3, [A2]+
00003084  162A 4906                move.b     D3, [A2 + 0x4906]
00003088  4372 6F70 3A20 0009      chk.w      D1, [A2 + 0x3A200009]
00003090  0D50                     bchg       [A0], D6
00003092  7269                     moveq.l    D1, 0x69
00003094  6365                     bls        +0x67 /* 000030FB */
00003096  3A20                     move.w     D5, -[A0]
00003098  2418                     move.l     D2, [A0]+
0000309A  0F46                     bchg       D6, D7
0000309C  7574                     moveq.l    D2, 0x74
0000309E  7572                     moveq.l    D2, 0x72
000030A0  6573                     bcs        +0x75 /* 00003115 */
000030A2  204F                     movea.l    A0, A7
000030A4  776E                     moveq.l    D3, 0x6E
000030A6  6564                     bcs        +0x66 /* 0000310C */
000030A8  2020                     move.l     D0, -[A0]
000030AA  1020                     move.b     D0, -[A0]
000030AC  FFFF                     .invalid   <<F/7/7>>
000030AE  A5EE                     syscall    vCkExtFS, flags=5
000030B0  FFFF                     .invalid   <<F/7/7>>
000030B2  4B06                     .invalid   5, D6 // invalid opcode 4 with b == 4
000030B4  FFFF                     .invalid   <<F/7/7>>
000030B6  4CFE FFFF                movem.l    D0,D1,D2,D3,D4,D5,D6,D7,A0,A1,A2,A3,A4,A5,A6,A7, <<invalid special address>>
000030BA  4D36 FFFF                .invalid   6, <<invalid full ext with IS == 1 and I/IS == 7>> // invalid opcode 4 with b == 4
000030BE  4D6E FFFF                chk.w      D6, [A6 - 0x1]
000030C2  4E6E                     move       A6, USP
000030C4  FFFF                     .invalid   <<F/7/7>>
000030C6  4F66                     chk.w      D7, -[A6]
000030C8  FFFF                     .invalid   <<F/7/7>>
000030CA  4F9E                     .invalid   7, [A6]+ // invalid opcode 4 with b == 6
000030CC  710B                     moveq.l    D0, 0x0B
000030CE  9230 F002                sub.b      D1, [A0 + A7.w + 0x2]
000030D2  3C14                     move.w     D6, [A4]
000030D4  9214                     sub.b      D1, [A4]
000030D6  9A14                     sub.b      D5, [A4]
000030D8  A214                     syscall    GetVol/PBHGetVol/HGetVol, flags=2
000030DA  AA14                     syscall    RGBForeColor
000030DC  E214                     roxr       D4.b, 1
000030DE  DA14                     add.b      D5, [A4]
000030E0  D214                     add.b      D1, [A4]
000030E2  B214                     cmp.b      D1, [A4]
000030E4  BA0B                     cmp.b      D5, A3
000030E6  9A14                     sub.b      D5, [A4]
000030E8  CA10                     and.b      D5, [A0]
000030EA  BA12                     cmp.b      D5, [A2]
000030EC  AA0B                     syscall    BackPixPat
000030EE  AA10                     syscall    FillCRoundRect
000030F0  CA10                     and.b      D5, [A0]
000030F2  D210                     add.b      D1, [A0]
000030F4  DA10                     add.b      D5, [A0]
000030F6  E210                     roxr       D0.b, 1
000030F8  EA10                     roxr       D0.b, 5
000030FA  F210 FA0B                .cpgen     0xF210, 0xFA0B // unimplemented
000030FE  A212                     syscall    SetEOF, flags=2
00003100  A212                     syscall    SetEOF, flags=2
00003102  5211                     addq.b     [A1], 1
00003104  0A11 1211                xori.b     [A1], 0x11
00003108  1A12                     move.b     D5, [A2]
0000310A  8A12                     or.b       D5, [A2]
label0000310C:
0000310C  9212                     sub.b      D1, [A2]
0000310E  9A11                     sub.b      D5, [A1]
00003110  2211                     move.l     D1, [A1]
00003112  2A11                     move.l     D5, [A1]
00003114  320B                     move.w     D1, A3
00003116  B211                     cmp.b      D1, [A1]
00003118  4211                     clr.b      [A1]
0000311A  CA11                     and.b      D5, [A1]
0000311C  DA11                     add.b      D5, [A1]
0000311E  D212                     add.b      D1, [A2]
00003120  2212                     move.l     D1, [A2]
00003122  2A12                     move.l     D5, [A2]
00003124  3212                     move.w     D1, [A2]
00003126  3A12                     move.w     D5, [A2]
00003128  4212                     clr.b      [A2]
0000312A  4A11                     tst.b      [A1]
0000312C  4A11                     tst.b      [A1]
0000312E  5211                     addq.b     [A1], 1
00003130  5A11                     addq.b     [A1], 5
00003132  6211                     bhi        +0x13 /* 00003145 */
00003134  6A11                     bpl        +0x13 /* 00003147 */
00003136  7211                     moveq.l    D1, 0x11
00003138  7A11                     moveq.l    D5, 0x11
0000313A  8212                     or.b       D1, [A2]
0000313C  5A11                     addq.b     [A1], 5
0000313E  9211                     sub.b      D1, [A1]
00003140  9A11                     sub.b      D5, [A1]
00003142  A211                     syscall    GetEOF, flags=2
00003144  AA0B                     syscall    BackPixPat
00003146  BA11                     cmp.b      D5, [A1]
00003148  BA11                     cmp.b      D5, [A1]
0000314A  C2B1 160A                and.l      D1, [A1 + D1.w * 8 + 0xA]
0000314E  3216                     move.w     D1, [A6]
00003150  12FE                     move.b     [A1]+, <<invalid special address>>
00003152  8021                     or.b       D0, -[A1]
00003154  14E2                     move.b     [A2]+, -[A2]
00003156  30F0 0202                move.w     [A0]+, [A0 + D0.w * 2 + 0x2]
0000315A  161A                     move.b     D3, [A2]+
0000315C  162A B116                move.b     D3, [A2 - 0x4EEA]
00003160  0A30 F002 0416           xori.b     [A0 + D0.w * 4 + 0x16], 0x2
00003166  1216                     move.b     D1, [A6]
00003168  2216                     move.l     D1, [A6]
0000316A  1A16                     move.b     D5, [A6]
0000316C  2AB1 0BCA 30F0           move.l     [A5], [[ + <<invalid base displacement size>>] + 0x30F0]
00003172  021D 1492                andi.b     [A5]+, 0x92
00003176  149A                     move.b     [A2], [A2]+
00003178  14A2                     move.b     [A2], -[A2]
0000317A  14AA 14E2                move.b     [A2], [A2 + 0x14E2]
0000317E  14DA                     move.b     [A2]+, [A2]+
00003180  14D2                     move.b     [A2]+, [A2]
00003182  14B2 14BA                move.b     [A2], [A2 + D1.w * 4 - 0x46]
00003186  14C2                     move.b     [A2]+, D2
00003188  14CA                     move.b     [A2]+, A2
0000318A  208A                     move.l     [A0], A2
0000318C  1EC2                     move.b     [A7]+, D2
0000318E  1ECA                     move.b     [A7]+, A2
00003190  1F12                     move.b     -[A7], [A2]
00003192  1F1A                     move.b     -[A7], [A2]+
00003194  1F22                     move.b     -[A7], -[A2]
00003196  1F2A 1F32                move.b     -[A7], [A2 + 0x1F32]
0000319A  1F3A 1F4A                move.b     -[A7], [PC + 0x1F4A /* 000050E6, value 0xB1 */]
0000319E  1EDA                     move.b     [A7]+, [A2]+
000031A0  1EE2                     move.b     [A7]+, -[A2]
000031A2  1EEA 1EF2                move.b     [A7]+, [A2 + 0x1EF2]
000031A6  1EFA 1F0A                move.b     [A7]+, [PC + 0x1F0A /* 000050B2, value 0x14 */]
000031AA  01AA 0BD2                bclr       [A2 + 0xBD2], D0
000031AE  81FF                     divs.w     D0, <<invalid special address>>
000031B0  8021                     or.b       D0, -[A1]
000031B2  0BCA                     .incomplete
000031B4  30F0 0204                move.w     [A0]+, [A0 + D0.w * 2 + 0x4]
000031B8  1D1A                     move.b     -[A6], [A2]+
000031BA  1D22                     move.b     -[A6], -[A2]
000031BC  1D52 1D4A                move.b     [A6 + 0x1D4A], [A2]
000031C0  321D                     move.w     D1, [A5]+
000031C2  2AFF                     move.l     [A5]+, <<invalid special address>>
000031C4  8021                     or.b       D0, -[A1]
000031C6  01AA 30F0                bclr       [A2 + 0x30F0], D0
000031CA  0205 1CD2                andi.b     D5, 0xD2
000031CE  1CDA                     move.b     [A6]+, [A2]+
000031D0  1CC2                     move.b     [A6]+, D2
000031D2  1C2A 1C62                move.b     D6, [A2 + 0x1C62]
000031D6  321C                     move.w     D1, [A4]+
000031D8  5AFF                     spl        <<invalid special address>>
000031DA  8022                     or.b       D0, -[A2]
000031DC  1ECA                     move.b     [A7]+, A2
000031DE  FF80                     .invalid   <<F/6/7>>
000031E0  211F                     move.l     -[A0], [A7]+
000031E2  0A30 F002 0E1C           xori.b     [A0 + D0 * 8 + 0x1C], 0x2
000031E8  6A1C                     bpl        +0x1E /* 00003206 */
000031EA  721C                     moveq.l    D1, 0x1C
000031EC  7A1C                     moveq.l    D5, 0x1C
000031EE  321C                     move.w     D1, [A4]+
000031F0  9A1C                     sub.b      D5, [A4]+
000031F2  3A1C                     move.w     D5, [A4]+
000031F4  A21C                     syscall    FreeMem, flags=2
000031F6  421C                     clr.b      [A4]+
000031F8  AA1C                     syscall    SetCCursor
000031FA  521C                     addq.b     [A4]+, 1
000031FC  B21C                     cmp.b      D1, [A4]+
000031FE  4A1C                     tst.b      [A4]+
00003200  E21C                     ror        D4.b, 1
00003202  EAB1                     roxr       D1, D5
00003204  160A                     move.b     D3, A2
label00003206:
00003206  30F0 0204                move.w     [A0]+, [A0 + D0.w * 2 + 0x4]
0000320A  1612                     move.b     D3, [A2]
0000320C  1622                     move.b     D3, -[A2]
0000320E  161A                     move.b     D3, [A2]+
00003210  162A B116                move.b     D3, [A2 - 0x4EEA]
00003214  0A32 1612 FEC8           xori.b     [A2 + A7 * 8 - 0x38], 0x12
0000321A  2114                     move.l     -[A0], [A4]
0000321C  E230                     roxr       D0.b, D1
0000321E  F002 0216                pmove      MR0, D2
00003222  1A16                     move.b     D5, [A6]
00003224  2A40                     movea.l    A5, D0
00003226  220A                     move.l     D1, A2
00003228  436F 776D                chk.w      D1, [A7 + 0x776D]
0000322C  616E                     bsr        +0x70 /* 0000329C */
0000322E  2E6D 6964                movea.l    A7, [A5 + 0x6964]
00003232  0015 4765                ori.b      [A5], 0x65 /* 'e' */
00003236  7449                     moveq.l    D2, 0x49
00003238  636F                     bls        +0x71 /* 000032A9 */
0000323A  6E53                     bgt        +0x55 /* 0000328F */
0000323C  7569                     moveq.l    D2, 0x69
0000323E  7465                     moveq.l    D2, 0x65
00003240  2066                     movea.l    A0, -[A6]
00003242  6169                     bsr        +0x6B /* 000032AD */
00003244  6C65                     bge        +0x67 /* 000032AB */
00003246  643A                     bcc        +0x3C /* 00003282 */
00003248  2018                     move.l     D0, [A0]+
0000324A  0455 484F                subi.w     [A5], 0x484F /* 'HO' */
0000324E  4800                     nbcd.b     D0
00003250  044F 6B61                subi.w     A7, 0x6B61 /* 'ka' */
00003254  7900                     moveq.l    D4, 0x00
00003256  0342                     bchg       D2, D1
00003258  7579                     moveq.l    D2, 0x79
0000325A  1A04                     move.b     D5, D4
0000325C  5365                     subq.w     -[A5], 1
0000325E  6C6C                     bge        +0x6E /* 000032CC */
00003260  0006 4361                ori.b      D6, 0x61 /* 'a' */
00003264  6E63                     bgt        +0x65 /* 000032C9 */
00003266  656C                     bcs        +0x6E /* 000032D4 */
00003268  0005 476F                ori.b      D5, 0x6F /* 'o' */
0000326C  2074 6F12 0355           movea.l    A0, [[A4 + D6 * 8] + 0x355]
00003272  7365                     moveq.l    D1, 0x65
00003274  1804                     move.b     D4, D4
00003276  4578 6974                chk.w      D2, [0x00006974]
0000327A  0004 4C6F                ori.b      D4, 0x6F /* 'o' */
0000327E  6164                     bsr        +0x66 /* 000032E4 */
00003280  0003 4E65                ori.b      D3, 0x65 /* 'e' */
// begin alternate branch 00003282-00003284
label00003282:
00003282  4E65                     move       USP, A5
// end alternate branch 00003282-00003284
label00003282: // (misaligned)
00003284  7715                     moveq.l    D3, 0x15
00003286  0455 7365                subi.w     [A5], 0x7365 /* 'se' */
0000328A  6400 0359                bcc        +0x35B /* 000035E5 */
0000328E  6573                     bcs        +0x75 /* 00003303 */
00003290  1802                     move.b     D4, D2
00003292  4E6F                     move       A7, USP
00003294  0004 5361                ori.b      D4, 0x61 /* 'a' */
00003298  7665                     moveq.l    D3, 0x65
0000329A  0005 5261                ori.b      D5, 0x61 /* 'a' */
// begin alternate branch 0000329C-0000329E
fn0000329C:
0000329C  5261                     addq.w     -[A1], 1
// end alternate branch 0000329C-0000329E
fn0000329C: // (misaligned)
0000329E  7473                     moveq.l    D2, 0x73
000032A0  2120                     move.l     -[A0], -[A0]
000032A2  34FF                     move.w     [A2]+, <<invalid special address>>
000032A4  FFA5                     .invalid   <<F/6/7>>
000032A6  EEFF FFE8                bfset      <<invalid special address>> {D7:D0}
000032AA  F0FF FFEA                .extension 0x0FF <<F/2-3/0>> // unimplemented
000032AE  E8FF FFEB                bftst      <<invalid special address>> {D7:D3}
000032B2  20FF                     move.l     [A0]+, <<invalid special address>>
000032B4  FFD9                     .invalid   <<F/7/7>>
000032B6  38FF                     move.w     [A4]+, <<invalid special address>>
000032B8  FFDB                     .invalid   <<F/7/7>>
000032BA  48FF FFDB                movem.l    <<invalid special address>>, D0,D1,D3,D4,D6,D7,A0,A1,A2,A3,A4,A5,A6,A7
000032BE  80FF                     divu.w     D0, <<invalid special address>>
000032C0  FFEB                     .invalid   <<F/7/7>>
000032C2  58FF                     svc        <<invalid special address>>
000032C4  FFED                     .invalid   <<F/7/7>>
000032C6  88FF                     divu.w     D4, <<invalid special address>>
000032C8  FFED                     .invalid   <<F/7/7>>
000032CA  C0FF                     mulu.w     D0, <<invalid special address>>
label000032CC:
000032CC  FF50                     .extension 0xF50 <<F/4-5/7>> // unimplemented
000032CE  8EFF                     divu.w     D7, <<invalid special address>>
000032D0  FF52                     .extension 0xF52 <<F/4-5/7>> // unimplemented
000032D2  BEFF                     cmpa.w     A7, <<invalid special address>>
label000032D4:
000032D4  FF52                     .extension 0xF52 <<F/4-5/7>> // unimplemented
000032D6  F671 0C2A                .extension 0x671 <<F/1/3>>, 0x0C2A // unimplemented
000032DA  30F0 0243                move.w     [A0]+, [A0 + D0.w * 2 + 0x43]
000032DE  1492                     move.b     [A2], [A2]
000032E0  149A                     move.b     [A2], [A2]+
000032E2  14A2                     move.b     [A2], -[A2]
fn000032E4:
000032E4  14AA 14E2                move.b     [A2], [A2 + 0x14E2]
000032E8  14DA                     move.b     [A2]+, [A2]+
000032EA  14D2                     move.b     [A2]+, [A2]
000032EC  14B2 14BA                move.b     [A2], [A2 + D1.w * 4 - 0x46]
000032F0  12E2                     move.b     [A1]+, -[A2]
000032F2  14CA                     move.b     [A2]+, A2
000032F4  10BA 12AA                move.b     [A0], [PC + 0x12AA /* 000045A0, value 0xFF */]
000032F8  130A                     move.b     -[A1], A2
000032FA  10CA                     move.b     [A0]+, A2
000032FC  10D2                     move.b     [A0]+, [A2]
000032FE  10DA                     move.b     [A0]+, [A2]+
00003300  10E2                     move.b     [A0]+, -[A2]
00003302  12EA 10F2                move.b     [A1]+, [A2 + 0x10F2]
00003306  10FA 1302                move.b     [A0]+, [PC + 0x1302 /* 0000460A, value 0x12 */]
0000330A  12A2                     move.b     [A1], -[A2]
0000330C  1252                     movea.b    A1, [A2]
0000330E  110A                     move.b     -[A0], A2
00003310  1112                     move.b     -[A0], [A2]
00003312  111A                     move.b     -[A0], [A2]+
00003314  128A                     move.b     [A1], A2
00003316  1292                     move.b     [A1], [A2]
00003318  129A                     move.b     [A1], [A2]+
0000331A  1122                     move.b     -[A0], -[A2]
0000331C  112A 1132                move.b     -[A0], [A2 + 0x1132]
00003320  0F5A                     bchg       [A2]+, D7
00003322  1142 11CA                move.b     [A0 + 0x11CA], D2
00003326  11DA 11D2                move.b     [0x000011D2], [A2]+
0000332A  1222                     move.b     D1, -[A2]
0000332C  122A 1232                move.b     D1, [A2 + 0x1232]
00003330  123A 1242                move.b     D1, [PC + 0x1242 /* 00004574, value 0x0, cstring "" */]
00003334  124A                     movea.b    A1, A2
00003336  114A 1152                move.b     [A0 + 0x1152], A2
0000333A  115A 1162                move.b     [A0 + 0x1162], [A2]+
0000333E  116A 1172 117A           move.b     [A0 + 0x117A], [A2 + 0x1172]
00003344  1182 125A                move.b     [A0 + D1.w * 2 + 0x5A], D2
00003348  107A 134A                movea.b    A0, [PC + 0x134A /* 00004694, value 0x21 '!' */]
0000334C  11A2 11AA 0C32 11BA      move.b     [[0xC32 + D1] + 0x11BA], -[A2]
00003354  11C2 1342                move.b     [0x00001342], D2
00003358  1312                     move.b     -[A1], [A2]
0000335A  131A                     move.b     -[A1], [A2]+
0000335C  0C3A 0F52 133A           cmpi.b     [PC + 0x133A /* 00004698, value 0xF0 */], 0x52 /* 'R' */
00003362  132A B116                move.b     -[A1], [A2 - 0x4EEA]
00003366  0A30 F002 0416           xori.b     [A0 + D0.w * 4 + 0x16], 0x2
0000336C  1216                     move.b     D1, [A6]
0000336E  2216                     move.l     D1, [A6]
00003370  1A16                     move.b     D5, [A6]
00003372  2AB1 160A                move.l     [A5], [A1 + D1.w * 8 + 0xA]
00003376  3216                     move.w     D1, [A6]
00003378  12FE                     move.b     [A1]+, <<invalid special address>>
0000337A  1C21                     move.b     D6, -[A1]
0000337C  14E2                     move.b     [A2]+, -[A2]
0000337E  30F0 0202                move.w     [A0]+, [A0 + D0.w * 2 + 0x2]
00003382  161A                     move.b     D3, [A2]+
00003384  162A 0015                move.b     D3, [A2 + 0x15]
00003388  090A                     btst       A2, D4
0000338A  0C1C 0C1D                cmpi.b     [A4]+, 0x1D
0000338E  0C1E 0C1E                cmpi.b     [A6]+, 0x1E
00003392  0C1D 0C1C                cmpi.b     [A5]+, 0x1C
00003396  0C1F 0C20                cmpi.b     [A7]+, 0x20 /* ' ' */
0000339A  0C20 0C1D                cmpi.b     -[A0], 0x1D
0000339E  000D 0906                ori.b      A5, 0x6
000033A2  0C26 0C27                cmpi.b     -[A6], 0x27 /* '\'' */
000033A6  0C27 0C28                cmpi.b     -[A7], 0x28 /* '(' */
000033AA  0C29 0C29 0013           cmpi.b     [A1 + 0x13], 0x29 /* ')' */
000033B0  1109                     move.b     -[A0], A1
000033B2  0C30 0C31 0C32           cmpi.b     [A0 + D0 * 4 + 0x32], 0x31 /* '1' */
000033B8  0C33 0C33 0C33           cmpi.b     [A3 + D0 * 4 + 0x33], 0x33 /* '3' */
000033BE  0C32 0C31 0C30           cmpi.b     [A2 + D0 * 4 + 0x30], 0x31 /* '1' */
000033C4  5F0C                     subq.b     A4, 7
000033C6  7363                     moveq.l    D1, 0x63
000033C8  656E                     bcs        +0x70 /* 00003438 */
000033CA  6172                     bsr        +0x74 /* 0000343E */
000033CC  696F                     bvs        +0x71 /* 0000343D */
000033CE  2E6F 6474                movea.l    A7, [A7 + 0x6474]
000033D2  00FF                     .incomplete
000033D4  FFA5                     .invalid   <<F/6/7>>
000033D6  EEFF FF53                bfset      <<invalid special address>> {D5:19}
000033DA  A6FF                     syscall    XFindLine/TEFindLine, flags=6
000033DC  FF55                     .extension 0xF55 <<F/4-5/7>> // unimplemented
000033DE  9EFF                     sub.w      A7, <<invalid special address>>
000033E0  FF55                     .extension 0xF55 <<F/4-5/7>> // unimplemented
000033E2  D671 0D7A 30F0 023C 1492 add.w      D3, [[A1 + 0x30F0023C] + 0x1492]
000033EC  149A                     move.b     [A2], [A2]+
000033EE  14A2                     move.b     [A2], -[A2]
000033F0  14AA 14E2                move.b     [A2], [A2 + 0x14E2]
000033F4  14DA                     move.b     [A2]+, [A2]+
000033F6  14D2                     move.b     [A2]+, [A2]
000033F8  14B2 14BA                move.b     [A2], [A2 + D1.w * 4 - 0x46]
000033FC  0D82                     bclr       D2, D6
000033FE  14CA                     move.b     [A2]+, A2
00003400  10BA 12AA                move.b     [A0], [PC + 0x12AA /* 000046AC, value 0xF0 */]
00003404  10C2                     move.b     [A0]+, D2
00003406  10CA                     move.b     [A0]+, A2
00003408  10D2                     move.b     [A0]+, [A2]
0000340A  10DA                     move.b     [A0]+, [A2]+
0000340C  10E2                     move.b     [A0]+, -[A2]
0000340E  10EA 10F2                move.b     [A0]+, [A2 + 0x10F2]
00003412  10FA 1102                move.b     [A0]+, [PC + 0x1102 /* 00004516, value 0x11 */]
00003416  12A2                     move.b     [A1], -[A2]
00003418  1252                     movea.b    A1, [A2]
0000341A  110A                     move.b     -[A0], A2
0000341C  1112                     move.b     -[A0], [A2]
0000341E  111A                     move.b     -[A0], [A2]+
00003420  128A                     move.b     [A1], A2
00003422  1292                     move.b     [A1], [A2]
00003424  129A                     move.b     [A1], [A2]+
00003426  1122                     move.b     -[A0], -[A2]
00003428  112A 1132                move.b     -[A0], [A2 + 0x1132]
0000342C  113A 1142                move.b     -[A0], [PC + 0x1142 /* 00004570, value 0x2E '.', cstring ".voc" */]
00003430  11CA 11DA                move.b     [0x000011DA], A2
00003434  11D2 1222                move.b     [0x00001222], [A2]
label00003438:
00003438  122A 1232                move.b     D1, [A2 + 0x1232]
0000343C  123A 1242                move.b     D1, [PC + 0x1242 /* 00004680, value 0x4A 'J' */]
// begin alternate branch 0000343E-00003440
fn0000343E:
0000343E  1242                     movea.b    A1, D2
// end alternate branch 0000343E-00003440
fn0000343E: // (misaligned)
00003440  124A                     movea.b    A1, A2
00003442  114A 1152                move.b     [A0 + 0x1152], A2
00003446  115A 1162                move.b     [A0 + 0x1162], [A2]+
0000344A  116A 1172 117A           move.b     [A0 + 0x117A], [A2 + 0x1172]
00003450  1182 125A                move.b     [A0 + D1.w * 2 + 0x5A], D2
00003454  1192 119A 11A2           move.b     [[ + D1] + 0x11A2], [A2]
0000345A  11AA 0D92 11BA 11C2 B... move.b     [[0x11C2B116 + D1] + 0xA32], [A2 + 0xD92]
00003466  1612                     move.b     D3, [A2]
00003468  F938                     .extension 0x938 <<F/4-5/4>> // unimplemented
0000346A  2114                     move.l     -[A0], [A4]
0000346C  E230                     roxr       D0.b, D1
0000346E  F002 0216                pmove      MR0, D2
00003472  1A16                     move.b     D5, [A6]
00003474  2AB1 160A                move.l     [A5], [A1 + D1.w * 8 + 0xA]
00003478  30F0 0204                move.w     [A0]+, [A0 + D0.w * 2 + 0x4]
0000347C  1612                     move.b     D3, [A2]
0000347E  1622                     move.b     D3, -[A2]
00003480  161A                     move.b     D3, [A2]+
00003482  162A 8305                move.b     D3, [A2 - 0x7CFB]
00003486  4974 656D                chk.w      D4, <<invalid full ext with IS == 1 and I/IS == 5>>
0000348A  2010                     move.l     D0, [A0]
0000348C  3A04                     move.w     D5, D4
0000348E  206F 6620                movea.l    A0, [A7 + 0x6620]
00003492  0010 4E6F                ori.b      [A0], 0x6F /* 'o' */
00003496  7468                     moveq.l    D2, 0x68
00003498  696E                     bvs        +0x70 /* 00003508 */
0000349A  6720                     beq        +0x22 /* 000034BC */
0000349C  666F                     bne        +0x71 /* 0000350D */
0000349E  7220                     moveq.l    D1, 0x20
000034A0  7361                     moveq.l    D1, 0x61
000034A2  6C65                     bge        +0x67 /* 00003509 */
000034A4  0010 4E6F                ori.b      [A0], 0x6F /* 'o' */
000034A8  7468                     moveq.l    D2, 0x68
000034AA  696E                     bvs        +0x70 /* 0000351A */
000034AC  6720                     beq        +0x22 /* 000034CE */
000034AE  666F                     bne        +0x71 /* 0000351F */
000034B0  7220                     moveq.l    D1, 0x20
000034B2  7361                     moveq.l    D1, 0x61
000034B4  6C65                     bge        +0x67 /* 0000351B */
000034B6  000C 6974                ori.b      A4, 0x74 /* 't' */
000034BA  656D                     bcs        +0x6F /* 00003529 */
label000034BC:
000034BC  7465                     moveq.l    D2, 0x65
000034BE  7874                     moveq.l    D4, 0x74
000034C0  2E64                     movea.l    A7, -[A4]
000034C2  6174                     bsr        +0x76 /* 00003538 */
000034C4  0001 2410                ori.b      D1, 0x10
000034C8  24FF                     move.l     [A2]+, <<invalid special address>>
000034CA  FFA5                     .invalid   <<F/6/7>>
000034CC  EEFF FF56                bfset      <<invalid special address>> {D5:22}
// begin alternate branch 000034CE-000034D0
label000034CE:
000034CE  FF56                     .extension 0xF56 <<F/4-5/7>> // unimplemented
// end alternate branch 000034CE-000034D0
label000034CE: // (misaligned)
000034D0  7EFF                     moveq.l    D7, 0xFFFFFFFF
000034D2  FF58                     .extension 0xF58 <<F/4-5/7>> // unimplemented
000034D4  76FF                     moveq.l    D3, 0xFFFFFFFF
000034D6  FF58                     .extension 0xF58 <<F/4-5/7>> // unimplemented
000034D8  AEFF                     syscall    0xAFF, auto_pop
000034DA  FFBA                     .invalid   <<F/6/7>>
000034DC  CEFF                     mulu.w     D7, <<invalid special address>>
000034DE  FF58                     .extension 0xF58 <<F/4-5/7>> // unimplemented
000034E0  E6FF                     ror   .w   <<invalid special address>>
000034E2  FF5A                     .extension 0xF5A <<F/4-5/7>> // unimplemented
000034E4  5EFF                     sgt        <<invalid special address>>
000034E6  FF5A                     .extension 0xF5A <<F/4-5/7>> // unimplemented
000034E8  96FF                     sub.w      A3, <<invalid special address>>
000034EA  FF5A                     .extension 0xF5A <<F/4-5/7>> // unimplemented
000034EC  CE71 0DA2 30F0 023C      and.w      D7, [[0x30F0 + D0 * 4] + 0x23C]
000034F4  1492                     move.b     [A2], [A2]
000034F6  149A                     move.b     [A2], [A2]+
000034F8  14A2                     move.b     [A2], -[A2]
000034FA  14AA 14E2                move.b     [A2], [A2 + 0x14E2]
000034FE  14DA                     move.b     [A2]+, [A2]+
00003500  14D2                     move.b     [A2]+, [A2]
00003502  14B2 14BA                move.b     [A2], [A2 + D1.w * 4 - 0x46]
00003506  0DC2                     .incomplete
label00003508:
00003508  14CA                     move.b     [A2]+, A2
0000350A  10BA 12AA                move.b     [A0], [PC + 0x12AA /* 000047B6, value 0x30 '0' */]
0000350E  0DCA                     .incomplete
00003510  10CA                     move.b     [A0]+, A2
00003512  10D2                     move.b     [A0]+, [A2]
00003514  10DA                     move.b     [A0]+, [A2]+
00003516  10E2                     move.b     [A0]+, -[A2]
00003518  10EA 10F2                move.b     [A0]+, [A2 + 0x10F2]
// begin alternate branch 0000351A-00003522
label0000351A:
0000351A  10F2 10FA                move.b     [A0]+, [A2 + D1.w - 0x6]
0000351E  0DAA 12A2                bclr       [A2 + 0x12A2], D6
// end alternate branch 0000351A-00003522
label0000351A: // (misaligned)
0000351C  10FA 0DAA                move.b     [A0]+, [PC + 0xDAA /* 000042C8, value 0x65 'e' */]
00003520  12A2                     move.b     [A1], -[A2]
00003522  1252                     movea.b    A1, [A2]
00003524  110A                     move.b     -[A0], A2
00003526  1112                     move.b     -[A0], [A2]
00003528  111A                     move.b     -[A0], [A2]+
0000352A  128A                     move.b     [A1], A2
0000352C  1292                     move.b     [A1], [A2]
0000352E  129A                     move.b     [A1], [A2]+
00003530  1122                     move.b     -[A0], -[A2]
00003532  112A 1132                move.b     -[A0], [A2 + 0x1132]
00003536  0DB2 1142 11CA           bclr       [[A2 + <<invalid base displacement size>>] + 0x11CA], D6
// begin alternate branch 00003538-0000353C
fn00003538:
00003538  1142 11CA                move.b     [A0 + 0x11CA], D2
// end alternate branch 00003538-0000353C
fn00003538: // (misaligned)
0000353C  11DA 11D2                move.b     [0x000011D2], [A2]+
00003540  1222                     move.b     D1, -[A2]
00003542  122A 1232                move.b     D1, [A2 + 0x1232]
00003546  123A 1242                move.b     D1, [PC + 0x1242 /* 0000478A, value 0x80 */]
0000354A  124A                     movea.b    A1, A2
0000354C  114A 1152                move.b     [A0 + 0x1152], A2
00003550  115A 1162                move.b     [A0 + 0x1162], [A2]+
00003554  116A 1172 117A           move.b     [A0 + 0x117A], [A2 + 0x1172]
0000355A  1182 125A                move.b     [A0 + D1.w * 2 + 0x5A], D2
0000355E  1192 119A 11A2           move.b     [[ + D1] + 0x11A2], [A2]
00003564  11AA 0DDA 11BA 0DD2 B... move.b     [[0xDD2B116 + D1] + 0xA32], [A2 + 0xDDA]
00003570  1612                     move.b     D3, [A2]
00003572  FE56 2114                .extension 0xE56 <<F/1/7>>, 0x2114 // unimplemented
00003576  E230                     roxr       D0.b, D1
00003578  F002 0216                pmove      MR0, D2
0000357C  1A16                     move.b     D5, [A6]
0000357E  2AB1 160A                move.l     [A5], [A1 + D1.w * 8 + 0xA]
00003582  30F0 0204                move.w     [A0]+, [A0 + D0.w * 2 + 0x4]
00003586  1612                     move.b     D3, [A2]
00003588  1622                     move.b     D3, -[A2]
0000358A  161A                     move.b     D3, [A2]+
0000358C  162A B10D                move.b     D3, [A2 - 0x4EF3]
00003590  E230                     roxr       D0.b, D1
00003592  F002 2C14                .pflush    0xF002, 0x2C14 // unimplemented
00003596  9214                     sub.b      D1, [A4]
00003598  9A14                     sub.b      D5, [A4]
0000359A  A214                     syscall    GetVol/PBHGetVol/HGetVol, flags=2
0000359C  AA14                     syscall    RGBForeColor
0000359E  E214                     roxr       D4.b, 1
000035A0  DA14                     add.b      D5, [A4]
000035A2  D214                     add.b      D1, [A4]
000035A4  B214                     cmp.b      D1, [A4]
000035A6  BA0D                     cmp.b      D5, A5
000035A8  EA14                     roxr       D4.b, 5
000035AA  CA21                     and.b      D5, -[A1]
000035AC  5A21                     addq.b     -[A1], 5
000035AE  6221                     bhi        +0x23 /* 000035D1 */
000035B0  7221                     moveq.l    D1, 0x21
000035B2  EA21                     asr        D1.b, D5
000035B4  F221 FA22                .cpgen     0xF221, 0xFA22 // unimplemented
000035B8  0222 0A22                andi.b     -[A2], 0x22 /* '\"' */
000035BC  1221                     move.b     D1, -[A1]
000035BE  8221                     or.b       D1, -[A1]
000035C0  8A21                     or.b       D5, -[A1]
000035C2  9221                     sub.b      D1, -[A1]
000035C4  9A21                     sub.b      D5, -[A1]
000035C6  A221                     syscall    GetPtrSize, flags=2
000035C8  AA21                     syscall    OpColor
000035CA  7A21                     moveq.l    D5, 0x21
000035CC  521F                     addq.b     [A7]+, 1
000035CE  C21F                     and.b      D1, [A7]+
000035D0  CA21                     and.b      D5, -[A1]
000035D2  4A1D                     tst.b      [A5]+
000035D4  DA22                     add.b      D5, -[A2]
000035D6  1A22                     move.b     D5, -[A2]
000035D8  2221                     move.l     D1, -[A1]
000035DA  6A22                     bpl        +0x24 /* 000035FE */
000035DC  4A1D                     tst.b      [A5]+
000035DE  E222                     asr        D2.b, D1
000035E0  2A22                     move.l     D5, -[A2]
000035E2  3222                     move.w     D1, -[A2]
000035E4  4221                     clr.b      -[A1]
000035E6  E221                     asr        D1.b, D1
000035E8  CA21                     and.b      D5, -[A1]
000035EA  D20D                     add.b      D1, A5
000035EC  F2B1 160A                .extension 0x2B1 <<F/2-3/1>> // unimplemented
000035F0  3216                     move.w     D1, [A6]
000035F2  12FE                     move.b     [A1]+, <<invalid special address>>
000035F4  0421 14E2                subi.b     -[A1], 0xE2
000035F8  30F0 0202                move.w     [A0]+, [A0 + D0.w * 2 + 0x2]
000035FC  161A                     move.b     D3, [A2]+
label000035FE:
000035FE  162A B116                move.b     D3, [A2 - 0x4EEA]
00003602  0A30 F002 0416           xori.b     [A0 + D0.w * 4 + 0x16], 0x2
00003608  1216                     move.b     D1, [A6]
0000360A  2216                     move.l     D1, [A6]
0000360C  1A16                     move.b     D5, [A6]
0000360E  2A81                     move.l     [A5], D1
00003610  FF80                     .invalid   <<F/6/7>>
00003612  210D                     move.l     -[A0], A5
00003614  E230                     roxr       D0.b, D1
00003616  F002 041D                pmove      D2, MR1
0000361A  1A1D                     move.b     D5, [A5]+
0000361C  221D                     move.l     D1, [A5]+
0000361E  521D                     addq.b     [A5]+, 1
00003620  4A32 1D2A FF80 20F0      tst.b      [[A2 - 0x80 + D1 * 4] + 0x20F0]
00003628  0402 2152                subi.b     D2, 0x52 /* 'R' */
0000362C  FF80                     .invalid   <<F/6/7>>
0000362E  224A                     movea.l    A1, A2
00003630  FF80                     .invalid   <<F/6/7>>
00003632  2121                     move.l     -[A0], -[A1]
00003634  6A32                     bpl        +0x34 /* 00003668 */
00003636  1CC2                     move.b     [A6]+, D2
00003638  FF80                     .invalid   <<F/6/7>>
0000363A  2221                     move.l     D1, -[A1]
0000363C  4AFF                     tas.b      <<invalid special address>>
0000363E  8021                     or.b       D0, -[A1]
00003640  1DDA                     move.b     <<invalid special address>>, [A2]+
00003642  321C                     move.w     D1, [A4]+
00003644  5AFF                     spl        <<invalid special address>>
00003646  8022                     or.b       D0, -[A2]
00003648  2172 FF80 2121           move.l     [A0 + 0x2121], [ + <<invalid base displacement size>> + A7 * 8]
0000364E  7A30                     moveq.l    D5, 0x30
00003650  F002 021C                pmove      MR0, D2
00003654  6A1C                     bpl        +0x1E /* 00003672 */
00003656  7232                     moveq.l    D1, 0x32
00003658  1C7A FF80                movea.b    A6, [PC - 0x80 /* 000035DA, value 0x6A 'j' */]
0000365C  221F                     move.l     D1, [A7]+
0000365E  C2FF                     mulu.w     D1, <<invalid special address>>
00003660  8021                     or.b       D0, -[A1]
00003662  1FCA                     move.b     <<invalid special address>>, A2
00003664  30F0 0206                move.w     [A0]+, [A0 + D0.w * 2 + 0x6]
label00003668:
00003668  1C3A 1CA2                move.b     D6, [PC + 0x1CA2 /* 0000530C, value 0x22 '\"' */]
0000366C  1C42                     movea.b    A6, D2
0000366E  1CAA 1C52                move.b     [A6], [A2 + 0x1C52]
label00003672:
00003672  1CB2 321C                move.b     [A6], [A2 + D3.w * 2 + 0x1C]
00003676  4AFF                     tas.b      <<invalid special address>>
00003678  8022                     or.b       D0, -[A2]
0000367A  221A                     move.l     D1, [A2]+
0000367C  FF80                     .invalid   <<F/6/7>>
0000367E  2122                     move.l     -[A0], -[A2]
00003680  226B 1547                movea.l    A1, [A3 + 0x1547]
00003684  6574                     bcs        +0x76 /* 000036FA */
00003686  4963                     chk.w      D4, -[A3]
00003688  6F6E                     ble        +0x70 /* 000036F8 */
0000368A  5375 6974                subq.w     <<invalid full ext with I/IS == 4>>, 1
0000368E  6520                     bcs        +0x22 /* 000036B0 */
00003690  6661                     bne        +0x63 /* 000036F3 */
00003692  696C                     bvs        +0x6E /* 00003700 */
00003694  6564                     bcs        +0x66 /* 000036FA */
00003696  3A20                     move.w     D5, -[A0]
00003698  103A 0455                move.b     D0, [PC + 0x455 /* 00003AEF, value 0xAA */]
0000369C  484F                     pea.l      A7
0000369E  4800                     nbcd.b     D0
000036A0  FFFF                     .invalid   <<F/7/7>>
000036A2  A5EE                     syscall    vCkExtFS, flags=5
000036A4  FFFF                     .invalid   <<F/7/7>>
000036A6  E8F0 FFFF EAE8           bftst      [A0 + A6 * 2 - 0x18] {D7:D7}
000036AC  FFFF                     .invalid   <<F/7/7>>
000036AE  EB20                     asl        D0.b, D5
label000036B0:
000036B0  FFFF                     .invalid   <<F/7/7>>
000036B2  D938 FFFF                add.b      [0xFFFFFFFF], D4
000036B6  DB48                     addx.w     -[A5], -[A0]
000036B8  FFFF                     .invalid   <<F/7/7>>
000036BA  DB80                     addx.l     D5, D0
000036BC  FFFF                     .invalid   <<F/7/7>>
000036BE  EB58                     rol        D0.w, 5
000036C0  FFFF                     .invalid   <<F/7/7>>
000036C2  ED88                     lsl        D0, 6
000036C4  FFFF                     .invalid   <<F/7/7>>
000036C6  EDC0 FFFF                bfffo      D7, D0 {D7:D7}
000036CA  5C1C                     addq.b     [A4]+, 6
000036CC  FFFF                     .invalid   <<F/7/7>>
000036CE  5E4C                     addq.w     A4, 7
000036D0  FFFF                     .invalid   <<F/7/7>>
000036D2  5E84                     addq.l     D4, 7
000036D4  710E                     moveq.l    D0, 0x0E
000036D6  0230 F002 4314           andi.b     <<invalid full ext with I/IS == 4>>, 0x2
000036DC  9214                     sub.b      D1, [A4]
000036DE  9A14                     sub.b      D5, [A4]
000036E0  A214                     syscall    GetVol/PBHGetVol/HGetVol, flags=2
000036E2  AA14                     syscall    RGBForeColor
000036E4  E214                     roxr       D4.b, 1
000036E6  DA14                     add.b      D5, [A4]
000036E8  D214                     add.b      D1, [A4]
000036EA  B214                     cmp.b      D1, [A4]
000036EC  BA0E                     cmp.b      D5, A6
000036EE  1214                     move.b     D1, [A4]
000036F0  CA10                     and.b      D5, [A0]
000036F2  BA12                     cmp.b      D5, [A2]
000036F4  AA13                     syscall    FillCPoly
000036F6  0A10 CA10                xori.b     [A0], 0x10
// begin alternate branch 000036F8-000036FA
label000036F8:
000036F8  CA10                     and.b      D5, [A0]
// end alternate branch 000036F8-000036FA
label000036F8: // (misaligned)
label000036FA:
000036FA  D210                     add.b      D1, [A0]
000036FC  DA10                     add.b      D5, [A0]
000036FE  E212                     roxr       D2.b, 1
label00003700:
00003700  EA10                     roxr       D0.b, 5
00003702  F210 FA13                .cpgen     0xF210, 0xFA13 // unimplemented
00003706  0212 A212                andi.b     [A2], 0x12
0000370A  5211                     addq.b     [A1], 1
0000370C  0A11 1211                xori.b     [A1], 0x11
00003710  1A12                     move.b     D5, [A2]
00003712  8A12                     or.b       D5, [A2]
00003714  9212                     sub.b      D1, [A2]
00003716  9A11                     sub.b      D5, [A1]
00003718  2211                     move.l     D1, [A1]
0000371A  2A11                     move.l     D5, [A1]
0000371C  320E                     move.w     D1, A6
0000371E  1A11                     move.b     D5, [A1]
00003720  4211                     clr.b      [A1]
00003722  CA11                     and.b      D5, [A1]
00003724  DA11                     add.b      D5, [A1]
00003726  D212                     add.b      D1, [A2]
00003728  2212                     move.l     D1, [A2]
0000372A  2A12                     move.l     D5, [A2]
0000372C  3212                     move.w     D1, [A2]
0000372E  3A12                     move.w     D5, [A2]
00003730  4212                     clr.b      [A2]
00003732  4A11                     tst.b      [A1]
00003734  4A11                     tst.b      [A1]
00003736  5211                     addq.b     [A1], 1
00003738  5A11                     addq.b     [A1], 5
0000373A  6211                     bhi        +0x13 /* 0000374D */
0000373C  6A11                     bpl        +0x13 /* 0000374F */
0000373E  7211                     moveq.l    D1, 0x11
00003740  7A11                     moveq.l    D5, 0x11
00003742  8212                     or.b       D1, [A2]
00003744  5A12                     addq.b     [A2], 5
00003746  C20E                     and.b      D1, A6
00003748  2211                     move.l     D1, [A1]
0000374A  A211                     syscall    GetEOF, flags=2
0000374C  AA11                     syscall    FillCArc
0000374E  B211                     cmp.b      D1, [A1]
00003750  BA0E                     cmp.b      D5, A6
00003752  2A13                     move.l     D5, [A3]
00003754  4213                     clr.b      [A3]
00003756  1213                     move.b     D1, [A3]
00003758  1A13                     move.b     D5, [A3]
0000375A  220E                     move.l     D1, A6
0000375C  3213                     move.w     D1, [A3]
0000375E  3A13                     move.w     D5, [A3]
00003760  2AB1 160A                move.l     [A5], [A1 + D1.w * 8 + 0xA]
00003764  30F0 0204                move.w     [A0]+, [A0 + D0.w * 2 + 0x4]
00003768  1612                     move.b     D3, [A2]
0000376A  1622                     move.b     D3, -[A2]
0000376C  161A                     move.b     D3, [A2]+
0000376E  162A B116                move.b     D3, [A2 - 0x4EEA]
00003772  0A32 1612 FE3C           xori.b     [A2 + A7 * 8 + 0x3C], 0x12
00003778  2114                     move.l     -[A0], [A4]
0000377A  E230                     roxr       D0.b, D1
0000377C  F002 0216                pmove      MR0, D2
00003780  1A16                     move.b     D5, [A6]
00003782  2A40                     movea.l    A5, D0
00003784  2A29 5765                move.l     D5, [A1 + 0x5765]
00003788  6174                     bsr        +0x76 /* 000037FE */
0000378A  6865                     bvc        +0x67 /* 000037F1 */
0000378C  7249                     moveq.l    D1, 0x49
0000378E  6E64                     bgt        +0x66 /* 000037F4 */
00003790  6963                     bvs        +0x65 /* 000037F5 */
00003792  6174                     bsr        +0x76 /* 00003808 */
00003794  6F72                     ble        +0x74 /* 00003808 */
00003796  2073 7461                movea.l    A0, [A3 + D7.w * 4 + 0x61]
0000379A  636B                     bls        +0x6D /* 00003807 */
0000379C  2064                     movea.l    A0, -[A4]
0000379E  6570                     bcs        +0x72 /* 00003810 */
000037A0  7468                     moveq.l    D2, 0x68
000037A2  206F 7665                movea.l    A0, [A7 + 0x7665]
000037A6  7277                     moveq.l    D1, 0x77
000037A8  6865                     bvc        +0x67 /* 0000380F */
000037AA  6C6D                     bge        +0x6F /* 00003819 */
000037AC  6564                     bcs        +0x66 /* 00003812 */
000037AE  211C                     move.l     -[A0], [A4]+
000037B0  FFFF                     .invalid   <<F/7/7>>
000037B2  A5EE                     syscall    vCkExtFS, flags=5
000037B4  FFFF                     .invalid   <<F/7/7>>
000037B6  5F00                     subq.b     D0, 7
000037B8  FFFF                     .invalid   <<F/7/7>>
000037BA  6008                     bra        +0xA /* 000037C4 */
000037BC  FFFF                     .invalid   <<F/7/7>>
000037BE  6100 FFFF                bsr        -0xFFFFFFFFFFFFFFFF /* 000037BF */
000037C2  6138                     bsr        +0x3A /* 000037FC */
label000037C4:
000037C4  FFFF                     .invalid   <<F/7/7>>
000037C6  6170                     bsr        +0x72 /* 00003838 */
000037C8  7113                     moveq.l    D0, 0x13
000037CA  6230                     bhi        +0x32 /* 000037FC */
000037CC  F002 1E14                pmove      MR7, D2
000037D0  9214                     sub.b      D1, [A4]
000037D2  9A14                     sub.b      D5, [A4]
000037D4  A214                     syscall    GetVol/PBHGetVol/HGetVol, flags=2
000037D6  AA14                     syscall    RGBForeColor
000037D8  E214                     roxr       D4.b, 1
000037DA  DA14                     add.b      D5, [A4]
000037DC  D214                     add.b      D1, [A4]
000037DE  B214                     cmp.b      D1, [A4]
000037E0  BA1F                     cmp.b      D5, [A7]+
000037E2  B214                     cmp.b      D1, [A4]
000037E4  CA13                     and.b      D5, [A3]
000037E6  7A1E                     moveq.l    D5, 0x1E
000037E8  C21E                     and.b      D1, [A6]+
000037EA  CA1F                     and.b      D5, [A7]+
000037EC  121F                     move.b     D1, [A7]+
000037EE  1A1F                     move.b     D5, [A7]+
000037F0  221F                     move.l     D1, [A7]+
000037F2  2A1F                     move.l     D5, [A7]+
label000037F4:
000037F4  321F                     move.w     D1, [A7]+
000037F6  3A1F                     move.w     D5, [A7]+
000037F8  4A1E                     tst.b      [A6]+
000037FA  DA1E                     add.b      D5, [A6]+
fn000037FC:
000037FC  E21E                     ror        D6.b, 1
fn000037FE:
000037FE  EA1E                     ror        D6.b, 5
00003800  F21E FA1F                .cpgen     0xF21E, 0xFA1F // unimplemented
00003804  0A13 5A1F                xori.b     [A3], 0x1F
fn00003808:
00003808  AA1F                     syscall    PlotCIcon
0000380A  A281                     syscall    SetVideoDefault, flags=2
0000380C  FF80                     .invalid   <<F/6/7>>
0000380E  2113                     move.l     -[A0], [A3]
label00003810:
00003810  6230                     bhi        +0x32 /* 00003842 */
label00003812:
00003812  F002 041D                pmove      D2, MR1
00003816  1A1D                     move.b     D5, [A5]+
00003818  221D                     move.l     D1, [A5]+
0000381A  521D                     addq.b     [A5]+, 1
0000381C  4A32 1D2A FF80 2113      tst.b      [[A2 - 0x80 + D1 * 4] + 0x2113]
00003824  5A30 F002                addq.b     [A0 + A7.w + 0x2], 5
00003828  051C                     btst       [A4]+, D2
0000382A  D21C                     add.b      D1, [A4]+
0000382C  DA1C                     add.b      D5, [A4]+
0000382E  C21C                     and.b      D1, [A4]+
00003830  2A1C                     move.l     D5, [A4]+
00003832  6232                     bhi        +0x34 /* 00003866 */
00003834  1C5A                     movea.b    A6, [A2]+
00003836  FF80                     .invalid   <<F/6/7>>
fn00003838:
00003838  221E                     move.l     D1, [A6]+
0000383A  CAFF                     mulu.w     D5, <<invalid special address>>
0000383C  8021                     or.b       D0, -[A1]
0000383E  1F0A                     move.b     -[A7], A2
00003840  30F0 020E                move.w     [A0]+, [A0 + D0.w * 2 + 0xE]
// begin alternate branch 00003842-0000384E
label00003842:
00003842  020E 1C6A                andi.b     A6, 0x6A /* 'j' */
00003846  1C72 1C7A                movea.b    A6, [A2 + D1 * 4 + 0x7A]
0000384A  1C32 1C9A                move.b     D6, [A2 + D1 * 4 - 0x66]
// end alternate branch 00003842-0000384E
label00003842: // (misaligned)
00003844  1C6A 1C72                movea.b    A6, [A2 + 0x1C72]
00003848  1C7A 1C32                movea.b    A6, [PC + 0x1C32 /* 0000547C, value 0xF0 */]
0000384C  1C9A                     move.b     [A6], [A2]+
0000384E  1C3A 1CA2                move.b     D6, [PC + 0x1CA2 /* 000054F2, value 0x82 */]
00003852  1C42                     movea.b    A6, D2
00003854  1CAA 1C52                move.b     [A6], [A2 + 0x1C52]
00003858  1CB2 1C4A                move.b     [A6], [A2 + D1 * 4 + 0x4A]
0000385C  1CE2                     move.b     [A6]+, -[A2]
0000385E  1CEA B116                move.b     [A6]+, [A2 - 0x4EEA]
00003862  0A30 F002 0416           xori.b     [A0 + D0.w * 4 + 0x16], 0x2
// begin alternate branch 00003866-0000386A
label00003866:
00003866  0416 1216                subi.b     [A6], 0x16
// end alternate branch 00003866-0000386A
label00003866: // (misaligned)
00003868  1216                     move.b     D1, [A6]
0000386A  2216                     move.l     D1, [A6]
0000386C  1A16                     move.b     D5, [A6]
0000386E  2AB1 160A                move.l     [A5], [A1 + D1.w * 8 + 0xA]
00003872  3216                     move.w     D1, [A6]
00003874  12FE                     move.b     [A1]+, <<invalid special address>>
00003876  A021                     syscall    GetPtrSize
00003878  14E2                     move.b     [A2]+, -[A2]
0000387A  30F0 0202                move.w     [A0]+, [A0 + D0.w * 2 + 0x2]
0000387E  161A                     move.b     D3, [A2]+
00003880  162A B116                move.b     D3, [A2 - 0x4EEA]
00003884  0A30 F002 0316 1216      xori.b     [[A0] + D0 * 2 + 0x1216], 0x2
// begin alternate branch 00003886-0000388C
label00003886:
00003886  F002 0316                pmovefd    MR0, D2
label0000388A:
0000388A  1216                     move.b     D1, [A6]
// end alternate branch 00003886-0000388C
label00003886: // (misaligned)
label0000388A: // (misaligned)
0000388C  2216                     move.l     D1, [A6]
0000388E  1A32 162A                move.b     D5, [A2 + D1.w * 8 + 0x2A]
00003892  FED6 211F                .extension 0xED6 <<F/2-3/7>> // unimplemented
00003896  AA03                     syscall    NewPixMap
00003898  3005                     move.w     D0, D5
0000389A  5765                     subq.w     -[A5], 3
0000389C  656B                     bcs        +0x6D /* 00003909 */
0000389E  201F                     move.l     D0, [A7]+
000038A0  0420 6F66                subi.b     -[A0], 0x66 /* 'f' */
000038A4  2000                     move.l     D0, D0
000038A6  0A20 5765                xori.b     -[A0], 0x65 /* 'e' */
000038AA  656B                     bcs        +0x6D /* 00003917 */
000038AC  2054                     movea.l    A0, [A4]
000038AE  696C                     bvs        +0x6E /* 0000391C */
000038B0  6C00 0B20                bge        +0xB22 /* 000043D2 */
// begin alternate branch 000038B2-000038B4
label000038B2:
000038B2  0B20                     btst       -[A0], D5
// end alternate branch 000038B2-000038B4
label000038B2: // (misaligned)
000038B4  5765                     subq.w     -[A5], 3
000038B6  656B                     bcs        +0x6D /* 00003923 */
000038B8  7320                     moveq.l    D1, 0x20
000038BA  5469 6C6C                addq.w     [A1 + 0x6C6C], 2
000038BE  10F0 0402                move.b     [A0]+, [A0 + D0.w * 4 + 0x2]
label000038C2:
000038C2  0346                     bchg       D6, D1
000038C4  2020                     move.l     D0, -[A0]
000038C6  0343                     bchg       D3, D1
000038C8  2020                     move.l     D0, -[A0]
000038CA  1A04                     move.b     D5, D4
000038CC  204D                     movea.l    A0, A5
000038CE  7068                     moveq.l    D0, 0x68
000038D0  000D 4176                ori.b      A5, 0x76 /* 'v' */
000038D4  6572                     bcs        +0x74 /* 00003948 */
000038D6  6167                     bsr        +0x69 /* 0000393F */
000038D8  6520                     bcs        +0x22 /* 000038FA */
000038DA  5261                     addq.w     -[A1], 1
000038DC  696E                     bvs        +0x70 /* 0000394C */
label000038DE:
000038DE  2017                     move.l     D0, [A7]
000038E0  0D52                     bchg       [A2], D6
label000038E2:
000038E2  6169                     bsr        +0x6B /* 0000394D */
000038E4  6E20                     bgt        +0x22 /* 00003906 */
000038E6  746F                     moveq.l    D2, 0x6F
000038E8  2044                     movea.l    A0, D4
000038EA  6174                     bsr        +0x76 /* 00003960 */
000038EC  6520                     bcs        +0x22 /* 0000390E */
label000038EE:
000038EE  1060                     movea.b    A0, -[A0]
000038F0  FFFF                     .invalid   <<F/7/7>>
label000038F2:
000038F2  A5EE                     syscall    vCkExtFS, flags=5
000038F4  FFFF                     .invalid   <<F/7/7>>
000038F6  6292                     bhi        -0x6C /* 0000388A */
000038F8  FFFF                     .invalid   <<F/7/7>>
label000038FA:
000038FA  648A                     bcc        -0x74 /* 00003886 */
000038FC  FFFF                     .invalid   <<F/7/7>>
label000038FE:
000038FE  64C2                     bcc        -0x3C /* 000038C2 */
00003900  FFFF                     .invalid   <<F/7/7>>
label00003902:
00003902  64FA                     bcc        -0x4 /* 000038FE */
00003904  FFFF                     .invalid   <<F/7/7>>
label00003906:
00003906  65FA                     bcs        -0x4 /* 00003902 */
00003908  FFFF                     .invalid   <<F/7/7>>
0000390A  66F2                     bne        -0xC /* 000038FE */
0000390C  FFFF                     .invalid   <<F/7/7>>
label0000390E:
0000390E  672A                     beq        +0x2C /* 0000393A */
00003910  FFFF                     .invalid   <<F/7/7>>
00003912  6762                     beq        +0x64 /* 00003976 */
00003914  FFFF                     .invalid   <<F/7/7>>
00003916  6862                     bvc        +0x64 /* 0000397A */
00003918  FFFF                     .invalid   <<F/7/7>>
0000391A  695A                     bvs        +0x5C /* 00003976 */
label0000391C:
0000391C  FFFF                     .invalid   <<F/7/7>>
0000391E  6992                     bvs        -0x6C /* 000038B2 */
00003920  FFFF                     .invalid   <<F/7/7>>
00003922  69CA                     bvs        -0x34 /* 000038EE */
00003924  FFFF                     .invalid   <<F/7/7>>
00003926  6ACA                     bpl        -0x34 /* 000038F2 */
00003928  FFFF                     .invalid   <<F/7/7>>
label0000392A:
0000392A  6BC2                     bmi        -0x3C /* 000038EE */
0000392C  FFFF                     .invalid   <<F/7/7>>
0000392E  6BFA                     bmi        -0x4 /* 0000392A */
00003930  FFFF                     .invalid   <<F/7/7>>
00003932  6C32                     bge        +0x34 /* 00003966 */
00003934  FFFF                     .invalid   <<F/7/7>>
00003936  6D32                     blt        +0x34 /* 0000396A */
00003938  FFFF                     .invalid   <<F/7/7>>
label0000393A:
0000393A  6E2A                     bgt        +0x2C /* 00003966 */
0000393C  FFFF                     .invalid   <<F/7/7>>
0000393E  6E62                     bgt        +0x64 /* 000039A2 */
00003940  FFFF                     .invalid   <<F/7/7>>
00003942  6E9A                     bgt        -0x64 /* 000038DE */
00003944  FFFF                     .invalid   <<F/7/7>>
00003946  6F9A                     ble        -0x64 /* 000038E2 */
label00003948:
00003948  FFFF                     .invalid   <<F/7/7>>
0000394A  7092                     moveq.l    D0, 0xFFFFFF92
label0000394C:
0000394C  FFFF                     .invalid   <<F/7/7>>
0000394E  70CA                     moveq.l    D0, 0xFFFFFFCA
00003950  710F                     moveq.l    D0, 0x0F
00003952  6A30                     bpl        +0x32 /* 00003984 */
00003954  F002 3C14                .pflush    0xF002, 0x3C14 // unimplemented
00003958  9214                     sub.b      D1, [A4]
0000395A  9A14                     sub.b      D5, [A4]
0000395C  A214                     syscall    GetVol/PBHGetVol/HGetVol, flags=2
0000395E  AA14                     syscall    RGBForeColor
fn00003960:
00003960  E214                     roxr       D4.b, 1
00003962  DA14                     add.b      D5, [A4]
00003964  D214                     add.b      D1, [A4]
label00003966:
00003966  B214                     cmp.b      D1, [A4]
00003968  BA0F                     cmp.b      D5, A7
label0000396A:
0000396A  7214                     moveq.l    D1, 0x14
0000396C  CA10                     and.b      D5, [A0]
0000396E  BA12                     cmp.b      D5, [A2]
00003970  AA0F                     syscall    FillCOval
00003972  7A10                     moveq.l    D5, 0x10
00003974  CA10                     and.b      D5, [A0]
label00003976:
00003976  D210                     add.b      D1, [A0]
00003978  DA10                     add.b      D5, [A0]
label0000397A:
0000397A  E210                     roxr       D0.b, 1
0000397C  EA10                     roxr       D0.b, 5
0000397E  F210 FA11                .cpgen     0xF210, 0xFA11 // unimplemented
00003982  0212 A212                andi.b     [A2], 0x12
// begin alternate branch 00003984-00003986
label00003984:
00003984  A212                     syscall    SetEOF, flags=2
// end alternate branch 00003984-00003986
label00003984: // (misaligned)
00003986  5211                     addq.b     [A1], 1
00003988  0A11 1211                xori.b     [A1], 0x11
0000398C  1A12                     move.b     D5, [A2]
0000398E  8A12                     or.b       D5, [A2]
00003990  9212                     sub.b      D1, [A2]
00003992  9A11                     sub.b      D5, [A1]
00003994  2211                     move.l     D1, [A1]
00003996  2A11                     move.l     D5, [A1]
00003998  320F                     move.w     D1, A7
0000399A  8211                     or.b       D1, [A1]
0000399C  4211                     clr.b      [A1]
0000399E  CA11                     and.b      D5, [A1]
000039A0  DA11                     add.b      D5, [A1]
label000039A2:
000039A2  D212                     add.b      D1, [A2]
000039A4  2212                     move.l     D1, [A2]
000039A6  2A12                     move.l     D5, [A2]
000039A8  3212                     move.w     D1, [A2]
000039AA  3A12                     move.w     D5, [A2]
000039AC  4212                     clr.b      [A2]
000039AE  4A11                     tst.b      [A1]
000039B0  4A11                     tst.b      [A1]
000039B2  5211                     addq.b     [A1], 1
000039B4  5A11                     addq.b     [A1], 5
000039B6  6211                     bhi        +0x13 /* 000039C9 */
000039B8  6A11                     bpl        +0x13 /* 000039CB */
000039BA  7211                     moveq.l    D1, 0x11
000039BC  7A11                     moveq.l    D5, 0x11
000039BE  8212                     or.b       D1, [A2]
000039C0  5A11                     addq.b     [A1], 5
000039C2  9211                     sub.b      D1, [A1]
000039C4  9A11                     sub.b      D5, [A1]
000039C6  A211                     syscall    GetEOF, flags=2
000039C8  AA0F                     syscall    FillCOval
000039CA  8A11                     or.b       D5, [A1]
000039CC  BA0F                     cmp.b      D5, A7
000039CE  92B1 160A                sub.l      D1, [A1 + D1.w * 8 + 0xA]
000039D2  3216                     move.w     D1, [A6]
000039D4  12FE                     move.b     [A1]+, <<invalid special address>>
000039D6  5021                     addq.b     -[A1], 8
000039D8  14E2                     move.b     [A2]+, -[A2]
000039DA  30F0 0202                move.w     [A0]+, [A0 + D0.w * 2 + 0x2]
000039DE  161A                     move.b     D3, [A2]+
000039E0  162A B116                move.b     D3, [A2 - 0x4EEA]
000039E4  0A30 F002 0416           xori.b     [A0 + D0.w * 4 + 0x16], 0x2
000039EA  1216                     move.b     D1, [A6]
000039EC  2216                     move.l     D1, [A6]
000039EE  1A16                     move.b     D5, [A6]
000039F0  2AB1 0F9A 30F0           move.l     [A5], [[ + D0 * 8] + 0x30F0]
000039F6  021D 1492                andi.b     [A5]+, 0x92
000039FA  149A                     move.b     [A2], [A2]+
000039FC  14A2                     move.b     [A2], -[A2]
000039FE  14AA 14E2                move.b     [A2], [A2 + 0x14E2]
00003A02  14DA                     move.b     [A2]+, [A2]+
00003A04  14D2                     move.b     [A2]+, [A2]
00003A06  14B2 14BA                move.b     [A2], [A2 + D1.w * 4 - 0x46]
00003A0A  14C2                     move.b     [A2]+, D2
00003A0C  14CA                     move.b     [A2]+, A2
00003A0E  208A                     move.l     [A0], A2
00003A10  1EC2                     move.b     [A7]+, D2
00003A12  1ECA                     move.b     [A7]+, A2
00003A14  1F12                     move.b     -[A7], [A2]
00003A16  1F1A                     move.b     -[A7], [A2]+
00003A18  1F22                     move.b     -[A7], -[A2]
00003A1A  1F2A 1F32                move.b     -[A7], [A2 + 0x1F32]
00003A1E  1F3A 1F4A                move.b     -[A7], [PC + 0x1F4A /* 0000596A, value 0x1A */]
00003A22  1EDA                     move.b     [A7]+, [A2]+
00003A24  1EE2                     move.b     [A7]+, -[A2]
00003A26  1EEA 1EF2                move.b     [A7]+, [A2 + 0x1EF2]
00003A2A  1EFA 1F0A                move.b     [A7]+, [PC + 0x1F0A /* 00005936, value 0x1C */]
00003A2E  01AA 0FA2                bclr       [A2 + 0xFA2], D0
00003A32  81FF                     divs.w     D0, <<invalid special address>>
00003A34  8021                     or.b       D0, -[A1]
00003A36  0F9A                     bclr       [A2]+, D7
00003A38  30F0 0204                move.w     [A0]+, [A0 + D0.w * 2 + 0x4]
00003A3C  1D1A                     move.b     -[A6], [A2]+
00003A3E  1D22                     move.b     -[A6], -[A2]
00003A40  1D52 1D4A                move.b     [A6 + 0x1D4A], [A2]
00003A44  321D                     move.w     D1, [A5]+
00003A46  2AFF                     move.l     [A5]+, <<invalid special address>>
00003A48  8021                     or.b       D0, -[A1]
00003A4A  01AA 30F0                bclr       [A2 + 0x30F0], D0
00003A4E  0205 1CD2                andi.b     D5, 0xD2
00003A52  1CDA                     move.b     [A6]+, [A2]+
00003A54  1CC2                     move.b     [A6]+, D2
00003A56  1C2A 1C62                move.b     D6, [A2 + 0x1C62]
00003A5A  321C                     move.w     D1, [A4]+
00003A5C  5AFF                     spl        <<invalid special address>>
00003A5E  8022                     or.b       D0, -[A2]
00003A60  1ECA                     move.b     [A7]+, A2
00003A62  FF80                     .invalid   <<F/6/7>>
00003A64  211F                     move.l     -[A0], [A7]+
00003A66  0A30 F002 0E1C           xori.b     [A0 + D0 * 8 + 0x1C], 0x2
00003A6C  6A1C                     bpl        +0x1E /* 00003A8A */
00003A6E  721C                     moveq.l    D1, 0x1C
00003A70  7A1C                     moveq.l    D5, 0x1C
00003A72  321C                     move.w     D1, [A4]+
00003A74  9A1C                     sub.b      D5, [A4]+
00003A76  3A1C                     move.w     D5, [A4]+
00003A78  A21C                     syscall    FreeMem, flags=2
00003A7A  421C                     clr.b      [A4]+
00003A7C  AA1C                     syscall    SetCCursor
00003A7E  521C                     addq.b     [A4]+, 1
00003A80  B21C                     cmp.b      D1, [A4]+
00003A82  4A1C                     tst.b      [A4]+
00003A84  E21C                     ror        D4.b, 1
00003A86  EAB1                     roxr       D1, D5
00003A88  160A                     move.b     D3, A2
label00003A8A:
00003A8A  30F0 0204                move.w     [A0]+, [A0 + D0.w * 2 + 0x4]
00003A8E  1612                     move.b     D3, [A2]
00003A90  1622                     move.b     D3, -[A2]
00003A92  161A                     move.b     D3, [A2]+
00003A94  162A B116                move.b     D3, [A2 - 0x4EEA]
00003A98  0A32 1612 FE98           xori.b     [A2 + A7 * 8 - 0x68], 0x12
00003A9E  2114                     move.l     -[A0], [A4]
00003AA0  E230                     roxr       D0.b, D1
00003AA2  F002 0216                pmove      MR0, D2
00003AA6  1A16                     move.b     D5, [A6]
00003AA8  2AB1 0FAA 30F0 021D      move.l     [A5], [[0x30F0 + D0 * 8] + 0x21D]
00003AB0  1492                     move.b     [A2], [A2]
00003AB2  149A                     move.b     [A2], [A2]+
00003AB4  14A2                     move.b     [A2], -[A2]
00003AB6  14AA 14E2                move.b     [A2], [A2 + 0x14E2]
00003ABA  14DA                     move.b     [A2]+, [A2]+
00003ABC  14D2                     move.b     [A2]+, [A2]
00003ABE  14B2 14BA                move.b     [A2], [A2 + D1.w * 4 - 0x46]
00003AC2  14C2                     move.b     [A2]+, D2
00003AC4  14CA                     move.b     [A2]+, A2
00003AC6  208A                     move.l     [A0], A2
00003AC8  1EC2                     move.b     [A7]+, D2
00003ACA  1ECA                     move.b     [A7]+, A2
00003ACC  1F12                     move.b     -[A7], [A2]
00003ACE  1F1A                     move.b     -[A7], [A2]+
00003AD0  1F22                     move.b     -[A7], -[A2]
00003AD2  1F2A 1F32                move.b     -[A7], [A2 + 0x1F32]
00003AD6  1F3A 1F4A                move.b     -[A7], [PC + 0x1F4A /* 00005A22, value 0x1C */]
00003ADA  1EDA                     move.b     [A7]+, [A2]+
00003ADC  1EE2                     move.b     [A7]+, -[A2]
00003ADE  1EEA 1EF2                move.b     [A7]+, [A2 + 0x1EF2]
00003AE2  1EFA 1F0A                move.b     [A7]+, [PC + 0x1F0A /* 000059EE, value 0x1D */]
00003AE6  01AA 0FB2                bclr       [A2 + 0xFB2], D0
00003AEA  81FF                     divs.w     D0, <<invalid special address>>
00003AEC  8021                     or.b       D0, -[A1]
00003AEE  0FAA 30F0                bclr       [A2 + 0x30F0], D7
00003AF2  0204 1D1A                andi.b     D4, 0x1A
00003AF6  1D22                     move.b     -[A6], -[A2]
00003AF8  1D52 1D4A                move.b     [A6 + 0x1D4A], [A2]
00003AFC  321D                     move.w     D1, [A5]+
00003AFE  2AFF                     move.l     [A5]+, <<invalid special address>>
00003B00  8021                     or.b       D0, -[A1]
00003B02  01AA 30F0                bclr       [A2 + 0x30F0], D0
00003B06  0205 1CD2                andi.b     D5, 0xD2
00003B0A  1CDA                     move.b     [A6]+, [A2]+
00003B0C  1CC2                     move.b     [A6]+, D2
00003B0E  1C2A 1C62                move.b     D6, [A2 + 0x1C62]
00003B12  321C                     move.w     D1, [A4]+
00003B14  5AFF                     spl        <<invalid special address>>
00003B16  8022                     or.b       D0, -[A2]
00003B18  1ECA                     move.b     [A7]+, A2
00003B1A  FF80                     .invalid   <<F/6/7>>
00003B1C  211F                     move.l     -[A0], [A7]+
00003B1E  0A30 F002 0E1C           xori.b     [A0 + D0 * 8 + 0x1C], 0x2
00003B24  6A1C                     bpl        +0x1E /* 00003B42 */
00003B26  721C                     moveq.l    D1, 0x1C
00003B28  7A1C                     moveq.l    D5, 0x1C
00003B2A  321C                     move.w     D1, [A4]+
00003B2C  9A1C                     sub.b      D5, [A4]+
00003B2E  3A1C                     move.w     D5, [A4]+
00003B30  A21C                     syscall    FreeMem, flags=2
00003B32  421C                     clr.b      [A4]+
00003B34  AA1C                     syscall    SetCCursor
00003B36  521C                     addq.b     [A4]+, 1
00003B38  B21C                     cmp.b      D1, [A4]+
00003B3A  4A1C                     tst.b      [A4]+
00003B3C  E21C                     ror        D4.b, 1
00003B3E  EAB1                     roxr       D1, D5
00003B40  160A                     move.b     D3, A2
label00003B42:
00003B42  30F0 0204                move.w     [A0]+, [A0 + D0.w * 2 + 0x4]
00003B46  1612                     move.b     D3, [A2]
00003B48  1622                     move.b     D3, -[A2]
00003B4A  161A                     move.b     D3, [A2]+
00003B4C  162A B116                move.b     D3, [A2 - 0x4EEA]
00003B50  0A32 1612 FE98           xori.b     [A2 + A7 * 8 - 0x68], 0x12
00003B56  2114                     move.l     -[A0], [A4]
00003B58  E230                     roxr       D0.b, D1
00003B5A  F002 0216                pmove      MR0, D2
00003B5E  1A16                     move.b     D5, [A6]
00003B60  2AB1 0FBA 30F0 021D 1492 move.l     [A5], [[0x30F0021D + D0 * 8] + 0x1492]
00003B6A  149A                     move.b     [A2], [A2]+
00003B6C  14A2                     move.b     [A2], -[A2]
00003B6E  14AA 14E2                move.b     [A2], [A2 + 0x14E2]
00003B72  14DA                     move.b     [A2]+, [A2]+
00003B74  14D2                     move.b     [A2]+, [A2]
00003B76  14B2 14BA                move.b     [A2], [A2 + D1.w * 4 - 0x46]
00003B7A  14C2                     move.b     [A2]+, D2
00003B7C  14CA                     move.b     [A2]+, A2
00003B7E  208A                     move.l     [A0], A2
00003B80  1EC2                     move.b     [A7]+, D2
00003B82  0FCA                     .incomplete
00003B84  1F12                     move.b     -[A7], [A2]
00003B86  1F1A                     move.b     -[A7], [A2]+
00003B88  1F22                     move.b     -[A7], -[A2]
00003B8A  1F2A 1F32                move.b     -[A7], [A2 + 0x1F32]
00003B8E  1F3A 1F4A                move.b     -[A7], [PC + 0x1F4A /* 00005ADA, value 0x2, pstring "!R" */]
00003B92  1EDA                     move.b     [A7]+, [A2]+
00003B94  1EE2                     move.b     [A7]+, -[A2]
00003B96  1EEA 1EF2                move.b     [A7]+, [A2 + 0x1EF2]
00003B9A  1EFA 1F0A                move.b     [A7]+, [PC + 0x1F0A /* 00005AA6, value 0x1D */]
00003B9E  01AA 0FC2                bclr       [A2 + 0xFC2], D0
00003BA2  81FF                     divs.w     D0, <<invalid special address>>
00003BA4  8021                     or.b       D0, -[A1]
00003BA6  0FBA 30F0                bclr       [PC + 0x30F0 /* 00006C98, value 0xC276FFFF */], D7
00003BAA  0204 1D1A                andi.b     D4, 0x1A
00003BAE  1D22                     move.b     -[A6], -[A2]
00003BB0  1D52 1D4A                move.b     [A6 + 0x1D4A], [A2]
00003BB4  321D                     move.w     D1, [A5]+
00003BB6  2AFF                     move.l     [A5]+, <<invalid special address>>
00003BB8  8021                     or.b       D0, -[A1]
00003BBA  01AA 30F0                bclr       [A2 + 0x30F0], D0
00003BBE  0205 1CD2                andi.b     D5, 0xD2
00003BC2  1CDA                     move.b     [A6]+, [A2]+
00003BC4  1CC2                     move.b     [A6]+, D2
00003BC6  1C2A 1C62                move.b     D6, [A2 + 0x1C62]
00003BCA  321C                     move.w     D1, [A4]+
00003BCC  5AFF                     spl        <<invalid special address>>
00003BCE  8022                     or.b       D0, -[A2]
00003BD0  0FCA                     .incomplete
00003BD2  FF80                     .invalid   <<F/6/7>>
00003BD4  211F                     move.l     -[A0], [A7]+
00003BD6  0A30 F002 0E1C           xori.b     [A0 + D0 * 8 + 0x1C], 0x2
00003BDC  6A1C                     bpl        +0x1E /* 00003BFA */
00003BDE  721C                     moveq.l    D1, 0x1C
00003BE0  7A1C                     moveq.l    D5, 0x1C
00003BE2  321C                     move.w     D1, [A4]+
00003BE4  9A1C                     sub.b      D5, [A4]+
00003BE6  3A1C                     move.w     D5, [A4]+
00003BE8  A21C                     syscall    FreeMem, flags=2
00003BEA  421C                     clr.b      [A4]+
00003BEC  AA1C                     syscall    SetCCursor
00003BEE  521C                     addq.b     [A4]+, 1
00003BF0  B21C                     cmp.b      D1, [A4]+
00003BF2  4A1C                     tst.b      [A4]+
00003BF4  E21C                     ror        D4.b, 1
00003BF6  EAB1                     roxr       D1, D5
00003BF8  160A                     move.b     D3, A2
label00003BFA:
00003BFA  30F0 0204                move.w     [A0]+, [A0 + D0.w * 2 + 0x4]
00003BFE  1612                     move.b     D3, [A2]
00003C00  1622                     move.b     D3, -[A2]
00003C02  161A                     move.b     D3, [A2]+
00003C04  162A B116                move.b     D3, [A2 - 0x4EEA]
00003C08  0A32 1612 FE96           xori.b     [A2 + A7 * 8 - 0x6A], 0x12
00003C0E  2114                     move.l     -[A0], [A4]
00003C10  E230                     roxr       D0.b, D1
00003C12  F002 0216                pmove      MR0, D2
00003C16  1A16                     move.b     D5, [A6]
00003C18  2AB1 0FD2 30F0           move.l     [A5], [[] + 0x30F0]
00003C1E  021D 1492                andi.b     [A5]+, 0x92
00003C22  149A                     move.b     [A2], [A2]+
00003C24  14A2                     move.b     [A2], -[A2]
00003C26  14AA 14E2                move.b     [A2], [A2 + 0x14E2]
00003C2A  14DA                     move.b     [A2]+, [A2]+
00003C2C  14D2                     move.b     [A2]+, [A2]
00003C2E  14B2 14BA                move.b     [A2], [A2 + D1.w * 4 - 0x46]
00003C32  14C2                     move.b     [A2]+, D2
00003C34  14CA                     move.b     [A2]+, A2
00003C36  208A                     move.l     [A0], A2
00003C38  1EC2                     move.b     [A7]+, D2
00003C3A  1ECA                     move.b     [A7]+, A2
00003C3C  1F12                     move.b     -[A7], [A2]
00003C3E  1F1A                     move.b     -[A7], [A2]+
00003C40  1F22                     move.b     -[A7], -[A2]
00003C42  1F2A 1F32                move.b     -[A7], [A2 + 0x1F32]
00003C46  1F3A 1F4A                move.b     -[A7], [PC + 0x1F4A /* 00005B92, value 0x52 'R' */]
00003C4A  1EDA                     move.b     [A7]+, [A2]+
00003C4C  1EE2                     move.b     [A7]+, -[A2]
00003C4E  1EEA 1EF2                move.b     [A7]+, [A2 + 0x1EF2]
00003C52  1EFA 1F0A                move.b     [A7]+, [PC + 0x1F0A /* 00005B5E, value 0x9A */]
00003C56  01AA 0FDA                bclr       [A2 + 0xFDA], D0
00003C5A  81FF                     divs.w     D0, <<invalid special address>>
00003C5C  8021                     or.b       D0, -[A1]
00003C5E  0FD2                     .incomplete
00003C60  30F0 0204                move.w     [A0]+, [A0 + D0.w * 2 + 0x4]
00003C64  1D1A                     move.b     -[A6], [A2]+
00003C66  1D22                     move.b     -[A6], -[A2]
00003C68  1D52 1D4A                move.b     [A6 + 0x1D4A], [A2]
00003C6C  321D                     move.w     D1, [A5]+
00003C6E  2AFF                     move.l     [A5]+, <<invalid special address>>
00003C70  8021                     or.b       D0, -[A1]
00003C72  01AA 30F0                bclr       [A2 + 0x30F0], D0
00003C76  0205 1CD2                andi.b     D5, 0xD2
00003C7A  1CDA                     move.b     [A6]+, [A2]+
00003C7C  1CC2                     move.b     [A6]+, D2
00003C7E  1C2A 1C62                move.b     D6, [A2 + 0x1C62]
00003C82  321C                     move.w     D1, [A4]+
00003C84  5AFF                     spl        <<invalid special address>>
00003C86  8022                     or.b       D0, -[A2]
00003C88  1ECA                     move.b     [A7]+, A2
00003C8A  FF80                     .invalid   <<F/6/7>>
00003C8C  211F                     move.l     -[A0], [A7]+
00003C8E  0A30 F002 0E1C           xori.b     [A0 + D0 * 8 + 0x1C], 0x2
00003C94  6A1C                     bpl        +0x1E /* 00003CB2 */
00003C96  721C                     moveq.l    D1, 0x1C
00003C98  7A1C                     moveq.l    D5, 0x1C
00003C9A  321C                     move.w     D1, [A4]+
00003C9C  9A1C                     sub.b      D5, [A4]+
00003C9E  3A1C                     move.w     D5, [A4]+
00003CA0  A21C                     syscall    FreeMem, flags=2
00003CA2  421C                     clr.b      [A4]+
00003CA4  AA1C                     syscall    SetCCursor
00003CA6  521C                     addq.b     [A4]+, 1
00003CA8  B21C                     cmp.b      D1, [A4]+
00003CAA  4A1C                     tst.b      [A4]+
00003CAC  E21C                     ror        D4.b, 1
00003CAE  EAB1                     roxr       D1, D5
00003CB0  160A                     move.b     D3, A2
label00003CB2:
00003CB2  30F0 0204                move.w     [A0]+, [A0 + D0.w * 2 + 0x4]
00003CB6  1612                     move.b     D3, [A2]
00003CB8  1622                     move.b     D3, -[A2]
00003CBA  161A                     move.b     D3, [A2]+
00003CBC  162A B116                move.b     D3, [A2 - 0x4EEA]
00003CC0  0A32 1612 FE98           xori.b     [A2 + A7 * 8 - 0x68], 0x12
00003CC6  2114                     move.l     -[A0], [A4]
00003CC8  E230                     roxr       D0.b, D1
00003CCA  F002 0216                pmove      MR0, D2
00003CCE  1A16                     move.b     D5, [A6]
00003CD0  2AB1 0FE2 30F0 021D      move.l     [A5], [[0x30F0] + 0x21D]
00003CD8  1492                     move.b     [A2], [A2]
00003CDA  149A                     move.b     [A2], [A2]+
00003CDC  14A2                     move.b     [A2], -[A2]
00003CDE  14AA 14E2                move.b     [A2], [A2 + 0x14E2]
00003CE2  14DA                     move.b     [A2]+, [A2]+
00003CE4  14D2                     move.b     [A2]+, [A2]
00003CE6  14B2 14BA                move.b     [A2], [A2 + D1.w * 4 - 0x46]
00003CEA  14C2                     move.b     [A2]+, D2
00003CEC  14CA                     move.b     [A2]+, A2
00003CEE  208A                     move.l     [A0], A2
00003CF0  1EC2                     move.b     [A7]+, D2
00003CF2  1ECA                     move.b     [A7]+, A2
00003CF4  1F12                     move.b     -[A7], [A2]
00003CF6  1F1A                     move.b     -[A7], [A2]+
00003CF8  1F22                     move.b     -[A7], -[A2]
00003CFA  1F2A 1F32                move.b     -[A7], [A2 + 0x1F32]
00003CFE  1F3A 1F4A                move.b     -[A7], [PC + 0x1F4A /* 00005C4A, value 0x30 '0' */]
00003D02  1EDA                     move.b     [A7]+, [A2]+
00003D04  1EE2                     move.b     [A7]+, -[A2]
00003D06  1EEA 1EF2                move.b     [A7]+, [A2 + 0x1EF2]
00003D0A  1EFA 1F0A                move.b     [A7]+, [PC + 0x1F0A /* 00005C16, value 0x1C */]
00003D0E  01AA 0FEA                bclr       [A2 + 0xFEA], D0
00003D12  81FF                     divs.w     D0, <<invalid special address>>
00003D14  8021                     or.b       D0, -[A1]
00003D16  0FE2                     .incomplete
00003D18  30F0 0204                move.w     [A0]+, [A0 + D0.w * 2 + 0x4]
00003D1C  1D1A                     move.b     -[A6], [A2]+
00003D1E  1D22                     move.b     -[A6], -[A2]
00003D20  1D52 1D4A                move.b     [A6 + 0x1D4A], [A2]
00003D24  321D                     move.w     D1, [A5]+
00003D26  2AFF                     move.l     [A5]+, <<invalid special address>>
00003D28  8021                     or.b       D0, -[A1]
00003D2A  01AA 30F0                bclr       [A2 + 0x30F0], D0
00003D2E  0205 1CD2                andi.b     D5, 0xD2
00003D32  1CDA                     move.b     [A6]+, [A2]+
00003D34  1CC2                     move.b     [A6]+, D2
00003D36  1C2A 1C62                move.b     D6, [A2 + 0x1C62]
00003D3A  321C                     move.w     D1, [A4]+
00003D3C  5AFF                     spl        <<invalid special address>>
00003D3E  8022                     or.b       D0, -[A2]
00003D40  1ECA                     move.b     [A7]+, A2
00003D42  FF80                     .invalid   <<F/6/7>>
00003D44  211F                     move.l     -[A0], [A7]+
00003D46  0A30 F002 0E1C           xori.b     [A0 + D0 * 8 + 0x1C], 0x2
00003D4C  6A1C                     bpl        +0x1E /* 00003D6A */
00003D4E  721C                     moveq.l    D1, 0x1C
00003D50  7A1C                     moveq.l    D5, 0x1C
00003D52  321C                     move.w     D1, [A4]+
00003D54  9A1C                     sub.b      D5, [A4]+
00003D56  3A1C                     move.w     D5, [A4]+
00003D58  A21C                     syscall    FreeMem, flags=2
00003D5A  421C                     clr.b      [A4]+
00003D5C  AA1C                     syscall    SetCCursor
00003D5E  521C                     addq.b     [A4]+, 1
00003D60  B21C                     cmp.b      D1, [A4]+
00003D62  4A1C                     tst.b      [A4]+
00003D64  E21C                     ror        D4.b, 1
00003D66  EAB1                     roxr       D1, D5
00003D68  160A                     move.b     D3, A2
label00003D6A:
00003D6A  30F0 0204                move.w     [A0]+, [A0 + D0.w * 2 + 0x4]
00003D6E  1612                     move.b     D3, [A2]
00003D70  1622                     move.b     D3, -[A2]
00003D72  161A                     move.b     D3, [A2]+
00003D74  162A B116                move.b     D3, [A2 - 0x4EEA]
00003D78  0A32 1612 FE98           xori.b     [A2 + A7 * 8 - 0x68], 0x12
00003D7E  2114                     move.l     -[A0], [A4]
00003D80  E230                     roxr       D0.b, D1
00003D82  F002 0216                pmove      MR0, D2
00003D86  1A16                     move.b     D5, [A6]
00003D88  2A40                     movea.l    A5, D0
00003D8A  2008                     move.l     D0, A0
00003D8C  5361                     subq.w     -[A1], 1
00003D8E  7665                     moveq.l    D3, 0x65
00003D90  2061                     movea.l    A0, -[A1]
00003D92  733A                     moveq.l    D1, 0x3A
00003D94  0008 556E                ori.b      A0, 0x6E /* 'n' */
00003D98  7469                     moveq.l    D2, 0x69
00003D9A  746C                     moveq.l    D2, 0x6C
00003D9C  6564                     bcs        +0x66 /* 00003E02 */
00003D9E  000B 4765                ori.b      A3, 0x65 /* 'e' */
00003DA2  6E46                     bgt        +0x48 /* 00003DEA */
00003DA4  6172                     bsr        +0x74 /* 00003E18 */
00003DA6  6D2E                     blt        +0x30 /* 00003DD6 */
00003DA8  6D69                     blt        +0x6B /* 00003E13 */
00003DAA  641C                     bcc        +0x1E /* 00003DC8 */
00003DAC  FFFF                     .invalid   <<F/7/7>>
00003DAE  A5EE                     syscall    vCkExtFS, flags=5
00003DB0  FFFF                     .invalid   <<F/7/7>>
00003DB2  A2A6                     syscall    vStdEntry, flags=2
00003DB4  FFFF                     .invalid   <<F/7/7>>
00003DB6  A33E                     syscall    DrvrRemove, flags=3
00003DB8  FFFF                     .invalid   <<F/7/7>>
00003DBA  BACE                     cmpa.w     A5, A6
00003DBC  FFFF                     .invalid   <<F/7/7>>
00003DBE  713C                     moveq.l    D0, 0x3C
00003DC0  FFFF                     .invalid   <<F/7/7>>
00003DC2  71D4                     moveq.l    D0, 0xFFFFFFD4
00003DC4  7107                     moveq.l    D0, 0x07
00003DC6  D230 F002                add.b      D1, [A0 + A7.w + 0x2]
// begin alternate branch 00003DC8-00003DCC
label00003DC8:
00003DC8  F002 1014                pmove      D2, MR4
// end alternate branch 00003DC8-00003DCC
label00003DC8: // (misaligned)
00003DCA  1014                     move.b     D0, [A4]
00003DCC  9214                     sub.b      D1, [A4]
00003DCE  9A14                     sub.b      D5, [A4]
00003DD0  A214                     syscall    GetVol/PBHGetVol/HGetVol, flags=2
00003DD2  AA14                     syscall    RGBForeColor
00003DD4  E214                     roxr       D4.b, 1
label00003DD6:
00003DD6  DA14                     add.b      D5, [A4]
00003DD8  D214                     add.b      D1, [A4]
00003DDA  B214                     cmp.b      D1, [A4]
00003DDC  BA07                     cmp.b      D5, D7
00003DDE  E214                     roxr       D4.b, 1
00003DE0  CA20                     and.b      D5, -[A0]
00003DE2  9220                     sub.b      D1, -[A0]
00003DE4  9A07                     sub.b      D5, D7
00003DE6  DA20                     add.b      D5, -[A0]
00003DE8  A220                     syscall    SetPtrSize, flags=2
label00003DEA:
00003DEA  AAB1                     syscall    0xAB1
00003DEC  160A                     move.b     D3, A2
00003DEE  3216                     move.w     D1, [A6]
00003DF0  12FF                     move.b     [A1]+, <<invalid special address>>
00003DF2  0821 14E2                btst.b     -[A1], 0xE2
00003DF6  30F0 0202                move.w     [A0]+, [A0 + D0.w * 2 + 0x2]
00003DFA  161A                     move.b     D3, [A2]+
00003DFC  162A 6011                move.b     D3, [A2 + 0x6011]
00003E00  042E 766F 6300           subi.b     [A6 + 0x6300], 0x6F /* 'o' */
// begin alternate branch 00003E02-00003E0C
label00003E02:
00003E02  766F                     moveq.l    D3, 0x6F
00003E04  6300 0A32                bls        +0xA34 /* 00004838 */
00003E08  3536 2063                move.w     -[A2], [A6 + D2.w + 0x63]
// end alternate branch 00003E02-00003E0C
label00003E02: // (misaligned)
00003E06  0A32 3536 2063           xori.b     [A2 + D2.w + 0x63], 0x36 /* '6' */
00003E0C  6F6C                     ble        +0x6E /* 00003E7A */
00003E0E  6F72                     ble        +0x74 /* 00003E82 */
00003E10  7308                     moveq.l    D1, 0x08
00003E12  070F                     btst       A7, D3
00003E14  626C                     bhi        +0x6E /* 00003E82 */
00003E16  6163                     bsr        +0x65 /* 00003E7B */
fn00003E18:
00003E18  6B20                     bmi        +0x22 /* 00003E3A */
00003E1A  616E                     bsr        +0x70 /* 00003E8A */
00003E1C  6420                     bcc        +0x22 /* 00003E3E */
00003E1E  7768                     moveq.l    D3, 0x68
00003E20  6974                     bvs        +0x76 /* 00003E96 */
00003E22  6545                     bcs        +0x47 /* 00003E69 */
00003E24  0941                     bchg       D1, D4
00003E26  4D61                     chk.w      D6, -[A1]
00003E28  696E                     bvs        +0x70 /* 00003E98 */
00003E2A  2E6D 6964                movea.l    A7, [A5 + 0x6964]
00003E2E  1C17                     move.b     D6, [A7]
00003E30  5369 6D46                subq.w     [A1 + 0x6D46], 1
00003E34  6172                     bsr        +0x74 /* 00003EA8 */
00003E36  6D20                     blt        +0x22 /* 00003E58 */
00003E38  4D6F 6E6F                chk.w      D6, [A7 + 0x6E6F]
// begin alternate branch 00003E3A-00003E3C
label00003E3A:
00003E3A  6E6F                     bgt        +0x71 /* 00003EAB */
// end alternate branch 00003E3A-00003E3C
label00003E3A: // (misaligned)
00003E3C  6368                     bls        +0x6A /* 00003EA6 */
label00003E3E:
00003E3E  726F                     moveq.l    D1, 0x6F
00003E40  6D65                     blt        +0x67 /* 00003EA7 */
00003E42  2044                     movea.l    A0, D4
00003E44  6174                     bsr        +0x76 /* 00003EBA */
00003E46  6110                     bsr        +0x12 /* 00003E58 */
00003E48  1312                     move.b     -[A1], [A2]
00003E4A  5369 6D46                subq.w     [A1 + 0x6D46], 1
00003E4E  6172                     bsr        +0x74 /* 00003EC2 */
00003E50  6D20                     blt        +0x22 /* 00003E72 */
00003E52  436F 6C6F                chk.w      D1, [A7 + 0x6C6F]
00003E56  7220                     moveq.l    D1, 0x20
fn00003E58:
00003E58  4461                     neg.w      -[A1]
00003E5A  7461                     moveq.l    D2, 0x61
00003E5C  0307                     btst       D7, D1
00003E5E  054F                     bchg       A7, D2
00003E60  776E                     moveq.l    D3, 0x6E
00003E62  6572                     bcs        +0x74 /* 00003ED6 */
00003E64  1305                     move.b     -[A1], D5
00003E66  4F77 6E65                chk.w      D7, [A7 + D6 * 8 + 0x65]
00003E6A  7216                     moveq.l    D1, 0x16
00003E6C  0B47                     bchg       D7, D5
00003E6E  656E                     bcs        +0x70 /* 00003EDE */
00003E70  4661                     not.w      -[A1]
label00003E72:
00003E72  726D                     moveq.l    D1, 0x6D
00003E74  2E6D 6964                movea.l    A7, [A5 + 0x6964]
00003E78  1A13                     move.b     D5, [A3]
label00003E7A:
00003E7A  3A53                     movea.w    A5, [A3]
00003E7C  6365                     bls        +0x67 /* 00003EE3 */
00003E7E  6E61                     bgt        +0x63 /* 00003EE1 */
00003E80  7269                     moveq.l    D1, 0x69
label00003E82:
00003E82  6F73                     ble        +0x75 /* 00003EF7 */
00003E84  3A73 6365                movea.w    A5, <<invalid full ext with IS == 1 and I/IS == 5>>
00003E88  6E61                     bgt        +0x63 /* 00003EEB */
fn00003E8A:
00003E8A  7269                     moveq.l    D1, 0x69
00003E8C  6F40                     ble        +0x42 /* 00003ECE */
00003E8E  2708                     move.l     -[A3], A0
00003E90  556E 7469                subq.w     [A6 + 0x7469], 2
00003E94  746C                     moveq.l    D2, 0x6C
label00003E96:
00003E96  6564                     bcs        +0x66 /* 00003EFC */
label00003E98:
00003E98  0008 5361                ori.b      A0, 0x61 /* 'a' */
00003E9C  7665                     moveq.l    D3, 0x65
00003E9E  2061                     movea.l    A0, -[A1]
00003EA0  733A                     moveq.l    D1, 0x3A
00003EA2  0008 556E                ori.b      A0, 0x6E /* 'n' */
label00003EA6:
00003EA6  7469                     moveq.l    D2, 0x69
fn00003EA8:
00003EA8  746C                     moveq.l    D2, 0x6C
00003EAA  6564                     bcs        +0x66 /* 00003F10 */
00003EAC  0008 556E                ori.b      A0, 0x6E /* 'n' */
00003EB0  7469                     moveq.l    D2, 0x69
00003EB2  746C                     moveq.l    D2, 0x6C
00003EB4  6564                     bcs        +0x66 /* 00003F1A */
00003EB6  0E0D 0855                .invalid.b A5, 0x55 /* 'U' */ // invalid immediate operation
fn00003EBA:
00003EBA  6E74                     bgt        +0x76 /* 00003F30 */
00003EBC  6974                     bvs        +0x76 /* 00003F32 */
00003EBE  6C65                     bge        +0x67 /* 00003F25 */
00003EC0  6400 0C73                bcc        +0xC75 /* 00004B35 */
// begin alternate branch 00003EC2-00003EC8
fn00003EC2:
00003EC2  0C73 6368 6564           cmpi.w     <<invalid full ext with I/IS == 4>>, 0x6368 /* 'ch' */
// end alternate branch 00003EC2-00003EC8
fn00003EC2: // (misaligned)
00003EC4  6368                     bls        +0x6A /* 00003F2E */
00003EC6  6564                     bcs        +0x66 /* 00003F2C */
00003EC8  7561                     moveq.l    D2, 0x61
00003ECA  6C2E                     bge        +0x30 /* 00003EFA */
00003ECC  6869                     bvc        +0x6B /* 00003F37 */
label00003ECE:
00003ECE  7300                     moveq.l    D1, 0x00
00003ED0  636F                     bls        +0x71 /* 00003F41 */
00003ED2  726E                     moveq.l    D1, 0x6E
00003ED4  1677 6865                movea.b    A3, [A7 + D6 + 0x65]
// begin alternate branch 00003ED6-00003ED8
label00003ED6:
00003ED6  6865                     bvc        +0x67 /* 00003F3D */
// end alternate branch 00003ED6-00003ED8
label00003ED6: // (misaligned)
00003ED8  6174                     bsr        +0x76 /* 00003F4E */
00003EDA  0062 6172                ori.w      -[A2], 0x6172 /* 'ar' */
label00003EDE:
00003EDE  6C65                     bge        +0x67 /* 00003F45 */
00003EE0  7914                     moveq.l    D4, 0x14
00003EE2  706F                     moveq.l    D0, 0x6F
00003EE4  7461                     moveq.l    D2, 0x61
00003EE6  746F                     moveq.l    D2, 0x6F
00003EE8  6573                     bcs        +0x75 /* 00003F5D */
00003EEA  10F0 0402                move.b     [A0]+, [A0 + D0.w * 4 + 0x2]
00003EEE  6F61                     ble        +0x63 /* 00003F51 */
00003EF0  7473                     moveq.l    D2, 0x73
00003EF2  7269                     moveq.l    D1, 0x69
00003EF4  6365                     bls        +0x67 /* 00003F5B */
00003EF6  1873 6F72 6768 756D 0073 movea.b    A4, [[A3 + 0x6768756D] + 0x73]
// begin alternate branch 00003EFA-00003EFC
label00003EFA:
00003EFA  6768                     beq        +0x6A /* 00003F64 */
// end alternate branch 00003EFA-00003EFC
// begin alternate branch 00003EFC-00003F04
label00003EFC:
00003EFC  756D                     moveq.l    D2, 0x6D
00003EFE  0073 6F79 6265           ori.w      [A3 + D6.w * 2 + 0x65], 0x6F79 /* 'oy' */
// end alternate branch 00003EFC-00003F04
label00003EFA: // (misaligned)
label00003EFC: // (misaligned)
00003F00  6F79                     ble        +0x7B /* 00003F7B */
00003F02  6265                     bhi        +0x67 /* 00003F69 */
00003F04  616E                     bsr        +0x70 /* 00003F74 */
00003F06  7310                     moveq.l    D1, 0x10
00003F08  F006 0263                pmove      MR0, D6
00003F0C  6F74                     ble        +0x76 /* 00003F82 */
00003F0E  746F                     moveq.l    D2, 0x6F
label00003F10:
00003F10  6E6F                     bgt        +0x71 /* 00003F81 */
00003F12  6E69                     bgt        +0x6B /* 00003F7D */
00003F14  6F6E                     ble        +0x70 /* 00003F84 */
00003F16  7314                     moveq.l    D1, 0x14
00003F18  746F                     moveq.l    D2, 0x6F
label00003F1A:
00003F1A  6D61                     blt        +0x63 /* 00003F7D */
00003F1C  746F                     moveq.l    D2, 0x6F
00003F1E  6573                     bcs        +0x75 /* 00003F93 */
00003F20  1E6C 6574                movea.b    A7, [A4 + 0x6574]
00003F24  7475                     moveq.l    D2, 0x75
00003F26  6365                     bls        +0x67 /* 00003F8D */
00003F28  0063 6172                ori.w      -[A3], 0x6172 /* 'ar' */
label00003F2C:
00003F2C  726F                     moveq.l    D1, 0x6F
label00003F2E:
00003F2E  7473                     moveq.l    D2, 0x73
label00003F30:
00003F30  0073 7472 6177           ori.w      <<invalid full ext with IS == 1 and I/IS == 7>>, 0x7472 /* 'tr' */
// begin alternate branch 00003F32-00003F36
label00003F32:
00003F32  7472                     moveq.l    D2, 0x72
00003F34  6177                     bsr        +0x79 /* 00003FAD */
// end alternate branch 00003F32-00003F36
label00003F32: // (misaligned)
00003F36  6265                     bhi        +0x67 /* 00003F9D */
00003F38  7272                     moveq.l    D1, 0x72
00003F3A  6965                     bvs        +0x67 /* 00003FA1 */
00003F3C  731B                     moveq.l    D1, 0x1B
00003F3E  7375                     moveq.l    D1, 0x75
00003F40  6761                     beq        +0x63 /* 00003FA3 */
00003F42  7220                     moveq.l    D1, 0x20
00003F44  6265                     bhi        +0x67 /* 00003FAB */
00003F46  6574                     bcs        +0x76 /* 00003FBC */
00003F48  7300                     moveq.l    D1, 0x00
00003F4A  7065                     moveq.l    D0, 0x65
00003F4C  616E                     bsr        +0x70 /* 00003FBC */
fn00003F4E:
00003F4E  7574                     moveq.l    D2, 0x74
00003F50  7300                     moveq.l    D1, 0x00
00003F52  0124                     btst       -[A4], D0
00003F54  103C FFFF                move.b     D0, 0xFF
00003F58  A5EE                     syscall    vCkExtFS, flags=5
00003F5A  FFFF                     .invalid   <<F/7/7>>
00003F5C  73CE                     moveq.l    D1, 0xFFFFFFCE
00003F5E  FFFF                     .invalid   <<F/7/7>>
00003F60  74B6                     moveq.l    D2, 0xFFFFFFB6
00003F62  FFFF                     .invalid   <<F/7/7>>
label00003F64:
00003F64  E8F0 FFFF EAE8           bftst      [A0 + A6 * 2 - 0x18] {D7:D7}
00003F6A  FFFF                     .invalid   <<F/7/7>>
00003F6C  EB20                     asl        D0.b, D5
00003F6E  FFFF                     .invalid   <<F/7/7>>
00003F70  D938 FFFF                add.b      [0xFFFFFFFF], D4
fn00003F74:
00003F74  DB48                     addx.w     -[A5], -[A0]
00003F76  FFFF                     .invalid   <<F/7/7>>
00003F78  DB80                     addx.l     D5, D0
00003F7A  FFFF                     .invalid   <<F/7/7>>
00003F7C  EB58                     rol        D0.w, 5
00003F7E  FFFF                     .invalid   <<F/7/7>>
00003F80  ED88                     lsl        D0, 6
label00003F82:
00003F82  FFFF                     .invalid   <<F/7/7>>
label00003F84:
00003F84  EDC0 FFFF                bfffo      D7, D0 {D7:D7}
00003F88  74EE                     moveq.l    D2, 0xFFFFFFEE
00003F8A  FFFF                     .invalid   <<F/7/7>>
00003F8C  771E                     moveq.l    D3, 0x1E
00003F8E  FFFF                     .invalid   <<F/7/7>>
00003F90  7756                     moveq.l    D3, 0x56
00003F92  7113                     moveq.l    D0, 0x13
00003F94  8A30 F002                or.b       D5, [A0 + A7.w + 0x2]
00003F98  1A14                     move.b     D5, [A4]
00003F9A  9214                     sub.b      D1, [A4]
00003F9C  9A14                     sub.b      D5, [A4]
00003F9E  A214                     syscall    GetVol/PBHGetVol/HGetVol, flags=2
00003FA0  AA14                     syscall    RGBForeColor
00003FA2  E214                     roxr       D4.b, 1
00003FA4  DA14                     add.b      D5, [A4]
00003FA6  D214                     add.b      D1, [A4]
00003FA8  B214                     cmp.b      D1, [A4]
00003FAA  BA15                     cmp.b      D5, [A5]
00003FAC  5A14                     addq.b     [A4], 5
00003FAE  CA15                     and.b      D5, [A5]
00003FB0  1A13                     move.b     D5, [A3]
00003FB2  9215                     sub.b      D1, [A5]
00003FB4  9213                     sub.b      D1, [A3]
00003FB6  A215                     syscall    SetVol/PBHSetVol/HSetVol, flags=2
00003FB8  4A15                     tst.b      [A5]
00003FBA  2A15                     move.l     D5, [A5]
fn00003FBC:
00003FBC  3215                     move.w     D1, [A5]
00003FBE  9A15                     sub.b      D5, [A5]
00003FC0  A215                     syscall    SetVol/PBHSetVol/HSetVol, flags=2
00003FC2  3A15                     move.w     D5, [A5]
00003FC4  8A13                     or.b       D5, [A3]
00003FC6  DA15                     add.b      D5, [A5]
00003FC8  7215                     moveq.l    D1, 0x15
00003FCA  7A15                     moveq.l    D5, 0x15
00003FCC  82B1 160A                or.l       D1, [A1 + D1.w * 8 + 0xA]
00003FD0  3216                     move.w     D1, [A6]
00003FD2  12FE                     move.b     [A1]+, <<invalid special address>>
00003FD4  4E21                     .invalid   // invalid opcode 4
00003FD6  14E2                     move.b     [A2]+, -[A2]
00003FD8  30F0 0202                move.w     [A0]+, [A0 + D0.w * 2 + 0x2]
00003FDC  161A                     move.b     D3, [A2]+
00003FDE  162A B113                move.b     D3, [A2 - 0x4EED]
00003FE2  AA30                     syscall    DisposeGDevice/DisposGDevice
00003FE4  F002 4314                .pmove2    0xF002, 0x4314 // unimplemented
00003FE8  9214                     sub.b      D1, [A4]
00003FEA  9A14                     sub.b      D5, [A4]
00003FEC  A214                     syscall    GetVol/PBHGetVol/HGetVol, flags=2
00003FEE  AA14                     syscall    RGBForeColor
00003FF0  E214                     roxr       D4.b, 1
00003FF2  DA14                     add.b      D5, [A4]
00003FF4  D214                     add.b      D1, [A4]
00003FF6  B214                     cmp.b      D1, [A4]
00003FF8  BA12                     cmp.b      D5, [A2]
00003FFA  E214                     roxr       D4.b, 1
00003FFC  CA10                     and.b      D5, [A0]
00003FFE  BA12                     cmp.b      D5, [A2]
00004000  AA13                     syscall    FillCPoly
00004002  0A13 C210                xori.b     [A3], 0x10
00004006  D210                     add.b      D1, [A0]
00004008  DA10                     add.b      D5, [A0]
0000400A  E213                     roxr       D3.b, 1
0000400C  CA10                     and.b      D5, [A0]
0000400E  F210 FA13                .cpgen     0xF210, 0xFA13 // unimplemented
00004012  0212 A212                andi.b     [A2], 0x12
00004016  5211                     addq.b     [A1], 1
00004018  0A11 1211                xori.b     [A1], 0x11
0000401C  1A12                     move.b     D5, [A2]
0000401E  8A12                     or.b       D5, [A2]
00004020  9212                     sub.b      D1, [A2]
00004022  9A11                     sub.b      D5, [A1]
00004024  2211                     move.l     D1, [A1]
00004026  2A11                     move.l     D5, [A1]
00004028  3213                     move.w     D1, [A3]
0000402A  BA11                     cmp.b      D5, [A1]
0000402C  4211                     clr.b      [A1]
0000402E  CA11                     and.b      D5, [A1]
00004030  DA11                     add.b      D5, [A1]
00004032  D212                     add.b      D1, [A2]
00004034  2212                     move.l     D1, [A2]
00004036  2A12                     move.l     D5, [A2]
00004038  3212                     move.w     D1, [A2]
0000403A  3A12                     move.w     D5, [A2]
0000403C  4212                     clr.b      [A2]
0000403E  4A11                     tst.b      [A1]
00004040  4A11                     tst.b      [A1]
00004042  5211                     addq.b     [A1], 1
00004044  5A11                     addq.b     [A1], 5
00004046  6211                     bhi        +0x13 /* 00004059 */
00004048  6A11                     bpl        +0x13 /* 0000405B */
0000404A  7211                     moveq.l    D1, 0x11
0000404C  7A11                     moveq.l    D5, 0x11
0000404E  8212                     or.b       D1, [A2]
00004050  5A12                     addq.b     [A2], 5
00004052  C213                     and.b      D1, [A3]
00004054  4A11                     tst.b      [A1]
00004056  A211                     syscall    GetEOF, flags=2
00004058  AA13                     syscall    FillCPoly
0000405A  B211                     cmp.b      D1, [A1]
0000405C  BA11                     cmp.b      D5, [A1]
0000405E  C213                     and.b      D1, [A3]
00004060  4213                     clr.b      [A3]
00004062  1213                     move.b     D1, [A3]
00004064  1A13                     move.b     D5, [A3]
00004066  2213                     move.l     D1, [A3]
00004068  3213                     move.w     D1, [A3]
0000406A  3A13                     move.w     D5, [A3]
0000406C  2AB1 160A                move.l     [A5], [A1 + D1.w * 8 + 0xA]
00004070  30F0 0204                move.w     [A0]+, [A0 + D0.w * 2 + 0x4]
00004074  1612                     move.b     D3, [A2]
00004076  1622                     move.b     D3, -[A2]
00004078  161A                     move.b     D3, [A2]+
0000407A  162A B116                move.b     D3, [A2 - 0x4EEA]
0000407E  0A32 1612 FE4A           xori.b     [A2 + A7 * 8 + 0x4A], 0x12
00004084  2114                     move.l     -[A0], [A4]
00004086  E230                     roxr       D0.b, D1
00004088  F002 0216                pmove      MR0, D2
0000408C  1A16                     move.b     D5, [A6]
0000408E  2A00                     move.l     D5, D0
00004090  80CA                     divu.w     D0, A2
00004092  80E6                     divu.w     D0, -[A6]
00004094  2329 232A                move.l     -[A1], [A1 + 0x232A]
00004098  232B 232C                move.l     -[A1], [A3 + 0x232C]
0000409C  232D 232E                move.l     -[A1], [A5 + 0x232E]
000040A0  232F 2330                move.l     -[A1], [A7 + 0x2330]
000040A4  2331 2332 2333 2334 2335 move.l     -[A1], [[A1 + 0x23332334 + D2 * 2] + 0x2335]
000040AE  2336 2337 2338 2339 2... move.l     -[A1], [[A6 + 0x23382339] + D2 * 2 + 0x233A233B]
000040BA  233C 233D 233E           move.l     -[A1], 0x233D233E /* '#=#>' */
000040C0  233F                     move.l     -[A1], <<invalid special address>>
000040C2  2340 2341                move.l     [A1 + 0x2341], D0
000040C6  2342 FFFF                move.l     [A1 - 0x1], D2
000040CA  101E                     move.b     D0, [A6]+
000040CC  0B08                     btst       A0, D5
000040CE  0B0B                     btst       A3, D5
000040D0  0104                     btst       D4, D0
000040D2  0609 090C                addi.b     A1, 0xC
000040D6  0C09 0909                cmpi.b     A1, 0x9 /* '\t' */
000040DA  0909                     btst       A1, D4
000040DC  0404 0404                subi.b     D4, 0x4
000040E0  0404 0404                subi.b     D4, 0x4
000040E4  0404 0404                subi.b     D4, 0x4
000040E8  0404 0404                subi.b     D4, 0x4
000040EC  1010                     move.b     D0, [A0]
000040EE  1010                     move.b     D0, [A0]
000040F0  0202 0410                andi.b     D2, 0x10
000040F4  0418 0418                subi.b     [A0]+, 0x18
000040F8  0808 1010                btst.b     A0, 0x10
000040FC  0804 0818                btst.b     D4, 0x18
00004100  0818 0420                btst.b     [A0]+, 0x20 /* ' ' */
00004104  0C0C 0402                cmpi.b     A4, 0x2
00004108  1002                     move.b     D0, D2
0000410A  0202 0202                andi.b     D2, 0x2
0000410E  020B 1904                andi.b     A3, 0x4
00004112  1003                     move.b     D0, D3
00004114  0101                     btst       D1, D0
00004116  0101                     btst       D1, D0
00004118  0B02                     btst       D2, D5
0000411A  0405 040B                subi.b     D5, 0xB
0000411E  0B7F                     bchg       <<invalid special address>>, D5
00004120  1001                     move.b     D0, D1
00004122  0101                     btst       D1, D0
00004124  0101                     btst       D1, D0
00004126  0101                     btst       D1, D0
00004128  0101                     btst       D1, D0
0000412A  0101                     btst       D1, D0
0000412C  0101                     btst       D1, D0
0000412E  0101                     btst       D1, D0
00004130  0101                     btst       D1, D0
00004132  0409 0101                subi.b     A1, 0x1
00004136  0801 0101                btst.b     D1, 0x1
0000413A  0101                     btst       D1, D0
0000413C  0101                     btst       D1, D0
0000413E  0101                     btst       D1, D0
00004140  0101                     btst       D1, D0
00004142  0101                     btst       D1, D0
00004144  0101                     btst       D1, D0
00004146  0110                     btst       [A0], D0
00004148  0101                     btst       D1, D0
0000414A  0204 0101                andi.b     D4, 0x1
0000414E  0101                     btst       D1, D0
00004150  0101                     btst       D1, D0
00004152  0101                     btst       D1, D0
00004154  0101                     btst       D1, D0
00004156  0101                     btst       D1, D0
00004158  0101                     btst       D1, D0
0000415A  0104                     btst       D4, D0
0000415C  1123                     move.b     -[A0], -[A3]
0000415E  0081 270D 0F00           ori.l      D1, 0x270D0F00
00004164  2700                     move.l     -[A3], D0
00004166  5700                     subq.b     D0, 3
00004168  E800                     asr        D0.b, 4
0000416A  9600                     sub.b      D3, D0
0000416C  A101                     syscall    Close, flags=1
0000416E  B801                     cmp.b      D4, D1
00004170  B901                     xor.b      D1, D4
00004172  BD01                     xor.b      D1, D6
00004174  C301                     abcd       D1, D1
00004176  CC01                     and.b      D6, D1
00004178  D502                     addx.b     D2, D2
0000417A  0601 1101                addi.b     D1, 0x1
0000417E  1A02                     move.b     D5, D2
00004180  1101                     move.b     -[A0], D1
00004182  2C01                     move.l     D6, D1
00004184  3502                     move.w     -[A2], D2
00004186  B002                     cmp.b      D0, D2
00004188  B802                     cmp.b      D4, D2
0000418A  C002                     and.b      D0, D2
0000418C  C802                     and.b      D4, D2
0000418E  D002                     add.b      D0, D2
00004190  D802                     add.b      D4, D2
00004192  E002                     asr        D2.b, 8
00004194  E802                     asr        D2.b, 4
00004196  F002 F803                .invalid   0xF002, 0xF803 // unimplemented
0000419A  0003 0803                ori.b      D3, 0x3
0000419E  1003                     move.b     D0, D3
000041A0  1803                     move.b     D4, D3
000041A2  2003                     move.l     D0, D3
000041A4  2803                     move.l     D4, D3
000041A6  C203                     and.b      D1, D3
000041A8  D203                     add.b      D1, D3
000041AA  E203                     asr        D3.b, 1
000041AC  B200                     cmp.b      D1, D0
000041AE  6D00 6E03                blt        +0x6E05 /* 0000AFB3 */
000041B2  5003                     addq.b     D3, 8
000041B4  5403                     addq.b     D3, 2
000041B6  5403                     addq.b     D3, 2
000041B8  7003                     moveq.l    D0, 0x03
000041BA  5803                     addq.b     D3, 4
000041BC  5803                     addq.b     D3, 4
000041BE  8803                     or.b       D4, D3
000041C0  8803                     or.b       D4, D3
000041C2  8803                     or.b       D4, D3
000041C4  8803                     or.b       D4, D3
000041C6  6403                     bcc        +0x5 /* 000041CB */
000041C8  9003                     sub.b      D0, D3
000041CA  5C03                     addq.b     D3, 6
000041CC  5C03                     addq.b     D3, 6
000041CE  6C03                     bge        +0x5 /* 000041D3 */
000041D0  6C00 7A01                bge        +0x7A03 /* 0000BBD3 */
000041D4  F800 0C00                .tblXX     0xF800, 0x0C00 // unimplemented
000041D8  0C03 F200                cmpi.b     D3, 0x0
000041DC  7800                     moveq.l    D4, 0x00
000041DE  8300                     sbcd       D1, D0
000041E0  8400                     or.b       D2, D0
000041E2  8500                     sbcd       D2, D0
000041E4  8600                     or.b       D3, D0
000041E6  0200 0200                andi.b     D0, 0x0
000041EA  0200 0202                andi.b     D0, 0x2
000041EE  0603 7C03                addi.b     D3, 0x3
000041F2  8001                     or.b       D0, D1
000041F4  4003                     negx.b     D3
000041F6  9303                     subx.b     D1, D3
000041F8  9203                     sub.b      D1, D3
000041FA  9103                     subx.b     D0, D3
000041FC  9000                     sub.b      D0, D0
000041FE  B100                     xor.b      D0, D0
00004200  AF00                     syscall    BitBlt, auto_pop
00004202  BC03                     cmp.b      D6, D3
00004204  FC04 0400                .unknown   0xFC04 0x0400 (W = 6)
00004208  5700                     subq.b     D0, 3
0000420A  6202                     bhi        +0x4 /* 0000420E */
0000420C  1B00                     move.b     -[A5], D0
label0000420E:
0000420E  F803 4003                .tblXX     0xF803, 0x4003 // unimplemented
00004212  4103                     .invalid   0, D3 // invalid opcode 4 with b == 4
00004214  4203                     clr.b      D3
00004216  4303                     .invalid   1, D3 // invalid opcode 4 with b == 4
00004218  4403                     neg.b      D3
0000421A  4503                     .invalid   2, D3 // invalid opcode 4 with b == 4
0000421C  4603                     not.b      D3
0000421E  4703                     .invalid   3, D3 // invalid opcode 4 with b == 4
00004220  4803                     nbcd.b     D3
00004222  4903                     .invalid   4, D3 // invalid opcode 4 with b == 4
00004224  4A03                     tst.b      D3
00004226  4B03                     .invalid   5, D3 // invalid opcode 4 with b == 4
00004228  4C03 4D03                muls.l     D3:D4, D3
0000422C  4E03                     .invalid   // invalid opcode 4
0000422E  4F01                     .invalid   7, D1 // invalid opcode 4 with b == 4
00004230  E103                     asl        D3.b, 8
00004232  F202 1C04                .fmovecr   0xF202, 0x1C04 // unimplemented
00004236  0104                     btst       D4, D0
00004238  0200 4503                andi.b     D0, 0x3
0000423C  3003                     move.w     D0, D3
0000423E  3103                     move.w     -[A0], D3
00004240  3203                     move.w     D1, D3
00004242  3303                     move.w     -[A1], D3
00004244  3403                     move.w     D2, D3
00004246  3503                     move.w     -[A2], D3
00004248  3603                     move.w     D3, D3
0000424A  3703                     move.w     -[A3], D3
0000424C  3803                     move.w     D4, D3
0000424E  3903                     move.w     -[A4], D3
00004250  3A03                     move.w     D5, D3
00004252  3B03                     move.w     -[A5], D3
00004254  3C03                     move.w     D6, D3
00004256  3D03                     move.w     -[A6], D3
00004258  3E03                     move.w     D7, D3
0000425A  3F03                     move.w     -[A7], D3
0000425C  9404                     sub.b      D2, D4
0000425E  0104                     btst       D4, D0
00004260  0200 AC00                andi.b     D0, 0x0
00004264  7A03                     moveq.l    D5, 0x03
00004266  2F03                     move.l     -[A7], D3
00004268  3003                     move.w     D0, D3
0000426A  3103                     move.w     -[A0], D3
0000426C  3203                     move.w     D1, D3
0000426E  3303                     move.w     -[A1], D3
00004270  3403                     move.w     D2, D3
00004272  3503                     move.w     -[A2], D3
00004274  4703                     .invalid   3, D3 // invalid opcode 4 with b == 4
00004276  4803                     nbcd.b     D3
00004278  4903                     .invalid   4, D3 // invalid opcode 4 with b == 4
0000427A  4A03                     tst.b      D3
0000427C  4B03                     .invalid   5, D3 // invalid opcode 4 with b == 4
0000427E  4C03 4D03                muls.l     D3:D4, D3
00004282  4E02                     .invalid   // invalid opcode 4
00004284  1700                     move.b     -[A3], D0
00004286  DA01                     add.b      D5, D1
00004288  E3C5                     lsl   .w   D5
0000428A  6576                     bcs        +0x78 /* 00004302 */
0000428C  656E                     bcs        +0x70 /* 000042FC */
0000428E  7473                     moveq.l    D2, 0x73
00004290  2E64                     movea.l    A7, -[A4]
00004292  6174                     bsr        +0x76 /* 00004308 */
00004294  1034 2C54                move.b     D0, [A4 + D2 * 4 + 0x54]
00004298  6865                     bvc        +0x67 /* 000042FF */
0000429A  2072 6567                movea.l    A0, <<invalid full ext with IS == 1 and I/IS == 7>>
0000429E  6973                     bvs        +0x75 /* 00004313 */
000042A0  7465                     moveq.l    D2, 0x65
000042A2  7265                     moveq.l    D1, 0x65
000042A4  6420                     bcc        +0x22 /* 000042C6 */
000042A6  6F77                     ble        +0x79 /* 0000431F */
000042A8  6E65                     bgt        +0x67 /* 0000430F */
000042AA  7220                     moveq.l    D1, 0x20
000042AC  6F66                     ble        +0x68 /* 00004314 */
000042AE  2053                     movea.l    A0, [A3]
000042B0  696D                     bvs        +0x6F /* 0000431F */
000042B2  4661                     not.w      -[A1]
000042B4  726D                     moveq.l    D1, 0x6D
000042B6  2069 733A                movea.l    A0, [A1 + 0x733A]
000042BA  0D20                     btst       -[A0], D6
000042BC  2020                     move.l     D0, -[A0]
000042BE  2020                     move.l     D0, -[A0]
000042C0  2020                     move.l     D0, -[A0]
000042C2  2000                     move.l     D0, D0
000042C4  054F                     bchg       A7, D2
label000042C6:
000042C6  776E                     moveq.l    D3, 0x6E
000042C8  6572                     bcs        +0x74 /* 0000433C */
000042CA  1044                     movea.b    A0, D4
000042CC  FFFF                     .invalid   <<F/7/7>>
000042CE  A5EE                     syscall    vCkExtFS, flags=5
000042D0  FFFF                     .invalid   <<F/7/7>>
000042D2  E8F0 FFFF EAE8           bftst      [A0 + A6 * 2 - 0x18] {D7:D7}
000042D8  FFFF                     .invalid   <<F/7/7>>
000042DA  EB20                     asl        D0.b, D5
000042DC  FFFF                     .invalid   <<F/7/7>>
000042DE  D938 FFFF                add.b      [0xFFFFFFFF], D4
000042E2  DB48                     addx.w     -[A5], -[A0]
000042E4  FFFF                     .invalid   <<F/7/7>>
000042E6  DB80                     addx.l     D5, D0
000042E8  FFFF                     .invalid   <<F/7/7>>
000042EA  EB58                     rol        D0.w, 5
000042EC  FFFF                     .invalid   <<F/7/7>>
000042EE  ED88                     lsl        D0, 6
000042F0  FFFF                     .invalid   <<F/7/7>>
000042F2  EDC0 FFFF                bfffo      D7, D0 {D7:D7}
000042F6  7B08                     moveq.l    D5, 0x08
000042F8  FFFF                     .invalid   <<F/7/7>>
000042FA  7D38                     moveq.l    D6, 0x38
label000042FC:
000042FC  FFFF                     .invalid   <<F/7/7>>
000042FE  7D70                     moveq.l    D6, 0x70
00004300  FFFF                     .invalid   <<F/7/7>>
label00004302:
00004302  7DA8                     moveq.l    D6, 0xFFFFFFA8
00004304  FFFF                     .invalid   <<F/7/7>>
00004306  7EA8                     moveq.l    D7, 0xFFFFFFA8
fn00004308:
00004308  FFFF                     .invalid   <<F/7/7>>
0000430A  7FA0                     moveq.l    D7, 0xFFFFFFA0
0000430C  FFFF                     .invalid   <<F/7/7>>
0000430E  7FD8                     moveq.l    D7, 0xFFFFFFD8
00004310  710E                     moveq.l    D0, 0x0E
00004312  4230 F002                clr.b      [A0 + A7.w + 0x2]
// begin alternate branch 00004314-00004318
label00004314:
00004314  F002 4314                .pmove2    0xF002, 0x4314 // unimplemented
// end alternate branch 00004314-00004318
label00004314: // (misaligned)
00004316  4314                     .invalid   1, [A4] // invalid opcode 4 with b == 4
00004318  9214                     sub.b      D1, [A4]
0000431A  9A14                     sub.b      D5, [A4]
0000431C  A214                     syscall    GetVol/PBHGetVol/HGetVol, flags=2
0000431E  AA14                     syscall    RGBForeColor
00004320  E214                     roxr       D4.b, 1
00004322  DA14                     add.b      D5, [A4]
00004324  D214                     add.b      D1, [A4]
00004326  B214                     cmp.b      D1, [A4]
00004328  BA0E                     cmp.b      D5, A6
0000432A  4A14                     tst.b      [A4]
0000432C  CA10                     and.b      D5, [A0]
0000432E  BA12                     cmp.b      D5, [A2]
00004330  AA13                     syscall    FillCPoly
00004332  0A10 CA10                xori.b     [A0], 0x10
00004336  D210                     add.b      D1, [A0]
00004338  DA10                     add.b      D5, [A0]
0000433A  E212                     roxr       D2.b, 1
label0000433C:
0000433C  EA10                     roxr       D0.b, 5
0000433E  F210 FA13                .cpgen     0xF210, 0xFA13 // unimplemented
00004342  0212 A212                andi.b     [A2], 0x12
00004346  5211                     addq.b     [A1], 1
00004348  0A11 1211                xori.b     [A1], 0x11
0000434C  1A12                     move.b     D5, [A2]
0000434E  8A12                     or.b       D5, [A2]
00004350  9212                     sub.b      D1, [A2]
00004352  9A11                     sub.b      D5, [A1]
00004354  2211                     move.l     D1, [A1]
00004356  2A11                     move.l     D5, [A1]
00004358  3211                     move.w     D1, [A1]
0000435A  3A11                     move.w     D5, [A1]
0000435C  4211                     clr.b      [A1]
0000435E  CA11                     and.b      D5, [A1]
00004360  DA11                     add.b      D5, [A1]
00004362  D212                     add.b      D1, [A2]
00004364  2212                     move.l     D1, [A2]
00004366  2A12                     move.l     D5, [A2]
00004368  3212                     move.w     D1, [A2]
0000436A  3A12                     move.w     D5, [A2]
0000436C  4212                     clr.b      [A2]
0000436E  4A11                     tst.b      [A1]
00004370  4A11                     tst.b      [A1]
00004372  5211                     addq.b     [A1], 1
00004374  5A11                     addq.b     [A1], 5
00004376  6211                     bhi        +0x13 /* 00004389 */
00004378  6A11                     bpl        +0x13 /* 0000438B */
0000437A  7211                     moveq.l    D1, 0x11
0000437C  7A11                     moveq.l    D5, 0x11
0000437E  8212                     or.b       D1, [A2]
00004380  5A12                     addq.b     [A2], 5
00004382  C213                     and.b      D1, [A3]
00004384  4A11                     tst.b      [A1]
00004386  A211                     syscall    GetEOF, flags=2
00004388  AA0E                     syscall    FillCRect
0000438A  5211                     addq.b     [A1], 1
0000438C  BA11                     cmp.b      D5, [A1]
0000438E  C213                     and.b      D1, [A3]
00004390  4213                     clr.b      [A3]
00004392  1213                     move.b     D1, [A3]
00004394  1A13                     move.b     D5, [A3]
00004396  2213                     move.l     D1, [A3]
00004398  3213                     move.w     D1, [A3]
0000439A  3A13                     move.w     D5, [A3]
0000439C  2AB1 160A                move.l     [A5], [A1 + D1.w * 8 + 0xA]
000043A0  30F0 0204                move.w     [A0]+, [A0 + D0.w * 2 + 0x4]
000043A4  1612                     move.b     D3, [A2]
000043A6  1622                     move.b     D3, -[A2]
000043A8  161A                     move.b     D3, [A2]+
000043AA  162A B116                move.b     D3, [A2 - 0x4EEA]
000043AE  0A32 1612 FE50           xori.b     [A2 + A7 * 8 + 0x50], 0x12
000043B4  2114                     move.l     -[A0], [A4]
000043B6  E230                     roxr       D0.b, D1
000043B8  F002 0216                pmove      MR0, D2
000043BC  1A16                     move.b     D5, [A6]
000043BE  2AB1 0E5A                move.l     [A5], [A1 + D0 * 8 + 0x5A]
000043C2  30F0 021D                move.w     [A0]+, [A0 + D0.w * 2 + 0x1D]
000043C6  1492                     move.b     [A2], [A2]
000043C8  149A                     move.b     [A2], [A2]+
000043CA  14A2                     move.b     [A2], -[A2]
000043CC  14AA 14E2                move.b     [A2], [A2 + 0x14E2]
000043D0  14DA                     move.b     [A2]+, [A2]+
label000043D2:
000043D2  14D2                     move.b     [A2]+, [A2]
000043D4  14B2 14BA                move.b     [A2], [A2 + D1.w * 4 - 0x46]
000043D8  14C2                     move.b     [A2]+, D2
000043DA  14CA                     move.b     [A2]+, A2
000043DC  208A                     move.l     [A0], A2
000043DE  1EC2                     move.b     [A7]+, D2
000043E0  0E62 1F12                .invalid.w -[A2], 0x1F12 // invalid immediate operation
000043E4  1F1A                     move.b     -[A7], [A2]+
000043E6  1F22                     move.b     -[A7], -[A2]
000043E8  1F2A 1F32                move.b     -[A7], [A2 + 0x1F32]
000043EC  1F3A 1F4A                move.b     -[A7], [PC + 0x1F4A /* 00006338, value 0x1C */]
000043F0  1EDA                     move.b     [A7]+, [A2]+
000043F2  1EE2                     move.b     [A7]+, -[A2]
000043F4  1EEA 1EF2                move.b     [A7]+, [A2 + 0x1EF2]
000043F8  1EFA 1F0A                move.b     [A7]+, [PC + 0x1F0A /* 00006304, value 0x2A '*' */]
000043FC  01AA 0E6A                bclr       [A2 + 0xE6A], D0
00004400  81FF                     divs.w     D0, <<invalid special address>>
00004402  8021                     or.b       D0, -[A1]
00004404  0E5A 30F0                .invalid.w [A2]+, 0x30F0 // invalid immediate operation
00004408  0204 1D1A                andi.b     D4, 0x1A
0000440C  1D22                     move.b     -[A6], -[A2]
0000440E  1D52 1D4A                move.b     [A6 + 0x1D4A], [A2]
00004412  321D                     move.w     D1, [A5]+
00004414  2AFF                     move.l     [A5]+, <<invalid special address>>
00004416  8021                     or.b       D0, -[A1]
00004418  01AA 30F0                bclr       [A2 + 0x30F0], D0
0000441C  0205 1CD2                andi.b     D5, 0xD2
00004420  1CDA                     move.b     [A6]+, [A2]+
00004422  1CC2                     move.b     [A6]+, D2
00004424  1C2A 1C62                move.b     D6, [A2 + 0x1C62]
00004428  321C                     move.w     D1, [A4]+
0000442A  5AFF                     spl        <<invalid special address>>
0000442C  8022                     or.b       D0, -[A2]
0000442E  0E62 FF80                .invalid.w -[A2], 0xFF80 // invalid immediate operation
00004432  211F                     move.l     -[A0], [A7]+
00004434  0A30 F002 0E1C           xori.b     [A0 + D0 * 8 + 0x1C], 0x2
0000443A  6A1C                     bpl        +0x1E /* 00004458 */
0000443C  721C                     moveq.l    D1, 0x1C
0000443E  7A1C                     moveq.l    D5, 0x1C
00004440  321C                     move.w     D1, [A4]+
00004442  9A1C                     sub.b      D5, [A4]+
00004444  3A1C                     move.w     D5, [A4]+
00004446  A21C                     syscall    FreeMem, flags=2
00004448  421C                     clr.b      [A4]+
0000444A  AA1C                     syscall    SetCCursor
0000444C  521C                     addq.b     [A4]+, 1
0000444E  B21C                     cmp.b      D1, [A4]+
00004450  4A1C                     tst.b      [A4]+
00004452  E21C                     ror        D4.b, 1
00004454  EAB1                     roxr       D1, D5
00004456  160A                     move.b     D3, A2
label00004458:
00004458  30F0 0204                move.w     [A0]+, [A0 + D0.w * 2 + 0x4]
0000445C  1612                     move.b     D3, [A2]
0000445E  1622                     move.b     D3, -[A2]
00004460  161A                     move.b     D3, [A2]+
00004462  162A B116                move.b     D3, [A2 - 0x4EEA]
00004466  0A32 1612 FEC2           xori.b     [A2 + A7 * 8 - 0x3E], 0x12
0000446C  2114                     move.l     -[A0], [A4]
0000446E  E230                     roxr       D0.b, D1
00004470  F002 0216                pmove      MR0, D2
00004474  1A16                     move.b     D5, [A6]
00004476  2A40                     movea.l    A5, D0
00004478  34FF                     move.w     [A2]+, <<invalid special address>>
0000447A  FFA5                     .invalid   <<F/6/7>>
0000447C  EEFF FFE8                bfset      <<invalid special address>> {D7:D0}
00004480  F0FF FFEA                .extension 0x0FF <<F/2-3/0>> // unimplemented
00004484  E8FF FFEB                bftst      <<invalid special address>> {D7:D3}
00004488  20FF                     move.l     [A0]+, <<invalid special address>>
0000448A  FFD9                     .invalid   <<F/7/7>>
0000448C  38FF                     move.w     [A4]+, <<invalid special address>>
0000448E  FFDB                     .invalid   <<F/7/7>>
00004490  48FF FFDB                movem.l    <<invalid special address>>, D0,D1,D3,D4,D6,D7,A0,A1,A2,A3,A4,A5,A6,A7
00004494  80FF                     divu.w     D0, <<invalid special address>>
00004496  FFEB                     .invalid   <<F/7/7>>
00004498  58FF                     svc        <<invalid special address>>
0000449A  FFED                     .invalid   <<F/7/7>>
0000449C  88FF                     divu.w     D4, <<invalid special address>>
0000449E  FFED                     .invalid   <<F/7/7>>
000044A0  C0FF                     mulu.w     D0, <<invalid special address>>
000044A2  FF80                     .invalid   <<F/6/7>>
000044A4  44FF                     move.b     <<invalid special address>>, CCR
000044A6  FF82                     .invalid   <<F/6/7>>
000044A8  74FF                     moveq.l    D2, 0xFFFFFFFF
000044AA  FF82                     .invalid   <<F/6/7>>
000044AC  AC71                     syscall    GlobalToLocal, auto_pop
000044AE  0FFA                     .incomplete
000044B0  30F0 0243                move.w     [A0]+, [A0 + D0.w * 2 + 0x43]
000044B4  1492                     move.b     [A2], [A2]
000044B6  149A                     move.b     [A2], [A2]+
000044B8  14A2                     move.b     [A2], -[A2]
000044BA  14AA 14E2                move.b     [A2], [A2 + 0x14E2]
000044BE  14DA                     move.b     [A2]+, [A2]+
000044C0  14D2                     move.b     [A2]+, [A2]
000044C2  14B2 14BA                move.b     [A2], [A2 + D1.w * 4 - 0x46]
000044C6  100A                     move.b     D0, A2
000044C8  14CA                     move.b     [A2]+, A2
000044CA  10BA 12AA                move.b     [A0], [PC + 0x12AA /* 00005776, value 0xFA */]
000044CE  1012                     move.b     D0, [A2]
000044D0  10CA                     move.b     [A0]+, A2
000044D2  10D2                     move.b     [A0]+, [A2]
000044D4  10DA                     move.b     [A0]+, [A2]+
000044D6  10E2                     move.b     [A0]+, -[A2]
000044D8  12EA 10F2                move.b     [A1]+, [A2 + 0x10F2]
000044DC  10FA 1302                move.b     [A0]+, [PC + 0x1302 /* 000057E0, value 0xF0 */]
000044E0  12A2                     move.b     [A1], -[A2]
000044E2  1252                     movea.b    A1, [A2]
000044E4  110A                     move.b     -[A0], A2
000044E6  1112                     move.b     -[A0], [A2]
000044E8  111A                     move.b     -[A0], [A2]+
000044EA  128A                     move.b     [A1], A2
000044EC  1292                     move.b     [A1], [A2]
000044EE  129A                     move.b     [A1], [A2]+
000044F0  1122                     move.b     -[A0], -[A2]
000044F2  112A 1132                move.b     -[A0], [A2 + 0x1132]
000044F6  113A 1142                move.b     -[A0], [PC + 0x1142 /* 0000563A, value 0x21 '!' */]
000044FA  11CA 11DA                move.b     [0x000011DA], A2
000044FE  11D2 1222                move.b     [0x00001222], [A2]
00004502  122A 1232                move.b     D1, [A2 + 0x1232]
00004506  123A 1242                move.b     D1, [PC + 0x1242 /* 0000574A, value 0x1D */]
0000450A  124A                     movea.b    A1, A2
0000450C  114A 1152                move.b     [A0 + 0x1152], A2
00004510  115A 1162                move.b     [A0 + 0x1162], [A2]+
00004514  116A 1172 117A           move.b     [A0 + 0x117A], [A2 + 0x1172]
0000451A  1182 125A                move.b     [A0 + D1.w * 2 + 0x5A], D2
0000451E  12C2                     move.b     [A1]+, D2
00004520  134A 101A                move.b     [A1 + 0x101A], A2
00004524  11AA 1002 11BA 11C2 1... move.b     [[0x11C21342 + D1] + 0x1312], [A2 + 0x1002]
00004530  131A                     move.b     -[A1], [A2]+
00004532  1322                     move.b     -[A1], -[A2]
00004534  1332 133A 132A B116 0A30 move.b     -[A1], [[A2 + 0x132AB116 + D1 * 2] + 0xA30]
0000453E  F002 0416                pmove      D2, MR1
00004542  1216                     move.b     D1, [A6]
00004544  2216                     move.l     D1, [A6]
00004546  1A16                     move.b     D5, [A6]
00004548  2AB1 160A                move.l     [A5], [A1 + D1.w * 8 + 0xA]
0000454C  3216                     move.w     D1, [A6]
0000454E  12FE                     move.b     [A1]+, <<invalid special address>>
00004550  4C21 14E2                mulu.l     D2:D1, -[A1]
00004554  30F0 0202                move.w     [A0]+, [A0 + D0.w * 2 + 0x2]
00004558  161A                     move.b     D3, [A2]+
0000455A  162A 8007                move.b     D3, [A2 - 0x7FF9]
0000455E  FFFE                     .invalid   <<F/7/7>>
00004560  998E                     subx.l     -[A4], -[A6]
00004562  00DD                     .incomplete
00004564  0A10 0101                xori.b     [A0], 0x1
00004568  3C65                     movea.w    A6, -[A5]
0000456A  7870                     moveq.l    D4, 0x70
0000456C  6C6F                     bge        +0x71 /* 000045DD */
0000456E  6465                     bcc        +0x67 /* 000045D5 */
00004570  2E76 6F63 0004 4675 656C movea.l    A7, [[A6 + 0x4] + 0x4675656C]
0000457A  0005 5370                ori.b      D5, 0x70 /* 'p' */
0000457E  7261                     moveq.l    D1, 0x61
00004580  7910                     moveq.l    D4, 0x10
00004582  2C06                     move.l     D6, D6
00004584  4461                     neg.w      -[A1]
00004586  6D61                     blt        +0x63 /* 000045E9 */
00004588  6765                     beq        +0x67 /* 000045EF */
0000458A  00FF                     .incomplete
0000458C  FFA5                     .invalid   <<F/6/7>>
0000458E  EEFF FF83                bfset      <<invalid special address>> {D6:3}
00004592  42FF                     .invalid   <<invalid special address>> // invalid opcode 4 with subtype 1
00004594  FF85                     .invalid   <<F/6/7>>
00004596  3AFF                     move.w     [A5]+, <<invalid special address>>
00004598  FF85                     .invalid   <<F/6/7>>
0000459A  72FF                     moveq.l    D1, 0xFFFFFFFF
0000459C  FFBA                     .invalid   <<F/6/7>>
0000459E  CEFF                     mulu.w     D7, <<invalid special address>>
000045A0  FF85                     .invalid   <<F/6/7>>
000045A2  AAFF                     syscall    0xAFF
000045A4  FF86                     .invalid   <<F/6/7>>
000045A6  AAFF                     syscall    0xAFF
000045A8  FF87                     .invalid   <<F/6/7>>
000045AA  A2FF                     syscall    XFindLine/TEFindLine, flags=2
000045AC  FF87                     .invalid   <<F/6/7>>
000045AE  DA71 0C4A                add.w      D5, [A1 + D0 * 4 + 0x4A]
000045B2  30F0 023C                move.w     [A0]+, [A0 + D0.w * 2 + 0x3C]
000045B6  1492                     move.b     [A2], [A2]
000045B8  149A                     move.b     [A2], [A2]+
000045BA  14A2                     move.b     [A2], -[A2]
000045BC  14AA 14E2                move.b     [A2], [A2 + 0x14E2]
000045C0  14DA                     move.b     [A2]+, [A2]+
000045C2  14D2                     move.b     [A2]+, [A2]
000045C4  14B2 14BA                move.b     [A2], [A2 + D1.w * 4 - 0x46]
000045C8  0C62 14CA                cmpi.w     -[A2], 0x14CA
000045CC  10BA 12AA                move.b     [A0], [PC + 0x12AA /* 00005878, value 0x2 */]
000045D0  0C5A 10CA                cmpi.w     [A2]+, 0x10CA
000045D4  10D2                     move.b     [A0]+, [A2]
000045D6  10DA                     move.b     [A0]+, [A2]+
000045D8  10E2                     move.b     [A0]+, -[A2]
000045DA  0C72 0C7A 10FA           cmpi.w     [A2 + D1.w - 0x6], 0xC7A
000045E0  1102                     move.b     -[A0], D2
000045E2  12A2                     move.b     [A1], -[A2]
000045E4  1252                     movea.b    A1, [A2]
000045E6  110A                     move.b     -[A0], A2
000045E8  1112                     move.b     -[A0], [A2]
000045EA  111A                     move.b     -[A0], [A2]+
000045EC  128A                     move.b     [A1], A2
000045EE  1292                     move.b     [A1], [A2]
000045F0  129A                     move.b     [A1], [A2]+
000045F2  1122                     move.b     -[A0], -[A2]
000045F4  112A 1132                move.b     -[A0], [A2 + 0x1132]
000045F8  113A 1142                move.b     -[A0], [PC + 0x1142 /* 0000573C, value 0x16 */]
000045FC  11CA 11DA                move.b     [0x000011DA], A2
00004600  11D2 1222                move.b     [0x00001222], [A2]
00004604  122A 1232                move.b     D1, [A2 + 0x1232]
00004608  123A 1242                move.b     D1, [PC + 0x1242 /* 0000584C, value 0x1C */]
0000460C  124A                     movea.b    A1, A2
0000460E  114A 1152                move.b     [A0 + 0x1152], A2
00004612  115A 1162                move.b     [A0 + 0x1162], [A2]+
00004616  116A 1172 117A           move.b     [A0 + 0x117A], [A2 + 0x1172]
0000461C  1182 125A                move.b     [A0 + D1.w * 2 + 0x5A], D2
00004620  1192 119A 11A2           move.b     [[ + D1] + 0x11A2], [A2]
00004626  11AA 0C6A 11BA 0C82 B... move.b     [[0xC82B116 + D1] + 0xA32], [A2 + 0xC6A]
00004632  1612                     move.b     D3, [A2]
00004634  FE3E 2114                .unknown   0xFE3E 0x2114 (W = 7)
00004638  E230                     roxr       D0.b, D1
0000463A  F002 0216                pmove      MR0, D2
0000463E  1A16                     move.b     D5, [A6]
00004640  2AB1 160A                move.l     [A5], [A1 + D1.w * 8 + 0xA]
00004644  30F0 0204                move.w     [A0]+, [A0 + D0.w * 2 + 0x4]
00004648  1612                     move.b     D3, [A2]
0000464A  1622                     move.b     D3, -[A2]
0000464C  161A                     move.b     D3, [A2]+
0000464E  162A B10C                move.b     D3, [A2 - 0x4EF4]
00004652  9230 F002                sub.b      D1, [A0 + A7.w + 0x2]
00004656  1D14                     move.b     -[A6], [A4]
00004658  9214                     sub.b      D1, [A4]
0000465A  9A14                     sub.b      D5, [A4]
0000465C  A214                     syscall    GetVol/PBHGetVol/HGetVol, flags=2
0000465E  AA14                     syscall    RGBForeColor
00004660  E214                     roxr       D4.b, 1
00004662  DA14                     add.b      D5, [A4]
00004664  D214                     add.b      D1, [A4]
00004666  B214                     cmp.b      D1, [A4]
00004668  BA14                     cmp.b      D5, [A4]
0000466A  C214                     and.b      D1, [A4]
0000466C  CA20                     and.b      D5, -[A0]
0000466E  8A1E                     or.b       D5, [A6]+
00004670  C21E                     and.b      D1, [A6]+
00004672  CA1F                     and.b      D5, [A7]+
00004674  121F                     move.b     D1, [A7]+
00004676  1A1F                     move.b     D5, [A7]+
00004678  221F                     move.l     D1, [A7]+
0000467A  2A1F                     move.l     D5, [A7]+
0000467C  321F                     move.w     D1, [A7]+
0000467E  3A1F                     move.w     D5, [A7]+
00004680  4A1E                     tst.b      [A6]+
00004682  DA1E                     add.b      D5, [A6]+
00004684  E21E                     ror        D6.b, 1
00004686  EA1E                     ror        D6.b, 5
00004688  F21E FA1F                .cpgen     0xF21E, 0xFA1F // unimplemented
0000468C  0A01 AA0C                xori.b     D1, 0xC
00004690  9A81                     sub.l      D5, D1
00004692  FF80                     .invalid   <<F/6/7>>
00004694  210C                     move.l     -[A0], A4
00004696  9230 F002                sub.b      D1, [A0 + A7.w + 0x2]
0000469A  041D 1A1D                subi.b     [A5]+, 0x1D
0000469E  221D                     move.l     D1, [A5]+
000046A0  521D                     addq.b     [A5]+, 1
000046A2  4A32 1D2A FF80 2101      tst.b      [[A2 - 0x80 + D1 * 4] + 0x2101]
000046AA  AA30                     syscall    DisposeGDevice/DisposGDevice
000046AC  F002 051C                pmovefd    D2, MR1
000046B0  D21C                     add.b      D1, [A4]+
000046B2  DA1C                     add.b      D5, [A4]+
000046B4  C21C                     and.b      D1, [A4]+
000046B6  2A1C                     move.l     D5, [A4]+
000046B8  6232                     bhi        +0x34 /* 000046EC */
000046BA  1C5A                     movea.b    A6, [A2]+
000046BC  FF80                     .invalid   <<F/6/7>>
000046BE  221E                     move.l     D1, [A6]+
000046C0  CAFF                     mulu.w     D5, <<invalid special address>>
000046C2  8021                     or.b       D0, -[A1]
000046C4  1F0A                     move.b     -[A7], A2
000046C6  30F0 020E                move.w     [A0]+, [A0 + D0.w * 2 + 0xE]
000046CA  1C6A 1C72                movea.b    A6, [A2 + 0x1C72]
000046CE  1C7A 1C32                movea.b    A6, [PC + 0x1C32 /* 00006302, value 0x32 '2' */]
000046D2  1C9A                     move.b     [A6], [A2]+
000046D4  1C3A 1CA2                move.b     D6, [PC + 0x1CA2 /* 00006378, value 0x16 */]
000046D8  1C42                     movea.b    A6, D2
000046DA  1CAA 1C52                move.b     [A6], [A2 + 0x1C52]
000046DE  1CB2 1C4A                move.b     [A6], [A2 + D1 * 4 + 0x4A]
000046E2  1CE2                     move.b     [A6]+, -[A2]
000046E4  1CEA B116                move.b     [A6]+, [A2 - 0x4EEA]
000046E8  0A30 F002 0416           xori.b     [A0 + D0.w * 4 + 0x16], 0x2
// begin alternate branch 000046EC-000046F0
label000046EC:
000046EC  0416 1216                subi.b     [A6], 0x16
// end alternate branch 000046EC-000046F0
label000046EC: // (misaligned)
000046EE  1216                     move.b     D1, [A6]
000046F0  2216                     move.l     D1, [A6]
000046F2  1A16                     move.b     D5, [A6]
000046F4  2AB1 160A                move.l     [A5], [A1 + D1.w * 8 + 0xA]
000046F8  3216                     move.w     D1, [A6]
000046FA  12FE                     move.b     [A1]+, <<invalid special address>>
000046FC  CA21                     and.b      D5, -[A1]
000046FE  14E2                     move.b     [A2]+, -[A2]
00004700  30F0 0202                move.w     [A0]+, [A0 + D0.w * 2 + 0x2]
00004704  161A                     move.b     D3, [A2]+
00004706  162A FAFF                move.b     D3, [A2 - 0x501]
0000470A  FFA5                     .invalid   <<F/6/7>>
0000470C  EEFF FF88                bfset      <<invalid special address>> {D6:8}
00004710  3CFF                     move.w     [A6]+, <<invalid special address>>
00004712  FF89                     .invalid   <<F/6/7>>
00004714  3CFF                     move.w     [A6]+, <<invalid special address>>
00004716  FF8A                     .invalid   <<F/6/7>>
00004718  34FF                     move.w     [A2]+, <<invalid special address>>
0000471A  FF8A                     .invalid   <<F/6/7>>
0000471C  6C71                     bge        +0x73 /* 0000478F */
0000471E  0E7A 30F0 021D           .invalid.w [PC + 0x21D /* 0000493D, value 0xB21C */], 0x30F0 // invalid immediate operation
00004724  1492                     move.b     [A2], [A2]
00004726  149A                     move.b     [A2], [A2]+
00004728  14A2                     move.b     [A2], -[A2]
0000472A  14AA 14E2                move.b     [A2], [A2 + 0x14E2]
0000472E  14DA                     move.b     [A2]+, [A2]+
00004730  14D2                     move.b     [A2]+, [A2]
00004732  14B2 14BA                move.b     [A2], [A2 + D1.w * 4 - 0x46]
00004736  14C2                     move.b     [A2]+, D2
00004738  14CA                     move.b     [A2]+, A2
0000473A  208A                     move.l     [A0], A2
0000473C  1EC2                     move.b     [A7]+, D2
0000473E  1ECA                     move.b     [A7]+, A2
00004740  1F12                     move.b     -[A7], [A2]
00004742  1F1A                     move.b     -[A7], [A2]+
00004744  1F22                     move.b     -[A7], -[A2]
00004746  1F2A 1F32                move.b     -[A7], [A2 + 0x1F32]
0000474A  1F3A 1F4A                move.b     -[A7], [PC + 0x1F4A /* 00006696, value 0xFF */]
0000474E  1EDA                     move.b     [A7]+, [A2]+
00004750  1EE2                     move.b     [A7]+, -[A2]
00004752  1EEA 1EF2                move.b     [A7]+, [A2 + 0x1EF2]
00004756  1EFA 1F0A                move.b     [A7]+, [PC + 0x1F0A /* 00006662, value 0x14 */]
0000475A  01AA 0E82                bclr       [A2 + 0xE82], D0
0000475E  81FF                     divs.w     D0, <<invalid special address>>
00004760  8021                     or.b       D0, -[A1]
00004762  0E7A 30F0 0204           .invalid.w [PC + 0x204 /* 00004968, value 0x2914 */], 0x30F0 // invalid immediate operation
00004768  1D1A                     move.b     -[A6], [A2]+
0000476A  1D22                     move.b     -[A6], -[A2]
0000476C  1D52 1D4A                move.b     [A6 + 0x1D4A], [A2]
00004770  321D                     move.w     D1, [A5]+
00004772  2AFF                     move.l     [A5]+, <<invalid special address>>
00004774  8021                     or.b       D0, -[A1]
00004776  01AA 30F0                bclr       [A2 + 0x30F0], D0
0000477A  0205 1CD2                andi.b     D5, 0xD2
0000477E  1CDA                     move.b     [A6]+, [A2]+
00004780  1CC2                     move.b     [A6]+, D2
00004782  1C2A 1C62                move.b     D6, [A2 + 0x1C62]
00004786  321C                     move.w     D1, [A4]+
00004788  5AFF                     spl        <<invalid special address>>
0000478A  8022                     or.b       D0, -[A2]
0000478C  1ECA                     move.b     [A7]+, A2
0000478E  FF80                     .invalid   <<F/6/7>>
00004790  211F                     move.l     -[A0], [A7]+
00004792  0A30 F002 0E1C           xori.b     [A0 + D0 * 8 + 0x1C], 0x2
00004798  6A1C                     bpl        +0x1E /* 000047B6 */
0000479A  721C                     moveq.l    D1, 0x1C
0000479C  7A1C                     moveq.l    D5, 0x1C
0000479E  321C                     move.w     D1, [A4]+
000047A0  9A1C                     sub.b      D5, [A4]+
000047A2  3A1C                     move.w     D5, [A4]+
000047A4  A21C                     syscall    FreeMem, flags=2
000047A6  421C                     clr.b      [A4]+
000047A8  AA1C                     syscall    SetCCursor
000047AA  521C                     addq.b     [A4]+, 1
000047AC  B21C                     cmp.b      D1, [A4]+
000047AE  4A1C                     tst.b      [A4]+
000047B0  E21C                     ror        D4.b, 1
000047B2  EAB1                     roxr       D1, D5
000047B4  160A                     move.b     D3, A2
label000047B6:
000047B6  30F0 0204                move.w     [A0]+, [A0 + D0.w * 2 + 0x4]
000047BA  1612                     move.b     D3, [A2]
000047BC  1622                     move.b     D3, -[A2]
000047BE  161A                     move.b     D3, [A2]+
000047C0  162A B116                move.b     D3, [A2 - 0x4EEA]
000047C4  0A32 1612 FEC6           xori.b     [A2 + A7 * 8 - 0x3A], 0x12
000047CA  2114                     move.l     -[A0], [A4]
000047CC  E230                     roxr       D0.b, D1
000047CE  F002 0216                pmove      MR0, D2
000047D2  1A16                     move.b     D5, [A6]
000047D4  2A00                     move.l     D5, D0
000047D6  8080                     or.l       D0, D0
000047D8  0920                     btst       -[A0], D4
000047DA  2020                     move.l     D0, -[A0]
000047DC  2020                     move.l     D0, -[A0]
000047DE  2020                     move.l     D0, -[A0]
000047E0  2020                     move.l     D0, -[A0]
000047E2  2828 2828                move.l     D4, [A0 + 0x2828]
000047E6  2820                     move.l     D4, -[A0]
000047E8  2020                     move.l     D0, -[A0]
000047EA  2020                     move.l     D0, -[A0]
000047EC  2020                     move.l     D0, -[A0]
000047EE  2020                     move.l     D0, -[A0]
000047F0  2020                     move.l     D0, -[A0]
000047F2  2020                     move.l     D0, -[A0]
000047F4  2020                     move.l     D0, -[A0]
000047F6  2020                     move.l     D0, -[A0]
000047F8  2048                     movea.l    A0, A0
000047FA  1010                     move.b     D0, [A0]
000047FC  1010                     move.b     D0, [A0]
000047FE  1010                     move.b     D0, [A0]
00004800  1010                     move.b     D0, [A0]
00004802  1010                     move.b     D0, [A0]
00004804  1010                     move.b     D0, [A0]
00004806  1010                     move.b     D0, [A0]
00004808  1084                     move.b     [A0], D4
0000480A  8484                     or.l       D2, D4
0000480C  8484                     or.l       D2, D4
0000480E  8484                     or.l       D2, D4
00004810  8484                     or.l       D2, D4
00004812  8410                     or.b       D2, [A0]
00004814  1010                     move.b     D0, [A0]
00004816  1010                     move.b     D0, [A0]
00004818  1010                     move.b     D0, [A0]
0000481A  8181 8181                unpk       D0, D1, 0x8181
0000481E  8181 0101                unpk       D0, D1, 0x0101
00004822  0101                     btst       D1, D0
00004824  0101                     btst       D1, D0
00004826  0101                     btst       D1, D0
00004828  0101                     btst       D1, D0
0000482A  0101                     btst       D1, D0
0000482C  0101                     btst       D1, D0
0000482E  0101                     btst       D1, D0
00004830  0101                     btst       D1, D0
00004832  0101                     btst       D1, D0
00004834  1010                     move.b     D0, [A0]
00004836  1010                     move.b     D0, [A0]
label00004838:
00004838  1010                     move.b     D0, [A0]
0000483A  8282                     or.l       D1, D2
0000483C  8282                     or.l       D1, D2
0000483E  8282                     or.l       D1, D2
00004840  0202 0202                andi.b     D2, 0x2
00004844  0202 0202                andi.b     D2, 0x2
00004848  0202 0202                andi.b     D2, 0x2
0000484C  0202 0202                andi.b     D2, 0x2
00004850  0202 0202                andi.b     D2, 0x2
00004854  1010                     move.b     D0, [A0]
00004856  1010                     move.b     D0, [A0]
00004858  2001                     move.l     D0, D1
0000485A  808F                     or.l       D0, A7
0000485C  148A                     move.b     [A2], A2
0000485E  30F0 020B                move.w     [A0]+, [A0 + D0.w * 2 + 0xB]
00004862  1492                     move.b     [A2], [A2]
00004864  149A                     move.b     [A2], [A2]+
00004866  14A2                     move.b     [A2], -[A2]
00004868  14AA 14E2                move.b     [A2], [A2 + 0x14E2]
0000486C  14DA                     move.b     [A2]+, [A2]+
0000486E  14D2                     move.b     [A2]+, [A2]
00004870  14B2 14BA                move.b     [A2], [A2 + D1.w * 4 - 0x46]
00004874  14C2                     move.b     [A2]+, D2
00004876  14CA                     move.b     [A2]+, A2
00004878  B116                     xor.b      [A6], D0
0000487A  0A32 1612 FF98           xori.b     [ + A7 * 8], 0x12
00004880  2114                     move.l     -[A0], [A4]
00004882  E230                     roxr       D0.b, D1
00004884  F002 0216                pmove      MR0, D2
00004888  1A16                     move.b     D5, [A6]
0000488A  2AB1 1512 30F0           move.l     [A5], [[A1 + D1 * 4] + 0x30F0]
00004890  021A 1492                andi.b     [A2]+, 0x92
00004894  149A                     move.b     [A2], [A2]+
00004896  14A2                     move.b     [A2], -[A2]
00004898  14AA 14E2                move.b     [A2], [A2 + 0x14E2]
0000489C  14DA                     move.b     [A2]+, [A2]+
0000489E  14D2                     move.b     [A2]+, [A2]
000048A0  14B2 14BA                move.b     [A2], [A2 + D1.w * 4 - 0x46]
000048A4  155A 14CA                move.b     [A2 + 0x14CA], [A2]+
000048A8  151A                     move.b     -[A2], [A2]+
000048AA  1552 1592                move.b     [A2 + 0x1592], [A2]
000048AE  1542 154A                move.b     [A2 + 0x154A], D2
000048B2  152A 1532                move.b     -[A2], [A2 + 0x1532]
000048B6  159A 15A2 153A 158A      move.b     [[0x153A + D1 * 4] + 0x158A], [A2]+
000048BE  156A 1572 157A           move.b     [A2 + 0x157A], [A2 + 0x1572]
000048C4  1582 B116 0A32           move.b     [[A2] + A3 + 0xA32], D2
000048CA  1612                     move.b     D3, [A2]
000048CC  FED8 2114                .extension 0xED8 <<F/2-3/7>> // unimplemented
000048D0  E230                     roxr       D0.b, D1
000048D2  F002 0216                pmove      MR0, D2
000048D6  1A16                     move.b     D5, [A6]
000048D8  2AB1 18D2                move.l     [A5], [A1 + D1 - 0x2E]
000048DC  30F0 020D                move.w     [A0]+, [A0 + D0.w * 2 + 0xD]
000048E0  1492                     move.b     [A2], [A2]
000048E2  149A                     move.b     [A2], [A2]+
000048E4  14A2                     move.b     [A2], -[A2]
000048E6  14AA 14E2                move.b     [A2], [A2 + 0x14E2]
000048EA  14DA                     move.b     [A2]+, [A2]+
000048EC  14D2                     move.b     [A2]+, [A2]
000048EE  14B2 14BA                move.b     [A2], [A2 + D1.w * 4 - 0x46]
000048F2  14C2                     move.b     [A2]+, D2
000048F4  14CA                     move.b     [A2]+, A2
000048F6  18EA 18DA                move.b     [A4]+, [A2 + 0x18DA]
000048FA  81FF                     divs.w     D0, <<invalid special address>>
000048FC  7A21                     moveq.l    D5, 0x21
000048FE  18D2                     move.b     [A4]+, [A2]
00004900  30F0 0204                move.w     [A0]+, [A0 + D0.w * 2 + 0x4]
00004904  1D1A                     move.b     -[A6], [A2]+
00004906  1D22                     move.b     -[A6], -[A2]
00004908  1D52 1D4A                move.b     [A6 + 0x1D4A], [A2]
0000490C  321D                     move.w     D1, [A5]+
0000490E  2AFF                     move.l     [A5]+, <<invalid special address>>
00004910  7A21                     moveq.l    D5, 0x21
00004912  18DA                     move.b     [A4]+, [A2]+
00004914  30F0 0214                move.w     [A0]+, [A0 + D0.w * 2 + 0x14]
00004918  1C1A                     move.b     D6, [A2]+
0000491A  1C22                     move.b     D6, -[A2]
0000491C  1CC2                     move.b     [A6]+, D2
0000491E  1C2A 1C62                move.b     D6, [A2 + 0x1C62]
00004922  1C5A                     movea.b    A6, [A2]+
00004924  1CBA 1C92                move.b     [A6], [PC + 0x1C92 /* 000065B8, value 0x10 */]
00004928  1C6A 1C72                movea.b    A6, [A2 + 0x1C72]
0000492C  1C7A 1C32                movea.b    A6, [PC + 0x1C32 /* 00006560, value 0x7A 'z' */]
00004930  1C9A                     move.b     [A6], [A2]+
00004932  1C3A 1CA2                move.b     D6, [PC + 0x1CA2 /* 000065D6, value 0x12 */]
00004936  1C42                     movea.b    A6, D2
00004938  1CAA 1C52                move.b     [A6], [A2 + 0x1C52]
0000493C  1CB2 1C4A                move.b     [A6], [A2 + D1 * 4 + 0x4A]
00004940  B116                     xor.b      [A6], D0
00004942  0A32 1612 FEE6           xori.b     [A2 + A7 * 8 - 0x1A], 0x12
00004948  2114                     move.l     -[A0], [A4]
0000494A  E230                     roxr       D0.b, D1
0000494C  F002 0216                pmove      MR0, D2
00004950  1A16                     move.b     D5, [A6]
00004952  2AB1 160A                move.l     [A5], [A1 + D1.w * 8 + 0xA]
00004956  30F0 0204                move.w     [A0]+, [A0 + D0.w * 2 + 0x4]
0000495A  1612                     move.b     D3, [A2]
0000495C  1622                     move.b     D3, -[A2]
0000495E  161A                     move.b     D3, [A2]+
00004960  162A B11A                move.b     D3, [A2 - 0x4EE6]
00004964  1A30 F002                move.b     D5, [A0 + A7.w + 0x2]
00004968  2914                     move.l     -[A4], [A4]
0000496A  9214                     sub.b      D1, [A4]
0000496C  9A14                     sub.b      D5, [A4]
0000496E  A214                     syscall    GetVol/PBHGetVol/HGetVol, flags=2
00004970  AA14                     syscall    RGBForeColor
00004972  E214                     roxr       D4.b, 1
00004974  DA14                     add.b      D5, [A4]
00004976  D214                     add.b      D1, [A4]
00004978  B214                     cmp.b      D1, [A4]
0000497A  BA1B                     cmp.b      D5, [A3]+
0000497C  4A14                     tst.b      [A4]
0000497E  CA19                     and.b      D5, [A1]+
00004980  E21E                     ror        D6.b, 1
00004982  C21E                     and.b      D1, [A6]+
00004984  CA1F                     and.b      D5, [A7]+
00004986  121F                     move.b     D1, [A7]+
00004988  1A1F                     move.b     D5, [A7]+
0000498A  221F                     move.l     D1, [A7]+
0000498C  2A1F                     move.l     D5, [A7]+
0000498E  321F                     move.w     D1, [A7]+
00004990  3A1F                     move.w     D5, [A7]+
00004992  4A1E                     tst.b      [A6]+
00004994  DA1E                     add.b      D5, [A6]+
00004996  E21E                     ror        D6.b, 1
00004998  EA1E                     ror        D6.b, 5
0000499A  F21E FA1F                .cpgen     0xF21E, 0xFA1F // unimplemented
0000499E  0A19 DA19                xori.b     [A1]+, 0x19
000049A2  C219                     and.b      D1, [A1]+
000049A4  CA19                     and.b      D5, [A1]+
000049A6  FA19 F219                .unknown   0xFA19 0xF219 (W = 5)
000049AA  D21A                     add.b      D1, [A2]+
000049AC  121B                     move.b     D1, [A3]+
000049AE  921B                     sub.b      D1, [A3]+
000049B0  A21B                     syscall    SetZone, flags=2
000049B2  9A1B                     sub.b      D5, [A3]+
000049B4  821C                     or.b       D1, [A4]+
000049B6  0A1B 8A1A                xori.b     [A3]+, 0x1A
000049BA  0A81 FF80 211A           xori.l     D1, 0xFF80211A
000049C0  1A30 F002                move.b     D5, [A0 + A7.w + 0x2]
000049C4  041D 1A1D                subi.b     [A5]+, 0x1D
000049C8  221D                     move.l     D1, [A5]+
000049CA  521D                     addq.b     [A5]+, 1
000049CC  4A32 1D2A FF80 20F0      tst.b      [[A2 - 0x80 + D1 * 4] + 0x20F0]
000049D4  0402 19DA                subi.b     D2, 0xDA
000049D8  FF80                     .invalid   <<F/6/7>>
000049DA  19D2 FF80                move.b     0x80, [A2]
000049DE  211A                     move.l     -[A0], [A2]+
000049E0  1232 1CC2                move.b     D1, [A2 + D1 * 4 - 0x3E]
000049E4  FF80                     .invalid   <<F/6/7>>
000049E6  221B                     move.l     D1, [A3]+
000049E8  82FF                     divu.w     D1, <<invalid special address>>
000049EA  8021                     or.b       D0, -[A1]
000049EC  1C0A                     move.b     D6, A2
000049EE  321C                     move.w     D1, [A4]+
000049F0  5AFF                     spl        <<invalid special address>>
000049F2  8022                     or.b       D0, -[A2]
000049F4  1ECA                     move.b     [A7]+, A2
000049F6  FF80                     .invalid   <<F/6/7>>
000049F8  211F                     move.l     -[A0], [A7]+
000049FA  0A30 F002 021C           xori.b     [A0 + D0.w * 2 + 0x1C], 0x2
00004A00  6A1C                     bpl        +0x1E /* 00004A1E */
00004A02  7232                     moveq.l    D1, 0x32
00004A04  1C7A FF80                movea.b    A6, [PC - 0x80 /* 00004986, value 0x12 */]
00004A08  2219                     move.l     D1, [A1]+
00004A0A  C2FF                     mulu.w     D1, <<invalid special address>>
00004A0C  8021                     or.b       D0, -[A1]
00004A0E  19CA 311C                move.b     0x1C, A2
00004A12  3A32 1CA2                move.w     D5, [A2 + D1 * 4 - 0x5E]
00004A16  FF80                     .invalid   <<F/6/7>>
00004A18  2219                     move.l     D1, [A1]+
00004A1A  F2FF 8021                .extension 0x2FF <<F/2-3/1>> // unimplemented
label00004A1E:
00004A1E  19FA 30F0 0205           move.b     0x5, [PC + 0x30F0 /* 00007B10 */]
00004A24  1C52                     movea.b    A6, [A2]
00004A26  1CB2 1C4A                move.b     [A6], [A2 + D1 * 4 + 0x4A]
00004A2A  1CE2                     move.b     [A6]+, -[A2]
00004A2C  1CEA B116                move.b     [A6]+, [A2 - 0x4EEA]
00004A30  0A30 F002 0416           xori.b     [A0 + D0.w * 4 + 0x16], 0x2
00004A36  1216                     move.b     D1, [A6]
00004A38  2216                     move.l     D1, [A6]
00004A3A  1A16                     move.b     D5, [A6]
00004A3C  2AB1 160A                move.l     [A5], [A1 + D1.w * 8 + 0xA]
00004A40  3216                     move.w     D1, [A6]
00004A42  12FE                     move.b     [A1]+, <<invalid special address>>
00004A44  C821                     and.b      D4, -[A1]
00004A46  14E2                     move.b     [A2]+, -[A2]
00004A48  30F0 0202                move.w     [A0]+, [A0 + D0.w * 2 + 0x2]
00004A4C  161A                     move.b     D3, [A2]+
00004A4E  162A B11B                move.b     D3, [A2 - 0x4EE5]
00004A52  3230 F002                move.w     D1, [A0 + A7.w + 0x2]
00004A56  2814                     move.l     D4, [A4]
00004A58  9214                     sub.b      D1, [A4]
00004A5A  9A14                     sub.b      D5, [A4]
00004A5C  A214                     syscall    GetVol/PBHGetVol/HGetVol, flags=2
00004A5E  AA14                     syscall    RGBForeColor
00004A60  E214                     roxr       D4.b, 1
00004A62  DA14                     add.b      D5, [A4]
00004A64  D214                     add.b      D1, [A4]
00004A66  B214                     cmp.b      D1, [A4]
00004A68  BA1B                     cmp.b      D5, [A3]+
00004A6A  4A14                     tst.b      [A4]
00004A6C  CA1B                     and.b      D5, [A3]+
00004A6E  221E                     move.l     D1, [A6]+
00004A70  C21E                     and.b      D1, [A6]+
00004A72  CA1F                     and.b      D5, [A7]+
00004A74  121F                     move.b     D1, [A7]+
00004A76  1A1F                     move.b     D5, [A7]+
00004A78  221F                     move.l     D1, [A7]+
00004A7A  2A1F                     move.l     D5, [A7]+
00004A7C  321F                     move.w     D1, [A7]+
00004A7E  3A1F                     move.w     D5, [A7]+
00004A80  4A1E                     tst.b      [A6]+
00004A82  DA1E                     add.b      D5, [A6]+
00004A84  E21E                     ror        D6.b, 1
00004A86  EA1E                     ror        D6.b, 5
00004A88  F21E FA1F                .cpgen     0xF21E, 0xFA1F // unimplemented
00004A8C  0A1B 2A1B                xori.b     [A3]+, 0x1B
00004A90  5A1B                     addq.b     [A3]+, 5
00004A92  621B                     bhi        +0x1D /* 00004AAF */
00004A94  AA1B                     syscall    GetCCursor
00004A96  B21B                     cmp.b      D1, [A3]+
00004A98  721B                     moveq.l    D1, 0x1B
00004A9A  7A1B                     moveq.l    D5, 0x1B
00004A9C  921B                     sub.b      D1, [A3]+
00004A9E  A21B                     syscall    SetZone, flags=2
00004AA0  9A1B                     sub.b      D5, [A3]+
00004AA2  821C                     or.b       D1, [A4]+
00004AA4  0A1B 8AB1                xori.b     [A3]+, 0xB1
00004AA8  160A                     move.b     D3, A2
00004AAA  30F0 0203                move.w     [A0]+, [A0 + D0.w * 2 + 0x3]
00004AAE  1612                     move.b     D3, [A2]
00004AB0  1622                     move.b     D3, -[A2]
00004AB2  161A                     move.b     D3, [A2]+
00004AB4  3216                     move.w     D1, [A6]
00004AB6  2AFE                     move.l     [A5]+, <<invalid special address>>
00004AB8  CE21                     and.b      D7, -[A1]
00004ABA  1B32 81FF                move.b     -[A5], <<invalid full ext with IS == 1 and I/IS == 7>>
00004ABE  8021                     or.b       D0, -[A1]
00004AC0  1B32 30F0                move.b     -[A5], [A2 + D3.w - 0x10]
00004AC4  0204 1D1A                andi.b     D4, 0x1A
00004AC8  1D22                     move.b     -[A6], -[A2]
00004ACA  1D52 1D4A                move.b     [A6 + 0x1D4A], [A2]
00004ACE  321D                     move.w     D1, [A5]+
00004AD0  2AFF                     move.l     [A5]+, <<invalid special address>>
00004AD2  8020                     or.b       D0, -[A0]
00004AD4  F004 021B                pmove      MR0, D4
00004AD8  2AFF                     move.l     [A5]+, <<invalid special address>>
00004ADA  801B                     or.b       D0, [A3]+
00004ADC  72FF                     moveq.l    D1, 0xFFFFFFFF
00004ADE  8021                     or.b       D0, -[A1]
00004AE0  1B7A 321C C2FF           move.b     [A5 - 0x3D01], [PC + 0x321C /* 00007CFE */]
00004AE6  8022                     or.b       D0, -[A2]
00004AE8  1B82 FF80                move.b     [ + <<invalid base displacement size>> + A7 * 8], D2
00004AEC  211C                     move.l     -[A0], [A4]+
00004AEE  0A32 1C5A FF80           xori.b     [ + <<invalid base displacement size>> + A7 * 8], 0x5A /* 'Z' */
00004AF4  221E                     move.l     D1, [A6]+
00004AF6  CAFF                     mulu.w     D5, <<invalid special address>>
00004AF8  8021                     or.b       D0, -[A1]
00004AFA  1F0A                     move.b     -[A7], A2
00004AFC  30F0 0202                move.w     [A0]+, [A0 + D0.w * 2 + 0x2]
00004B00  1C6A 1C72                movea.b    A6, [A2 + 0x1C72]
00004B04  321C                     move.w     D1, [A4]+
00004B06  7AFF                     moveq.l    D5, 0xFFFFFFFF
00004B08  8022                     or.b       D0, -[A2]
00004B0A  1B5A FF80                move.b     [A5 - 0x80], [A2]+
00004B0E  211B                     move.l     -[A0], [A3]+
00004B10  6231                     bhi        +0x33 /* 00004B43 */
00004B12  1C3A 321C                move.b     D6, [PC + 0x321C /* 00007D30 */]
00004B16  A2FF                     syscall    XFindLine/TEFindLine, flags=2
00004B18  8022                     or.b       D0, -[A2]
00004B1A  1BB2 FF80 211B AA30 F002 move.b     [[A5 + D2] - 0x55CF0FFE], [ + <<invalid base displacement size>> + A7 * 8]
00004B24  051C                     btst       [A4]+, D2
00004B26  521C                     addq.b     [A4]+, 1
00004B28  B21C                     cmp.b      D1, [A4]+
00004B2A  4A1C                     tst.b      [A4]+
00004B2C  E21C                     ror        D4.b, 1
00004B2E  EAB1                     roxr       D1, D5
00004B30  160A                     move.b     D3, A2
00004B32  30F0 0204                move.w     [A0]+, [A0 + D0.w * 2 + 0x4]
00004B36  1612                     move.b     D3, [A2]
00004B38  1622                     move.b     D3, -[A2]
00004B3A  161A                     move.b     D3, [A2]+
00004B3C  162A B116                move.b     D3, [A2 - 0x4EEA]
00004B40  0A32 1612 FE78           xori.b     [A2 + A7 * 8 + 0x78], 0x12
00004B46  2114                     move.l     -[A0], [A4]
00004B48  E230                     roxr       D0.b, D1
00004B4A  F002 0216                pmove      MR0, D2
00004B4E  1A16                     move.b     D5, [A6]
00004B50  2AB0 F002                move.l     [A5], [A0 + A7.w + 0x2]
00004B54  0215 D216                andi.b     [A5], 0x16
00004B58  0A30 F002 0416           xori.b     [A0 + D0.w * 4 + 0x16], 0x2
00004B5E  1216                     move.b     D1, [A6]
00004B60  2216                     move.l     D1, [A6]
00004B62  1A16                     move.b     D5, [A6]
00004B64  2AB1 1B3A 30F0 0228 1492 move.l     [A5], [[A1 + 0x30F00228 + D1 * 2] + 0x1492]
00004B6E  149A                     move.b     [A2], [A2]+
00004B70  14A2                     move.b     [A2], -[A2]
00004B72  14AA 14E2                move.b     [A2], [A2 + 0x14E2]
00004B76  14DA                     move.b     [A2]+, [A2]+
00004B78  14D2                     move.b     [A2]+, [A2]
00004B7A  14B2 14BA                move.b     [A2], [A2 + D1.w * 4 - 0x46]
00004B7E  1B4A 14CA                move.b     [A5 + 0x14CA /* export_661, CODE:32 @ 000004B8 */], A2
00004B82  1EBA 1EC2                move.b     [A7], [PC + 0x1EC2 /* 00006A46, value 0x6E 'n' */]
00004B86  1ECA                     move.b     [A7]+, A2
00004B88  1F12                     move.b     -[A7], [A2]
00004B8A  1F1A                     move.b     -[A7], [A2]+
00004B8C  1F22                     move.b     -[A7], -[A2]
00004B8E  1F2A 1F32                move.b     -[A7], [A2 + 0x1F32]
00004B92  1F3A 1F4A                move.b     -[A7], [PC + 0x1F4A /* 00006ADE, value 0x6C 'l' */]
00004B96  1EDA                     move.b     [A7]+, [A2]+
00004B98  1EE2                     move.b     [A7]+, -[A2]
00004B9A  1EEA 1EF2                move.b     [A7]+, [A2 + 0x1EF2]
00004B9E  1EFA 1F0A                move.b     [A7]+, [PC + 0x1F0A /* 00006AAA, value 0x70 'p', cstring "port!" */]
00004BA2  1B42 1B5A                move.b     [A5 + 0x1B5A /* export_871, CODE:35 @ 0000073A */], D2
00004BA6  1B62 1BAA                move.b     [A5 + 0x1BAA /* export_881, CODE:35 @ 00000AEC */], -[A2]
00004BAA  1BB2 1B72 1B7A 1B92 1... move.b     [[ + D1 * 2] + 0x1B82], [[A2 + 0x1B7A1B92] + 0x1BA2]
00004BB8  1C0A                     move.b     D6, A2
00004BBA  1B8A B116 0A32           move.b     [[A5] + A3 + 0xA32], A2
00004BC0  1612                     move.b     D3, [A2]
00004BC2  FECE 2114                .extension 0xECE <<F/2-3/7>> // unimplemented
00004BC6  E230                     roxr       D0.b, D1
00004BC8  F002 0216                pmove      MR0, D2
00004BCC  1A16                     move.b     D5, [A6]
00004BCE  2AB1 160A                move.l     [A5], [A1 + D1.w * 8 + 0xA]
00004BD2  30F0 0204                move.w     [A0]+, [A0 + D0.w * 2 + 0x4]
00004BD6  1612                     move.b     D3, [A2]
00004BD8  1622                     move.b     D3, -[A2]
00004BDA  161A                     move.b     D3, [A2]+
00004BDC  162A 81FF                move.b     D3, [A2 - 0x7E01]
00004BE0  8021                     or.b       D0, -[A1]
00004BE2  1B3A 30F0                move.b     -[A5], [PC + 0x30F0 /* 00007CD4 */]
00004BE6  0204 1D1A                andi.b     D4, 0x1A
00004BEA  1D22                     move.b     -[A6], -[A2]
00004BEC  1D52 1D4A                move.b     [A6 + 0x1D4A], [A2]
00004BF0  321D                     move.w     D1, [A5]+
00004BF2  2AFF                     move.l     [A5]+, <<invalid special address>>
00004BF4  8020                     or.b       D0, -[A0]
00004BF6  F004 021B                pmove      MR0, D4
00004BFA  42FF                     .invalid   <<invalid special address>> // invalid opcode 4 with subtype 1
00004BFC  801B                     or.b       D0, [A3]+
00004BFE  72FF                     moveq.l    D1, 0xFFFFFFFF
00004C00  8021                     or.b       D0, -[A1]
00004C02  1B7A 321C C2FF           move.b     [A5 - 0x3D01], [PC + 0x321C /* 00007E20 */]
00004C08  8022                     or.b       D0, -[A2]
00004C0A  1B82 FF80                move.b     [ + <<invalid base displacement size>> + A7 * 8], D2
00004C0E  211C                     move.l     -[A0], [A4]+
00004C10  0A32 1C5A FF80           xori.b     [ + <<invalid base displacement size>> + A7 * 8], 0x5A /* 'Z' */
00004C16  221E                     move.l     D1, [A6]+
00004C18  CAFF                     mulu.w     D5, <<invalid special address>>
00004C1A  8021                     or.b       D0, -[A1]
00004C1C  1F0A                     move.b     -[A7], A2
00004C1E  30F0 0202                move.w     [A0]+, [A0 + D0.w * 2 + 0x2]
00004C22  1C6A 1C72                movea.b    A6, [A2 + 0x1C72]
00004C26  321C                     move.w     D1, [A4]+
00004C28  7AFF                     moveq.l    D5, 0xFFFFFFFF
00004C2A  8022                     or.b       D0, -[A2]
00004C2C  1B5A FF80                move.b     [A5 - 0x80], [A2]+
00004C30  211B                     move.l     -[A0], [A3]+
00004C32  6231                     bhi        +0x33 /* 00004C65 */
00004C34  1C3A 321C                move.b     D6, [PC + 0x321C /* 00007E52 */]
00004C38  A2FF                     syscall    XFindLine/TEFindLine, flags=2
00004C3A  8022                     or.b       D0, -[A2]
00004C3C  1BB2 FF80 211B AA30 F002 move.b     [[A5 + D2] - 0x55CF0FFE], [ + <<invalid base displacement size>> + A7 * 8]
00004C46  051C                     btst       [A4]+, D2
00004C48  521C                     addq.b     [A4]+, 1
00004C4A  B21C                     cmp.b      D1, [A4]+
00004C4C  4A1C                     tst.b      [A4]+
00004C4E  E21C                     ror        D4.b, 1
00004C50  EAB1                     roxr       D1, D5
00004C52  1E7A 30F0                movea.b    A7, [PC + 0x30F0 /* 00007D44 */]
00004C56  0223 1492                andi.b     -[A3], 0x92
00004C5A  149A                     move.b     [A2], [A2]+
00004C5C  14A2                     move.b     [A2], -[A2]
00004C5E  14AA 14E2                move.b     [A2], [A2 + 0x14E2]
00004C62  14DA                     move.b     [A2]+, [A2]+
00004C64  14D2                     move.b     [A2]+, [A2]
00004C66  14B2 14BA                move.b     [A2], [A2 + D1.w * 4 - 0x46]
00004C6A  1DF2 14CA                move.b     <<invalid special address>>, [A2 + D1.w * 4 - 0x36]
00004C6E  1E8A                     move.b     [A7], A2
00004C70  1E92                     move.b     [A7], [A2]
00004C72  1E9A                     move.b     [A7], [A2]+
00004C74  1DFA 1E02                move.b     <<invalid special address>>, [PC + 0x1E02 /* 00006A78, value 0x64 'd', cstring "dow setting port with out resto"... */]
00004C78  1E0A                     move.b     D7, A2
00004C7A  1E12                     move.b     D7, [A2]
00004C7C  1E1A                     move.b     D7, [A2]+
00004C7E  1E22                     move.b     D7, -[A2]
00004C80  1E2A 1E32                move.b     D7, [A2 + 0x1E32]
00004C84  1E3A 1E42                move.b     D7, [PC + 0x1E42 /* 00006AC8, value 0x69 'i', cstring "ite!!" */]
00004C88  1E4A                     movea.b    A7, A2
00004C8A  1E52                     movea.b    A7, [A2]
00004C8C  1EA2                     move.b     [A7], -[A2]
00004C8E  1E82                     move.b     [A7], D2
00004C90  1FC2                     move.b     <<invalid special address>>, D2
00004C92  1FCA                     move.b     <<invalid special address>>, A2
00004C94  1FD2                     move.b     <<invalid special address>>, [A2]
00004C96  1E62                     movea.b    A7, -[A2]
00004C98  1E6A 1E5A                movea.b    A7, [A2 + 0x1E5A]
00004C9C  1E72 81FE                movea.b    A7, <<invalid full ext with IS == 1 and I/IS == 6>>
00004CA0  3C20                     move.w     D6, -[A0]
00004CA2  F004 041E                pmove      D4, MR1
00004CA6  7AFE                     moveq.l    D5, 0xFFFFFFFE
00004CA8  3C1E                     move.w     D6, [A6]+
00004CAA  82FE                     divu.w     D1, <<invalid special address>>
00004CAC  3C1E                     move.w     D6, [A6]+
00004CAE  8AFE                     divu.w     D5, <<invalid special address>>
00004CB0  3C1E                     move.w     D6, [A6]+
00004CB2  92FE                     sub.w      A1, <<invalid special address>>
00004CB4  3C21                     move.w     D6, -[A1]
00004CB6  1E9A                     move.b     [A7], [A2]+
00004CB8  3116                     move.w     -[A0], [A6]
00004CBA  6A32                     bpl        +0x34 /* 00004CEE */
00004CBC  16B2 FE3C                move.b     [A3], [A2 + A7 * 8 + 0x3C]
00004CC0  20F0 0405                move.l     [A0]+, [A0 + D0.w * 4 + 0x5]
00004CC4  1E2A FE3C                move.b     D7, [A2 - 0x1C4]
00004CC8  1E32 FE3C                move.b     D7, [A2 + A7 * 8 + 0x3C]
00004CCC  1E3A FE3C                move.b     D7, [PC - 0x1C4 /* 00004B0A, value 0x1B */]
00004CD0  1E42                     movea.b    A7, D2
00004CD2  FE3C 1E4A                .unknown   0xFE3C 0x1E4A (W = 7)
00004CD6  FE3C 211E                .unknown   0xFE3C 0x211E (W = 7)
00004CDA  5231 16AA                addq.b     [A1 + D1.w * 8 - 0x56], 1
00004CDE  81FF                     divs.w     D0, <<invalid special address>>
00004CE0  8021                     or.b       D0, -[A1]
00004CE2  1E7A 30F0                movea.b    A7, [PC + 0x30F0 /* 00007DD4 */]
00004CE6  0204 1D1A                andi.b     D4, 0x1A
00004CEA  1D22                     move.b     -[A6], -[A2]
00004CEC  1D52 1D4A                move.b     [A6 + 0x1D4A], [A2]
// begin alternate branch 00004CEE-00004CF2
label00004CEE:
00004CEE  1D4A 321D                move.b     [A6 + 0x321D], A2
// end alternate branch 00004CEE-00004CF2
label00004CEE: // (misaligned)
00004CF0  321D                     move.w     D1, [A5]+
00004CF2  2AFF                     move.l     [A5]+, <<invalid special address>>
00004CF4  8020                     or.b       D0, -[A0]
00004CF6  F004 021E                pmove      MR0, D4
00004CFA  82FF                     divu.w     D1, <<invalid special address>>
00004CFC  801E                     or.b       D0, [A6]+
00004CFE  6AFF 8021 1E62           bpl        -0x7FDEE19C /* 80216B62 */
00004D04  321C                     move.w     D1, [A4]+
00004D06  C2FF                     mulu.w     D1, <<invalid special address>>
00004D08  8021                     or.b       D0, -[A1]
00004D0A  1FD2                     move.b     <<invalid special address>>, [A2]
00004D0C  311C                     move.w     -[A0], [A4]+
00004D0E  6232                     bhi        +0x34 /* 00004D42 */
00004D10  1C5A                     movea.b    A6, [A2]+
00004D12  FF80                     .invalid   <<F/6/7>>
00004D14  20F0 0402                move.l     [A0]+, [A0 + D0.w * 4 + 0x2]
00004D18  1E9A                     move.b     [A7], [A2]+
00004D1A  FF80                     .invalid   <<F/6/7>>
00004D1C  1EA2                     move.b     [A7], -[A2]
00004D1E  FF80                     .invalid   <<F/6/7>>
00004D20  211E                     move.l     -[A0], [A6]+
00004D22  7231                     moveq.l    D1, 0x31
00004D24  1C72 321C                movea.b    A6, [A2 + D3.w * 2 + 0x1C]
00004D28  7AFF                     moveq.l    D5, 0xFFFFFFFF
00004D2A  8022                     or.b       D0, -[A2]
00004D2C  1FC2                     move.b     <<invalid special address>>, D2
00004D2E  FF80                     .invalid   <<F/6/7>>
00004D30  211F                     move.l     -[A0], [A7]+
00004D32  CA30 F002                and.b      D5, [A0 + A7.w + 0x2]
00004D36  061C 3A1C                addi.b     [A4]+, 0x1C
00004D3A  A21C                     syscall    FreeMem, flags=2
00004D3C  421C                     clr.b      [A4]+
00004D3E  AA1C                     syscall    SetCCursor
00004D40  521C                     addq.b     [A4]+, 1
label00004D42:
00004D42  B232 1C4A                cmp.b      D1, [A2 + D1 * 4 + 0x4A]
00004D46  FF80                     .invalid   <<F/6/7>>
00004D48  211E                     move.l     -[A0], [A6]+
00004D4A  5A31 1CEA                addq.b     [A1 + D1 * 4 - 0x16], 5
00004D4E  B116                     xor.b      [A6], D0
00004D50  0A30 F002 0416           xori.b     [A0 + D0.w * 4 + 0x16], 0x2
00004D56  1216                     move.b     D1, [A6]
00004D58  2216                     move.l     D1, [A6]
00004D5A  1A16                     move.b     D5, [A6]
00004D5C  2AB1 160A                move.l     [A5], [A1 + D1.w * 8 + 0xA]
00004D60  3216                     move.w     D1, [A6]
00004D62  12FE                     move.b     [A1]+, <<invalid special address>>
00004D64  2821                     move.l     D4, -[A1]
00004D66  14E2                     move.b     [A2]+, -[A2]
00004D68  30F0 0202                move.w     [A0]+, [A0 + D0.w * 2 + 0x2]
00004D6C  161A                     move.b     D3, [A2]+
00004D6E  162A B110                move.b     D3, [A2 - 0x4EF0]
00004D72  8A30 F002                or.b       D5, [A0 + A7.w + 0x2]
00004D76  3C14                     move.w     D6, [A4]
00004D78  9214                     sub.b      D1, [A4]
00004D7A  9A14                     sub.b      D5, [A4]
00004D7C  A214                     syscall    GetVol/PBHGetVol/HGetVol, flags=2
00004D7E  AA14                     syscall    RGBForeColor
00004D80  E214                     roxr       D4.b, 1
00004D82  DA14                     add.b      D5, [A4]
00004D84  D214                     add.b      D1, [A4]
00004D86  B214                     cmp.b      D1, [A4]
00004D88  BA11                     cmp.b      D5, [A1]
00004D8A  8A14                     or.b       D5, [A4]
00004D8C  CA10                     and.b      D5, [A0]
00004D8E  BA12                     cmp.b      D5, [A2]
00004D90  AA10                     syscall    FillCRoundRect
00004D92  9A10                     sub.b      D5, [A0]
00004D94  CA10                     and.b      D5, [A0]
00004D96  A210                     syscall    Allocate/PBAllocContig/AllocContig, flags=2
00004D98  DA10                     add.b      D5, [A0]
00004D9A  E210                     roxr       D0.b, 1
00004D9C  EA10                     roxr       D0.b, 5
00004D9E  F210 FA11                .cpgen     0xF210, 0xFA11 // unimplemented
00004DA2  0212 A212                andi.b     [A2], 0x12
00004DA6  5211                     addq.b     [A1], 1
00004DA8  0A11 1211                xori.b     [A1], 0x11
00004DAC  1A12                     move.b     D5, [A2]
00004DAE  8A12                     or.b       D5, [A2]
00004DB0  9212                     sub.b      D1, [A2]
00004DB2  9A11                     sub.b      D5, [A1]
00004DB4  2210                     move.l     D1, [A0]
00004DB6  8211                     or.b       D1, [A1]
00004DB8  3211                     move.w     D1, [A1]
00004DBA  3A11                     move.w     D5, [A1]
00004DBC  4211                     clr.b      [A1]
00004DBE  CA11                     and.b      D5, [A1]
00004DC0  DA11                     add.b      D5, [A1]
00004DC2  D212                     add.b      D1, [A2]
00004DC4  2212                     move.l     D1, [A2]
00004DC6  2A12                     move.l     D5, [A2]
00004DC8  3212                     move.w     D1, [A2]
00004DCA  3A12                     move.w     D5, [A2]
00004DCC  4212                     clr.b      [A2]
00004DCE  4A11                     tst.b      [A1]
00004DD0  4A11                     tst.b      [A1]
00004DD2  5211                     addq.b     [A1], 1
00004DD4  5A11                     addq.b     [A1], 5
00004DD6  6211                     bhi        +0x13 /* 00004DE9 */
00004DD8  6A11                     bpl        +0x13 /* 00004DEB */
00004DDA  7211                     moveq.l    D1, 0x11
00004DDC  7A11                     moveq.l    D5, 0x11
00004DDE  8210                     or.b       D1, [A0]
00004DE0  9211                     sub.b      D1, [A1]
00004DE2  9211                     sub.b      D1, [A1]
00004DE4  9A11                     sub.b      D5, [A1]
00004DE6  A211                     syscall    GetEOF, flags=2
00004DE8  AA11                     syscall    FillCArc
00004DEA  B211                     cmp.b      D1, [A1]
00004DEC  BA11                     cmp.b      D5, [A1]
00004DEE  C2B1 160A                and.l      D1, [A1 + D1.w * 8 + 0xA]
00004DF2  3216                     move.w     D1, [A6]
00004DF4  12FE                     move.b     [A1]+, <<invalid special address>>
00004DF6  9421                     sub.b      D2, -[A1]
00004DF8  14E2                     move.b     [A2]+, -[A2]
00004DFA  30F0 0202                move.w     [A0]+, [A0 + D0.w * 2 + 0x2]
00004DFE  161A                     move.b     D3, [A2]+
00004E00  162A B116                move.b     D3, [A2 - 0x4EEA]
00004E04  0A30 F002 0416           xori.b     [A0 + D0.w * 4 + 0x16], 0x2
00004E0A  1216                     move.b     D1, [A6]
00004E0C  2216                     move.l     D1, [A6]
00004E0E  1A16                     move.b     D5, [A6]
00004E10  2AB1 1EB2                move.l     [A5], [A1 + D1 * 8 - 0x4E]
00004E14  30F0 021B                move.w     [A0]+, [A0 + D0.w * 2 + 0x1B]
00004E18  1492                     move.b     [A2], [A2]
00004E1A  149A                     move.b     [A2], [A2]+
00004E1C  14A2                     move.b     [A2], -[A2]
00004E1E  14AA 14E2                move.b     [A2], [A2 + 0x14E2]
00004E22  14DA                     move.b     [A2]+, [A2]+
00004E24  14D2                     move.b     [A2]+, [A2]
00004E26  14B2 14BA                move.b     [A2], [A2 + D1.w * 4 - 0x46]
00004E2A  14C2                     move.b     [A2]+, D2
00004E2C  14CA                     move.b     [A2]+, A2
00004E2E  1EBA 1EC2                move.b     [A7], [PC + 0x1EC2 /* 00006CF2, value 0x6F 'o', cstring "other axis supported!" */]
00004E32  1ECA                     move.b     [A7]+, A2
00004E34  1F12                     move.b     -[A7], [A2]
00004E36  1F1A                     move.b     -[A7], [A2]+
00004E38  1F22                     move.b     -[A7], -[A2]
00004E3A  1F2A 1F32                move.b     -[A7], [A2 + 0x1F32]
00004E3E  1F3A 1F4A                move.b     -[A7], [PC + 0x1F4A /* 00006D8A, value 0x73 's' */]
00004E42  1EDA                     move.b     [A7]+, [A2]+
00004E44  1EE2                     move.b     [A7]+, -[A2]
00004E46  1EEA 1EF2                move.b     [A7]+, [A2 + 0x1EF2]
00004E4A  1EFA 1F0A                move.b     [A7]+, [PC + 0x1F0A /* 00006D56, value 0x6F 'o' */]
00004E4E  81FF                     divs.w     D0, <<invalid special address>>
00004E50  8021                     or.b       D0, -[A1]
00004E52  1EB2 30F0                move.b     [A7], [A2 + D3.w - 0x10]
00004E56  020B 1D1A                andi.b     A3, 0x1A
00004E5A  1D22                     move.b     -[A6], -[A2]
00004E5C  1D52 1D4A                move.b     [A6 + 0x1D4A], [A2]
00004E60  1D2A 0112                move.b     -[A6], [A2 + 0x112]
00004E64  1CD2                     move.b     [A6]+, [A2]
00004E66  1CDA                     move.b     [A6]+, [A2]+
00004E68  1CC2                     move.b     [A6]+, D2
00004E6A  1C2A 1C62                move.b     D6, [A2 + 0x1C62]
00004E6E  321C                     move.w     D1, [A4]+
00004E70  5AFF                     spl        <<invalid special address>>
00004E72  8022                     or.b       D0, -[A2]
00004E74  1ECA                     move.b     [A7]+, A2
00004E76  FF80                     .invalid   <<F/6/7>>
00004E78  211F                     move.l     -[A0], [A7]+
00004E7A  0A30 F002 0E1C           xori.b     [A0 + D0 * 8 + 0x1C], 0x2
00004E80  6A1C                     bpl        +0x1E /* 00004E9E */
00004E82  721C                     moveq.l    D1, 0x1C
00004E84  7A1C                     moveq.l    D5, 0x1C
00004E86  321C                     move.w     D1, [A4]+
00004E88  9A1C                     sub.b      D5, [A4]+
00004E8A  3A1C                     move.w     D5, [A4]+
00004E8C  A21C                     syscall    FreeMem, flags=2
00004E8E  421C                     clr.b      [A4]+
00004E90  AA1C                     syscall    SetCCursor
00004E92  521C                     addq.b     [A4]+, 1
00004E94  B21C                     cmp.b      D1, [A4]+
00004E96  4A1C                     tst.b      [A4]+
00004E98  E21C                     ror        D4.b, 1
00004E9A  EAB1                     roxr       D1, D5
00004E9C  160A                     move.b     D3, A2
label00004E9E:
00004E9E  30F0 0204                move.w     [A0]+, [A0 + D0.w * 2 + 0x4]
00004EA2  1612                     move.b     D3, [A2]
00004EA4  1622                     move.b     D3, -[A2]
00004EA6  161A                     move.b     D3, [A2]+
00004EA8  162A B116                move.b     D3, [A2 - 0x4EEA]
00004EAC  0A32 1612 FEFA           xori.b     [A2 + A7 * 8 - 0x6], 0x12
00004EB2  2114                     move.l     -[A0], [A4]
00004EB4  E230                     roxr       D0.b, D1
00004EB6  F002 0216                pmove      MR0, D2
00004EBA  1A16                     move.b     D5, [A6]
00004EBC  2AB1 1F8A 30F0           move.l     [A5], [[ + <<invalid base displacement size>> + D1 * 8] + 0x30F0]
00004EC2  021E 1492                andi.b     [A6]+, 0x92
00004EC6  149A                     move.b     [A2], [A2]+
00004EC8  14A2                     move.b     [A2], -[A2]
00004ECA  14AA 14E2                move.b     [A2], [A2 + 0x14E2]
00004ECE  14DA                     move.b     [A2]+, [A2]+
00004ED0  14D2                     move.b     [A2]+, [A2]
00004ED2  14B2 14BA                move.b     [A2], [A2 + D1.w * 4 - 0x46]
00004ED6  1FB2 14CA 1F9A 1EC2      move.b     [[ + D1 * 8] + 0x1EC2], [A2 + D1.w * 4 - 0x36]
00004EDE  1ECA                     move.b     [A7]+, A2
00004EE0  1F12                     move.b     -[A7], [A2]
00004EE2  1F1A                     move.b     -[A7], [A2]+
00004EE4  1F22                     move.b     -[A7], -[A2]
00004EE6  1F2A 1F32                move.b     -[A7], [A2 + 0x1F32]
00004EEA  1F3A 1F4A                move.b     -[A7], [PC + 0x1F4A /* 00006E36, value 0x72 'r' */]
00004EEE  1EDA                     move.b     [A7]+, [A2]+
00004EF0  1EE2                     move.b     [A7]+, -[A2]
00004EF2  1EEA 1EF2                move.b     [A7]+, [A2 + 0x1EF2]
00004EF6  1EFA 1F0A                move.b     [A7]+, [PC + 0x1F0A /* 00006E02, value 0x61 'a', cstring "ault 2" */]
00004EFA  1F92 1FAA 1FA2 B116      move.b     [[0x1FA2 + D1 * 8] - 0x4EEA], [A2]
00004F02  0A30 F002 0316 1216      xori.b     [[A0] + D0 * 2 + 0x1216], 0x2
00004F0A  2216                     move.l     D1, [A6]
00004F0C  1A32 162A                move.b     D5, [A2 + D1.w * 8 + 0x2A]
00004F10  FED6 211F                .extension 0xED6 <<F/2-3/7>> // unimplemented
00004F14  AAB1                     syscall    0xAB1
00004F16  160A                     move.b     D3, A2
00004F18  3216                     move.w     D1, [A6]
00004F1A  12FE                     move.b     [A1]+, <<invalid special address>>
00004F1C  AE21                     syscall    OpColor, auto_pop
00004F1E  14E2                     move.b     [A2]+, -[A2]
00004F20  30F0 0202                move.w     [A0]+, [A0 + D0.w * 2 + 0x2]
00004F24  161A                     move.b     D3, [A2]+
00004F26  162A B116                move.b     D3, [A2 - 0x4EEA]
00004F2A  0A30 F002 0416           xori.b     [A0 + D0.w * 4 + 0x16], 0x2
00004F30  1216                     move.b     D1, [A6]
00004F32  2216                     move.l     D1, [A6]
00004F34  1A16                     move.b     D5, [A6]
00004F36  2A81                     move.l     [A5], D1
00004F38  FF80                     .invalid   <<F/6/7>>
00004F3A  211F                     move.l     -[A0], [A7]+
00004F3C  8A30 F002                or.b       D5, [A0 + A7.w + 0x2]
00004F40  041D 1A1D                subi.b     [A5]+, 0x1D
00004F44  221D                     move.l     D1, [A5]+
00004F46  521D                     addq.b     [A5]+, 1
00004F48  4A32 1D2A FF80 211F      tst.b      [[A2 - 0x80 + D1 * 4] + 0x211F]
00004F50  9230 F002                sub.b      D1, [A0 + A7.w + 0x2]
00004F54  051C                     btst       [A4]+, D2
00004F56  D21C                     add.b      D1, [A4]+
00004F58  DA1C                     add.b      D5, [A4]+
00004F5A  C21C                     and.b      D1, [A4]+
00004F5C  2A1C                     move.l     D5, [A4]+
00004F5E  6232                     bhi        +0x34 /* 00004F92 */
00004F60  1C5A                     movea.b    A6, [A2]+
00004F62  FF80                     .invalid   <<F/6/7>>
00004F64  221E                     move.l     D1, [A6]+
00004F66  CAFF                     mulu.w     D5, <<invalid special address>>
00004F68  8021                     or.b       D0, -[A1]
00004F6A  1F0A                     move.b     -[A7], A2
00004F6C  30F0 020E                move.w     [A0]+, [A0 + D0.w * 2 + 0xE]
00004F70  1C6A 1C72                movea.b    A6, [A2 + 0x1C72]
00004F74  1C7A 1C32                movea.b    A6, [PC + 0x1C32 /* 00006BA8, value 0x1 */]
00004F78  1C9A                     move.b     [A6], [A2]+
00004F7A  1C3A 1CA2                move.b     D6, [PC + 0x1CA2 /* 00006C1E, value 0xFF */]
00004F7E  1C42                     movea.b    A6, D2
00004F80  1CAA 1C52                move.b     [A6], [A2 + 0x1C52]
00004F84  1CB2 1C4A                move.b     [A6], [A2 + D1 * 4 + 0x4A]
00004F88  1CE2                     move.b     [A6]+, -[A2]
00004F8A  1CEA B120                move.b     [A6]+, [A2 - 0x4EE0]
00004F8E  D230 F002                add.b      D1, [A0 + A7.w + 0x2]
label00004F92:
00004F92  1014                     move.b     D0, [A4]
00004F94  9214                     sub.b      D1, [A4]
00004F96  9A14                     sub.b      D5, [A4]
00004F98  A214                     syscall    GetVol/PBHGetVol/HGetVol, flags=2
00004F9A  AA14                     syscall    RGBForeColor
00004F9C  E214                     roxr       D4.b, 1
00004F9E  DA14                     add.b      D5, [A4]
00004FA0  D214                     add.b      D1, [A4]
00004FA2  B214                     cmp.b      D1, [A4]
00004FA4  BA20                     cmp.b      D5, -[A0]
00004FA6  DA14                     add.b      D5, [A4]
00004FA8  CA20                     and.b      D5, -[A0]
00004FAA  9220                     sub.b      D1, -[A0]
00004FAC  9A20                     sub.b      D5, -[A0]
00004FAE  CA20                     and.b      D5, -[A0]
00004FB0  A220                     syscall    SetPtrSize, flags=2
00004FB2  AAB1                     syscall    0xAB1
00004FB4  160A                     move.b     D3, A2
00004FB6  3216                     move.w     D1, [A6]
00004FB8  12FF                     move.b     [A1]+, <<invalid special address>>
00004FBA  5821                     addq.b     -[A1], 4
00004FBC  14E2                     move.b     [A2]+, -[A2]
00004FBE  30F0 0202                move.w     [A0]+, [A0 + D0.w * 2 + 0x2]
00004FC2  161A                     move.b     D3, [A2]+
00004FC4  162A B11F                move.b     D3, [A2 - 0x4EE1]
00004FC8  DA30 F002                add.b      D5, [A0 + A7.w + 0x2]
00004FCC  1F14                     move.b     -[A7], [A4]
00004FCE  9214                     sub.b      D1, [A4]
00004FD0  9A14                     sub.b      D5, [A4]
00004FD2  A214                     syscall    GetVol/PBHGetVol/HGetVol, flags=2
00004FD4  AA14                     syscall    RGBForeColor
00004FD6  E214                     roxr       D4.b, 1
00004FD8  DA14                     add.b      D5, [A4]
00004FDA  D214                     add.b      D1, [A4]
00004FDC  B214                     cmp.b      D1, [A4]
00004FDE  BA14                     cmp.b      D5, [A4]
00004FE0  C214                     and.b      D1, [A4]
00004FE2  CA1E                     and.b      D5, [A6]+
00004FE4  BA1E                     cmp.b      D5, [A6]+
00004FE6  C21E                     and.b      D1, [A6]+
00004FE8  CA1F                     and.b      D5, [A7]+
00004FEA  121F                     move.b     D1, [A7]+
00004FEC  1A1F                     move.b     D5, [A7]+
00004FEE  221F                     move.l     D1, [A7]+
00004FF0  2A1F                     move.l     D5, [A7]+
00004FF2  321F                     move.w     D1, [A7]+
00004FF4  3A1F                     move.w     D5, [A7]+
00004FF6  4A1E                     tst.b      [A6]+
00004FF8  DA1E                     add.b      D5, [A6]+
00004FFA  E21E                     ror        D6.b, 1
00004FFC  EA1E                     ror        D6.b, 5
00004FFE  F21E FA1F                .cpgen     0xF21E, 0xFA1F // unimplemented
00005002  0A1F E21F                xori.b     [A7]+, 0x1F
00005006  C21F                     and.b      D1, [A7]+
00005008  CA1F                     and.b      D5, [A7]+
0000500A  D2B1 160A                add.l      D1, [A1 + D1.w * 8 + 0xA]
0000500E  3216                     move.w     D1, [A6]
00005010  12FE                     move.b     [A1]+, <<invalid special address>>
00005012  3C21                     move.w     D6, -[A1]
00005014  14E2                     move.b     [A2]+, -[A2]
00005016  30F0 0202                move.w     [A0]+, [A0 + D0.w * 2 + 0x2]
0000501A  161A                     move.b     D3, [A2]+
0000501C  162A B116                move.b     D3, [A2 - 0x4EEA]
00005020  0A30 F002 0416           xori.b     [A0 + D0.w * 4 + 0x16], 0x2
00005026  1216                     move.b     D1, [A6]
00005028  2216                     move.l     D1, [A6]
0000502A  1A16                     move.b     D5, [A6]
0000502C  2A81                     move.l     [A5], D1
0000502E  FF80                     .invalid   <<F/6/7>>
00005030  211F                     move.l     -[A0], [A7]+
00005032  DA30 F002                add.b      D5, [A0 + A7.w + 0x2]
00005036  041D 1A1D                subi.b     [A5]+, 0x1D
0000503A  221D                     move.l     D1, [A5]+
0000503C  521D                     addq.b     [A5]+, 1
0000503E  4A32 1D2A FF80 211F      tst.b      [[A2 - 0x80 + D1 * 4] + 0x211F]
00005046  E230                     roxr       D0.b, D1
00005048  F002 021C                pmove      MR0, D2
0000504C  D21C                     add.b      D1, [A4]+
0000504E  DA32 1CC2                add.b      D5, [A2 + D1 * 4 - 0x3E]
00005052  FF80                     .invalid   <<F/6/7>>
00005054  211F                     move.l     -[A0], [A7]+
00005056  D231 1C62                add.b      D1, [A1 + D1 * 4 + 0x62]
0000505A  321C                     move.w     D1, [A4]+
0000505C  5AFF                     spl        <<invalid special address>>
0000505E  8022                     or.b       D0, -[A2]
00005060  1ECA                     move.b     [A7]+, A2
00005062  FF80                     .invalid   <<F/6/7>>
00005064  211F                     move.l     -[A0], [A7]+
00005066  0A30 F002 021C           xori.b     [A0 + D0.w * 2 + 0x1C], 0x2
0000506C  6A1C                     bpl        +0x1E /* 0000508A */
0000506E  7232                     moveq.l    D1, 0x32
00005070  1C7A FF80                movea.b    A6, [PC - 0x80 /* 00004FF2, value 0x32 '2' */]
00005074  221F                     move.l     D1, [A7]+
00005076  C2FF                     mulu.w     D1, <<invalid special address>>
00005078  8021                     or.b       D0, -[A1]
0000507A  1FCA                     move.b     <<invalid special address>>, A2
0000507C  30F0 0209                move.w     [A0]+, [A0 + D0.w * 2 + 0x9]
00005080  1C3A 1CA2                move.b     D6, [PC + 0x1CA2 /* 00006D24, value 0xC9 */]
00005084  1C42                     movea.b    A6, D2
00005086  1CAA 1C52                move.b     [A6], [A2 + 0x1C52]
label0000508A:
0000508A  1CB2 1C4A                move.b     [A6], [A2 + D1 * 4 + 0x4A]
0000508E  1CE2                     move.b     [A6]+, -[A2]
00005090  1CEA B116                move.b     [A6]+, [A2 - 0x4EEA]
00005094  0A30 F002 0416           xori.b     [A0 + D0.w * 4 + 0x16], 0x2
0000509A  1216                     move.b     D1, [A6]
0000509C  2216                     move.l     D1, [A6]
0000509E  1A16                     move.b     D5, [A6]
000050A0  2AB1 202A                move.l     [A5], [A1 + D2.w + 0x2A]
000050A4  30F0 021F                move.w     [A0]+, [A0 + D0.w * 2 + 0x1F]
000050A8  1492                     move.b     [A2], [A2]
000050AA  149A                     move.b     [A2], [A2]+
000050AC  14A2                     move.b     [A2], -[A2]
000050AE  14AA 14E2                move.b     [A2], [A2 + 0x14E2]
000050B2  14DA                     move.b     [A2]+, [A2]+
000050B4  14D2                     move.b     [A2]+, [A2]
000050B6  14B2 14BA                move.b     [A2], [A2 + D1.w * 4 - 0x46]
000050BA  14C2                     move.b     [A2]+, D2
000050BC  14CA                     move.b     [A2]+, A2
000050BE  1FF2 1EC2                move.b     <<invalid special address>>, [A2 + D1 * 8 - 0x3E]
000050C2  1ECA                     move.b     [A7]+, A2
000050C4  1F12                     move.b     -[A7], [A2]
000050C6  1F1A                     move.b     -[A7], [A2]+
000050C8  1F22                     move.b     -[A7], -[A2]
000050CA  1F2A 1F32                move.b     -[A7], [A2 + 0x1F32]
000050CE  1F3A 1F4A                move.b     -[A7], [PC + 0x1F4A /* 0000701A, value 0xE0 */]
000050D2  1EDA                     move.b     [A7]+, [A2]+
000050D4  1EE2                     move.b     [A7]+, -[A2]
000050D6  1EEA 1EF2                move.b     [A7]+, [A2 + 0x1EF2]
000050DA  1EFA 1F0A                move.b     [A7]+, [PC + 0x1F0A /* 00006FE6, value 0x74 't', cstring "target rect!" */]
000050DE  1FFA 2012                move.b     <<invalid special address>>, [PC + 0x2012 /* 000070F2, value 0x32 '2', pstring ".1Licensed to Interplay Productions:  Allen Pavlis" */]
000050E2  2002                     move.l     D0, D2
000050E4  200A                     move.l     D0, A2
000050E6  B116                     xor.b      [A6], D0
000050E8  0A32 1612 FD7E           xori.b     <<invalid full ext with IS == 1 and I/IS == 6>>, 0x12
000050EE  2114                     move.l     -[A0], [A4]
000050F0  E230                     roxr       D0.b, D1
000050F2  F002 0216                pmove      MR0, D2
000050F6  1A16                     move.b     D5, [A6]
000050F8  2AB1 160A                move.l     [A5], [A1 + D1.w * 8 + 0xA]
000050FC  30F0 0204                move.w     [A0]+, [A0 + D0.w * 2 + 0x4]
00005100  1612                     move.b     D3, [A2]
00005102  1622                     move.b     D3, -[A2]
00005104  161A                     move.b     D3, [A2]+
00005106  162A 81FF                move.b     D3, [A2 - 0x7E01]
0000510A  8021                     or.b       D0, -[A1]
0000510C  202A 30F0                move.l     D0, [A2 + 0x30F0]
00005110  0204 1D1A                andi.b     D4, 0x1A
00005114  1D22                     move.b     -[A6], -[A2]
00005116  1D52 1D4A                move.b     [A6 + 0x1D4A], [A2]
0000511A  321D                     move.w     D1, [A5]+
0000511C  2AFF                     move.l     [A5]+, <<invalid special address>>
0000511E  8020                     or.b       D0, -[A0]
00005120  F004 021F                pmove      MR0, D4
00005124  FAFF 8020                .extension 0xAFF <<F/2-3/5>> // unimplemented
00005128  02FF                     .incomplete
0000512A  8021                     or.b       D0, -[A1]
0000512C  200A                     move.l     D0, A2
0000512E  321C                     move.w     D1, [A4]+
00005130  C2FF                     mulu.w     D1, <<invalid special address>>
00005132  8021                     or.b       D0, -[A1]
00005134  2012                     move.l     D0, [A2]
00005136  311C                     move.w     -[A0], [A4]+
00005138  6232                     bhi        +0x34 /* 0000516C */
0000513A  1C5A                     movea.b    A6, [A2]+
0000513C  FF80                     .invalid   <<F/6/7>>
0000513E  221E                     move.l     D1, [A6]+
00005140  CAFF                     mulu.w     D5, <<invalid special address>>
00005142  8021                     or.b       D0, -[A1]
00005144  1F0A                     move.b     -[A7], A2
00005146  30F0 020E                move.w     [A0]+, [A0 + D0.w * 2 + 0xE]
0000514A  1C6A 1C72                movea.b    A6, [A2 + 0x1C72]
0000514E  1C7A 1C32                movea.b    A6, [PC + 0x1C32 /* 00006D82, value 0x21 '!', cstring "!" */]
00005152  1C9A                     move.b     [A6], [A2]+
00005154  1C3A 1CA2                move.b     D6, [PC + 0x1CA2 /* 00006DF8, value 0x20 ' ', cstring " 2" */]
00005158  1C42                     movea.b    A6, D2
0000515A  1CAA 1C52                move.b     [A6], [A2 + 0x1C52]
0000515E  1CB2 1C4A                move.b     [A6], [A2 + D1 * 4 + 0x4A]
00005162  1CE2                     move.b     [A6]+, -[A2]
00005164  1CEA B11B                move.b     [A6]+, [A2 - 0x4EE5]
00005168  CA30 F002                and.b      D5, [A0 + A7.w + 0x2]
label0000516C:
0000516C  2814                     move.l     D4, [A4]
0000516E  9214                     sub.b      D1, [A4]
00005170  9A14                     sub.b      D5, [A4]
00005172  A214                     syscall    GetVol/PBHGetVol/HGetVol, flags=2
00005174  AA14                     syscall    RGBForeColor
00005176  E214                     roxr       D4.b, 1
00005178  DA14                     add.b      D5, [A4]
0000517A  D214                     add.b      D1, [A4]
0000517C  B214                     cmp.b      D1, [A4]
0000517E  BA1B                     cmp.b      D5, [A3]+
00005180  4A14                     tst.b      [A4]
00005182  CA1B                     and.b      D5, [A3]+
00005184  BA1E                     cmp.b      D5, [A6]+
00005186  C21E                     and.b      D1, [A6]+
00005188  CA1F                     and.b      D5, [A7]+
0000518A  121F                     move.b     D1, [A7]+
0000518C  1A1F                     move.b     D5, [A7]+
0000518E  221F                     move.l     D1, [A7]+
00005190  2A1F                     move.l     D5, [A7]+
00005192  321F                     move.w     D1, [A7]+
00005194  3A1F                     move.w     D5, [A7]+
00005196  4A1E                     tst.b      [A6]+
00005198  DA1E                     add.b      D5, [A6]+
0000519A  E21E                     ror        D6.b, 1
0000519C  EA1E                     ror        D6.b, 5
0000519E  F21E FA1F                .cpgen     0xF21E, 0xFA1F // unimplemented
000051A2  0A1B C21B                xori.b     [A3]+, 0x1B
000051A6  5A1B                     addq.b     [A3]+, 5
000051A8  621B                     bhi        +0x1D /* 000051C5 */
000051AA  AA1B                     syscall    GetCCursor
000051AC  B21B                     cmp.b      D1, [A3]+
000051AE  721B                     moveq.l    D1, 0x1B
000051B0  7A1B                     moveq.l    D5, 0x1B
000051B2  921B                     sub.b      D1, [A3]+
000051B4  A21B                     syscall    SetZone, flags=2
000051B6  9A1B                     sub.b      D5, [A3]+
000051B8  821C                     or.b       D1, [A4]+
000051BA  0A1B 8AB1                xori.b     [A3]+, 0xB1
000051BE  160A                     move.b     D3, A2
000051C0  30F0 0203                move.w     [A0]+, [A0 + D0.w * 2 + 0x3]
000051C4  1612                     move.b     D3, [A2]
000051C6  1622                     move.b     D3, -[A2]
000051C8  161A                     move.b     D3, [A2]+
000051CA  3216                     move.w     D1, [A6]
000051CC  2AFE                     move.l     [A5]+, <<invalid special address>>
000051CE  CE21                     and.b      D7, -[A1]
000051D0  1BCA                     move.b     <<invalid special address>>, A2
000051D2  81FF                     divs.w     D0, <<invalid special address>>
000051D4  8021                     or.b       D0, -[A1]
000051D6  1BCA                     move.b     <<invalid special address>>, A2
000051D8  30F0 0204                move.w     [A0]+, [A0 + D0.w * 2 + 0x4]
000051DC  1D1A                     move.b     -[A6], [A2]+
000051DE  1D22                     move.b     -[A6], -[A2]
000051E0  1D52 1D4A                move.b     [A6 + 0x1D4A], [A2]
000051E4  321D                     move.w     D1, [A5]+
000051E6  2AFF                     move.l     [A5]+, <<invalid special address>>
000051E8  8020                     or.b       D0, -[A0]
000051EA  F004 021B                pmove      MR0, D4
000051EE  C2FF                     mulu.w     D1, <<invalid special address>>
000051F0  801B                     or.b       D0, [A3]+
000051F2  72FF                     moveq.l    D1, 0xFFFFFFFF
000051F4  8021                     or.b       D0, -[A1]
000051F6  1B7A 321C C2FF           move.b     [A5 - 0x3D01], [PC + 0x321C /* 00008414 */]
000051FC  8022                     or.b       D0, -[A2]
000051FE  1B82 FF80                move.b     [ + <<invalid base displacement size>> + A7 * 8], D2
00005202  211C                     move.l     -[A0], [A4]+
00005204  0A32 1C5A FF80           xori.b     [ + <<invalid base displacement size>> + A7 * 8], 0x5A /* 'Z' */
0000520A  221E                     move.l     D1, [A6]+
0000520C  CAFF                     mulu.w     D5, <<invalid special address>>
0000520E  8021                     or.b       D0, -[A1]
00005210  1F0A                     move.b     -[A7], A2
00005212  30F0 0202                move.w     [A0]+, [A0 + D0.w * 2 + 0x2]
00005216  1C6A 1C72                movea.b    A6, [A2 + 0x1C72]
0000521A  321C                     move.w     D1, [A4]+
0000521C  7AFF                     moveq.l    D5, 0xFFFFFFFF
0000521E  8022                     or.b       D0, -[A2]
00005220  1B5A FF80                move.b     [A5 - 0x80], [A2]+
00005224  211B                     move.l     -[A0], [A3]+
00005226  6231                     bhi        +0x33 /* 00005259 */
00005228  1C3A 321C                move.b     D6, [PC + 0x321C /* 00008446 */]
0000522C  A2FF                     syscall    XFindLine/TEFindLine, flags=2
0000522E  8022                     or.b       D0, -[A2]
00005230  1BB2 FF80 211B AA30 F002 move.b     [[A5 + D2] - 0x55CF0FFE], [ + <<invalid base displacement size>> + A7 * 8]
0000523A  051C                     btst       [A4]+, D2
0000523C  521C                     addq.b     [A4]+, 1
0000523E  B21C                     cmp.b      D1, [A4]+
00005240  4A1C                     tst.b      [A4]+
00005242  E21C                     ror        D4.b, 1
00005244  EAB1                     roxr       D1, D5
00005246  160A                     move.b     D3, A2
00005248  30F0 0204                move.w     [A0]+, [A0 + D0.w * 2 + 0x4]
0000524C  1612                     move.b     D3, [A2]
0000524E  1622                     move.b     D3, -[A2]
00005250  161A                     move.b     D3, [A2]+
00005252  162A B116                move.b     D3, [A2 - 0x4EEA]
00005256  0A32 1612 FE78           xori.b     [A2 + A7 * 8 + 0x78], 0x12
0000525C  2114                     move.l     -[A0], [A4]
0000525E  E230                     roxr       D0.b, D1
00005260  F002 0216                pmove      MR0, D2
00005264  1A16                     move.b     D5, [A6]
00005266  2AB1 1BDA 30F0           move.l     [A5], [[] + 0x30F0]
0000526C  021D 1492                andi.b     [A5]+, 0x92
00005270  149A                     move.b     [A2], [A2]+
00005272  14A2                     move.b     [A2], -[A2]
00005274  14AA 14E2                move.b     [A2], [A2 + 0x14E2]
00005278  14DA                     move.b     [A2]+, [A2]+
0000527A  14D2                     move.b     [A2]+, [A2]
0000527C  14B2 14BA                move.b     [A2], [A2 + D1.w * 4 - 0x46]
00005280  1C02                     move.b     D6, D2
00005282  14CA                     move.b     [A2]+, A2
00005284  1BF2 1EC2                move.b     <<invalid special address>>, [A2 + D1 * 8 - 0x3E]
00005288  1ECA                     move.b     [A7]+, A2
0000528A  1F12                     move.b     -[A7], [A2]
0000528C  1F1A                     move.b     -[A7], [A2]+
0000528E  1F22                     move.b     -[A7], -[A2]
00005290  1F2A 1F32                move.b     -[A7], [A2 + 0x1F32]
00005294  1F3A 1F4A                move.b     -[A7], [PC + 0x1F4A /* 000071E0, value 0x4 */]
00005298  1EDA                     move.b     [A7]+, [A2]+
0000529A  1EE2                     move.b     [A7]+, -[A2]
0000529C  1EEA 1EF2                move.b     [A7]+, [A2 + 0x1EF2]
000052A0  1EFA 1F0A                move.b     [A7]+, [PC + 0x1F0A /* 000071AC, value 0xC */]
000052A4  1BEA 1BE2                move.b     <<invalid special address>>, [A2 + 0x1BE2]
000052A8  81FF                     divs.w     D0, <<invalid special address>>
000052AA  8021                     or.b       D0, -[A1]
000052AC  1BDA                     move.b     <<invalid special address>>, [A2]+
000052AE  30F0 0204                move.w     [A0]+, [A0 + D0.w * 2 + 0x4]
000052B2  1D1A                     move.b     -[A6], [A2]+
000052B4  1D22                     move.b     -[A6], -[A2]
000052B6  1D52 1D4A                move.b     [A6 + 0x1D4A], [A2]
000052BA  321D                     move.w     D1, [A5]+
000052BC  2AFF                     move.l     [A5]+, <<invalid special address>>
000052BE  8021                     or.b       D0, -[A1]
000052C0  1BEA 30F0                move.b     <<invalid special address>>, [A2 + 0x30F0]
000052C4  0202 1CD2                andi.b     D2, 0xD2
000052C8  1CDA                     move.b     [A6]+, [A2]+
000052CA  321C                     move.w     D1, [A4]+
000052CC  C2FF                     mulu.w     D1, <<invalid special address>>
000052CE  8021                     or.b       D0, -[A1]
000052D0  1BE2                     move.b     <<invalid special address>>, -[A2]
000052D2  311C                     move.w     -[A0], [A4]+
000052D4  6232                     bhi        +0x34 /* 00005308 */
000052D6  1C5A                     movea.b    A6, [A2]+
000052D8  FF80                     .invalid   <<F/6/7>>
000052DA  221E                     move.l     D1, [A6]+
000052DC  CAFF                     mulu.w     D5, <<invalid special address>>
000052DE  8021                     or.b       D0, -[A1]
000052E0  1F0A                     move.b     -[A7], A2
000052E2  30F0 020E                move.w     [A0]+, [A0 + D0.w * 2 + 0xE]
000052E6  1C6A 1C72                movea.b    A6, [A2 + 0x1C72]
000052EA  1C7A 1C32                movea.b    A6, [PC + 0x1C32 /* 00006F1E, value 0xFF */]
000052EE  1C9A                     move.b     [A6], [A2]+
000052F0  1C3A 1CA2                move.b     D6, [PC + 0x1CA2 /* 00006F94, value 0x75 'u', cstring "uldn\'t create offscreen port f"... */]
000052F4  1C42                     movea.b    A6, D2
000052F6  1CAA 1C52                move.b     [A6], [A2 + 0x1C52]
000052FA  1CB2 1C4A                move.b     [A6], [A2 + D1 * 4 + 0x4A]
000052FE  1CE2                     move.b     [A6]+, -[A2]
00005300  1CEA B116                move.b     [A6]+, [A2 - 0x4EEA]
00005304  0A30 F002 0416           xori.b     [A0 + D0.w * 4 + 0x16], 0x2
// begin alternate branch 00005308-0000530C
label00005308:
00005308  0416 1216                subi.b     [A6], 0x16
// end alternate branch 00005308-0000530C
label00005308: // (misaligned)
0000530A  1216                     move.b     D1, [A6]
0000530C  2216                     move.l     D1, [A6]
0000530E  1A16                     move.b     D5, [A6]
00005310  2AB1 160A                move.l     [A5], [A1 + D1.w * 8 + 0xA]
00005314  3216                     move.w     D1, [A6]
00005316  12FE                     move.b     [A1]+, <<invalid special address>>
00005318  5C21                     addq.b     -[A1], 6
0000531A  14E2                     move.b     [A2]+, -[A2]
0000531C  30F0 0202                move.w     [A0]+, [A0 + D0.w * 2 + 0x2]
00005320  161A                     move.b     D3, [A2]+
00005322  162A B120                move.b     D3, [A2 - 0x4EE0]
00005326  5A30 F002                addq.b     [A0 + A7.w + 0x2], 5
0000532A  2914                     move.l     -[A4], [A4]
0000532C  9214                     sub.b      D1, [A4]
0000532E  9A14                     sub.b      D5, [A4]
00005330  A214                     syscall    GetVol/PBHGetVol/HGetVol, flags=2
00005332  AA14                     syscall    RGBForeColor
00005334  E214                     roxr       D4.b, 1
00005336  DA14                     add.b      D5, [A4]
00005338  D214                     add.b      D1, [A4]
0000533A  B214                     cmp.b      D1, [A4]
0000533C  BA1B                     cmp.b      D5, [A3]+
0000533E  4A14                     tst.b      [A4]
00005340  CA20                     and.b      D5, -[A0]
00005342  421E                     clr.b      [A6]+
00005344  C21E                     and.b      D1, [A6]+
00005346  CA1F                     and.b      D5, [A7]+
00005348  121F                     move.b     D1, [A7]+
0000534A  1A1F                     move.b     D5, [A7]+
0000534C  221F                     move.l     D1, [A7]+
0000534E  2A1F                     move.l     D5, [A7]+
00005350  321F                     move.w     D1, [A7]+
00005352  3A1F                     move.w     D5, [A7]+
00005354  4A1E                     tst.b      [A6]+
00005356  DA1E                     add.b      D5, [A6]+
00005358  E21E                     ror        D6.b, 1
0000535A  EA1E                     ror        D6.b, 5
0000535C  F21E FA1F                .cpgen     0xF21E, 0xFA1F // unimplemented
00005360  0A1B 421B                xori.b     [A3]+, 0x1B
00005364  5A1B                     addq.b     [A3]+, 5
00005366  621B                     bhi        +0x1D /* 00005383 */
00005368  AA1B                     syscall    GetCCursor
0000536A  B21B                     cmp.b      D1, [A3]+
0000536C  7220                     moveq.l    D1, 0x20
0000536E  4A1B                     tst.b      [A3]+
00005370  921B                     sub.b      D1, [A3]+
00005372  A21B                     syscall    SetZone, flags=2
00005374  9A1B                     sub.b      D5, [A3]+
00005376  821C                     or.b       D1, [A4]+
00005378  0A1B 8A20                xori.b     [A3]+, 0x20 /* ' ' */
0000537C  6281                     bhi        -0x7D /* 000052FF */
0000537E  FF80                     .invalid   <<F/6/7>>
00005380  2120                     move.l     -[A0], -[A0]
00005382  5A30 F002                addq.b     [A0 + A7.w + 0x2], 5
00005386  041D 1A1D                subi.b     [A5]+, 0x1D
0000538A  221D                     move.l     D1, [A5]+
0000538C  521D                     addq.b     [A5]+, 1
0000538E  4A32 1D2A FF80 20F0      tst.b      [[A2 - 0x80 + D1 * 4] + 0x20F0]
00005396  0405 1B42                subi.b     D5, 0x42 /* 'B' */
0000539A  FF80                     .invalid   <<F/6/7>>
0000539C  1B72 FF80 204A           move.b     [A5 + 0x204A /* export_1029, CODE:37 @ 00003264 */], [ + <<invalid base displacement size>> + A7 * 8]
000053A2  FF80                     .invalid   <<F/6/7>>
000053A4  2062                     movea.l    A0, -[A2]
000053A6  FF80                     .invalid   <<F/6/7>>
000053A8  1B82 FF80                move.b     [ + <<invalid base displacement size>> + A7 * 8], D2
000053AC  211C                     move.l     -[A0], [A4]+
000053AE  0A32 1C5A FF80           xori.b     [ + <<invalid base displacement size>> + A7 * 8], 0x5A /* 'Z' */
000053B4  221E                     move.l     D1, [A6]+
000053B6  CAFF                     mulu.w     D5, <<invalid special address>>
000053B8  8021                     or.b       D0, -[A1]
000053BA  1F0A                     move.b     -[A7], A2
000053BC  30F0 0202                move.w     [A0]+, [A0 + D0.w * 2 + 0x2]
000053C0  1C6A 1C72                movea.b    A6, [A2 + 0x1C72]
000053C4  321C                     move.w     D1, [A4]+
000053C6  7AFF                     moveq.l    D5, 0xFFFFFFFF
000053C8  8022                     or.b       D0, -[A2]
000053CA  1B5A FF80                move.b     [A5 - 0x80], [A2]+
000053CE  211B                     move.l     -[A0], [A3]+
000053D0  6231                     bhi        +0x33 /* 00005403 */
000053D2  1C3A 321C                move.b     D6, [PC + 0x321C /* 000085F0 */]
000053D6  A2FF                     syscall    XFindLine/TEFindLine, flags=2
000053D8  8022                     or.b       D0, -[A2]
000053DA  1BB2 FF80 211B AA30 F002 move.b     [[A5 + D2] - 0x55CF0FFE], [ + <<invalid base displacement size>> + A7 * 8]
000053E4  051C                     btst       [A4]+, D2
000053E6  521C                     addq.b     [A4]+, 1
000053E8  B21C                     cmp.b      D1, [A4]+
000053EA  4A1C                     tst.b      [A4]+
000053EC  E21C                     ror        D4.b, 1
000053EE  EAB1                     roxr       D1, D5
000053F0  160A                     move.b     D3, A2
000053F2  30F0 0204                move.w     [A0]+, [A0 + D0.w * 2 + 0x4]
000053F6  1612                     move.b     D3, [A2]
000053F8  1622                     move.b     D3, -[A2]
000053FA  161A                     move.b     D3, [A2]+
000053FC  162A B116                move.b     D3, [A2 - 0x4EEA]
00005400  0A32 1612 FECA           xori.b     [A2 + A7 * 8 - 0x36], 0x12
00005406  2114                     move.l     -[A0], [A4]
00005408  E230                     roxr       D0.b, D1
0000540A  F002 0216                pmove      MR0, D2
0000540E  1A16                     move.b     D5, [A6]
00005410  2AB1 1A2A                move.l     [A5], [A1 + D1 * 2 + 0x2A]
00005414  30F0 021C                move.w     [A0]+, [A0 + D0.w * 2 + 0x1C]
00005418  1492                     move.b     [A2], [A2]
0000541A  149A                     move.b     [A2], [A2]+
0000541C  14A2                     move.b     [A2], -[A2]
0000541E  14AA 14E2                move.b     [A2], [A2 + 0x14E2]
00005422  14DA                     move.b     [A2]+, [A2]+
00005424  14D2                     move.b     [A2]+, [A2]
00005426  14B2 14BA                move.b     [A2], [A2 + D1.w * 4 - 0x46]
0000542A  14C2                     move.b     [A2]+, D2
0000542C  14CA                     move.b     [A2]+, A2
0000542E  1EBA 1EC2                move.b     [A7], [PC + 0x1EC2 /* 000072F2, value 0x4 */]
00005432  1ECA                     move.b     [A7]+, A2
00005434  1F12                     move.b     -[A7], [A2]
00005436  1F1A                     move.b     -[A7], [A2]+
00005438  1F22                     move.b     -[A7], -[A2]
0000543A  1F2A 1F32                move.b     -[A7], [A2 + 0x1F32]
0000543E  1F3A 1F4A                move.b     -[A7], [PC + 0x1F4A /* 0000738A, value 0x4 */]
00005442  1EDA                     move.b     [A7]+, [A2]+
00005444  1EE2                     move.b     [A7]+, -[A2]
00005446  1EEA 1EF2                move.b     [A7]+, [A2 + 0x1EF2]
0000544A  1EFA 1F0A                move.b     [A7]+, [PC + 0x1F0A /* 00007356, value 0x2 */]
0000544E  1A32 B116 0A30           move.b     D5, [[A2] + A3 + 0xA30]
00005454  F002 0316                pmovefd    MR0, D2
00005458  1216                     move.b     D1, [A6]
0000545A  2216                     move.l     D1, [A6]
0000545C  1A32 162A                move.b     D5, [A2 + D1.w * 8 + 0x2A]
00005460  FED6 211A                .extension 0xED6 <<F/2-3/7>> // unimplemented
00005464  2AB1 160A                move.l     [A5], [A1 + D1.w * 8 + 0xA]
00005468  3216                     move.w     D1, [A6]
0000546A  12FE                     move.b     [A1]+, <<invalid special address>>
0000546C  8C21                     or.b       D6, -[A1]
0000546E  14E2                     move.b     [A2]+, -[A2]
00005470  30F0 0202                move.w     [A0]+, [A0 + D0.w * 2 + 0x2]
00005474  161A                     move.b     D3, [A2]+
00005476  162A B116                move.b     D3, [A2 - 0x4EEA]
0000547A  0A30 F002 0416           xori.b     [A0 + D0.w * 4 + 0x16], 0x2
00005480  1216                     move.b     D1, [A6]
00005482  2216                     move.l     D1, [A6]
00005484  1A16                     move.b     D5, [A6]
00005486  2A81                     move.l     [A5], D1
00005488  FF80                     .invalid   <<F/6/7>>
0000548A  211A                     move.l     -[A0], [A2]+
0000548C  2A30 F002                move.l     D5, [A0 + A7.w + 0x2]
00005490  041D 1A1D                subi.b     [A5]+, 0x1D
00005494  221D                     move.l     D1, [A5]+
00005496  521D                     addq.b     [A5]+, 1
00005498  4A32 1D2A FF80 211A      tst.b      [[A2 - 0x80 + D1 * 4] + 0x211A]
000054A0  3230 F002                move.w     D1, [A0 + A7.w + 0x2]
000054A4  051C                     btst       [A4]+, D2
000054A6  D21C                     add.b      D1, [A4]+
000054A8  DA1C                     add.b      D5, [A4]+
000054AA  C21C                     and.b      D1, [A4]+
000054AC  2A1C                     move.l     D5, [A4]+
000054AE  6232                     bhi        +0x34 /* 000054E2 */
000054B0  1C5A                     movea.b    A6, [A2]+
000054B2  FF80                     .invalid   <<F/6/7>>
000054B4  221E                     move.l     D1, [A6]+
000054B6  CAFF                     mulu.w     D5, <<invalid special address>>
000054B8  8021                     or.b       D0, -[A1]
000054BA  1F0A                     move.b     -[A7], A2
000054BC  30F0 020E                move.w     [A0]+, [A0 + D0.w * 2 + 0xE]
000054C0  1C6A 1C72                movea.b    A6, [A2 + 0x1C72]
000054C4  1C7A 1C32                movea.b    A6, [PC + 0x1C32 /* 000070F8, value 0x65 'e', cstring "ensed to Interplay Productions:"... */]
000054C8  1C9A                     move.b     [A6], [A2]+
000054CA  1C3A 1CA2                move.b     D6, [PC + 0x1CA2 /* 0000716E, value 0x67 'g' */]
000054CE  1C42                     movea.b    A6, D2
000054D0  1CAA 1C52                move.b     [A6], [A2 + 0x1C52]
000054D4  1CB2 1C4A                move.b     [A6], [A2 + D1 * 4 + 0x4A]
000054D8  1CE2                     move.b     [A6]+, -[A2]
000054DA  1CEA B116                move.b     [A6]+, [A2 - 0x4EEA]
000054DE  4230 F002                clr.b      [A0 + A7.w + 0x2]
label000054E2:
000054E2  0D16                     btst       [A6], D6
000054E4  5216                     addq.b     [A6], 1
000054E6  C216                     and.b      D1, [A6]
000054E8  5A16                     addq.b     [A6], 5
000054EA  6216                     bhi        +0x18 /* 00005502 */
000054EC  6A16                     bpl        +0x18 /* 00005504 */
000054EE  B216                     cmp.b      D1, [A6]
000054F0  7A16                     moveq.l    D5, 0x16
000054F2  8216                     or.b       D1, [A6]
000054F4  8A16                     or.b       D5, [A6]
000054F6  9216                     sub.b      D1, [A6]
000054F8  9A16                     sub.b      D5, [A6]
000054FA  A216                     syscall    InitQueue/FInitQueue, flags=2
000054FC  AAB1                     syscall    0xAB1
000054FE  160A                     move.b     D3, A2
00005500  30F0 0204                move.w     [A0]+, [A0 + D0.w * 2 + 0x4]
// begin alternate branch 00005502-00005506
label00005502:
00005502  0204 1612                andi.b     D4, 0x12
// end alternate branch 00005502-00005506
label00005502: // (misaligned)
label00005504:
00005504  1612                     move.b     D3, [A2]
00005506  1622                     move.b     D3, -[A2]
00005508  161A                     move.b     D3, [A2]+
0000550A  162A B11A                move.b     D3, [A2 - 0x4EE6]
0000550E  3A30 F002                move.w     D5, [A0 + A7.w + 0x2]
00005512  2C14                     move.l     D6, [A4]
00005514  9214                     sub.b      D1, [A4]
00005516  9A14                     sub.b      D5, [A4]
00005518  A214                     syscall    GetVol/PBHGetVol/HGetVol, flags=2
0000551A  AA14                     syscall    RGBForeColor
0000551C  E214                     roxr       D4.b, 1
0000551E  DA14                     add.b      D5, [A4]
00005520  D214                     add.b      D1, [A4]
00005522  B214                     cmp.b      D1, [A4]
00005524  BA21                     cmp.b      D5, -[A1]
00005526  C214                     and.b      D1, [A4]
00005528  CA21                     and.b      D5, -[A1]
0000552A  5A21                     addq.b     -[A1], 5
0000552C  6221                     bhi        +0x23 /* 0000554F */
0000552E  7221                     moveq.l    D1, 0x21
00005530  EA21                     asr        D1.b, D5
00005532  F221 FA22                .cpgen     0xF221, 0xFA22 // unimplemented
00005536  0222 0A22                andi.b     -[A2], 0x22 /* '\"' */
0000553A  1221                     move.b     D1, -[A1]
0000553C  8221                     or.b       D1, -[A1]
0000553E  8A21                     or.b       D5, -[A1]
00005540  9221                     sub.b      D1, -[A1]
00005542  9A21                     sub.b      D5, -[A1]
00005544  A221                     syscall    GetPtrSize, flags=2
00005546  AA21                     syscall    OpColor
00005548  7A21                     moveq.l    D5, 0x21
0000554A  521F                     addq.b     [A7]+, 1
0000554C  C21F                     and.b      D1, [A7]+
0000554E  CA21                     and.b      D5, -[A1]
00005550  4A1D                     tst.b      [A5]+
00005552  DA22                     add.b      D5, -[A2]
00005554  1A22                     move.b     D5, -[A2]
00005556  2221                     move.l     D1, -[A1]
00005558  6A22                     bpl        +0x24 /* 0000557C */
0000555A  4A1D                     tst.b      [A5]+
0000555C  E222                     asr        D2.b, D1
0000555E  2A22                     move.l     D5, -[A2]
00005560  3222                     move.w     D1, -[A2]
00005562  4221                     clr.b      -[A1]
00005564  E221                     asr        D1.b, D1
00005566  CA21                     and.b      D5, -[A1]
00005568  D221                     add.b      D1, -[A1]
0000556A  DAB1 160A                add.l      D5, [A1 + D1.w * 8 + 0xA]
0000556E  3216                     move.w     D1, [A6]
00005570  12FE                     move.b     [A1]+, <<invalid special address>>
00005572  0421 14E2                subi.b     -[A1], 0xE2
00005576  30F0 0202                move.w     [A0]+, [A0 + D0.w * 2 + 0x2]
0000557A  161A                     move.b     D3, [A2]+
label0000557C:
0000557C  162A B116                move.b     D3, [A2 - 0x4EEA]
00005580  0A30 F002 0416           xori.b     [A0 + D0.w * 4 + 0x16], 0x2
00005586  1216                     move.b     D1, [A6]
00005588  2216                     move.l     D1, [A6]
0000558A  1A16                     move.b     D5, [A6]
0000558C  2A81                     move.l     [A5], D1
0000558E  FF80                     .invalid   <<F/6/7>>
00005590  211A                     move.l     -[A0], [A2]+
00005592  3A30 F002                move.w     D5, [A0 + A7.w + 0x2]
00005596  041D 1A1D                subi.b     [A5]+, 0x1D
0000559A  221D                     move.l     D1, [A5]+
0000559C  521D                     addq.b     [A5]+, 1
0000559E  4A32 1D2A FF80 20F0      tst.b      [[A2 - 0x80 + D1 * 4] + 0x20F0]
000055A6  0402 2152                subi.b     D2, 0x52 /* 'R' */
000055AA  FF80                     .invalid   <<F/6/7>>
000055AC  224A                     movea.l    A1, A2
000055AE  FF80                     .invalid   <<F/6/7>>
000055B0  2121                     move.l     -[A0], -[A1]
000055B2  6A32                     bpl        +0x34 /* 000055E6 */
000055B4  1CC2                     move.b     [A6]+, D2
000055B6  FF80                     .invalid   <<F/6/7>>
000055B8  2221                     move.l     D1, -[A1]
000055BA  4AFF                     tas.b      <<invalid special address>>
000055BC  8021                     or.b       D0, -[A1]
000055BE  1DDA                     move.b     <<invalid special address>>, [A2]+
000055C0  321C                     move.w     D1, [A4]+
000055C2  5AFF                     spl        <<invalid special address>>
000055C4  8022                     or.b       D0, -[A2]
000055C6  2172 FF80 2121           move.l     [A0 + 0x2121], [ + <<invalid base displacement size>> + A7 * 8]
000055CC  7A30                     moveq.l    D5, 0x30
000055CE  F002 021C                pmove      MR0, D2
000055D2  6A1C                     bpl        +0x1E /* 000055F0 */
000055D4  7232                     moveq.l    D1, 0x32
000055D6  1C7A FF80                movea.b    A6, [PC - 0x80 /* 00005558, value 0x6A 'j' */]
000055DA  221F                     move.l     D1, [A7]+
000055DC  C2FF                     mulu.w     D1, <<invalid special address>>
000055DE  8021                     or.b       D0, -[A1]
000055E0  1FCA                     move.b     <<invalid special address>>, A2
000055E2  30F0 0206                move.w     [A0]+, [A0 + D0.w * 2 + 0x6]
label000055E6:
000055E6  1C3A 1CA2                move.b     D6, [PC + 0x1CA2 /* 0000728A, value 0x4 */]
000055EA  1C42                     movea.b    A6, D2
000055EC  1CAA 1C52                move.b     [A6], [A2 + 0x1C52]
label000055F0:
000055F0  1CB2 321C                move.b     [A6], [A2 + D3.w * 2 + 0x1C]
000055F4  4AFF                     tas.b      <<invalid special address>>
000055F6  8022                     or.b       D0, -[A2]
000055F8  221A                     move.l     D1, [A2]+
000055FA  FF80                     .invalid   <<F/6/7>>
000055FC  2122                     move.l     -[A0], -[A2]
000055FE  22B1 2072                move.l     [A1], [A1 + D2.w + 0x72]
00005602  30F0 022C                move.w     [A0]+, [A0 + D0.w * 2 + 0x2C]
00005606  1492                     move.b     [A2], [A2]
00005608  149A                     move.b     [A2], [A2]+
0000560A  14A2                     move.b     [A2], -[A2]
0000560C  14AA 14E2                move.b     [A2], [A2 + 0x14E2]
00005610  14DA                     move.b     [A2]+, [A2]+
00005612  14D2                     move.b     [A2]+, [A2]
00005614  14B2 14BA                move.b     [A2], [A2 + D1.w * 4 - 0x46]
00005618  21C2 14CA                move.l     [0x000014CA], D2
0000561C  215A 2162                move.l     [A0 + 0x2162], [A2]+
00005620  2172 21EA 21F2 21FA 2202 move.l     [A0 + 0x2202], [[0x21F2] + 0x21FA]
0000562A  220A                     move.l     D1, A2
0000562C  2212                     move.l     D1, [A2]
0000562E  2182 218A 2192           move.l     [[ + <<invalid base displacement size>> + D2] + 0x2192], D2
00005634  219A 21A2 21AA 217A      move.l     [[0x21AA + D2] + 0x217A], [A2]+
0000563C  2152 1FC2                move.l     [A0 + 0x1FC2], [A2]
00005640  1FCA                     move.b     <<invalid special address>>, A2
00005642  214A 1DDA                move.l     [A0 + 0x1DDA], A2
00005646  221A                     move.l     D1, [A2]+
00005648  2222                     move.l     D1, -[A2]
0000564A  216A 224A 1DE2           move.l     [A0 + 0x1DE2], [A2 + 0x224A]
00005650  222A 2232                move.l     D1, [A2 + 0x2232]
00005654  2242                     movea.l    A1, D2
00005656  21E2 21CA                move.l     [0x000021CA], -[A2]
0000565A  21D2 21DA                move.l     [0x000021DA], [A2]
0000565E  B116                     xor.b      [A6], D0
00005660  0A32 1612 FE04           xori.b     [A2 + A7 * 8 + 0x4], 0x12
00005666  2114                     move.l     -[A0], [A4]
00005668  E230                     roxr       D0.b, D1
0000566A  F002 0216                pmove      MR0, D2
0000566E  1A16                     move.b     D5, [A6]
00005670  2AB1 160A                move.l     [A5], [A1 + D1.w * 8 + 0xA]
00005674  30F0 0204                move.w     [A0]+, [A0 + D0.w * 2 + 0x4]
00005678  1612                     move.b     D3, [A2]
0000567A  1622                     move.b     D3, -[A2]
0000567C  161A                     move.b     D3, [A2]+
0000567E  162A 81FF                move.b     D3, [A2 - 0x7E01]
00005682  8021                     or.b       D0, -[A1]
00005684  2072 30F0                movea.l    A0, [A2 + D3.w - 0x10]
00005688  0204 1D1A                andi.b     D4, 0x1A
0000568C  1D22                     move.b     -[A6], -[A2]
0000568E  1D52 1D4A                move.b     [A6 + 0x1D4A], [A2]
00005692  321D                     move.w     D1, [A5]+
00005694  2AFF                     move.l     [A5]+, <<invalid special address>>
00005696  8020                     or.b       D0, -[A0]
00005698  F004 0221                pmove      MR0, D4
0000569C  52FF                     shi        <<invalid special address>>
0000569E  8022                     or.b       D0, -[A2]
000056A0  4AFF                     tas.b      <<invalid special address>>
000056A2  8021                     or.b       D0, -[A1]
000056A4  216A 321C C2FF           move.l     [A0 - 0x3D01], [A2 + 0x321C]
000056AA  8022                     or.b       D0, -[A2]
000056AC  214A FF80                move.l     [A0 - 0x80], A2
000056B0  211D                     move.l     -[A0], [A5]+
000056B2  DA32 1C5A                add.b      D5, [A2 + D1 * 4 + 0x5A]
000056B6  FF80                     .invalid   <<F/6/7>>
000056B8  2221                     move.l     D1, -[A1]
000056BA  72FF                     moveq.l    D1, 0xFFFFFFFF
000056BC  8021                     or.b       D0, -[A1]
000056BE  217A 30F0 0202           move.l     [A0 + 0x202], [PC + 0x30F0 /* 000087B0 */]
000056C4  1C6A 1C72                movea.b    A6, [A2 + 0x1C72]
000056C8  321C                     move.w     D1, [A4]+
000056CA  7AFF                     moveq.l    D5, 0xFFFFFFFF
000056CC  8022                     or.b       D0, -[A2]
000056CE  1FC2                     move.b     <<invalid special address>>, D2
000056D0  FF80                     .invalid   <<F/6/7>>
000056D2  211F                     move.l     -[A0], [A7]+
000056D4  CA30 F002                and.b      D5, [A0 + A7.w + 0x2]
000056D8  061C 3A1C                addi.b     [A4]+, 0x1C
000056DC  A21C                     syscall    FreeMem, flags=2
000056DE  421C                     clr.b      [A4]+
000056E0  AA1C                     syscall    SetCCursor
000056E2  521C                     addq.b     [A4]+, 1
000056E4  B232 1C4A                cmp.b      D1, [A2 + D1 * 4 + 0x4A]
000056E8  FF80                     .invalid   <<F/6/7>>
000056EA  2222                     move.l     D1, -[A2]
000056EC  1AFF                     move.b     [A5]+, <<invalid special address>>
000056EE  8021                     or.b       D0, -[A1]
000056F0  2222                     move.l     D1, -[A2]
000056F2  B118                     xor.b      [A0]+, D0
000056F4  E230                     roxr       D0.b, D1
000056F6  F002 0C14                pmove      D2, MR3
000056FA  9214                     sub.b      D1, [A4]
000056FC  9A14                     sub.b      D5, [A4]
000056FE  A214                     syscall    GetVol/PBHGetVol/HGetVol, flags=2
00005700  AA14                     syscall    RGBForeColor
00005702  E214                     roxr       D4.b, 1
00005704  DA14                     add.b      D5, [A4]
00005706  D214                     add.b      D1, [A4]
00005708  B214                     cmp.b      D1, [A4]
0000570A  BA14                     cmp.b      D5, [A4]
0000570C  C214                     and.b      D1, [A4]
0000570E  CA18                     and.b      D5, [A0]+
00005710  EAB1                     roxr       D1, D5
00005712  160A                     move.b     D3, A2
00005714  30F0 0204                move.w     [A0]+, [A0 + D0.w * 2 + 0x4]
00005718  1612                     move.b     D3, [A2]
0000571A  1622                     move.b     D3, -[A2]
0000571C  161A                     move.b     D3, [A2]+
0000571E  162A B116                move.b     D3, [A2 - 0x4EEA]
00005722  0A32 1612 FF7A 2114 E... xori.b     [[A2 + 0x2114E230] - 0xFFE], 0x12
0000572E  0216 1A16                andi.b     [A6], 0x16
00005732  2AB1 160A                move.l     [A5], [A1 + D1.w * 8 + 0xA]
00005736  30F0 020E                move.w     [A0]+, [A0 + D0.w * 2 + 0xE]
0000573A  1612                     move.b     D3, [A2]
0000573C  1622                     move.b     D3, -[A2]
0000573E  161A                     move.b     D3, [A2]+
00005740  162A 16CA                move.b     D3, [A2 + 0x16CA]
00005744  1D8A 1D7A 1D62 1D6A 1D72 move.b     [[A6 + 0x1D621D6A] + 0x1D72], A2
0000574E  013A 1712                btst       [PC + 0x1712 /* 00006E62, value 0x6E 'n', cstring "ndle!" */], D0
00005752  170A                     move.b     -[A3], A2
00005754  1702                     move.b     -[A3], D2
00005756  B116                     xor.b      [A6], D0
00005758  0A30 F002 0F16 1216      xori.b     [[A0] + D0 * 8 + 0x1216], 0x2
00005760  2216                     move.l     D1, [A6]
00005762  1A16                     move.b     D5, [A6]
00005764  2A16                     move.l     D5, [A6]
00005766  DA1D                     add.b      D5, [A5]+
00005768  8A1D                     or.b       D5, [A5]+
0000576A  7A1D                     moveq.l    D5, 0x1D
0000576C  621D                     bhi        +0x1F /* 0000578B */
0000576E  6A1D                     bpl        +0x1F /* 0000578D */
00005770  7201                     moveq.l    D1, 0x01
00005772  4216                     clr.b      [A6]
00005774  E216                     roxr       D6.b, 1
00005776  FA16 F216                .unknown   0xFA16 0xF216 (W = 5)
0000577A  EAB1                     roxr       D1, D5
0000577C  160A                     move.b     D3, A2
0000577E  30F0 0207                move.w     [A0]+, [A0 + D0.w * 2 + 0x7]
00005782  1612                     move.b     D3, [A2]
00005784  1622                     move.b     D3, -[A2]
00005786  161A                     move.b     D3, [A2]+
00005788  162A 171A                move.b     D3, [A2 + 0x171A]
0000578C  0112                     btst       [A2], D0
0000578E  0112                     btst       [A2], D0
00005790  B119                     xor.b      [A1]+, D0
00005792  0A30 F002 0F14           xori.b     <<invalid full ext with I/IS == 4>>, 0x2
00005798  9214                     sub.b      D1, [A4]
0000579A  9A14                     sub.b      D5, [A4]
0000579C  A214                     syscall    GetVol/PBHGetVol/HGetVol, flags=2
0000579E  AA14                     syscall    RGBForeColor
000057A0  E214                     roxr       D4.b, 1
000057A2  DA14                     add.b      D5, [A4]
000057A4  D214                     add.b      D1, [A4]
000057A6  B214                     cmp.b      D1, [A4]
000057A8  BA19                     cmp.b      D5, [A1]+
000057AA  1A14                     move.b     D5, [A4]
000057AC  CA18                     and.b      D5, [A0]+
000057AE  EA18                     ror        D0.b, 5
000057B0  FA19 0219                .unknown   0xFA19 0x0219 (W = 5)
000057B4  1281                     move.b     [A1], D1
000057B6  FF7A                     .extension 0xF7A <<F/4-5/7>> // unimplemented
000057B8  2119                     move.l     -[A0], [A1]+
000057BA  0A30 F002 041D           xori.b     [A0 + D0.w * 4 + 0x1D], 0x2
000057C0  1A1D                     move.b     D5, [A5]+
000057C2  221D                     move.l     D1, [A5]+
000057C4  521D                     addq.b     [A5]+, 1
000057C6  4A32 1D2A FF7A 2118      tst.b      [[A2 - 0x86 + D1 * 4] + 0x2118]
000057CE  FA30 F002                .unknown   0xFA30 0xF002 (W = 5)
000057D2  021C 1A1C                andi.b     [A4]+, 0x1C
000057D6  2232 1CC2                move.l     D1, [A2 + D1 * 4 - 0x3E]
000057DA  FF7A                     .extension 0xF7A <<F/4-5/7>> // unimplemented
000057DC  2119                     move.l     -[A0], [A1]+
000057DE  1230 F002                move.b     D1, [A0 + A7.w + 0x2]
000057E2  101C                     move.b     D0, [A4]+
000057E4  621C                     bhi        +0x1E /* 00005802 */
000057E6  5A1C                     addq.b     [A4]+, 5
000057E8  BA1C                     cmp.b      D5, [A4]+
000057EA  921C                     sub.b      D1, [A4]+
000057EC  6A1C                     bpl        +0x1E /* 0000580A */
000057EE  721C                     moveq.l    D1, 0x1C
000057F0  7A1C                     moveq.l    D5, 0x1C
000057F2  321C                     move.w     D1, [A4]+
000057F4  9A1C                     sub.b      D5, [A4]+
000057F6  3A1C                     move.w     D5, [A4]+
000057F8  A21C                     syscall    FreeMem, flags=2
000057FA  421C                     clr.b      [A4]+
000057FC  AA1C                     syscall    SetCCursor
000057FE  521C                     addq.b     [A4]+, 1
00005800  B21C                     cmp.b      D1, [A4]+
label00005802:
00005802  4AB1 160A                tst.l      [A1 + D1.w * 8 + 0xA]
00005806  3216                     move.w     D1, [A6]
00005808  12FE                     move.b     [A1]+, <<invalid special address>>
label0000580A:
0000580A  E621                     asr        D1.b, D3
0000580C  14E2                     move.b     [A2]+, -[A2]
0000580E  30F0 0202                move.w     [A0]+, [A0 + D0.w * 2 + 0x2]
00005812  161A                     move.b     D3, [A2]+
00005814  162A B116                move.b     D3, [A2 - 0x4EEA]
00005818  0A30 F002 0416           xori.b     [A0 + D0.w * 4 + 0x16], 0x2
0000581E  1216                     move.b     D1, [A6]
00005820  2216                     move.l     D1, [A6]
00005822  1A16                     move.b     D5, [A6]
00005824  2AB1 1CCA                move.l     [A5], [A1 + D1 * 4 - 0x36]
00005828  30F0 021C                move.w     [A0]+, [A0 + D0.w * 2 + 0x1C]
0000582C  1D1A                     move.b     -[A6], [A2]+
0000582E  1D22                     move.b     -[A6], -[A2]
00005830  1D52 1D4A                move.b     [A6 + 0x1D4A], [A2]
00005834  1D2A 0112                move.b     -[A6], [A2 + 0x112]
00005838  1CD2                     move.b     [A6]+, [A2]
0000583A  1CDA                     move.b     [A6]+, [A2]+
0000583C  1CC2                     move.b     [A6]+, D2
0000583E  1C2A 1C62                move.b     D6, [A2 + 0x1C62]
00005842  1C5A                     movea.b    A6, [A2]+
00005844  1CBA 1C92                move.b     [A6], [PC + 0x1C92 /* 000074D8, value 0x4 */]
00005848  1C6A 1C72                movea.b    A6, [A2 + 0x1C72]
0000584C  1C7A 1C32                movea.b    A6, [PC + 0x1C32 /* 00007480, value 0x0, cstring "" */]
00005850  1C9A                     move.b     [A6], [A2]+
00005852  1C3A 1CA2                move.b     D6, [PC + 0x1CA2 /* 000074F6, value 0x0, cstring "" */]
00005856  1C42                     movea.b    A6, D2
00005858  1CAA 1C52                move.b     [A6], [A2 + 0x1C52]
0000585C  1CB2 1C4A                move.b     [A6], [A2 + D1 * 4 + 0x4A]
00005860  1CE2                     move.b     [A6]+, -[A2]
00005862  1CEA B116                move.b     [A6]+, [A2 - 0x4EEA]
00005866  0A30 F002 0416           xori.b     [A0 + D0.w * 4 + 0x16], 0x2
0000586C  1216                     move.b     D1, [A6]
0000586E  2216                     move.l     D1, [A6]
00005870  1A16                     move.b     D5, [A6]
00005872  2AB1 1C12                move.l     [A5], [A1 + D1 * 4 + 0x12]
00005876  30F0 021A                move.w     [A0]+, [A0 + D0.w * 2 + 0x1A]
0000587A  1D1A                     move.b     -[A6], [A2]+
0000587C  1D22                     move.b     -[A6], -[A2]
0000587E  1D52 1D4A                move.b     [A6 + 0x1D4A], [A2]
00005882  1D2A 0112                move.b     -[A6], [A2 + 0x112]
00005886  1C1A                     move.b     D6, [A2]+
00005888  1C22                     move.b     D6, -[A2]
0000588A  1CC2                     move.b     [A6]+, D2
0000588C  1C2A 1C62                move.b     D6, [A2 + 0x1C62]
00005890  1C5A                     movea.b    A6, [A2]+
00005892  1CBA 1C92                move.b     [A6], [PC + 0x1C92 /* 00007526, value 0x0, cstring "" */]
00005896  1C6A 1C72                movea.b    A6, [A2 + 0x1C72]
0000589A  1C7A 1C32                movea.b    A6, [PC + 0x1C32 /* 000074CE, value 0x0, cstring "" */]
0000589E  1C9A                     move.b     [A6], [A2]+
000058A0  1C3A 1CA2                move.b     D6, [PC + 0x1CA2 /* 00007544, value 0x1F */]
000058A4  1C42                     movea.b    A6, D2
000058A6  1CAA 1C52                move.b     [A6], [A2 + 0x1C52]
000058AA  1CB2 1C4A                move.b     [A6], [A2 + D1 * 4 + 0x4A]
000058AE  B116                     xor.b      [A6], D0
000058B0  0A30 F002 0416           xori.b     [A0 + D0.w * 4 + 0x16], 0x2
000058B6  1216                     move.b     D1, [A6]
000058B8  2216                     move.l     D1, [A6]
000058BA  1A16                     move.b     D5, [A6]
000058BC  2AB1 1CFA                move.l     [A5], [A1 + D1 * 4 - 0x6]
000058C0  30F0 021A                move.w     [A0]+, [A0 + D0.w * 2 + 0x1A]
000058C4  1D1A                     move.b     -[A6], [A2]+
000058C6  1D22                     move.b     -[A6], -[A2]
000058C8  1D52 1D4A                move.b     [A6 + 0x1D4A], [A2]
000058CC  1D2A 0112                move.b     -[A6], [A2 + 0x112]
000058D0  1C1A                     move.b     D6, [A2]+
000058D2  1C22                     move.b     D6, -[A2]
000058D4  1CC2                     move.b     [A6]+, D2
000058D6  1C2A 1C62                move.b     D6, [A2 + 0x1C62]
000058DA  1C5A                     movea.b    A6, [A2]+
000058DC  1CBA 1C92                move.b     [A6], [PC + 0x1C92 /* 00007570, value 0x4 */]
000058E0  1C6A 1C72                movea.b    A6, [A2 + 0x1C72]
000058E4  1C7A 1C32                movea.b    A6, [PC + 0x1C32 /* 00007518, value 0x5 */]
000058E8  1C9A                     move.b     [A6], [A2]+
000058EA  1C3A 1CA2                move.b     D6, [PC + 0x1CA2 /* 0000758E, value 0x0, cstring "" */]
000058EE  1C42                     movea.b    A6, D2
000058F0  1CAA 1C52                move.b     [A6], [A2 + 0x1C52]
000058F4  1CB2 1C4A                move.b     [A6], [A2 + D1 * 4 + 0x4A]
000058F8  B116                     xor.b      [A6], D0
000058FA  0A30 F002 0416           xori.b     [A0 + D0.w * 4 + 0x16], 0x2
00005900  1216                     move.b     D1, [A6]
00005902  2216                     move.l     D1, [A6]
00005904  1A16                     move.b     D5, [A6]
00005906  2AB1 1D0A 30F0           move.l     [A5], [[A1 + <<invalid base displacement size>> + D1 * 4] + 0x30F0]
0000590C  021A 1D1A                andi.b     [A2]+, 0x1A
00005910  1D22                     move.b     -[A6], -[A2]
00005912  1D52 1D4A                move.b     [A6 + 0x1D4A], [A2]
00005916  1D2A 0112                move.b     -[A6], [A2 + 0x112]
0000591A  1C1A                     move.b     D6, [A2]+
0000591C  1C22                     move.b     D6, -[A2]
0000591E  1CC2                     move.b     [A6]+, D2
00005920  1C2A 1C62                move.b     D6, [A2 + 0x1C62]
00005924  1C5A                     movea.b    A6, [A2]+
00005926  1CBA 1C92                move.b     [A6], [PC + 0x1C92 /* 000075BA, value 0x0, cstring "" */]
0000592A  1C6A 1C72                movea.b    A6, [A2 + 0x1C72]
0000592E  1C7A 1C32                movea.b    A6, [PC + 0x1C32 /* 00007562, value 0x0, cstring "" */]
00005932  1C9A                     move.b     [A6], [A2]+
00005934  1C3A 1CA2                move.b     D6, [PC + 0x1CA2 /* 000075D8, value 0x7 */]
// begin alternate branch 00005936-00005938
label00005936:
00005936  1CA2                     move.b     [A6], -[A2]
// end alternate branch 00005936-00005938
label00005936: // (misaligned)
00005938  1C42                     movea.b    A6, D2
0000593A  1CAA 1C52                move.b     [A6], [A2 + 0x1C52]
0000593E  1CB2 1C4A                move.b     [A6], [A2 + D1 * 4 + 0x4A]
00005942  B116                     xor.b      [A6], D0
00005944  0A30 F002 0416           xori.b     [A0 + D0.w * 4 + 0x16], 0x2
0000594A  1216                     move.b     D1, [A6]
0000594C  2216                     move.l     D1, [A6]
0000594E  1A16                     move.b     D5, [A6]
00005950  2AB1 160A                move.l     [A5], [A1 + D1.w * 8 + 0xA]
00005954  30F0 0205                move.w     [A0]+, [A0 + D0.w * 2 + 0x5]
00005958  1612                     move.b     D3, [A2]
0000595A  1622                     move.b     D3, -[A2]
0000595C  161A                     move.b     D3, [A2]+
0000595E  162A 192A                move.b     D3, [A2 + 0x192A]
00005962  B11D                     xor.b      [A5]+, D0
00005964  1230 F002                move.b     D1, [A0 + A7.w + 0x2]
00005968  051D                     btst       [A5]+, D2
0000596A  1A1D                     move.b     D5, [A5]+
0000596C  221D                     move.l     D1, [A5]+
0000596E  521D                     addq.b     [A5]+, 1
00005970  4A1D                     tst.b      [A5]+
00005972  2AB1 160A                move.l     [A5], [A1 + D1.w * 8 + 0xA]
00005976  30F0 0204                move.w     [A0]+, [A0 + D0.w * 2 + 0x4]
0000597A  1612                     move.b     D3, [A2]
0000597C  1622                     move.b     D3, -[A2]
0000597E  161A                     move.b     D3, [A2]+
00005980  162A B116                move.b     D3, [A2 - 0x4EEA]
00005984  0A30 F002 0516 1216      xori.b     [[A0] + D0 * 4 + 0x1216], 0x2
0000598C  2216                     move.l     D1, [A6]
0000598E  1A16                     move.b     D5, [A6]
00005990  2A17                     move.l     D5, [A7]
00005992  2AB1 160A                move.l     [A5], [A1 + D1.w * 8 + 0xA]
00005996  30F0 020A                move.w     [A0]+, [A0 + D0.w * 2 + 0xA]
0000599A  1612                     move.b     D3, [A2]
0000599C  1622                     move.b     D3, -[A2]
0000599E  161A                     move.b     D3, [A2]+
000059A0  162A 1DA2                move.b     D3, [A2 + 0x1DA2]
000059A4  1D8A 1D7A 1D62 1D6A 1D72 move.b     [[A6 + 0x1D621D6A] + 0x1D72], A2
000059AE  B116                     xor.b      [A6], D0
000059B0  0A30 F002 0716 1216      xori.b     [[A0] + D0 * 8 + 0x1216], 0x2
000059B8  2216                     move.l     D1, [A6]
000059BA  1A16                     move.b     D5, [A6]
000059BC  2A17                     move.l     D5, [A7]
000059BE  421D                     clr.b      [A5]+
000059C0  921D                     sub.b      D1, [A5]+
000059C2  9AB1 174A 30F0           sub.l      D5, [[A1 + <<invalid base displacement size>>] + 0x30F0]
000059C8  020D 1492                andi.b     A5, 0x92
000059CC  149A                     move.b     [A2], [A2]+
000059CE  14A2                     move.b     [A2], -[A2]
000059D0  14AA 14E2                move.b     [A2], [A2 + 0x14E2]
000059D4  14DA                     move.b     [A2]+, [A2]+
000059D6  14D2                     move.b     [A2]+, [A2]
000059D8  14B2 14BA                move.b     [A2], [A2 + D1.w * 4 - 0x46]
000059DC  14C2                     move.b     [A2]+, D2
000059DE  14CA                     move.b     [A2]+, A2
000059E0  18EA 1952                move.b     [A4]+, [A2 + 0x1952]
000059E4  81FF                     divs.w     D0, <<invalid special address>>
000059E6  7A21                     moveq.l    D5, 0x21
000059E8  174A 30F0                move.b     [A3 + 0x30F0], A2
000059EC  0204 1D1A                andi.b     D4, 0x1A
000059F0  1D22                     move.b     -[A6], -[A2]
000059F2  1D52 1D4A                move.b     [A6 + 0x1D4A], [A2]
000059F6  321D                     move.w     D1, [A5]+
000059F8  2AFF                     move.l     [A5]+, <<invalid special address>>
000059FA  7A21                     moveq.l    D5, 0x21
000059FC  1952 30F0                move.b     [A4 + 0x30F0], [A2]
00005A00  0214 1C1A                andi.b     [A4], 0x1A
00005A04  1C22                     move.b     D6, -[A2]
00005A06  1CC2                     move.b     [A6]+, D2
00005A08  1C2A 1C62                move.b     D6, [A2 + 0x1C62]
00005A0C  1C5A                     movea.b    A6, [A2]+
00005A0E  1CBA 1C92                move.b     [A6], [PC + 0x1C92 /* 000076A2, value 0x0, cstring "" */]
00005A12  1C6A 1C72                movea.b    A6, [A2 + 0x1C72]
00005A16  1C7A 1C32                movea.b    A6, [PC + 0x1C32 /* 0000764A, value 0x0, cstring "" */]
00005A1A  1C9A                     move.b     [A6], [A2]+
00005A1C  1C3A 1CA2                move.b     D6, [PC + 0x1CA2 /* 000076C0, value 0x4 */]
00005A20  1C42                     movea.b    A6, D2
00005A22  1CAA 1C52                move.b     [A6], [A2 + 0x1C52]
00005A26  1CB2 1C4A                move.b     [A6], [A2 + D1 * 4 + 0x4A]
00005A2A  B116                     xor.b      [A6], D0
00005A2C  0A32 1612 FEE6           xori.b     [A2 + A7 * 8 - 0x1A], 0x12
00005A32  2114                     move.l     -[A0], [A4]
00005A34  E230                     roxr       D0.b, D1
00005A36  F002 0216                pmove      MR0, D2
00005A3A  1A16                     move.b     D5, [A6]
00005A3C  2AB1 160A                move.l     [A5], [A1 + D1.w * 8 + 0xA]
00005A40  30F0 0204                move.w     [A0]+, [A0 + D0.w * 2 + 0x4]
00005A44  1612                     move.b     D3, [A2]
00005A46  1622                     move.b     D3, -[A2]
00005A48  161A                     move.b     D3, [A2]+
00005A4A  162A B116                move.b     D3, [A2 - 0x4EEA]
00005A4E  0A30 F002 0716 1216      xori.b     [[A0] + D0 * 8 + 0x1216], 0x2
00005A56  2216                     move.l     D1, [A6]
00005A58  1A16                     move.b     D5, [A6]
00005A5A  2A1D                     move.l     D5, [A5]+
00005A5C  CA1D                     and.b      D5, [A5]+
00005A5E  C21D                     and.b      D1, [A5]+
00005A60  BAB1 225A                cmp.l      D5, [A1 + D2.w * 2 + 0x5A]
00005A64  30F0 022C                move.w     [A0]+, [A0 + D0.w * 2 + 0x2C]
00005A68  1492                     move.b     [A2], [A2]
00005A6A  149A                     move.b     [A2], [A2]+
00005A6C  14A2                     move.b     [A2], -[A2]
00005A6E  14AA 14E2                move.b     [A2], [A2 + 0x14E2]
00005A72  14DA                     move.b     [A2]+, [A2]+
00005A74  14D2                     move.b     [A2]+, [A2]
00005A76  14B2 14BA                move.b     [A2], [A2 + D1.w * 4 - 0x46]
00005A7A  21C2 14CA                move.l     [0x000014CA], D2
00005A7E  215A 2162                move.l     [A0 + 0x2162], [A2]+
00005A82  2172 21EA 21F2 21FA 2202 move.l     [A0 + 0x2202], [[0x21F2] + 0x21FA]
00005A8C  220A                     move.l     D1, A2
00005A8E  2212                     move.l     D1, [A2]
00005A90  2182 218A 2192           move.l     [[ + <<invalid base displacement size>> + D2] + 0x2192], D2
00005A96  219A 21A2 21AA 217A      move.l     [[0x21AA + D2] + 0x217A], [A2]+
00005A9E  2152 1FC2                move.l     [A0 + 0x1FC2], [A2]
00005AA2  1FCA                     move.b     <<invalid special address>>, A2
00005AA4  214A 1DDA                move.l     [A0 + 0x1DDA], A2
00005AA8  221A                     move.l     D1, [A2]+
00005AAA  2222                     move.l     D1, -[A2]
00005AAC  216A 224A 1DE2           move.l     [A0 + 0x1DE2], [A2 + 0x224A]
00005AB2  222A 2232                move.l     D1, [A2 + 0x2232]
00005AB6  2242                     movea.l    A1, D2
00005AB8  21E2 21CA                move.l     [0x000021CA], -[A2]
00005ABC  21D2 21DA                move.l     [0x000021DA], [A2]
00005AC0  81FF                     divs.w     D0, <<invalid special address>>
00005AC2  8021                     or.b       D0, -[A1]
00005AC4  225A                     movea.l    A1, [A2]+
00005AC6  30F0 0204                move.w     [A0]+, [A0 + D0.w * 2 + 0x4]
00005ACA  1D1A                     move.b     -[A6], [A2]+
00005ACC  1D22                     move.b     -[A6], -[A2]
00005ACE  1D52 1D4A                move.b     [A6 + 0x1D4A], [A2]
00005AD2  321D                     move.w     D1, [A5]+
00005AD4  2AFF                     move.l     [A5]+, <<invalid special address>>
00005AD6  8020                     or.b       D0, -[A0]
00005AD8  F004 0221                pmove      MR0, D4
00005ADC  52FF                     shi        <<invalid special address>>
00005ADE  8022                     or.b       D0, -[A2]
00005AE0  4AFF                     tas.b      <<invalid special address>>
00005AE2  8021                     or.b       D0, -[A1]
00005AE4  216A 321C C2FF           move.l     [A0 - 0x3D01], [A2 + 0x321C]
00005AEA  8022                     or.b       D0, -[A2]
00005AEC  214A FF80                move.l     [A0 - 0x80], A2
00005AF0  211D                     move.l     -[A0], [A5]+
00005AF2  DA32 1C5A                add.b      D5, [A2 + D1 * 4 + 0x5A]
00005AF6  FF80                     .invalid   <<F/6/7>>
00005AF8  2221                     move.l     D1, -[A1]
00005AFA  72FF                     moveq.l    D1, 0xFFFFFFFF
00005AFC  8021                     or.b       D0, -[A1]
00005AFE  217A 30F0 0202           move.l     [A0 + 0x202], [PC + 0x30F0 /* 00008BF0 */]
00005B04  1C6A 1C72                movea.b    A6, [A2 + 0x1C72]
00005B08  321C                     move.w     D1, [A4]+
00005B0A  7AFF                     moveq.l    D5, 0xFFFFFFFF
00005B0C  8022                     or.b       D0, -[A2]
00005B0E  1FC2                     move.b     <<invalid special address>>, D2
00005B10  FF80                     .invalid   <<F/6/7>>
00005B12  211F                     move.l     -[A0], [A7]+
00005B14  CA30 F002                and.b      D5, [A0 + A7.w + 0x2]
00005B18  061C 3A1C                addi.b     [A4]+, 0x1C
00005B1C  A21C                     syscall    FreeMem, flags=2
00005B1E  421C                     clr.b      [A4]+
00005B20  AA1C                     syscall    SetCCursor
00005B22  521C                     addq.b     [A4]+, 1
00005B24  B232 1C4A                cmp.b      D1, [A2 + D1 * 4 + 0x4A]
00005B28  FF80                     .invalid   <<F/6/7>>
00005B2A  2222                     move.l     D1, -[A2]
00005B2C  1AFF                     move.b     [A5]+, <<invalid special address>>
00005B2E  8021                     or.b       D0, -[A1]
00005B30  2222                     move.l     D1, -[A2]
00005B32  B116                     xor.b      [A6], D0
00005B34  0A30 F002 0416           xori.b     [A0 + D0.w * 4 + 0x16], 0x2
00005B3A  1216                     move.b     D1, [A6]
00005B3C  2216                     move.l     D1, [A6]
00005B3E  1A16                     move.b     D5, [A6]
00005B40  2AB1 160A                move.l     [A5], [A1 + D1.w * 8 + 0xA]
00005B44  3216                     move.w     D1, [A6]
00005B46  12FE                     move.b     [A1]+, <<invalid special address>>
00005B48  0421 14E2                subi.b     -[A1], 0xE2
00005B4C  30F0 0202                move.w     [A0]+, [A0 + D0.w * 2 + 0x2]
00005B50  161A                     move.b     D3, [A2]+
00005B52  162A B11A                move.b     D3, [A2 - 0x4EE6]
00005B56  4230 F002                clr.b      [A0 + A7.w + 0x2]
00005B5A  2C14                     move.l     D6, [A4]
00005B5C  9214                     sub.b      D1, [A4]
00005B5E  9A14                     sub.b      D5, [A4]
00005B60  A214                     syscall    GetVol/PBHGetVol/HGetVol, flags=2
00005B62  AA14                     syscall    RGBForeColor
00005B64  E214                     roxr       D4.b, 1
00005B66  DA14                     add.b      D5, [A4]
00005B68  D214                     add.b      D1, [A4]
00005B6A  B214                     cmp.b      D1, [A4]
00005B6C  BA21                     cmp.b      D5, -[A1]
00005B6E  C214                     and.b      D1, [A4]
00005B70  CA21                     and.b      D5, -[A1]
00005B72  5A21                     addq.b     -[A1], 5
00005B74  6221                     bhi        +0x23 /* 00005B97 */
00005B76  7221                     moveq.l    D1, 0x21
00005B78  EA21                     asr        D1.b, D5
00005B7A  F221 FA22                .cpgen     0xF221, 0xFA22 // unimplemented
00005B7E  0222 0A22                andi.b     -[A2], 0x22 /* '\"' */
00005B82  1221                     move.b     D1, -[A1]
00005B84  8221                     or.b       D1, -[A1]
00005B86  8A21                     or.b       D5, -[A1]
00005B88  9221                     sub.b      D1, -[A1]
00005B8A  9A21                     sub.b      D5, -[A1]
00005B8C  A221                     syscall    GetPtrSize, flags=2
00005B8E  AA21                     syscall    OpColor
00005B90  7A21                     moveq.l    D5, 0x21
00005B92  521A                     addq.b     [A2]+, 1
00005B94  5A1A                     addq.b     [A2]+, 5
00005B96  6221                     bhi        +0x23 /* 00005BB9 */
00005B98  4A1D                     tst.b      [A5]+
00005B9A  DA22                     add.b      D5, -[A2]
00005B9C  1A22                     move.b     D5, -[A2]
00005B9E  2221                     move.l     D1, -[A1]
00005BA0  6A22                     bpl        +0x24 /* 00005BC4 */
00005BA2  4A1D                     tst.b      [A5]+
00005BA4  E222                     asr        D2.b, D1
00005BA6  2A22                     move.l     D5, -[A2]
00005BA8  3222                     move.w     D1, -[A2]
00005BAA  4221                     clr.b      -[A1]
00005BAC  E21A                     ror        D2.b, 1
00005BAE  4A1A                     tst.b      [A2]+
00005BB0  5221                     addq.b     -[A1], 1
00005BB2  DA81                     add.l      D5, D1
00005BB4  FF80                     .invalid   <<F/6/7>>
00005BB6  211A                     move.l     -[A0], [A2]+
00005BB8  4230 F002                clr.b      [A0 + A7.w + 0x2]
00005BBC  041D 1A1D                subi.b     [A5]+, 0x1D
00005BC0  221D                     move.l     D1, [A5]+
00005BC2  521D                     addq.b     [A5]+, 1
label00005BC4:
00005BC4  4A32 1D2A FF80 20F0      tst.b      [[A2 - 0x80 + D1 * 4] + 0x20F0]
00005BCC  0402 2152                subi.b     D2, 0x52 /* 'R' */
00005BD0  FF80                     .invalid   <<F/6/7>>
00005BD2  224A                     movea.l    A1, A2
00005BD4  FF80                     .invalid   <<F/6/7>>
00005BD6  2121                     move.l     -[A0], -[A1]
00005BD8  6A32                     bpl        +0x34 /* 00005C0C */
00005BDA  1CC2                     move.b     [A6]+, D2
00005BDC  FF80                     .invalid   <<F/6/7>>
00005BDE  2221                     move.l     D1, -[A1]
00005BE0  4AFF                     tas.b      <<invalid special address>>
00005BE2  8021                     or.b       D0, -[A1]
00005BE4  1DDA                     move.b     <<invalid special address>>, [A2]+
00005BE6  321C                     move.w     D1, [A4]+
00005BE8  5AFF                     spl        <<invalid special address>>
00005BEA  8022                     or.b       D0, -[A2]
00005BEC  2172 FF80 2121           move.l     [A0 + 0x2121], [ + <<invalid base displacement size>> + A7 * 8]
00005BF2  7A30                     moveq.l    D5, 0x30
00005BF4  F002 021C                pmove      MR0, D2
00005BF8  6A1C                     bpl        +0x1E /* 00005C16 */
00005BFA  7232                     moveq.l    D1, 0x32
00005BFC  1C7A FF80                movea.b    A6, [PC - 0x80 /* 00005B7E, value 0x2, pstring "\"\n" */]
00005C00  221A                     move.l     D1, [A2]+
00005C02  5AFF                     spl        <<invalid special address>>
00005C04  8021                     or.b       D0, -[A1]
00005C06  1A62                     movea.b    A5, -[A2]
00005C08  30F0 0206                move.w     [A0]+, [A0 + D0.w * 2 + 0x6]
label00005C0C:
00005C0C  1C3A 1CA2                move.b     D6, [PC + 0x1CA2 /* 000078B0 */]
00005C10  1C42                     movea.b    A6, D2
00005C12  1CAA 1C52                move.b     [A6], [A2 + 0x1C52]
label00005C16:
00005C16  1CB2 321C                move.b     [A6], [A2 + D3.w * 2 + 0x1C]
00005C1A  4AFF                     tas.b      <<invalid special address>>
00005C1C  8022                     or.b       D0, -[A2]
00005C1E  221A                     move.l     D1, [A2]+
00005C20  FF80                     .invalid   <<F/6/7>>
00005C22  2122                     move.l     -[A0], -[A2]
00005C24  22B1 160A                move.l     [A1], [A1 + D1.w * 8 + 0xA]
00005C28  30F0 0204                move.w     [A0]+, [A0 + D0.w * 2 + 0x4]
00005C2C  1612                     move.b     D3, [A2]
00005C2E  1622                     move.b     D3, -[A2]
00005C30  161A                     move.b     D3, [A2]+
00005C32  162A B116                move.b     D3, [A2 - 0x4EEA]
00005C36  0A32 1612 FE04           xori.b     [A2 + A7 * 8 + 0x4], 0x12
00005C3C  2114                     move.l     -[A0], [A4]
00005C3E  E230                     roxr       D0.b, D1
00005C40  F002 0216                pmove      MR0, D2
00005C44  1A16                     move.b     D5, [A6]
00005C46  2AB1 160A                move.l     [A5], [A1 + D1.w * 8 + 0xA]
00005C4A  30F0 0207                move.w     [A0]+, [A0 + D0.w * 2 + 0x7]
00005C4E  1612                     move.b     D3, [A2]
00005C50  1622                     move.b     D3, -[A2]
00005C52  161A                     move.b     D3, [A2]+
00005C54  162A 175A                move.b     D3, [A2 + 0x175A]
00005C58  1762 176A                move.b     [A3 + 0x176A], -[A2]
00005C5C  B116                     xor.b      [A6], D0
00005C5E  0A30 F002 0516 1216      xori.b     [[A0] + D0 * 4 + 0x1216], 0x2
00005C66  2216                     move.l     D1, [A6]
00005C68  1A16                     move.b     D5, [A6]
00005C6A  2A17                     move.l     D5, [A7]
00005C6C  7AB1                     moveq.l    D5, 0xFFFFFFB1
00005C6E  1A7A 30F0                movea.b    A5, [PC + 0x30F0 /* 00008D60 */]
00005C72  021C 1492                andi.b     [A4]+, 0x92
00005C76  149A                     move.b     [A2], [A2]+
00005C78  14A2                     move.b     [A2], -[A2]
00005C7A  14AA 14E2                move.b     [A2], [A2 + 0x14E2]
00005C7E  14DA                     move.b     [A2]+, [A2]+
00005C80  14D2                     move.b     [A2]+, [A2]
00005C82  14B2 14BA                move.b     [A2], [A2 + D1.w * 4 - 0x46]
00005C86  14C2                     move.b     [A2]+, D2
00005C88  14CA                     move.b     [A2]+, A2
00005C8A  1EBA 1EC2                move.b     [A7], [PC + 0x1EC2 /* 00007B4E */]
00005C8E  1ECA                     move.b     [A7]+, A2
00005C90  1F12                     move.b     -[A7], [A2]
00005C92  1F1A                     move.b     -[A7], [A2]+
00005C94  1F22                     move.b     -[A7], -[A2]
00005C96  1F2A 1F32                move.b     -[A7], [A2 + 0x1F32]
00005C9A  1F3A 1F4A                move.b     -[A7], [PC + 0x1F4A /* 00007BE6 */]
00005C9E  1EDA                     move.b     [A7]+, [A2]+
00005CA0  1EE2                     move.b     [A7]+, -[A2]
00005CA2  1EEA 1EF2                move.b     [A7]+, [A2 + 0x1EF2]
00005CA6  1EFA 1F0A                move.b     [A7]+, [PC + 0x1F0A /* 00007BB2 */]
00005CAA  1A72 B116 0A32           movea.b    A5, [[A2] + A3 + 0xA32]
00005CB0  1612                     move.b     D3, [A2]
00005CB2  FE7E 2114                .extension 0xE7E <<F/1/7>>, 0x2114 // unimplemented
00005CB6  E230                     roxr       D0.b, D1
00005CB8  F002 0216                pmove      MR0, D2
00005CBC  1A16                     move.b     D5, [A6]
00005CBE  2AB1 160A                move.l     [A5], [A1 + D1.w * 8 + 0xA]
00005CC2  30F0 0204                move.w     [A0]+, [A0 + D0.w * 2 + 0x4]
00005CC6  1612                     move.b     D3, [A2]
00005CC8  1622                     move.b     D3, -[A2]
00005CCA  161A                     move.b     D3, [A2]+
00005CCC  162A 81FF                move.b     D3, [A2 - 0x7E01]
00005CD0  8021                     or.b       D0, -[A1]
00005CD2  1A7A 30F0                movea.b    A5, [PC + 0x30F0 /* 00008DC4 */]
00005CD6  0204 1D1A                andi.b     D4, 0x1A
00005CDA  1D22                     move.b     -[A6], -[A2]
00005CDC  1D52 1D4A                move.b     [A6 + 0x1D4A], [A2]
00005CE0  321D                     move.w     D1, [A5]+
00005CE2  2AFF                     move.l     [A5]+, <<invalid special address>>
00005CE4  8021                     or.b       D0, -[A1]
00005CE6  1A72 30F0                movea.b    A5, [A2 + D3.w - 0x10]
00005CEA  0205 1CD2                andi.b     D5, 0xD2
00005CEE  1CDA                     move.b     [A6]+, [A2]+
00005CF0  1CC2                     move.b     [A6]+, D2
00005CF2  1C2A 1C62                move.b     D6, [A2 + 0x1C62]
00005CF6  321C                     move.w     D1, [A4]+
00005CF8  5AFF                     spl        <<invalid special address>>
00005CFA  8022                     or.b       D0, -[A2]
00005CFC  1ECA                     move.b     [A7]+, A2
00005CFE  FF80                     .invalid   <<F/6/7>>
00005D00  211F                     move.l     -[A0], [A7]+
00005D02  0A30 F002 0E1C           xori.b     [A0 + D0 * 8 + 0x1C], 0x2
00005D08  6A1C                     bpl        +0x1E /* 00005D26 */
00005D0A  721C                     moveq.l    D1, 0x1C
00005D0C  7A1C                     moveq.l    D5, 0x1C
00005D0E  321C                     move.w     D1, [A4]+
00005D10  9A1C                     sub.b      D5, [A4]+
00005D12  3A1C                     move.w     D5, [A4]+
00005D14  A21C                     syscall    FreeMem, flags=2
00005D16  421C                     clr.b      [A4]+
00005D18  AA1C                     syscall    SetCCursor
00005D1A  521C                     addq.b     [A4]+, 1
00005D1C  B21C                     cmp.b      D1, [A4]+
00005D1E  4A1C                     tst.b      [A4]+
00005D20  E21C                     ror        D4.b, 1
00005D22  EAB1                     roxr       D1, D5
00005D24  1A8A                     move.b     [A5], A2
label00005D26:
00005D26  30F0 022C                move.w     [A0]+, [A0 + D0.w * 2 + 0x2C]
00005D2A  1492                     move.b     [A2], [A2]
00005D2C  149A                     move.b     [A2], [A2]+
00005D2E  14A2                     move.b     [A2], -[A2]
00005D30  14AA 14E2                move.b     [A2], [A2 + 0x14E2]
00005D34  14DA                     move.b     [A2]+, [A2]+
00005D36  14D2                     move.b     [A2]+, [A2]
00005D38  14B2 14BA                move.b     [A2], [A2 + D1.w * 4 - 0x46]
00005D3C  1AA2                     move.b     [A5], -[A2]
00005D3E  14CA                     move.b     [A2]+, A2
00005D40  215A 1AAA                move.l     [A0 + 0x1AAA], [A2]+
00005D44  2172 21EA 21F2 21FA 2202 move.l     [A0 + 0x2202], [[0x21F2] + 0x21FA]
00005D4E  220A                     move.l     D1, A2
00005D50  2212                     move.l     D1, [A2]
00005D52  2182 218A 2192           move.l     [[ + <<invalid base displacement size>> + D2] + 0x2192], D2
00005D58  219A 21A2 21AA 217A      move.l     [[0x21AA + D2] + 0x217A], [A2]+
00005D60  2152 1A5A                move.l     [A0 + 0x1A5A], [A2]
00005D64  1A62                     movea.b    A5, -[A2]
00005D66  214A 1DDA                move.l     [A0 + 0x1DDA], A2
00005D6A  1A9A                     move.b     [A5], [A2]+
00005D6C  2222                     move.l     D1, -[A2]
00005D6E  216A 224A 1DE2           move.l     [A0 + 0x1DE2], [A2 + 0x224A]
00005D74  222A 2232                move.l     D1, [A2 + 0x2232]
00005D78  2242                     movea.l    A1, D2
00005D7A  21E2 1A4A                move.l     [0x00001A4A], -[A2]
00005D7E  1A52                     movea.b    A5, [A2]
00005D80  21DA B116                move.l     [0xFFFFB116], [A2]+
00005D84  0A32 1612 FDE2 2114 E230 xori.b     [[0x2114] - 0x1DD0], 0x12
00005D8E  F002 0216                pmove      MR0, D2
00005D92  1A16                     move.b     D5, [A6]
00005D94  2AB1 160A                move.l     [A5], [A1 + D1.w * 8 + 0xA]
00005D98  30F0 0204                move.w     [A0]+, [A0 + D0.w * 2 + 0x4]
00005D9C  1612                     move.b     D3, [A2]
00005D9E  1622                     move.b     D3, -[A2]
00005DA0  161A                     move.b     D3, [A2]+
00005DA2  162A 81FF                move.b     D3, [A2 - 0x7E01]
00005DA6  8021                     or.b       D0, -[A1]
00005DA8  1A8A                     move.b     [A5], A2
00005DAA  30F0 0204                move.w     [A0]+, [A0 + D0.w * 2 + 0x4]
00005DAE  1D1A                     move.b     -[A6], [A2]+
00005DB0  1D22                     move.b     -[A6], -[A2]
00005DB2  1D52 1D4A                move.b     [A6 + 0x1D4A], [A2]
00005DB6  321D                     move.w     D1, [A5]+
00005DB8  2AFF                     move.l     [A5]+, <<invalid special address>>
00005DBA  8020                     or.b       D0, -[A0]
00005DBC  F004 0221                pmove      MR0, D4
00005DC0  52FF                     shi        <<invalid special address>>
00005DC2  8022                     or.b       D0, -[A2]
00005DC4  4AFF                     tas.b      <<invalid special address>>
00005DC6  8021                     or.b       D0, -[A1]
00005DC8  216A 321C C2FF           move.l     [A0 - 0x3D01], [A2 + 0x321C]
00005DCE  8022                     or.b       D0, -[A2]
00005DD0  214A FF80                move.l     [A0 - 0x80], A2
00005DD4  211D                     move.l     -[A0], [A5]+
00005DD6  DA32 1C5A                add.b      D5, [A2 + D1 * 4 + 0x5A]
00005DDA  FF80                     .invalid   <<F/6/7>>
00005DDC  2221                     move.l     D1, -[A1]
00005DDE  72FF                     moveq.l    D1, 0xFFFFFFFF
00005DE0  8021                     or.b       D0, -[A1]
00005DE2  217A 30F0 0202           move.l     [A0 + 0x202], [PC + 0x30F0 /* 00008ED4 */]
00005DE8  1C6A 1C72                movea.b    A6, [A2 + 0x1C72]
00005DEC  321C                     move.w     D1, [A4]+
00005DEE  7AFF                     moveq.l    D5, 0xFFFFFFFF
00005DF0  8022                     or.b       D0, -[A2]
00005DF2  1A5A                     movea.b    A5, [A2]+
00005DF4  FF80                     .invalid   <<F/6/7>>
00005DF6  211A                     move.l     -[A0], [A2]+
00005DF8  6230                     bhi        +0x32 /* 00005E2A */
00005DFA  F002 061C                pmove      MR1, D2
00005DFE  3A1C                     move.w     D5, [A4]+
00005E00  A21C                     syscall    FreeMem, flags=2
00005E02  421C                     clr.b      [A4]+
00005E04  AA1C                     syscall    SetCCursor
00005E06  521C                     addq.b     [A4]+, 1
00005E08  B232 1C4A                cmp.b      D1, [A2 + D1 * 4 + 0x4A]
00005E0C  FF80                     .invalid   <<F/6/7>>
00005E0E  221A                     move.l     D1, [A2]+
00005E10  9AFF                     sub.w      A5, <<invalid special address>>
00005E12  8021                     or.b       D0, -[A1]
00005E14  2222                     move.l     D1, -[A2]
00005E16  B119                     xor.b      [A1]+, D0
00005E18  7A30                     moveq.l    D5, 0x30
00005E1A  F002 0E14                pmove      MR3, D2
00005E1E  9214                     sub.b      D1, [A4]
00005E20  9A14                     sub.b      D5, [A4]
00005E22  A214                     syscall    GetVol/PBHGetVol/HGetVol, flags=2
00005E24  AA14                     syscall    RGBForeColor
00005E26  E214                     roxr       D4.b, 1
00005E28  DA14                     add.b      D5, [A4]
label00005E2A:
00005E2A  D214                     add.b      D1, [A4]
00005E2C  B214                     cmp.b      D1, [A4]
00005E2E  BA14                     cmp.b      D5, [A4]
00005E30  C214                     and.b      D1, [A4]
00005E32  CA18                     and.b      D5, [A0]+
00005E34  EA19                     ror        D1.b, 5
00005E36  6219                     bhi        +0x1B /* 00005E51 */
00005E38  7281                     moveq.l    D1, 0xFFFFFF81
00005E3A  FF30                     .extension 0xF30 <<F/4-5/7>> // unimplemented
00005E3C  2119                     move.l     -[A0], [A1]+
00005E3E  7A30                     moveq.l    D5, 0x30
00005E40  F002 041D                pmove      D2, MR1
00005E44  1A1D                     move.b     D5, [A5]+
00005E46  221D                     move.l     D1, [A5]+
00005E48  521D                     addq.b     [A5]+, 1
00005E4A  4A32 1D2A FF30 2119      tst.b      [[A2 - 0xD0 + D1 * 4] + 0x2119]
00005E52  6230                     bhi        +0x32 /* 00005E84 */
00005E54  F002 071C                pmovefd    MR1, D2
00005E58  1A1C                     move.b     D5, [A4]+
00005E5A  221C                     move.l     D1, [A4]+
00005E5C  C21C                     and.b      D1, [A4]+
00005E5E  2A1C                     move.l     D5, [A4]+
00005E60  621C                     bhi        +0x1E /* 00005E7E */
00005E62  5A1C                     addq.b     [A4]+, 5
00005E64  BA32 1C92                cmp.b      D5, [A2 + D1 * 4 - 0x6E]
00005E68  FF30                     .extension 0xF30 <<F/4-5/7>> // unimplemented
00005E6A  2119                     move.l     -[A0], [A1]+
00005E6C  7230                     moveq.l    D1, 0x30
00005E6E  F002 0B1C                pmovefd    MR2, D2
00005E72  721C                     moveq.l    D1, 0x1C
00005E74  7A1C                     moveq.l    D5, 0x1C
00005E76  321C                     move.w     D1, [A4]+
00005E78  9A1C                     sub.b      D5, [A4]+
00005E7A  3A1C                     move.w     D5, [A4]+
00005E7C  A21C                     syscall    FreeMem, flags=2
label00005E7E:
00005E7E  421C                     clr.b      [A4]+
00005E80  AA1C                     syscall    SetCCursor
00005E82  521C                     addq.b     [A4]+, 1
label00005E84:
00005E84  B21C                     cmp.b      D1, [A4]+
00005E86  4AB1 160A                tst.l      [A1 + D1.w * 8 + 0xA]
00005E8A  30F0 0203                move.w     [A0]+, [A0 + D0.w * 2 + 0x3]
00005E8E  1612                     move.b     D3, [A2]
00005E90  1622                     move.b     D3, -[A2]
00005E92  161A                     move.b     D3, [A2]+
00005E94  3216                     move.w     D1, [A6]
00005E96  2AFF                     move.l     [A5]+, <<invalid special address>>
00005E98  7A21                     moveq.l    D5, 0x21
00005E9A  197A B116 0A32           move.b     [A4 + 0xA32], [PC - 0x4EEA /* 00000FB2, value 0x69 'i' */]
00005EA0  1612                     move.b     D3, [A2]
00005EA2  FE9C 2114                .extension 0xE9C <<F/2-3/7>> // unimplemented
00005EA6  E230                     roxr       D0.b, D1
00005EA8  F002 0216                pmove      MR0, D2
00005EAC  1A16                     move.b     D5, [A6]
00005EAE  2AB1 160A                move.l     [A5], [A1 + D1.w * 8 + 0xA]
00005EB2  30F0 0204                move.w     [A0]+, [A0 + D0.w * 2 + 0x4]
00005EB6  1612                     move.b     D3, [A2]
00005EB8  1622                     move.b     D3, -[A2]
00005EBA  161A                     move.b     D3, [A2]+
00005EBC  162A B116                move.b     D3, [A2 - 0x4EEA]
00005EC0  0A30 F002 0716 1216      xori.b     [[A0] + D0 * 8 + 0x1216], 0x2
00005EC8  2216                     move.l     D1, [A6]
00005ECA  1A16                     move.b     D5, [A6]
00005ECC  2A18                     move.l     D5, [A0]+
00005ECE  1218                     move.b     D1, [A0]+
00005ED0  2A18                     move.l     D5, [A0]+
00005ED2  22B1 160A                move.l     [A1], [A1 + D1.w * 8 + 0xA]
00005ED6  30F0 0207                move.w     [A0]+, [A0 + D0.w * 2 + 0x7]
00005EDA  1612                     move.b     D3, [A2]
00005EDC  1622                     move.b     D3, -[A2]
00005EDE  161A                     move.b     D3, [A2]+
00005EE0  162A 183A                move.b     D3, [A2 + 0x183A]
00005EE4  184A                     movea.b    A4, A2
00005EE6  1842                     movea.b    A4, D2
00005EE8  B110                     xor.b      [A0], D0
00005EEA  B230 F002                cmp.b      D1, [A0 + A7.w + 0x2]
00005EEE  3C14                     move.w     D6, [A4]
00005EF0  9214                     sub.b      D1, [A4]
00005EF2  9A14                     sub.b      D5, [A4]
00005EF4  A214                     syscall    GetVol/PBHGetVol/HGetVol, flags=2
00005EF6  AA14                     syscall    RGBForeColor
00005EF8  E214                     roxr       D4.b, 1
00005EFA  DA14                     add.b      D5, [A4]
00005EFC  D214                     add.b      D1, [A4]
00005EFE  B214                     cmp.b      D1, [A4]
00005F00  BA11                     cmp.b      D5, [A1]
00005F02  8A14                     or.b       D5, [A4]
00005F04  CA10                     and.b      D5, [A0]
00005F06  BA12                     cmp.b      D5, [A2]
00005F08  AA10                     syscall    FillCRoundRect
00005F0A  C210                     and.b      D1, [A0]
00005F0C  CA10                     and.b      D5, [A0]
00005F0E  D210                     add.b      D1, [A0]
00005F10  DA10                     add.b      D5, [A0]
00005F12  E210                     roxr       D0.b, 1
00005F14  EA10                     roxr       D0.b, 5
00005F16  F210 FA11                .cpgen     0xF210, 0xFA11 // unimplemented
00005F1A  0212 A212                andi.b     [A2], 0x12
00005F1E  5211                     addq.b     [A1], 1
00005F20  0A11 1211                xori.b     [A1], 0x11
00005F24  1A12                     move.b     D5, [A2]
00005F26  8A12                     or.b       D5, [A2]
00005F28  9212                     sub.b      D1, [A2]
00005F2A  9A11                     sub.b      D5, [A1]
00005F2C  2211                     move.l     D1, [A1]
00005F2E  2A11                     move.l     D5, [A1]
00005F30  3211                     move.w     D1, [A1]
00005F32  3A11                     move.w     D5, [A1]
00005F34  4211                     clr.b      [A1]
00005F36  CA11                     and.b      D5, [A1]
00005F38  DA11                     add.b      D5, [A1]
00005F3A  D212                     add.b      D1, [A2]
00005F3C  2212                     move.l     D1, [A2]
00005F3E  2A12                     move.l     D5, [A2]
00005F40  3212                     move.w     D1, [A2]
00005F42  3A12                     move.w     D5, [A2]
00005F44  4212                     clr.b      [A2]
00005F46  4A11                     tst.b      [A1]
00005F48  4A11                     tst.b      [A1]
00005F4A  5211                     addq.b     [A1], 1
00005F4C  5A11                     addq.b     [A1], 5
00005F4E  6211                     bhi        +0x13 /* 00005F61 */
00005F50  6A11                     bpl        +0x13 /* 00005F63 */
00005F52  7211                     moveq.l    D1, 0x11
00005F54  7A11                     moveq.l    D5, 0x11
00005F56  8212                     or.b       D1, [A2]
00005F58  5A11                     addq.b     [A1], 5
00005F5A  9211                     sub.b      D1, [A1]
00005F5C  9A11                     sub.b      D5, [A1]
00005F5E  A211                     syscall    GetEOF, flags=2
00005F60  AA11                     syscall    FillCArc
00005F62  B211                     cmp.b      D1, [A1]
00005F64  BA11                     cmp.b      D5, [A1]
00005F66  C2B1 160A                and.l      D1, [A1 + D1.w * 8 + 0xA]
00005F6A  30F0 0204                move.w     [A0]+, [A0 + D0.w * 2 + 0x4]
00005F6E  1612                     move.b     D3, [A2]
00005F70  1622                     move.b     D3, -[A2]
00005F72  161A                     move.b     D3, [A2]+
00005F74  162A B116                move.b     D3, [A2 - 0x4EEA]
00005F78  0A32 1612 FE94           xori.b     [A2 + A7 * 8 - 0x6C], 0x12
00005F7E  2114                     move.l     -[A0], [A4]
00005F80  E230                     roxr       D0.b, D1
00005F82  F002 0216                pmove      MR0, D2
00005F86  1A16                     move.b     D5, [A6]
00005F88  2A40                     movea.l    A5, D0
00005F8A  2120                     move.l     -[A0], -[A0]
00005F8C  4865                     pea.l      -[A5]
00005F8E  6C6C                     bge        +0x6E /* 00005FFC */
00005F90  6F20                     ble        +0x22 /* 00005FB2 */
00005F92  506F 6C69                addq.w     [A7 + 0x6C69], 8
00005F96  7469                     moveq.l    D2, 0x69
00005F98  6361                     bls        +0x63 /* 00005FFB */
00005F9A  6C6C                     bge        +0x6E /* 00006008 */
00005F9C  7920                     moveq.l    D4, 0x20
00005F9E  436F 7272                chk.w      D1, [A7 + 0x7272]
00005FA2  6563                     bcs        +0x65 /* 00006007 */
00005FA4  7420                     moveq.l    D2, 0x20
00005FA6  576F 726C                subq.w     [A7 + 0x726C], 3
00005FAA  6421                     bcc        +0x23 /* 00005FCD */
00005FAC  010F                     btst       A7, D0
00005FAE  198A 30F0                move.b     [A4 + D3.w - 0x10], A2
label00005FB2:
00005FB2  020D 1492                andi.b     A5, 0x92
00005FB6  149A                     move.b     [A2], [A2]+
00005FB8  14A2                     move.b     [A2], -[A2]
00005FBA  14AA 14E2                move.b     [A2], [A2 + 0x14E2]
00005FBE  14DA                     move.b     [A2]+, [A2]+
00005FC0  14D2                     move.b     [A2]+, [A2]
00005FC2  14B2 14BA                move.b     [A2], [A2 + D1.w * 4 - 0x46]
00005FC6  14C2                     move.b     [A2]+, D2
00005FC8  14CA                     move.b     [A2]+, A2
00005FCA  18EA 1992                move.b     [A4]+, [A2 + 0x1992]
00005FCE  81FF                     divs.w     D0, <<invalid special address>>
00005FD0  7A21                     moveq.l    D5, 0x21
00005FD2  198A 30F0                move.b     [A4 + D3.w - 0x10], A2
00005FD6  0204 1D1A                andi.b     D4, 0x1A
00005FDA  1D22                     move.b     -[A6], -[A2]
00005FDC  1D52 1D4A                move.b     [A6 + 0x1D4A], [A2]
00005FE0  321D                     move.w     D1, [A5]+
00005FE2  2AFF                     move.l     [A5]+, <<invalid special address>>
00005FE4  7A21                     moveq.l    D5, 0x21
00005FE6  1992 30F0                move.b     [A4 + D3.w - 0x10], [A2]
00005FEA  0214 1C1A                andi.b     [A4], 0x1A
00005FEE  1C22                     move.b     D6, -[A2]
00005FF0  1CC2                     move.b     [A6]+, D2
00005FF2  1C2A 1C62                move.b     D6, [A2 + 0x1C62]
00005FF6  1C5A                     movea.b    A6, [A2]+
00005FF8  1CBA 1C92                move.b     [A6], [PC + 0x1C92 /* 00007C8C */]
label00005FFC:
00005FFC  1C6A 1C72                movea.b    A6, [A2 + 0x1C72]
00006000  1C7A 1C32                movea.b    A6, [PC + 0x1C32 /* 00007C34 */]
00006004  1C9A                     move.b     [A6], [A2]+
00006006  1C3A 1CA2                move.b     D6, [PC + 0x1CA2 /* 00007CAA */]
// begin alternate branch 00006008-0000600A
label00006008:
00006008  1CA2                     move.b     [A6], -[A2]
// end alternate branch 00006008-0000600A
label00006008: // (misaligned)
0000600A  1C42                     movea.b    A6, D2
0000600C  1CAA 1C52                move.b     [A6], [A2 + 0x1C52]
00006010  1CB2 1C4A                move.b     [A6], [A2 + D1 * 4 + 0x4A]
00006014  B116                     xor.b      [A6], D0
00006016  0A32 1612 FEE6           xori.b     [A2 + A7 * 8 - 0x1A], 0x12
0000601C  2114                     move.l     -[A0], [A4]
0000601E  E230                     roxr       D0.b, D1
00006020  F002 0216                pmove      MR0, D2
00006024  1A16                     move.b     D5, [A6]
00006026  2AB1 160A                move.l     [A5], [A1 + D1.w * 8 + 0xA]
0000602A  30F0 0204                move.w     [A0]+, [A0 + D0.w * 2 + 0x4]
0000602E  1612                     move.b     D3, [A2]
00006030  1622                     move.b     D3, -[A2]
00006032  161A                     move.b     D3, [A2]+
00006034  162A B112                move.b     D3, [A2 - 0x4EEE]
00006038  BA30 F002                cmp.b      D5, [A0 + A7.w + 0x2]
0000603C  3F14                     move.w     -[A7], [A4]
0000603E  9214                     sub.b      D1, [A4]
00006040  9A14                     sub.b      D5, [A4]
00006042  A214                     syscall    GetVol/PBHGetVol/HGetVol, flags=2
00006044  AA14                     syscall    RGBForeColor
00006046  E214                     roxr       D4.b, 1
00006048  DA14                     add.b      D5, [A4]
0000604A  D214                     add.b      D1, [A4]
0000604C  B214                     cmp.b      D1, [A4]
0000604E  BA12                     cmp.b      D5, [A2]
00006050  E214                     roxr       D4.b, 1
00006052  CA10                     and.b      D5, [A0]
00006054  BA12                     cmp.b      D5, [A2]
00006056  AA13                     syscall    FillCPoly
00006058  0A10 CA10                xori.b     [A0], 0x10
0000605C  D210                     add.b      D1, [A0]
0000605E  DA10                     add.b      D5, [A0]
00006060  E212                     roxr       D2.b, 1
00006062  EA10                     roxr       D0.b, 5
00006064  F210 FA13                .cpgen     0xF210, 0xFA13 // unimplemented
00006068  0212 A212                andi.b     [A2], 0x12
0000606C  5211                     addq.b     [A1], 1
0000606E  0A11 1211                xori.b     [A1], 0x11
00006072  1A12                     move.b     D5, [A2]
00006074  8A12                     or.b       D5, [A2]
00006076  9212                     sub.b      D1, [A2]
00006078  9A11                     sub.b      D5, [A1]
0000607A  2211                     move.l     D1, [A1]
0000607C  2A11                     move.l     D5, [A1]
0000607E  3211                     move.w     D1, [A1]
00006080  3A11                     move.w     D5, [A1]
00006082  4211                     clr.b      [A1]
00006084  CA11                     and.b      D5, [A1]
00006086  DA11                     add.b      D5, [A1]
00006088  D212                     add.b      D1, [A2]
0000608A  2212                     move.l     D1, [A2]
0000608C  2A12                     move.l     D5, [A2]
0000608E  3212                     move.w     D1, [A2]
00006090  3A12                     move.w     D5, [A2]
00006092  4212                     clr.b      [A2]
00006094  4A11                     tst.b      [A1]
00006096  4A11                     tst.b      [A1]
00006098  5211                     addq.b     [A1], 1
0000609A  5A11                     addq.b     [A1], 5
0000609C  6211                     bhi        +0x13 /* 000060AF */
0000609E  6A11                     bpl        +0x13 /* 000060B1 */
000060A0  7211                     moveq.l    D1, 0x11
000060A2  7A11                     moveq.l    D5, 0x11
000060A4  8212                     or.b       D1, [A2]
000060A6  5A12                     addq.b     [A2], 5
000060A8  C211                     and.b      D1, [A1]
000060AA  9A11                     sub.b      D5, [A1]
000060AC  A211                     syscall    GetEOF, flags=2
000060AE  AA11                     syscall    FillCArc
000060B0  B211                     cmp.b      D1, [A1]
000060B2  BA11                     cmp.b      D5, [A1]
000060B4  C212                     and.b      D1, [A2]
000060B6  DA12                     add.b      D5, [A2]
000060B8  CA12                     and.b      D5, [A2]
000060BA  D2B1 160A                add.l      D1, [A1 + D1.w * 8 + 0xA]
000060BE  30F0 0204                move.w     [A0]+, [A0 + D0.w * 2 + 0x4]
000060C2  1612                     move.b     D3, [A2]
000060C4  1622                     move.b     D3, -[A2]
000060C6  161A                     move.b     D3, [A2]+
000060C8  162A B116                move.b     D3, [A2 - 0x4EEA]
000060CC  0A32 1612 FE80           xori.b     [A2 + A7 * 8 - 0x80], 0x12
000060D2  2114                     move.l     -[A0], [A4]
000060D4  E230                     roxr       D0.b, D1
000060D6  F002 0216                pmove      MR0, D2
000060DA  1A16                     move.b     D5, [A6]
000060DC  2AB1 1ABA                move.l     [A5], [A1 + D1 * 2 - 0x46]
000060E0  30F0 0231                move.w     [A0]+, [A0 + D0.w * 2 + 0x31]
000060E4  1492                     move.b     [A2], [A2]
000060E6  149A                     move.b     [A2], [A2]+
000060E8  14A2                     move.b     [A2], -[A2]
000060EA  14AA 14E2                move.b     [A2], [A2 + 0x14E2]
000060EE  14DA                     move.b     [A2]+, [A2]+
000060F0  14D2                     move.b     [A2]+, [A2]
000060F2  14B2 14BA                move.b     [A2], [A2 + D1.w * 4 - 0x46]
000060F6  21C2 14CA                move.l     [0x000014CA], D2
000060FA  215A 2162                move.l     [A0 + 0x2162], [A2]+
000060FE  2172 21EA 21F2 21FA 2202 move.l     [A0 + 0x2202], [[0x21F2] + 0x21FA]
00006108  220A                     move.l     D1, A2
0000610A  2212                     move.l     D1, [A2]
0000610C  2182 218A 2192           move.l     [[ + <<invalid base displacement size>> + D2] + 0x2192], D2
00006112  219A 21A2 21AA 217A      move.l     [[0x21AA + D2] + 0x217A], [A2]+
0000611A  2152 1FC2                move.l     [A0 + 0x1FC2], [A2]
0000611E  1FCA                     move.b     <<invalid special address>>, A2
00006120  214A 1DDA                move.l     [A0 + 0x1DDA], A2
00006124  221A                     move.l     D1, [A2]+
00006126  2222                     move.l     D1, -[A2]
00006128  1AC2                     move.b     [A5]+, D2
0000612A  224A                     movea.l    A1, A2
0000612C  1DE2                     move.b     <<invalid special address>>, -[A2]
0000612E  222A 2232                move.l     D1, [A2 + 0x2232]
00006132  2242                     movea.l    A1, D2
00006134  21E2 21CA                move.l     [0x000021CA], -[A2]
00006138  21D2 1AF2                move.l     [0x00001AF2], [A2]
0000613C  1AD2                     move.b     [A5]+, [A2]
0000613E  1ADA                     move.b     [A5]+, [A2]+
00006140  1ACA                     move.b     [A5]+, A2
00006142  0112                     btst       [A2], D0
00006144  1AEA B116                move.b     [A5]+, [A2 - 0x4EEA]
00006148  0A32 1612 FDDC           xori.b     <<invalid full ext with I/IS == 4>>, 0x12
0000614E  2114                     move.l     -[A0], [A4]
00006150  E230                     roxr       D0.b, D1
00006152  F002 0216                pmove      MR0, D2
00006156  1A16                     move.b     D5, [A6]
00006158  2AB1 160A                move.l     [A5], [A1 + D1.w * 8 + 0xA]
0000615C  30F0 0204                move.w     [A0]+, [A0 + D0.w * 2 + 0x4]
00006160  1612                     move.b     D3, [A2]
00006162  1622                     move.b     D3, -[A2]
00006164  161A                     move.b     D3, [A2]+
00006166  162A 81FF                move.b     D3, [A2 - 0x7E01]
0000616A  8021                     or.b       D0, -[A1]
0000616C  1ABA 30F0                move.b     [A5], [PC + 0x30F0 /* 0000925E */]
00006170  0204 1D1A                andi.b     D4, 0x1A
00006174  1D22                     move.b     -[A6], -[A2]
00006176  1D52 1D4A                move.b     [A6 + 0x1D4A], [A2]
0000617A  321D                     move.w     D1, [A5]+
0000617C  2AFF                     move.l     [A5]+, <<invalid special address>>
0000617E  8020                     or.b       D0, -[A0]
00006180  F004 0221                pmove      MR0, D4
00006184  52FF                     shi        <<invalid special address>>
00006186  8022                     or.b       D0, -[A2]
00006188  4AFF                     tas.b      <<invalid special address>>
0000618A  8021                     or.b       D0, -[A1]
0000618C  1AC2                     move.b     [A5]+, D2
0000618E  321C                     move.w     D1, [A4]+
00006190  C2FF                     mulu.w     D1, <<invalid special address>>
00006192  8022                     or.b       D0, -[A2]
00006194  214A FF80                move.l     [A0 - 0x80], A2
00006198  211D                     move.l     -[A0], [A5]+
0000619A  DA32 1C5A                add.b      D5, [A2 + D1 * 4 + 0x5A]
0000619E  FF80                     .invalid   <<F/6/7>>
000061A0  2221                     move.l     D1, -[A1]
000061A2  72FF                     moveq.l    D1, 0xFFFFFFFF
000061A4  8021                     or.b       D0, -[A1]
000061A6  217A 30F0 0202           move.l     [A0 + 0x202], [PC + 0x30F0 /* 00009298 */]
000061AC  1C6A 1C72                movea.b    A6, [A2 + 0x1C72]
000061B0  321C                     move.w     D1, [A4]+
000061B2  7AFF                     moveq.l    D5, 0xFFFFFFFF
000061B4  8022                     or.b       D0, -[A2]
000061B6  1FC2                     move.b     <<invalid special address>>, D2
000061B8  FF80                     .invalid   <<F/6/7>>
000061BA  211F                     move.l     -[A0], [A7]+
000061BC  CA30 F002                and.b      D5, [A0 + A7.w + 0x2]
000061C0  061C 3A1C                addi.b     [A4]+, 0x1C
000061C4  A21C                     syscall    FreeMem, flags=2
000061C6  421C                     clr.b      [A4]+
000061C8  AA1C                     syscall    SetCCursor
000061CA  521C                     addq.b     [A4]+, 1
000061CC  B232 1C4A                cmp.b      D1, [A2 + D1 * 4 + 0x4A]
000061D0  FF80                     .invalid   <<F/6/7>>
000061D2  2222                     move.l     D1, -[A2]
000061D4  1AFF                     move.b     [A5]+, <<invalid special address>>
000061D6  8021                     or.b       D0, -[A1]
000061D8  2222                     move.l     D1, -[A2]
000061DA  B101                     xor.b      D1, D0
000061DC  5230 F002                addq.b     [A0 + A7.w + 0x2], 1
000061E0  1F14                     move.b     -[A7], [A4]
000061E2  9214                     sub.b      D1, [A4]
000061E4  9A14                     sub.b      D5, [A4]
000061E6  A214                     syscall    GetVol/PBHGetVol/HGetVol, flags=2
000061E8  AA14                     syscall    RGBForeColor
000061EA  E214                     roxr       D4.b, 1
000061EC  DA14                     add.b      D5, [A4]
000061EE  D214                     add.b      D1, [A4]
000061F0  B214                     cmp.b      D1, [A4]
000061F2  BA14                     cmp.b      D5, [A4]
000061F4  C214                     and.b      D1, [A4]
000061F6  CA01                     and.b      D5, D1
000061F8  621E                     bhi        +0x20 /* 00006218 */
000061FA  C21E                     and.b      D1, [A6]+
000061FC  CA1F                     and.b      D5, [A7]+
000061FE  121F                     move.b     D1, [A7]+
00006200  1A1F                     move.b     D5, [A7]+
00006202  221F                     move.l     D1, [A7]+
00006204  2A1F                     move.l     D5, [A7]+
00006206  321F                     move.w     D1, [A7]+
00006208  3A1F                     move.w     D5, [A7]+
0000620A  4A1E                     tst.b      [A6]+
0000620C  DA1E                     add.b      D5, [A6]+
0000620E  E21E                     ror        D6.b, 1
00006210  EA1E                     ror        D6.b, 5
00006212  F21E FA1F                .cpgen     0xF21E, 0xFA1F // unimplemented
00006216  0A01 5A20                xori.b     D1, 0x20 /* ' ' */
// begin alternate branch 00006218-0000621A
label00006218:
00006218  5A20                     addq.b     -[A0], 5
// end alternate branch 00006218-0000621A
label00006218: // (misaligned)
0000621A  1220                     move.b     D1, -[A0]
0000621C  0220 0AB1                andi.b     -[A0], 0xB1
00006220  160A                     move.b     D3, A2
00006222  30F0 0205                move.w     [A0]+, [A0 + D0.w * 2 + 0x5]
00006226  1612                     move.b     D3, [A2]
00006228  1622                     move.b     D3, -[A2]
0000622A  161A                     move.b     D3, [A2]+
0000622C  162A 0182                move.b     D3, [A2 + 0x182]
00006230  81FF                     divs.w     D0, <<invalid special address>>
00006232  8021                     or.b       D0, -[A1]
00006234  0152                     bchg       [A2], D0
00006236  30F0 0204                move.w     [A0]+, [A0 + D0.w * 2 + 0x4]
0000623A  1D1A                     move.b     -[A6], [A2]+
0000623C  1D22                     move.b     -[A6], -[A2]
0000623E  1D52 1D4A                move.b     [A6 + 0x1D4A], [A2]
00006242  321D                     move.w     D1, [A5]+
00006244  2AFF                     move.l     [A5]+, <<invalid special address>>
00006246  8020                     or.b       D0, -[A0]
00006248  F004 0201                pmove      MR0, D4
0000624C  5AFF                     spl        <<invalid special address>>
0000624E  8020                     or.b       D0, -[A0]
00006250  02FF                     .incomplete
00006252  8021                     or.b       D0, -[A1]
00006254  200A                     move.l     D0, A2
00006256  321C                     move.w     D1, [A4]+
00006258  C2FF                     mulu.w     D1, <<invalid special address>>
0000625A  8021                     or.b       D0, -[A1]
0000625C  2012                     move.l     D0, [A2]
0000625E  311C                     move.w     -[A0], [A4]+
00006260  6232                     bhi        +0x34 /* 00006294 */
00006262  1C5A                     movea.b    A6, [A2]+
00006264  FF80                     .invalid   <<F/6/7>>
00006266  221E                     move.l     D1, [A6]+
00006268  CAFF                     mulu.w     D5, <<invalid special address>>
0000626A  8021                     or.b       D0, -[A1]
0000626C  1F0A                     move.b     -[A7], A2
0000626E  30F0 020E                move.w     [A0]+, [A0 + D0.w * 2 + 0xE]
00006272  1C6A 1C72                movea.b    A6, [A2 + 0x1C72]
00006276  1C7A 1C32                movea.b    A6, [PC + 0x1C32 /* 00007EAA */]
0000627A  1C9A                     move.b     [A6], [A2]+
0000627C  1C3A 1CA2                move.b     D6, [PC + 0x1CA2 /* 00007F20 */]
00006280  1C42                     movea.b    A6, D2
00006282  1CAA 1C52                move.b     [A6], [A2 + 0x1C52]
00006286  1CB2 1C4A                move.b     [A6], [A2 + D1 * 4 + 0x4A]
0000628A  1CE2                     move.b     [A6]+, -[A2]
0000628C  1CEA B116                move.b     [A6]+, [A2 - 0x4EEA]
00006290  0A30 F002 0416           xori.b     [A0 + D0.w * 4 + 0x16], 0x2
// begin alternate branch 00006294-00006298
label00006294:
00006294  0416 1216                subi.b     [A6], 0x16
// end alternate branch 00006294-00006298
label00006294: // (misaligned)
00006296  1216                     move.b     D1, [A6]
00006298  2216                     move.l     D1, [A6]
0000629A  1A16                     move.b     D5, [A6]
0000629C  2AB1 160A                move.l     [A5], [A1 + D1.w * 8 + 0xA]
000062A0  3216                     move.w     D1, [A6]
000062A2  12FD                     move.b     [A1]+, <<invalid special address>>
000062A4  5821                     addq.b     -[A1], 4
000062A6  14E2                     move.b     [A2]+, -[A2]
000062A8  30F0 0202                move.w     [A0]+, [A0 + D0.w * 2 + 0x2]
000062AC  161A                     move.b     D3, [A2]+
000062AE  162A B120                move.b     D3, [A2 - 0x4EE0]
000062B2  8230 F002                or.b       D1, [A0 + A7.w + 0x2]
000062B6  1F14                     move.b     -[A7], [A4]
000062B8  9214                     sub.b      D1, [A4]
000062BA  9A14                     sub.b      D5, [A4]
000062BC  A214                     syscall    GetVol/PBHGetVol/HGetVol, flags=2
000062BE  AA14                     syscall    RGBForeColor
000062C0  E214                     roxr       D4.b, 1
000062C2  DA14                     add.b      D5, [A4]
000062C4  D214                     add.b      D1, [A4]
000062C6  B214                     cmp.b      D1, [A4]
000062C8  BA14                     cmp.b      D5, [A4]
000062CA  C214                     and.b      D1, [A4]
000062CC  CA1E                     and.b      D5, [A6]+
000062CE  BA1E                     cmp.b      D5, [A6]+
000062D0  C21E                     and.b      D1, [A6]+
000062D2  CA1F                     and.b      D5, [A7]+
000062D4  121F                     move.b     D1, [A7]+
000062D6  1A1F                     move.b     D5, [A7]+
000062D8  221F                     move.l     D1, [A7]+
000062DA  2A1F                     move.l     D5, [A7]+
000062DC  321F                     move.w     D1, [A7]+
000062DE  3A1F                     move.w     D5, [A7]+
000062E0  4A1E                     tst.b      [A6]+
000062E2  DA1E                     add.b      D5, [A6]+
000062E4  E21E                     ror        D6.b, 1
000062E6  EA1E                     ror        D6.b, 5
000062E8  F21E FA1F                .cpgen     0xF21E, 0xFA1F // unimplemented
000062EC  0A20 7A1F                xori.b     -[A0], 0x1F
000062F0  C21F                     and.b      D1, [A7]+
000062F2  CA1F                     and.b      D5, [A7]+
000062F4  D2B1 160A                add.l      D1, [A1 + D1.w * 8 + 0xA]
000062F8  30F0 0203                move.w     [A0]+, [A0 + D0.w * 2 + 0x3]
000062FC  1612                     move.b     D3, [A2]
000062FE  1622                     move.b     D3, -[A2]
00006300  161A                     move.b     D3, [A2]+
00006302  3216                     move.w     D1, [A6]
00006304  2AFE                     move.l     [A5]+, <<invalid special address>>
00006306  3C21                     move.w     D6, -[A1]
00006308  2082                     move.l     [A0], D2
0000630A  81FF                     divs.w     D0, <<invalid special address>>
0000630C  8021                     or.b       D0, -[A1]
0000630E  2082                     move.l     [A0], D2
00006310  30F0 0204                move.w     [A0]+, [A0 + D0.w * 2 + 0x4]
00006314  1D1A                     move.b     -[A6], [A2]+
00006316  1D22                     move.b     -[A6], -[A2]
00006318  1D52 1D4A                move.b     [A6 + 0x1D4A], [A2]
0000631C  321D                     move.w     D1, [A5]+
0000631E  2AFF                     move.l     [A5]+, <<invalid special address>>
00006320  8021                     or.b       D0, -[A1]
00006322  207A 30F0                movea.l    A0, [PC + 0x30F0 /* 00009414 */]
00006326  0202 1CD2                andi.b     D2, 0xD2
0000632A  1CDA                     move.b     [A6]+, [A2]+
0000632C  321C                     move.w     D1, [A4]+
0000632E  C2FF                     mulu.w     D1, <<invalid special address>>
00006330  8021                     or.b       D0, -[A1]
00006332  1FD2                     move.b     <<invalid special address>>, [A2]
00006334  311C                     move.w     -[A0], [A4]+
00006336  6232                     bhi        +0x34 /* 0000636A */
00006338  1C5A                     movea.b    A6, [A2]+
0000633A  FF80                     .invalid   <<F/6/7>>
0000633C  221E                     move.l     D1, [A6]+
0000633E  CAFF                     mulu.w     D5, <<invalid special address>>
00006340  8021                     or.b       D0, -[A1]
00006342  1F0A                     move.b     -[A7], A2
00006344  30F0 0202                move.w     [A0]+, [A0 + D0.w * 2 + 0x2]
00006348  1C6A 1C72                movea.b    A6, [A2 + 0x1C72]
0000634C  321C                     move.w     D1, [A4]+
0000634E  7AFF                     moveq.l    D5, 0xFFFFFFFF
00006350  8022                     or.b       D0, -[A2]
00006352  1FC2                     move.b     <<invalid special address>>, D2
00006354  FF80                     .invalid   <<F/6/7>>
00006356  211F                     move.l     -[A0], [A7]+
00006358  CA30 F002                and.b      D5, [A0 + A7.w + 0x2]
0000635C  091C                     btst       [A4]+, D4
0000635E  3A1C                     move.w     D5, [A4]+
00006360  A21C                     syscall    FreeMem, flags=2
00006362  421C                     clr.b      [A4]+
00006364  AA1C                     syscall    SetCCursor
00006366  521C                     addq.b     [A4]+, 1
00006368  B21C                     cmp.b      D1, [A4]+
label0000636A:
0000636A  4A1C                     tst.b      [A4]+
0000636C  E21C                     ror        D4.b, 1
0000636E  EAB1                     roxr       D1, D5
00006370  160A                     move.b     D3, A2
00006372  30F0 0204                move.w     [A0]+, [A0 + D0.w * 2 + 0x4]
00006376  1612                     move.b     D3, [A2]
00006378  1622                     move.b     D3, -[A2]
0000637A  161A                     move.b     D3, [A2]+
0000637C  162A B116                move.b     D3, [A2 - 0x4EEA]
00006380  0A32 1612 FDEA 2114 E230 xori.b     [[0x2114] - 0x1DD0], 0x12
0000638A  F002 0216                pmove      MR0, D2
0000638E  1A16                     move.b     D5, [A6]
00006390  2AB1 19AA 30F0 020D      move.l     [A5], [[0x30F0 + D1] + 0x20D]
00006398  1492                     move.b     [A2], [A2]
0000639A  149A                     move.b     [A2], [A2]+
0000639C  14A2                     move.b     [A2], -[A2]
0000639E  14AA 14E2                move.b     [A2], [A2 + 0x14E2]
000063A2  14DA                     move.b     [A2]+, [A2]+
000063A4  14D2                     move.b     [A2]+, [A2]
000063A6  14B2 14BA                move.b     [A2], [A2 + D1.w * 4 - 0x46]
000063AA  14C2                     move.b     [A2]+, D2
000063AC  14CA                     move.b     [A2]+, A2
000063AE  18EA 19B2                move.b     [A4]+, [A2 + 0x19B2]
000063B2  B116                     xor.b      [A6], D0
000063B4  0A30 F002 0516 1216      xori.b     [[A0] + D0 * 4 + 0x1216], 0x2
000063BC  2216                     move.l     D1, [A6]
000063BE  1A16                     move.b     D5, [A6]
000063C0  2A01                     move.l     D5, D1
000063C2  8281                     or.l       D1, D1
000063C4  FF7A                     .extension 0xF7A <<F/4-5/7>> // unimplemented
000063C6  2119                     move.l     -[A0], [A1]+
000063C8  AA30                     syscall    DisposeGDevice/DisposGDevice
000063CA  F002 041D                pmove      D2, MR1
000063CE  1A1D                     move.b     D5, [A5]+
000063D0  221D                     move.l     D1, [A5]+
000063D2  521D                     addq.b     [A5]+, 1
000063D4  4A32 1D2A FF7A 2119      tst.b      [[A2 - 0x86 + D1 * 4] + 0x2119]
000063DC  B230 F002                cmp.b      D1, [A0 + A7.w + 0x2]
000063E0  141C                     move.b     D2, [A4]+
000063E2  1A1C                     move.b     D5, [A4]+
000063E4  221C                     move.l     D1, [A4]+
000063E6  C21C                     and.b      D1, [A4]+
000063E8  2A1C                     move.l     D5, [A4]+
000063EA  621C                     bhi        +0x1E /* 00006408 */
000063EC  5A1C                     addq.b     [A4]+, 5
000063EE  BA1C                     cmp.b      D5, [A4]+
000063F0  921C                     sub.b      D1, [A4]+
000063F2  6A1C                     bpl        +0x1E /* 00006410 */
000063F4  721C                     moveq.l    D1, 0x1C
000063F6  7A1C                     moveq.l    D5, 0x1C
000063F8  321C                     move.w     D1, [A4]+
000063FA  9A1C                     sub.b      D5, [A4]+
000063FC  3A1C                     move.w     D5, [A4]+
000063FE  A21C                     syscall    FreeMem, flags=2
00006400  421C                     clr.b      [A4]+
00006402  AA1C                     syscall    SetCCursor
00006404  521C                     addq.b     [A4]+, 1
00006406  B21C                     cmp.b      D1, [A4]+
label00006408:
00006408  4AB1 160A                tst.l      [A1 + D1.w * 8 + 0xA]
0000640C  3216                     move.w     D1, [A6]
0000640E  12FE                     move.b     [A1]+, <<invalid special address>>
label00006410:
00006410  E621                     asr        D1.b, D3
00006412  14E2                     move.b     [A2]+, -[A2]
00006414  30F0 0202                move.w     [A0]+, [A0 + D0.w * 2 + 0x2]
00006418  161A                     move.b     D3, [A2]+
0000641A  162A B116                move.b     D3, [A2 - 0x4EEA]
0000641E  0A30 F002 0416           xori.b     [A0 + D0.w * 4 + 0x16], 0x2
00006424  1216                     move.b     D1, [A6]
00006426  2216                     move.l     D1, [A6]
00006428  1A16                     move.b     D5, [A6]
0000642A  2AB1 160A                move.l     [A5], [A1 + D1.w * 8 + 0xA]
0000642E  30F0 0205                move.w     [A0]+, [A0 + D0.w * 2 + 0x5]
00006432  1612                     move.b     D3, [A2]
00006434  1622                     move.b     D3, -[A2]
00006436  161A                     move.b     D3, [A2]+
00006438  162A 0182                move.b     D3, [A2 + 0x182]
0000643C  B101                     xor.b      D1, D0
0000643E  A230                     syscall    OSEventAvail, flags=2
00006440  F002 1D14                pmovefd    D2, MR7
00006444  9214                     sub.b      D1, [A4]
00006446  9A14                     sub.b      D5, [A4]
00006448  A214                     syscall    GetVol/PBHGetVol/HGetVol, flags=2
0000644A  AA14                     syscall    RGBForeColor
0000644C  E214                     roxr       D4.b, 1
0000644E  DA14                     add.b      D5, [A4]
00006450  D214                     add.b      D1, [A4]
00006452  B214                     cmp.b      D1, [A4]
00006454  BA14                     cmp.b      D5, [A4]
00006456  C214                     and.b      D1, [A4]
00006458  CA20                     and.b      D5, -[A0]
0000645A  8A1E                     or.b       D5, [A6]+
0000645C  C21E                     and.b      D1, [A6]+
0000645E  CA1F                     and.b      D5, [A7]+
00006460  121F                     move.b     D1, [A7]+
00006462  1A1F                     move.b     D5, [A7]+
00006464  221F                     move.l     D1, [A7]+
00006466  2A1F                     move.l     D5, [A7]+
00006468  321F                     move.w     D1, [A7]+
0000646A  3A1F                     move.w     D5, [A7]+
0000646C  4A1E                     tst.b      [A6]+
0000646E  DA1E                     add.b      D5, [A6]+
00006470  E21E                     ror        D6.b, 1
00006472  EA1E                     ror        D6.b, 5
00006474  F21E FA1F                .cpgen     0xF21E, 0xFA1F // unimplemented
00006478  0A01 AA01                xori.b     D1, 0x1
0000647C  12B1 160A                move.b     [A1], [A1 + D1.w * 8 + 0xA]
00006480  3216                     move.w     D1, [A6]
00006482  12FE                     move.b     [A1]+, <<invalid special address>>
00006484  CC21                     and.b      D6, -[A1]
00006486  14E2                     move.b     [A2]+, -[A2]
00006488  30F0 0202                move.w     [A0]+, [A0 + D0.w * 2 + 0x2]
0000648C  161A                     move.b     D3, [A2]+
0000648E  162A B116                move.b     D3, [A2 - 0x4EEA]
00006492  0A30 F002 0416           xori.b     [A0 + D0.w * 4 + 0x16], 0x2
00006498  1216                     move.b     D1, [A6]
0000649A  2216                     move.l     D1, [A6]
0000649C  1A16                     move.b     D5, [A6]
0000649E  2A81                     move.l     [A5], D1
000064A0  FF80                     .invalid   <<F/6/7>>
000064A2  2101                     move.l     -[A0], D1
000064A4  A230                     syscall    OSEventAvail, flags=2
000064A6  F002 041D                pmove      D2, MR1
000064AA  1A1D                     move.b     D5, [A5]+
000064AC  221D                     move.l     D1, [A5]+
000064AE  521D                     addq.b     [A5]+, 1
000064B0  4A32 1D2A FF80 2101      tst.b      [[A2 - 0x80 + D1 * 4] + 0x2101]
000064B8  AA30                     syscall    DisposeGDevice/DisposGDevice
000064BA  F002 051C                pmovefd    D2, MR1
000064BE  D21C                     add.b      D1, [A4]+
000064C0  DA1C                     add.b      D5, [A4]+
000064C2  C21C                     and.b      D1, [A4]+
000064C4  2A1C                     move.l     D5, [A4]+
000064C6  6232                     bhi        +0x34 /* 000064FA */
000064C8  1C5A                     movea.b    A6, [A2]+
000064CA  FF80                     .invalid   <<F/6/7>>
000064CC  221E                     move.l     D1, [A6]+
000064CE  CAFF                     mulu.w     D5, <<invalid special address>>
000064D0  8021                     or.b       D0, -[A1]
000064D2  1F0A                     move.b     -[A7], A2
000064D4  30F0 020E                move.w     [A0]+, [A0 + D0.w * 2 + 0xE]
000064D8  1C6A 1C72                movea.b    A6, [A2 + 0x1C72]
000064DC  1C7A 1C32                movea.b    A6, [PC + 0x1C32 /* 00008110 */]
000064E0  1C9A                     move.b     [A6], [A2]+
000064E2  1C3A 1CA2                move.b     D6, [PC + 0x1CA2 /* 00008186 */]
000064E6  1C42                     movea.b    A6, D2
000064E8  1CAA 1C52                move.b     [A6], [A2 + 0x1C52]
000064EC  1CB2 1C4A                move.b     [A6], [A2 + D1 * 4 + 0x4A]
000064F0  1CE2                     move.b     [A6]+, -[A2]
000064F2  1CEA B112                move.b     [A6]+, [A2 - 0x4EEE]
000064F6  F230 F002                .fmovem    0xF230, 0xF002 // unimplemented
label000064FA:
000064FA  3C14                     move.w     D6, [A4]
000064FC  9214                     sub.b      D1, [A4]
000064FE  9A14                     sub.b      D5, [A4]
00006500  A214                     syscall    GetVol/PBHGetVol/HGetVol, flags=2
00006502  AA14                     syscall    RGBForeColor
00006504  E214                     roxr       D4.b, 1
00006506  DA14                     add.b      D5, [A4]
00006508  D214                     add.b      D1, [A4]
0000650A  B214                     cmp.b      D1, [A4]
0000650C  BA11                     cmp.b      D5, [A1]
0000650E  8A14                     or.b       D5, [A4]
00006510  CA10                     and.b      D5, [A0]
00006512  BA12                     cmp.b      D5, [A2]
00006514  AA13                     syscall    FillCPoly
00006516  0A10 CA10                xori.b     [A0], 0x10
0000651A  D210                     add.b      D1, [A0]
0000651C  DA10                     add.b      D5, [A0]
0000651E  E210                     roxr       D0.b, 1
00006520  EA10                     roxr       D0.b, 5
00006522  F210 FA13                .cpgen     0xF210, 0xFA13 // unimplemented
00006526  0212 A212                andi.b     [A2], 0x12
0000652A  5211                     addq.b     [A1], 1
0000652C  0A11 1211                xori.b     [A1], 0x11
00006530  1A12                     move.b     D5, [A2]
00006532  8A12                     or.b       D5, [A2]
00006534  9212                     sub.b      D1, [A2]
00006536  9A11                     sub.b      D5, [A1]
00006538  2211                     move.l     D1, [A1]
0000653A  2A11                     move.l     D5, [A1]
0000653C  3211                     move.w     D1, [A1]
0000653E  3A11                     move.w     D5, [A1]
00006540  4211                     clr.b      [A1]
00006542  CA11                     and.b      D5, [A1]
00006544  DA11                     add.b      D5, [A1]
00006546  D212                     add.b      D1, [A2]
00006548  2212                     move.l     D1, [A2]
0000654A  2A12                     move.l     D5, [A2]
0000654C  3212                     move.w     D1, [A2]
0000654E  3A12                     move.w     D5, [A2]
00006550  4212                     clr.b      [A2]
00006552  4A11                     tst.b      [A1]
00006554  4A11                     tst.b      [A1]
00006556  5211                     addq.b     [A1], 1
00006558  5A11                     addq.b     [A1], 5
0000655A  6211                     bhi        +0x13 /* 0000656D */
0000655C  6A11                     bpl        +0x13 /* 0000656F */
0000655E  7211                     moveq.l    D1, 0x11
00006560  7A11                     moveq.l    D5, 0x11
00006562  8212                     or.b       D1, [A2]
00006564  5A11                     addq.b     [A1], 5
00006566  9211                     sub.b      D1, [A1]
00006568  9A11                     sub.b      D5, [A1]
0000656A  A211                     syscall    GetEOF, flags=2
0000656C  AA11                     syscall    FillCArc
0000656E  B211                     cmp.b      D1, [A1]
00006570  BA11                     cmp.b      D5, [A1]
00006572  C2B1 160A                and.l      D1, [A1 + D1.w * 8 + 0xA]
00006576  3216                     move.w     D1, [A6]
00006578  12FE                     move.b     [A1]+, <<invalid special address>>
0000657A  9421                     sub.b      D2, -[A1]
0000657C  14E2                     move.b     [A2]+, -[A2]
0000657E  30F0 0202                move.w     [A0]+, [A0 + D0.w * 2 + 0x2]
00006582  161A                     move.b     D3, [A2]+
00006584  162A B116                move.b     D3, [A2 - 0x4EEA]
00006588  0A30 F002 0416           xori.b     [A0 + D0.w * 4 + 0x16], 0x2
0000658E  1216                     move.b     D1, [A6]
00006590  2216                     move.l     D1, [A6]
00006592  1A16                     move.b     D5, [A6]
00006594  2AB1 01B2 30F0 0243 1492 move.l     [A5], [[0x30F00243 + D0] + 0x1492]
0000659E  149A                     move.b     [A2], [A2]+
000065A0  14A2                     move.b     [A2], -[A2]
000065A2  14AA 14E2                move.b     [A2], [A2 + 0x14E2]
000065A6  14DA                     move.b     [A2]+, [A2]+
000065A8  14D2                     move.b     [A2]+, [A2]
000065AA  14B2 14BA                move.b     [A2], [A2 + D1.w * 4 - 0x46]
000065AE  12E2                     move.b     [A1]+, -[A2]
000065B0  14CA                     move.b     [A2]+, A2
000065B2  10BA 12AA                move.b     [A0], [PC + 0x12AA /* 0000785E */]
000065B6  130A                     move.b     -[A1], A2
000065B8  10CA                     move.b     [A0]+, A2
000065BA  10D2                     move.b     [A0]+, [A2]
000065BC  10DA                     move.b     [A0]+, [A2]+
000065BE  10E2                     move.b     [A0]+, -[A2]
000065C0  12EA 10F2                move.b     [A1]+, [A2 + 0x10F2]
000065C4  10FA 1302                move.b     [A0]+, [PC + 0x1302 /* 000078C8 */]
000065C8  12A2                     move.b     [A1], -[A2]
000065CA  1252                     movea.b    A1, [A2]
000065CC  110A                     move.b     -[A0], A2
000065CE  1112                     move.b     -[A0], [A2]
000065D0  111A                     move.b     -[A0], [A2]+
000065D2  128A                     move.b     [A1], A2
000065D4  1292                     move.b     [A1], [A2]
000065D6  129A                     move.b     [A1], [A2]+
000065D8  1122                     move.b     -[A0], -[A2]
000065DA  112A 1132                move.b     -[A0], [A2 + 0x1132]
000065DE  113A 1142                move.b     -[A0], [PC + 0x1142 /* 00007722, value 0x0, cstring "" */]
000065E2  11CA 11DA                move.b     [0x000011DA], A2
000065E6  11D2 1222                move.b     [0x00001222], [A2]
000065EA  122A 1232                move.b     D1, [A2 + 0x1232]
000065EE  123A 1242                move.b     D1, [PC + 0x1242 /* 00007832 */]
000065F2  124A                     movea.b    A1, A2
000065F4  114A 1152                move.b     [A0 + 0x1152], A2
000065F8  115A 1162                move.b     [A0 + 0x1162], [A2]+
000065FC  116A 1172 117A           move.b     [A0 + 0x117A], [A2 + 0x1172]
00006602  1182 125A                move.b     [A0 + D1.w * 2 + 0x5A], D2
00006606  12C2                     move.b     [A1]+, D2
00006608  134A 11A2                move.b     [A1 + 0x11A2], A2
0000660C  11AA 11B2 11BA 11C2 1... move.b     [[0x11C21342 + D1] + 0x1312], [A2 + 0x11B2]
00006618  131A                     move.b     -[A1], [A2]+
0000661A  1322                     move.b     -[A1], -[A2]
0000661C  1332 133A 132A B116 0A32 move.b     -[A1], [[A2 + 0x132AB116 + D1 * 2] + 0xA32]
00006626  1612                     move.b     D3, [A2]
00006628  FE54 2114                .extension 0xE54 <<F/1/7>>, 0x2114 // unimplemented
0000662C  E230                     roxr       D0.b, D1
0000662E  F002 0216                pmove      MR0, D2
00006632  1A16                     move.b     D5, [A6]
00006634  2AB1 160A                move.l     [A5], [A1 + D1.w * 8 + 0xA]
00006638  30F0 0204                move.w     [A0]+, [A0 + D0.w * 2 + 0x4]
0000663C  1612                     move.b     D3, [A2]
0000663E  1622                     move.b     D3, -[A2]
00006640  161A                     move.b     D3, [A2]+
00006642  162A 0001                move.b     D3, [A2 + 0x1]
00006646  0F4A                     bchg       A2, D7
00006648  00F0                     .incomplete
0000664A  010F                     btst       A7, D0
0000664C  034A                     bchg       A2, D1
0000664E  4A4A                     tst.w      A2
00006650  4A4A                     tst.w      A2
00006652  4A4A                     tst.w      A2
00006654  4A4A                     tst.w      A2
00006656  4A4A                     tst.w      A2
00006658  4A4A                     tst.w      A2
0000665A  4A4A                     tst.w      A2
0000665C  10F0 0211                move.b     [A0]+, [A0 + D0.w * 2 + 0x11]
00006660  FFFF                     .invalid   <<F/7/7>>
00006662  1432 1432                move.b     D2, [A2 + D1.w * 4 + 0x32]
00006666  1432 1432                move.b     D2, [A2 + D1.w * 4 + 0x32]
0000666A  1432 1432                move.b     D2, [A2 + D1.w * 4 + 0x32]
0000666E  1432 1432                move.b     D2, [A2 + D1.w * 4 + 0x32]
00006672  1432 1432                move.b     D2, [A2 + D1.w * 4 + 0x32]
00006676  1432 1432                move.b     D2, [A2 + D1.w * 4 + 0x32]
0000667A  1432 1432                move.b     D2, [A2 + D1.w * 4 + 0x32]
0000667E  1432 1432                move.b     D2, [A2 + D1.w * 4 + 0x32]
00006682  0003 80D5                ori.b      D3, 0xD5
00006686  0153                     bchg       [A3], D0
00006688  4820                     nbcd.b     -[A0]
0000668A  09FF                     .incomplete
0000668C  FFEF                     .invalid   <<F/7/7>>
0000668E  8AFF                     divu.w     D5, <<invalid special address>>
00006690  FFEF                     .invalid   <<F/7/7>>
00006692  9281                     sub.l      D1, D1
00006694  0207 FFFF                andi.b     D7, 0xFF
00006698  EF96                     roxl       D6, 7
0000669A  0281 18FF FF8A           andi.l     D1, 0x18FFFF8A
000066A0  A500                     syscall    Open/PBHOpen/HOpen, flags=5
000066A2  4E24                     .invalid   // invalid opcode 4
000066A4  FFFF                     .invalid   <<F/7/7>>
000066A6  A5EE                     syscall    vCkExtFS, flags=5
000066A8  FFFF                     .invalid   <<F/7/7>>
000066AA  8BA6                     or.l       -[A6], D5
000066AC  FFFF                     .invalid   <<F/7/7>>
000066AE  8C16                     or.b       D6, [A6]
000066B0  FFFF                     .invalid   <<F/7/7>>
000066B2  BACE                     cmpa.w     A5, A6
000066B4  3D53 7472                move.w     [A6 + 0x7472], [A3]
000066B8  616E                     bsr        +0x70 /* 00006728 */
000066BA  6765                     beq        +0x67 /* 00006721 */
000066BC  2063                     movea.l    A0, -[A3]
000066BE  6170                     bsr        +0x72 /* 00006730 */
000066C0  7461                     moveq.l    D2, 0x61
000066C2  696E                     bvs        +0x70 /* 00006732 */
000066C4  2C20                     move.l     D6, -[A0]
000066C6  7468                     moveq.l    D2, 0x68
000066C8  6572                     bcs        +0x74 /* 0000673C */
000066CA  6520                     bcs        +0x22 /* 000066EC */
000066CC  7365                     moveq.l    D1, 0x65
000066CE  656D                     bcs        +0x6F /* 0000673D */
000066D0  2074 6F20 6265           movea.l    A0, [A4 + 0x6265 + D6 * 8]
000066D6  2068 6964                movea.l    A0, [A0 + 0x6964]
000066DA  6465                     bcc        +0x67 /* 00006741 */
000066DC  6E20                     bgt        +0x22 /* 000066FE */
000066DE  666C                     bne        +0x6E /* 0000674C */
000066E0  6F61                     ble        +0x63 /* 00006743 */
000066E2  7473                     moveq.l    D2, 0x73
000066E4  206F 6E20                movea.l    A0, [A7 + 0x6E20]
000066E8  7468                     moveq.l    D2, 0x68
000066EA  6520                     bcs        +0x22 /* 0000670C */
label000066EC:
000066EC  7374                     moveq.l    D1, 0x74
000066EE  6163                     bsr        +0x65 /* 00006753 */
000066F0  6B21                     bmi        +0x23 /* 00006713 */
000066F2  18FF                     move.b     [A4]+, <<invalid special address>>
000066F4  FFA5                     .invalid   <<F/6/7>>
000066F6  EEFF FF8C                bfset      <<invalid special address>> {D6:12}
000066FA  4EFF                     jmp        <<invalid special address>>
000066FC  FF8D                     .invalid   <<F/6/7>>
label000066FE:
000066FE  36FF                     move.w     [A3]+, <<invalid special address>>
00006700  FFBA                     .invalid   <<F/6/7>>
00006702  CE30 34FF                and.b      D7, [A0 + D3.w * 4 - 0x1]
00006706  FFA5                     .invalid   <<F/6/7>>
00006708  EEFF FFB9                bfset      <<invalid special address>> {D6:D1}
label0000670C:
0000670C  E6FF                     ror   .w   <<invalid special address>>
0000670E  FFBA                     .invalid   <<F/6/7>>
00006710  5EFF                     sgt        <<invalid special address>>
00006712  FFBA                     .invalid   <<F/6/7>>
00006714  96FF                     sub.w      A3, <<invalid special address>>
00006716  FF8D                     .invalid   <<F/6/7>>
00006718  6EFF FF8D EEFF           bgt        -0x7210FF /* FF8E5619 */
0000671E  FF8E                     .invalid   <<F/6/7>>
00006720  D6FF                     add.w      A3, <<invalid special address>>
00006722  FF8F                     .invalid   <<F/6/7>>
00006724  0EFF                     .incomplete
00006726  FFA5                     .invalid   <<F/6/7>>
fn00006728:
00006728  EEFF FF8F                bfset      <<invalid special address>> {D6:15}
0000672C  46FF                     move.w     SR, <<invalid special address>>
0000672E  FF90                     .invalid   <<F/6/7>>
fn00006730:
00006730  A6FF                     syscall    XFindLine/TEFindLine, flags=6
label00006732:
00006732  FF91                     .invalid   <<F/6/7>>
00006734  9EFF                     sub.w      A7, <<invalid special address>>
00006736  FF91                     .invalid   <<F/6/7>>
00006738  D610                     add.b      D3, [A0]
0000673A  24FF                     move.l     [A2]+, <<invalid special address>>
label0000673C:
0000673C  FFA5                     .invalid   <<F/6/7>>
0000673E  EEFF FF92                bfset      <<invalid special address>> {D6:18}
00006742  0EFF                     .incomplete
00006744  FF93                     .invalid   <<F/6/7>>
00006746  66FF FF93 A6FF           bne        -0x6C58FF /* FF940E47 */
label0000674C:
0000674C  FF94                     .invalid   <<F/6/7>>
0000674E  9EFF                     sub.w      A7, <<invalid special address>>
00006750  FF94                     .invalid   <<F/6/7>>
00006752  D6FF                     add.w      A3, <<invalid special address>>
00006754  FFA5                     .invalid   <<F/6/7>>
00006756  EEFF FF95                bfset      <<invalid special address>> {D6:21}
0000675A  0EFF                     .incomplete
0000675C  FF95                     .invalid   <<F/6/7>>
0000675E  2601                     move.l     D3, D1
00006760  8144 1111                pack       D0, D4, 0x1111
00006764  20F0 020E                move.l     [A0]+, [A0 + D0.w * 2 + 0xE]
00006768  2222                     move.l     D1, -[A2]
0000676A  3333 4444                move.w     -[A1], [A3 + D4.w * 4 + 0x44]
0000676E  5555                     subq.w     [A5], 2
00006770  6666                     bne        +0x68 /* 000067D8 */
00006772  7777                     moveq.l    D3, 0x77
00006774  8888                     or.l       D4, A0
00006776  9999                     sub.l      [A1]+, D4
00006778  AAAA                     syscall    QuickTimeDispatch
0000677A  BBBB CCCC                xor.l      [PC + A4 * 4 - 0x34], D5
0000677E  DDDD                     add.l      A6, [A5]+
00006780  EEEE FFFF 4111           bfset      [A6 + 0x4111] {D7:D7}
00006786  1120                     move.b     -[A0], -[A0]
00006788  F002 0E22                pmove      MR3, D2
0000678C  2233 3344                move.l     D1, <<invalid full ext with I/IS == 4>>
00006790  4455                     neg.w      [A5]
00006792  5566                     subq.w     -[A6], 2
00006794  6677                     bne        +0x79 /* 0000680D */
00006796  7788                     moveq.l    D3, 0xFFFFFF88
00006798  8899                     or.l       D4, [A1]+
0000679A  99AA AABB                sub.l      [A2 - 0x5545], D4
0000679E  BBCC                     cmpa.l     A5, A4
000067A0  CCDD                     mulu.w     D6, [A5]+
000067A2  DDEE EEFF                add.l      A6, [A6 - 0x1101]
000067A6  FF41                     .extension 0xF41 <<F/4-5/7>> // unimplemented
000067A8  1111                     move.b     -[A0], [A1]
000067AA  20F0 020E                move.l     [A0]+, [A0 + D0.w * 2 + 0xE]
000067AE  2222                     move.l     D1, -[A2]
000067B0  3333 4444                move.w     -[A1], [A3 + D4.w * 4 + 0x44]
000067B4  5555                     subq.w     [A5], 2
000067B6  6666                     bne        +0x68 /* 0000681E */
000067B8  7777                     moveq.l    D3, 0x77
000067BA  8888                     or.l       D4, A0
000067BC  9999                     sub.l      [A1]+, D4
000067BE  AAAA                     syscall    QuickTimeDispatch
000067C0  BBBB CCCC                xor.l      [PC + A4 * 4 - 0x34], D5
000067C4  DDDD                     add.l      A6, [A5]+
000067C6  EEEE FFFF 5081           bfset      [A6 + 0x5081] {D7:D7}
000067CC  2011                     move.l     D0, [A1]
000067CE  1111                     move.b     -[A0], [A1]
000067D0  1111                     move.b     -[A0], [A1]
000067D2  1122                     move.b     -[A0], -[A2]
000067D4  2222                     move.l     D1, -[A2]
000067D6  2222                     move.l     D1, -[A2]
label000067D8:
000067D8  2233 3333 3333 3344 4... move.l     D1, [[A3 + 0x33333344 + D3 * 2] + 0x44444444]
000067E4  4455                     neg.w      [A5]
000067E6  5555                     subq.w     [A5], 2
000067E8  5555                     subq.w     [A5], 2
000067EA  5566                     subq.w     -[A6], 2
000067EC  6666                     bne        +0x68 /* 00006854 */
000067EE  6666                     bne        +0x68 /* 00006856 */
000067F0  6677                     bne        +0x79 /* 00006869 */
000067F2  7777                     moveq.l    D3, 0x77
000067F4  7777                     moveq.l    D3, 0x77
000067F6  7788                     moveq.l    D3, 0xFFFFFF88
000067F8  8888                     or.l       D4, A0
000067FA  8888                     or.l       D4, A0
000067FC  8899                     or.l       D4, [A1]+
000067FE  9999                     sub.l      [A1]+, D4
00006800  9999                     sub.l      [A1]+, D4
00006802  99AA AAAA                sub.l      [A2 - 0x5556], D4
00006806  AAAA                     syscall    QuickTimeDispatch
00006808  AABB                     syscall    0xABB
0000680A  BBBB BBBB BBCC CCCC C... xor.l      [[-0x44333334 + A3 * 2] - 0x33333323], D5
00006816  DDDD                     add.l      A6, [A5]+
00006818  DDDD                     add.l      A6, [A5]+
0000681A  DDEE EEEE                add.l      A6, [A6 - 0x1112]
label0000681E:
0000681E  EEEE EEFF FFFF           bfset      [A6 - 0x1] {D3:D7}
00006824  FFFF                     .invalid   <<F/7/7>>
00006826  FFFF                     .invalid   <<F/7/7>>
00006828  FF97                     .invalid   <<F/6/7>>
0000682A  26FF                     move.l     [A3]+, <<invalid special address>>
0000682C  FF96                     .invalid   <<F/6/7>>
0000682E  EEFF FF96                bfset      <<invalid special address>> {D6:22}
00006832  B6FF                     cmpa.w     A3, <<invalid special address>>
00006834  FF95                     .invalid   <<F/6/7>>
00006836  5EFF                     sgt        <<invalid special address>>
00006838  FFA5                     .invalid   <<F/6/7>>
0000683A  EEFF FFA5                bfset      <<invalid special address>> {D6:D5}
0000683E  EEFF FFA5                bfset      <<invalid special address>> {D6:D5}
00006842  EEFF FF98                bfset      <<invalid special address>> {D6:24}
00006846  1EFF                     move.b     [A7]+, <<invalid special address>>
00006848  FF99                     .invalid   <<F/6/7>>
0000684A  4EFF                     jmp        <<invalid special address>>
0000684C  FF99                     .invalid   <<F/6/7>>
0000684E  CEFF                     mulu.w     D7, <<invalid special address>>
00006850  FF9A                     .invalid   <<F/6/7>>
00006852  C6FF                     mulu.w     D3, <<invalid special address>>
label00006854:
00006854  FF9A                     .invalid   <<F/6/7>>
label00006856:
00006856  FEFF FF9D                .extension 0xEFF <<F/2-3/7>> // unimplemented
0000685A  66FF FF9D 2EFF           bne        -0x62D0FF /* FF9D975B */
label00006860:
00006860  FF9B                     .invalid   <<F/6/7>>
00006862  36FF                     move.w     [A3]+, <<invalid special address>>
00006864  FFA5                     .invalid   <<F/6/7>>
00006866  EEFF FF9D                bfset      <<invalid special address>> {D6:29}
0000686A  9EFF                     sub.w      A7, <<invalid special address>>
0000686C  FF9E                     .invalid   <<F/6/7>>
0000686E  8EFF                     divu.w     D7, <<invalid special address>>
00006870  FF9F                     .invalid   <<F/6/7>>
00006872  86FF                     divu.w     D3, <<invalid special address>>
label00006874:
00006874  FF9F                     .invalid   <<F/6/7>>
00006876  BE00                     cmp.b      D7, D0
00006878  06FF                     .incomplete
0000687A  FFFF                     .invalid   <<F/7/7>>
0000687C  FFFF                     .invalid   <<F/7/7>>
0000687E  FFA5                     .invalid   <<F/6/7>>
00006880  EEFF FF9F                bfset      <<invalid special address>> {D6:31}
00006884  F6FF FFA0                .extension 0x6FF <<F/2-3/3>> // unimplemented
00006888  FEFF FFA1                .extension 0xEFF <<F/2-3/7>> // unimplemented
0000688C  3EFF                     move.w     [A7]+, <<invalid special address>>
0000688E  FFA1                     .invalid   <<F/6/7>>
00006890  76FF                     moveq.l    D3, 0xFFFFFFFF
00006892  FFA1                     .invalid   <<F/6/7>>
00006894  AEFF                     syscall    0xAFF, auto_pop
00006896  FFA3                     .invalid   <<F/6/7>>
00006898  3EFF                     move.w     [A7]+, <<invalid special address>>
0000689A  FFA2                     .invalid   <<F/6/7>>
0000689C  A6FF                     syscall    XFindLine/TEFindLine, flags=6
0000689E  FFA5                     .invalid   <<F/6/7>>
000068A0  EEFF FFA3                bfset      <<invalid special address>> {D6:D3}
000068A4  76FF                     moveq.l    D3, 0xFFFFFFFF
000068A6  FFA4                     .invalid   <<F/6/7>>
000068A8  86FF                     divu.w     D3, <<invalid special address>>
000068AA  FFA4                     .invalid   <<F/6/7>>
000068AC  BEFF                     cmpa.w     A7, <<invalid special address>>
000068AE  FFA4                     .invalid   <<F/6/7>>
label000068B0:
000068B0  F61C 436F                .move16    0xF61C, 0x436F // unimplemented
000068B4  756C                     moveq.l    D2, 0x6C
000068B6  646E                     bcc        +0x70 /* 00006926 */
000068B8  2774 2063 7265           move.l     [A3 + 0x7265], [A4 + D2.w + 0x63]
000068BE  6174                     bsr        +0x76 /* 00006934 */
000068C0  6520                     bcs        +0x22 /* 000068E2 */
000068C2  6170                     bsr        +0x72 /* 00006934 */
000068C4  706C                     moveq.l    D0, 0x6C
000068C6  6520                     bcs        +0x22 /* 000068E8 */
000068C8  6576                     bcs        +0x78 /* 00006940 */
000068CA  656E                     bcs        +0x70 /* 0000693A */
000068CC  742E                     moveq.l    D2, 0x2E
000068CE  001D 436F                ori.b      [A5]+, 0x6F /* 'o' */
000068D2  756C                     moveq.l    D2, 0x6C
000068D4  646E                     bcc        +0x70 /* 00006944 */
000068D6  2774 2063 7265           move.l     [A3 + 0x7265], [A4 + D2.w + 0x63]
000068DC  6174                     bsr        +0x76 /* 00006952 */
000068DE  6520                     bcs        +0x22 /* 00006900 */
000068E0  6120                     bsr        +0x22 /* 00006902 */
label000068E2:
000068E2  6E65                     bgt        +0x67 /* 00006949 */
000068E4  7720                     moveq.l    D3, 0x20
000068E6  6861                     bvc        +0x63 /* 00006949 */
label000068E8:
000068E8  6E64                     bgt        +0x66 /* 0000694E */
000068EA  6C65                     bge        +0x67 /* 00006951 */
000068EC  2E1D                     move.l     D7, [A5]+
000068EE  1943 6F75                move.b     [A4 + 0x6F75], D3
000068F2  6C64                     bge        +0x66 /* 00006958 */
000068F4  6E27                     bgt        +0x29 /* 0000691D */
000068F6  7420                     moveq.l    D2, 0x20
000068F8  6578                     bcs        +0x7A /* 00006972 */
000068FA  7061                     moveq.l    D0, 0x61
000068FC  6E64                     bgt        +0x66 /* 00006962 */
000068FE  2061                     movea.l    A0, -[A1]
label00006900:
00006900  2068 616E                movea.l    A0, [A0 + 0x616E]
// begin alternate branch 00006902-00006904
fn00006902:
00006902  616E                     bsr        +0x70 /* 00006972 */
// end alternate branch 00006902-00006904
fn00006902: // (misaligned)
00006904  646C                     bcc        +0x6E /* 00006972 */
00006906  652E                     bcs        +0x30 /* 00006936 */
00006908  1020                     move.b     D0, -[A0]
0000690A  1F43 6F75                move.b     [A7 + 0x6F75], D3
0000690E  6C64                     bge        +0x66 /* 00006974 */
00006910  6E27                     bgt        +0x29 /* 00006939 */
00006912  7420                     moveq.l    D2, 0x20
00006914  6372                     bls        +0x74 /* 00006988 */
00006916  6561                     bcs        +0x63 /* 00006979 */
00006918  7465                     moveq.l    D2, 0x65
0000691A  2061                     movea.l    A0, -[A1]
0000691C  206E 6577                movea.l    A0, [A6 + 0x6577]
00006920  2069 6E73                movea.l    A0, [A1 + 0x6E73]
00006924  7461                     moveq.l    D2, 0x61
label00006926:
00006926  6E63                     bgt        +0x65 /* 0000698B */
00006928  652E                     bcs        +0x30 /* 00006958 */
0000692A  1F1D                     move.b     -[A7], [A5]+
0000692C  436F 756C                chk.w      D1, [A7 + 0x756C]
00006930  646E                     bcc        +0x70 /* 000069A0 */
00006932  2774 2064 6973           move.l     [A3 + 0x6973], [A4 + D2.w + 0x64]
// begin alternate branch 00006934-00006936
fn00006934:
00006934  2064                     movea.l    A0, -[A4]
// end alternate branch 00006934-00006936
// begin alternate branch 00006936-00006938
label00006936:
00006936  6973                     bvs        +0x75 /* 000069AB */
// end alternate branch 00006936-00006938
fn00006934: // (misaligned)
label00006936: // (misaligned)
00006938  706F                     moveq.l    D0, 0x6F
label0000693A:
0000693A  7365                     moveq.l    D1, 0x65
0000693C  206F 6620                movea.l    A0, [A7 + 0x6620]
label00006940:
00006940  6120                     bsr        +0x22 /* 00006962 */
00006942  6861                     bvc        +0x63 /* 000069A5 */
label00006944:
00006944  6E64                     bgt        +0x66 /* 000069AA */
00006946  6C65                     bge        +0x67 /* 000069AD */
00006948  2E10                     move.l     D7, [A0]
0000694A  5A1C                     addq.b     [A4]+, 5
0000694C  436F 756C                chk.w      D1, [A7 + 0x756C]
// begin alternate branch 0000694E-00006950
label0000694E:
0000694E  756C                     moveq.l    D2, 0x6C
// end alternate branch 0000694E-00006950
label0000694E: // (misaligned)
00006950  646E                     bcc        +0x70 /* 000069C0 */
fn00006952:
00006952  2774 2072 6564           move.l     [A3 + 0x6564], [A4 + D2.w + 0x72]
label00006958:
00006958  7563                     moveq.l    D2, 0x63
0000695A  6520                     bcs        +0x22 /* 0000697C */
0000695C  6861                     bvc        +0x63 /* 000069BF */
0000695E  6E64                     bgt        +0x66 /* 000069C4 */
00006960  6C65                     bge        +0x67 /* 000069C7 */
fn00006962:
00006962  2073 697A 652E 001A 436F movea.l    A0, [[A3 + 0x652E001A] + 0x436F]
0000696C  756C                     moveq.l    D2, 0x6C
0000696E  646E                     bcc        +0x70 /* 000069DE */
00006970  2774 2061 6C6C           move.l     [A3 + 0x6C6C], [A4 + D2.w + 0x61]
// begin alternate branch 00006972-00006976
label00006972:
00006972  2061                     movea.l    A0, -[A1]
label00006974:
00006974  6C6C                     bge        +0x6E /* 000069E2 */
// end alternate branch 00006972-00006976
label00006972: // (misaligned)
label00006974: // (misaligned)
00006976  6F63                     ble        +0x65 /* 000069DB */
00006978  6174                     bsr        +0x76 /* 000069EE */
0000697A  6520                     bcs        +0x22 /* 0000699C */
label0000697C:
0000697C  706F                     moveq.l    D0, 0x6F
0000697E  696E                     bvs        +0x70 /* 000069EE */
00006980  7465                     moveq.l    D2, 0x65
00006982  722E                     moveq.l    D1, 0x2E
00006984  0010 6353                ori.b      [A0], 0x53 /* 'S' */
label00006988:
00006988  7461                     moveq.l    D2, 0x61
0000698A  636B                     bls        +0x6D /* 000069F7 */
0000698C  206F 7665                movea.l    A0, [A7 + 0x7665]
00006990  7266                     moveq.l    D1, 0x66
00006992  6C6F                     bge        +0x71 /* 00006A03 */
00006994  772E                     moveq.l    D3, 0x2E
00006996  000D 6353                ori.b      A5, 0x53 /* 'S' */
0000699A  7461                     moveq.l    D2, 0x61
label0000699C:
0000699C  636B                     bls        +0x6D /* 00006A09 */
0000699E  2065                     movea.l    A0, -[A5]
label000069A0:
000069A0  6D70                     blt        +0x72 /* 00006A12 */
000069A2  7479                     moveq.l    D2, 0x79
000069A4  2E10                     move.l     D7, [A0]
000069A6  6430                     bcc        +0x32 /* 000069D8 */
000069A8  5472 7969 6E67           addq.w     [[A2 + 0x6E67]], 2
// begin alternate branch 000069AA-000069AE
label000069AA:
000069AA  7969                     moveq.l    D4, 0x69
000069AC  6E67                     bgt        +0x69 /* 00006A15 */
// end alternate branch 000069AA-000069AE
label000069AA: // (misaligned)
000069AE  2074 6F20 6372           movea.l    A0, [A4 + 0x6372 + D6 * 8]
000069B4  6561                     bcs        +0x63 /* 00006A17 */
000069B6  7465                     moveq.l    D2, 0x65
000069B8  2061                     movea.l    A0, -[A1]
000069BA  2063                     movea.l    A0, -[A3]
000069BC  6F70                     ble        +0x72 /* 00006A2E */
000069BE  7920                     moveq.l    D4, 0x20
label000069C0:
000069C0  6F66                     ble        +0x68 /* 00006A28 */
000069C2  2061                     movea.l    A0, -[A1]
label000069C4:
000069C4  2070 7572 6520 7669 7274 movea.l    A0, [[A0 + 0x65207669] + 0x7274]
000069CE  7561                     moveq.l    D2, 0x61
000069D0  6C20                     bge        +0x22 /* 000069F2 */
000069D2  636C                     bls        +0x6E /* 00006A40 */
000069D4  6173                     bsr        +0x75 /* 00006A49 */
000069D6  732E                     moveq.l    D1, 0x2E
label000069D8:
000069D8  0031 4F76 6572 2065 7... ori.b      [[A1 + 0x20657874] + 0x656E], 0x76 /* 'v' */
// begin alternate branch 000069DE-000069E4
label000069DE:
000069DE  2065                     movea.l    A0, -[A5]
000069E0  7874                     moveq.l    D4, 0x74
label000069E2:
000069E2  656E                     bcs        +0x70 /* 00006A52 */
// end alternate branch 000069DE-000069E4
label000069DE: // (misaligned)
label000069E2: // (misaligned)
000069E4  6465                     bcc        +0x67 /* 00006A4B */
000069E6  6420                     bcc        +0x22 /* 00006A08 */
000069E8  616E                     bsr        +0x70 /* 00006A58 */
000069EA  2061                     movea.l    A0, -[A1]
000069EC  7272                     moveq.l    D1, 0x72
fn000069EE:
000069EE  6179                     bsr        +0x7B /* 00006A69 */
000069F0  2120                     move.l     -[A0], -[A0]
label000069F2:
000069F2  2043                     movea.l    A0, D3
000069F4  6F75                     ble        +0x77 /* 00006A6B */
000069F6  6C64                     bge        +0x66 /* 00006A5C */
000069F8  2063                     movea.l    A0, -[A3]
000069FA  6175                     bsr        +0x77 /* 00006A71 */
000069FC  7365                     moveq.l    D1, 0x65
000069FE  2068 6561                movea.l    A0, [A0 + 0x6561]
00006A02  7020                     moveq.l    D0, 0x20
00006A04  6461                     bcc        +0x63 /* 00006A67 */
00006A06  6D61                     blt        +0x63 /* 00006A69 */
label00006A08:
00006A08  6765                     beq        +0x67 /* 00006A6F */
00006A0A  C91D                     and.b      [A5]+, D4
00006A0C  1949 6E76                move.b     [A4 + 0x6E76], A1
00006A10  616C                     bsr        +0x6E /* 00006A7E */
label00006A12:
00006A12  6964                     bvs        +0x66 /* 00006A78 */
00006A14  2069 6E64                movea.l    A0, [A1 + 0x6E64]
00006A18  6578                     bcs        +0x7A /* 00006A92 */
00006A1A  2069 6E74                movea.l    A0, [A1 + 0x6E74]
00006A1E  6F20                     ble        +0x22 /* 00006A40 */
00006A20  6172                     bsr        +0x74 /* 00006A94 */
00006A22  7261                     moveq.l    D1, 0x61
00006A24  7921                     moveq.l    D4, 0x21
00006A26  1026                     move.b     D0, -[A6]
label00006A28:
00006A28  2543 6F75                move.l     [A2 + 0x6F75], D3
00006A2C  6C64                     bge        +0x66 /* 00006A92 */
label00006A2E:
00006A2E  206E 6F74                movea.l    A0, [A6 + 0x6F74]
00006A32  2063                     movea.l    A0, -[A3]
00006A34  7265                     moveq.l    D1, 0x65
00006A36  6174                     bsr        +0x76 /* 00006AAC */
00006A38  6520                     bcs        +0x22 /* 00006A5A */
00006A3A  7468                     moveq.l    D2, 0x68
00006A3C  6520                     bcs        +0x22 /* 00006A5E */
00006A3E  6F66                     ble        +0x68 /* 00006AA6 */
label00006A40:
00006A40  6673                     bne        +0x75 /* 00006AB5 */
00006A42  6372                     bls        +0x74 /* 00006AB6 */
00006A44  6565                     bcs        +0x67 /* 00006AAB */
00006A46  6E20                     bgt        +0x22 /* 00006A68 */
00006A48  776F                     moveq.l    D3, 0x6F
00006A4A  726C                     moveq.l    D1, 0x6C
00006A4C  6421                     bcc        +0x23 /* 00006A6F */
00006A4E  1022                     move.b     D0, -[A2]
00006A50  2143 6F75                move.l     [A0 + 0x6F75], D3
// begin alternate branch 00006A52-00006A54
label00006A52:
00006A52  6F75                     ble        +0x77 /* 00006AC9 */
// end alternate branch 00006A52-00006A54
label00006A52: // (misaligned)
00006A54  6C64                     bge        +0x66 /* 00006ABA */
00006A56  206E 6F74                movea.l    A0, [A6 + 0x6F74]
// begin alternate branch 00006A58-00006A5A
fn00006A58:
00006A58  6F74                     ble        +0x76 /* 00006ACE */
// end alternate branch 00006A58-00006A5A
fn00006A58: // (misaligned)
label00006A5A:
00006A5A  2075 7064                movea.l    A0, [A5 + D7.w + 0x64]
// begin alternate branch 00006A5C-00006A5E
label00006A5C:
00006A5C  7064                     moveq.l    D0, 0x64
// end alternate branch 00006A5C-00006A5E
label00006A5C: // (misaligned)
label00006A5E:
00006A5E  6174                     bsr        +0x76 /* 00006AD4 */
00006A60  6520                     bcs        +0x22 /* 00006A82 */
00006A62  6F66                     ble        +0x68 /* 00006ACA */
00006A64  6673                     bne        +0x75 /* 00006AD9 */
00006A66  6372                     bls        +0x74 /* 00006ADA */
label00006A68:
00006A68  6565                     bcs        +0x67 /* 00006ACF */
00006A6A  6E20                     bgt        +0x22 /* 00006A8C */
00006A6C  776F                     moveq.l    D3, 0x6F
00006A6E  726C                     moveq.l    D1, 0x6C
00006A70  6421                     bcc        +0x23 /* 00006A93 */
00006A72  1078 3A57                movea.b    A0, [0x00003A57]
00006A76  696E                     bvs        +0x70 /* 00006AE6 */
label00006A78:
00006A78  646F                     bcc        +0x71 /* 00006AE9 */
00006A7A  7720                     moveq.l    D3, 0x20
00006A7C  7365                     moveq.l    D1, 0x65
fn00006A7E:
00006A7E  7474                     moveq.l    D2, 0x74
00006A80  696E                     bvs        +0x70 /* 00006AF0 */
label00006A82:
00006A82  6720                     beq        +0x22 /* 00006AA4 */
00006A84  706F                     moveq.l    D0, 0x6F
00006A86  7274                     moveq.l    D1, 0x74
00006A88  2077 6974                movea.l    A0, <<invalid full ext with I/IS == 4>>
label00006A8C:
00006A8C  6820                     bvc        +0x22 /* 00006AAE */
00006A8E  6F75                     ble        +0x77 /* 00006B05 */
00006A90  7420                     moveq.l    D2, 0x20
label00006A92:
00006A92  7265                     moveq.l    D1, 0x65
fn00006A94:
00006A94  7374                     moveq.l    D1, 0x74
00006A96  6F72                     ble        +0x74 /* 00006B0A */
00006A98  696E                     bvs        +0x70 /* 00006B08 */
00006A9A  6720                     beq        +0x22 /* 00006ABC */
00006A9C  6375                     bls        +0x77 /* 00006B13 */
00006A9E  7272                     moveq.l    D1, 0x72
00006AA0  656E                     bcs        +0x70 /* 00006B10 */
00006AA2  7420                     moveq.l    D2, 0x20
label00006AA4:
00006AA4  7361                     moveq.l    D1, 0x61
label00006AA6:
00006AA6  7665                     moveq.l    D3, 0x65
00006AA8  6420                     bcc        +0x22 /* 00006ACA */
00006AAA  706F                     moveq.l    D0, 0x6F
fn00006AAC:
00006AAC  7274                     moveq.l    D1, 0x74
label00006AAE:
00006AAE  2100                     move.l     -[A0], D0
00006AB0  1C4F                     movea.b    A6, A7
00006AB2  7574                     moveq.l    D2, 0x74
00006AB4  206F 6620                movea.l    A0, [A7 + 0x6620]
// begin alternate branch 00006AB6-00006AB8
label00006AB6:
00006AB6  6620                     bne        +0x22 /* 00006AD8 */
// end alternate branch 00006AB6-00006AB8
label00006AB6: // (misaligned)
00006AB8  626F                     bhi        +0x71 /* 00006B29 */
label00006ABA:
00006ABA  756E                     moveq.l    D2, 0x6E
label00006ABC:
00006ABC  6473                     bcc        +0x75 /* 00006B31 */
00006ABE  206D 656D                movea.l    A0, [A5 + 0x656D]
00006AC2  6F72                     ble        +0x74 /* 00006B36 */
00006AC4  7920                     moveq.l    D4, 0x20
00006AC6  7772                     moveq.l    D3, 0x72
00006AC8  6974                     bvs        +0x76 /* 00006B3E */
label00006ACA:
00006ACA  6521                     bcs        +0x23 /* 00006AED */
00006ACC  2100                     move.l     -[A0], D0
label00006ACE:
00006ACE  1D43 6F75                move.b     [A6 + 0x6F75], D3
00006AD2  6C64                     bge        +0x66 /* 00006B38 */
fn00006AD4:
00006AD4  206E 6F74                movea.l    A0, [A6 + 0x6F74]
label00006AD8:
00006AD8  2069 6E73                movea.l    A0, [A1 + 0x6E73]
// begin alternate branch 00006ADA-00006ADC
label00006ADA:
00006ADA  6E73                     bgt        +0x75 /* 00006B4F */
// end alternate branch 00006ADA-00006ADC
label00006ADA: // (misaligned)
00006ADC  7461                     moveq.l    D2, 0x61
00006ADE  6C6C                     bge        +0x6E /* 00006B4C */
00006AE0  2041                     movea.l    A0, D1
00006AE2  4520                     .invalid   2, -[A0] // invalid opcode 4 with b == 4
00006AE4  4861                     pea.l      -[A1]
label00006AE6:
00006AE6  6E64                     bgt        +0x66 /* 00006B4C */
00006AE8  6C65                     bge        +0x67 /* 00006B4F */
00006AEA  7221                     moveq.l    D1, 0x21
00006AEC  1028 2743                move.b     D0, [A0 + 0x2743]
label00006AF0:
00006AF0  6F75                     ble        +0x77 /* 00006B67 */
00006AF2  6C64                     bge        +0x66 /* 00006B58 */
00006AF4  206E 6F74                movea.l    A0, [A6 + 0x6F74]
00006AF8  2069 6E73                movea.l    A0, [A1 + 0x6E73]
00006AFC  7461                     moveq.l    D2, 0x61
00006AFE  6C6C                     bge        +0x6E /* 00006B6C */
00006B00  204E                     movea.l    A0, A6
00006B02  6F74                     ble        +0x76 /* 00006B78 */
00006B04  6966                     bvs        +0x68 /* 00006B6C */
00006B06  6963                     bvs        +0x65 /* 00006B6B */
label00006B08:
00006B08  6174                     bsr        +0x76 /* 00006B7E */
label00006B0A:
00006B0A  696F                     bvs        +0x71 /* 00006B7B */
00006B0C  6E20                     bgt        +0x22 /* 00006B2E */
00006B0E  5265                     addq.w     -[A5], 1
label00006B10:
00006B10  7175                     moveq.l    D0, 0x75
00006B12  6573                     bcs        +0x75 /* 00006B87 */
00006B14  7421                     moveq.l    D2, 0x21
00006B16  103C 2643                move.b     D0, 0x43 /* 'C' */
00006B1A  6F75                     ble        +0x77 /* 00006B91 */
00006B1C  6C64                     bge        +0x66 /* 00006B82 */
00006B1E  206E 6F74                movea.l    A0, [A6 + 0x6F74]
00006B22  2072 656D                movea.l    A0, <<invalid full ext with IS == 1 and I/IS == 5>>
00006B26  6F76                     ble        +0x78 /* 00006B9E */
00006B28  6520                     bcs        +0x22 /* 00006B4A */
00006B2A  4E6F                     move       A7, USP
00006B2C  7469                     moveq.l    D2, 0x69
label00006B2E:
00006B2E  6669                     bne        +0x6B /* 00006B99 */
00006B30  6361                     bls        +0x63 /* 00006B93 */
00006B32  7469                     moveq.l    D2, 0x69
00006B34  6F6E                     ble        +0x70 /* 00006BA4 */
label00006B36:
00006B36  2052                     movea.l    A0, [A2]
label00006B38:
00006B38  6571                     bcs        +0x73 /* 00006BAB */
00006B3A  7565                     moveq.l    D2, 0x65
00006B3C  7374                     moveq.l    D1, 0x74
label00006B3E:
00006B3E  2100                     move.l     -[A0], D0
00006B40  1355 6E6B                move.b     [A1 + 0x6E6B], [A5]
00006B44  6E6F                     bgt        +0x71 /* 00006BB5 */
00006B46  776E                     moveq.l    D3, 0x6E
00006B48  2065                     movea.l    A0, -[A5]
label00006B4A:
00006B4A  7863                     moveq.l    D4, 0x63
label00006B4C:
00006B4C  6570                     bcs        +0x72 /* 00006BBE */
00006B4E  7469                     moveq.l    D2, 0x69
00006B50  6F6E                     ble        +0x70 /* 00006BC0 */
00006B52  3A20                     move.w     D5, -[A0]
00006B54  1203                     move.b     D1, D3
00006B56  203A 2010                move.l     D0, [PC + 0x2010 /* 00008B68 */]
// begin alternate branch 00006B58-00006B5A
label00006B58:
00006B58  2010                     move.l     D0, [A0]
// end alternate branch 00006B58-00006B5A
label00006B58: // (misaligned)
00006B5A  2A0E                     move.l     D5, A6
00006B5C  556E 6E61                subq.w     [A6 + 0x6E61], 2
00006B60  6D65                     blt        +0x67 /* 00006BC7 */
00006B62  6420                     bcc        +0x22 /* 00006B84 */
00006B64  4F62                     chk.w      D7, -[A2]
00006B66  6A65                     bpl        +0x67 /* 00006BCD */
00006B68  6374                     bls        +0x76 /* 00006BDE */
00006B6A  000A 206F                ori.b      A2, 0x6F /* 'o' */
// begin alternate branch 00006B6C-00006B70
label00006B6C:
00006B6C  206F 6620                movea.l    A0, [A7 + 0x6620]
// end alternate branch 00006B6C-00006B70
label00006B6C: // (misaligned)
00006B6E  6620                     bne        +0x22 /* 00006B90 */
00006B70  7479                     moveq.l    D2, 0x79
00006B72  7065                     moveq.l    D0, 0x65
00006B74  2027                     move.l     D0, -[A7]
00006B76  0008 6E6F                ori.b      A0, 0x6F /* 'o' */
// begin alternate branch 00006B78-00006B7A
label00006B78:
00006B78  6E6F                     bgt        +0x71 /* 00006BE9 */
// end alternate branch 00006B78-00006B7A
label00006B78: // (misaligned)
00006B7A  2074 7970 6527 00FF      movea.l    A0, [A4 + 0x652700FF]
// begin alternate branch 00006B7E-00006B82
fn00006B7E:
00006B7E  6527                     bcs        +0x29 /* 00006BA7 */
00006B80  00FF                     .incomplete
// end alternate branch 00006B7E-00006B82
fn00006B7E: // (misaligned)
label00006B82:
00006B82  FFA5                     .invalid   <<F/6/7>>
label00006B84:
00006B84  EE10                     roxr       D0.b, 7
00006B86  F002 0201                pmove      MR0, D2
00006B8A  3201                     move.w     D1, D1
00006B8C  2A3C 0220 2000           move.l     D5, 0x2202000
// begin alternate branch 00006B90-00006B92
label00006B90:
00006B90  2000                     move.l     D0, D0
// end alternate branch 00006B90-00006B92
label00006B90: // (misaligned)
00006B92  FFFF                     .invalid   <<F/7/7>>
00006B94  A5EE                     syscall    vCkExtFS, flags=5
00006B96  FFFF                     .invalid   <<F/7/7>>
00006B98  A626                     syscall    HandleZone, flags=6
00006B9A  FFFF                     .invalid   <<F/7/7>>
00006B9C  A736                     syscall    MoreMasters, flags=7
label00006B9E:
00006B9E  FFFF                     .invalid   <<F/7/7>>
00006BA0  A76E                     syscall    SlotManager, flags=7
00006BA2  FFFF                     .invalid   <<F/7/7>>
label00006BA4:
00006BA4  A7A6                     syscall    vStdEntry, flags=7
00006BA6  3001                     move.w     D0, D1
00006BA8  0100                     btst       D0, D0
00006BAA  813E                     or.b       <<invalid special address>>, D0
00006BAC  80A5                     or.l       D0, -[A5]
00006BAE  FFFF                     .invalid   <<F/7/7>>
00006BB0  A5EE                     syscall    vCkExtFS, flags=5
00006BB2  FFFF                     .invalid   <<F/7/7>>
00006BB4  A89E                     syscall    PenNormal
00006BB6  FFFF                     .invalid   <<F/7/7>>
00006BB8  A9F6                     syscall    GetResFileAttrs
00006BBA  FFFF                     .invalid   <<F/7/7>>
00006BBC  AA36                     syscall    RealColor
label00006BBE:
00006BBE  FFFF                     .invalid   <<F/7/7>>
label00006BC0:
00006BC0  AB2E                     syscall    PatExTbl
00006BC2  FFFF                     .invalid   <<F/7/7>>
00006BC4  AB66                     syscall    rAvg
00006BC6  FFFF                     .invalid   <<F/7/7>>
00006BC8  A5EE                     syscall    vCkExtFS, flags=5
00006BCA  FFFF                     .invalid   <<F/7/7>>
00006BCC  AB9E                     syscall    BitsDevLoop
00006BCE  FFFF                     .invalid   <<F/7/7>>
00006BD0  AC9E                     syscall    PenNormal, auto_pop
00006BD2  FFFF                     .invalid   <<F/7/7>>
00006BD4  AD96                     syscall    RsrcZoneInit, auto_pop
00006BD6  FFFF                     .invalid   <<F/7/7>>
00006BD8  ADCE                     syscall    TETextBox/TextBox, auto_pop
00006BDA  FFFF                     .invalid   <<F/7/7>>
00006BDC  BACE                     cmpa.w     A5, A6
label00006BDE:
00006BDE  FFFF                     .invalid   <<F/7/7>>
00006BE0  A5EE                     syscall    vCkExtFS, flags=5
00006BE2  FFFF                     .invalid   <<F/7/7>>
00006BE4  AE06                     syscall    SetPortPix/SetCPortPix, auto_pop
00006BE6  FFFF                     .invalid   <<F/7/7>>
00006BE8  AF66                     syscall    rAvg, auto_pop
00006BEA  FFFF                     .invalid   <<F/7/7>>
00006BEC  B05E                     cmp.w      D0, [A6]+
00006BEE  FFFF                     .invalid   <<F/7/7>>
00006BF0  B096                     cmp.l      D0, [A6]
00006BF2  FFFF                     .invalid   <<F/7/7>>
00006BF4  A5EE                     syscall    vCkExtFS, flags=5
00006BF6  FFFF                     .invalid   <<F/7/7>>
00006BF8  B0CE                     cmpa.w     A0, A6
00006BFA  FFFF                     .invalid   <<F/7/7>>
00006BFC  B1C6                     cmpa.l     A0, D6
00006BFE  FFFF                     .invalid   <<F/7/7>>
00006C00  B206                     cmp.b      D1, D6
00006C02  FFFF                     .invalid   <<F/7/7>>
00006C04  B23E                     cmp.b      D1, <<invalid special address>>
00006C06  FFFF                     .invalid   <<F/7/7>>
00006C08  B276 FFFF                cmp.w      D1, <<invalid full ext with IS == 1 and I/IS == 7>>
00006C0C  A5EE                     syscall    vCkExtFS, flags=5
00006C0E  FFFF                     .invalid   <<F/7/7>>
00006C10  B36E FFFF                xor.w      [A6 - 0x1], D1
00006C14  B3EE FFFF                cmpa.l     A1, [A6 - 0x1]
00006C18  A5EE                     syscall    vCkExtFS, flags=5
00006C1A  FFFF                     .invalid   <<F/7/7>>
00006C1C  B426                     cmp.b      D2, -[A6]
00006C1E  FFFF                     .invalid   <<F/7/7>>
00006C20  B59E                     xor.l      [A6]+, D2
00006C22  FFFF                     .invalid   <<F/7/7>>
00006C24  B5D6                     cmpa.l     A2, [A6]
00006C26  FFFF                     .invalid   <<F/7/7>>
00006C28  B60E                     cmp.b      D3, A6
00006C2A  FFFF                     .invalid   <<F/7/7>>
00006C2C  B706                     xor.b      D6, D3
00006C2E  FFFF                     .invalid   <<F/7/7>>
00006C30  B87E                     cmp.w      D4, <<invalid special address>>
00006C32  FFFF                     .invalid   <<F/7/7>>
00006C34  B8B6 FFFF                cmp.l      D4, <<invalid full ext with IS == 1 and I/IS == 7>>
00006C38  B8EE FFFF                cmpa.w     A4, [A6 - 0x1]
00006C3C  BA96                     cmp.l      D5, [A6]
00006C3E  FFFF                     .invalid   <<F/7/7>>
00006C40  BA5E                     cmp.w      D5, [A6]+
00006C42  FFFF                     .invalid   <<F/7/7>>
00006C44  B9E6                     cmpa.l     A4, -[A6]
00006C46  FFFF                     .invalid   <<F/7/7>>
00006C48  BACE                     cmpa.w     A5, A6
00006C4A  FFFF                     .invalid   <<F/7/7>>
00006C4C  BB56                     xor.w      [A6], D5
00006C4E  FFFF                     .invalid   <<F/7/7>>
00006C50  BBE6                     cmpa.l     A5, -[A6]
00006C52  FFFF                     .invalid   <<F/7/7>>
00006C54  A5EE                     syscall    vCkExtFS, flags=5
00006C56  FFFF                     .invalid   <<F/7/7>>
00006C58  B9E6                     cmpa.l     A4, -[A6]
00006C5A  FFFF                     .invalid   <<F/7/7>>
00006C5C  BA5E                     cmp.w      D5, [A6]+
00006C5E  FFFF                     .invalid   <<F/7/7>>
00006C60  BA96                     cmp.l      D5, [A6]
00006C62  FFFF                     .invalid   <<F/7/7>>
00006C64  BC36 FFFF                cmp.b      D6, <<invalid full ext with IS == 1 and I/IS == 7>>
00006C68  BCC6                     cmpa.w     A6, D6
00006C6A  FFFF                     .invalid   <<F/7/7>>
00006C6C  BDAE FFFF                xor.l      [A6 - 0x1], D6
00006C70  BDE6                     cmpa.l     A6, -[A6]
00006C72  FFFF                     .invalid   <<F/7/7>>
00006C74  A5EE                     syscall    vCkExtFS, flags=5
00006C76  FFFF                     .invalid   <<F/7/7>>
00006C78  C2EE FFFF                mulu.w     D1, [A6 - 0x1]
00006C7C  C32E FFFF                and.b      [A6 - 0x1], D1
00006C80  BF4E                     cmpm.w     [A7]+, [A6]+
00006C82  FFFF                     .invalid   <<F/7/7>>
00006C84  C036 FFFF                and.b      D0, <<invalid full ext with IS == 1 and I/IS == 7>>
00006C88  BF16                     xor.b      [A6], D7
00006C8A  FFFF                     .invalid   <<F/7/7>>
00006C8C  BE1E                     cmp.b      D7, [A6]+
00006C8E  FFFF                     .invalid   <<F/7/7>>
00006C90  C156                     and.w      [A6], D0
00006C92  FFFF                     .invalid   <<F/7/7>>
00006C94  C06E FFFF                and.w      D0, [A6 - 0x1]
00006C98  C276 FFFF                and.w      D1, <<invalid full ext with IS == 1 and I/IS == 7>>
00006C9C  C18E                     exg        D0, A6
00006C9E  FFFF                     .invalid   <<F/7/7>>
00006CA0  C2AE 0010                and.l      D1, [A6 + 0x10]
00006CA4  FFFF                     .invalid   <<F/7/7>>
00006CA6  C32E FFFF                and.b      [A6 - 0x1], D1
00006CAA  C2EE FFFF                mulu.w     D1, [A6 - 0x1]
00006CAE  C366                     and.w      -[A6], D1
00006CB0  FFFF                     .invalid   <<F/7/7>>
00006CB2  A5EE                     syscall    vCkExtFS, flags=5
00006CB4  FFFF                     .invalid   <<F/7/7>>
00006CB6  BBE6                     cmpa.l     A5, -[A6]
00006CB8  FFFF                     .invalid   <<F/7/7>>
00006CBA  C3A6                     and.l      -[A6], D1
00006CBC  FFFF                     .invalid   <<F/7/7>>
00006CBE  C40E                     and.b      D2, A6
00006CC0  FFFF                     .invalid   <<F/7/7>>
00006CC2  A5EE                     syscall    vCkExtFS, flags=5
00006CC4  FFFF                     .invalid   <<F/7/7>>
00006CC6  B9E6                     cmpa.l     A4, -[A6]
00006CC8  FFFF                     .invalid   <<F/7/7>>
00006CCA  BA5E                     cmp.w      D5, [A6]+
00006CCC  FFFF                     .invalid   <<F/7/7>>
00006CCE  BA96                     cmp.l      D5, [A6]
00006CD0  FFFF                     .invalid   <<F/7/7>>
00006CD2  C45E                     and.w      D2, [A6]+
00006CD4  FFFF                     .invalid   <<F/7/7>>
00006CD6  C4DE                     mulu.w     D2, [A6]+
00006CD8  FFFF                     .invalid   <<F/7/7>>
00006CDA  C5C6                     muls.w     D2, D6
00006CDC  FFFF                     .invalid   <<F/7/7>>
00006CDE  C5FE                     muls.w     D2, <<invalid special address>>
00006CE0  FFFF                     .invalid   <<F/7/7>>
00006CE2  A5EE                     syscall    vCkExtFS, flags=5
00006CE4  FFFF                     .invalid   <<F/7/7>>
00006CE6  BBE6                     cmpa.l     A5, -[A6]
00006CE8  FFFF                     .invalid   <<F/7/7>>
00006CEA  C636 402E                and.b      D3, [A6 + D4.w + 0x2E]
00006CEE  184E                     movea.b    A4, A6
00006CF0  6F20                     ble        +0x22 /* 00006D12 */
00006CF2  6F74                     ble        +0x76 /* 00006D68 */
00006CF4  6865                     bvc        +0x67 /* 00006D5B */
00006CF6  7220                     moveq.l    D1, 0x20
00006CF8  6178                     bsr        +0x7A /* 00006D72 */
00006CFA  6973                     bvs        +0x75 /* 00006D6F */
00006CFC  2073 7570 706F 7274      movea.l    A0, [A3 + 0x706F7274]
00006D04  6564                     bcs        +0x66 /* 00006D6A */
00006D06  2100                     move.l     -[A0], D0
00006D08  FFFF                     .invalid   <<F/7/7>>
00006D0A  A5EE                     syscall    vCkExtFS, flags=5
00006D0C  FFFF                     .invalid   <<F/7/7>>
00006D0E  C686                     and.l      D3, D6
00006D10  FFFF                     .invalid   <<F/7/7>>
label00006D12:
00006D12  C7FE                     muls.w     D3, <<invalid special address>>
00006D14  FFFF                     .invalid   <<F/7/7>>
00006D16  C8F6 FFFF                mulu.w     D4, <<invalid full ext with IS == 1 and I/IS == 7>>
00006D1A  C92E 2046                and.b      [A6 + 0x2046], D4
00006D1E  FFFF                     .invalid   <<F/7/7>>
00006D20  A5EE                     syscall    vCkExtFS, flags=5
00006D22  FFFF                     .invalid   <<F/7/7>>
00006D24  C966                     and.w      -[A6], D4
00006D26  FFFF                     .invalid   <<F/7/7>>
00006D28  CADE                     mulu.w     D5, [A6]+
00006D2A  FFFF                     .invalid   <<F/7/7>>
00006D2C  CBD6                     muls.w     D5, [A6]
00006D2E  FFFF                     .invalid   <<F/7/7>>
00006D30  CC0E                     and.b      D6, A6
00006D32  FFFF                     .invalid   <<F/7/7>>
00006D34  A5EE                     syscall    vCkExtFS, flags=5
00006D36  FFFF                     .invalid   <<F/7/7>>
00006D38  CC46                     and.w      D6, D6
00006D3A  2943 6F75                move.l     [A4 + 0x6F75], D3
00006D3E  6C64                     bge        +0x66 /* 00006DA4 */
00006D40  6E27                     bgt        +0x29 /* 00006D69 */
00006D42  7420                     moveq.l    D2, 0x20
00006D44  6765                     beq        +0x67 /* 00006DAB */
00006D46  7420                     moveq.l    D2, 0x20
00006D48  7465                     moveq.l    D2, 0x65
00006D4A  7874                     moveq.l    D4, 0x74
00006D4C  2068 616E                movea.l    A0, [A0 + 0x616E]
00006D50  646C                     bcc        +0x6E /* 00006DBE */
00006D52  6520                     bcs        +0x22 /* 00006D74 */
00006D54  2D20                     move.l     -[A6], -[A0]
00006D56  6F75                     ble        +0x77 /* 00006DCD */
00006D58  7420                     moveq.l    D2, 0x20
00006D5A  6F66                     ble        +0x68 /* 00006DC2 */
00006D5C  206D 656D                movea.l    A0, [A5 + 0x656D]
00006D60  6F72                     ble        +0x74 /* 00006DD4 */
00006D62  793F                     moveq.l    D4, 0x3F
00006D64  1028 1C43                move.b     D0, [A0 + 0x1C43]
label00006D68:
00006D68  6F75                     ble        +0x77 /* 00006DDF */
label00006D6A:
00006D6A  6C64                     bge        +0x66 /* 00006DD0 */
00006D6C  6E27                     bgt        +0x29 /* 00006D95 */
00006D6E  7420                     moveq.l    D2, 0x20
00006D70  7265                     moveq.l    D1, 0x65
fn00006D72:
00006D72  7369                     moveq.l    D1, 0x69
label00006D74:
00006D74  7A65                     moveq.l    D5, 0x65
00006D76  2074 6578 7420 6861      movea.l    A0, [A4 + 0x74206861]
00006D7E  6E64                     bgt        +0x66 /* 00006DE4 */
00006D80  6C65                     bge        +0x67 /* 00006DE7 */
00006D82  2100                     move.l     -[A0], D0
00006D84  0920                     btst       -[A0], D4
00006D86  3C3D                     move.w     D6, <<invalid special address>>
00006D88  3020                     move.w     D0, -[A0]
00006D8A  7369                     moveq.l    D1, 0x69
00006D8C  7A65                     moveq.l    D5, 0x65
00006D8E  1B15                     move.b     -[A5], [A5]
00006D90  5768 6572                subq.w     [A0 + 0x6572], 3
00006D94  6520                     bcs        +0x22 /* 00006DB6 */
00006D96  6C65                     bge        +0x67 /* 00006DFD */
00006D98  7373                     moveq.l    D1, 0x73
00006D9A  2074 6861                movea.l    A0, [A4 + D6 + 0x61]
00006D9E  6E20                     bgt        +0x22 /* 00006DC0 */
00006DA0  7A65                     moveq.l    D5, 0x65
00006DA2  726F                     moveq.l    D1, 0x6F
label00006DA4:
00006DA4  2110                     move.l     -[A0], [A0]
00006DA6  440C                     neg.b      A4
00006DA8  6261                     bhi        +0x63 /* 00006E0B */
00006DAA  6420                     bcc        +0x22 /* 00006DCC */
00006DAC  7461                     moveq.l    D2, 0x61
00006DAE  7267                     moveq.l    D1, 0x67
00006DB0  6574                     bcs        +0x76 /* 00006E26 */
00006DB2  2031 000C                move.l     D0, [A1 + D0.w + 0xC]
label00006DB6:
00006DB6  436F 7079                chk.w      D1, [A7 + 0x7079]
00006DBA  2066                     movea.l    A0, -[A6]
00006DBC  6175                     bsr        +0x77 /* 00006E33 */
label00006DBE:
00006DBE  6C74                     bge        +0x76 /* 00006E34 */
label00006DC0:
00006DC0  2031 0010                move.l     D0, [A1 + D0.w + 0x10]
// begin alternate branch 00006DC2-00006DC6
label00006DC2:
00006DC2  0010 4166                ori.b      [A0], 0x66 /* 'f' */
// end alternate branch 00006DC2-00006DC6
label00006DC2: // (misaligned)
00006DC4  4166                     chk.w      D0, -[A6]
00006DC6  7465                     moveq.l    D2, 0x65
00006DC8  7220                     moveq.l    D1, 0x20
00006DCA  656E                     bcs        +0x70 /* 00006E3A */
label00006DCC:
00006DCC  6420                     bcc        +0x22 /* 00006DEE */
00006DCE  696E                     bvs        +0x70 /* 00006E3E */
label00006DD0:
00006DD0  7365                     moveq.l    D1, 0x65
00006DD2  7274                     moveq.l    D1, 0x74
label00006DD4:
00006DD4  0015 6E65                ori.b      [A5], 0x65 /* 'e' */
00006DD8  6761                     beq        +0x63 /* 00006E3B */
00006DDA  7469                     moveq.l    D2, 0x69
00006DDC  7665                     moveq.l    D3, 0x65
00006DDE  2062                     movea.l    A0, -[A2]
00006DE0  7974                     moveq.l    D4, 0x74
00006DE2  6573                     bcs        +0x75 /* 00006E57 */
label00006DE4:
00006DE4  2074 6F20 6164           movea.l    A0, [A4 + 0x6164 + D6 * 8]
00006DEA  6410                     bcc        +0x12 /* 00006DFC */
00006DEC  3E0C                     move.w     D7, A4
label00006DEE:
00006DEE  4261                     clr.w      -[A1]
00006DF0  6420                     bcc        +0x22 /* 00006E12 */
00006DF2  7461                     moveq.l    D2, 0x61
00006DF4  7267                     moveq.l    D1, 0x67
00006DF6  6574                     bcs        +0x76 /* 00006E6C */
00006DF8  2032 000C                move.l     D0, [A2 + D0.w + 0xC]
label00006DFC:
00006DFC  436F 7079                chk.w      D1, [A7 + 0x7079]
00006E00  2066                     movea.l    A0, -[A6]
00006E02  6175                     bsr        +0x77 /* 00006E79 */
00006E04  6C74                     bge        +0x76 /* 00006E7A */
00006E06  2032 000A                move.l     D0, [A2 + D0.w + 0xA]
00006E0A  4261                     clr.w      -[A1]
00006E0C  6420                     bcc        +0x22 /* 00006E2E */
00006E0E  6C65                     bge        +0x67 /* 00006E75 */
00006E10  6E67                     bgt        +0x69 /* 00006E79 */
label00006E12:
00006E12  7468                     moveq.l    D2, 0x68
00006E14  0015 4E65                ori.b      [A5], 0x65 /* 'e' */
00006E18  6761                     beq        +0x63 /* 00006E7B */
00006E1A  7469                     moveq.l    D2, 0x69
00006E1C  7665                     moveq.l    D3, 0x65
00006E1E  2062                     movea.l    A0, -[A2]
00006E20  7974                     moveq.l    D4, 0x74
00006E22  6573                     bcs        +0x75 /* 00006E97 */
00006E24  2074 6F20 6164           movea.l    A0, [A4 + 0x6164 + D6 * 8]
// begin alternate branch 00006E26-00006E2A
label00006E26:
00006E26  6F20                     ble        +0x22 /* 00006E48 */
00006E28  6164                     bsr        +0x66 /* 00006E8E */
// end alternate branch 00006E26-00006E2A
label00006E26: // (misaligned)
00006E2A  641E                     bcc        +0x20 /* 00006E4A */
00006E2C  1B43 6F75                move.b     [A5 + 0x6F75], D3
// begin alternate branch 00006E2E-00006E30
label00006E2E:
00006E2E  6F75                     ble        +0x77 /* 00006EA5 */
// end alternate branch 00006E2E-00006E30
label00006E2E: // (misaligned)
00006E30  6C64                     bge        +0x66 /* 00006E96 */
00006E32  6E27                     bgt        +0x29 /* 00006E5B */
label00006E34:
00006E34  7420                     moveq.l    D2, 0x20
00006E36  7265                     moveq.l    D1, 0x65
00006E38  7369                     moveq.l    D1, 0x69
label00006E3A:
00006E3A  7A65                     moveq.l    D5, 0x65
00006E3C  2074 6578 7420 6861      movea.l    A0, [A4 + 0x74206861]
// begin alternate branch 00006E3E-00006E44
label00006E3E:
00006E3E  6578                     bcs        +0x7A /* 00006EB8 */
00006E40  7420                     moveq.l    D2, 0x20
00006E42  6861                     bvc        +0x63 /* 00006EA5 */
// end alternate branch 00006E3E-00006E44
label00006E3E: // (misaligned)
00006E44  6E64                     bgt        +0x66 /* 00006EAA */
00006E46  6C65                     bge        +0x67 /* 00006EAD */
label00006E48:
00006E48  102A 1C43                move.b     D0, [A2 + 0x1C43]
// begin alternate branch 00006E4A-00006E4C
label00006E4A:
00006E4A  1C43                     movea.b    A6, D3
// end alternate branch 00006E4A-00006E4C
label00006E4A: // (misaligned)
00006E4C  6F75                     ble        +0x77 /* 00006EC3 */
00006E4E  6C64                     bge        +0x66 /* 00006EB4 */
00006E50  6E27                     bgt        +0x29 /* 00006E79 */
00006E52  7420                     moveq.l    D2, 0x20
00006E54  6578                     bcs        +0x7A /* 00006ECE */
00006E56  7061                     moveq.l    D0, 0x61
00006E58  6E64                     bgt        +0x66 /* 00006EBE */
00006E5A  2074 6578 7420 6861      movea.l    A0, [A4 + 0x74206861]
00006E62  6E64                     bgt        +0x66 /* 00006EC8 */
00006E64  6C65                     bge        +0x67 /* 00006ECB */
00006E66  2100                     move.l     -[A0], D0
00006E68  0B43                     bchg       D3, D5
00006E6A  6F70                     ble        +0x72 /* 00006EDC */
label00006E6C:
00006E6C  7920                     moveq.l    D4, 0x20
00006E6E  6661                     bne        +0x63 /* 00006ED1 */
00006E70  756C                     moveq.l    D2, 0x6C
00006E72  7421                     moveq.l    D2, 0x21
00006E74  180F                     move.b     D4, A7
00006E76  4261                     clr.w      -[A1]
00006E78  6420                     bcc        +0x22 /* 00006E9A */
label00006E7A:
00006E7A  7369                     moveq.l    D1, 0x69
00006E7C  7A65                     moveq.l    D5, 0x65
00006E7E  2066                     movea.l    A0, -[A6]
00006E80  6175                     bsr        +0x77 /* 00006EF7 */
00006E82  6C74                     bge        +0x76 /* 00006EF8 */
00006E84  2114                     move.l     -[A0], [A4]
00006E86  FFFF                     .invalid   <<F/7/7>>
00006E88  A5EE                     syscall    vCkExtFS, flags=5
00006E8A  FFFF                     .invalid   <<F/7/7>>
00006E8C  CC96                     and.l      D6, [A6]
fn00006E8E:
00006E8E  0080 9A81 00FF           ori.l      D0, 0x9A8100FF
00006E94  FFA5                     .invalid   <<F/6/7>>
label00006E96:
00006E96  EEFF FFCC                bfset      <<invalid special address>> {D7:12}
label00006E9A:
00006E9A  D6FF                     add.w      A3, <<invalid special address>>
00006E9C  FFCD                     .invalid   <<F/7/7>>
00006E9E  CEFF                     mulu.w     D7, <<invalid special address>>
00006EA0  FFCE                     .invalid   <<F/7/7>>
00006EA2  06FF                     .incomplete
00006EA4  FFCE                     .invalid   <<F/7/7>>
00006EA6  3EFF                     move.w     [A7]+, <<invalid special address>>
00006EA8  FFA5                     .invalid   <<F/6/7>>
label00006EAA:
00006EAA  EEFF FFCF                bfset      <<invalid special address>> {D7:15}
00006EAE  36FF                     move.w     [A3]+, <<invalid special address>>
00006EB0  FFD0                     .invalid   <<F/7/7>>
00006EB2  AEFF                     syscall    0xAFF, auto_pop
label00006EB4:
00006EB4  FFD0                     .invalid   <<F/7/7>>
00006EB6  E6FF                     ror   .w   <<invalid special address>>
label00006EB8:
00006EB8  FFD1                     .invalid   <<F/7/7>>
00006EBA  1EFF                     move.b     [A7]+, <<invalid special address>>
00006EBC  FFA5                     .invalid   <<F/6/7>>
label00006EBE:
00006EBE  EEFF FFB9                bfset      <<invalid special address>> {D6:D1}
00006EC2  E6FF                     ror   .w   <<invalid special address>>
00006EC4  FFBA                     .invalid   <<F/6/7>>
00006EC6  5EFF                     sgt        <<invalid special address>>
label00006EC8:
00006EC8  FFBA                     .invalid   <<F/6/7>>
00006ECA  96FF                     sub.w      A3, <<invalid special address>>
00006ECC  FFD2                     .invalid   <<F/7/7>>
label00006ECE:
00006ECE  16FF                     move.b     [A3]+, <<invalid special address>>
00006ED0  FFD2                     .invalid   <<F/7/7>>
00006ED2  9EFF                     sub.w      A7, <<invalid special address>>
00006ED4  FFD3                     .invalid   <<F/7/7>>
00006ED6  86FF                     divu.w     D3, <<invalid special address>>
00006ED8  FFD3                     .invalid   <<F/7/7>>
00006EDA  C6FF                     mulu.w     D3, <<invalid special address>>
label00006EDC:
00006EDC  FFD3                     .invalid   <<F/7/7>>
00006EDE  FEFF FFA5                .extension 0xEFF <<F/2-3/7>> // unimplemented
00006EE2  EEFF FFBB                bfset      <<invalid special address>> {D6:D3}
00006EE6  E6FF                     ror   .w   <<invalid special address>>
00006EE8  FFD4                     .invalid   <<F/7/7>>
00006EEA  36FF                     move.w     [A3]+, <<invalid special address>>
00006EEC  FFD4                     .invalid   <<F/7/7>>
00006EEE  8628 436F                or.b       D3, [A0 + 0x436F]
00006EF2  756C                     moveq.l    D2, 0x6C
00006EF4  646E                     bcc        +0x70 /* 00006F64 */
00006EF6  2774 2066 696E           move.l     [A3 + 0x696E], [A4 + D2.w + 0x66]
// begin alternate branch 00006EF8-00006EFC
label00006EF8:
00006EF8  2066                     movea.l    A0, -[A6]
00006EFA  696E                     bvs        +0x70 /* 00006F6A */
// end alternate branch 00006EF8-00006EFC
label00006EF8: // (misaligned)
00006EFC  6420                     bcc        +0x22 /* 00006F1E */
00006EFE  7370                     moveq.l    D1, 0x70
00006F00  6563                     bcs        +0x65 /* 00006F65 */
00006F02  6966                     bvs        +0x68 /* 00006F6A */
00006F04  6965                     bvs        +0x67 /* 00006F6B */
00006F06  6420                     bcc        +0x22 /* 00006F28 */
00006F08  6469                     bcc        +0x6B /* 00006F73 */
00006F0A  616C                     bsr        +0x6E /* 00006F78 */
00006F0C  6F67                     ble        +0x69 /* 00006F75 */
00006F0E  2072 6573 6F75 7263 6... movea.l    A0, [[A2 + 0x6F757263] + 0x652100FF]
00006F1A  FFA5                     .invalid   <<F/6/7>>
00006F1C  EEFF FFD4                bfset      <<invalid special address>> {D7:20}
// begin alternate branch 00006F1E-00006F20
label00006F1E:
00006F1E  FFD4                     .invalid   <<F/7/7>>
// end alternate branch 00006F1E-00006F20
label00006F1E: // (misaligned)
00006F20  D6FF                     add.w      A3, <<invalid special address>>
00006F22  FFD6                     .invalid   <<F/7/7>>
00006F24  CEFF                     mulu.w     D7, <<invalid special address>>
00006F26  FFD7                     .invalid   <<F/7/7>>
label00006F28:
00006F28  06FF                     .incomplete
00006F2A  FFD7                     .invalid   <<F/7/7>>
00006F2C  3E00                     move.w     D7, D0
00006F2E  5F05                     subq.b     D5, 7
00006F30  1E00                     move.b     D7, D0
00006F32  0AFF                     .incomplete
00006F34  FFA5                     .invalid   <<F/6/7>>
00006F36  EEFF FFB9                bfset      <<invalid special address>> {D6:D1}
00006F3A  E6FF                     ror   .w   <<invalid special address>>
00006F3C  FFBA                     .invalid   <<F/6/7>>
00006F3E  5EFF                     sgt        <<invalid special address>>
00006F40  FFBA                     .invalid   <<F/6/7>>
00006F42  96FF                     sub.w      A3, <<invalid special address>>
00006F44  FFD7                     .invalid   <<F/7/7>>
00006F46  60FF FFD7 E0FF           bra        -0x281EFF /* FFD85047 */
00006F4C  FFD8                     .invalid   <<F/7/7>>
00006F4E  C8FF                     mulu.w     D4, <<invalid special address>>
00006F50  FFD9                     .invalid   <<F/7/7>>
00006F52  00FF                     .incomplete
00006F54  FFDB                     .invalid   <<F/7/7>>
00006F56  80FF                     divu.w     D0, <<invalid special address>>
00006F58  FFDB                     .invalid   <<F/7/7>>
00006F5A  48FF FFD9                movem.l    <<invalid special address>>, D0,D3,D4,D6,D7,A0,A1,A2,A3,A4,A5,A6,A7
00006F5E  3816                     move.w     D4, [A6]
00006F60  436F 756C                chk.w      D1, [A7 + 0x756C]
label00006F64:
00006F64  646E                     bcc        +0x70 /* 00006FD4 */
00006F66  2774 2066 696E           move.l     [A3 + 0x696E], [A4 + D2.w + 0x66]
// begin alternate branch 00006F6A-00006F6C
label00006F6A:
00006F6A  696E                     bvs        +0x70 /* 00006FDA */
// end alternate branch 00006F6A-00006F6C
label00006F6A: // (misaligned)
00006F6C  6420                     bcc        +0x22 /* 00006F8E */
00006F6E  7069                     moveq.l    D0, 0x69
00006F70  6374                     bls        +0x76 /* 00006FE6 */
00006F72  7572                     moveq.l    D2, 0x72
00006F74  6521                     bcs        +0x23 /* 00006F97 */
00006F76  0017 5469                ori.b      [A7], 0x69 /* 'i' */
// begin alternate branch 00006F78-00006F7C
fn00006F78:
00006F78  5469 6C65                addq.w     [A1 + 0x6C65], 2
// end alternate branch 00006F78-00006F7C
fn00006F78: // (misaligned)
00006F7A  6C65                     bge        +0x67 /* 00006FE1 */
00006F7C  2070 6963 7475 7265 2074 movea.l    A0, [[A0 + 0x7475] + 0x72652074]
00006F86  6F6F                     ble        +0x71 /* 00006FF7 */
00006F88  2073 6D61 6C6C           movea.l    A0, [[A3 + 0x6C6C]]
label00006F8E:
00006F8E  2110                     move.l     -[A0], [A0]
00006F90  2A29 436F                move.l     D5, [A1 + 0x436F]
00006F94  756C                     moveq.l    D2, 0x6C
00006F96  646E                     bcc        +0x70 /* 00007006 */
00006F98  2774 2063 7265           move.l     [A3 + 0x7265], [A4 + D2.w + 0x63]
00006F9E  6174                     bsr        +0x76 /* 00007014 */
00006FA0  6520                     bcs        +0x22 /* 00006FC2 */
00006FA2  6F66                     ble        +0x68 /* 0000700A */
00006FA4  6673                     bne        +0x75 /* 00007019 */
00006FA6  6372                     bls        +0x74 /* 0000701A */
00006FA8  6565                     bcs        +0x67 /* 0000700F */
00006FAA  6E20                     bgt        +0x22 /* 00006FCC */
00006FAC  706F                     moveq.l    D0, 0x6F
00006FAE  7274                     moveq.l    D1, 0x74
00006FB0  2066                     movea.l    A0, -[A6]
00006FB2  6F72                     ble        +0x74 /* 00007026 */
00006FB4  2074 696C                movea.l    A0, <<invalid full ext with I/IS == 4>>
00006FB8  6573                     bcs        +0x75 /* 0000702D */
00006FBA  2110                     move.l     -[A0], [A0]
00006FBC  4A22                     tst.b      -[A2]
00006FBE  436F 756C                chk.w      D1, [A7 + 0x756C]
label00006FC2:
00006FC2  6420                     bcc        +0x22 /* 00006FE4 */
00006FC4  6E6F                     bgt        +0x71 /* 00007035 */
00006FC6  7420                     moveq.l    D2, 0x20
00006FC8  7265                     moveq.l    D1, 0x65
00006FCA  7369                     moveq.l    D1, 0x69
label00006FCC:
00006FCC  7A65                     moveq.l    D5, 0x65
00006FCE  2C20                     move.l     D6, -[A0]
00006FD0  7468                     moveq.l    D2, 0x68
00006FD2  6973                     bvs        +0x75 /* 00007047 */
label00006FD4:
00006FD4  2069 7320                movea.l    A0, [A1 + 0x7320]
00006FD8  6120                     bsr        +0x22 /* 00006FFA */
label00006FDA:
00006FDA  6275                     bhi        +0x77 /* 00007051 */
00006FDC  6D6D                     blt        +0x6F /* 0000704B */
00006FDE  6572                     bcs        +0x74 /* 00007052 */
00006FE0  0010 4261                ori.b      [A0], 0x61 /* 'a' */
label00006FE4:
00006FE4  6420                     bcc        +0x22 /* 00007006 */
label00006FE6:
00006FE6  7461                     moveq.l    D2, 0x61
00006FE8  7267                     moveq.l    D1, 0x67
00006FEA  6574                     bcs        +0x76 /* 00007060 */
00006FEC  2072 6563 7421 00FF FFA5 movea.l    A0, [[A2 + 0x7421] + 0xFFFFA5]
00006FF6  EEFF FFDB                bfset      <<invalid special address>> {D7:27}
fn00006FFA:
00006FFA  B8FF                     cmpa.w     A4, <<invalid special address>>
00006FFC  FFDD                     .invalid   <<F/7/7>>
00006FFE  58FF                     svc        <<invalid special address>>
00007000  FFDD                     .invalid   <<F/7/7>>
00007002  90FF                     sub.w      A0, <<invalid special address>>
00007004  FFDD                     .invalid   <<F/7/7>>
label00007006:
00007006  C810                     and.b      D4, [A0]
00007008  8086                     or.l       D0, D6
label0000700A:
0000700A  9C40                     sub.w      D6, D0
0000700C  FFFF                     .invalid   <<F/7/7>>
0000700E  A5EE                     syscall    vCkExtFS, flags=5
00007010  FFFF                     .invalid   <<F/7/7>>
00007012  DEC0                     add.w      A7, D0
fn00007014:
00007014  FFFF                     .invalid   <<F/7/7>>
00007016  DFD0                     add.l      A7, [A0]
00007018  FFFF                     .invalid   <<F/7/7>>
label0000701A:
0000701A  E010                     roxr       D0.b, 8
0000701C  FFFF                     .invalid   <<F/7/7>>
0000701E  E108                     lsl        D0.b, 8
00007020  FFFF                     .invalid   <<F/7/7>>
00007022  E140                     asl        D0.w, 8
00007024  FFFF                     .invalid   <<F/7/7>>
label00007026:
00007026  A5EE                     syscall    vCkExtFS, flags=5
00007028  FFFF                     .invalid   <<F/7/7>>
0000702A  E178                     rol        D0.w, D0
0000702C  FFFF                     .invalid   <<F/7/7>>
0000702E  E288                     lsr        D0, 1
00007030  FFFF                     .invalid   <<F/7/7>>
00007032  E2C8                     lsr   .w   A0
00007034  FFFF                     .invalid   <<F/7/7>>
00007036  E3C0                     lsl   .w   D0
00007038  FFFF                     .invalid   <<F/7/7>>
0000703A  E3F8 FFFF                lsl   .w   [0xFFFFFFFF]
0000703E  A5EE                     syscall    vCkExtFS, flags=5
00007040  FFFF                     .invalid   <<F/7/7>>
00007042  B9E6                     cmpa.l     A4, -[A6]
00007044  FFFF                     .invalid   <<F/7/7>>
00007046  BA5E                     cmp.w      D5, [A6]+
00007048  FFFF                     .invalid   <<F/7/7>>
0000704A  BA96                     cmp.l      D5, [A6]
0000704C  FFFF                     .invalid   <<F/7/7>>
0000704E  E430                     roxr       D0.b, D2
00007050  FFFF                     .invalid   <<F/7/7>>
label00007052:
00007052  E4B0                     roxr       D0, D2
00007054  FFFF                     .invalid   <<F/7/7>>
00007056  E4F0 FFFF                roxr  .w   <<invalid full ext with IS == 1 and I/IS == 7>>
0000705A  E5D8                     roxl  .w   [A0]+
0000705C  FFFF                     .invalid   <<F/7/7>>
0000705E  E610                     roxr       D0.b, 3
label00007060:
00007060  FFFF                     .invalid   <<F/7/7>>
00007062  E648                     lsr        D0.w, 3
00007064  FFFF                     .invalid   <<F/7/7>>
00007066  A5EE                     syscall    vCkExtFS, flags=5
00007068  FFFF                     .invalid   <<F/7/7>>
0000706A  E688                     lsr        D0, 3
0000706C  FFFF                     .invalid   <<F/7/7>>
0000706E  E788                     lsl        D0, 3
00007070  FFFF                     .invalid   <<F/7/7>>
00007072  E7C0                     rol   .w   D0
00007074  FFFF                     .invalid   <<F/7/7>>
00007076  E7F8 FFFF                rol   .w   [0xFFFFFFFF]
0000707A  EB20                     asl        D0.b, D5
0000707C  FFFF                     .invalid   <<F/7/7>>
0000707E  EAE8 FFFF E8F0           bfchg      [A0 - 0x1710] {D7:D7}
00007084  FFFF                     .invalid   <<F/7/7>>
00007086  EDC0 FFFF                bfffo      D7, D0 {D7:D7}
0000708A  ED88                     lsl        D0, 6
0000708C  FFFF                     .invalid   <<F/7/7>>
0000708E  EB58                     rol        D0.w, 5
00007090  063A 0B4D 4944           addi.b     [PC + 0x4944 /* 0000B9D6 */], 0x4D /* 'M' */
00007096  4920                     .invalid   4, -[A0] // invalid opcode 4 with b == 4
00007098  506C 6179                addq.w     [A4 + 0x6179], 8
0000709C  6572                     bcs        +0x74 /* 00007110 */
0000709E  1011                     move.b     D0, [A1]
000070A0  1053                     movea.b    A0, [A3]
000070A2  6F66                     ble        +0x68 /* 0000710A */
000070A4  7477                     moveq.l    D2, 0x77
000070A6  6172                     bsr        +0x74 /* 0000711A */
000070A8  6520                     bcs        +0x22 /* 000070CA */
000070AA  5361                     subq.w     -[A1], 1
000070AC  6D70                     blt        +0x72 /* 0000711E */
000070AE  6C65                     bge        +0x67 /* 00007115 */
000070B0  720E                     moveq.l    D1, 0x0E
000070B2  691B                     bvs        +0x1D /* 000070CF */
000070B4  4F75 7420                chk.w      D7, [A5 + D7.w * 4 + 0x20]
000070B8  6F66                     ble        +0x68 /* 00007120 */
000070BA  2072 616E                movea.l    A0, <<invalid full ext with IS == 1 and I/IS == 6>>
000070BE  6765                     beq        +0x67 /* 00007125 */
000070C0  2070 6974                movea.l    A0, <<invalid full ext with I/IS == 4>>
000070C4  6368                     bls        +0x6A /* 0000712E */
000070C6  3A50                     movea.w    A5, [A0]
000070C8  6C61                     bge        +0x63 /* 0000712B */
label000070CA:
000070CA  794E                     moveq.l    D4, 0x4E
000070CC  6F74                     ble        +0x76 /* 00007142 */
000070CE  651E                     bcs        +0x20 /* 000070EE */
000070D0  1B4F 7574                move.b     [A5 + 0x7574], A7
000070D4  206F 6620                movea.l    A0, [A7 + 0x6620]
000070D8  7261                     moveq.l    D1, 0x61
000070DA  6E67                     bgt        +0x69 /* 00007143 */
000070DC  6520                     bcs        +0x22 /* 000070FE */
000070DE  7069                     moveq.l    D0, 0x69
000070E0  7463                     moveq.l    D2, 0x63
000070E2  683A                     bvc        +0x3C /* 0000711E */
000070E4  5374 6F70 4E6F 7465      subq.w     [A4 + 0x4E6F7465], 1
000070EC  12FF                     move.b     [A1]+, <<invalid special address>>
label000070EE:
000070EE  FFFF                     .invalid   <<F/7/7>>
000070F0  FF00                     .extension 0xF00 <<F/4-5/7>> // unimplemented
000070F2  322E 314C                move.w     D1, [A6 + 0x314C]
000070F6  6963                     bvs        +0x65 /* 0000715B */
000070F8  656E                     bcs        +0x70 /* 00007168 */
000070FA  7365                     moveq.l    D1, 0x65
000070FC  6420                     bcc        +0x22 /* 0000711E */
label000070FE:
000070FE  746F                     moveq.l    D2, 0x6F
00007100  2049                     movea.l    A0, A1
00007102  6E74                     bgt        +0x76 /* 00007178 */
00007104  6572                     bcs        +0x74 /* 00007178 */
00007106  706C                     moveq.l    D0, 0x6C
00007108  6179                     bsr        +0x7B /* 00007183 */
label0000710A:
0000710A  2050                     movea.l    A0, [A0]
0000710C  726F                     moveq.l    D1, 0x6F
0000710E  6475                     bcc        +0x77 /* 00007185 */
label00007110:
00007110  6374                     bls        +0x76 /* 00007186 */
00007112  696F                     bvs        +0x71 /* 00007183 */
00007114  6E73                     bgt        +0x75 /* 00007189 */
00007116  3A20                     move.w     D5, -[A0]
00007118  2041                     movea.l    A0, D1
fn0000711A:
0000711A  6C6C                     bge        +0x6E /* 00007188 */
0000711C  656E                     bcs        +0x70 /* 0000718C */
label0000711E:
0000711E  2050                     movea.l    A0, [A0]
label00007120:
00007120  6176                     bsr        +0x78 /* 00007198 */
00007122  6C69                     bge        +0x6B /* 0000718D */
00007124  7368                     moveq.l    D1, 0x68
00007126  1053                     movea.b    A0, [A3]
00007128  536F 756E                subq.w     [A7 + 0x756E], 1
0000712C  644D                     bcc        +0x4F /* 0000717B */
label0000712E:
0000712E  7573                     moveq.l    D2, 0x73
00007130  6963                     bvs        +0x65 /* 00007195 */
00007132  5379 7320 A920           subq.w     [0x7320A920], 1
00007138  436F 7079                chk.w      D1, [A7 + 0x7079]
0000713C  7269                     moveq.l    D1, 0x69
0000713E  6768                     beq        +0x6A /* 000071A8 */
00007140  7420                     moveq.l    D2, 0x20
label00007142:
00007142  3139 3839 2D31           move.w     -[A0], [0x38392D31]
00007148  3939 3420 6279           move.w     -[A4], [0x34206279]
0000714E  2048                     movea.l    A0, A0
00007150  616C                     bsr        +0x6E /* 000071BE */
00007152  6573                     bcs        +0x75 /* 000071C7 */
00007154  746F                     moveq.l    D2, 0x6F
00007156  726D                     moveq.l    D1, 0x6D
00007158  2C20                     move.l     D6, -[A0]
0000715A  496E 636F                chk.w      D4, [A6 + 0x636F]
0000715E  7270                     moveq.l    D1, 0x70
00007160  6F72                     ble        +0x74 /* 000071D4 */
00007162  6174                     bsr        +0x76 /* 000071D8 */
00007164  6564                     bcs        +0x66 /* 000071CA */
00007166  2C20                     move.l     D6, -[A0]
label00007168:
00007168  416C 6C20                chk.w      D0, [A4 + 0x6C20]
0000716C  5269 6768                addq.w     [A1 + 0x6768], 1
00007170  7473                     moveq.l    D2, 0x73
00007172  2052                     movea.l    A0, [A2]
00007174  6573                     bcs        +0x75 /* 000071E9 */
00007176  6572                     bcs        +0x74 /* 000071EA */
label00007178:
00007178  7665                     moveq.l    D3, 0x65
0000717A  6410                     bcc        +0x12 /* 0000718C */
0000717C  00AE 9802 0202 1002      ori.l      [A6 + 0x1002], 0x98020202
00007184  0202 FA4E                andi.b     D2, 0x4E /* 'N' */
// begin alternate branch 00007186-00007190
label00007186:
00007186  FA4E 0202                .extension 0xA4E <<F/1/5>>, 0x0202 // unimplemented
label00007188: // (misaligned)
0000718A  0211 0002                andi.b     [A1], 0x2
label0000718C: // (misaligned)
0000718E  0BA1                     bclr       -[A1], D5
// end alternate branch 00007186-00007190
label00007186: // (misaligned)
label00007188:
00007188  0202 0211                andi.b     D2, 0x11
label0000718C:
0000718C  0002 0BA1                ori.b      D2, 0xA1
00007190  6C00 0204                bge        +0x206 /* 00007396 */
00007194  0800 041D                btst.b     D0, 0x1D
fn00007198:
00007198  0C00 041C                cmpi.b     D0, 0x1C
0000719C  0C00 0404                cmpi.b     D0, 0x4
000071A0  0C00 0404                cmpi.b     D0, 0x4
000071A4  0602 0202                addi.b     D2, 0x2
label000071A8:
000071A8  0800 043C                btst.b     D0, 0x3C /* '<' */
000071AC  0C00 0404                cmpi.b     D0, 0x4
000071B0  0C00 0404                cmpi.b     D0, 0x4
000071B4  8097                     or.l       D0, [A7]
000071B6  0002 0408                ori.b      D2, 0x8
000071BA  0004 3C0C                ori.b      D4, 0xC
fn000071BE:
000071BE  0004 040C                ori.b      D4, 0xC
000071C2  0004 0429                ori.b      D4, 0x29 /* ')' */
000071C6  0002 0808                ori.b      D2, 0x8
label000071CA:
000071CA  0004 3C0C                ori.b      D4, 0xC
000071CE  0004 040C                ori.b      D4, 0xC
000071D2  0004 040C                ori.b      D4, 0xC
// begin alternate branch 000071D4-000071DA
label000071D4:
000071D4  040C 0004                subi.b     A4, 0x4
fn000071D8:
000071D8  1D0C                     move.b     -[A6], A4
// end alternate branch 000071D4-000071DA
label000071D4: // (misaligned)
000071D6  0004 1D0C                ori.b      D4, 0xC
fn000071D8: // (misaligned)
000071DA  0004 1C0C                ori.b      D4, 0xC
000071DE  0004 040C                ori.b      D4, 0xC
000071E2  0004 046D                ori.b      D4, 0x6D /* 'm' */
000071E6  0002 0708                ori.b      D2, 0x8
label000071EA:
000071EA  0004 3C0C                ori.b      D4, 0xC
000071EE  0004 040C                ori.b      D4, 0xC
000071F2  0004 0406                ori.b      D4, 0x6
000071F6  0002 0408                ori.b      D2, 0x8
000071FA  0004 1D0C                ori.b      D4, 0xC
000071FE  0004 1C0C                ori.b      D4, 0xC
00007202  0004 040C                ori.b      D4, 0xC
00007206  0004 0406                ori.b      D4, 0x6
0000720A  0202 0208                andi.b     D2, 0x8
0000720E  0004 3C0C                ori.b      D4, 0xC
00007212  0004 040C                ori.b      D4, 0xC
00007216  0004 0480                ori.b      D4, 0x80
0000721A  A000                     syscall    Open/PBHOpen/HOpen
0000721C  0204 0800                andi.b     D4, 0x0
00007220  043C 0C00 0404           subi.b     0x4, 0x0
00007226  0C00 0404                cmpi.b     D0, 0x4
0000722A  3100                     move.w     -[A0], D0
0000722C  020B 0800                andi.b     A3, 0x0
00007230  043C 0C00 0404           subi.b     0x4, 0x0
00007236  0C00 0404                cmpi.b     D0, 0x4
0000723A  0C00 041D                cmpi.b     D0, 0x1D
0000723E  0C00 041C                cmpi.b     D0, 0x1C
00007242  0C00 0404                cmpi.b     D0, 0x4
00007246  0C00 0404                cmpi.b     D0, 0x4
0000724A  0C00 041D                cmpi.b     D0, 0x1D
0000724E  0C00 041C                cmpi.b     D0, 0x1C
00007252  0C00 0404                cmpi.b     D0, 0x4
00007256  0C00 0404                cmpi.b     D0, 0x4
0000725A  80E1                     divu.w     D0, -[A1]
0000725C  0002 0708                ori.b      D2, 0x8
00007260  0004 3C0C                ori.b      D4, 0xC
00007264  0004 040C                ori.b      D4, 0xC
00007268  0004 040C                ori.b      D4, 0xC
0000726C  0004 1D0C                ori.b      D4, 0xC
00007270  0004 1C0C                ori.b      D4, 0xC
00007274  0004 040C                ori.b      D4, 0xC
00007278  0004 042E                ori.b      D4, 0x2E /* '.' */
0000727C  0002 0708                ori.b      D2, 0x8
00007280  0004 3C0C                ori.b      D4, 0xC
00007284  0004 040C                ori.b      D4, 0xC
00007288  0004 040C                ori.b      D4, 0xC
0000728C  0004 1D0C                ori.b      D4, 0xC
00007290  0004 1C0C                ori.b      D4, 0xC
00007294  0004 040C                ori.b      D4, 0xC
00007298  0004 0481                ori.b      D4, 0x81
0000729C  6400 0204                bcc        +0x206 /* 000074A2 */
000072A0  0800 0431                btst.b     D0, 0x31 /* '1' */
000072A4  0C00 041C                cmpi.b     D0, 0x1C
000072A8  0C00 0404                cmpi.b     D0, 0x4
000072AC  0C00 0404                cmpi.b     D0, 0x4
000072B0  0E00 0204                .invalid.b D0, 0x4 // invalid immediate operation
000072B4  0800 041E                btst.b     D0, 0x1E
000072B8  0C00 041C                cmpi.b     D0, 0x1C
000072BC  0C00 0404                cmpi.b     D0, 0x4
000072C0  0C00 0404                cmpi.b     D0, 0x4
000072C4  4D00                     .invalid   6, D0 // invalid opcode 4 with b == 4
000072C6  020C 0800                andi.b     A4, 0x0
000072CA  043C 0C00 0404           subi.b     0x4, 0x0
000072D0  0C00 0404                cmpi.b     D0, 0x4
000072D4  0C00 042C                cmpi.b     D0, 0x2C /* ',' */
000072D8  0C00 0404                cmpi.b     D0, 0x4
000072DC  0C00 0404                cmpi.b     D0, 0x4
000072E0  0C00 041C                cmpi.b     D0, 0x1C
000072E4  0C00 042C                cmpi.b     D0, 0x2C /* ',' */
000072E8  0C00 0404                cmpi.b     D0, 0x4
000072EC  0C00 0404                cmpi.b     D0, 0x4
000072F0  0C00 041C                cmpi.b     D0, 0x1C
000072F4  0D02                     btst       D2, D6
000072F6  0202 0800                andi.b     D2, 0x0
000072FA  043C 0C00 0404           subi.b     0x4, 0x0
00007300  0C00 0404                cmpi.b     D0, 0x4
00007304  4D00                     .invalid   6, D0 // invalid opcode 4 with b == 4
00007306  0204 0800                andi.b     D4, 0x0
0000730A  043C 0C00 0404           subi.b     0x4, 0x0
00007310  0C00 0404                cmpi.b     D0, 0x4
00007314  1900                     move.b     -[A4], D0
00007316  0207 0800                andi.b     D7, 0x0
0000731A  043C 0C00 0404           subi.b     0x4, 0x0
00007320  0C00 0404                cmpi.b     D0, 0x4
00007324  0C00 041D                cmpi.b     D0, 0x1D
00007328  0C00 041C                cmpi.b     D0, 0x1C
0000732C  0C00 0404                cmpi.b     D0, 0x4
00007330  0C00 0404                cmpi.b     D0, 0x4
00007334  4800                     nbcd.b     D0
00007336  020C 0800                andi.b     A4, 0x0
0000733A  0443 0C00                subi.w     D3, 0xC00
0000733E  0404 0C00                subi.b     D4, 0x0
00007342  0404 3A02                subi.b     D4, 0x2
00007346  0202 0800                andi.b     D2, 0x0
0000734A  043C 0C00 0404           subi.b     0x4, 0x0
00007350  0C00 0404                cmpi.b     D0, 0x4
00007354  2C00                     move.l     D6, D0
00007356  0208 0800                andi.b     A0, 0x0
0000735A  043C 0C00 0404           subi.b     0x4, 0x0
00007360  0C00 0404                cmpi.b     D0, 0x4
00007364  0C00 042C                cmpi.b     D0, 0x2C /* ',' */
00007368  0C00 0404                cmpi.b     D0, 0x4
0000736C  0C00 0404                cmpi.b     D0, 0x4
00007370  0C00 041C                cmpi.b     D0, 0x1C
00007374  1700                     move.b     -[A3], D0
00007376  020C 0800                andi.b     A4, 0x0
0000737A  0443 0C00                subi.w     D3, 0xC00
0000737E  0404 0C00                subi.b     D4, 0x0
00007382  0404 1C00                subi.b     D4, 0x0
00007386  0205 0800                andi.b     D5, 0x0
0000738A  041E 0C00                subi.b     [A6]+, 0x0
0000738E  041C 0C00                subi.b     [A4]+, 0x0
00007392  0404 0C00                subi.b     D4, 0x0
label00007396:
00007396  0404 0C00                subi.b     D4, 0x0
0000739A  0405 4700                subi.b     D5, 0x0
0000739E  0217 0800                andi.b     [A7], 0x0
000073A2  043C 0C00 0404           subi.b     0x4, 0x0
000073A8  0C00 0404                cmpi.b     D0, 0x4
000073AC  0C00 041D                cmpi.b     D0, 0x1D
000073B0  0C00 041C                cmpi.b     D0, 0x1C
000073B4  0C00 0404                cmpi.b     D0, 0x4
000073B8  0C00 0404                cmpi.b     D0, 0x4
000073BC  0C00 041D                cmpi.b     D0, 0x1D
000073C0  0C00 041C                cmpi.b     D0, 0x1C
000073C4  0C00 0404                cmpi.b     D0, 0x4
000073C8  0C00 0404                cmpi.b     D0, 0x4
000073CC  0C00 041D                cmpi.b     D0, 0x1D
000073D0  0C00 041C                cmpi.b     D0, 0x1C
000073D4  0C00 0404                cmpi.b     D0, 0x4
000073D8  0C00 0404                cmpi.b     D0, 0x4
000073DC  0C00 041D                cmpi.b     D0, 0x1D
000073E0  0C00 041C                cmpi.b     D0, 0x1C
000073E4  0C00 0404                cmpi.b     D0, 0x4
000073E8  0C00 0404                cmpi.b     D0, 0x4
000073EC  0C00 041D                cmpi.b     D0, 0x1D
000073F0  0C00 041C                cmpi.b     D0, 0x1C
000073F4  0C00 0404                cmpi.b     D0, 0x4
000073F8  0C00 0404                cmpi.b     D0, 0x4
000073FC  1700                     move.b     -[A3], D0
000073FE  0205 0800                andi.b     D5, 0x0
00007402  0410 0C00                subi.b     [A0], 0x0
00007406  0404 80C9                subi.b     D4, 0xC9
0000740A  0002 0E08                ori.b      D2, 0x8
0000740E  0004 1A0C                ori.b      D4, 0xC
00007412  0004 040C                ori.b      D4, 0xC
00007416  0004 430C                ori.b      D4, 0xC
0000741A  0004 040C                ori.b      D4, 0xC
0000741E  0004 0481                ori.b      D4, 0x81
00007422  A100                     syscall    Open/PBHOpen/HOpen, flags=1
00007424  0210 0800                andi.b     [A0], 0x0
00007428  0443 0C00                subi.w     D3, 0xC00
0000742C  0404 0C00                subi.b     D4, 0x0
00007430  0404 0C00                subi.b     D4, 0x0
00007434  041D 0C00                subi.b     [A5]+, 0x0
00007438  041C 0C00                subi.b     [A4]+, 0x0
0000743C  0404 0C00                subi.b     D4, 0x0
00007440  0404 0600                subi.b     D4, 0x0
00007444  020C 0800                andi.b     A4, 0x0
00007448  0443 0C00                subi.w     D3, 0xC00
0000744C  0404 0C00                subi.b     D4, 0x0
00007450  0404 0A19                subi.b     D4, 0x19
00007454  0002 0808                ori.b      D2, 0x8
00007458  0004 3C0C                ori.b      D4, 0xC
0000745C  0004 040C                ori.b      D4, 0xC
00007460  0004 040C                ori.b      D4, 0xC
00007464  0004 1D0C                ori.b      D4, 0xC
00007468  0004 1C0C                ori.b      D4, 0xC
0000746C  0004 040C                ori.b      D4, 0xC
00007470  0004 0411                ori.b      D4, 0x11
00007474  0002 0408                ori.b      D2, 0x8
00007478  0004 1D0C                ori.b      D4, 0xC
0000747C  0004 1C0C                ori.b      D4, 0xC
00007480  0004 040C                ori.b      D4, 0xC
00007484  0004 0480                ori.b      D4, 0x80
00007488  8D00                     sbcd       D6, D0
0000748A  040B 0C00                subi.b     A3, 0x0
0000748E  0404 0C00                subi.b     D4, 0x0
00007492  041A 0C00                subi.b     [A2]+, 0x0
00007496  0404 0C00                subi.b     D4, 0x0
0000749A  040D 0C00                subi.b     A5, 0x0
0000749E  041A 0C00                subi.b     [A2]+, 0x0
label000074A2:
000074A2  0404 0C00                subi.b     D4, 0x0
000074A6  0404 0C00                subi.b     D4, 0x0
000074AA  0429 0C00 041C           subi.b     [A1 + 0x41C], 0x0
000074B0  0C00 0404                cmpi.b     D0, 0x4
000074B4  0C00 0404                cmpi.b     D0, 0x4
000074B8  0C00 0428                cmpi.b     D0, 0x28 /* '(' */
000074BC  0C00 0405                cmpi.b     D0, 0x5
000074C0  0C00 041C                cmpi.b     D0, 0x1C
000074C4  0C00 0404                cmpi.b     D0, 0x4
000074C8  0C00 0404                cmpi.b     D0, 0x4
000074CC  0C0C 0004                cmpi.b     A4, 0x4
label000074D0:
000074D0  040C 0004                subi.b     A4, 0x4
000074D4  280C                     move.l     D4, A4
000074D6  0004 040C                ori.b      D4, 0xC
000074DA  0004 040C                ori.b      D4, 0xC
000074DE  0004 1C0C                ori.b      D4, 0xC
000074E2  0004 230C                ori.b      D4, 0xC
000074E6  0004 0D0C                ori.b      D4, 0xC
000074EA  0004 1C0C                ori.b      D4, 0xC
000074EE  0004 040C                ori.b      D4, 0xC
000074F2  0004 040C                ori.b      D4, 0xC
000074F6  0004 3C0C                ori.b      D4, 0xC
000074FA  0004 040C                ori.b      D4, 0xC
000074FE  0004 040C                ori.b      D4, 0xC
00007502  0004 1B0C                ori.b      D4, 0xC
00007506  0004 1C0C                ori.b      D4, 0xC
0000750A  0004 040C                ori.b      D4, 0xC
0000750E  0004 040C                ori.b      D4, 0xC
00007512  0004 1E0C                ori.b      D4, 0xC
00007516  0004 050C                ori.b      D4, 0xC
0000751A  0004 040C                ori.b      D4, 0xC
0000751E  0004 040C                ori.b      D4, 0xC
00007522  0004 1C0C                ori.b      D4, 0xC
00007526  0004 100C                ori.b      D4, 0xC
0000752A  0004 040C                ori.b      D4, 0xC
0000752E  0004 1F0C                ori.b      D4, 0xC
00007532  0004 040C                ori.b      D4, 0xC
00007536  0004 040C                ori.b      D4, 0xC
0000753A  0004 1C0C                ori.b      D4, 0xC
0000753E  0004 040C                ori.b      D4, 0xC
00007542  0004 1F0C                ori.b      D4, 0xC
00007546  0004 040C                ori.b      D4, 0xC
0000754A  0004 040C                ori.b      D4, 0xC
0000754E  0004 1C0C                ori.b      D4, 0xC
00007552  0004 280C                ori.b      D4, 0xC
00007556  0004 050C                ori.b      D4, 0xC
label0000755A:
0000755A  0004 1C0C                ori.b      D4, 0xC
0000755E  0004 040C                ori.b      D4, 0xC
00007562  0004 040C                ori.b      D4, 0xC
00007566  0004 1D0C                ori.b      D4, 0xC
0000756A  0004 1C0C                ori.b      D4, 0xC
0000756E  0004 040C                ori.b      D4, 0xC
00007572  0004 040C                ori.b      D4, 0xC
00007576  0004 290C                ori.b      D4, 0xC
0000757A  0004 1C0C                ori.b      D4, 0xC
0000757E  0004 040C                ori.b      D4, 0xC
00007582  0004 040C                ori.b      D4, 0xC
00007586  0004 1C0C                ori.b      D4, 0xC
0000758A  0004 050C                ori.b      D4, 0xC
0000758E  0004 040C                ori.b      D4, 0xC
00007592  0004 040C                ori.b      D4, 0xC
00007596  0004 1C0C                ori.b      D4, 0xC
0000759A  0004 0D0C                ori.b      D4, 0xC
0000759E  0004 040C                ori.b      D4, 0xC
000075A2  0004 2C0C                ori.b      D4, 0xC
000075A6  0004 040C                ori.b      D4, 0xC
000075AA  0004 040C                ori.b      D4, 0xC
000075AE  0004 1C0C                ori.b      D4, 0xC
000075B2  0004 2C0C                ori.b      D4, 0xC
000075B6  0004 040C                ori.b      D4, 0xC
000075BA  0004 040C                ori.b      D4, 0xC
000075BE  0004 1C0C                ori.b      D4, 0xC
000075C2  0004 0C0C                ori.b      D4, 0xC
000075C6  0004 040C                ori.b      D4, 0xC
000075CA  0004 040C                ori.b      D4, 0xC
000075CE  0004 0E0C                ori.b      D4, 0xC
000075D2  0004 0F0C                ori.b      D4, 0xC
000075D6  0004 070C                ori.b      D4, 0xC
000075DA  0004 0F0C                ori.b      D4, 0xC
000075DE  0004 1A0C                ori.b      D4, 0xC
000075E2  0004 040C                ori.b      D4, 0xC
000075E6  0004 040C                ori.b      D4, 0xC
000075EA  0004 1C0C                ori.b      D4, 0xC
000075EE  0004 040C                ori.b      D4, 0xC
000075F2  0004 1A0C                ori.b      D4, 0xC
000075F6  0004 040C                ori.b      D4, 0xC
000075FA  0004 1A0C                ori.b      D4, 0xC
000075FE  0004 040C                ori.b      D4, 0xC
00007602  0004 1A0C                ori.b      D4, 0xC
00007606  0004 040C                ori.b      D4, 0xC
0000760A  0004 050C                ori.b      D4, 0xC
0000760E  0004 050C                ori.b      D4, 0xC
00007612  0004 040C                ori.b      D4, 0xC
00007616  0004 050C                ori.b      D4, 0xC
0000761A  0004 0A0C                ori.b      D4, 0xC
0000761E  0004 070C                ori.b      D4, 0xC
00007622  0004 0D0C                ori.b      D4, 0xC
00007626  0004 1A0C                ori.b      D4, 0xC
0000762A  0004 040C                ori.b      D4, 0xC
0000762E  0004 040C                ori.b      D4, 0xC
00007632  0004 070C                ori.b      D4, 0xC
00007636  0004 2C0C                ori.b      D4, 0xC
0000763A  0004 1C0C                ori.b      D4, 0xC
0000763E  0004 040C                ori.b      D4, 0xC
00007642  0004 040C                ori.b      D4, 0xC
00007646  0004 2C0C                ori.b      D4, 0xC
0000764A  0004 1C0C                ori.b      D4, 0xC
0000764E  0004 040C                ori.b      D4, 0xC
00007652  0004 040C                ori.b      D4, 0xC
00007656  0004 070C                ori.b      D4, 0xC
0000765A  0004 050C                ori.b      D4, 0xC
0000765E  0004 1C0C                ori.b      D4, 0xC
00007662  0004 040C                ori.b      D4, 0xC
00007666  0004 040C                ori.b      D4, 0xC
0000766A  0004 1C0C                ori.b      D4, 0xC
0000766E  0004 2C0C                ori.b      D4, 0xC
00007672  0004 040C                ori.b      D4, 0xC
00007676  0004 040C                ori.b      D4, 0xC
0000767A  0004 1C0C                ori.b      D4, 0xC
0000767E  0004 0E0C                ori.b      D4, 0xC
00007682  0004 1A0C                ori.b      D4, 0xC
00007686  0004 050C                ori.b      D4, 0xC
0000768A  0004 040C                ori.b      D4, 0xC
0000768E  0004 040C                ori.b      D4, 0xC
00007692  0004 070C                ori.b      D4, 0xC
00007696  0004 070C                ori.b      D4, 0xC
0000769A  0004 3C0C                ori.b      D4, 0xC
0000769E  0004 040C                ori.b      D4, 0xC
000076A2  0004 041D                ori.b      D4, 0x1D
000076A6  0004 0D0C                ori.b      D4, 0xC
000076AA  0004 1A0C                ori.b      D4, 0xC
000076AE  0004 040C                ori.b      D4, 0xC
000076B2  0004 040C                ori.b      D4, 0xC
000076B6  0004 3F0C                ori.b      D4, 0xC
000076BA  0004 040C                ori.b      D4, 0xC
000076BE  0004 040C                ori.b      D4, 0xC
000076C2  0004 310C                ori.b      D4, 0xC
000076C6  0004 040C                ori.b      D4, 0xC
000076CA  0004 040C                ori.b      D4, 0xC
000076CE  0004 1C0C                ori.b      D4, 0xC
000076D2  0004 1F0C                ori.b      D4, 0xC
000076D6  0004 050C                ori.b      D4, 0xC
000076DA  0004 1C0C                ori.b      D4, 0xC
000076DE  0004 040C                ori.b      D4, 0xC
000076E2  0004 040C                ori.b      D4, 0xC
000076E6  0004 1F0C                ori.b      D4, 0xC
000076EA  0004 050C                ori.b      D4, 0xC
000076EE  0004 1C0C                ori.b      D4, 0xC
000076F2  0004 040C                ori.b      D4, 0xC
000076F6  0004 040C                ori.b      D4, 0xC
000076FA  0004 0D0C                ori.b      D4, 0xC
000076FE  0004 050C                ori.b      D4, 0xC
00007702  0004 1A0C                ori.b      D4, 0xC
00007706  0004 040C                ori.b      D4, 0xC
0000770A  0004 040C                ori.b      D4, 0xC
0000770E  0004 050C                ori.b      D4, 0xC
00007712  0004 1D0C                ori.b      D4, 0xC
00007716  0004 040C                ori.b      D4, 0xC
0000771A  0004 040C                ori.b      D4, 0xC
0000771E  0004 1C0C                ori.b      D4, 0xC
00007722  0004 3C0C                ori.b      D4, 0xC
00007726  0004 040C                ori.b      D4, 0xC
0000772A  0004 040C                ori.b      D4, 0xC
0000772E  0004 430C                ori.b      D4, 0xC
00007732  0004 040C                ori.b      D4, 0xC
00007736  0004 0408                ori.b      D4, 0x8
0000773A  0002 0F04                ori.b      D2, 0x4
0000773E  0002 0F70                ori.b      D2, 0x70 /* 'p' */
00007742  0206 808E                andi.b     D6, 0x8E
00007746  1402                     move.b     D2, D2
00007748  0202 2202                andi.b     D2, 0x2
0000774C  0202 0500                andi.b     D2, 0x0
00007750  020C 0300                andi.b     A4, 0x0
00007754  0208 815F                andi.b     A0, 0x5F /* '_' */
00007758  0002 1305                ori.b      D2, 0x5
0000775C  0002 0C81                ori.b      D2, 0x81
00007760  6C02                     bge        +0x4 /* 00007764 */
00007762  0207 0002                andi.b     D7, 0x2
// begin alternate branch 00007764-0000776C
label00007764:
00007764  0002 0458                ori.b      D2, 0x58 /* 'X' */
00007768  0002 3C03                ori.b      D2, 0x3
// end alternate branch 00007764-0000776C
label00007764: // (misaligned)
00007766  0458 0002                subi.w     [A0]+, 0x2
0000776A  3C03                     move.w     D6, D3
0000776C  0002 1113                ori.b      D2, 0x13
00007770  0002 0404                ori.b      D2, 0x4
00007774  0002 0680                ori.b      D2, 0x80
00007778  AA02                     syscall    CloseCPort
0000777A  8082                     or.l       D0, D2
0000777C  0002 1617                ori.b      D2, 0x17
00007780  0002 0406                ori.b      D2, 0x6
00007784  0002 0A4C                ori.b      D2, 0x4C /* 'L' */
00007788  0002 0404                ori.b      D2, 0x4
0000778C  0002 2000                ori.b      D2, 0x0
00007790  0000 0000                ori.b      D0, 0x0
00007794  01B2 6D70                .incomplete
00007798  7764                     moveq.l    D3, 0x64
