# near model CODE resource
# jump table entries: 672-688 (17 of them)
fn00000000:
00000000  4E56 FFEA                link       A6, -0x0016
00000004  48E7 0300                movem.l    -[A7], D6,D7
00000008  422E 0008                clr.b      [A6 + 0x8]
0000000C  3C2D B8A2                move.w     D6, [A5 - 0x475E]
00000010  0C46 0001                cmpi.w     D6, 0x1
00000014  5DC0                     slt        D0
00000016  0C46 0028                cmpi.w     D6, 0x28 /* '(' */
0000001A  5EC1                     sgt        D1
0000001C  8001                     or.b       D0, D1
0000001E  6640                     bne        +0x42 /* 00000060 */
00000020  3D46 FFEA                move.w     [A6 - 0x16], D6
00000024  7E01                     moveq.l    D7, 0x01
00000026  602C                     bra        +0x2E /* 00000054 */
label00000028:
00000028  3007                     move.w     D0, D7
0000002A  C1FC 013A                muls.w     D0, 0x13A
0000002E  0640 BC78                addi.w     D0, 0xBC78
00000032  0C75 00C8 0000           cmpi.w     [A5 + D0.w], 0xC8
00000038  5DC0                     slt        D0
0000003A  3207                     move.w     D1, D7
0000003C  C3FC 013A                muls.w     D1, 0x13A
00000040  0641 BC78                addi.w     D1, 0xBC78
00000044  0C75 00D7 1000           cmpi.w     [A5 + D1.w], 0xD7
0000004A  5EC1                     sgt        D1
0000004C  8001                     or.b       D0, D1
0000004E  6610                     bne        +0x12 /* 00000060 */
00000050  5247                     addq.w     D7, 1
00000052  6906                     bvs        +0x8 /* 0000005A */
label00000054:
00000054  BE6E FFEA                cmp.w      D7, [A6 - 0x16]
00000058  6FCE                     ble        -0x30 /* 00000028 */
label0000005A:
0000005A  1D7C 0001 0008           move.b     [A6 + 0x8], 0x1
label00000060:
00000060  4CDF 00C0                movem.l    D6,D7, [A7]+
00000064  4E5E                     unlink     A6
00000066  4E75                     rts
fn00000068:
00000068  4E56 FCE2                link       A6, -0x031E
0000006C  48E7 0308                movem.l    -[A7], D6,D7,A4
00000070  3C2E 0008                move.w     D6, [A6 + 0x8]
00000074  A850                     syscall    InitCursor
00000076  3F2D F84A                move.w     -[A7], [A5 - 0x7B6]
0000007A  A998                     syscall    UseResFile
0000007C  4A46                     tst.w      D6
0000007E  6700 0196                beq        +0x198 /* 00000216 */
00000082  3006                     move.w     D0, D6
00000084  6000 008E                bra        +0x90 /* 00000114 */
label00000088:
00000088  486E FEEE                pea.l      [A6 - 0x112]
0000008C  3F3C 0081                move.w     -[A7], 0x81
00000090  3F3C 0001                move.w     -[A7], 0x1
00000094  4EAD 014A                jsr        [A5 + 0x14A /* export_37, CODE:1 @ 000007E4 */]
00000098  6000 00B0                bra        +0xB2 /* 0000014A */
label0000009C:
0000009C  1B7C 0001 FE87           move.b     [A5 - 0x179], 0x1
000000A2  486E FEEE                pea.l      [A6 - 0x112]
000000A6  3F3C 0081                move.w     -[A7], 0x81
000000AA  3F3C 0002                move.w     -[A7], 0x2
000000AE  4EAD 014A                jsr        [A5 + 0x14A /* export_37, CODE:1 @ 000007E4 */]
000000B2  6000 0096                bra        +0x98 /* 0000014A */
label000000B6:
000000B6  486E FEEE                pea.l      [A6 - 0x112]
000000BA  3F3C 0081                move.w     -[A7], 0x81
000000BE  3F3C 0003                move.w     -[A7], 0x3
000000C2  4EAD 014A                jsr        [A5 + 0x14A /* export_37, CODE:1 @ 000007E4 */]
000000C6  6000 0082                bra        +0x84 /* 0000014A */
label000000CA:
000000CA  486E FEEE                pea.l      [A6 - 0x112]
000000CE  3F3C 0081                move.w     -[A7], 0x81
000000D2  3F3C 0004                move.w     -[A7], 0x4
000000D6  4EAD 014A                jsr        [A5 + 0x14A /* export_37, CODE:1 @ 000007E4 */]
000000DA  6000 006E                bra        +0x70 /* 0000014A */
label000000DE:
000000DE  486E FEEE                pea.l      [A6 - 0x112]
000000E2  3F3C 0081                move.w     -[A7], 0x81
000000E6  3F3C 0005                move.w     -[A7], 0x5
000000EA  4EAD 014A                jsr        [A5 + 0x14A /* export_37, CODE:1 @ 000007E4 */]
000000EE  605A                     bra        +0x5C /* 0000014A */
label000000F0:
000000F0  486E FEEE                pea.l      [A6 - 0x112]
000000F4  3F3C 0081                move.w     -[A7], 0x81
000000F8  3F3C 0006                move.w     -[A7], 0x6
000000FC  4EAD 014A                jsr        [A5 + 0x14A /* export_37, CODE:1 @ 000007E4 */]
00000100  6048                     bra        +0x4A /* 0000014A */
label00000102:
00000102  486E FEEE                pea.l      [A6 - 0x112]
00000106  3F3C 0081                move.w     -[A7], 0x81
0000010A  3F3C 0007                move.w     -[A7], 0x7
0000010E  4EAD 014A                jsr        [A5 + 0x14A /* export_37, CODE:1 @ 000007E4 */]
00000112  6036                     bra        +0x38 /* 0000014A */
label00000114:
00000114  0640 0031                addi.w     D0, 0x31 /* '1' */
00000118  67D6                     beq        -0x28 /* 000000F0 */
0000011A  5540                     subq.w     D0, 2
0000011C  67D2                     beq        -0x2C /* 000000F0 */
0000011E  5340                     subq.w     D0, 1
00000120  67BC                     beq        -0x42 /* 000000DE */
00000122  5340                     subq.w     D0, 1
00000124  67A4                     beq        -0x5A /* 000000CA */
00000126  5340                     subq.w     D0, 1
00000128  678C                     beq        -0x72 /* 000000B6 */
0000012A  5340                     subq.w     D0, 1
0000012C  6700 FF6E                beq        -0x90 /* 0000009C */
00000130  5940                     subq.w     D0, 4
00000132  67CE                     beq        -0x30 /* 00000102 */
00000134  5B40                     subq.w     D0, 5
00000136  6700 FF50                beq        -0xAE /* 00000088 */
0000013A  486E FEEE                pea.l      [A6 - 0x112]
0000013E  3F3C 0081                move.w     -[A7], 0x81
00000142  3F3C 000A                move.w     -[A7], 0xA /* '\n' */
00000146  4EAD 014A                jsr        [A5 + 0x14A /* export_37, CODE:1 @ 000007E4 */]
label0000014A:
0000014A  3006                     move.w     D0, D6
0000014C  48C0                     ext.l      D0
0000014E  2F00                     move.l     -[A7], D0
00000150  486E FDEE                pea.l      [A6 - 0x212]
00000154  4EAD 0142                jsr        [A5 + 0x142 /* export_36, CODE:1 @ 000007D2 */]
00000158  486E FCE2                pea.l      [A6 - 0x31E]
0000015C  487A 00CC                pea.l      [PC + 0xCC /* 0000022A, value 0xD457272 '\rErr', pstring "Error code = " */]
00000160  486E FDEE                pea.l      [A6 - 0x212]
00000164  3F3C 0002                move.w     -[A7], 0x2
00000168  4EAD 002A                jsr        [A5 + 0x2A /* export_1, CODE:1 @ 00000000 */]
0000016C  584F                     addq.w     A7, 4
0000016E  3F3C 00FF                move.w     -[A7], 0xFF
00000172  486E FCE2                pea.l      [A6 - 0x31E]
00000176  486E FDEE                pea.l      [A6 - 0x212]
0000017A  4EAD 005A                jsr        [A5 + 0x5A /* export_7, CODE:1 @ 00000274 */]
0000017E  486E FEEE                pea.l      [A6 - 0x112]
00000182  486E FDEE                pea.l      [A6 - 0x212]
00000186  487A 00A0                pea.l      [PC + 0xA0 /* 00000228, value 0x120D45, cstring "" */]
0000018A  487A 009A                pea.l      [PC + 0x9A /* 00000226, value 0x160012, cstring "" */]
0000018E  A98B                     syscall    ParamText
00000190  594F                     subq.w     A7, 4
00000192  2F3C 414C 5254           move.l     -[A7], 0x414C5254 /* 'ALRT' */
00000198  3F3C 0081                move.w     -[A7], 0x81
0000019C  A81F                     syscall    Get1Resource
0000019E  285F                     movea.l    A4, [A7]+
000001A0  200C                     move.l     D0, A4
000001A2  6766                     beq        +0x68 /* 0000020A */
000001A4  2F0C                     move.l     -[A7], A4
000001A6  205F                     movea.l    A0, [A7]+
000001A8  A04A                     syscall    HNoPurge
000001AA  2054                     movea.l    A0, [A4]
000001AC  43EE FDE2                lea.l      A1, [A6 - 0x21E]
000001B0  22D8                     move.l     [A1]+, [A0]+
000001B2  22D8                     move.l     [A1]+, [A0]+
000001B4  486E FDE2                pea.l      [A6 - 0x21E]
000001B8  302E FDE4                move.w     D0, [A6 - 0x21C]
000001BC  4440                     neg.w      D0
000001BE  3F00                     move.w     -[A7], D0
000001C0  302E FDE2                move.w     D0, [A6 - 0x21E]
000001C4  4440                     neg.w      D0
000001C6  3F00                     move.w     -[A7], D0
000001C8  A8A8                     syscall    OffsetRect
000001CA  3E2D FF5C                move.w     D7, [A5 - 0xA4]
000001CE  9E6E FDE8                sub.w      D7, [A6 - 0x218]
000001D2  48C7                     ext.l      D7
000001D4  8FFC 0002                divs.w     D7, 0x2
000001D8  486E FDE2                pea.l      [A6 - 0x21E]
000001DC  3F07                     move.w     -[A7], D7
000001DE  4267                     clr.w      -[A7]
000001E0  A8A8                     syscall    OffsetRect
000001E2  3E2D FF5A                move.w     D7, [A5 - 0xA6]
000001E6  9E6E FDE6                sub.w      D7, [A6 - 0x21A]
000001EA  48C7                     ext.l      D7
000001EC  8FFC 0003                divs.w     D7, 0x3
000001F0  486E FDE2                pea.l      [A6 - 0x21E]
000001F4  4267                     clr.w      -[A7]
000001F6  3F07                     move.w     -[A7], D7
000001F8  A8A8                     syscall    OffsetRect
000001FA  2054                     movea.l    A0, [A4]
000001FC  43EE FDE2                lea.l      A1, [A6 - 0x21E]
00000200  20D9                     move.l     [A0]+, [A1]+
00000202  20D9                     move.l     [A0]+, [A1]+
00000204  2F0C                     move.l     -[A7], A4
00000206  205F                     movea.l    A0, [A7]+
00000208  A049                     syscall    HPurge
label0000020A:
0000020A  554F                     subq.w     A7, 2
0000020C  3F3C 0081                move.w     -[A7], 0x81
00000210  42A7                     clr.l      -[A7]
00000212  A985                     syscall    Alert
00000214  3E1F                     move.w     D7, [A7]+
label00000216:
00000216  3D46 000A                move.w     [A6 + 0xA], D6
0000021A  4CDF 10C0                movem.l    D6,D7,A4, [A7]+
0000021E  4E5E                     unlink     A6
00000220  205F                     movea.l    A0, [A7]+
00000222  544F                     addq.w     A7, 2
00000224  4ED0                     jmp        [A0]
00000226  0016 0012                ori.b      [A6], 0x12
0000022A  0D45                     bchg       D5, D6
0000022C  7272                     moveq.l    D1, 0x72
0000022E  6F72                     ble        +0x74 /* 000002A2 */
00000230  2063                     movea.l    A0, -[A3]
00000232  6F64                     ble        +0x66 /* 00000298 */
00000234  6520                     bcs        +0x22 /* 00000256 */
00000236  3D20                     move.w     -[A6], -[A0]
fn00000238:
00000238  4E56 FFE8                link       A6, -0x0018
0000023C  422E 0008                clr.b      [A6 + 0x8]
00000240  554F                     subq.w     A7, 2
00000242  42A7                     clr.l      -[A7]
00000244  3F2D F876                move.w     -[A7], [A5 - 0x78A]
00000248  4EAD 00D2                jsr        [A5 + 0xD2 /* export_22, CODE:1 @ 0000060E */]
0000024C  3B5F EEB6                move.w     [A5 - 0x114A], [A7]+
00000250  554F                     subq.w     A7, 2
00000252  3F2D EEB6                move.w     -[A7], [A5 - 0x114A]
label00000256:
00000256  4EBA FE10                jsr        [PC - 0x1F0 /* 00000068 */]
0000025A  4A5F                     tst.w      [A7]+
0000025C  6600 0100                bne        +0x102 /* 0000035E */
00000260  554F                     subq.w     A7, 2
00000262  486D F984                pea.l      [A5 - 0x67C]
00000266  3F2D F876                move.w     -[A7], [A5 - 0x78A]
0000026A  486D F872                pea.l      [A5 - 0x78E]
0000026E  4EAD 00A2                jsr        [A5 + 0xA2 /* export_16, CODE:1 @ 00000514 */]
00000272  3B5F EEB6                move.w     [A5 - 0x114A], [A7]+
00000276  554F                     subq.w     A7, 2
00000278  3F2D EEB6                move.w     -[A7], [A5 - 0x114A]
0000027C  4EBA FDEA                jsr        [PC - 0x216 /* 00000068 */]
00000280  4A5F                     tst.w      [A7]+
00000282  675E                     beq        +0x60 /* 000002E2 */
00000284  554F                     subq.w     A7, 2
00000286  4267                     clr.w      -[A7]
00000288  4EBA 018E                jsr        [PC + 0x18E /* 00000418 */]
0000028C  101F                     move.b     D0, [A7]+
0000028E  5300                     subq.b     D0, 1
00000290  6716                     beq        +0x18 /* 000002A8 */
00000292  422D FE7D                clr.b      [A5 - 0x183]
00000296  554F                     subq.w     A7, 2
label00000298:
00000298  3F2D F872                move.w     -[A7], [A5 - 0x78E]
0000029C  4EAD 00AA                jsr        [A5 + 0xAA /* export_17, CODE:1 @ 00000554 */]
000002A0  3B5F EEB6                move.w     [A5 - 0x114A], [A7]+
// begin alternate branch 000002A2-000002A4
label000002A2:
000002A2  EEB6                     roxr       D6, D7
// end alternate branch 000002A2-000002A4
label000002A2: // (misaligned)
000002A4  6000 00B8                bra        +0xBA /* 0000035E */
label000002A8:
000002A8  554F                     subq.w     A7, 2
000002AA  486D F984                pea.l      [A5 - 0x67C]
000002AE  3F2D F876                move.w     -[A7], [A5 - 0x78A]
000002B2  486D F872                pea.l      [A5 - 0x78E]
000002B6  4EAD 00A2                jsr        [A5 + 0xA2 /* export_16, CODE:1 @ 00000514 */]
000002BA  3B5F EEB6                move.w     [A5 - 0x114A], [A7]+
000002BE  554F                     subq.w     A7, 2
000002C0  3F2D EEB6                move.w     -[A7], [A5 - 0x114A]
000002C4  4EBA FDA2                jsr        [PC - 0x25E /* 00000068 */]
000002C8  4A5F                     tst.w      [A7]+
000002CA  6716                     beq        +0x18 /* 000002E2 */
000002CC  422D FE7D                clr.b      [A5 - 0x183]
000002D0  554F                     subq.w     A7, 2
000002D2  3F2D F872                move.w     -[A7], [A5 - 0x78E]
000002D6  4EAD 00AA                jsr        [A5 + 0xAA /* export_17, CODE:1 @ 00000554 */]
000002DA  3B5F EEB6                move.w     [A5 - 0x114A], [A7]+
000002DE  6000 007E                bra        +0x80 /* 0000035E */
label000002E2:
000002E2  554F                     subq.w     A7, 2
000002E4  3F2D F872                move.w     -[A7], [A5 - 0x78E]
000002E8  3F3C 0001                move.w     -[A7], 0x1
000002EC  42A7                     clr.l      -[A7]
000002EE  4EAD 00F2                jsr        [A5 + 0xF2 /* export_26, CODE:1 @ 000006AC */]
000002F2  3B5F EEB6                move.w     [A5 - 0x114A], [A7]+
000002F6  554F                     subq.w     A7, 2
000002F8  3F2D EEB6                move.w     -[A7], [A5 - 0x114A]
000002FC  4EBA FD6A                jsr        [PC - 0x296 /* 00000068 */]
00000300  4A5F                     tst.w      [A7]+
00000302  6714                     beq        +0x16 /* 00000318 */
00000304  422D FE7D                clr.b      [A5 - 0x183]
00000308  554F                     subq.w     A7, 2
0000030A  3F2D F872                move.w     -[A7], [A5 - 0x78E]
0000030E  4EAD 00AA                jsr        [A5 + 0xAA /* export_17, CODE:1 @ 00000554 */]
00000312  3B5F EEB6                move.w     [A5 - 0x114A], [A7]+
00000316  6046                     bra        +0x48 /* 0000035E */
label00000318:
00000318  2D7C 0000 3606 FFEA      move.l     [A6 - 0x16], 0x3606
00000320  554F                     subq.w     A7, 2
00000322  3F2D F872                move.w     -[A7], [A5 - 0x78E]
00000326  486E FFEA                pea.l      [A6 - 0x16]
0000032A  486D B8A0                pea.l      [A5 - 0x4760]
0000032E  4EAD 00B2                jsr        [A5 + 0xB2 /* export_18, CODE:1 @ 0000056E */]
00000332  3B5F EEB6                move.w     [A5 - 0x114A], [A7]+
00000336  554F                     subq.w     A7, 2
00000338  3F2D EEB6                move.w     -[A7], [A5 - 0x114A]
0000033C  4EBA FD2A                jsr        [PC - 0x2D6 /* 00000068 */]
00000340  4A5F                     tst.w      [A7]+
00000342  6714                     beq        +0x16 /* 00000358 */
00000344  422D FE7D                clr.b      [A5 - 0x183]
00000348  554F                     subq.w     A7, 2
0000034A  3F2D F872                move.w     -[A7], [A5 - 0x78E]
0000034E  4EAD 00AA                jsr        [A5 + 0xAA /* export_17, CODE:1 @ 00000554 */]
00000352  3B5F EEB6                move.w     [A5 - 0x114A], [A7]+
00000356  6006                     bra        +0x8 /* 0000035E */
label00000358:
00000358  1D7C 0001 0008           move.b     [A6 + 0x8], 0x1
label0000035E:
0000035E  4E5E                     unlink     A6
00000360  4E75                     rts
export_84:
00000362  4E56 FEE2                link       A6, -0x011E
00000366  3D6E 000C 000E           move.w     [A6 + 0xE], [A6 + 0xC]
0000036C  302E 000C                move.w     D0, [A6 + 0xC]
00000370  6042                     bra        +0x44 /* 000003B4 */
label00000372:
00000372  486E FEE2                pea.l      [A6 - 0x11E]
00000376  3F3C 0082                move.w     -[A7], 0x82
0000037A  3F2D FE8C                move.w     -[A7], [A5 - 0x174]
0000037E  4EAD 014A                jsr        [A5 + 0x14A /* export_37, CODE:1 @ 000007E4 */]
00000382  4A2E FEE2                tst.b      [A6 - 0x11E]
00000386  6722                     beq        +0x24 /* 000003AA */
00000388  2F2E 0008                move.l     -[A7], [A6 + 0x8]
0000038C  3F3C 000B                move.w     -[A7], 0xB
00000390  486E FFE2                pea.l      [A6 - 0x1E]
00000394  486E FFEC                pea.l      [A6 - 0x14]
00000398  486E FFE4                pea.l      [A6 - 0x1C]
0000039C  A98D                     syscall    GetDialogItem/GetDItem
0000039E  2F2E FFEC                move.l     -[A7], [A6 - 0x14]
000003A2  486E FEE2                pea.l      [A6 - 0x11E]
000003A6  A98F                     syscall    SetDialogItemText/SetIText
000003A8  600E                     bra        +0x10 /* 000003B8 */
label000003AA:
000003AA  3F3C 000C                move.w     -[A7], 0xC
000003AE  4EAD 019A                jsr        [A5 + 0x19A /* export_47, CODE:1 @ 00000BA6 */]
000003B2  6004                     bra        +0x6 /* 000003B8 */
label000003B4:
000003B4  5240                     addq.w     D0, 1
000003B6  67BA                     beq        -0x44 /* 00000372 */
label000003B8:
000003B8  4E5E                     unlink     A6
000003BA  205F                     movea.l    A0, [A7]+
000003BC  5C4F                     addq.w     A7, 6
000003BE  4ED0                     jmp        [A0]
export_85:
000003C0  4E56 0000                link       A6, 0
000003C4  2F0C                     move.l     -[A7], A4
000003C6  1D7C 0001 000C           move.b     [A6 + 0xC], 0x1
000003CC  206E 0008                movea.l    A0, [A6 + 0x8]
000003D0  49E8 0020                lea.l      A4, [A0 + 0x20]
000003D4  302D FE8C                move.w     D0, [A5 - 0x174]
000003D8  602A                     bra        +0x2C /* 00000404 */
label000003DA:
000003DA  0C94 474C 6873           cmpi.l     [A4], 0x474C6873 /* 'GLhs' */
000003E0  662E                     bne        +0x30 /* 00000410 */
000003E2  422E 000C                clr.b      [A6 + 0xC]
000003E6  6028                     bra        +0x2A /* 00000410 */
label000003E8:
000003E8  0C94 474C 626B           cmpi.l     [A4], 0x474C626B /* 'GLbk' */
000003EE  6620                     bne        +0x22 /* 00000410 */
000003F0  422E 000C                clr.b      [A6 + 0xC]
000003F4  601A                     bra        +0x1C /* 00000410 */
label000003F6:
000003F6  0C94 474C 676D           cmpi.l     [A4], 0x474C676D /* 'GLgm' */
000003FC  6612                     bne        +0x14 /* 00000410 */
000003FE  422E 000C                clr.b      [A6 + 0xC]
00000402  600C                     bra        +0xE /* 00000410 */
label00000404:
00000404  5340                     subq.w     D0, 1
00000406  67D2                     beq        -0x2C /* 000003DA */
00000408  5340                     subq.w     D0, 1
0000040A  67DC                     beq        -0x22 /* 000003E8 */
0000040C  5340                     subq.w     D0, 1
0000040E  67E6                     beq        -0x18 /* 000003F6 */
label00000410:
00000410  285F                     movea.l    A4, [A7]+
00000412  4E5E                     unlink     A6
00000414  2E9F                     move.l     [A7], [A7]+
00000416  4E75                     rts
export_86:
fn00000418:
00000418  4E56 FF92                link       A6, -0x006E
0000041C  3F2D F84A                move.w     -[A7], [A5 - 0x7B6]
00000420  A998                     syscall    UseResFile
00000422  486E FFEC                pea.l      [A6 - 0x14]
00000426  302D F846                move.w     D0, [A5 - 0x7BA]
0000042A  0640 0055                addi.w     D0, 0x55 /* 'U' */
0000042E  3F00                     move.w     -[A7], D0
00000430  302D F848                move.w     D0, [A5 - 0x7B8]
00000434  0640 0032                addi.w     D0, 0x32 /* '2' */
00000438  3F00                     move.w     -[A7], D0
0000043A  A880                     syscall    SetPt
0000043C  302E 0008                move.w     D0, [A6 + 0x8]
00000440  5240                     addq.w     D0, 1
00000442  3B40 FE8C                move.w     [A5 - 0x174], D0
00000446  2F2E FFEC                move.l     -[A7], [A6 - 0x14]
0000044A  487A 0090                pea.l      [PC + 0x90 /* 000004DC, value 0x124E56, cstring "" */]
0000044E  486D 02CA                pea.l      [A5 + 0x2CA /* export_85, CODE:4 @ 000003C0 */]
00000452  3F3C FFFF                move.w     -[A7], 0xFFFF
00000456  486E FFDC                pea.l      [A6 - 0x24]
0000045A  486D 02C2                pea.l      [A5 + 0x2C2 /* export_84, CODE:4 @ 00000362 */]
0000045E  486E FF92                pea.l      [A6 - 0x6E]
00000462  3F3C 0100                move.w     -[A7], 0x100
00000466  42A7                     clr.l      -[A7]
00000468  3F3C 0004                move.w     -[A7], 0x4
0000046C  A9EA                     syscall    Pack3
0000046E  4A2E FF92                tst.b      [A6 - 0x6E]
00000472  675A                     beq        +0x5C /* 000004CE */
00000474  302E 0008                move.w     D0, [A6 + 0x8]
00000478  6048                     bra        +0x4A /* 000004C2 */
label0000047A:
0000047A  3F3C 0020                move.w     -[A7], 0x20 /* ' ' */
0000047E  486E FF9C                pea.l      [A6 - 0x64]
00000482  486D F984                pea.l      [A5 - 0x67C]
00000486  4EAD 005A                jsr        [A5 + 0x5A /* export_7, CODE:1 @ 00000274 */]
0000048A  3B6E FF98 F876           move.w     [A5 - 0x78A], [A6 - 0x68]
00000490  603C                     bra        +0x3E /* 000004CE */
label00000492:
00000492  3F3C 0020                move.w     -[A7], 0x20 /* ' ' */
00000496  486E FF9C                pea.l      [A6 - 0x64]
0000049A  486D F91E                pea.l      [A5 - 0x6E2]
0000049E  4EAD 005A                jsr        [A5 + 0x5A /* export_7, CODE:1 @ 00000274 */]
000004A2  3B6E FF98 F87A           move.w     [A5 - 0x786], [A6 - 0x68]
000004A8  6024                     bra        +0x26 /* 000004CE */
label000004AA:
000004AA  3F3C 0020                move.w     -[A7], 0x20 /* ' ' */
000004AE  486E FF9C                pea.l      [A6 - 0x64]
000004B2  486D F8FC                pea.l      [A5 - 0x704]
000004B6  4EAD 005A                jsr        [A5 + 0x5A /* export_7, CODE:1 @ 00000274 */]
000004BA  3B6E FF98 F878           move.w     [A5 - 0x788], [A6 - 0x68]
000004C0  600C                     bra        +0xE /* 000004CE */
label000004C2:
000004C2  67B6                     beq        -0x48 /* 0000047A */
000004C4  5340                     subq.w     D0, 1
000004C6  67CA                     beq        -0x34 /* 00000492 */
000004C8  5340                     subq.w     D0, 1
000004CA  67DE                     beq        -0x20 /* 000004AA */
000004CC  6006                     bra        +0x8 /* 000004D4 */
label000004CE:
000004CE  1D6E FF92 000A           move.b     [A6 + 0xA], [A6 - 0x6E]
label000004D4:
000004D4  4E5E                     unlink     A6
000004D6  205F                     movea.l    A0, [A7]+
000004D8  544F                     addq.w     A7, 2
000004DA  4ED0                     jmp        [A0]
000004DC  0012 4E56                ori.b      [A2], 0x56 /* 'V' */
// begin alternate branch 000004DE-000004E4
fn000004DE:
000004DE  4E56 0000                link       A6, 0
000004E2  554F                     subq.w     A7, 2
// end alternate branch 000004DE-000004E4
fn000004DE: // (misaligned)
000004E0  0000 554F                ori.b      D0, 0x4F /* 'O' */
000004E4  3F2D F872                move.w     -[A7], [A5 - 0x78E]
000004E8  4EAD 00AA                jsr        [A5 + 0xAA /* export_17, CODE:1 @ 00000554 */]
000004EC  3B5F EEB6                move.w     [A5 - 0x114A], [A7]+
000004F0  4A6D EEB6                tst.w      [A5 - 0x114A]
000004F4  670A                     beq        +0xC /* 00000500 */
000004F6  3F2D EEB6                move.w     -[A7], [A5 - 0x114A]
000004FA  4EAD 019A                jsr        [A5 + 0x19A /* export_47, CODE:1 @ 00000BA6 */]
000004FE  601E                     bra        +0x20 /* 0000051E */
label00000500:
00000500  554F                     subq.w     A7, 2
00000502  42A7                     clr.l      -[A7]
00000504  3F2E 0008                move.w     -[A7], [A6 + 0x8]
00000508  4EAD 00DA                jsr        [A5 + 0xDA /* export_23, CODE:1 @ 0000062E */]
0000050C  3B5F EEB6                move.w     [A5 - 0x114A], [A7]+
00000510  4A6D EEB6                tst.w      [A5 - 0x114A]
00000514  6708                     beq        +0xA /* 0000051E */
00000516  3F2D EEB6                move.w     -[A7], [A5 - 0x114A]
0000051A  4EAD 019A                jsr        [A5 + 0x19A /* export_47, CODE:1 @ 00000BA6 */]
label0000051E:
0000051E  4E5E                     unlink     A6
00000520  205F                     movea.l    A0, [A7]+
00000522  544F                     addq.w     A7, 2
00000524  4ED0                     jmp        [A0]
export_87:
fn00000526:
00000526  4E56 FFEE                link       A6, -0x0012
0000052A  422E 0008                clr.b      [A6 + 0x8]
0000052E  554F                     subq.w     A7, 2
00000530  4EBA FD06                jsr        [PC - 0x2FA /* 00000238 */]
00000534  101F                     move.b     D0, [A7]+
00000536  5300                     subq.b     D0, 1
00000538  670A                     beq        +0xC /* 00000544 */
0000053A  3F3C 0017                move.w     -[A7], 0x17
0000053E  4EAD 019A                jsr        [A5 + 0x19A /* export_47, CODE:1 @ 00000BA6 */]
00000542  6024                     bra        +0x26 /* 00000568 */
label00000544:
00000544  3F2D F876                move.w     -[A7], [A5 - 0x78A]
00000548  4EBA FF94                jsr        [PC - 0x6C /* 000004DE */]
0000054C  554F                     subq.w     A7, 2
0000054E  4EBA FAB0                jsr        [PC - 0x550 /* 00000000 */]
00000552  101F                     move.b     D0, [A7]+
00000554  5300                     subq.b     D0, 1
00000556  670A                     beq        +0xC /* 00000562 */
00000558  3F3C 000F                move.w     -[A7], 0xF
0000055C  4EAD 019A                jsr        [A5 + 0x19A /* export_47, CODE:1 @ 00000BA6 */]
00000560  6006                     bra        +0x8 /* 00000568 */
label00000562:
00000562  1D7C 0001 0008           move.b     [A6 + 0x8], 0x1
label00000568:
00000568  4E5E                     unlink     A6
0000056A  4E75                     rts
fn0000056C:
0000056C  4E56 F00C                link       A6, -0x0FF4
00000570  48E7 0318                movem.l    -[A7], D6,D7,A3,A4
00000574  422E 0008                clr.b      [A6 + 0x8]
00000578  2D7C 0000 0FDC F00C      move.l     [A6 - 0xFF4], 0xFDC
00000580  554F                     subq.w     A7, 2
00000582  42A7                     clr.l      -[A7]
00000584  3F2D F878                move.w     -[A7], [A5 - 0x788]
00000588  4EAD 00D2                jsr        [A5 + 0xD2 /* export_22, CODE:1 @ 0000060E */]
0000058C  3B5F EEB6                move.w     [A5 - 0x114A], [A7]+
00000590  554F                     subq.w     A7, 2
00000592  3F2D EEB6                move.w     -[A7], [A5 - 0x114A]
00000596  4EBA FAD0                jsr        [PC - 0x530 /* 00000068 */]
0000059A  4A5F                     tst.w      [A7]+
0000059C  6600 023C                bne        +0x23E /* 000007DA */
000005A0  554F                     subq.w     A7, 2
000005A2  486D F8FC                pea.l      [A5 - 0x704]
000005A6  3F2D F878                move.w     -[A7], [A5 - 0x788]
000005AA  486D F870                pea.l      [A5 - 0x790]
000005AE  4EAD 00A2                jsr        [A5 + 0xA2 /* export_16, CODE:1 @ 00000514 */]
000005B2  3B5F EEB6                move.w     [A5 - 0x114A], [A7]+
000005B6  554F                     subq.w     A7, 2
000005B8  3F2D EEB6                move.w     -[A7], [A5 - 0x114A]
000005BC  4EBA FAAA                jsr        [PC - 0x556 /* 00000068 */]
000005C0  4A5F                     tst.w      [A7]+
000005C2  674A                     beq        +0x4C /* 0000060E */
000005C4  0C6D FFD5 EEB6           cmpi.w     [A5 - 0x114A], 0xFFD5
000005CA  57C0                     seq        D0
000005CC  2F00                     move.l     -[A7], D0
000005CE  554F                     subq.w     A7, 2
000005D0  3F3C 0002                move.w     -[A7], 0x2
000005D4  4EBA FE42                jsr        [PC - 0x1BE /* 00000418 */]
000005D8  121F                     move.b     D1, [A7]+
000005DA  201F                     move.l     D0, [A7]+
000005DC  C001                     and.b      D0, D1
000005DE  6700 01FA                beq        +0x1FC /* 000007DA */
000005E2  554F                     subq.w     A7, 2
000005E4  486D F8FC                pea.l      [A5 - 0x704]
000005E8  3F2D F878                move.w     -[A7], [A5 - 0x788]
000005EC  486D F870                pea.l      [A5 - 0x790]
000005F0  4EAD 00A2                jsr        [A5 + 0xA2 /* export_16, CODE:1 @ 00000514 */]
000005F4  3B5F EEB6                move.w     [A5 - 0x114A], [A7]+
000005F8  554F                     subq.w     A7, 2
000005FA  3F2D EEB6                move.w     -[A7], [A5 - 0x114A]
000005FE  4EBA FA68                jsr        [PC - 0x598 /* 00000068 */]
00000602  4A5F                     tst.w      [A7]+
00000604  6600 01D4                bne        +0x1D6 /* 000007DA */
00000608  6004                     bra        +0x6 /* 0000060E */
0000060A  6000 01CE                bra        +0x1D0 /* 000007DA */
label0000060E:
0000060E  554F                     subq.w     A7, 2
00000610  3F2D F870                move.w     -[A7], [A5 - 0x790]
00000614  3F3C 0001                move.w     -[A7], 0x1
00000618  42A7                     clr.l      -[A7]
0000061A  4EAD 00F2                jsr        [A5 + 0xF2 /* export_26, CODE:1 @ 000006AC */]
0000061E  3B5F EEB6                move.w     [A5 - 0x114A], [A7]+
00000622  554F                     subq.w     A7, 2
00000624  3F2D EEB6                move.w     -[A7], [A5 - 0x114A]
00000628  4EBA FA3E                jsr        [PC - 0x5C2 /* 00000068 */]
0000062C  4A5F                     tst.w      [A7]+
0000062E  6716                     beq        +0x18 /* 00000646 */
00000630  422D FE7D                clr.b      [A5 - 0x183]
00000634  554F                     subq.w     A7, 2
00000636  3F2D F870                move.w     -[A7], [A5 - 0x790]
0000063A  4EAD 00AA                jsr        [A5 + 0xAA /* export_17, CODE:1 @ 00000554 */]
0000063E  3B5F EEB6                move.w     [A5 - 0x114A], [A7]+
00000642  6000 0196                bra        +0x198 /* 000007DA */
label00000646:
00000646  554F                     subq.w     A7, 2
00000648  3F2D F870                move.w     -[A7], [A5 - 0x790]
0000064C  486E F00C                pea.l      [A6 - 0xFF4]
00000650  486E F014                pea.l      [A6 - 0xFEC]
00000654  4EAD 00B2                jsr        [A5 + 0xB2 /* export_18, CODE:1 @ 0000056E */]
00000658  3B5F EEB6                move.w     [A5 - 0x114A], [A7]+
0000065C  554F                     subq.w     A7, 2
0000065E  3F2D EEB6                move.w     -[A7], [A5 - 0x114A]
00000662  4EBA FA04                jsr        [PC - 0x5FC /* 00000068 */]
00000666  4A5F                     tst.w      [A7]+
00000668  6716                     beq        +0x18 /* 00000680 */
0000066A  422D FE7D                clr.b      [A5 - 0x183]
0000066E  554F                     subq.w     A7, 2
00000670  3F2D F870                move.w     -[A7], [A5 - 0x790]
00000674  4EAD 00AA                jsr        [A5 + 0xAA /* export_17, CODE:1 @ 00000554 */]
00000678  3B5F EEB6                move.w     [A5 - 0x114A], [A7]+
0000067C  6000 015C                bra        +0x15E /* 000007DA */
label00000680:
00000680  554F                     subq.w     A7, 2
00000682  3F2D F870                move.w     -[A7], [A5 - 0x790]
00000686  4EAD 00AA                jsr        [A5 + 0xAA /* export_17, CODE:1 @ 00000554 */]
0000068A  3B5F EEB6                move.w     [A5 - 0x114A], [A7]+
0000068E  554F                     subq.w     A7, 2
00000690  3F2D EEB6                move.w     -[A7], [A5 - 0x114A]
00000694  4EBA F9D2                jsr        [PC - 0x62E /* 00000068 */]
00000698  4A5F                     tst.w      [A7]+
0000069A  6716                     beq        +0x18 /* 000006B2 */
0000069C  422D FE7D                clr.b      [A5 - 0x183]
000006A0  554F                     subq.w     A7, 2
000006A2  3F2D F870                move.w     -[A7], [A5 - 0x790]
000006A6  4EAD 00AA                jsr        [A5 + 0xAA /* export_17, CODE:1 @ 00000554 */]
000006AA  3B5F EEB6                move.w     [A5 - 0x114A], [A7]+
000006AE  6000 012A                bra        +0x12C /* 000007DA */
label000006B2:
000006B2  0C6E 0200 F014           cmpi.w     [A6 - 0xFEC], 0x200
000006B8  6D0C                     blt        +0xE /* 000006C6 */
000006BA  3F3C 0016                move.w     -[A7], 0x16
000006BE  4EAD 019A                jsr        [A5 + 0x19A /* export_47, CODE:1 @ 00000BA6 */]
000006C2  6000 0116                bra        +0x118 /* 000007DA */
label000006C6:
000006C6  3B6E F01A F868           move.w     [A5 - 0x798], [A6 - 0xFE6]
000006CC  3B6E F01C F86A           move.w     [A5 - 0x796], [A6 - 0xFE4]
000006D2  3B6E F01E F858           move.w     [A5 - 0x7A8], [A6 - 0xFE2]
000006D8  3B6E F020 F644           move.w     [A5 - 0x9BC], [A6 - 0xFE0]
000006DE  3B6E F022 F646           move.w     [A5 - 0x9BA], [A6 - 0xFDE]
000006E4  3B7C 0004 F640           move.w     [A5 - 0x9C0], 0x4
000006EA  1B6E F024 F648           move.b     [A5 - 0x9B8], [A6 - 0xFDC]
000006F0  1B6E F025 FE6A           move.b     [A5 - 0x196], [A6 - 0xFDB]
000006F6  2B6E F026 F81E           move.l     [A5 - 0x7E2], [A6 - 0xFDA]
000006FC  2B6E F02A F822           move.l     [A5 - 0x7DE], [A6 - 0xFD6]
00000702  2B6E F02E F82E           move.l     [A5 - 0x7D2], [A6 - 0xFD2]
00000708  3F3C 0020                move.w     -[A7], 0x20 /* ' ' */
0000070C  486E F032                pea.l      [A6 - 0xFCE]
00000710  486D F984                pea.l      [A5 - 0x67C]
00000714  4EAD 005A                jsr        [A5 + 0x5A /* export_7, CODE:1 @ 00000274 */]
00000718  3F3C 0020                move.w     -[A7], 0x20 /* ' ' */
0000071C  486E F054                pea.l      [A6 - 0xFAC]
00000720  486D F940                pea.l      [A5 - 0x6C0]
00000724  4EAD 005A                jsr        [A5 + 0x5A /* export_7, CODE:1 @ 00000274 */]
00000728  4EAD 01B2                jsr        [A5 + 0x1B2 /* export_50, CODE:1 @ 00000F84 */]
0000072C  202D F81E                move.l     D0, [A5 - 0x7E2]
00000730  D0AD F822                add.l      D0, [A5 - 0x7DE]
00000734  2B40 F826                move.l     [A5 - 0x7DA], D0
00000738  554F                     subq.w     A7, 2
0000073A  4EBA FDEA                jsr        [PC - 0x216 /* 00000526 */]
0000073E  101F                     move.b     D0, [A7]+
00000740  5300                     subq.b     D0, 1
00000742  670C                     beq        +0xE /* 00000750 */
00000744  3F3C 0017                move.w     -[A7], 0x17
00000748  4EAD 019A                jsr        [A5 + 0x19A /* export_47, CODE:1 @ 00000BA6 */]
0000074C  6000 008C                bra        +0x8E /* 000007DA */
label00000750:
00000750  202E F016                move.l     D0, [A6 - 0xFEA]
00000754  B0AD B8A4                cmp.l      D0, [A5 - 0x475C]
00000758  6708                     beq        +0xA /* 00000762 */
0000075A  3F3C 0018                move.w     -[A7], 0x18
0000075E  4EAD 019A                jsr        [A5 + 0x19A /* export_47, CODE:1 @ 00000BA6 */]
label00000762:
00000762  7C01                     moveq.l    D6, 0x01
label00000764:
00000764  41EE F077                lea.l      A0, [A6 - 0xF89]
00000768  43ED F649                lea.l      A1, [A5 - 0x9B7]
0000076C  13B0 6000 6000           move.b     [A1 + D6.w], [A0 + D6.w]
00000772  3006                     move.w     D0, D6
00000774  C1FC 0062                muls.w     D0, 0x62 /* 'b' */
00000778  0640 F03E                addi.w     D0, 0xF03E
0000077C  49F6 0000                lea.l      A4, [A6 + D0.w]
00000780  3006                     move.w     D0, D6
00000782  C1FC 013A                muls.w     D0, 0x13A
00000786  0640 BC5C                addi.w     D0, 0xBC5C
0000078A  47F5 0000                lea.l      A3, [A5 + D0.w]
0000078E  3754 0038                move.w     [A3 + 0x38], [A4]
00000792  7E01                     moveq.l    D7, 0x01
label00000794:
00000794  3007                     move.w     D0, D7
00000796  C1FC 0006                muls.w     D0, 0x6
0000079A  3207                     move.w     D1, D7
0000079C  E941                     asl        D1.w, 4
0000079E  37B4 00FC 1034           move.w     [A3 + D1.w + 0x34], [A4 + D0.w - 0x4]
000007A4  3007                     move.w     D0, D7
000007A6  C1FC 0006                muls.w     D0, 0x6
000007AA  3207                     move.w     D1, D7
000007AC  E941                     asl        D1.w, 4
000007AE  37B4 00FE 1036           move.w     [A3 + D1.w + 0x36], [A4 + D0.w - 0x2]
000007B4  3007                     move.w     D0, D7
000007B6  C1FC 0006                muls.w     D0, 0x6
000007BA  3207                     move.w     D1, D7
000007BC  E941                     asl        D1.w, 4
000007BE  17B4 0000 1038           move.b     [A3 + D1.w + 0x38], [A4 + D0.w]
000007C4  5247                     addq.w     D7, 1
000007C6  0C47 0010                cmpi.w     D7, 0x10
000007CA  6FC8                     ble        -0x36 /* 00000794 */
000007CC  5246                     addq.w     D6, 1
000007CE  0C46 0028                cmpi.w     D6, 0x28 /* '(' */
000007D2  6F90                     ble        -0x6E /* 00000764 */
000007D4  1D7C 0001 0008           move.b     [A6 + 0x8], 0x1
label000007DA:
000007DA  4CDF 18C0                movem.l    D6,D7,A3,A4, [A7]+
000007DE  4E5E                     unlink     A6
000007E0  4E75                     rts
fn000007E2:
000007E2  4E56 F00A                link       A6, -0x0FF6
000007E6  48E7 0718                movem.l    -[A7], D5,D6,D7,A3,A4
000007EA  3A2E 000A                move.w     D5, [A6 + 0xA]
000007EE  422E 000C                clr.b      [A6 + 0xC]
000007F2  3D6D F86C F00A           move.w     [A6 - 0xFF6], [A5 - 0x794]
000007F8  7E01                     moveq.l    D7, 0x01
000007FA  6000 0074                bra        +0x76 /* 00000870 */
label000007FE:
000007FE  3007                     move.w     D0, D7
00000800  C1FC 000C                muls.w     D0, 0xC
00000804  0640 FD9A                addi.w     D0, 0xFD9A
00000808  2035 0000                move.l     D0, [A5 + D0.w]
0000080C  6046                     bra        +0x48 /* 00000854 */
label0000080E:
0000080E  3007                     move.w     D0, D7
00000810  C1FC 000C                muls.w     D0, 0xC
00000814  322D F868                move.w     D1, [A5 - 0x798]
00000818  C3FC 013A                muls.w     D1, 0x13A
0000081C  3407                     move.w     D2, D7
0000081E  E942                     asl        D2.w, 4
00000820  D242                     add.w      D1, D2
00000822  0640 FDA0                addi.w     D0, 0xFDA0
00000826  0641 BC90                addi.w     D1, 0xBC90
0000082A  3BB5 0000 1000           move.w     [A5 + D1.w], [A5 + D0.w]
00000830  603A                     bra        +0x3C /* 0000086C */
label00000832:
00000832  102D FE6F                move.b     D0, [A5 - 0x191]
00000836  5300                     subq.b     D0, 1
00000838  122D FE70                move.b     D1, [A5 - 0x190]
0000083C  5301                     subq.b     D1, 1
0000083E  C001                     and.b      D0, D1
00000840  672A                     beq        +0x2C /* 0000086C */
00000842  302D F868                move.w     D0, [A5 - 0x798]
00000846  C1FC 013A                muls.w     D0, 0x13A
0000084A  0640 BC94                addi.w     D0, 0xBC94
0000084E  4275 0000                clr.w      [A5 + D0.w]
00000852  6018                     bra        +0x1A /* 0000086C */
label00000854:
00000854  5180                     subq.l     D0, 8
00000856  67B6                     beq        -0x48 /* 0000080E */
00000858  5380                     subq.l     D0, 1
0000085A  67B2                     beq        -0x4C /* 0000080E */
0000085C  5780                     subq.l     D0, 3
0000085E  67AE                     beq        -0x50 /* 0000080E */
00000860  5380                     subq.l     D0, 1
00000862  67AA                     beq        -0x54 /* 0000080E */
00000864  5580                     subq.l     D0, 2
00000866  67CA                     beq        -0x34 /* 00000832 */
00000868  5580                     subq.l     D0, 2
0000086A  67C6                     beq        -0x38 /* 00000832 */
label0000086C:
0000086C  5247                     addq.w     D7, 1
0000086E  6906                     bvs        +0x8 /* 00000876 */
label00000870:
00000870  BE6E F00A                cmp.w      D7, [A6 - 0xFF6]
00000874  6F88                     ble        -0x76 /* 000007FE */
label00000876:
00000876  4EAD 01B2                jsr        [A5 + 0x1B2 /* export_50, CODE:1 @ 00000F84 */]
0000087A  3D7C 0100 F014           move.w     [A6 - 0xFEC], 0x100
00000880  2D6D B8A4 F016           move.l     [A6 - 0xFEA], [A5 - 0x475C]
00000886  3D6D F868 F01A           move.w     [A6 - 0xFE6], [A5 - 0x798]
0000088C  3D6D F86A F01C           move.w     [A6 - 0xFE4], [A5 - 0x796]
00000892  3D6D F858 F01E           move.w     [A6 - 0xFE2], [A5 - 0x7A8]
00000898  3D6D F644 F020           move.w     [A6 - 0xFE0], [A5 - 0x9BC]
0000089E  3D6D F646 F022           move.w     [A6 - 0xFDE], [A5 - 0x9BA]
000008A4  1D6D F648 F024           move.b     [A6 - 0xFDC], [A5 - 0x9B8]
000008AA  1D6D FE6A F025           move.b     [A6 - 0xFDB], [A5 - 0x196]
000008B0  2D6D F81E F026           move.l     [A6 - 0xFDA], [A5 - 0x7E2]
000008B6  2D6D F822 F02A           move.l     [A6 - 0xFD6], [A5 - 0x7DE]
000008BC  2D6D F82E F02E           move.l     [A6 - 0xFD2], [A5 - 0x7D2]
000008C2  3F3C 0020                move.w     -[A7], 0x20 /* ' ' */
000008C6  486D F984                pea.l      [A5 - 0x67C]
000008CA  486E F032                pea.l      [A6 - 0xFCE]
000008CE  4EAD 005A                jsr        [A5 + 0x5A /* export_7, CODE:1 @ 00000274 */]
000008D2  3F3C 0020                move.w     -[A7], 0x20 /* ' ' */
000008D6  486D F940                pea.l      [A5 - 0x6C0]
000008DA  486E F054                pea.l      [A6 - 0xFAC]
000008DE  4EAD 005A                jsr        [A5 + 0x5A /* export_7, CODE:1 @ 00000274 */]
000008E2  426E F076                clr.w      [A6 - 0xF8A]
000008E6  7E01                     moveq.l    D7, 0x01
label000008E8:
000008E8  41ED F649                lea.l      A0, [A5 - 0x9B7]
000008EC  43EE F077                lea.l      A1, [A6 - 0xF89]
000008F0  13B0 7000 7000           move.b     [A1 + D7.w], [A0 + D7.w]
000008F6  3007                     move.w     D0, D7
000008F8  C1FC 0062                muls.w     D0, 0x62 /* 'b' */
000008FC  0640 F03E                addi.w     D0, 0xF03E
00000900  49F6 0000                lea.l      A4, [A6 + D0.w]
00000904  3007                     move.w     D0, D7
00000906  C1FC 013A                muls.w     D0, 0x13A
0000090A  0640 BC5C                addi.w     D0, 0xBC5C
0000090E  47F5 0000                lea.l      A3, [A5 + D0.w]
00000912  38AB 0038                move.w     [A4], [A3 + 0x38]
00000916  7C01                     moveq.l    D6, 0x01
label00000918:
00000918  3006                     move.w     D0, D6
0000091A  E940                     asl        D0.w, 4
0000091C  3206                     move.w     D1, D6
0000091E  C3FC 0006                muls.w     D1, 0x6
00000922  39B3 0034 10FC           move.w     [A4 + D1.w - 0x4], [A3 + D0.w + 0x34]
00000928  3006                     move.w     D0, D6
0000092A  E940                     asl        D0.w, 4
0000092C  3206                     move.w     D1, D6
0000092E  C3FC 0006                muls.w     D1, 0x6
00000932  39B3 0036 10FE           move.w     [A4 + D1.w - 0x2], [A3 + D0.w + 0x36]
00000938  3006                     move.w     D0, D6
0000093A  E940                     asl        D0.w, 4
0000093C  3206                     move.w     D1, D6
0000093E  C3FC 0006                muls.w     D1, 0x6
00000942  19B3 0038 1000           move.b     [A4 + D1.w], [A3 + D0.w + 0x38]
00000948  5246                     addq.w     D6, 1
0000094A  0C46 0010                cmpi.w     D6, 0x10
0000094E  6FC8                     ble        -0x36 /* 00000918 */
00000950  5247                     addq.w     D7, 1
00000952  0C47 0028                cmpi.w     D7, 0x28 /* '(' */
00000956  6F90                     ble        -0x6E /* 000008E8 */
00000958  2D7C 0000 0FDC F00C      move.l     [A6 - 0xFF4], 0xFDC
00000960  554F                     subq.w     A7, 2
00000962  3F05                     move.w     -[A7], D5
00000964  3F3C 0001                move.w     -[A7], 0x1
00000968  42A7                     clr.l      -[A7]
0000096A  4EAD 00F2                jsr        [A5 + 0xF2 /* export_26, CODE:1 @ 000006AC */]
0000096E  3B5F EEB6                move.w     [A5 - 0x114A], [A7]+
00000972  554F                     subq.w     A7, 2
00000974  3F2D EEB6                move.w     -[A7], [A5 - 0x114A]
00000978  4EBA F6EE                jsr        [PC - 0x912 /* 00000068 */]
0000097C  4A5F                     tst.w      [A7]+
0000097E  6712                     beq        +0x14 /* 00000992 */
00000980  554F                     subq.w     A7, 2
00000982  3F2D F870                move.w     -[A7], [A5 - 0x790]
00000986  4EAD 00AA                jsr        [A5 + 0xAA /* export_17, CODE:1 @ 00000554 */]
0000098A  3B5F EEB6                move.w     [A5 - 0x114A], [A7]+
0000098E  6000 00B2                bra        +0xB4 /* 00000A42 */
label00000992:
00000992  554F                     subq.w     A7, 2
00000994  3F05                     move.w     -[A7], D5
00000996  486E F00C                pea.l      [A6 - 0xFF4]
0000099A  486E F014                pea.l      [A6 - 0xFEC]
0000099E  4EAD 00BA                jsr        [A5 + 0xBA /* export_19, CODE:1 @ 00000572 */]
000009A2  3B5F EEB6                move.w     [A5 - 0x114A], [A7]+
000009A6  554F                     subq.w     A7, 2
000009A8  3F2D EEB6                move.w     -[A7], [A5 - 0x114A]
000009AC  4EBA F6BA                jsr        [PC - 0x946 /* 00000068 */]
000009B0  4A5F                     tst.w      [A7]+
000009B2  6712                     beq        +0x14 /* 000009C6 */
000009B4  554F                     subq.w     A7, 2
000009B6  3F2D F870                move.w     -[A7], [A5 - 0x790]
000009BA  4EAD 00AA                jsr        [A5 + 0xAA /* export_17, CODE:1 @ 00000554 */]
000009BE  3B5F EEB6                move.w     [A5 - 0x114A], [A7]+
000009C2  6000 007E                bra        +0x80 /* 00000A42 */
label000009C6:
000009C6  554F                     subq.w     A7, 2
000009C8  3F05                     move.w     -[A7], D5
000009CA  2F2E F00C                move.l     -[A7], [A6 - 0xFF4]
000009CE  4EAD 00EA                jsr        [A5 + 0xEA /* export_25, CODE:1 @ 0000068C */]
000009D2  3B5F EEB6                move.w     [A5 - 0x114A], [A7]+
000009D6  554F                     subq.w     A7, 2
000009D8  3F2D EEB6                move.w     -[A7], [A5 - 0x114A]
000009DC  4EBA F68A                jsr        [PC - 0x976 /* 00000068 */]
000009E0  4A5F                     tst.w      [A7]+
000009E2  6710                     beq        +0x12 /* 000009F4 */
000009E4  554F                     subq.w     A7, 2
000009E6  3F2D F870                move.w     -[A7], [A5 - 0x790]
000009EA  4EAD 00AA                jsr        [A5 + 0xAA /* export_17, CODE:1 @ 00000554 */]
000009EE  3B5F EEB6                move.w     [A5 - 0x114A], [A7]+
000009F2  604E                     bra        +0x50 /* 00000A42 */
label000009F4:
000009F4  554F                     subq.w     A7, 2
000009F6  3F05                     move.w     -[A7], D5
000009F8  4EAD 00AA                jsr        [A5 + 0xAA /* export_17, CODE:1 @ 00000554 */]
000009FC  3B5F EEB6                move.w     [A5 - 0x114A], [A7]+
00000A00  554F                     subq.w     A7, 2
00000A02  3F2D EEB6                move.w     -[A7], [A5 - 0x114A]
00000A06  4EBA F660                jsr        [PC - 0x9A0 /* 00000068 */]
00000A0A  4A5F                     tst.w      [A7]+
00000A0C  6710                     beq        +0x12 /* 00000A1E */
00000A0E  554F                     subq.w     A7, 2
00000A10  3F2D F870                move.w     -[A7], [A5 - 0x790]
00000A14  4EAD 00AA                jsr        [A5 + 0xAA /* export_17, CODE:1 @ 00000554 */]
00000A18  3B5F EEB6                move.w     [A5 - 0x114A], [A7]+
00000A1C  6024                     bra        +0x26 /* 00000A42 */
label00000A1E:
00000A1E  554F                     subq.w     A7, 2
00000A20  42A7                     clr.l      -[A7]
00000A22  3F2E 0008                move.w     -[A7], [A6 + 0x8]
00000A26  4EAD 00DA                jsr        [A5 + 0xDA /* export_23, CODE:1 @ 0000062E */]
00000A2A  3B5F EEB6                move.w     [A5 - 0x114A], [A7]+
00000A2E  554F                     subq.w     A7, 2
00000A30  3F2D EEB6                move.w     -[A7], [A5 - 0x114A]
00000A34  4EBA F632                jsr        [PC - 0x9CE /* 00000068 */]
00000A38  4A5F                     tst.w      [A7]+
00000A3A  6606                     bne        +0x8 /* 00000A42 */
00000A3C  1D7C 0001 000C           move.b     [A6 + 0xC], 0x1
label00000A42:
00000A42  4CDF 18E0                movem.l    D5,D6,D7,A3,A4, [A7]+
00000A46  4E5E                     unlink     A6
00000A48  2E9F                     move.l     [A7], [A7]+
00000A4A  4E75                     rts
fn00000A4C:
00000A4C  4E56 FF92                link       A6, -0x006E
00000A50  422E 0008                clr.b      [A6 + 0x8]
00000A54  486E FFEC                pea.l      [A6 - 0x14]
00000A58  302D F846                move.w     D0, [A5 - 0x7BA]
00000A5C  0640 0055                addi.w     D0, 0x55 /* 'U' */
00000A60  0640 0019                addi.w     D0, 0x19
00000A64  3F00                     move.w     -[A7], D0
00000A66  302D F848                move.w     D0, [A5 - 0x7B8]
00000A6A  0640 0032                addi.w     D0, 0x32 /* '2' */
00000A6E  3F00                     move.w     -[A7], D0
00000A70  A880                     syscall    SetPt
00000A72  2F2E FFEC                move.l     -[A7], [A6 - 0x14]
00000A76  487A 0106                pea.l      [PC + 0x106 /* 00000B7E, value 0xE4E616D, pstring "Name for game:" */]
00000A7A  487A 0100                pea.l      [PC + 0x100 /* 00000B7C, value 0x120E4E, cstring "" */]
00000A7E  42A7                     clr.l      -[A7]
00000A80  486E FFA2                pea.l      [A6 - 0x5E]
00000A84  3F3C 0001                move.w     -[A7], 0x1
00000A88  A9EA                     syscall    Pack3
00000A8A  102E FFA2                move.b     D0, [A6 - 0x5E]
00000A8E  5300                     subq.b     D0, 1
00000A90  6600 00E6                bne        +0xE8 /* 00000B78 */
00000A94  3B6E FFA8 F878           move.w     [A5 - 0x788], [A6 - 0x58]
00000A9A  554F                     subq.w     A7, 2
00000A9C  486E FFAC                pea.l      [A6 - 0x54]
00000AA0  3F2D F878                move.w     -[A7], [A5 - 0x788]
00000AA4  486E FF92                pea.l      [A6 - 0x6E]
00000AA8  4EAD 00C2                jsr        [A5 + 0xC2 /* export_20, CODE:1 @ 000005B6 */]
00000AAC  3B5F EEB6                move.w     [A5 - 0x114A], [A7]+
00000AB0  302D EEB6                move.w     D0, [A5 - 0x114A]
00000AB4  6048                     bra        +0x4A /* 00000AFE */
label00000AB6:
00000AB6  0CAE 474C 676D FF92      cmpi.l     [A6 - 0x6E], 0x474C676D /* 'GLgm' */
00000ABE  6754                     beq        +0x56 /* 00000B14 */
00000AC0  3F3C 000D                move.w     -[A7], 0xD /* '\r' */
00000AC4  4EAD 019A                jsr        [A5 + 0x19A /* export_47, CODE:1 @ 00000BA6 */]
00000AC8  6000 00AE                bra        +0xB0 /* 00000B78 */
00000ACC  6046                     bra        +0x48 /* 00000B14 */
label00000ACE:
00000ACE  554F                     subq.w     A7, 2
00000AD0  486E FFAC                pea.l      [A6 - 0x54]
00000AD4  3F2D F878                move.w     -[A7], [A5 - 0x788]
00000AD8  2F3C 474C 4944           move.l     -[A7], 0x474C4944 /* 'GLID' */
00000ADE  2F3C 474C 676D           move.l     -[A7], 0x474C676D /* 'GLgm' */
00000AE4  4EAD 00E2                jsr        [A5 + 0xE2 /* export_24, CODE:1 @ 0000064E */]
00000AE8  3B5F EEB6                move.w     [A5 - 0x114A], [A7]+
00000AEC  554F                     subq.w     A7, 2
00000AEE  3F2D EEB6                move.w     -[A7], [A5 - 0x114A]
00000AF2  4EBA F574                jsr        [PC - 0xA8C /* 00000068 */]
00000AF6  4A5F                     tst.w      [A7]+
00000AF8  6600 007E                bne        +0x80 /* 00000B78 */
00000AFC  6016                     bra        +0x18 /* 00000B14 */
label00000AFE:
00000AFE  0640 002B                addi.w     D0, 0x2B /* '+' */
00000B02  67CA                     beq        -0x34 /* 00000ACE */
00000B04  0640 FFD5                addi.w     D0, 0xFFD5
00000B08  67AC                     beq        -0x52 /* 00000AB6 */
00000B0A  3F2D EEB6                move.w     -[A7], [A5 - 0x114A]
00000B0E  4EAD 019A                jsr        [A5 + 0x19A /* export_47, CODE:1 @ 00000BA6 */]
00000B12  6064                     bra        +0x66 /* 00000B78 */
label00000B14:
00000B14  3F3C 0020                move.w     -[A7], 0x20 /* ' ' */
00000B18  486E FFAC                pea.l      [A6 - 0x54]
00000B1C  486D F8FC                pea.l      [A5 - 0x704]
00000B20  4EAD 005A                jsr        [A5 + 0x5A /* export_7, CODE:1 @ 00000274 */]
00000B24  554F                     subq.w     A7, 2
00000B26  486E FFAC                pea.l      [A6 - 0x54]
00000B2A  3F2D F878                move.w     -[A7], [A5 - 0x788]
00000B2E  486D F870                pea.l      [A5 - 0x790]
00000B32  4EAD 00A2                jsr        [A5 + 0xA2 /* export_16, CODE:1 @ 00000514 */]
00000B36  3B5F EEB6                move.w     [A5 - 0x114A], [A7]+
00000B3A  554F                     subq.w     A7, 2
00000B3C  3F2D EEB6                move.w     -[A7], [A5 - 0x114A]
00000B40  4EBA F526                jsr        [PC - 0xADA /* 00000068 */]
00000B44  4A5F                     tst.w      [A7]+
00000B46  6630                     bne        +0x32 /* 00000B78 */
00000B48  554F                     subq.w     A7, 2
00000B4A  3F2D F870                move.w     -[A7], [A5 - 0x790]
00000B4E  3F2D F878                move.w     -[A7], [A5 - 0x788]
00000B52  4EBA FC8E                jsr        [PC - 0x372 /* 000007E2 */]
00000B56  101F                     move.b     D0, [A7]+
00000B58  5300                     subq.b     D0, 1
00000B5A  6710                     beq        +0x12 /* 00000B6C */
00000B5C  554F                     subq.w     A7, 2
00000B5E  3F2D F870                move.w     -[A7], [A5 - 0x790]
00000B62  4EAD 00AA                jsr        [A5 + 0xAA /* export_17, CODE:1 @ 00000554 */]
00000B66  3B5F EEB6                move.w     [A5 - 0x114A], [A7]+
00000B6A  600C                     bra        +0xE /* 00000B78 */
label00000B6C:
00000B6C  1B7C 0001 FE81           move.b     [A5 - 0x17F], 0x1
00000B72  1D7C 0001 0008           move.b     [A6 + 0x8], 0x1
label00000B78:
00000B78  4E5E                     unlink     A6
00000B7A  4E75                     rts
00000B7C  0012 0E4E                ori.b      [A2], 0x4E /* 'N' */
00000B80  616D                     bsr        +0x6F /* 00000BEF */
00000B82  6520                     bcs        +0x22 /* 00000BA4 */
00000B84  666F                     bne        +0x71 /* 00000BF5 */
00000B86  7220                     moveq.l    D1, 0x20
00000B88  6761                     beq        +0x63 /* 00000BEB */
00000B8A  6D65                     blt        +0x67 /* 00000BF1 */
00000B8C  3A12                     move.w     D5, [A2]
export_88:
fn00000B8E:
00000B8E  4E56 FEF0                link       A6, -0x0110
00000B92  422E 0008                clr.b      [A6 + 0x8]
00000B96  4A2D F8FC                tst.b      [A5 - 0x704]
00000B9A  660E                     bne        +0x10 /* 00000BAA */
00000B9C  554F                     subq.w     A7, 2
00000B9E  4EBA FEAC                jsr        [PC - 0x154 /* 00000A4C */]
00000BA2  101F                     move.b     D0, [A7]+
label00000BA4:
00000BA4  5300                     subq.b     D0, 1
00000BA6  6646                     bne        +0x48 /* 00000BEE */
00000BA8  6038                     bra        +0x3A /* 00000BE2 */
label00000BAA:
00000BAA  554F                     subq.w     A7, 2
00000BAC  486D F8FC                pea.l      [A5 - 0x704]
00000BB0  3F2D F878                move.w     -[A7], [A5 - 0x788]
00000BB4  486D F870                pea.l      [A5 - 0x790]
00000BB8  4EAD 00A2                jsr        [A5 + 0xA2 /* export_16, CODE:1 @ 00000514 */]
00000BBC  3B5F EEB6                move.w     [A5 - 0x114A], [A7]+
00000BC0  554F                     subq.w     A7, 2
00000BC2  3F2D EEB6                move.w     -[A7], [A5 - 0x114A]
00000BC6  4EBA F4A0                jsr        [PC - 0xB60 /* 00000068 */]
00000BCA  4A5F                     tst.w      [A7]+
00000BCC  6620                     bne        +0x22 /* 00000BEE */
00000BCE  554F                     subq.w     A7, 2
00000BD0  3F2D F870                move.w     -[A7], [A5 - 0x790]
00000BD4  3F2D F878                move.w     -[A7], [A5 - 0x788]
00000BD8  4EBA FC08                jsr        [PC - 0x3F8 /* 000007E2 */]
00000BDC  101F                     move.b     D0, [A7]+
00000BDE  5300                     subq.b     D0, 1
00000BE0  660C                     bne        +0xE /* 00000BEE */
label00000BE2:
00000BE2  1B7C 0001 FE81           move.b     [A5 - 0x17F], 0x1
00000BE8  1D7C 0001 0008           move.b     [A6 + 0x8], 0x1
label00000BEE:
00000BEE  4E5E                     unlink     A6
00000BF0  4E75                     rts
export_89:
fn00000BF2:
00000BF2  4E56 FFEC                link       A6, -0x0014
00000BF6  4EAD 0192                jsr        [A5 + 0x192 /* export_46, CODE:1 @ 00000B2E */]
00000BFA  422E 0008                clr.b      [A6 + 0x8]
00000BFE  2D7C 0000 3606 FFEC      move.l     [A6 - 0x14], 0x3606
00000C06  4EAD 0192                jsr        [A5 + 0x192 /* export_46, CODE:1 @ 00000B2E */]
00000C0A  554F                     subq.w     A7, 2
00000C0C  42A7                     clr.l      -[A7]
00000C0E  3F2D F876                move.w     -[A7], [A5 - 0x78A]
00000C12  4EAD 00D2                jsr        [A5 + 0xD2 /* export_22, CODE:1 @ 0000060E */]
00000C16  3B5F EEB6                move.w     [A5 - 0x114A], [A7]+
00000C1A  554F                     subq.w     A7, 2
00000C1C  3F2D EEB6                move.w     -[A7], [A5 - 0x114A]
00000C20  4EBA F446                jsr        [PC - 0xBBA /* 00000068 */]
00000C24  4A5F                     tst.w      [A7]+
00000C26  6600 0146                bne        +0x148 /* 00000D6E */
00000C2A  554F                     subq.w     A7, 2
00000C2C  486D F984                pea.l      [A5 - 0x67C]
00000C30  3F2D F876                move.w     -[A7], [A5 - 0x78A]
00000C34  486D F872                pea.l      [A5 - 0x78E]
00000C38  4EAD 00A2                jsr        [A5 + 0xA2 /* export_16, CODE:1 @ 00000514 */]
00000C3C  3B5F EEB6                move.w     [A5 - 0x114A], [A7]+
00000C40  554F                     subq.w     A7, 2
00000C42  3F2D EEB6                move.w     -[A7], [A5 - 0x114A]
00000C46  4EBA F420                jsr        [PC - 0xBE0 /* 00000068 */]
00000C4A  4A5F                     tst.w      [A7]+
00000C4C  675E                     beq        +0x60 /* 00000CAC */
00000C4E  554F                     subq.w     A7, 2
00000C50  4267                     clr.w      -[A7]
00000C52  4EBA F7C4                jsr        [PC - 0x83C /* 00000418 */]
00000C56  101F                     move.b     D0, [A7]+
00000C58  5300                     subq.b     D0, 1
00000C5A  6716                     beq        +0x18 /* 00000C72 */
00000C5C  422D FE7D                clr.b      [A5 - 0x183]
00000C60  554F                     subq.w     A7, 2
00000C62  3F2D F872                move.w     -[A7], [A5 - 0x78E]
00000C66  4EAD 00AA                jsr        [A5 + 0xAA /* export_17, CODE:1 @ 00000554 */]
00000C6A  3B5F EEB6                move.w     [A5 - 0x114A], [A7]+
00000C6E  6000 00FE                bra        +0x100 /* 00000D6E */
label00000C72:
00000C72  554F                     subq.w     A7, 2
00000C74  486D F984                pea.l      [A5 - 0x67C]
00000C78  3F2D F876                move.w     -[A7], [A5 - 0x78A]
00000C7C  486D F872                pea.l      [A5 - 0x78E]
00000C80  4EAD 00A2                jsr        [A5 + 0xA2 /* export_16, CODE:1 @ 00000514 */]
00000C84  3B5F EEB6                move.w     [A5 - 0x114A], [A7]+
00000C88  554F                     subq.w     A7, 2
00000C8A  3F2D EEB6                move.w     -[A7], [A5 - 0x114A]
00000C8E  4EBA F3D8                jsr        [PC - 0xC28 /* 00000068 */]
00000C92  4A5F                     tst.w      [A7]+
00000C94  6716                     beq        +0x18 /* 00000CAC */
00000C96  422D FE7D                clr.b      [A5 - 0x183]
00000C9A  554F                     subq.w     A7, 2
00000C9C  3F2D F872                move.w     -[A7], [A5 - 0x78E]
00000CA0  4EAD 00AA                jsr        [A5 + 0xAA /* export_17, CODE:1 @ 00000554 */]
00000CA4  3B5F EEB6                move.w     [A5 - 0x114A], [A7]+
00000CA8  6000 00C4                bra        +0xC6 /* 00000D6E */
label00000CAC:
00000CAC  4EAD 0192                jsr        [A5 + 0x192 /* export_46, CODE:1 @ 00000B2E */]
00000CB0  554F                     subq.w     A7, 2
00000CB2  3F2D F872                move.w     -[A7], [A5 - 0x78E]
00000CB6  3F3C 0001                move.w     -[A7], 0x1
00000CBA  42A7                     clr.l      -[A7]
00000CBC  4EAD 00F2                jsr        [A5 + 0xF2 /* export_26, CODE:1 @ 000006AC */]
00000CC0  3B5F EEB6                move.w     [A5 - 0x114A], [A7]+
00000CC4  554F                     subq.w     A7, 2
00000CC6  3F2D EEB6                move.w     -[A7], [A5 - 0x114A]
00000CCA  4EBA F39C                jsr        [PC - 0xC64 /* 00000068 */]
00000CCE  4A5F                     tst.w      [A7]+
00000CD0  6600 009C                bne        +0x9E /* 00000D6E */
00000CD4  4EAD 0192                jsr        [A5 + 0x192 /* export_46, CODE:1 @ 00000B2E */]
00000CD8  554F                     subq.w     A7, 2
00000CDA  3F2D F872                move.w     -[A7], [A5 - 0x78E]
00000CDE  486E FFEC                pea.l      [A6 - 0x14]
00000CE2  486D B8A0                pea.l      [A5 - 0x4760]
00000CE6  4EAD 00BA                jsr        [A5 + 0xBA /* export_19, CODE:1 @ 00000572 */]
00000CEA  3B5F EEB6                move.w     [A5 - 0x114A], [A7]+
00000CEE  554F                     subq.w     A7, 2
00000CF0  3F2D EEB6                move.w     -[A7], [A5 - 0x114A]
00000CF4  4EBA F372                jsr        [PC - 0xC8E /* 00000068 */]
00000CF8  4A5F                     tst.w      [A7]+
00000CFA  6600 0072                bne        +0x74 /* 00000D6E */
00000CFE  4EAD 0192                jsr        [A5 + 0x192 /* export_46, CODE:1 @ 00000B2E */]
00000D02  554F                     subq.w     A7, 2
00000D04  3F2D F872                move.w     -[A7], [A5 - 0x78E]
00000D08  2F2E FFEC                move.l     -[A7], [A6 - 0x14]
00000D0C  4EAD 00EA                jsr        [A5 + 0xEA /* export_25, CODE:1 @ 0000068C */]
00000D10  3B5F EEB6                move.w     [A5 - 0x114A], [A7]+
00000D14  554F                     subq.w     A7, 2
00000D16  3F2D EEB6                move.w     -[A7], [A5 - 0x114A]
00000D1A  4EBA F34C                jsr        [PC - 0xCB4 /* 00000068 */]
00000D1E  4A5F                     tst.w      [A7]+
00000D20  664C                     bne        +0x4E /* 00000D6E */
00000D22  4EAD 0192                jsr        [A5 + 0x192 /* export_46, CODE:1 @ 00000B2E */]
00000D26  554F                     subq.w     A7, 2
00000D28  3F2D F872                move.w     -[A7], [A5 - 0x78E]
00000D2C  4EAD 00AA                jsr        [A5 + 0xAA /* export_17, CODE:1 @ 00000554 */]
00000D30  3B5F EEB6                move.w     [A5 - 0x114A], [A7]+
00000D34  554F                     subq.w     A7, 2
00000D36  3F2D EEB6                move.w     -[A7], [A5 - 0x114A]
00000D3A  4EBA F32C                jsr        [PC - 0xCD4 /* 00000068 */]
00000D3E  4A5F                     tst.w      [A7]+
00000D40  662C                     bne        +0x2E /* 00000D6E */
00000D42  4EAD 0192                jsr        [A5 + 0x192 /* export_46, CODE:1 @ 00000B2E */]
00000D46  554F                     subq.w     A7, 2
00000D48  42A7                     clr.l      -[A7]
00000D4A  3F2D F876                move.w     -[A7], [A5 - 0x78A]
00000D4E  4EAD 00DA                jsr        [A5 + 0xDA /* export_23, CODE:1 @ 0000062E */]
00000D52  3B5F EEB6                move.w     [A5 - 0x114A], [A7]+
00000D56  554F                     subq.w     A7, 2
00000D58  3F2D EEB6                move.w     -[A7], [A5 - 0x114A]
00000D5C  4EBA F30A                jsr        [PC - 0xCF6 /* 00000068 */]
00000D60  4A5F                     tst.w      [A7]+
00000D62  660A                     bne        +0xC /* 00000D6E */
00000D64  4EAD 0192                jsr        [A5 + 0x192 /* export_46, CODE:1 @ 00000B2E */]
00000D68  1D7C 0001 0008           move.b     [A6 + 0x8], 0x1
label00000D6E:
00000D6E  4E5E                     unlink     A6
00000D70  4E75                     rts
fn00000D72:
00000D72  4A2D FE7A                tst.b      [A5 - 0x186]
00000D76  6724                     beq        +0x26 /* 00000D9C */
00000D78  206D B7B2                movea.l    A0, [A5 - 0x484E]
00000D7C  2068 0002                movea.l    A0, [A0 + 0x2]
00000D80  2F10                     move.l     -[A7], [A0]
00000D82  206D B560                movea.l    A0, [A5 - 0x4AA0]
00000D86  4868 0002                pea.l      [A0 + 0x2]
00000D8A  486D B568                pea.l      [A5 - 0x4A98]
00000D8E  486D B568                pea.l      [A5 - 0x4A98]
00000D92  4267                     clr.w      -[A7]
00000D94  2F2D B590                move.l     -[A7], [A5 - 0x4A70]
00000D98  A8EC                     syscall    CopyBits
00000D9A  601C                     bra        +0x1E /* 00000DB8 */
label00000D9C:
00000D9C  486D B5A2                pea.l      [A5 - 0x4A5E]
00000DA0  206D B560                movea.l    A0, [A5 - 0x4AA0]
00000DA4  4868 0002                pea.l      [A0 + 0x2]
00000DA8  486D B568                pea.l      [A5 - 0x4A98]
00000DAC  486D B568                pea.l      [A5 - 0x4A98]
00000DB0  4267                     clr.w      -[A7]
00000DB2  2F2D B590                move.l     -[A7], [A5 - 0x4A70]
00000DB6  A8EC                     syscall    CopyBits
label00000DB8:
00000DB8  1F3C 0001                move.b     -[A7], 0x1
00000DBC  4EBA 00C0                jsr        [PC + 0xC0 /* 00000E7E */]
00000DC0  4E75                     rts
fn00000DC2:
00000DC2  4E56 FEF0                link       A6, -0x0110
00000DC6  2F07                     move.l     -[A7], D7
00000DC8  3E2E 000C                move.w     D7, [A6 + 0xC]
00000DCC  4A2D FE7A                tst.b      [A5 - 0x186]
00000DD0  6708                     beq        +0xA /* 00000DDA */
00000DD2  486D B7EA                pea.l      [A5 - 0x4816]
00000DD6  AA14                     syscall    RGBForeColor
00000DD8  6006                     bra        +0x8 /* 00000DE0 */
label00000DDA:
00000DDA  3F3C 0002                move.w     -[A7], 0x2
00000DDE  A889                     syscall    TextMode
label00000DE0:
00000DE0  3F3C 012C                move.w     -[A7], 0x12C
00000DE4  3F3C 0039                move.w     -[A7], 0x39 /* '9' */
00000DE8  A893                     syscall    MoveTo
00000DEA  486E FEF0                pea.l      [A6 - 0x110]
00000DEE  3F3C 0083                move.w     -[A7], 0x83
00000DF2  3F07                     move.w     -[A7], D7
00000DF4  4EAD 014A                jsr        [A5 + 0x14A /* export_37, CODE:1 @ 000007E4 */]
00000DF8  486E FEF0                pea.l      [A6 - 0x110]
00000DFC  A884                     syscall    DrawString
00000DFE  3F3C 012C                move.w     -[A7], 0x12C
00000E02  3F3C 0046                move.w     -[A7], 0x46 /* 'F' */
00000E06  A893                     syscall    MoveTo
00000E08  486E FEF0                pea.l      [A6 - 0x110]
00000E0C  3F3C 0083                move.w     -[A7], 0x83
00000E10  3007                     move.w     D0, D7
00000E12  5240                     addq.w     D0, 1
00000E14  3F00                     move.w     -[A7], D0
00000E16  4EAD 014A                jsr        [A5 + 0x14A /* export_37, CODE:1 @ 000007E4 */]
00000E1A  486E FEF0                pea.l      [A6 - 0x110]
00000E1E  A884                     syscall    DrawString
00000E20  3F3C 012C                move.w     -[A7], 0x12C
00000E24  3F3C 0053                move.w     -[A7], 0x53 /* 'S' */
00000E28  A893                     syscall    MoveTo
00000E2A  486E FEF0                pea.l      [A6 - 0x110]
00000E2E  3F3C 0083                move.w     -[A7], 0x83
00000E32  3007                     move.w     D0, D7
00000E34  5440                     addq.w     D0, 2
00000E36  3F00                     move.w     -[A7], D0
00000E38  4EAD 014A                jsr        [A5 + 0x14A /* export_37, CODE:1 @ 000007E4 */]
00000E3C  486E FEF0                pea.l      [A6 - 0x110]
00000E40  A884                     syscall    DrawString
00000E42  3F3C 012C                move.w     -[A7], 0x12C
00000E46  3F3C 0060                move.w     -[A7], 0x60 /* '`' */
00000E4A  A893                     syscall    MoveTo
00000E4C  486E FEF0                pea.l      [A6 - 0x110]
00000E50  3F3C 0083                move.w     -[A7], 0x83
00000E54  3007                     move.w     D0, D7
00000E56  5640                     addq.w     D0, 3
00000E58  3F00                     move.w     -[A7], D0
00000E5A  4EAD 014A                jsr        [A5 + 0x14A /* export_37, CODE:1 @ 000007E4 */]
00000E5E  486E FEF0                pea.l      [A6 - 0x110]
00000E62  A884                     syscall    DrawString
00000E64  4A2D FE7A                tst.b      [A5 - 0x186]
00000E68  6708                     beq        +0xA /* 00000E72 */
00000E6A  486D B7D2                pea.l      [A5 - 0x482E]
00000E6E  AA14                     syscall    RGBForeColor
00000E70  6002                     bra        +0x4 /* 00000E74 */
label00000E72:
00000E72  A89E                     syscall    PenNormal
label00000E74:
00000E74  2E1F                     move.l     D7, [A7]+
00000E76  4E5E                     unlink     A6
00000E78  205F                     movea.l    A0, [A7]+
00000E7A  5C4F                     addq.w     A7, 6
00000E7C  4ED0                     jmp        [A0]
fn00000E7E:
00000E7E  4E56 FFD8                link       A6, -0x0028
00000E82  4A2E 0008                tst.b      [A6 + 0x8]
00000E86  6712                     beq        +0x14 /* 00000E9A */
00000E88  554F                     subq.w     A7, 2
00000E8A  3F3C 000B                move.w     -[A7], 0xB
00000E8E  4EAD 01AA                jsr        [A5 + 0x1AA /* export_49, CODE:1 @ 00000F4A */]
00000E92  301F                     move.w     D0, [A7]+
00000E94  5240                     addq.w     D0, 1
00000E96  3B40 F850                move.w     [A5 - 0x7B0], D0
label00000E9A:
00000E9A  3F2D F84A                move.w     -[A7], [A5 - 0x7B6]
00000E9E  A998                     syscall    UseResFile
00000EA0  4A2D FE7A                tst.b      [A5 - 0x186]
00000EA4  6708                     beq        +0xA /* 00000EAE */
00000EA6  2F2D B7B2                move.l     -[A7], [A5 - 0x484E]
00000EAA  A873                     syscall    SetPort
00000EAC  6006                     bra        +0x8 /* 00000EB4 */
label00000EAE:
00000EAE  2F2D B5DE                move.l     -[A7], [A5 - 0x4A22]
00000EB2  A873                     syscall    SetPort
label00000EB4:
00000EB4  A89E                     syscall    PenNormal
00000EB6  486E FFE8                pea.l      [A6 - 0x18]
00000EBA  3F3C 012A                move.w     -[A7], 0x12A
00000EBE  3F3C 0014                move.w     -[A7], 0x14
00000EC2  3F3C 01FC                move.w     -[A7], 0x1FC
00000EC6  3F3C 0064                move.w     -[A7], 0x64 /* 'd' */
00000ECA  A8A7                     syscall    SetRect
00000ECC  486E FFE8                pea.l      [A6 - 0x18]
00000ED0  486D FFBA                pea.l      [A5 - 0x46]
00000ED4  A8A5                     syscall    FillRect
00000ED6  3F3C 0010                move.w     -[A7], 0x10
00000EDA  A887                     syscall    TextFont
00000EDC  3F3C 000C                move.w     -[A7], 0xC
00000EE0  A88A                     syscall    TextSize
00000EE2  302D F850                move.w     D0, [A5 - 0x7B0]
00000EE6  6000 04B0                bra        +0x4B2 /* 00001398 */
00000EEA  426D FEE4                clr.w      [A5 - 0x11C]
00000EEE  3B7C 0002 FEE2           move.w     [A5 - 0x11E], 0x2
00000EF4  3B7C 0004 FEE0           move.w     [A5 - 0x120], 0x4
00000EFA  302D FEE2                move.w     D0, [A5 - 0x11E]
00000EFE  C1FC 0090                muls.w     D0, 0x90
00000F02  322D FEE4                move.w     D1, [A5 - 0x11C]
00000F06  E741                     asl        D1.w, 3
00000F08  D041                     add.w      D0, D1
00000F0A  0640 F196                addi.w     D0, 0xF196
00000F0E  41F5 0000                lea.l      A0, [A5 + D0.w]
00000F12  43ED FEC6                lea.l      A1, [A5 - 0x13A]
00000F16  22D8                     move.l     [A1]+, [A0]+
00000F18  22D8                     move.l     [A1]+, [A0]+
00000F1A  486D FEC6                pea.l      [A5 - 0x13A]
00000F1E  302D FEC8                move.w     D0, [A5 - 0x138]
00000F22  4440                     neg.w      D0
00000F24  3F00                     move.w     -[A7], D0
00000F26  302D FEC6                move.w     D0, [A5 - 0x13A]
00000F2A  4440                     neg.w      D0
00000F2C  3F00                     move.w     -[A7], D0
00000F2E  A8A8                     syscall    OffsetRect
00000F30  486D FEC6                pea.l      [A5 - 0x13A]
00000F34  3F3C 01CC                move.w     -[A7], 0x1CC
00000F38  3F3C 002D                move.w     -[A7], 0x2D /* '-' */
00000F3C  A8A8                     syscall    OffsetRect
00000F3E  41ED FEC6                lea.l      A0, [A5 - 0x13A]
00000F42  43ED FED6                lea.l      A1, [A5 - 0x12A]
00000F46  22D8                     move.l     [A1]+, [A0]+
00000F48  22D8                     move.l     [A1]+, [A0]+
00000F4A  41ED FEC6                lea.l      A0, [A5 - 0x13A]
00000F4E  43ED FECE                lea.l      A1, [A5 - 0x132]
00000F52  22D8                     move.l     [A1]+, [A0]+
00000F54  22D8                     move.l     [A1]+, [A0]+
00000F56  3F3C 0001                move.w     -[A7], 0x1
00000F5A  2F0E                     move.l     -[A7], A6
00000F5C  4EBA FE64                jsr        [PC - 0x19C /* 00000DC2 */]
00000F60  6000 045E                bra        +0x460 /* 000013C0 */
00000F64  426D FEE4                clr.w      [A5 - 0x11C]
00000F68  3B7C 0001 FEE2           move.w     [A5 - 0x11E], 0x1
00000F6E  3B7C 0003 FEE0           move.w     [A5 - 0x120], 0x3
00000F74  302D FEE2                move.w     D0, [A5 - 0x11E]
00000F78  C1FC 0090                muls.w     D0, 0x90
00000F7C  322D FEE4                move.w     D1, [A5 - 0x11C]
00000F80  E741                     asl        D1.w, 3
00000F82  D041                     add.w      D0, D1
00000F84  0640 F196                addi.w     D0, 0xF196
00000F88  41F5 0000                lea.l      A0, [A5 + D0.w]
00000F8C  43ED FEC6                lea.l      A1, [A5 - 0x13A]
00000F90  22D8                     move.l     [A1]+, [A0]+
00000F92  22D8                     move.l     [A1]+, [A0]+
00000F94  486D FEC6                pea.l      [A5 - 0x13A]
00000F98  302D FEC8                move.w     D0, [A5 - 0x138]
00000F9C  4440                     neg.w      D0
00000F9E  3F00                     move.w     -[A7], D0
00000FA0  302D FEC6                move.w     D0, [A5 - 0x13A]
00000FA4  4440                     neg.w      D0
00000FA6  3F00                     move.w     -[A7], D0
00000FA8  A8A8                     syscall    OffsetRect
00000FAA  486D FEC6                pea.l      [A5 - 0x13A]
00000FAE  3F3C 01CC                move.w     -[A7], 0x1CC
00000FB2  3F3C 002D                move.w     -[A7], 0x2D /* '-' */
00000FB6  A8A8                     syscall    OffsetRect
00000FB8  41ED FEC6                lea.l      A0, [A5 - 0x13A]
00000FBC  43ED FED6                lea.l      A1, [A5 - 0x12A]
00000FC0  22D8                     move.l     [A1]+, [A0]+
00000FC2  22D8                     move.l     [A1]+, [A0]+
00000FC4  41ED FEC6                lea.l      A0, [A5 - 0x13A]
00000FC8  43ED FECE                lea.l      A1, [A5 - 0x132]
00000FCC  22D8                     move.l     [A1]+, [A0]+
00000FCE  22D8                     move.l     [A1]+, [A0]+
00000FD0  3F3C 0005                move.w     -[A7], 0x5
00000FD4  2F0E                     move.l     -[A7], A6
00000FD6  4EBA FDEA                jsr        [PC - 0x216 /* 00000DC2 */]
00000FDA  6000 03E4                bra        +0x3E6 /* 000013C0 */
00000FDE  426D FEE4                clr.w      [A5 - 0x11C]
00000FE2  426D FEE2                clr.w      [A5 - 0x11E]
00000FE6  3B7C 0004 FEE0           move.w     [A5 - 0x120], 0x4
00000FEC  302D FEE2                move.w     D0, [A5 - 0x11E]
00000FF0  C1FC 0090                muls.w     D0, 0x90
00000FF4  322D FEE4                move.w     D1, [A5 - 0x11C]
00000FF8  E741                     asl        D1.w, 3
00000FFA  D041                     add.w      D0, D1
00000FFC  0640 F196                addi.w     D0, 0xF196
00001000  41F5 0000                lea.l      A0, [A5 + D0.w]
00001004  43ED FEC6                lea.l      A1, [A5 - 0x13A]
00001008  22D8                     move.l     [A1]+, [A0]+
0000100A  22D8                     move.l     [A1]+, [A0]+
0000100C  486D FEC6                pea.l      [A5 - 0x13A]
00001010  302D FEC8                move.w     D0, [A5 - 0x138]
00001014  4440                     neg.w      D0
00001016  3F00                     move.w     -[A7], D0
00001018  302D FEC6                move.w     D0, [A5 - 0x13A]
0000101C  4440                     neg.w      D0
0000101E  3F00                     move.w     -[A7], D0
00001020  A8A8                     syscall    OffsetRect
00001022  486D FEC6                pea.l      [A5 - 0x13A]
00001026  3F3C 01B3                move.w     -[A7], 0x1B3
0000102A  3F3C 002D                move.w     -[A7], 0x2D /* '-' */
0000102E  A8A8                     syscall    OffsetRect
00001030  41ED FEC6                lea.l      A0, [A5 - 0x13A]
00001034  43ED FED6                lea.l      A1, [A5 - 0x12A]
00001038  22D8                     move.l     [A1]+, [A0]+
0000103A  22D8                     move.l     [A1]+, [A0]+
0000103C  41ED FEC6                lea.l      A0, [A5 - 0x13A]
00001040  43ED FECE                lea.l      A1, [A5 - 0x132]
00001044  22D8                     move.l     [A1]+, [A0]+
00001046  22D8                     move.l     [A1]+, [A0]+
00001048  3F3C 0009                move.w     -[A7], 0x9 /* '\t' */
0000104C  2F0E                     move.l     -[A7], A6
0000104E  4EBA FD72                jsr        [PC - 0x28E /* 00000DC2 */]
00001052  6000 036C                bra        +0x36E /* 000013C0 */
00001056  3F3C 000D                move.w     -[A7], 0xD /* '\r' */
0000105A  2F0E                     move.l     -[A7], A6
0000105C  4EBA FD64                jsr        [PC - 0x29C /* 00000DC2 */]
00001060  6000 035E                bra        +0x360 /* 000013C0 */
00001064  3F3C 0011                move.w     -[A7], 0x11
00001068  2F0E                     move.l     -[A7], A6
0000106A  4EBA FD56                jsr        [PC - 0x2AA /* 00000DC2 */]
0000106E  6000 0350                bra        +0x352 /* 000013C0 */
00001072  3F3C 0015                move.w     -[A7], 0x15
00001076  2F0E                     move.l     -[A7], A6
00001078  4EBA FD48                jsr        [PC - 0x2B8 /* 00000DC2 */]
0000107C  6000 0342                bra        +0x344 /* 000013C0 */
00001080  3F3C 0019                move.w     -[A7], 0x19
00001084  2F0E                     move.l     -[A7], A6
00001086  4EBA FD3A                jsr        [PC - 0x2C6 /* 00000DC2 */]
0000108A  6000 0334                bra        +0x336 /* 000013C0 */
0000108E  3F3C 001D                move.w     -[A7], 0x1D
00001092  2F0E                     move.l     -[A7], A6
00001094  4EBA FD2C                jsr        [PC - 0x2D4 /* 00000DC2 */]
00001098  6000 0326                bra        +0x328 /* 000013C0 */
0000109C  3F3C 0021                move.w     -[A7], 0x21 /* '!' */
000010A0  2F0E                     move.l     -[A7], A6
000010A2  4EBA FD1E                jsr        [PC - 0x2E2 /* 00000DC2 */]
000010A6  41ED FA9A                lea.l      A0, [A5 - 0x566]
000010AA  43EE FFE0                lea.l      A1, [A6 - 0x20]
000010AE  22D8                     move.l     [A1]+, [A0]+
000010B0  22D8                     move.l     [A1]+, [A0]+
000010B2  486E FFE0                pea.l      [A6 - 0x20]
000010B6  302E FFE2                move.w     D0, [A6 - 0x1E]
000010BA  4440                     neg.w      D0
000010BC  3F00                     move.w     -[A7], D0
000010BE  302E FFE0                move.w     D0, [A6 - 0x20]
000010C2  4440                     neg.w      D0
000010C4  3F00                     move.w     -[A7], D0
000010C6  A8A8                     syscall    OffsetRect
000010C8  486E FFE0                pea.l      [A6 - 0x20]
000010CC  3F3C 01C8                move.w     -[A7], 0x1C8
000010D0  3F3C 0033                move.w     -[A7], 0x33 /* '3' */
000010D4  A8A8                     syscall    OffsetRect
000010D6  4A2D FE7A                tst.b      [A5 - 0x186]
000010DA  6728                     beq        +0x2A /* 00001104 */
000010DC  206D B7BA                movea.l    A0, [A5 - 0x4846]
000010E0  2068 0002                movea.l    A0, [A0 + 0x2]
000010E4  2F10                     move.l     -[A7], [A0]
000010E6  486D B594                pea.l      [A5 - 0x4A6C]
000010EA  206D B7B2                movea.l    A0, [A5 - 0x484E]
000010EE  2068 0002                movea.l    A0, [A0 + 0x2]
000010F2  2F10                     move.l     -[A7], [A0]
000010F4  486D FA9A                pea.l      [A5 - 0x566]
000010F8  486D FA9A                pea.l      [A5 - 0x566]
000010FC  486E FFE0                pea.l      [A6 - 0x20]
00001100  A817                     syscall    CopyMask
00001102  601A                     bra        +0x1C /* 0000111E */
label00001104:
00001104  486D B5BE                pea.l      [A5 - 0x4A42]
00001108  486D B594                pea.l      [A5 - 0x4A6C]
0000110C  486D B5A2                pea.l      [A5 - 0x4A5E]
00001110  486D FA9A                pea.l      [A5 - 0x566]
00001114  486D FA9A                pea.l      [A5 - 0x566]
00001118  486E FFE0                pea.l      [A6 - 0x20]
0000111C  A817                     syscall    CopyMask
label0000111E:
0000111E  41ED FAB2                lea.l      A0, [A5 - 0x54E]
00001122  43EE FFE0                lea.l      A1, [A6 - 0x20]
00001126  22D8                     move.l     [A1]+, [A0]+
00001128  22D8                     move.l     [A1]+, [A0]+
0000112A  486E FFE0                pea.l      [A6 - 0x20]
0000112E  302E FFE2                move.w     D0, [A6 - 0x1E]
00001132  4440                     neg.w      D0
00001134  3F00                     move.w     -[A7], D0
00001136  302E FFE0                move.w     D0, [A6 - 0x20]
0000113A  4440                     neg.w      D0
0000113C  3F00                     move.w     -[A7], D0
0000113E  A8A8                     syscall    OffsetRect
00001140  486E FFE0                pea.l      [A6 - 0x20]
00001144  3F3C 01D2                move.w     -[A7], 0x1D2
00001148  3F3C 004B                move.w     -[A7], 0x4B /* 'K' */
0000114C  A8A8                     syscall    OffsetRect
0000114E  4A2D FE7A                tst.b      [A5 - 0x186]
00001152  672A                     beq        +0x2C /* 0000117E */
00001154  206D B7BA                movea.l    A0, [A5 - 0x4846]
00001158  2068 0002                movea.l    A0, [A0 + 0x2]
0000115C  2F10                     move.l     -[A7], [A0]
0000115E  486D B594                pea.l      [A5 - 0x4A6C]
00001162  206D B7B2                movea.l    A0, [A5 - 0x484E]
00001166  2068 0002                movea.l    A0, [A0 + 0x2]
0000116A  2F10                     move.l     -[A7], [A0]
0000116C  486D FAB2                pea.l      [A5 - 0x54E]
00001170  486D FAB2                pea.l      [A5 - 0x54E]
00001174  486E FFE0                pea.l      [A6 - 0x20]
00001178  A817                     syscall    CopyMask
0000117A  6000 0244                bra        +0x246 /* 000013C0 */
label0000117E:
0000117E  486D B5BE                pea.l      [A5 - 0x4A42]
00001182  486D B594                pea.l      [A5 - 0x4A6C]
00001186  486D B5A2                pea.l      [A5 - 0x4A5E]
0000118A  486D FAB2                pea.l      [A5 - 0x54E]
0000118E  486D FAB2                pea.l      [A5 - 0x54E]
00001192  486E FFE0                pea.l      [A6 - 0x20]
00001196  A817                     syscall    CopyMask
00001198  6000 0226                bra        +0x228 /* 000013C0 */
0000119C  3F3C 0025                move.w     -[A7], 0x25 /* '%' */
000011A0  2F0E                     move.l     -[A7], A6
000011A2  4EBA FC1E                jsr        [PC - 0x3E2 /* 00000DC2 */]
000011A6  41ED FB02                lea.l      A0, [A5 - 0x4FE]
000011AA  43EE FFE0                lea.l      A1, [A6 - 0x20]
000011AE  22D8                     move.l     [A1]+, [A0]+
000011B0  22D8                     move.l     [A1]+, [A0]+
000011B2  486E FFE0                pea.l      [A6 - 0x20]
000011B6  302E FFE2                move.w     D0, [A6 - 0x1E]
000011BA  4440                     neg.w      D0
000011BC  3F00                     move.w     -[A7], D0
000011BE  302E FFE0                move.w     D0, [A6 - 0x20]
000011C2  4440                     neg.w      D0
000011C4  3F00                     move.w     -[A7], D0
000011C6  A8A8                     syscall    OffsetRect
000011C8  486E FFE0                pea.l      [A6 - 0x20]
000011CC  3F3C 01D6                move.w     -[A7], 0x1D6
000011D0  3F3C 002D                move.w     -[A7], 0x2D /* '-' */
000011D4  A8A8                     syscall    OffsetRect
000011D6  4A2D FE7A                tst.b      [A5 - 0x186]
000011DA  6728                     beq        +0x2A /* 00001204 */
000011DC  206D B7BA                movea.l    A0, [A5 - 0x4846]
000011E0  2068 0002                movea.l    A0, [A0 + 0x2]
000011E4  2F10                     move.l     -[A7], [A0]
000011E6  486D B594                pea.l      [A5 - 0x4A6C]
000011EA  206D B7B2                movea.l    A0, [A5 - 0x484E]
000011EE  2068 0002                movea.l    A0, [A0 + 0x2]
000011F2  2F10                     move.l     -[A7], [A0]
000011F4  486D FB02                pea.l      [A5 - 0x4FE]
000011F8  486D FB02                pea.l      [A5 - 0x4FE]
000011FC  486E FFE0                pea.l      [A6 - 0x20]
00001200  A817                     syscall    CopyMask
00001202  601A                     bra        +0x1C /* 0000121E */
label00001204:
00001204  486D B5BE                pea.l      [A5 - 0x4A42]
00001208  486D B594                pea.l      [A5 - 0x4A6C]
0000120C  486D B5A2                pea.l      [A5 - 0x4A5E]
00001210  486D FB02                pea.l      [A5 - 0x4FE]
00001214  486D FB02                pea.l      [A5 - 0x4FE]
00001218  486E FFE0                pea.l      [A6 - 0x20]
0000121C  A817                     syscall    CopyMask
label0000121E:
0000121E  41ED FAFA                lea.l      A0, [A5 - 0x506]
00001222  43EE FFE0                lea.l      A1, [A6 - 0x20]
00001226  22D8                     move.l     [A1]+, [A0]+
00001228  22D8                     move.l     [A1]+, [A0]+
0000122A  486E FFE0                pea.l      [A6 - 0x20]
0000122E  302E FFE2                move.w     D0, [A6 - 0x1E]
00001232  4440                     neg.w      D0
00001234  3F00                     move.w     -[A7], D0
00001236  302E FFE0                move.w     D0, [A6 - 0x20]
0000123A  4440                     neg.w      D0
0000123C  3F00                     move.w     -[A7], D0
0000123E  A8A8                     syscall    OffsetRect
00001240  486E FFE0                pea.l      [A6 - 0x20]
00001244  3F3C 01DC                move.w     -[A7], 0x1DC
00001248  3F3C 004B                move.w     -[A7], 0x4B /* 'K' */
0000124C  A8A8                     syscall    OffsetRect
0000124E  4A2D FE7A                tst.b      [A5 - 0x186]
00001252  672A                     beq        +0x2C /* 0000127E */
00001254  206D B7BA                movea.l    A0, [A5 - 0x4846]
00001258  2068 0002                movea.l    A0, [A0 + 0x2]
0000125C  2F10                     move.l     -[A7], [A0]
0000125E  486D B594                pea.l      [A5 - 0x4A6C]
00001262  206D B7B2                movea.l    A0, [A5 - 0x484E]
00001266  2068 0002                movea.l    A0, [A0 + 0x2]
0000126A  2F10                     move.l     -[A7], [A0]
0000126C  486D FAFA                pea.l      [A5 - 0x506]
00001270  486D FAFA                pea.l      [A5 - 0x506]
00001274  486E FFE0                pea.l      [A6 - 0x20]
00001278  A817                     syscall    CopyMask
0000127A  6000 0144                bra        +0x146 /* 000013C0 */
label0000127E:
0000127E  486D B5BE                pea.l      [A5 - 0x4A42]
00001282  486D B594                pea.l      [A5 - 0x4A6C]
00001286  486D B5A2                pea.l      [A5 - 0x4A5E]
0000128A  486D FAFA                pea.l      [A5 - 0x506]
0000128E  486D FAFA                pea.l      [A5 - 0x506]
00001292  486E FFE0                pea.l      [A6 - 0x20]
00001296  A817                     syscall    CopyMask
00001298  6000 0126                bra        +0x128 /* 000013C0 */
0000129C  3F3C 0029                move.w     -[A7], 0x29 /* ')' */
000012A0  2F0E                     move.l     -[A7], A6
000012A2  4EBA FB1E                jsr        [PC - 0x4E2 /* 00000DC2 */]
000012A6  41ED FAE2                lea.l      A0, [A5 - 0x51E]
000012AA  43EE FFE0                lea.l      A1, [A6 - 0x20]
000012AE  22D8                     move.l     [A1]+, [A0]+
000012B0  22D8                     move.l     [A1]+, [A0]+
000012B2  486E FFE0                pea.l      [A6 - 0x20]
000012B6  302E FFE2                move.w     D0, [A6 - 0x1E]
000012BA  4440                     neg.w      D0
000012BC  3F00                     move.w     -[A7], D0
000012BE  302E FFE0                move.w     D0, [A6 - 0x20]
000012C2  4440                     neg.w      D0
000012C4  3F00                     move.w     -[A7], D0
000012C6  A8A8                     syscall    OffsetRect
000012C8  486E FFE0                pea.l      [A6 - 0x20]
000012CC  3F3C 01CC                move.w     -[A7], 0x1CC
000012D0  3F3C 002D                move.w     -[A7], 0x2D /* '-' */
000012D4  A8A8                     syscall    OffsetRect
000012D6  4A2D FE7A                tst.b      [A5 - 0x186]
000012DA  6728                     beq        +0x2A /* 00001304 */
000012DC  206D B7BA                movea.l    A0, [A5 - 0x4846]
000012E0  2068 0002                movea.l    A0, [A0 + 0x2]
000012E4  2F10                     move.l     -[A7], [A0]
000012E6  486D B594                pea.l      [A5 - 0x4A6C]
000012EA  206D B7B2                movea.l    A0, [A5 - 0x484E]
000012EE  2068 0002                movea.l    A0, [A0 + 0x2]
000012F2  2F10                     move.l     -[A7], [A0]
000012F4  486D FAE2                pea.l      [A5 - 0x51E]
000012F8  486D FAE2                pea.l      [A5 - 0x51E]
000012FC  486E FFE0                pea.l      [A6 - 0x20]
00001300  A817                     syscall    CopyMask
00001302  601A                     bra        +0x1C /* 0000131E */
label00001304:
00001304  486D B5BE                pea.l      [A5 - 0x4A42]
00001308  486D B594                pea.l      [A5 - 0x4A6C]
0000130C  486D B5A2                pea.l      [A5 - 0x4A5E]
00001310  486D FAE2                pea.l      [A5 - 0x51E]
00001314  486D FAE2                pea.l      [A5 - 0x51E]
00001318  486E FFE0                pea.l      [A6 - 0x20]
0000131C  A817                     syscall    CopyMask
label0000131E:
0000131E  41ED FADA                lea.l      A0, [A5 - 0x526]
00001322  43EE FFE0                lea.l      A1, [A6 - 0x20]
00001326  22D8                     move.l     [A1]+, [A0]+
00001328  22D8                     move.l     [A1]+, [A0]+
0000132A  486E FFE0                pea.l      [A6 - 0x20]
0000132E  302E FFE2                move.w     D0, [A6 - 0x1E]
00001332  4440                     neg.w      D0
00001334  3F00                     move.w     -[A7], D0
00001336  302E FFE0                move.w     D0, [A6 - 0x20]
0000133A  4440                     neg.w      D0
0000133C  3F00                     move.w     -[A7], D0
0000133E  A8A8                     syscall    OffsetRect
00001340  486E FFE0                pea.l      [A6 - 0x20]
00001344  3F3C 01D4                move.w     -[A7], 0x1D4
00001348  3F3C 0045                move.w     -[A7], 0x45 /* 'E' */
0000134C  A8A8                     syscall    OffsetRect
0000134E  4A2D FE7A                tst.b      [A5 - 0x186]
00001352  6728                     beq        +0x2A /* 0000137C */
00001354  206D B7BA                movea.l    A0, [A5 - 0x4846]
00001358  2068 0002                movea.l    A0, [A0 + 0x2]
0000135C  2F10                     move.l     -[A7], [A0]
0000135E  486D B594                pea.l      [A5 - 0x4A6C]
00001362  206D B7B2                movea.l    A0, [A5 - 0x484E]
00001366  2068 0002                movea.l    A0, [A0 + 0x2]
0000136A  2F10                     move.l     -[A7], [A0]
0000136C  486D FADA                pea.l      [A5 - 0x526]
00001370  486D FADA                pea.l      [A5 - 0x526]
00001374  486E FFE0                pea.l      [A6 - 0x20]
00001378  A817                     syscall    CopyMask
0000137A  6044                     bra        +0x46 /* 000013C0 */
label0000137C:
0000137C  486D B5BE                pea.l      [A5 - 0x4A42]
00001380  486D B594                pea.l      [A5 - 0x4A6C]
00001384  486D B5A2                pea.l      [A5 - 0x4A5E]
00001388  486D FADA                pea.l      [A5 - 0x526]
0000138C  486D FADA                pea.l      [A5 - 0x526]
00001390  486E FFE0                pea.l      [A6 - 0x20]
00001394  A817                     syscall    CopyMask
00001396  6028                     bra        +0x2A /* 000013C0 */
label00001398:
00001398  5340                     subq.w     D0, 1
0000139A  0C40 000B                cmpi.w     D0, 0xB
0000139E  6420                     bcc        +0x22 /* 000013C0 */
000013A0  D040                     add.w      D0, D0
000013A2  303B 0006                move.w     D0, [PC + D0.w + 0x6]
000013A6  4EFB 0002                jmp        [PC + D0.w + 0x2]
000013AA  FB40                     .extension 0xB40 <<F/4-5/5>> // unimplemented
000013AC  FBBA                     .invalid   <<F/6/5>>
000013AE  FC34 FCAC                .unknown   0xFC34 0xFCAC (W = 6)
000013B2  FCBA FCC8                .extension 0xCBA <<F/2-3/6>> // unimplemented
000013B6  FCD6 FCE4                .extension 0xCD6 <<F/2-3/6>> // unimplemented
000013BA  FCF2 FDF2                .extension 0xCF2 <<F/2-3/6>> // unimplemented
000013BE  FEF2 2F2D                .extension 0xEF2 <<F/2-3/7>> // unimplemented
// begin alternate branch 000013C0-000013C4
label000013C0:
000013C0  2F2D B560                move.l     -[A7], [A5 - 0x4AA0]
// end alternate branch 000013C0-000013C4
label000013C0: // (misaligned)
000013C2  B560                     xor.w      -[A0], D2
000013C4  A873                     syscall    SetPort
000013C6  4A2D FE7A                tst.b      [A5 - 0x186]
000013CA  6728                     beq        +0x2A /* 000013F4 */
000013CC  206D B7B2                movea.l    A0, [A5 - 0x484E]
000013D0  2068 0002                movea.l    A0, [A0 + 0x2]
000013D4  2F10                     move.l     -[A7], [A0]
000013D6  206D B560                movea.l    A0, [A5 - 0x4AA0]
000013DA  4868 0002                pea.l      [A0 + 0x2]
000013DE  486E FFE8                pea.l      [A6 - 0x18]
000013E2  486E FFE8                pea.l      [A6 - 0x18]
000013E6  4267                     clr.w      -[A7]
000013E8  206D B560                movea.l    A0, [A5 - 0x4AA0]
000013EC  2F28 0018                move.l     -[A7], [A0 + 0x18]
000013F0  A8EC                     syscall    CopyBits
000013F2  6020                     bra        +0x22 /* 00001414 */
label000013F4:
000013F4  486D B5A2                pea.l      [A5 - 0x4A5E]
000013F8  206D B560                movea.l    A0, [A5 - 0x4AA0]
000013FC  4868 0002                pea.l      [A0 + 0x2]
00001400  486E FFE8                pea.l      [A6 - 0x18]
00001404  486E FFE8                pea.l      [A6 - 0x18]
00001408  4267                     clr.w      -[A7]
0000140A  206D B560                movea.l    A0, [A5 - 0x4AA0]
0000140E  2F28 0018                move.l     -[A7], [A0 + 0x18]
00001412  A8EC                     syscall    CopyBits
label00001414:
00001414  4E5E                     unlink     A6
00001416  205F                     movea.l    A0, [A7]+
00001418  544F                     addq.w     A7, 2
0000141A  4ED0                     jmp        [A0]
export_90:
fn0000141C:
0000141C  4E56 FFE2                link       A6, -0x001E
00001420  48E7 0108                movem.l    -[A7], D7,A4
00001424  486E FFE8                pea.l      [A6 - 0x18]
00001428  3F3C 0004                move.w     -[A7], 0x4
0000142C  3F3C 0004                move.w     -[A7], 0x4
00001430  3F3C 01FB                move.w     -[A7], 0x1FB
00001434  3F3C 0082                move.w     -[A7], 0x82
00001438  A8A7                     syscall    SetRect
0000143A  4A2D FE7A                tst.b      [A5 - 0x186]
0000143E  6708                     beq        +0xA /* 00001448 */
00001440  2F2D B7B6                move.l     -[A7], [A5 - 0x484A]
00001444  A873                     syscall    SetPort
00001446  6006                     bra        +0x8 /* 0000144E */
label00001448:
00001448  2F2D B5E2                move.l     -[A7], [A5 - 0x4A1E]
0000144C  A873                     syscall    SetPort
label0000144E:
0000144E  594F                     subq.w     A7, 4
00001450  302D FEBC                move.w     D0, [A5 - 0x144]
00001454  0640 03E8                addi.w     D0, 0x3E8
00001458  3F00                     move.w     -[A7], D0
0000145A  A9BC                     syscall    GetPicture
0000145C  285F                     movea.l    A4, [A7]+
0000145E  200C                     move.l     D0, A4
00001460  6728                     beq        +0x2A /* 0000148A */
00001462  554F                     subq.w     A7, 2
00001464  2F0C                     move.l     -[A7], A4
00001466  4EAD 012A                jsr        [A5 + 0x12A /* export_33, CODE:1 @ 000007AE */]
0000146A  1E1F                     move.b     D7, [A7]+
0000146C  2F0C                     move.l     -[A7], A4
0000146E  205F                     movea.l    A0, [A7]+
00001470  A064                     syscall    MoveHHi
00001472  2F0C                     move.l     -[A7], A4
00001474  205F                     movea.l    A0, [A7]+
00001476  A029                     syscall    HLock
00001478  2F0C                     move.l     -[A7], A4
0000147A  486E FFE8                pea.l      [A6 - 0x18]
0000147E  A8F6                     syscall    DrawPicture
00001480  2F0C                     move.l     -[A7], A4
00001482  1F07                     move.b     -[A7], D7
00001484  4EAD 0132                jsr        [A5 + 0x132 /* export_34, CODE:1 @ 000007B8 */]
00001488  600A                     bra        +0xC /* 00001494 */
label0000148A:
0000148A  3F3C 0005                move.w     -[A7], 0x5
0000148E  4EAD 019A                jsr        [A5 + 0x19A /* export_47, CODE:1 @ 00000BA6 */]
00001492  A9F4                     syscall    ExitToShell
label00001494:
00001494  2F0C                     move.l     -[A7], A4
00001496  A9A3                     syscall    ReleaseResource
00001498  4A2D FE7A                tst.b      [A5 - 0x186]
0000149C  6736                     beq        +0x38 /* 000014D4 */
0000149E  2F3C 0000 0111           move.l     -[A7], 0x111
000014A4  A863                     syscall    BackColor
000014A6  206D B7B6                movea.l    A0, [A5 - 0x484A]
000014AA  2068 0002                movea.l    A0, [A0 + 0x2]
000014AE  2F10                     move.l     -[A7], [A0]
000014B0  206D B560                movea.l    A0, [A5 - 0x4AA0]
000014B4  4868 0002                pea.l      [A0 + 0x2]
000014B8  486E FFE8                pea.l      [A6 - 0x18]
000014BC  486E FFE8                pea.l      [A6 - 0x18]
000014C0  4267                     clr.w      -[A7]
000014C2  206D B560                movea.l    A0, [A5 - 0x4AA0]
000014C6  2F28 0018                move.l     -[A7], [A0 + 0x18]
000014CA  A8EC                     syscall    CopyBits
000014CC  701E                     moveq.l    D0, 0x1E
000014CE  2F00                     move.l     -[A7], D0
000014D0  A863                     syscall    BackColor
000014D2  6020                     bra        +0x22 /* 000014F4 */
label000014D4:
000014D4  486D B5B0                pea.l      [A5 - 0x4A50]
000014D8  206D B560                movea.l    A0, [A5 - 0x4AA0]
000014DC  4868 0002                pea.l      [A0 + 0x2]
000014E0  486E FFE8                pea.l      [A6 - 0x18]
000014E4  486E FFE8                pea.l      [A6 - 0x18]
000014E8  4267                     clr.w      -[A7]
000014EA  206D B560                movea.l    A0, [A5 - 0x4AA0]
000014EE  2F28 0018                move.l     -[A7], [A0 + 0x18]
000014F2  A8EC                     syscall    CopyBits
label000014F4:
000014F4  4CDF 1080                movem.l    D7,A4, [A7]+
000014F8  4E5E                     unlink     A6
000014FA  4E75                     rts
fn000014FC:
000014FC  4A2D FE7A                tst.b      [A5 - 0x186]
00001500  6750                     beq        +0x52 /* 00001552 */
00001502  206D B7B2                movea.l    A0, [A5 - 0x484E]
00001506  2068 0002                movea.l    A0, [A0 + 0x2]
0000150A  2F10                     move.l     -[A7], [A0]
0000150C  206D B560                movea.l    A0, [A5 - 0x4AA0]
00001510  4868 0002                pea.l      [A0 + 0x2]
00001514  486D B568                pea.l      [A5 - 0x4A98]
00001518  486D B568                pea.l      [A5 - 0x4A98]
0000151C  4267                     clr.w      -[A7]
0000151E  206D B560                movea.l    A0, [A5 - 0x4AA0]
00001522  2F28 0018                move.l     -[A7], [A0 + 0x18]
00001526  A8EC                     syscall    CopyBits
00001528  206D B7B2                movea.l    A0, [A5 - 0x484E]
0000152C  2068 0002                movea.l    A0, [A0 + 0x2]
00001530  2F10                     move.l     -[A7], [A0]
00001532  206D B7B6                movea.l    A0, [A5 - 0x484A]
00001536  2068 0002                movea.l    A0, [A0 + 0x2]
0000153A  2F10                     move.l     -[A7], [A0]
0000153C  486D B568                pea.l      [A5 - 0x4A98]
00001540  486D B568                pea.l      [A5 - 0x4A98]
00001544  4267                     clr.w      -[A7]
00001546  206D B560                movea.l    A0, [A5 - 0x4AA0]
0000154A  2F28 0018                move.l     -[A7], [A0 + 0x18]
0000154E  A8EC                     syscall    CopyBits
00001550  603C                     bra        +0x3E /* 0000158E */
label00001552:
00001552  486D B5A2                pea.l      [A5 - 0x4A5E]
00001556  206D B560                movea.l    A0, [A5 - 0x4AA0]
0000155A  4868 0002                pea.l      [A0 + 0x2]
0000155E  486D B568                pea.l      [A5 - 0x4A98]
00001562  486D B568                pea.l      [A5 - 0x4A98]
00001566  4267                     clr.w      -[A7]
00001568  206D B560                movea.l    A0, [A5 - 0x4AA0]
0000156C  2F28 0018                move.l     -[A7], [A0 + 0x18]
00001570  A8EC                     syscall    CopyBits
00001572  486D B5A2                pea.l      [A5 - 0x4A5E]
00001576  486D B5B0                pea.l      [A5 - 0x4A50]
0000157A  486D B568                pea.l      [A5 - 0x4A98]
0000157E  486D B568                pea.l      [A5 - 0x4A98]
00001582  4267                     clr.w      -[A7]
00001584  206D B560                movea.l    A0, [A5 - 0x4AA0]
00001588  2F28 0018                move.l     -[A7], [A0 + 0x18]
0000158C  A8EC                     syscall    CopyBits
label0000158E:
0000158E  0C6D 0156 FF5A           cmpi.w     [A5 - 0xA6], 0x156
00001594  6E04                     bgt        +0x6 /* 0000159A */
00001596  4EAD 01DA                jsr        [A5 + 0x1DA /* export_55, CODE:1 @ 000018F4 */]
label0000159A:
0000159A  4A2D FE7D                tst.b      [A5 - 0x183]
0000159E  6714                     beq        +0x16 /* 000015B4 */
000015A0  554F                     subq.w     A7, 2
000015A2  3F3C 000B                move.w     -[A7], 0xB
000015A6  4EAD 01AA                jsr        [A5 + 0x1AA /* export_49, CODE:1 @ 00000F4A */]
000015AA  301F                     move.w     D0, [A7]+
000015AC  5240                     addq.w     D0, 1
000015AE  3B40 F850                move.w     [A5 - 0x7B0], D0
000015B2  6008                     bra        +0xA /* 000015BC */
label000015B4:
000015B4  1F3C 0001                move.b     -[A7], 0x1
000015B8  4EBA F8C4                jsr        [PC - 0x73C /* 00000E7E */]
label000015BC:
000015BC  4E75                     rts
fn000015BE:
000015BE  0C6D 0007 FEBC           cmpi.w     [A5 - 0x144], 0x7
000015C4  6C1A                     bge        +0x1C /* 000015E0 */
000015C6  302D FEBC                move.w     D0, [A5 - 0x144]
000015CA  5240                     addq.w     D0, 1
000015CC  3B40 FEBC                move.w     [A5 - 0x144], D0
000015D0  4EBA FE4A                jsr        [PC - 0x1B6 /* 0000141C */]
000015D4  3F3C FFFF                move.w     -[A7], 0xFFFF
000015D8  4267                     clr.w      -[A7]
000015DA  201F                     move.l     D0, [A7]+
000015DC  A032                     syscall    FlushEvents
000015DE  6004                     bra        +0x6 /* 000015E4 */
label000015E0:
000015E0  4EBA FF1A                jsr        [PC - 0xE6 /* 000014FC */]
label000015E4:
000015E4  4E75                     rts
fn000015E6:
000015E6  3B7C 0001 FEBC           move.w     [A5 - 0x144], 0x1
000015EC  3B7C 0063 F850           move.w     [A5 - 0x7B0], 0x63 /* 'c' */
000015F2  0C6D 0156 FF5A           cmpi.w     [A5 - 0xA6], 0x156
000015F8  6E04                     bgt        +0x6 /* 000015FE */
000015FA  4EAD 01D2                jsr        [A5 + 0x1D2 /* export_54, CODE:1 @ 0000189E */]
label000015FE:
000015FE  4EBA FE1C                jsr        [PC - 0x1E4 /* 0000141C */]
label00001602:
00001602  554F                     subq.w     A7, 2
00001604  A974                     syscall    Button
00001606  101F                     move.b     D0, [A7]+
00001608  5300                     subq.b     D0, 1
0000160A  67F6                     beq        -0x8 /* 00001602 */
0000160C  4E75                     rts
export_91:
0000160E  4E56 FFEE                link       A6, -0x0012
00001612  2F07                     move.l     -[A7], D7
00001614  4247                     clr.w      D7
label00001616:
00001616  41ED FE8E                lea.l      A0, [A5 - 0x172]
0000161A  4230 7000                clr.b      [A0 + D7.w]
0000161E  5247                     addq.w     D7, 1
00001620  0C47 0003                cmpi.w     D7, 0x3
00001624  6FF0                     ble        -0xE /* 00001616 */
00001626  486D FE92                pea.l      [A5 - 0x16E]
0000162A  4267                     clr.w      -[A7]
0000162C  4267                     clr.w      -[A7]
0000162E  3F3C 0030                move.w     -[A7], 0x30 /* '0' */
00001632  3F3C 0014                move.w     -[A7], 0x14
00001636  A8A7                     syscall    SetRect
00001638  486D FE92                pea.l      [A5 - 0x16E]
0000163C  554F                     subq.w     A7, 2
0000163E  3F3C 01C2                move.w     -[A7], 0x1C2
00001642  4EAD 01AA                jsr        [A5 + 0x1AA /* export_49, CODE:1 @ 00000F4A */]
00001646  301F                     move.w     D0, [A7]+
00001648  0640 FE00                addi.w     D0, 0xFE00
0000164C  3F00                     move.w     -[A7], D0
0000164E  554F                     subq.w     A7, 2
00001650  3F3C 0046                move.w     -[A7], 0x46 /* 'F' */
00001654  4EAD 01AA                jsr        [A5 + 0x1AA /* export_49, CODE:1 @ 00000F4A */]
00001658  301F                     move.w     D0, [A7]+
0000165A  0640 0082                addi.w     D0, 0x82
0000165E  3F00                     move.w     -[A7], D0
00001660  A8A8                     syscall    OffsetRect
00001662  486D FE9A                pea.l      [A5 - 0x166]
00001666  4267                     clr.w      -[A7]
00001668  4267                     clr.w      -[A7]
0000166A  3F3C 0023                move.w     -[A7], 0x23 /* '#' */
0000166E  3F3C 000F                move.w     -[A7], 0xF
00001672  A8A7                     syscall    SetRect
00001674  486D FE9A                pea.l      [A5 - 0x166]
00001678  554F                     subq.w     A7, 2
0000167A  3F3C 01C2                move.w     -[A7], 0x1C2
0000167E  4EAD 01AA                jsr        [A5 + 0x1AA /* export_49, CODE:1 @ 00000F4A */]
00001682  301F                     move.w     D0, [A7]+
00001684  0640 FE00                addi.w     D0, 0xFE00
00001688  3F00                     move.w     -[A7], D0
0000168A  554F                     subq.w     A7, 2
0000168C  3F3C 0046                move.w     -[A7], 0x46 /* 'F' */
00001690  4EAD 01AA                jsr        [A5 + 0x1AA /* export_49, CODE:1 @ 00000F4A */]
00001694  301F                     move.w     D0, [A7]+
00001696  0640 0082                addi.w     D0, 0x82
0000169A  3F00                     move.w     -[A7], D0
0000169C  A8A8                     syscall    OffsetRect
0000169E  594F                     subq.w     A7, 4
000016A0  A975                     syscall    TickCount
000016A2  2B5F FEC2                move.l     [A5 - 0x13E], [A7]+
000016A6  3F3C 0003                move.w     -[A7], 0x3
000016AA  3F3C 00DE                move.w     -[A7], 0xDE
000016AE  A893                     syscall    MoveTo
000016B0  594F                     subq.w     A7, 4
000016B2  A8D8                     syscall    NewRgn
000016B4  2B5F FEB2                move.l     [A5 - 0x14E], [A7]+
000016B8  A8DA                     syscall    OpenRgn
000016BA  3F3C 001D                move.w     -[A7], 0x1D
000016BE  3F3C 00DE                move.w     -[A7], 0xDE
000016C2  A891                     syscall    LineTo
000016C4  3F3C 0010                move.w     -[A7], 0x10
000016C8  3F3C 00B7                move.w     -[A7], 0xB7
000016CC  A891                     syscall    LineTo
000016CE  3F3C 0052                move.w     -[A7], 0x52 /* 'R' */
000016D2  3F3C 00B7                move.w     -[A7], 0xB7
000016D6  A891                     syscall    LineTo
000016D8  3F3C 005D                move.w     -[A7], 0x5D /* ']' */
000016DC  3F3C 00A1                move.w     -[A7], 0xA1
000016E0  A891                     syscall    LineTo
000016E2  3F3C 00CC                move.w     -[A7], 0xCC
000016E6  3F3C 00A1                move.w     -[A7], 0xA1
000016EA  A891                     syscall    LineTo
000016EC  3F3C 00D6                move.w     -[A7], 0xD6
000016F0  3F3C 00C8                move.w     -[A7], 0xC8
000016F4  A891                     syscall    LineTo
000016F6  3F3C 0149                move.w     -[A7], 0x149
000016FA  3F3C 00C8                move.w     -[A7], 0xC8
000016FE  A891                     syscall    LineTo
00001700  3F3C 014F                move.w     -[A7], 0x14F
00001704  3F3C 00CE                move.w     -[A7], 0xCE
00001708  A891                     syscall    LineTo
0000170A  3F3C 0160                move.w     -[A7], 0x160
0000170E  3F3C 00CE                move.w     -[A7], 0xCE
00001712  A891                     syscall    LineTo
00001714  3F3C 0170                move.w     -[A7], 0x170
00001718  3F3C 00DD                move.w     -[A7], 0xDD
0000171C  A891                     syscall    LineTo
0000171E  3F3C 018C                move.w     -[A7], 0x18C
00001722  3F3C 00DD                move.w     -[A7], 0xDD
00001726  A891                     syscall    LineTo
00001728  3F3C 01FD                move.w     -[A7], 0x1FD
0000172C  3F3C 0116                move.w     -[A7], 0x116
00001730  A891                     syscall    LineTo
00001732  3F3C 01FD                move.w     -[A7], 0x1FD
00001736  3F3C 0082                move.w     -[A7], 0x82
0000173A  A891                     syscall    LineTo
0000173C  3F3C 0003                move.w     -[A7], 0x3
00001740  3F3C 0082                move.w     -[A7], 0x82
00001744  A891                     syscall    LineTo
00001746  3F3C 0003                move.w     -[A7], 0x3
0000174A  3F3C 00DE                move.w     -[A7], 0xDE
0000174E  A891                     syscall    LineTo
00001750  2F2D FEB2                move.l     -[A7], [A5 - 0x14E]
00001754  A8DB                     syscall    CloseRgn
00001756  426D FEB8                clr.w      [A5 - 0x148]
0000175A  426D FEB6                clr.w      [A5 - 0x14A]
0000175E  426D F852                clr.w      [A5 - 0x7AE]
00001762  1F3C 0001                move.b     -[A7], 0x1
00001766  4EBA F716                jsr        [PC - 0x8EA /* 00000E7E */]
0000176A  2E1F                     move.l     D7, [A7]+
0000176C  4E5E                     unlink     A6
0000176E  4E75                     rts
fn00001770:
00001770  4E56 FFE0                link       A6, -0x0020
00001774  302D FEE4                move.w     D0, [A5 - 0x11C]
00001778  5240                     addq.w     D0, 1
0000177A  3B40 FEE4                move.w     [A5 - 0x11C], D0
0000177E  0C6D 0006 FEE4           cmpi.w     [A5 - 0x11C], 0x6
00001784  6F0E                     ble        +0x10 /* 00001794 */
00001786  426D FEE4                clr.w      [A5 - 0x11C]
0000178A  302D FEE0                move.w     D0, [A5 - 0x120]
0000178E  4440                     neg.w      D0
00001790  3B40 FEE0                move.w     [A5 - 0x120], D0
label00001794:
00001794  486D FEC6                pea.l      [A5 - 0x13A]
00001798  4267                     clr.w      -[A7]
0000179A  3F2D FEE0                move.w     -[A7], [A5 - 0x120]
0000179E  A8A8                     syscall    OffsetRect
000017A0  4A2D FE7A                tst.b      [A5 - 0x186]
000017A4  6700 009E                beq        +0xA0 /* 00001844 */
000017A8  2F2D B7B6                move.l     -[A7], [A5 - 0x484A]
000017AC  A873                     syscall    SetPort
000017AE  486D FEC6                pea.l      [A5 - 0x13A]
000017B2  486D FED6                pea.l      [A5 - 0x12A]
000017B6  486D FECE                pea.l      [A5 - 0x132]
000017BA  A8AB                     syscall    UnionRect
000017BC  486D FECE                pea.l      [A5 - 0x132]
000017C0  486D FFBA                pea.l      [A5 - 0x46]
000017C4  A8A5                     syscall    FillRect
000017C6  2F2D B560                move.l     -[A7], [A5 - 0x4AA0]
000017CA  A873                     syscall    SetPort
000017CC  206D B7BA                movea.l    A0, [A5 - 0x4846]
000017D0  2068 0002                movea.l    A0, [A0 + 0x2]
000017D4  2F10                     move.l     -[A7], [A0]
000017D6  486D B594                pea.l      [A5 - 0x4A6C]
000017DA  206D B7B6                movea.l    A0, [A5 - 0x484A]
000017DE  2068 0002                movea.l    A0, [A0 + 0x2]
000017E2  2F10                     move.l     -[A7], [A0]
000017E4  302D FEE2                move.w     D0, [A5 - 0x11E]
000017E8  C1FC 0090                muls.w     D0, 0x90
000017EC  322D FEE4                move.w     D1, [A5 - 0x11C]
000017F0  E741                     asl        D1.w, 3
000017F2  D041                     add.w      D0, D1
000017F4  0640 F196                addi.w     D0, 0xF196
000017F8  4875 0000                pea.l      [A5 + D0.w]
000017FC  302D FEE2                move.w     D0, [A5 - 0x11E]
00001800  C1FC 0090                muls.w     D0, 0x90
00001804  322D FEE4                move.w     D1, [A5 - 0x11C]
00001808  E741                     asl        D1.w, 3
0000180A  D041                     add.w      D0, D1
0000180C  0640 F196                addi.w     D0, 0xF196
00001810  4875 0000                pea.l      [A5 + D0.w]
00001814  486D FEC6                pea.l      [A5 - 0x13A]
00001818  A817                     syscall    CopyMask
0000181A  206D B7B6                movea.l    A0, [A5 - 0x484A]
0000181E  2068 0002                movea.l    A0, [A0 + 0x2]
00001822  2F10                     move.l     -[A7], [A0]
00001824  206D B560                movea.l    A0, [A5 - 0x4AA0]
00001828  4868 0002                pea.l      [A0 + 0x2]
0000182C  486D FECE                pea.l      [A5 - 0x132]
00001830  486D FECE                pea.l      [A5 - 0x132]
00001834  4267                     clr.w      -[A7]
00001836  206D B560                movea.l    A0, [A5 - 0x4AA0]
0000183A  2F28 0018                move.l     -[A7], [A0 + 0x18]
0000183E  A8EC                     syscall    CopyBits
00001840  6000 0088                bra        +0x8A /* 000018CA */
label00001844:
00001844  2F2D B5E2                move.l     -[A7], [A5 - 0x4A1E]
00001848  A873                     syscall    SetPort
0000184A  486D FEC6                pea.l      [A5 - 0x13A]
0000184E  486D FED6                pea.l      [A5 - 0x12A]
00001852  486D FECE                pea.l      [A5 - 0x132]
00001856  A8AB                     syscall    UnionRect
00001858  486D FECE                pea.l      [A5 - 0x132]
0000185C  486D FFBA                pea.l      [A5 - 0x46]
00001860  A8A5                     syscall    FillRect
00001862  2F2D B560                move.l     -[A7], [A5 - 0x4AA0]
00001866  A873                     syscall    SetPort
00001868  486D B5BE                pea.l      [A5 - 0x4A42]
0000186C  486D B594                pea.l      [A5 - 0x4A6C]
00001870  486D B5B0                pea.l      [A5 - 0x4A50]
00001874  302D FEE2                move.w     D0, [A5 - 0x11E]
00001878  C1FC 0090                muls.w     D0, 0x90
0000187C  322D FEE4                move.w     D1, [A5 - 0x11C]
00001880  E741                     asl        D1.w, 3
00001882  D041                     add.w      D0, D1
00001884  0640 F196                addi.w     D0, 0xF196
00001888  4875 0000                pea.l      [A5 + D0.w]
0000188C  302D FEE2                move.w     D0, [A5 - 0x11E]
00001890  C1FC 0090                muls.w     D0, 0x90
00001894  322D FEE4                move.w     D1, [A5 - 0x11C]
00001898  E741                     asl        D1.w, 3
0000189A  D041                     add.w      D0, D1
0000189C  0640 F196                addi.w     D0, 0xF196
000018A0  4875 0000                pea.l      [A5 + D0.w]
000018A4  486D FEC6                pea.l      [A5 - 0x13A]
000018A8  A817                     syscall    CopyMask
000018AA  486D B5B0                pea.l      [A5 - 0x4A50]
000018AE  206D B560                movea.l    A0, [A5 - 0x4AA0]
000018B2  4868 0002                pea.l      [A0 + 0x2]
000018B6  486D FECE                pea.l      [A5 - 0x132]
000018BA  486D FECE                pea.l      [A5 - 0x132]
000018BE  4267                     clr.w      -[A7]
000018C0  206D B560                movea.l    A0, [A5 - 0x4AA0]
000018C4  2F28 0018                move.l     -[A7], [A0 + 0x18]
000018C8  A8EC                     syscall    CopyBits
label000018CA:
000018CA  41ED FEC6                lea.l      A0, [A5 - 0x13A]
000018CE  43ED FED6                lea.l      A1, [A5 - 0x12A]
000018D2  22D8                     move.l     [A1]+, [A0]+
000018D4  22D8                     move.l     [A1]+, [A0]+
000018D6  4E5E                     unlink     A6
000018D8  4E75                     rts
export_92:
000018DA  4E56 FF78                link       A6, -0x0088
000018DE  2F0C                     move.l     -[A7], A4
000018E0  4A6D F850                tst.w      [A5 - 0x7B0]
000018E4  6700 03D6                beq        +0x3D8 /* 00001CBC */
000018E8  0C6D 0063 F850           cmpi.w     [A5 - 0x7B0], 0x63 /* 'c' */
000018EE  6736                     beq        +0x38 /* 00001926 */
000018F0  302D F852                move.w     D0, [A5 - 0x7AE]
000018F4  5240                     addq.w     D0, 1
000018F6  3B40 F852                move.w     [A5 - 0x7AE], D0
000018FA  0C6D 009F F852           cmpi.w     [A5 - 0x7AE], 0x9F
00001900  6D0C                     blt        +0xE /* 0000190E */
00001902  426D F852                clr.w      [A5 - 0x7AE]
00001906  1F3C 0001                move.b     -[A7], 0x1
0000190A  4EBA F572                jsr        [PC - 0xA8E /* 00000E7E */]
label0000190E:
0000190E  0C6D 0001 F850           cmpi.w     [A5 - 0x7B0], 0x1
00001914  5CC0                     sge        D0
00001916  0C6D 0003 F850           cmpi.w     [A5 - 0x7B0], 0x3
0000191C  5FC1                     sle        D1
0000191E  C001                     and.b      D0, D1
00001920  6704                     beq        +0x6 /* 00001926 */
00001922  4EBA FE4C                jsr        [PC - 0x1B4 /* 00001770 */]
label00001926:
00001926  486D FE92                pea.l      [A5 - 0x16E]
0000192A  3F3C 0004                move.w     -[A7], 0x4
0000192E  4267                     clr.w      -[A7]
00001930  A8A8                     syscall    OffsetRect
00001932  486D FE9A                pea.l      [A5 - 0x166]
00001936  3F3C 0003                move.w     -[A7], 0x3
0000193A  4267                     clr.w      -[A7]
0000193C  A8A8                     syscall    OffsetRect
0000193E  4A2D FE7A                tst.b      [A5 - 0x186]
00001942  6708                     beq        +0xA /* 0000194C */
00001944  2F2D B7B6                move.l     -[A7], [A5 - 0x484A]
00001948  A873                     syscall    SetPort
0000194A  6006                     bra        +0x8 /* 00001952 */
label0000194C:
0000194C  2F2D B5E2                move.l     -[A7], [A5 - 0x4A1E]
00001950  A873                     syscall    SetPort
label00001952:
00001952  41ED FE92                lea.l      A0, [A5 - 0x16E]
00001956  43EE FFE0                lea.l      A1, [A6 - 0x20]
0000195A  22D8                     move.l     [A1]+, [A0]+
0000195C  22D8                     move.l     [A1]+, [A0]+
0000195E  302E FFE2                move.w     D0, [A6 - 0x1E]
00001962  5940                     subq.w     D0, 4
00001964  3D40 FFE2                move.w     [A6 - 0x1E], D0
00001968  486E FFE0                pea.l      [A6 - 0x20]
0000196C  486D FFBA                pea.l      [A5 - 0x46]
00001970  A8A5                     syscall    FillRect
00001972  41ED FE9A                lea.l      A0, [A5 - 0x166]
00001976  43EE FFD8                lea.l      A1, [A6 - 0x28]
0000197A  22D8                     move.l     [A1]+, [A0]+
0000197C  22D8                     move.l     [A1]+, [A0]+
0000197E  302E FFDA                move.w     D0, [A6 - 0x26]
00001982  5740                     subq.w     D0, 3
00001984  3D40 FFDA                move.w     [A6 - 0x26], D0
00001988  486E FFD8                pea.l      [A6 - 0x28]
0000198C  486D FFBA                pea.l      [A5 - 0x46]
00001990  A8A5                     syscall    FillRect
00001992  486E FFD0                pea.l      [A6 - 0x30]
00001996  4267                     clr.w      -[A7]
00001998  3F3C 013E                move.w     -[A7], 0x13E
0000199C  3F3C 0023                move.w     -[A7], 0x23 /* '#' */
000019A0  3F3C 014D                move.w     -[A7], 0x14D
000019A4  A8A7                     syscall    SetRect
000019A6  2F2D B560                move.l     -[A7], [A5 - 0x4AA0]
000019AA  A873                     syscall    SetPort
000019AC  594F                     subq.w     A7, 4
000019AE  A8D8                     syscall    NewRgn
000019B0  285F                     movea.l    A4, [A7]+
000019B2  4A2D FE7A                tst.b      [A5 - 0x186]
000019B6  6700 00A0                beq        +0xA2 /* 00001A58 */
000019BA  2F2D FEB2                move.l     -[A7], [A5 - 0x14E]
000019BE  206D B560                movea.l    A0, [A5 - 0x4AA0]
000019C2  2F28 0018                move.l     -[A7], [A0 + 0x18]
000019C6  2F0C                     move.l     -[A7], A4
000019C8  A8E4                     syscall    SectRgn
000019CA  206D B7BA                movea.l    A0, [A5 - 0x4846]
000019CE  2068 0002                movea.l    A0, [A0 + 0x2]
000019D2  2F10                     move.l     -[A7], [A0]
000019D4  486D B594                pea.l      [A5 - 0x4A6C]
000019D8  206D B7B6                movea.l    A0, [A5 - 0x484A]
000019DC  2068 0002                movea.l    A0, [A0 + 0x2]
000019E0  2F10                     move.l     -[A7], [A0]
000019E2  486E FFD0                pea.l      [A6 - 0x30]
000019E6  486E FFD0                pea.l      [A6 - 0x30]
000019EA  486D FE9A                pea.l      [A5 - 0x166]
000019EE  A817                     syscall    CopyMask
000019F0  206D B7BA                movea.l    A0, [A5 - 0x4846]
000019F4  2068 0002                movea.l    A0, [A0 + 0x2]
000019F8  2F10                     move.l     -[A7], [A0]
000019FA  486D B594                pea.l      [A5 - 0x4A6C]
000019FE  206D B7B6                movea.l    A0, [A5 - 0x484A]
00001A02  2068 0002                movea.l    A0, [A0 + 0x2]
00001A06  2F10                     move.l     -[A7], [A0]
00001A08  486D F672                pea.l      [A5 - 0x98E]
00001A0C  486D F672                pea.l      [A5 - 0x98E]
00001A10  486D FE92                pea.l      [A5 - 0x16E]
00001A14  A817                     syscall    CopyMask
00001A16  206D B7B6                movea.l    A0, [A5 - 0x484A]
00001A1A  2068 0002                movea.l    A0, [A0 + 0x2]
00001A1E  2F10                     move.l     -[A7], [A0]
00001A20  206D B560                movea.l    A0, [A5 - 0x4AA0]
00001A24  4868 0002                pea.l      [A0 + 0x2]
00001A28  486E FFE0                pea.l      [A6 - 0x20]
00001A2C  486E FFE0                pea.l      [A6 - 0x20]
00001A30  4267                     clr.w      -[A7]
00001A32  2F0C                     move.l     -[A7], A4
00001A34  A8EC                     syscall    CopyBits
00001A36  206D B7B6                movea.l    A0, [A5 - 0x484A]
00001A3A  2068 0002                movea.l    A0, [A0 + 0x2]
00001A3E  2F10                     move.l     -[A7], [A0]
00001A40  206D B560                movea.l    A0, [A5 - 0x4AA0]
00001A44  4868 0002                pea.l      [A0 + 0x2]
00001A48  486E FFD8                pea.l      [A6 - 0x28]
00001A4C  486E FFD8                pea.l      [A6 - 0x28]
00001A50  4267                     clr.w      -[A7]
00001A52  2F0C                     move.l     -[A7], A4
00001A54  A8EC                     syscall    CopyBits
00001A56  6078                     bra        +0x7A /* 00001AD0 */
label00001A58:
00001A58  2F2D FEB2                move.l     -[A7], [A5 - 0x14E]
00001A5C  206D B560                movea.l    A0, [A5 - 0x4AA0]
00001A60  2F28 0018                move.l     -[A7], [A0 + 0x18]
00001A64  2F0C                     move.l     -[A7], A4
00001A66  A8E4                     syscall    SectRgn
00001A68  486D B5BE                pea.l      [A5 - 0x4A42]
00001A6C  486D B594                pea.l      [A5 - 0x4A6C]
00001A70  486D B5B0                pea.l      [A5 - 0x4A50]
00001A74  486E FFD0                pea.l      [A6 - 0x30]
00001A78  486E FFD0                pea.l      [A6 - 0x30]
00001A7C  486D FE9A                pea.l      [A5 - 0x166]
00001A80  A817                     syscall    CopyMask
00001A82  486D B5BE                pea.l      [A5 - 0x4A42]
00001A86  486D B594                pea.l      [A5 - 0x4A6C]
00001A8A  486D B5B0                pea.l      [A5 - 0x4A50]
00001A8E  486D F672                pea.l      [A5 - 0x98E]
00001A92  486D F672                pea.l      [A5 - 0x98E]
00001A96  486D FE92                pea.l      [A5 - 0x16E]
00001A9A  A817                     syscall    CopyMask
00001A9C  486D B5B0                pea.l      [A5 - 0x4A50]
00001AA0  206D B560                movea.l    A0, [A5 - 0x4AA0]
00001AA4  4868 0002                pea.l      [A0 + 0x2]
00001AA8  486E FFE0                pea.l      [A6 - 0x20]
00001AAC  486E FFE0                pea.l      [A6 - 0x20]
00001AB0  4267                     clr.w      -[A7]
00001AB2  2F0C                     move.l     -[A7], A4
00001AB4  A8EC                     syscall    CopyBits
00001AB6  486D B5B0                pea.l      [A5 - 0x4A50]
00001ABA  206D B560                movea.l    A0, [A5 - 0x4AA0]
00001ABE  4868 0002                pea.l      [A0 + 0x2]
00001AC2  486E FFD8                pea.l      [A6 - 0x28]
00001AC6  486E FFD8                pea.l      [A6 - 0x28]
00001ACA  4267                     clr.w      -[A7]
00001ACC  2F0C                     move.l     -[A7], A4
00001ACE  A8EC                     syscall    CopyBits
label00001AD0:
00001AD0  2F0C                     move.l     -[A7], A4
00001AD2  A8D9                     syscall    DisposRgn/DisposeRgn
00001AD4  0C6D 0200 FE94           cmpi.w     [A5 - 0x16C], 0x200
00001ADA  6F3C                     ble        +0x3E /* 00001B18 */
00001ADC  486D FE92                pea.l      [A5 - 0x16E]
00001AE0  4267                     clr.w      -[A7]
00001AE2  4267                     clr.w      -[A7]
00001AE4  3F3C 0030                move.w     -[A7], 0x30 /* '0' */
00001AE8  3F3C 0014                move.w     -[A7], 0x14
00001AEC  A8A7                     syscall    SetRect
00001AEE  486D FE92                pea.l      [A5 - 0x16E]
00001AF2  554F                     subq.w     A7, 2
00001AF4  3F3C 01C2                move.w     -[A7], 0x1C2
00001AF8  4EAD 01AA                jsr        [A5 + 0x1AA /* export_49, CODE:1 @ 00000F4A */]
00001AFC  301F                     move.w     D0, [A7]+
00001AFE  0640 FE00                addi.w     D0, 0xFE00
00001B02  3F00                     move.w     -[A7], D0
00001B04  554F                     subq.w     A7, 2
00001B06  3F3C 0046                move.w     -[A7], 0x46 /* 'F' */
00001B0A  4EAD 01AA                jsr        [A5 + 0x1AA /* export_49, CODE:1 @ 00000F4A */]
00001B0E  301F                     move.w     D0, [A7]+
00001B10  0640 0082                addi.w     D0, 0x82
00001B14  3F00                     move.w     -[A7], D0
00001B16  A8A8                     syscall    OffsetRect
label00001B18:
00001B18  0C6D 0200 FE9C           cmpi.w     [A5 - 0x164], 0x200
00001B1E  6F3C                     ble        +0x3E /* 00001B5C */
00001B20  486D FE9A                pea.l      [A5 - 0x166]
00001B24  4267                     clr.w      -[A7]
00001B26  4267                     clr.w      -[A7]
00001B28  3F3C 0023                move.w     -[A7], 0x23 /* '#' */
00001B2C  3F3C 000F                move.w     -[A7], 0xF
00001B30  A8A7                     syscall    SetRect
00001B32  486D FE9A                pea.l      [A5 - 0x166]
00001B36  554F                     subq.w     A7, 2
00001B38  3F3C 01C2                move.w     -[A7], 0x1C2
00001B3C  4EAD 01AA                jsr        [A5 + 0x1AA /* export_49, CODE:1 @ 00000F4A */]
00001B40  301F                     move.w     D0, [A7]+
00001B42  0640 FE00                addi.w     D0, 0xFE00
00001B46  3F00                     move.w     -[A7], D0
00001B48  554F                     subq.w     A7, 2
00001B4A  3F3C 0046                move.w     -[A7], 0x46 /* 'F' */
00001B4E  4EAD 01AA                jsr        [A5 + 0x1AA /* export_49, CODE:1 @ 00000F4A */]
00001B52  301F                     move.w     D0, [A7]+
00001B54  0640 0082                addi.w     D0, 0x82
00001B58  3F00                     move.w     -[A7], D0
00001B5A  A8A8                     syscall    OffsetRect
label00001B5C:
00001B5C  A89E                     syscall    PenNormal
00001B5E  4A2D FE7A                tst.b      [A5 - 0x186]
00001B62  6700 0116                beq        +0x118 /* 00001C7A */
00001B66  302D FEB6                move.w     D0, [A5 - 0x14A]
00001B6A  6000 0100                bra        +0x102 /* 00001C6C */
label00001B6E:
00001B6E  41ED B568                lea.l      A0, [A5 - 0x4A98]
00001B72  43ED FEA2                lea.l      A1, [A5 - 0x15E]
00001B76  22D8                     move.l     [A1]+, [A0]+
00001B78  22D8                     move.l     [A1]+, [A0]+
00001B7A  486D B7EA                pea.l      [A5 - 0x4816]
00001B7E  AA14                     syscall    RGBForeColor
00001B80  486D FEA2                pea.l      [A5 - 0x15E]
00001B84  A8A1                     syscall    FrameRect
00001B86  486D FEA2                pea.l      [A5 - 0x15E]
00001B8A  3F3C 0001                move.w     -[A7], 0x1
00001B8E  3F3C 0001                move.w     -[A7], 0x1
00001B92  A8A9                     syscall    InsetRect
00001B94  486D B7FC                pea.l      [A5 - 0x4804]
00001B98  AA14                     syscall    RGBForeColor
00001B9A  486D FEA2                pea.l      [A5 - 0x15E]
00001B9E  A8A1                     syscall    FrameRect
00001BA0  486D FEA2                pea.l      [A5 - 0x15E]
00001BA4  3F3C 0001                move.w     -[A7], 0x1
00001BA8  3F3C 0001                move.w     -[A7], 0x1
00001BAC  A8A9                     syscall    InsetRect
00001BAE  486D B7DE                pea.l      [A5 - 0x4822]
00001BB2  AA14                     syscall    RGBForeColor
00001BB4  486D FEA2                pea.l      [A5 - 0x15E]
00001BB8  A8A1                     syscall    FrameRect
00001BBA  486D B7D2                pea.l      [A5 - 0x482E]
00001BBE  AA14                     syscall    RGBForeColor
00001BC0  6000 00B8                bra        +0xBA /* 00001C7A */
label00001BC4:
00001BC4  41ED B568                lea.l      A0, [A5 - 0x4A98]
00001BC8  43ED FEA2                lea.l      A1, [A5 - 0x15E]
00001BCC  22D8                     move.l     [A1]+, [A0]+
00001BCE  22D8                     move.l     [A1]+, [A0]+
00001BD0  486D B7DE                pea.l      [A5 - 0x4822]
00001BD4  AA14                     syscall    RGBForeColor
00001BD6  486D FEA2                pea.l      [A5 - 0x15E]
00001BDA  A8A1                     syscall    FrameRect
00001BDC  486D FEA2                pea.l      [A5 - 0x15E]
00001BE0  3F3C 0001                move.w     -[A7], 0x1
00001BE4  3F3C 0001                move.w     -[A7], 0x1
00001BE8  A8A9                     syscall    InsetRect
00001BEA  486D B7EA                pea.l      [A5 - 0x4816]
00001BEE  AA14                     syscall    RGBForeColor
00001BF0  486D FEA2                pea.l      [A5 - 0x15E]
00001BF4  A8A1                     syscall    FrameRect
00001BF6  486D FEA2                pea.l      [A5 - 0x15E]
00001BFA  3F3C 0001                move.w     -[A7], 0x1
00001BFE  3F3C 0001                move.w     -[A7], 0x1
00001C02  A8A9                     syscall    InsetRect
00001C04  486D B7FC                pea.l      [A5 - 0x4804]
00001C08  AA14                     syscall    RGBForeColor
00001C0A  486D FEA2                pea.l      [A5 - 0x15E]
00001C0E  A8A1                     syscall    FrameRect
00001C10  486D B7D2                pea.l      [A5 - 0x482E]
00001C14  AA14                     syscall    RGBForeColor
00001C16  6062                     bra        +0x64 /* 00001C7A */
label00001C18:
00001C18  41ED B568                lea.l      A0, [A5 - 0x4A98]
00001C1C  43ED FEA2                lea.l      A1, [A5 - 0x15E]
00001C20  22D8                     move.l     [A1]+, [A0]+
00001C22  22D8                     move.l     [A1]+, [A0]+
00001C24  486D B7FC                pea.l      [A5 - 0x4804]
00001C28  AA14                     syscall    RGBForeColor
00001C2A  486D FEA2                pea.l      [A5 - 0x15E]
00001C2E  A8A1                     syscall    FrameRect
00001C30  486D FEA2                pea.l      [A5 - 0x15E]
00001C34  3F3C 0001                move.w     -[A7], 0x1
00001C38  3F3C 0001                move.w     -[A7], 0x1
00001C3C  A8A9                     syscall    InsetRect
00001C3E  486D B7DE                pea.l      [A5 - 0x4822]
00001C42  AA14                     syscall    RGBForeColor
00001C44  486D FEA2                pea.l      [A5 - 0x15E]
00001C48  A8A1                     syscall    FrameRect
00001C4A  486D FEA2                pea.l      [A5 - 0x15E]
00001C4E  3F3C 0001                move.w     -[A7], 0x1
00001C52  3F3C 0001                move.w     -[A7], 0x1
00001C56  A8A9                     syscall    InsetRect
00001C58  486D B7EA                pea.l      [A5 - 0x4816]
00001C5C  AA14                     syscall    RGBForeColor
00001C5E  486D FEA2                pea.l      [A5 - 0x15E]
00001C62  A8A1                     syscall    FrameRect
00001C64  486D B7D2                pea.l      [A5 - 0x482E]
00001C68  AA14                     syscall    RGBForeColor
00001C6A  600E                     bra        +0x10 /* 00001C7A */
label00001C6C:
00001C6C  6700 FF00                beq        -0xFE /* 00001B6E */
00001C70  5340                     subq.w     D0, 1
00001C72  6700 FF50                beq        -0xAE /* 00001BC4 */
00001C76  5340                     subq.w     D0, 1
00001C78  679E                     beq        -0x60 /* 00001C18 */
label00001C7A:
00001C7A  302D FEB8                move.w     D0, [A5 - 0x148]
00001C7E  5240                     addq.w     D0, 1
00001C80  3B40 FEB8                move.w     [A5 - 0x148], D0
00001C84  0C6D 0005 FEB8           cmpi.w     [A5 - 0x148], 0x5
00001C8A  6F1A                     ble        +0x1C /* 00001CA6 */
00001C8C  426D FEB8                clr.w      [A5 - 0x148]
00001C90  302D FEB6                move.w     D0, [A5 - 0x14A]
00001C94  5240                     addq.w     D0, 1
00001C96  3B40 FEB6                move.w     [A5 - 0x14A], D0
00001C9A  0C6D 0002 FEB6           cmpi.w     [A5 - 0x14A], 0x2
00001CA0  6F04                     ble        +0x6 /* 00001CA6 */
00001CA2  426D FEB6                clr.w      [A5 - 0x14A]
label00001CA6:
00001CA6  594F                     subq.w     A7, 4
00001CA8  A975                     syscall    TickCount
00001CAA  202D FEC2                move.l     D0, [A5 - 0x13E]
00001CAE  5480                     addq.l     D0, 2
00001CB0  B09F                     cmp.l      D0, [A7]+
00001CB2  6EF2                     bgt        -0xC /* 00001CA6 */
00001CB4  594F                     subq.w     A7, 4
00001CB6  A975                     syscall    TickCount
00001CB8  2B5F FEC2                move.l     [A5 - 0x13E], [A7]+
label00001CBC:
00001CBC  285F                     movea.l    A4, [A7]+
00001CBE  4E5E                     unlink     A6
00001CC0  4E75                     rts
export_93:
00001CC2  2F2D FEB2                move.l     -[A7], [A5 - 0x14E]
00001CC6  A8D9                     syscall    DisposRgn/DisposeRgn
00001CC8  4E75                     rts
export_94:
00001CCA  4E56 FFD4                link       A6, -0x002C
00001CCE  48E7 0138                movem.l    -[A7], D7,A2,A3,A4
00001CD2  266E 000C                movea.l    A3, [A6 + 0xC]
00001CD6  422E 0014                clr.b      [A6 + 0x14]
00001CDA  0C53 0003                cmpi.w     [A3], 0x3
00001CDE  57C0                     seq        D0
00001CE0  222B 0002                move.l     D1, [A3 + 0x2]
00001CE4  0281 0000 00FF           andi.l     D1, 0xFF
00001CEA  740D                     moveq.l    D2, 0x0D
00001CEC  B282                     cmp.l      D1, D2
00001CEE  57C1                     seq        D1
00001CF0  C001                     and.b      D0, D1
00001CF2  670E                     beq        +0x10 /* 00001D02 */
00001CF4  206E 0008                movea.l    A0, [A6 + 0x8]
00001CF8  30BC 0001                move.w     [A0], 0x1
00001CFC  1D7C 0001 0014           move.b     [A6 + 0x14], 0x1
label00001D02:
00001D02  594F                     subq.w     A7, 4
00001D04  A975                     syscall    TickCount
00001D06  2D5F FFE8                move.l     [A6 - 0x18], [A7]+
00001D0A  705A                     moveq.l    D0, 0x5A
00001D0C  D0AD FEBE                add.l      D0, [A5 - 0x142]
00001D10  B0AE FFE8                cmp.l      D0, [A6 - 0x18]
00001D14  6C00 00B6                bge        +0xB8 /* 00001DCC */
00001D18  594F                     subq.w     A7, 4
00001D1A  A975                     syscall    TickCount
00001D1C  2B5F FEBE                move.l     [A5 - 0x142], [A7]+
00001D20  302D FEBA                move.w     D0, [A5 - 0x146]
00001D24  5240                     addq.w     D0, 1
00001D26  3B40 FEBA                move.w     [A5 - 0x146], D0
00001D2A  0C6D 0003 FEBA           cmpi.w     [A5 - 0x146], 0x3
00001D30  6F04                     ble        +0x6 /* 00001D36 */
00001D32  426D FEBA                clr.w      [A5 - 0x146]
label00001D36:
00001D36  7E02                     moveq.l    D7, 0x02
label00001D38:
00001D38  4EAD 0192                jsr        [A5 + 0x192 /* export_46, CODE:1 @ 00000B2E */]
00001D3C  7001                     moveq.l    D0, 0x01
00001D3E  2F00                     move.l     -[A7], D0
00001D40  486E FFE8                pea.l      [A6 - 0x18]
00001D44  4EAD 009A                jsr        [A5 + 0x9A /* export_15, CODE:1 @ 00000506 */]
00001D48  4EAD 0192                jsr        [A5 + 0x192 /* export_46, CODE:1 @ 00000B2E */]
00001D4C  7001                     moveq.l    D0, 0x01
00001D4E  2F00                     move.l     -[A7], D0
00001D50  486E FFE8                pea.l      [A6 - 0x18]
00001D54  4EAD 009A                jsr        [A5 + 0x9A /* export_15, CODE:1 @ 00000506 */]
00001D58  2F2E 0010                move.l     -[A7], [A6 + 0x10]
00001D5C  3F07                     move.w     -[A7], D7
00001D5E  486E FFEC                pea.l      [A6 - 0x14]
00001D62  486E FFDC                pea.l      [A6 - 0x24]
00001D66  486E FFE0                pea.l      [A6 - 0x20]
00001D6A  A98D                     syscall    GetDialogItem/GetDItem
00001D6C  4A2D FE7A                tst.b      [A5 - 0x186]
00001D70  672A                     beq        +0x2C /* 00001D9C */
00001D72  594F                     subq.w     A7, 4
00001D74  3007                     move.w     D0, D7
00001D76  0640 04CA                addi.w     D0, 0x4CA
00001D7A  322D FEBA                move.w     D1, [A5 - 0x146]
00001D7E  C3FC 0009                muls.w     D1, 0x9 /* '\t' */
00001D82  D041                     add.w      D0, D1
00001D84  3F00                     move.w     -[A7], D0
00001D86  AA1E                     syscall    GetCIcon
00001D88  285F                     movea.l    A4, [A7]+
00001D8A  200C                     move.l     D0, A4
00001D8C  6732                     beq        +0x34 /* 00001DC0 */
00001D8E  486E FFE0                pea.l      [A6 - 0x20]
00001D92  2F0C                     move.l     -[A7], A4
00001D94  AA1F                     syscall    PlotCIcon
00001D96  2F0C                     move.l     -[A7], A4
00001D98  AA25                     syscall    DisposeCIcon/DisposCIcon
00001D9A  6024                     bra        +0x26 /* 00001DC0 */
label00001D9C:
00001D9C  594F                     subq.w     A7, 4
00001D9E  3007                     move.w     D0, D7
00001DA0  0640 04CA                addi.w     D0, 0x4CA
00001DA4  322D FEBA                move.w     D1, [A5 - 0x146]
00001DA8  C3FC 0009                muls.w     D1, 0x9 /* '\t' */
00001DAC  D041                     add.w      D0, D1
00001DAE  3F00                     move.w     -[A7], D0
00001DB0  A9BB                     syscall    GetIcon
00001DB2  245F                     movea.l    A2, [A7]+
00001DB4  200A                     move.l     D0, A2
00001DB6  6708                     beq        +0xA /* 00001DC0 */
00001DB8  486E FFE0                pea.l      [A6 - 0x20]
00001DBC  2F0A                     move.l     -[A7], A2
00001DBE  A94B                     syscall    PlotIcon
label00001DC0:
00001DC0  A850                     syscall    InitCursor
00001DC2  5247                     addq.w     D7, 1
00001DC4  0C47 000A                cmpi.w     D7, 0xA /* '\n' */
00001DC8  6F00 FF6E                ble        -0x90 /* 00001D38 */
label00001DCC:
00001DCC  4CDF 1C80                movem.l    D7,A2,A3,A4, [A7]+
00001DD0  4E5E                     unlink     A6
00001DD2  205F                     movea.l    A0, [A7]+
00001DD4  4FEF 000C                lea.l      A7, [A7 + 0xC]
00001DD8  4ED0                     jmp        [A0]
fn00001DDA:
00001DDA  4E56 FFE8                link       A6, -0x0018
00001DDE  2F0C                     move.l     -[A7], A4
00001DE0  286E 0008                movea.l    A4, [A6 + 0x8]
00001DE4  2F2C FFE0                move.l     -[A7], [A4 - 0x20]
00001DE8  A873                     syscall    SetPort
00001DEA  2F2C FFE0                move.l     -[A7], [A4 - 0x20]
00001DEE  3F3C 0001                move.w     -[A7], 0x1
00001DF2  486C FFEA                pea.l      [A4 - 0x16]
00001DF6  486C FFE4                pea.l      [A4 - 0x1C]
00001DFA  486C FFD8                pea.l      [A4 - 0x28]
00001DFE  A98D                     syscall    GetDialogItem/GetDItem
00001E00  3F3C 0003                move.w     -[A7], 0x3
00001E04  3F3C 0003                move.w     -[A7], 0x3
00001E08  A89B                     syscall    PenSize
00001E0A  486C FFD8                pea.l      [A4 - 0x28]
00001E0E  3F3C FFFC                move.w     -[A7], 0xFFFC
00001E12  3F3C FFFC                move.w     -[A7], 0xFFFC
00001E16  A8A9                     syscall    InsetRect
00001E18  486C FFD8                pea.l      [A4 - 0x28]
00001E1C  3F3C 0010                move.w     -[A7], 0x10
00001E20  3F3C 0010                move.w     -[A7], 0x10
00001E24  A8B0                     syscall    FrameRoundRect
00001E26  3F3C 0001                move.w     -[A7], 0x1
00001E2A  3F3C 0001                move.w     -[A7], 0x1
00001E2E  A89B                     syscall    PenSize
00001E30  285F                     movea.l    A4, [A7]+
00001E32  4E5E                     unlink     A6
00001E34  2E9F                     move.l     [A7], [A7]+
00001E36  4E75                     rts
fn00001E38:
00001E38  4E56 FFD8                link       A6, -0x0028
00001E3C  486E FFEC                pea.l      [A6 - 0x14]
00001E40  A874                     syscall    GetPort
00001E42  594F                     subq.w     A7, 4
00001E44  3F3C 00E4                move.w     -[A7], 0xE4
00001E48  42A7                     clr.l      -[A7]
00001E4A  70FF                     moveq.l    D0, 0xFFFFFFFF
00001E4C  2F00                     move.l     -[A7], D0
00001E4E  A97C                     syscall    GetNewDialog
00001E50  2D5F FFE0                move.l     [A6 - 0x20], [A7]+
00001E54  206E FFE0                movea.l    A0, [A6 - 0x20]
00001E58  41E8 0010                lea.l      A0, [A0 + 0x10]
00001E5C  43EE FFD8                lea.l      A1, [A6 - 0x28]
00001E60  22D8                     move.l     [A1]+, [A0]+
00001E62  22D8                     move.l     [A1]+, [A0]+
00001E64  302D FF5A                move.w     D0, [A5 - 0xA6]
00001E68  906D FF56                sub.w      D0, [A5 - 0xAA]
00001E6C  322E FFDC                move.w     D1, [A6 - 0x24]
00001E70  926E FFD8                sub.w      D1, [A6 - 0x28]
00001E74  9041                     sub.w      D0, D1
00001E76  48C0                     ext.l      D0
00001E78  81FC 0002                divs.w     D0, 0x2
00001E7C  3D40 FFD8                move.w     [A6 - 0x28], D0
00001E80  302D FF5C                move.w     D0, [A5 - 0xA4]
00001E84  906D FF58                sub.w      D0, [A5 - 0xA8]
00001E88  322E FFDE                move.w     D1, [A6 - 0x22]
00001E8C  926E FFDA                sub.w      D1, [A6 - 0x26]
00001E90  9041                     sub.w      D0, D1
00001E92  48C0                     ext.l      D0
00001E94  81FC 0002                divs.w     D0, 0x2
00001E98  3D40 FFDA                move.w     [A6 - 0x26], D0
00001E9C  2F2E FFE0                move.l     -[A7], [A6 - 0x20]
00001EA0  3F2E FFDA                move.w     -[A7], [A6 - 0x26]
00001EA4  3F2E FFD8                move.w     -[A7], [A6 - 0x28]
00001EA8  1F3C 0001                move.b     -[A7], 0x1
00001EAC  A91B                     syscall    MoveWindow
00001EAE  2F2E FFE0                move.l     -[A7], [A6 - 0x20]
00001EB2  A915                     syscall    ShowWindow
00001EB4  2F2E FFE0                move.l     -[A7], [A6 - 0x20]
00001EB8  A91F                     syscall    SelectWindow
00001EBA  2F2E FFE0                move.l     -[A7], [A6 - 0x20]
00001EBE  A873                     syscall    SetPort
00001EC0  2F0E                     move.l     -[A7], A6
00001EC2  4EBA FF16                jsr        [PC - 0xEA /* 00001DDA */]
00001EC6  594F                     subq.w     A7, 4
00001EC8  A975                     syscall    TickCount
00001ECA  2B5F FEBE                move.l     [A5 - 0x142], [A7]+
00001ECE  426D FEBA                clr.w      [A5 - 0x146]
label00001ED2:
00001ED2  486D 0312                pea.l      [A5 + 0x312 /* export_94, CODE:4 @ 00001CCA */]
00001ED6  486E FFE8                pea.l      [A6 - 0x18]
00001EDA  A991                     syscall    ModalDialog
00001EDC  0C6E 0001 FFE8           cmpi.w     [A6 - 0x18], 0x1
00001EE2  66EE                     bne        -0x10 /* 00001ED2 */
00001EE4  2F2E FFEC                move.l     -[A7], [A6 - 0x14]
00001EE8  A873                     syscall    SetPort
00001EEA  2F2E FFE0                move.l     -[A7], [A6 - 0x20]
00001EEE  A983                     syscall    DisposeDialog
00001EF0  4E5E                     unlink     A6
00001EF2  4E75                     rts
fn00001EF4:
00001EF4  4E56 0000                link       A6, 0
00001EF8  2F07                     move.l     -[A7], D7
00001EFA  3E2E 000C                move.w     D7, [A6 + 0xC]
00001EFE  3007                     move.w     D0, D7
00001F00  6036                     bra        +0x38 /* 00001F38 */
00001F02  4267                     clr.w      -[A7]
00001F04  4EAD 0102                jsr        [A5 + 0x102 /* export_28, CODE:1 @ 000006DE */]
00001F08  3E3C 0320                move.w     D7, 0x320
00001F0C  6054                     bra        +0x56 /* 00001F62 */
00001F0E  3F3C 0001                move.w     -[A7], 0x1
00001F12  4EAD 0102                jsr        [A5 + 0x102 /* export_28, CODE:1 @ 000006DE */]
00001F16  3E3C 0321                move.w     D7, 0x321
00001F1A  6046                     bra        +0x48 /* 00001F62 */
00001F1C  3F3C 0003                move.w     -[A7], 0x3
00001F20  4EAD 0102                jsr        [A5 + 0x102 /* export_28, CODE:1 @ 000006DE */]
00001F24  3E3C 0322                move.w     D7, 0x322
00001F28  6038                     bra        +0x3A /* 00001F62 */
00001F2A  3F3C 0005                move.w     -[A7], 0x5
00001F2E  4EAD 0102                jsr        [A5 + 0x102 /* export_28, CODE:1 @ 000006DE */]
00001F32  3E3C 0323                move.w     D7, 0x323
00001F36  602A                     bra        +0x2C /* 00001F62 */
label00001F38:
00001F38  0C40 0007                cmpi.w     D0, 0x7
00001F3C  6418                     bcc        +0x1A /* 00001F56 */
00001F3E  D040                     add.w      D0, D0
00001F40  303B 0006                move.w     D0, [PC + D0.w + 0x6]
00001F44  4EFB 0002                jmp        [PC + D0.w + 0x2]
00001F48  FFBA                     .invalid   <<F/6/7>>
00001F4A  FFC6                     .invalid   <<F/7/7>>
00001F4C  FFC6                     .invalid   <<F/7/7>>
00001F4E  FFD4                     .invalid   <<F/7/7>>
00001F50  FFD4                     .invalid   <<F/7/7>>
00001F52  FFE2                     .invalid   <<F/7/7>>
00001F54  FFE2                     .invalid   <<F/7/7>>
label00001F56:
00001F56  3F3C 0007                move.w     -[A7], 0x7
00001F5A  4EAD 0102                jsr        [A5 + 0x102 /* export_28, CODE:1 @ 000006DE */]
00001F5E  3E3C 0324                move.w     D7, 0x324
label00001F62:
00001F62  3D47 000E                move.w     [A6 + 0xE], D7
00001F66  2E1F                     move.l     D7, [A7]+
00001F68  4E5E                     unlink     A6
00001F6A  205F                     movea.l    A0, [A7]+
00001F6C  5C4F                     addq.w     A7, 6
00001F6E  4ED0                     jmp        [A0]
fn00001F70:
00001F70  4E56 FFD4                link       A6, -0x002C
00001F74  48E7 0138                movem.l    -[A7], D7,A2,A3,A4
00001F78  286E 0008                movea.l    A4, [A6 + 0x8]
00001F7C  2F2C FEDC                move.l     -[A7], [A4 - 0x124]
00001F80  A873                     syscall    SetPort
00001F82  2F2C FEDC                move.l     -[A7], [A4 - 0x124]
00001F86  3F3C 000D                move.w     -[A7], 0xD /* '\r' */
00001F8A  486C FFEA                pea.l      [A4 - 0x16]
00001F8E  486C FEE0                pea.l      [A4 - 0x120]
00001F92  486C FED4                pea.l      [A4 - 0x12C]
00001F96  A98D                     syscall    GetDialogItem/GetDItem
00001F98  486C FED4                pea.l      [A4 - 0x12C]
00001F9C  486D FFBA                pea.l      [A5 - 0x46]
00001FA0  A8A5                     syscall    FillRect
00001FA2  2F2C FEDC                move.l     -[A7], [A4 - 0x124]
00001FA6  3F3C 0001                move.w     -[A7], 0x1
00001FAA  486C FFEA                pea.l      [A4 - 0x16]
00001FAE  486C FEE0                pea.l      [A4 - 0x120]
00001FB2  486C FED4                pea.l      [A4 - 0x12C]
00001FB6  A98D                     syscall    GetDialogItem/GetDItem
00001FB8  3F3C 0003                move.w     -[A7], 0x3
00001FBC  3F3C 0003                move.w     -[A7], 0x3
00001FC0  A89B                     syscall    PenSize
00001FC2  486C FED4                pea.l      [A4 - 0x12C]
00001FC6  3F3C FFFC                move.w     -[A7], 0xFFFC
00001FCA  3F3C FFFC                move.w     -[A7], 0xFFFC
00001FCE  A8A9                     syscall    InsetRect
00001FD0  486C FED4                pea.l      [A4 - 0x12C]
00001FD4  3F3C 0010                move.w     -[A7], 0x10
00001FD8  3F3C 0010                move.w     -[A7], 0x10
00001FDC  A8B0                     syscall    FrameRoundRect
00001FDE  3F3C 0001                move.w     -[A7], 0x1
00001FE2  3F3C 0001                move.w     -[A7], 0x1
00001FE6  A89B                     syscall    PenSize
00001FE8  486E FFEC                pea.l      [A6 - 0x14]
00001FEC  4EAD 010A                jsr        [A5 + 0x10A /* export_29, CODE:1 @ 00000700 */]
00001FF0  2F2C FEDC                move.l     -[A7], [A4 - 0x124]
00001FF4  3F3C 000C                move.w     -[A7], 0xC
00001FF8  486C FFEA                pea.l      [A4 - 0x16]
00001FFC  486C FEE0                pea.l      [A4 - 0x120]
00002000  486C FED4                pea.l      [A4 - 0x12C]
00002004  A98D                     syscall    GetDialogItem/GetDItem
00002006  302E FFEC                move.w     D0, [A6 - 0x14]
0000200A  48C0                     ext.l      D0
0000200C  2F00                     move.l     -[A7], D0
0000200E  486C FEE4                pea.l      [A4 - 0x11C]
00002012  4EAD 0142                jsr        [A5 + 0x142 /* export_36, CODE:1 @ 000007D2 */]
00002016  2F2C FEE0                move.l     -[A7], [A4 - 0x120]
0000201A  486C FEE4                pea.l      [A4 - 0x11C]
0000201E  A98F                     syscall    SetDialogItemText/SetIText
00002020  554F                     subq.w     A7, 2
00002022  3F2E FFEC                move.w     -[A7], [A6 - 0x14]
00002026  2F0C                     move.l     -[A7], A4
00002028  4EBA FECA                jsr        [PC - 0x136 /* 00001EF4 */]
0000202C  3E1F                     move.w     D7, [A7]+
0000202E  2F2C FEDC                move.l     -[A7], [A4 - 0x124]
00002032  3F3C 0007                move.w     -[A7], 0x7
00002036  486C FFEA                pea.l      [A4 - 0x16]
0000203A  486C FEE0                pea.l      [A4 - 0x120]
0000203E  486C FED4                pea.l      [A4 - 0x12C]
00002042  A98D                     syscall    GetDialogItem/GetDItem
00002044  4A2D FE7A                tst.b      [A5 - 0x186]
00002048  671E                     beq        +0x20 /* 00002068 */
0000204A  594F                     subq.w     A7, 4
0000204C  3F07                     move.w     -[A7], D7
0000204E  AA1E                     syscall    GetCIcon
00002050  245F                     movea.l    A2, [A7]+
00002052  200A                     move.l     D0, A2
00002054  672A                     beq        +0x2C /* 00002080 */
00002056  486C FED4                pea.l      [A4 - 0x12C]
0000205A  2F0A                     move.l     -[A7], A2
0000205C  AA1F                     syscall    PlotCIcon
0000205E  2F0B                     move.l     -[A7], A3
00002060  A9A3                     syscall    ReleaseResource
00002062  2F0A                     move.l     -[A7], A2
00002064  AA25                     syscall    DisposeCIcon/DisposCIcon
00002066  6018                     bra        +0x1A /* 00002080 */
label00002068:
00002068  594F                     subq.w     A7, 4
0000206A  3F07                     move.w     -[A7], D7
0000206C  A9BB                     syscall    GetIcon
0000206E  265F                     movea.l    A3, [A7]+
00002070  200B                     move.l     D0, A3
00002072  670C                     beq        +0xE /* 00002080 */
00002074  486C FED4                pea.l      [A4 - 0x12C]
00002078  2F0B                     move.l     -[A7], A3
0000207A  A94B                     syscall    PlotIcon
0000207C  2F0B                     move.l     -[A7], A3
0000207E  A9A3                     syscall    ReleaseResource
label00002080:
00002080  4CDF 1C80                movem.l    D7,A2,A3,A4, [A7]+
00002084  4E5E                     unlink     A6
00002086  2E9F                     move.l     [A7], [A7]+
00002088  4E75                     rts
fn0000208A:
0000208A  4E56 FECE                link       A6, -0x0132
0000208E  48E7 1F00                movem.l    -[A7], D3,D4,D5,D6,D7
00002092  3F3C FFFF                move.w     -[A7], 0xFFFF
00002096  4267                     clr.w      -[A7]
00002098  201F                     move.l     D0, [A7]+
0000209A  A032                     syscall    FlushEvents
0000209C  486E FFEC                pea.l      [A6 - 0x14]
000020A0  A874                     syscall    GetPort
000020A2  3F2D F84A                move.w     -[A7], [A5 - 0x7B6]
000020A6  A998                     syscall    UseResFile
000020A8  486E FFE4                pea.l      [A6 - 0x1C]
000020AC  4EAD 010A                jsr        [A5 + 0x10A /* export_29, CODE:1 @ 00000700 */]
000020B0  1D6D FE73 FED2           move.b     [A6 - 0x12E], [A5 - 0x18D]
000020B6  162D FE74                move.b     D3, [A5 - 0x18C]
000020BA  1E2D FE73                move.b     D7, [A5 - 0x18D]
000020BE  1C2D FE74                move.b     D6, [A5 - 0x18C]
000020C2  182D FE88                move.b     D4, [A5 - 0x178]
000020C6  594F                     subq.w     A7, 4
000020C8  3F3C 0083                move.w     -[A7], 0x83
000020CC  42A7                     clr.l      -[A7]
000020CE  70FF                     moveq.l    D0, 0xFFFFFFFF
000020D0  2F00                     move.l     -[A7], D0
000020D2  A97C                     syscall    GetNewDialog
000020D4  2D5F FEDC                move.l     [A6 - 0x124], [A7]+
000020D8  206E FEDC                movea.l    A0, [A6 - 0x124]
000020DC  41E8 0010                lea.l      A0, [A0 + 0x10]
000020E0  43EE FED4                lea.l      A1, [A6 - 0x12C]
000020E4  22D8                     move.l     [A1]+, [A0]+
000020E6  22D8                     move.l     [A1]+, [A0]+
000020E8  302D FF5A                move.w     D0, [A5 - 0xA6]
000020EC  906D FF56                sub.w      D0, [A5 - 0xAA]
000020F0  322E FED8                move.w     D1, [A6 - 0x128]
000020F4  926E FED4                sub.w      D1, [A6 - 0x12C]
000020F8  9041                     sub.w      D0, D1
000020FA  48C0                     ext.l      D0
000020FC  81FC 0002                divs.w     D0, 0x2
00002100  3D40 FED4                move.w     [A6 - 0x12C], D0
00002104  302D FF5C                move.w     D0, [A5 - 0xA4]
00002108  906D FF58                sub.w      D0, [A5 - 0xA8]
0000210C  322E FEDA                move.w     D1, [A6 - 0x126]
00002110  926E FED6                sub.w      D1, [A6 - 0x12A]
00002114  9041                     sub.w      D0, D1
00002116  48C0                     ext.l      D0
00002118  81FC 0002                divs.w     D0, 0x2
0000211C  3D40 FED6                move.w     [A6 - 0x12A], D0
00002120  2F2E FEDC                move.l     -[A7], [A6 - 0x124]
00002124  3F2E FED6                move.w     -[A7], [A6 - 0x12A]
00002128  3F2E FED4                move.w     -[A7], [A6 - 0x12C]
0000212C  1F3C 0001                move.b     -[A7], 0x1
00002130  A91B                     syscall    MoveWindow
00002132  2F2E FEDC                move.l     -[A7], [A6 - 0x124]
00002136  A915                     syscall    ShowWindow
00002138  2F2E FEDC                move.l     -[A7], [A6 - 0x124]
0000213C  A91F                     syscall    SelectWindow
0000213E  2F2E FEDC                move.l     -[A7], [A6 - 0x124]
00002142  A873                     syscall    SetPort
00002144  2F2E FEDC                move.l     -[A7], [A6 - 0x124]
00002148  3F3C 0003                move.w     -[A7], 0x3
0000214C  486E FFEA                pea.l      [A6 - 0x16]
00002150  486E FEE0                pea.l      [A6 - 0x120]
00002154  486E FED4                pea.l      [A6 - 0x12C]
00002158  A98D                     syscall    GetDialogItem/GetDItem
0000215A  4A2D FE73                tst.b      [A5 - 0x18D]
0000215E  670C                     beq        +0xE /* 0000216C */
00002160  2F2E FEE0                move.l     -[A7], [A6 - 0x120]
00002164  3F3C 0001                move.w     -[A7], 0x1
00002168  A963                     syscall    SetControlValue/SetCtlValue
0000216A  6008                     bra        +0xA /* 00002174 */
label0000216C:
0000216C  2F2E FEE0                move.l     -[A7], [A6 - 0x120]
00002170  4267                     clr.w      -[A7]
00002172  A963                     syscall    SetControlValue/SetCtlValue
label00002174:
00002174  2F2E FEDC                move.l     -[A7], [A6 - 0x124]
00002178  3F3C 0004                move.w     -[A7], 0x4
0000217C  486E FFEA                pea.l      [A6 - 0x16]
00002180  486E FEE0                pea.l      [A6 - 0x120]
00002184  486E FED4                pea.l      [A6 - 0x12C]
00002188  A98D                     syscall    GetDialogItem/GetDItem
0000218A  4A2D FE74                tst.b      [A5 - 0x18C]
0000218E  670C                     beq        +0xE /* 0000219C */
00002190  2F2E FEE0                move.l     -[A7], [A6 - 0x120]
00002194  3F3C 0001                move.w     -[A7], 0x1
00002198  A963                     syscall    SetControlValue/SetCtlValue
0000219A  6008                     bra        +0xA /* 000021A4 */
label0000219C:
0000219C  2F2E FEE0                move.l     -[A7], [A6 - 0x120]
000021A0  4267                     clr.w      -[A7]
000021A2  A963                     syscall    SetControlValue/SetCtlValue
label000021A4:
000021A4  4A2D FE78                tst.b      [A5 - 0x188]
000021A8  670A                     beq        +0xC /* 000021B4 */
000021AA  2F2E FEDC                move.l     -[A7], [A6 - 0x124]
000021AE  3F3C 0004                move.w     -[A7], 0x4
000021B2  A827                     syscall    HideDialogItem/HideDItem
label000021B4:
000021B4  4A2D FE7B                tst.b      [A5 - 0x185]
000021B8  6740                     beq        +0x42 /* 000021FA */
000021BA  4A2D FE88                tst.b      [A5 - 0x178]
000021BE  6718                     beq        +0x1A /* 000021D8 */
000021C0  2F2E FEDC                move.l     -[A7], [A6 - 0x124]
000021C4  3F3C 000E                move.w     -[A7], 0xE
000021C8  486E FFEA                pea.l      [A6 - 0x16]
000021CC  486E FEE0                pea.l      [A6 - 0x120]
000021D0  486E FED4                pea.l      [A6 - 0x12C]
000021D4  A98D                     syscall    GetDialogItem/GetDItem
000021D6  6016                     bra        +0x18 /* 000021EE */
label000021D8:
000021D8  2F2E FEDC                move.l     -[A7], [A6 - 0x124]
000021DC  3F3C 000F                move.w     -[A7], 0xF
000021E0  486E FFEA                pea.l      [A6 - 0x16]
000021E4  486E FEE0                pea.l      [A6 - 0x120]
000021E8  486E FED4                pea.l      [A6 - 0x12C]
000021EC  A98D                     syscall    GetDialogItem/GetDItem
label000021EE:
000021EE  2F2E FEE0                move.l     -[A7], [A6 - 0x120]
000021F2  3F3C 0001                move.w     -[A7], 0x1
000021F6  A963                     syscall    SetControlValue/SetCtlValue
000021F8  6014                     bra        +0x16 /* 0000220E */
label000021FA:
000021FA  2F2E FEDC                move.l     -[A7], [A6 - 0x124]
000021FE  3F3C 000E                move.w     -[A7], 0xE
00002202  A827                     syscall    HideDialogItem/HideDItem
00002204  2F2E FEDC                move.l     -[A7], [A6 - 0x124]
00002208  3F3C 000F                move.w     -[A7], 0xF
0000220C  A827                     syscall    HideDialogItem/HideDItem
label0000220E:
0000220E  2F0E                     move.l     -[A7], A6
00002210  4EBA FD5E                jsr        [PC - 0x2A2 /* 00001F70 */]
00002214  4205                     clr.b      D5
label00002216:
00002216  42A7                     clr.l      -[A7]
00002218  486E FFE8                pea.l      [A6 - 0x18]
0000221C  A991                     syscall    ModalDialog
0000221E  2F2E FEDC                move.l     -[A7], [A6 - 0x124]
00002222  3F2E FFE8                move.w     -[A7], [A6 - 0x18]
00002226  486E FFEA                pea.l      [A6 - 0x16]
0000222A  486E FEE0                pea.l      [A6 - 0x120]
0000222E  486E FED4                pea.l      [A6 - 0x12C]
00002232  A98D                     syscall    GetDialogItem/GetDItem
00002234  0C6E 0001 FFE8           cmpi.w     [A6 - 0x18], 0x1
0000223A  6616                     bne        +0x18 /* 00002252 */
0000223C  7A01                     moveq.l    D5, 0x01
0000223E  486E FFE6                pea.l      [A6 - 0x1A]
00002242  4EAD 010A                jsr        [A5 + 0x10A /* export_29, CODE:1 @ 00000700 */]
00002246  4A6E FFE6                tst.w      [A6 - 0x1A]
0000224A  56C0                     sne        D0
0000224C  C007                     and.b      D0, D7
0000224E  1B40 FE73                move.b     [A5 - 0x18D], D0
label00002252:
00002252  0C6E 0002 FFE8           cmpi.w     [A6 - 0x18], 0x2
00002258  6618                     bne        +0x1A /* 00002272 */
0000225A  7A01                     moveq.l    D5, 0x01
0000225C  3F2E FFE4                move.w     -[A7], [A6 - 0x1C]
00002260  4EAD 0102                jsr        [A5 + 0x102 /* export_28, CODE:1 @ 000006DE */]
00002264  1B6E FED2 FE73           move.b     [A5 - 0x18D], [A6 - 0x12E]
0000226A  1B43 FE74                move.b     [A5 - 0x18C], D3
0000226E  1B44 FE88                move.b     [A5 - 0x178], D4
label00002272:
00002272  0C6E 0003 FFE8           cmpi.w     [A6 - 0x18], 0x3
00002278  6640                     bne        +0x42 /* 000022BA */
0000227A  102D FE73                move.b     D0, [A5 - 0x18D]
0000227E  5300                     subq.b     D0, 1
00002280  4400                     neg.b      D0
00002282  1B40 FE73                move.b     [A5 - 0x18D], D0
00002286  5307                     subq.b     D7, 1
00002288  4407                     neg.b      D7
0000228A  2F2E FEDC                move.l     -[A7], [A6 - 0x124]
0000228E  3F3C 0003                move.w     -[A7], 0x3
00002292  486E FFEA                pea.l      [A6 - 0x16]
00002296  486E FEE0                pea.l      [A6 - 0x120]
0000229A  486E FED4                pea.l      [A6 - 0x12C]
0000229E  A98D                     syscall    GetDialogItem/GetDItem
000022A0  4A2D FE73                tst.b      [A5 - 0x18D]
000022A4  670C                     beq        +0xE /* 000022B2 */
000022A6  2F2E FEE0                move.l     -[A7], [A6 - 0x120]
000022AA  3F3C 0001                move.w     -[A7], 0x1
000022AE  A963                     syscall    SetControlValue/SetCtlValue
000022B0  6008                     bra        +0xA /* 000022BA */
label000022B2:
000022B2  2F2E FEE0                move.l     -[A7], [A6 - 0x120]
000022B6  4267                     clr.w      -[A7]
000022B8  A963                     syscall    SetControlValue/SetCtlValue
label000022BA:
000022BA  0C6E 0004 FFE8           cmpi.w     [A6 - 0x18], 0x4
000022C0  6640                     bne        +0x42 /* 00002302 */
000022C2  5306                     subq.b     D6, 1
000022C4  4406                     neg.b      D6
000022C6  102D FE74                move.b     D0, [A5 - 0x18C]
000022CA  5300                     subq.b     D0, 1
000022CC  4400                     neg.b      D0
000022CE  1B40 FE74                move.b     [A5 - 0x18C], D0
000022D2  2F2E FEDC                move.l     -[A7], [A6 - 0x124]
000022D6  3F3C 0004                move.w     -[A7], 0x4
000022DA  486E FFEA                pea.l      [A6 - 0x16]
000022DE  486E FEE0                pea.l      [A6 - 0x120]
000022E2  486E FED4                pea.l      [A6 - 0x12C]
000022E6  A98D                     syscall    GetDialogItem/GetDItem
000022E8  4A2D FE74                tst.b      [A5 - 0x18C]
000022EC  670C                     beq        +0xE /* 000022FA */
000022EE  2F2E FEE0                move.l     -[A7], [A6 - 0x120]
000022F2  3F3C 0001                move.w     -[A7], 0x1
000022F6  A963                     syscall    SetControlValue/SetCtlValue
000022F8  6008                     bra        +0xA /* 00002302 */
label000022FA:
000022FA  2F2E FEE0                move.l     -[A7], [A6 - 0x120]
000022FE  4267                     clr.w      -[A7]
00002300  A963                     syscall    SetControlValue/SetCtlValue
label00002302:
00002302  0C6E 0005 FFE8           cmpi.w     [A6 - 0x18], 0x5
00002308  6600 00C6                bne        +0xC8 /* 000023D0 */
0000230C  486E FFE6                pea.l      [A6 - 0x1A]
00002310  4EAD 010A                jsr        [A5 + 0x10A /* export_29, CODE:1 @ 00000700 */]
00002314  302E FFE6                move.w     D0, [A6 - 0x1A]
00002318  6018                     bra        +0x1A /* 00002332 */
label0000231A:
0000231A  3D7C 0001 FFE6           move.w     [A6 - 0x1A], 0x1
00002320  6028                     bra        +0x2A /* 0000234A */
label00002322:
00002322  3D7C 0003 FFE6           move.w     [A6 - 0x1A], 0x3
00002328  6020                     bra        +0x22 /* 0000234A */
label0000232A:
0000232A  3D7C 0005 FFE6           move.w     [A6 - 0x1A], 0x5
00002330  6018                     bra        +0x1A /* 0000234A */
label00002332:
00002332  67E6                     beq        -0x18 /* 0000231A */
00002334  5340                     subq.w     D0, 1
00002336  67EA                     beq        -0x14 /* 00002322 */
00002338  5340                     subq.w     D0, 1
0000233A  67E6                     beq        -0x18 /* 00002322 */
0000233C  5340                     subq.w     D0, 1
0000233E  67EA                     beq        -0x14 /* 0000232A */
00002340  5340                     subq.w     D0, 1
00002342  67E6                     beq        -0x18 /* 0000232A */
00002344  3D7C 0007 FFE6           move.w     [A6 - 0x1A], 0x7
label0000234A:
0000234A  3F2E FFE6                move.w     -[A7], [A6 - 0x1A]
0000234E  4EAD 0102                jsr        [A5 + 0x102 /* export_28, CODE:1 @ 000006DE */]
00002352  4A6E FFE6                tst.w      [A6 - 0x1A]
00002356  56C0                     sne        D0
00002358  C007                     and.b      D0, D7
0000235A  1B40 FE73                move.b     [A5 - 0x18D], D0
0000235E  2F2E FEDC                move.l     -[A7], [A6 - 0x124]
00002362  3F3C 0003                move.w     -[A7], 0x3
00002366  486E FFEA                pea.l      [A6 - 0x16]
0000236A  486E FEE0                pea.l      [A6 - 0x120]
0000236E  486E FED4                pea.l      [A6 - 0x12C]
00002372  A98D                     syscall    GetDialogItem/GetDItem
00002374  4A2D FE73                tst.b      [A5 - 0x18D]
00002378  670C                     beq        +0xE /* 00002386 */
0000237A  2F2E FEE0                move.l     -[A7], [A6 - 0x120]
0000237E  3F3C 0001                move.w     -[A7], 0x1
00002382  A963                     syscall    SetControlValue/SetCtlValue
00002384  6008                     bra        +0xA /* 0000238E */
label00002386:
00002386  2F2E FEE0                move.l     -[A7], [A6 - 0x120]
0000238A  4267                     clr.w      -[A7]
0000238C  A963                     syscall    SetControlValue/SetCtlValue
label0000238E:
0000238E  4A6E FFE6                tst.w      [A6 - 0x1A]
00002392  56C0                     sne        D0
00002394  C006                     and.b      D0, D6
00002396  1B40 FE74                move.b     [A5 - 0x18C], D0
0000239A  2F2E FEDC                move.l     -[A7], [A6 - 0x124]
0000239E  3F3C 0004                move.w     -[A7], 0x4
000023A2  486E FFEA                pea.l      [A6 - 0x16]
000023A6  486E FEE0                pea.l      [A6 - 0x120]
000023AA  486E FED4                pea.l      [A6 - 0x12C]
000023AE  A98D                     syscall    GetDialogItem/GetDItem
000023B0  4A2D FE74                tst.b      [A5 - 0x18C]
000023B4  670C                     beq        +0xE /* 000023C2 */
000023B6  2F2E FEE0                move.l     -[A7], [A6 - 0x120]
000023BA  3F3C 0001                move.w     -[A7], 0x1
000023BE  A963                     syscall    SetControlValue/SetCtlValue
000023C0  6008                     bra        +0xA /* 000023CA */
label000023C2:
000023C2  2F2E FEE0                move.l     -[A7], [A6 - 0x120]
000023C6  4267                     clr.w      -[A7]
000023C8  A963                     syscall    SetControlValue/SetCtlValue
label000023CA:
000023CA  2F0E                     move.l     -[A7], A6
000023CC  4EBA FBA2                jsr        [PC - 0x45E /* 00001F70 */]
label000023D0:
000023D0  0C6E 0006 FFE8           cmpi.w     [A6 - 0x18], 0x6
000023D6  6600 00D8                bne        +0xDA /* 000024B0 */
000023DA  486E FFE6                pea.l      [A6 - 0x1A]
000023DE  4EAD 010A                jsr        [A5 + 0x10A /* export_29, CODE:1 @ 00000700 */]
000023E2  302E FFE6                move.w     D0, [A6 - 0x1A]
000023E6  601E                     bra        +0x20 /* 00002406 */
000023E8  426E FFE6                clr.w      [A6 - 0x1A]
000023EC  603C                     bra        +0x3E /* 0000242A */
000023EE  3D7C 0001 FFE6           move.w     [A6 - 0x1A], 0x1
000023F4  6034                     bra        +0x36 /* 0000242A */
000023F6  3D7C 0003 FFE6           move.w     [A6 - 0x1A], 0x3
000023FC  602C                     bra        +0x2E /* 0000242A */
000023FE  3D7C 0005 FFE6           move.w     [A6 - 0x1A], 0x5
00002404  6024                     bra        +0x26 /* 0000242A */
label00002406:
00002406  5340                     subq.w     D0, 1
00002408  0C40 0007                cmpi.w     D0, 0x7
0000240C  6418                     bcc        +0x1A /* 00002426 */
0000240E  D040                     add.w      D0, D0
00002410  303B 0006                move.w     D0, [PC + D0.w + 0x6]
00002414  4EFB 0002                jmp        [PC + D0.w + 0x2]
00002418  FFD0                     .invalid   <<F/7/7>>
0000241A  FFD0                     .invalid   <<F/7/7>>
0000241C  FFD6                     .invalid   <<F/7/7>>
0000241E  FFD6                     .invalid   <<F/7/7>>
00002420  FFDE                     .invalid   <<F/7/7>>
00002422  FFDE                     .invalid   <<F/7/7>>
00002424  FFE6                     .invalid   <<F/7/7>>
label00002426:
00002426  426E FFE6                clr.w      [A6 - 0x1A]
label0000242A:
0000242A  3F2E FFE6                move.w     -[A7], [A6 - 0x1A]
0000242E  4EAD 0102                jsr        [A5 + 0x102 /* export_28, CODE:1 @ 000006DE */]
00002432  4A6E FFE6                tst.w      [A6 - 0x1A]
00002436  56C0                     sne        D0
00002438  C007                     and.b      D0, D7
0000243A  1B40 FE73                move.b     [A5 - 0x18D], D0
0000243E  2F2E FEDC                move.l     -[A7], [A6 - 0x124]
00002442  3F3C 0003                move.w     -[A7], 0x3
00002446  486E FFEA                pea.l      [A6 - 0x16]
0000244A  486E FEE0                pea.l      [A6 - 0x120]
0000244E  486E FED4                pea.l      [A6 - 0x12C]
00002452  A98D                     syscall    GetDialogItem/GetDItem
00002454  4A2D FE73                tst.b      [A5 - 0x18D]
00002458  670C                     beq        +0xE /* 00002466 */
0000245A  2F2E FEE0                move.l     -[A7], [A6 - 0x120]
0000245E  3F3C 0001                move.w     -[A7], 0x1
00002462  A963                     syscall    SetControlValue/SetCtlValue
00002464  6008                     bra        +0xA /* 0000246E */
label00002466:
00002466  2F2E FEE0                move.l     -[A7], [A6 - 0x120]
0000246A  4267                     clr.w      -[A7]
0000246C  A963                     syscall    SetControlValue/SetCtlValue
label0000246E:
0000246E  4A6E FFE6                tst.w      [A6 - 0x1A]
00002472  56C0                     sne        D0
00002474  C006                     and.b      D0, D6
00002476  1B40 FE74                move.b     [A5 - 0x18C], D0
0000247A  2F2E FEDC                move.l     -[A7], [A6 - 0x124]
0000247E  3F3C 0004                move.w     -[A7], 0x4
00002482  486E FFEA                pea.l      [A6 - 0x16]
00002486  486E FEE0                pea.l      [A6 - 0x120]
0000248A  486E FED4                pea.l      [A6 - 0x12C]
0000248E  A98D                     syscall    GetDialogItem/GetDItem
00002490  4A2D FE74                tst.b      [A5 - 0x18C]
00002494  670C                     beq        +0xE /* 000024A2 */
00002496  2F2E FEE0                move.l     -[A7], [A6 - 0x120]
0000249A  3F3C 0001                move.w     -[A7], 0x1
0000249E  A963                     syscall    SetControlValue/SetCtlValue
000024A0  6008                     bra        +0xA /* 000024AA */
label000024A2:
000024A2  2F2E FEE0                move.l     -[A7], [A6 - 0x120]
000024A6  4267                     clr.w      -[A7]
000024A8  A963                     syscall    SetControlValue/SetCtlValue
label000024AA:
000024AA  2F0E                     move.l     -[A7], A6
000024AC  4EBA FAC2                jsr        [PC - 0x53E /* 00001F70 */]
label000024B0:
000024B0  0C6E 000E FFE8           cmpi.w     [A6 - 0x18], 0xE
000024B6  6644                     bne        +0x46 /* 000024FC */
000024B8  2F2E FEDC                move.l     -[A7], [A6 - 0x124]
000024BC  3F3C 000E                move.w     -[A7], 0xE
000024C0  486E FFEA                pea.l      [A6 - 0x16]
000024C4  486E FEE0                pea.l      [A6 - 0x120]
000024C8  486E FED4                pea.l      [A6 - 0x12C]
000024CC  A98D                     syscall    GetDialogItem/GetDItem
000024CE  2F2E FEE0                move.l     -[A7], [A6 - 0x120]
000024D2  3F3C 0001                move.w     -[A7], 0x1
000024D6  A963                     syscall    SetControlValue/SetCtlValue
000024D8  2F2E FEDC                move.l     -[A7], [A6 - 0x124]
000024DC  3F3C 000F                move.w     -[A7], 0xF
000024E0  486E FFEA                pea.l      [A6 - 0x16]
000024E4  486E FEE0                pea.l      [A6 - 0x120]
000024E8  486E FED4                pea.l      [A6 - 0x12C]
000024EC  A98D                     syscall    GetDialogItem/GetDItem
000024EE  2F2E FEE0                move.l     -[A7], [A6 - 0x120]
000024F2  4267                     clr.w      -[A7]
000024F4  A963                     syscall    SetControlValue/SetCtlValue
000024F6  1B7C 0001 FE88           move.b     [A5 - 0x178], 0x1
label000024FC:
000024FC  0C6E 000F FFE8           cmpi.w     [A6 - 0x18], 0xF
00002502  6642                     bne        +0x44 /* 00002546 */
00002504  2F2E FEDC                move.l     -[A7], [A6 - 0x124]
00002508  3F3C 000F                move.w     -[A7], 0xF
0000250C  486E FFEA                pea.l      [A6 - 0x16]
00002510  486E FEE0                pea.l      [A6 - 0x120]
00002514  486E FED4                pea.l      [A6 - 0x12C]
00002518  A98D                     syscall    GetDialogItem/GetDItem
0000251A  2F2E FEE0                move.l     -[A7], [A6 - 0x120]
0000251E  3F3C 0001                move.w     -[A7], 0x1
00002522  A963                     syscall    SetControlValue/SetCtlValue
00002524  2F2E FEDC                move.l     -[A7], [A6 - 0x124]
00002528  3F3C 000E                move.w     -[A7], 0xE
0000252C  486E FFEA                pea.l      [A6 - 0x16]
00002530  486E FEE0                pea.l      [A6 - 0x120]
00002534  486E FED4                pea.l      [A6 - 0x12C]
00002538  A98D                     syscall    GetDialogItem/GetDItem
0000253A  2F2E FEE0                move.l     -[A7], [A6 - 0x120]
0000253E  4267                     clr.w      -[A7]
00002540  A963                     syscall    SetControlValue/SetCtlValue
00002542  422D FE88                clr.b      [A5 - 0x178]
label00002546:
00002546  4A05                     tst.b      D5
00002548  6700 FCCC                beq        -0x332 /* 00002216 */
0000254C  2F2E FFEC                move.l     -[A7], [A6 - 0x14]
00002550  A873                     syscall    SetPort
00002552  2F2E FEDC                move.l     -[A7], [A6 - 0x124]
00002556  A983                     syscall    DisposeDialog
00002558  4CDF 00F8                movem.l    D3,D4,D5,D6,D7, [A7]+
0000255C  4E5E                     unlink     A6
0000255E  4E75                     rts
fn00002560:
00002560  4E56 FFE8                link       A6, -0x0018
00002564  2F0C                     move.l     -[A7], A4
00002566  286E 0008                movea.l    A4, [A6 + 0x8]
0000256A  2F2C FEC6                move.l     -[A7], [A4 - 0x13A]
0000256E  A873                     syscall    SetPort
00002570  2F2C FEC6                move.l     -[A7], [A4 - 0x13A]
00002574  3F3C 0001                move.w     -[A7], 0x1
00002578  486C FFEA                pea.l      [A4 - 0x16]
0000257C  486C FECE                pea.l      [A4 - 0x132]
00002580  486C FEBE                pea.l      [A4 - 0x142]
00002584  A98D                     syscall    GetDialogItem/GetDItem
00002586  3F3C 0003                move.w     -[A7], 0x3
0000258A  3F3C 0003                move.w     -[A7], 0x3
0000258E  A89B                     syscall    PenSize
00002590  486C FEBE                pea.l      [A4 - 0x142]
00002594  3F3C FFFC                move.w     -[A7], 0xFFFC
00002598  3F3C FFFC                move.w     -[A7], 0xFFFC
0000259C  A8A9                     syscall    InsetRect
0000259E  486C FEBE                pea.l      [A4 - 0x142]
000025A2  3F3C 0010                move.w     -[A7], 0x10
000025A6  3F3C 0010                move.w     -[A7], 0x10
000025AA  A8B0                     syscall    FrameRoundRect
000025AC  A89E                     syscall    PenNormal
000025AE  285F                     movea.l    A4, [A7]+
000025B0  4E5E                     unlink     A6
000025B2  2E9F                     move.l     [A7], [A7]+
000025B4  4E75                     rts
fn000025B6:
000025B6  4E56 FEFE                link       A6, -0x0102
000025BA  48E7 0308                movem.l    -[A7], D6,D7,A4
000025BE  286E 0008                movea.l    A4, [A6 + 0x8]
000025C2  3E2E 000C                move.w     D7, [A6 + 0xC]
000025C6  3C2E 000E                move.w     D6, [A6 + 0xE]
000025CA  0C47 0021                cmpi.w     D7, 0x21 /* '!' */
000025CE  5CC0                     sge        D0
000025D0  0C47 007A                cmpi.w     D7, 0x7A /* 'z' */
000025D4  5FC1                     sle        D1
000025D6  C001                     and.b      D0, D1
000025D8  6700 007A                beq        +0x7C /* 00002654 */
000025DC  0C46 0041                cmpi.w     D6, 0x41 /* 'A' */
000025E0  5CC0                     sge        D0
000025E2  0C46 005C                cmpi.w     D6, 0x5C /* '\\' */
000025E6  5FC1                     sle        D1
000025E8  C001                     and.b      D0, D1
000025EA  6734                     beq        +0x36 /* 00002620 */
000025EC  486E FF00                pea.l      [A6 - 0x100]
000025F0  303C 0100                move.w     D0, 0x100
000025F4  1007                     move.b     D0, D7
000025F6  3D40 FEFE                move.w     [A6 - 0x102], D0
000025FA  486E FEFE                pea.l      [A6 - 0x102]
000025FE  487A 0476                pea.l      [PC + 0x476 /* 00002A76, value 0x7206B65, pstring " keypad" */]
00002602  3F3C 0002                move.w     -[A7], 0x2
00002606  4EAD 002A                jsr        [A5 + 0x2A /* export_1, CODE:1 @ 00000000 */]
0000260A  584F                     addq.w     A7, 4
0000260C  3F3C 00FF                move.w     -[A7], 0xFF
00002610  486E FF00                pea.l      [A6 - 0x100]
00002614  486C FED2                pea.l      [A4 - 0x12E]
00002618  4EAD 005A                jsr        [A5 + 0x5A /* export_7, CODE:1 @ 00000274 */]
0000261C  6000 0330                bra        +0x332 /* 0000294E */
label00002620:
00002620  486E FF00                pea.l      [A6 - 0x100]
00002624  303C 0100                move.w     D0, 0x100
00002628  1007                     move.b     D0, D7
0000262A  3D40 FEFE                move.w     [A6 - 0x102], D0
0000262E  486E FEFE                pea.l      [A6 - 0x102]
00002632  487A 043C                pea.l      [PC + 0x43C /* 00002A70, value 0x4206B65, pstring " key" */]
00002636  3F3C 0002                move.w     -[A7], 0x2
0000263A  4EAD 002A                jsr        [A5 + 0x2A /* export_1, CODE:1 @ 00000000 */]
0000263E  584F                     addq.w     A7, 4
00002640  3F3C 00FF                move.w     -[A7], 0xFF
00002644  486E FF00                pea.l      [A6 - 0x100]
00002648  486C FED2                pea.l      [A4 - 0x12E]
0000264C  4EAD 005A                jsr        [A5 + 0x5A /* export_7, CODE:1 @ 00000274 */]
00002650  6000 02FC                bra        +0x2FE /* 0000294E */
label00002654:
00002654  3007                     move.w     D0, D7
00002656  6000 027C                bra        +0x27E /* 000028D4 */
label0000265A:
0000265A  41FA 040E                lea.l      A0, [PC + 0x40E /* 00002A6A, value 0x4686F6D, pstring "home" */]
0000265E  43EC FED2                lea.l      A1, [A4 - 0x12E]
00002662  22D8                     move.l     [A1]+, [A0]+
00002664  22D8                     move.l     [A1]+, [A0]+
00002666  6000 02E6                bra        +0x2E8 /* 0000294E */
label0000266A:
0000266A  41FA 03F8                lea.l      A0, [PC + 0x3F8 /* 00002A64, value 0x5656E74, pstring "enter" */]
0000266E  43EC FED2                lea.l      A1, [A4 - 0x12E]
00002672  22D8                     move.l     [A1]+, [A0]+
00002674  22D8                     move.l     [A1]+, [A0]+
00002676  6000 02D6                bra        +0x2D8 /* 0000294E */
label0000267A:
0000267A  297C 0365 6E64 FED2      move.l     [A4 - 0x12E], 0x3656E64
00002682  6000 02CA                bra        +0x2CC /* 0000294E */
label00002686:
00002686  41FA 03D6                lea.l      A0, [PC + 0x3D6 /* 00002A5E, value 0x468656C, pstring "help" */]
0000268A  43EC FED2                lea.l      A1, [A4 - 0x12E]
0000268E  22D8                     move.l     [A1]+, [A0]+
00002690  22D8                     move.l     [A1]+, [A0]+
00002692  6000 02BA                bra        +0x2BC /* 0000294E */
label00002696:
00002696  41FA 03BE                lea.l      A0, [PC + 0x3BE /* 00002A56, value 0x664656C, pstring "delete" */]
0000269A  43EC FED2                lea.l      A1, [A4 - 0x12E]
0000269E  22D8                     move.l     [A1]+, [A0]+
000026A0  22D8                     move.l     [A1]+, [A0]+
000026A2  6000 02AA                bra        +0x2AC /* 0000294E */
label000026A6:
000026A6  297C 0374 6162 FED2      move.l     [A4 - 0x12E], 0x3746162
000026AE  6000 029E                bra        +0x2A0 /* 0000294E */
label000026B2:
000026B2  41FA 039A                lea.l      A0, [PC + 0x39A /* 00002A4E, value 0x7706167, pstring "page up" */]
000026B6  43EC FED2                lea.l      A1, [A4 - 0x12E]
000026BA  22D8                     move.l     [A1]+, [A0]+
000026BC  22D8                     move.l     [A1]+, [A0]+
000026BE  6000 028E                bra        +0x290 /* 0000294E */
label000026C2:
000026C2  41FA 0380                lea.l      A0, [PC + 0x380 /* 00002A44, value 0x9706167 '\tpag', pstring "page down" */]
000026C6  43EC FED2                lea.l      A1, [A4 - 0x12E]
000026CA  22D8                     move.l     [A1]+, [A0]+
000026CC  22D8                     move.l     [A1]+, [A0]+
000026CE  22D8                     move.l     [A1]+, [A0]+
000026D0  6000 027C                bra        +0x27E /* 0000294E */
label000026D4:
000026D4  41FA 0366                lea.l      A0, [PC + 0x366 /* 00002A3C, value 0x6726574, pstring "return" */]
000026D8  43EC FED2                lea.l      A1, [A4 - 0x12E]
000026DC  22D8                     move.l     [A1]+, [A0]+
000026DE  22D8                     move.l     [A1]+, [A0]+
000026E0  6000 026C                bra        +0x26E /* 0000294E */
label000026E4:
000026E4  3006                     move.w     D0, D6
000026E6  6000 00F2                bra        +0xF4 /* 000027DA */
000026EA  41FA 0348                lea.l      A0, [PC + 0x348 /* 00002A34, value 0x6463520, pstring "F5 key" */]
000026EE  43EC FED2                lea.l      A1, [A4 - 0x12E]
000026F2  22D8                     move.l     [A1]+, [A0]+
000026F4  22D8                     move.l     [A1]+, [A0]+
000026F6  6000 0256                bra        +0x258 /* 0000294E */
000026FA  41FA 0330                lea.l      A0, [PC + 0x330 /* 00002A2C, value 0x6463620, pstring "F6 key" */]
000026FE  43EC FED2                lea.l      A1, [A4 - 0x12E]
00002702  22D8                     move.l     [A1]+, [A0]+
00002704  22D8                     move.l     [A1]+, [A0]+
00002706  6000 0246                bra        +0x248 /* 0000294E */
0000270A  41FA 0318                lea.l      A0, [PC + 0x318 /* 00002A24, value 0x6463720, pstring "F7 key" */]
0000270E  43EC FED2                lea.l      A1, [A4 - 0x12E]
00002712  22D8                     move.l     [A1]+, [A0]+
00002714  22D8                     move.l     [A1]+, [A0]+
00002716  6000 0236                bra        +0x238 /* 0000294E */
0000271A  41FA 0300                lea.l      A0, [PC + 0x300 /* 00002A1C, value 0x6463320, pstring "F3 key" */]
0000271E  43EC FED2                lea.l      A1, [A4 - 0x12E]
00002722  22D8                     move.l     [A1]+, [A0]+
00002724  22D8                     move.l     [A1]+, [A0]+
00002726  6000 0226                bra        +0x228 /* 0000294E */
0000272A  41FA 02E8                lea.l      A0, [PC + 0x2E8 /* 00002A14, value 0x6463820, pstring "F8 key" */]
0000272E  43EC FED2                lea.l      A1, [A4 - 0x12E]
00002732  22D8                     move.l     [A1]+, [A0]+
00002734  22D8                     move.l     [A1]+, [A0]+
00002736  6000 0216                bra        +0x218 /* 0000294E */
0000273A  41FA 02D0                lea.l      A0, [PC + 0x2D0 /* 00002A0C, value 0x6463920, pstring "F9 key" */]
0000273E  43EC FED2                lea.l      A1, [A4 - 0x12E]
00002742  22D8                     move.l     [A1]+, [A0]+
00002744  22D8                     move.l     [A1]+, [A0]+
00002746  6000 0206                bra        +0x208 /* 0000294E */
0000274A  41FA 02B8                lea.l      A0, [PC + 0x2B8 /* 00002A04, value 0x7463131, pstring "F11 key" */]
0000274E  43EC FED2                lea.l      A1, [A4 - 0x12E]
00002752  22D8                     move.l     [A1]+, [A0]+
00002754  22D8                     move.l     [A1]+, [A0]+
00002756  6000 01F6                bra        +0x1F8 /* 0000294E */
0000275A  41FA 02A0                lea.l      A0, [PC + 0x2A0 /* 000029FC, value 0x7463133, pstring "F13 key" */]
0000275E  43EC FED2                lea.l      A1, [A4 - 0x12E]
00002762  22D8                     move.l     [A1]+, [A0]+
00002764  22D8                     move.l     [A1]+, [A0]+
00002766  6000 01E6                bra        +0x1E8 /* 0000294E */
0000276A  41FA 0288                lea.l      A0, [PC + 0x288 /* 000029F4, value 0x7463134, pstring "F14 key" */]
0000276E  43EC FED2                lea.l      A1, [A4 - 0x12E]
00002772  22D8                     move.l     [A1]+, [A0]+
00002774  22D8                     move.l     [A1]+, [A0]+
00002776  6000 01D6                bra        +0x1D8 /* 0000294E */
0000277A  41FA 0270                lea.l      A0, [PC + 0x270 /* 000029EC, value 0x7463130, pstring "F10 key" */]
0000277E  43EC FED2                lea.l      A1, [A4 - 0x12E]
00002782  22D8                     move.l     [A1]+, [A0]+
00002784  22D8                     move.l     [A1]+, [A0]+
00002786  6000 01C6                bra        +0x1C8 /* 0000294E */
0000278A  41FA 0258                lea.l      A0, [PC + 0x258 /* 000029E4, value 0x7463132, pstring "F12 key" */]
0000278E  43EC FED2                lea.l      A1, [A4 - 0x12E]
00002792  22D8                     move.l     [A1]+, [A0]+
00002794  22D8                     move.l     [A1]+, [A0]+
00002796  6000 01B6                bra        +0x1B8 /* 0000294E */
0000279A  41FA 0240                lea.l      A0, [PC + 0x240 /* 000029DC, value 0x7463135, pstring "F15 key" */]
0000279E  43EC FED2                lea.l      A1, [A4 - 0x12E]
000027A2  22D8                     move.l     [A1]+, [A0]+
000027A4  22D8                     move.l     [A1]+, [A0]+
000027A6  6000 01A6                bra        +0x1A8 /* 0000294E */
000027AA  41FA 0228                lea.l      A0, [PC + 0x228 /* 000029D4, value 0x6463420, pstring "F4 key" */]
000027AE  43EC FED2                lea.l      A1, [A4 - 0x12E]
000027B2  22D8                     move.l     [A1]+, [A0]+
000027B4  22D8                     move.l     [A1]+, [A0]+
000027B6  6000 0196                bra        +0x198 /* 0000294E */
000027BA  41FA 0210                lea.l      A0, [PC + 0x210 /* 000029CC, value 0x6463220, pstring "F2 key" */]
000027BE  43EC FED2                lea.l      A1, [A4 - 0x12E]
000027C2  22D8                     move.l     [A1]+, [A0]+
000027C4  22D8                     move.l     [A1]+, [A0]+
000027C6  6000 0186                bra        +0x188 /* 0000294E */
000027CA  41FA 01F8                lea.l      A0, [PC + 0x1F8 /* 000029C4, value 0x6463120, pstring "F1 key" */]
000027CE  43EC FED2                lea.l      A1, [A4 - 0x12E]
000027D2  22D8                     move.l     [A1]+, [A0]+
000027D4  22D8                     move.l     [A1]+, [A0]+
000027D6  6000 0176                bra        +0x178 /* 0000294E */
label000027DA:
000027DA  0640 FFA0                addi.w     D0, 0xFFA0
000027DE  0C40 001B                cmpi.w     D0, 0x1B
000027E2  6440                     bcc        +0x42 /* 00002824 */
000027E4  D040                     add.w      D0, D0
000027E6  303B 0006                move.w     D0, [PC + D0.w + 0x6]
000027EA  4EFB 0002                jmp        [PC + D0.w + 0x2]
000027EE  FEFC FF0C                .extension 0xEFC <<F/2-3/7>> // unimplemented
000027F2  FF1C                     .extension 0xF1C <<F/4-5/7>> // unimplemented
000027F4  FF2C                     .extension 0xF2C <<F/4-5/7>> // unimplemented
000027F6  FF3C                     .extension 0xF3C <<F/4-5/7>> // unimplemented
000027F8  FF4C                     .extension 0xF4C <<F/4-5/7>> // unimplemented
000027FA  0036 FF5C 0036           ori.b      [A6 + D0.w + 0x36], 0x5C /* '\\' */
00002800  FF6C                     .extension 0xF6C <<F/4-5/7>> // unimplemented
00002802  0036 FF7C 0036           ori.b      [A6 + D0.w + 0x36], 0x7C /* '|' */
00002808  FF8C                     .invalid   <<F/6/7>>
0000280A  0036 FF9C 0036           ori.b      [A6 + D0.w + 0x36], 0x9C
00002810  FFAC                     .invalid   <<F/6/7>>
00002812  0036 0036 0036           ori.b      [A6 + D0.w + 0x36], 0x36 /* '6' */
00002818  0036 FFBC 0036           ori.b      [A6 + D0.w + 0x36], 0xBC
0000281E  FFCC                     .invalid   <<F/7/7>>
00002820  0036 FFDC 3006           ori.b      [A6 + D3.w + 0x6], 0xDC
// begin alternate branch 00002824-00002826
label00002824:
00002824  3006                     move.w     D0, D6
// end alternate branch 00002824-00002826
label00002824: // (misaligned)
00002826  48C0                     ext.l      D0
00002828  2F00                     move.l     -[A7], D0
0000282A  486C FED2                pea.l      [A4 - 0x12E]
0000282E  4EAD 0142                jsr        [A5 + 0x142 /* export_36, CODE:1 @ 000007D2 */]
00002832  6000 011A                bra        +0x11C /* 0000294E */
label00002836:
00002836  41FA 0186                lea.l      A0, [PC + 0x186 /* 000029BE, value 0x5636C65, pstring "clear" */]
0000283A  43EC FED2                lea.l      A1, [A4 - 0x12E]
0000283E  22D8                     move.l     [A1]+, [A0]+
00002840  22D8                     move.l     [A1]+, [A0]+
00002842  6000 010A                bra        +0x10C /* 0000294E */
label00002846:
00002846  0C46 0047                cmpi.w     D6, 0x47 /* 'G' */
0000284A  6610                     bne        +0x12 /* 0000285C */
0000284C  41FA 016A                lea.l      A0, [PC + 0x16A /* 000029B8, value 0x5636C65, pstring "clear" */]
00002850  43EC FED2                lea.l      A1, [A4 - 0x12E]
00002854  22D8                     move.l     [A1]+, [A0]+
00002856  22D8                     move.l     [A1]+, [A0]+
00002858  6000 00F4                bra        +0xF6 /* 0000294E */
label0000285C:
0000285C  41FA 0152                lea.l      A0, [PC + 0x152 /* 000029B0, value 0x6657363, pstring "escape" */]
00002860  43EC FED2                lea.l      A1, [A4 - 0x12E]
00002864  22D8                     move.l     [A1]+, [A0]+
00002866  22D8                     move.l     [A1]+, [A0]+
00002868  6000 00E4                bra        +0xE6 /* 0000294E */
label0000286C:
0000286C  41FA 0136                lea.l      A0, [PC + 0x136 /* 000029A4, value 0xA6C6566 '\nlef', pstring "left arrow" */]
00002870  43EC FED2                lea.l      A1, [A4 - 0x12E]
00002874  22D8                     move.l     [A1]+, [A0]+
00002876  22D8                     move.l     [A1]+, [A0]+
00002878  22D8                     move.l     [A1]+, [A0]+
0000287A  6000 00D2                bra        +0xD4 /* 0000294E */
label0000287E:
0000287E  41FA 0118                lea.l      A0, [PC + 0x118 /* 00002998, value 0xB726967, pstring "right arrow" */]
00002882  43EC FED2                lea.l      A1, [A4 - 0x12E]
00002886  22D8                     move.l     [A1]+, [A0]+
00002888  22D8                     move.l     [A1]+, [A0]+
0000288A  22D8                     move.l     [A1]+, [A0]+
0000288C  6000 00C0                bra        +0xC2 /* 0000294E */
label00002890:
00002890  41FA 00FC                lea.l      A0, [PC + 0xFC /* 0000298E, value 0x8757020, pstring "up arrow" */]
00002894  43EC FED2                lea.l      A1, [A4 - 0x12E]
00002898  22D8                     move.l     [A1]+, [A0]+
0000289A  22D8                     move.l     [A1]+, [A0]+
0000289C  22D8                     move.l     [A1]+, [A0]+
0000289E  6000 00AE                bra        +0xB0 /* 0000294E */
label000028A2:
000028A2  41FA 00DE                lea.l      A0, [PC + 0xDE /* 00002982, value 0xA646F77 '\ndow', pstring "down arrow" */]
000028A6  43EC FED2                lea.l      A1, [A4 - 0x12E]
000028AA  22D8                     move.l     [A1]+, [A0]+
000028AC  22D8                     move.l     [A1]+, [A0]+
000028AE  22D8                     move.l     [A1]+, [A0]+
000028B0  6000 009C                bra        +0x9E /* 0000294E */
label000028B4:
000028B4  41FA 00C6                lea.l      A0, [PC + 0xC6 /* 0000297C, value 0x5737061, pstring "space" */]
000028B8  43EC FED2                lea.l      A1, [A4 - 0x12E]
000028BC  22D8                     move.l     [A1]+, [A0]+
000028BE  22D8                     move.l     [A1]+, [A0]+
000028C0  6000 008C                bra        +0x8E /* 0000294E */
label000028C4:
000028C4  41FA 00AE                lea.l      A0, [PC + 0xAE /* 00002974, value 0x764656C, pstring "del key" */]
000028C8  43EC FED2                lea.l      A1, [A4 - 0x12E]
000028CC  22D8                     move.l     [A1]+, [A0]+
000028CE  22D8                     move.l     [A1]+, [A0]+
000028D0  6000 007C                bra        +0x7E /* 0000294E */
label000028D4:
000028D4  5340                     subq.w     D0, 1
000028D6  6700 FD82                beq        -0x27C /* 0000265A */
000028DA  5540                     subq.w     D0, 2
000028DC  6700 FD8C                beq        -0x272 /* 0000266A */
000028E0  5340                     subq.w     D0, 1
000028E2  6700 FD96                beq        -0x268 /* 0000267A */
000028E6  5340                     subq.w     D0, 1
000028E8  6700 FD9C                beq        -0x262 /* 00002686 */
000028EC  5740                     subq.w     D0, 3
000028EE  6700 FDA6                beq        -0x258 /* 00002696 */
000028F2  5340                     subq.w     D0, 1
000028F4  6700 FDB0                beq        -0x24E /* 000026A6 */
000028F8  5540                     subq.w     D0, 2
000028FA  6700 FDB6                beq        -0x248 /* 000026B2 */
000028FE  5340                     subq.w     D0, 1
00002900  6700 FDC0                beq        -0x23E /* 000026C2 */
00002904  5340                     subq.w     D0, 1
00002906  6700 FDCC                beq        -0x232 /* 000026D4 */
0000290A  5740                     subq.w     D0, 3
0000290C  6700 FDD6                beq        -0x228 /* 000026E4 */
00002910  0640 FFF6                addi.w     D0, 0xFFF6
00002914  6700 FF20                beq        -0xDE /* 00002836 */
00002918  5340                     subq.w     D0, 1
0000291A  6700 FF2A                beq        -0xD4 /* 00002846 */
0000291E  5340                     subq.w     D0, 1
00002920  6700 FF4A                beq        -0xB4 /* 0000286C */
00002924  5340                     subq.w     D0, 1
00002926  6700 FF56                beq        -0xA8 /* 0000287E */
0000292A  5340                     subq.w     D0, 1
0000292C  6700 FF62                beq        -0x9C /* 00002890 */
00002930  5340                     subq.w     D0, 1
00002932  6700 FF6E                beq        -0x90 /* 000028A2 */
00002936  5340                     subq.w     D0, 1
00002938  6700 FF7A                beq        -0x84 /* 000028B4 */
0000293C  0640 FFA1                addi.w     D0, 0xFFA1
00002940  6782                     beq        -0x7C /* 000028C4 */
00002942  41FA 0028                lea.l      A0, [PC + 0x28 /* 0000296C, value 0x7756E6B, pstring "unknown" */]
00002946  43EC FED2                lea.l      A1, [A4 - 0x12E]
0000294A  22D8                     move.l     [A1]+, [A0]+
0000294C  22D8                     move.l     [A1]+, [A0]+
label0000294E:
0000294E  206E 0010                movea.l    A0, [A6 + 0x10]
00002952  3F3C 000C                move.w     -[A7], 0xC
00002956  486C FED2                pea.l      [A4 - 0x12E]
0000295A  2F08                     move.l     -[A7], A0
0000295C  4EAD 005A                jsr        [A5 + 0x5A /* export_7, CODE:1 @ 00000274 */]
00002960  4CDF 10C0                movem.l    D6,D7,A4, [A7]+
00002964  4E5E                     unlink     A6
00002966  205F                     movea.l    A0, [A7]+
00002968  504F                     addq.w     A7, 8
0000296A  4ED0                     jmp        [A0]
0000296C  0775 6E6B                bchg       [A5 + D6 * 8 + 0x6B], D3
00002970  6E6F                     bgt        +0x71 /* 000029E1 */
00002972  776E                     moveq.l    D3, 0x6E
00002974  0764                     bchg       -[A4], D3
00002976  656C                     bcs        +0x6E /* 000029E4 */
00002978  206B 6579                movea.l    A0, [A3 + 0x6579]
0000297C  0573 7061                bchg       [A3 + D7.w + 0x61], D2
00002980  6365                     bls        +0x67 /* 000029E7 */
00002982  0A64 6F77                xori.w     -[A4], 0x6F77 /* 'ow' */
00002986  6E20                     bgt        +0x22 /* 000029A8 */
00002988  6172                     bsr        +0x74 /* 000029FC */
0000298A  726F                     moveq.l    D1, 0x6F
0000298C  7708                     moveq.l    D3, 0x08
0000298E  0875 7020 6172 726F 7... bchg.b     [[A5 + 0x726F7708] + 0xB72], 0x20 /* ' ' */
0000299A  6967                     bvs        +0x69 /* 00002A03 */
0000299C  6874                     bvc        +0x76 /* 00002A12 */
0000299E  2061                     movea.l    A0, -[A1]
000029A0  7272                     moveq.l    D1, 0x72
000029A2  6F77                     ble        +0x79 /* 00002A1B */
000029A4  0A6C 6566 7420           xori.w     [A4 + 0x7420], 0x6566 /* 'ef' */
// begin alternate branch 000029A8-000029AA
label000029A8:
000029A8  7420                     moveq.l    D2, 0x20
// end alternate branch 000029A8-000029AA
label000029A8: // (misaligned)
000029AA  6172                     bsr        +0x74 /* 00002A1E */
000029AC  726F                     moveq.l    D1, 0x6F
000029AE  7708                     moveq.l    D3, 0x08
000029B0  0665 7363                addi.w     -[A5], 0x7363 /* 'sc' */
000029B4  6170                     bsr        +0x72 /* 00002A26 */
000029B6  6508                     bcs        +0xA /* 000029C0 */
000029B8  0563                     bchg       -[A3], D2
000029BA  6C65                     bge        +0x67 /* 00002A21 */
000029BC  6172                     bsr        +0x74 /* 00002A30 */
000029BE  0563                     bchg       -[A3], D2
label000029C0:
000029C0  6C65                     bge        +0x67 /* 00002A27 */
000029C2  6172                     bsr        +0x74 /* 00002A36 */
000029C4  0646 3120                addi.w     D6, 0x3120 /* '1 ' */
000029C8  6B65                     bmi        +0x67 /* 00002A2F */
000029CA  7908                     moveq.l    D4, 0x08
000029CC  0646 3220                addi.w     D6, 0x3220 /* '2 ' */
000029D0  6B65                     bmi        +0x67 /* 00002A37 */
000029D2  7908                     moveq.l    D4, 0x08
000029D4  0646 3420                addi.w     D6, 0x3420 /* '4 ' */
000029D8  6B65                     bmi        +0x67 /* 00002A3F */
000029DA  7908                     moveq.l    D4, 0x08
000029DC  0746                     bchg       D6, D3
000029DE  3135 206B                move.w     -[A0], [A5 + D2.w + 0x6B]
000029E2  6579                     bcs        +0x7B /* 00002A5D */
label000029E4:
000029E4  0746                     bchg       D6, D3
000029E6  3132 206B                move.w     -[A0], [A2 + D2.w + 0x6B]
000029EA  6579                     bcs        +0x7B /* 00002A65 */
000029EC  0746                     bchg       D6, D3
000029EE  3130 206B                move.w     -[A0], [A0 + D2.w + 0x6B]
000029F2  6579                     bcs        +0x7B /* 00002A6D */
000029F4  0746                     bchg       D6, D3
000029F6  3134 206B                move.w     -[A0], [A4 + D2.w + 0x6B]
000029FA  6579                     bcs        +0x7B /* 00002A75 */
fn000029FC:
000029FC  0746                     bchg       D6, D3
000029FE  3133 206B                move.w     -[A0], [A3 + D2.w + 0x6B]
00002A02  6579                     bcs        +0x7B /* 00002A7D */
00002A04  0746                     bchg       D6, D3
00002A06  3131 206B                move.w     -[A0], [A1 + D2.w + 0x6B]
00002A0A  6579                     bcs        +0x7B /* 00002A85 */
00002A0C  0646 3920                addi.w     D6, 0x3920 /* '9 ' */
00002A10  6B65                     bmi        +0x67 /* 00002A77 */
label00002A12:
00002A12  7908                     moveq.l    D4, 0x08
00002A14  0646 3820                addi.w     D6, 0x3820 /* '8 ' */
00002A18  6B65                     bmi        +0x67 /* 00002A7F */
00002A1A  7908                     moveq.l    D4, 0x08
00002A1C  0646 3320                addi.w     D6, 0x3320 /* '3 ' */
// begin alternate branch 00002A1E-00002A20
fn00002A1E:
00002A1E  3320                     move.w     -[A1], -[A0]
// end alternate branch 00002A1E-00002A20
fn00002A1E: // (misaligned)
00002A20  6B65                     bmi        +0x67 /* 00002A87 */
00002A22  7908                     moveq.l    D4, 0x08
00002A24  0646 3720                addi.w     D6, 0x3720 /* '7 ' */
// begin alternate branch 00002A26-00002A28
fn00002A26:
00002A26  3720                     move.w     -[A3], -[A0]
// end alternate branch 00002A26-00002A28
fn00002A26: // (misaligned)
00002A28  6B65                     bmi        +0x67 /* 00002A8F */
00002A2A  7908                     moveq.l    D4, 0x08
00002A2C  0646 3620                addi.w     D6, 0x3620 /* '6 ' */
fn00002A30:
00002A30  6B65                     bmi        +0x67 /* 00002A97 */
00002A32  7908                     moveq.l    D4, 0x08
00002A34  0646 3520                addi.w     D6, 0x3520 /* '5 ' */
// begin alternate branch 00002A36-00002A38
fn00002A36:
00002A36  3520                     move.w     -[A2], -[A0]
// end alternate branch 00002A36-00002A38
fn00002A36: // (misaligned)
00002A38  6B65                     bmi        +0x67 /* 00002A9F */
00002A3A  7908                     moveq.l    D4, 0x08
00002A3C  0672 6574 7572 6E08 0... addi.w     [[A2 + 0x6E080970] + 0x6167], 0x6574 /* 'et' */
00002A48  6520                     bcs        +0x22 /* 00002A6A */
00002A4A  646F                     bcc        +0x71 /* 00002ABB */
00002A4C  776E                     moveq.l    D3, 0x6E
00002A4E  0770 6167                bchg       <<invalid full ext with IS == 1 and I/IS == 7>>, D3
00002A52  6520                     bcs        +0x22 /* 00002A74 */
00002A54  7570                     moveq.l    D2, 0x70
00002A56  0664 656C                addi.w     -[A4], 0x656C /* 'el' */
00002A5A  6574                     bcs        +0x76 /* 00002AD0 */
00002A5C  6508                     bcs        +0xA /* 00002A66 */
00002A5E  0468 656C 7008           subi.w     [A0 + 0x7008], 0x656C /* 'el' */
00002A64  0565                     bchg       -[A5], D2
label00002A66:
00002A66  6E74                     bgt        +0x76 /* 00002ADC */
00002A68  6572                     bcs        +0x74 /* 00002ADC */
label00002A6A:
00002A6A  0468 6F6D 6508           subi.w     [A0 + 0x6508], 0x6F6D /* 'om' */
00002A70  0420 6B65                subi.b     -[A0], 0x65 /* 'e' */
label00002A74:
00002A74  7916                     moveq.l    D4, 0x16
00002A76  0720                     btst       -[A0], D3
00002A78  6B65                     bmi        +0x67 /* 00002ADF */
00002A7A  7970                     moveq.l    D4, 0x70
00002A7C  6164                     bsr        +0x66 /* 00002AE2 */
fn00002A7E:
00002A7E  4E56 FD64                link       A6, -0x029C
00002A82  48E7 1F00                movem.l    -[A7], D3,D4,D5,D6,D7
00002A86  3F3C FFFF                move.w     -[A7], 0xFFFF
00002A8A  4267                     clr.w      -[A7]
00002A8C  201F                     move.l     D0, [A7]+
00002A8E  A032                     syscall    FlushEvents
00002A90  486E FFEC                pea.l      [A6 - 0x14]
00002A94  A874                     syscall    GetPort
00002A96  3F2D F84A                move.w     -[A7], [A5 - 0x7B6]
00002A9A  A998                     syscall    UseResFile
00002A9C  594F                     subq.w     A7, 4
00002A9E  3F3C 0089                move.w     -[A7], 0x89
00002AA2  42A7                     clr.l      -[A7]
00002AA4  70FF                     moveq.l    D0, 0xFFFFFFFF
00002AA6  2F00                     move.l     -[A7], D0
00002AA8  A97C                     syscall    GetNewDialog
00002AAA  2D5F FEC6                move.l     [A6 - 0x13A], [A7]+
00002AAE  206E FEC6                movea.l    A0, [A6 - 0x13A]
00002AB2  41E8 0010                lea.l      A0, [A0 + 0x10]
00002AB6  43EE FEBE                lea.l      A1, [A6 - 0x142]
00002ABA  22D8                     move.l     [A1]+, [A0]+
00002ABC  22D8                     move.l     [A1]+, [A0]+
00002ABE  302D FF5A                move.w     D0, [A5 - 0xA6]
00002AC2  906D FF56                sub.w      D0, [A5 - 0xAA]
00002AC6  322E FEC2                move.w     D1, [A6 - 0x13E]
00002ACA  926E FEBE                sub.w      D1, [A6 - 0x142]
00002ACE  9041                     sub.w      D0, D1
label00002AD0:
00002AD0  48C0                     ext.l      D0
00002AD2  81FC 0002                divs.w     D0, 0x2
00002AD6  3D40 FEBE                move.w     [A6 - 0x142], D0
00002ADA  302D FF5C                move.w     D0, [A5 - 0xA4]
// begin alternate branch 00002ADC-00002ADE
label00002ADC:
00002ADC  FF5C                     .extension 0xF5C <<F/4-5/7>> // unimplemented
// end alternate branch 00002ADC-00002ADE
label00002ADC: // (misaligned)
00002ADE  906D FF58                sub.w      D0, [A5 - 0xA8]
fn00002AE2:
00002AE2  322E FEC4                move.w     D1, [A6 - 0x13C]
00002AE6  926E FEC0                sub.w      D1, [A6 - 0x140]
00002AEA  9041                     sub.w      D0, D1
00002AEC  48C0                     ext.l      D0
00002AEE  81FC 0002                divs.w     D0, 0x2
00002AF2  3D40 FEC0                move.w     [A6 - 0x140], D0
00002AF6  2F2E FEC6                move.l     -[A7], [A6 - 0x13A]
00002AFA  3F2E FEC0                move.w     -[A7], [A6 - 0x140]
00002AFE  3F2E FEBE                move.w     -[A7], [A6 - 0x142]
00002B02  1F3C 0001                move.b     -[A7], 0x1
00002B06  A91B                     syscall    MoveWindow
00002B08  2F2E FEC6                move.l     -[A7], [A6 - 0x13A]
00002B0C  A915                     syscall    ShowWindow
00002B0E  2F2E FEC6                move.l     -[A7], [A6 - 0x13A]
00002B12  A91F                     syscall    SelectWindow
00002B14  2F2E FEC6                move.l     -[A7], [A6 - 0x13A]
00002B18  A873                     syscall    SetPort
00002B1A  382D F85E                move.w     D4, [A5 - 0x7A2]
00002B1E  3A2D F860                move.w     D5, [A5 - 0x7A0]
00002B22  3C2D F862                move.w     D6, [A5 - 0x79E]
00002B26  362D F864                move.w     D3, [A5 - 0x79C]
00002B2A  1D6D FE77 FE84           move.b     [A6 - 0x17C], [A5 - 0x189]
00002B30  3F3C 000C                move.w     -[A7], 0xC
00002B34  486D F888                pea.l      [A5 - 0x778]
00002B38  486E FEB0                pea.l      [A6 - 0x150]
00002B3C  4EAD 005A                jsr        [A5 + 0x5A /* export_7, CODE:1 @ 00000274 */]
00002B40  3F3C 000C                move.w     -[A7], 0xC
00002B44  486D F896                pea.l      [A5 - 0x76A]
00002B48  486E FEA2                pea.l      [A6 - 0x15E]
00002B4C  4EAD 005A                jsr        [A5 + 0x5A /* export_7, CODE:1 @ 00000274 */]
00002B50  3F3C 000C                move.w     -[A7], 0xC
00002B54  486D F8A4                pea.l      [A5 - 0x75C]
00002B58  486E FE94                pea.l      [A6 - 0x16C]
00002B5C  4EAD 005A                jsr        [A5 + 0x5A /* export_7, CODE:1 @ 00000274 */]
00002B60  3F3C 000C                move.w     -[A7], 0xC
00002B64  486D F8B2                pea.l      [A5 - 0x74E]
00002B68  486E FE86                pea.l      [A6 - 0x17A]
00002B6C  4EAD 005A                jsr        [A5 + 0x5A /* export_7, CODE:1 @ 00000274 */]
00002B70  2F2E FEC6                move.l     -[A7], [A6 - 0x13A]
00002B74  3F3C 0007                move.w     -[A7], 0x7
00002B78  486E FFEA                pea.l      [A6 - 0x16]
00002B7C  486E FECE                pea.l      [A6 - 0x132]
00002B80  486E FEBE                pea.l      [A6 - 0x142]
00002B84  A98D                     syscall    GetDialogItem/GetDItem
00002B86  2F2E FECE                move.l     -[A7], [A6 - 0x132]
00002B8A  486E FEB0                pea.l      [A6 - 0x150]
00002B8E  A98F                     syscall    SetDialogItemText/SetIText
00002B90  2F2E FEC6                move.l     -[A7], [A6 - 0x13A]
00002B94  3F3C 0008                move.w     -[A7], 0x8
00002B98  486E FFEA                pea.l      [A6 - 0x16]
00002B9C  486E FECE                pea.l      [A6 - 0x132]
00002BA0  486E FEBE                pea.l      [A6 - 0x142]
00002BA4  A98D                     syscall    GetDialogItem/GetDItem
00002BA6  2F2E FECE                move.l     -[A7], [A6 - 0x132]
00002BAA  486E FEA2                pea.l      [A6 - 0x15E]
00002BAE  A98F                     syscall    SetDialogItemText/SetIText
00002BB0  2F2E FEC6                move.l     -[A7], [A6 - 0x13A]
00002BB4  3F3C 0009                move.w     -[A7], 0x9 /* '\t' */
00002BB8  486E FFEA                pea.l      [A6 - 0x16]
00002BBC  486E FECE                pea.l      [A6 - 0x132]
00002BC0  486E FEBE                pea.l      [A6 - 0x142]
00002BC4  A98D                     syscall    GetDialogItem/GetDItem
00002BC6  2F2E FECE                move.l     -[A7], [A6 - 0x132]
00002BCA  486E FE94                pea.l      [A6 - 0x16C]
00002BCE  A98F                     syscall    SetDialogItemText/SetIText
00002BD0  2F2E FEC6                move.l     -[A7], [A6 - 0x13A]
00002BD4  3F3C 000A                move.w     -[A7], 0xA /* '\n' */
00002BD8  486E FFEA                pea.l      [A6 - 0x16]
00002BDC  486E FECE                pea.l      [A6 - 0x132]
00002BE0  486E FEBE                pea.l      [A6 - 0x142]
00002BE4  A98D                     syscall    GetDialogItem/GetDItem
00002BE6  2F2E FECE                move.l     -[A7], [A6 - 0x132]
00002BEA  486E FE86                pea.l      [A6 - 0x17A]
00002BEE  A98F                     syscall    SetDialogItemText/SetIText
00002BF0  4A2E FE84                tst.b      [A6 - 0x17C]
00002BF4  6718                     beq        +0x1A /* 00002C0E */
00002BF6  2F2E FEC6                move.l     -[A7], [A6 - 0x13A]
00002BFA  3F3C 000D                move.w     -[A7], 0xD /* '\r' */
00002BFE  486E FFEA                pea.l      [A6 - 0x16]
00002C02  486E FECE                pea.l      [A6 - 0x132]
00002C06  486E FEBE                pea.l      [A6 - 0x142]
00002C0A  A98D                     syscall    GetDialogItem/GetDItem
00002C0C  6016                     bra        +0x18 /* 00002C24 */
label00002C0E:
00002C0E  2F2E FEC6                move.l     -[A7], [A6 - 0x13A]
00002C12  3F3C 000C                move.w     -[A7], 0xC
00002C16  486E FFEA                pea.l      [A6 - 0x16]
00002C1A  486E FECE                pea.l      [A6 - 0x132]
00002C1E  486E FEBE                pea.l      [A6 - 0x142]
00002C22  A98D                     syscall    GetDialogItem/GetDItem
label00002C24:
00002C24  2F2E FECE                move.l     -[A7], [A6 - 0x132]
00002C28  3F3C 0001                move.w     -[A7], 0x1
00002C2C  A963                     syscall    SetControlValue/SetCtlValue
00002C2E  2F0E                     move.l     -[A7], A6
00002C30  4EBA F92E                jsr        [PC - 0x6D2 /* 00002560 */]
00002C34  4207                     clr.b      D7
label00002C36:
00002C36  42A7                     clr.l      -[A7]
00002C38  486E FFE8                pea.l      [A6 - 0x18]
00002C3C  A991                     syscall    ModalDialog
00002C3E  2F2E FEC6                move.l     -[A7], [A6 - 0x13A]
00002C42  3F2E FFE8                move.w     -[A7], [A6 - 0x18]
00002C46  486E FFEA                pea.l      [A6 - 0x16]
00002C4A  486E FECE                pea.l      [A6 - 0x132]
00002C4E  486E FEBE                pea.l      [A6 - 0x142]
00002C52  A98D                     syscall    GetDialogItem/GetDItem
00002C54  0C6E 0003 FFE8           cmpi.w     [A6 - 0x18], 0x3
00002C5A  5CC0                     sge        D0
00002C5C  0C6E 0006 FFE8           cmpi.w     [A6 - 0x18], 0x6
00002C62  5FC1                     sle        D1
00002C64  C001                     and.b      D0, D1
00002C66  6700 02AC                beq        +0x2AE /* 00002F14 */
00002C6A  2F2E FEC6                move.l     -[A7], [A6 - 0x13A]
00002C6E  3F2E FFE8                move.w     -[A7], [A6 - 0x18]
00002C72  486E FFEA                pea.l      [A6 - 0x16]
00002C76  486E FECE                pea.l      [A6 - 0x132]
00002C7A  486E FEBE                pea.l      [A6 - 0x142]
00002C7E  A98D                     syscall    GetDialogItem/GetDItem
00002C80  486E FEBE                pea.l      [A6 - 0x142]
00002C84  A8A4                     syscall    InvertRect
00002C86  2F2E FEC6                move.l     -[A7], [A6 - 0x13A]
00002C8A  3F3C 000B                move.w     -[A7], 0xB
00002C8E  486E FFEA                pea.l      [A6 - 0x16]
00002C92  486E FECE                pea.l      [A6 - 0x132]
00002C96  486E FEBE                pea.l      [A6 - 0x142]
00002C9A  A98D                     syscall    GetDialogItem/GetDItem
00002C9C  2F2E FECE                move.l     -[A7], [A6 - 0x132]
00002CA0  487A 06EA                pea.l      [PC + 0x6EA /* 0000338C, value 0x33546865 '3The', pstring "The next key you strike will control this function." */]
00002CA4  A98F                     syscall    SetDialogItemText/SetIText
00002CA6  486E FEBE                pea.l      [A6 - 0x142]
00002CAA  A8A4                     syscall    InvertRect
label00002CAC:
00002CAC  554F                     subq.w     A7, 2
00002CAE  A974                     syscall    Button
00002CB0  101F                     move.b     D0, [A7]+
00002CB2  5300                     subq.b     D0, 1
00002CB4  67F6                     beq        -0x8 /* 00002CAC */
00002CB6  3F3C FFFF                move.w     -[A7], 0xFFFF
00002CBA  4267                     clr.w      -[A7]
00002CBC  201F                     move.l     D0, [A7]+
00002CBE  A032                     syscall    FlushEvents
label00002CC0:
00002CC0  554F                     subq.w     A7, 2
00002CC2  3F3C 0008                move.w     -[A7], 0x8
00002CC6  486D B550                pea.l      [A5 - 0x4AB0]
00002CCA  A970                     syscall    GetNextEvent
00002CCC  4A1F                     tst.b      [A7]+
00002CCE  67F0                     beq        -0xE /* 00002CC0 */
00002CD0  202D B552                move.l     D0, [A5 - 0x4AAE]
00002CD4  0280 0000 FF00           andi.l     D0, 0xFF00
00002CDA  2F00                     move.l     -[A7], D0
00002CDC  2F3C 0000 00FF           move.l     -[A7], 0xFF
00002CE2  4EAD 004A                jsr        [A5 + 0x4A /* export_5, CODE:1 @ 000001DA */]
00002CE6  544F                     addq.w     A7, 2
00002CE8  3D5F FFE4                move.w     [A6 - 0x1C], [A7]+
00002CEC  202D B552                move.l     D0, [A5 - 0x4AAE]
00002CF0  0280 0000 00FF           andi.l     D0, 0xFF
00002CF6  3D40 FFE2                move.w     [A6 - 0x1E], D0
00002CFA  3F3C FFFF                move.w     -[A7], 0xFFFF
00002CFE  4267                     clr.w      -[A7]
00002D00  201F                     move.l     D0, [A7]+
00002D02  A032                     syscall    FlushEvents
00002D04  486E FEBE                pea.l      [A6 - 0x142]
00002D08  A8A4                     syscall    InvertRect
00002D0A  2F2E FEC6                move.l     -[A7], [A6 - 0x13A]
00002D0E  3F2E FFE8                move.w     -[A7], [A6 - 0x18]
00002D12  486E FFEA                pea.l      [A6 - 0x16]
00002D16  486E FECE                pea.l      [A6 - 0x132]
00002D1A  486E FEBE                pea.l      [A6 - 0x142]
00002D1E  A98D                     syscall    GetDialogItem/GetDItem
00002D20  486E FEBE                pea.l      [A6 - 0x142]
00002D24  A8A4                     syscall    InvertRect
00002D26  486E FE56                pea.l      [A6 - 0x1AA]
00002D2A  3F2E FFE4                move.w     -[A7], [A6 - 0x1C]
00002D2E  3F2E FFE2                move.w     -[A7], [A6 - 0x1E]
00002D32  2F0E                     move.l     -[A7], A6
00002D34  4EBA F880                jsr        [PC - 0x780 /* 000025B6 */]
00002D38  584F                     addq.w     A7, 4
00002D3A  3F3C 00FF                move.w     -[A7], 0xFF
00002D3E  486E FE56                pea.l      [A6 - 0x1AA]
00002D42  486E FED2                pea.l      [A6 - 0x12E]
00002D46  4EAD 005A                jsr        [A5 + 0x5A /* export_7, CODE:1 @ 00000274 */]
00002D4A  2F2E FEC6                move.l     -[A7], [A6 - 0x13A]
00002D4E  302E FFE8                move.w     D0, [A6 - 0x18]
00002D52  5840                     addq.w     D0, 4
00002D54  3F00                     move.w     -[A7], D0
00002D56  486E FFEA                pea.l      [A6 - 0x16]
00002D5A  486E FECE                pea.l      [A6 - 0x132]
00002D5E  486E FEBE                pea.l      [A6 - 0x142]
00002D62  A98D                     syscall    GetDialogItem/GetDItem
00002D64  2F2E FECE                move.l     -[A7], [A6 - 0x132]
00002D68  486E FED2                pea.l      [A6 - 0x12E]
00002D6C  A98F                     syscall    SetDialogItemText/SetIText
00002D6E  0CAE 0374 6162 FED2      cmpi.l     [A6 - 0x12E], 0x3746162
00002D76  6600 00B6                bne        +0xB8 /* 00002E2E */
00002D7A  3F3C 0003                move.w     -[A7], 0x3
00002D7E  A9C8                     syscall    SysBeep
00002D80  2F2E FEC6                move.l     -[A7], [A6 - 0x13A]
00002D84  3F3C 000B                move.w     -[A7], 0xB
00002D88  486E FFEA                pea.l      [A6 - 0x16]
00002D8C  486E FECE                pea.l      [A6 - 0x132]
00002D90  486E FEBE                pea.l      [A6 - 0x142]
00002D94  A98D                     syscall    GetDialogItem/GetDItem
00002D96  2F2E FECE                move.l     -[A7], [A6 - 0x132]
00002D9A  487A 05C4                pea.l      [PC + 0x5C4 /* 00003360, value 0x2B546865 '+The', pstring "The TAB key is reserved for pausing Glider." */]
00002D9E  A98F                     syscall    SetDialogItemText/SetIText
00002DA0  2F3C 0000 00B4           move.l     -[A7], 0xB4
00002DA6  486E FFD2                pea.l      [A6 - 0x2E]
00002DAA  4EAD 009A                jsr        [A5 + 0x9A /* export_15, CODE:1 @ 00000506 */]
00002DAE  302E FFE8                move.w     D0, [A6 - 0x18]
00002DB2  6036                     bra        +0x38 /* 00002DEA */
label00002DB4:
00002DB4  3F3C 00FF                move.w     -[A7], 0xFF
00002DB8  486E FEB0                pea.l      [A6 - 0x150]
00002DBC  486E FED2                pea.l      [A6 - 0x12E]
00002DC0  4EAD 005A                jsr        [A5 + 0x5A /* export_7, CODE:1 @ 00000274 */]
00002DC4  6040                     bra        +0x42 /* 00002E06 */
label00002DC6:
00002DC6  3F3C 00FF                move.w     -[A7], 0xFF
00002DCA  486E FEA2                pea.l      [A6 - 0x15E]
00002DCE  486E FED2                pea.l      [A6 - 0x12E]
00002DD2  4EAD 005A                jsr        [A5 + 0x5A /* export_7, CODE:1 @ 00000274 */]
00002DD6  602E                     bra        +0x30 /* 00002E06 */
label00002DD8:
00002DD8  3F3C 00FF                move.w     -[A7], 0xFF
00002DDC  486E FE94                pea.l      [A6 - 0x16C]
00002DE0  486E FED2                pea.l      [A6 - 0x12E]
00002DE4  4EAD 005A                jsr        [A5 + 0x5A /* export_7, CODE:1 @ 00000274 */]
00002DE8  601C                     bra        +0x1E /* 00002E06 */
label00002DEA:
00002DEA  5740                     subq.w     D0, 3
00002DEC  67C6                     beq        -0x38 /* 00002DB4 */
00002DEE  5340                     subq.w     D0, 1
00002DF0  67D4                     beq        -0x2A /* 00002DC6 */
00002DF2  5340                     subq.w     D0, 1
00002DF4  67E2                     beq        -0x1C /* 00002DD8 */
00002DF6  3F3C 00FF                move.w     -[A7], 0xFF
00002DFA  486E FE86                pea.l      [A6 - 0x17A]
00002DFE  486E FED2                pea.l      [A6 - 0x12E]
00002E02  4EAD 005A                jsr        [A5 + 0x5A /* export_7, CODE:1 @ 00000274 */]
label00002E06:
00002E06  2F2E FEC6                move.l     -[A7], [A6 - 0x13A]
00002E0A  302E FFE8                move.w     D0, [A6 - 0x18]
00002E0E  5840                     addq.w     D0, 4
00002E10  3F00                     move.w     -[A7], D0
00002E12  486E FFEA                pea.l      [A6 - 0x16]
00002E16  486E FECE                pea.l      [A6 - 0x132]
00002E1A  486E FEBE                pea.l      [A6 - 0x142]
00002E1E  A98D                     syscall    GetDialogItem/GetDItem
00002E20  2F2E FECE                move.l     -[A7], [A6 - 0x132]
00002E24  486E FED2                pea.l      [A6 - 0x12E]
00002E28  A98F                     syscall    SetDialogItemText/SetIText
00002E2A  6000 00C8                bra        +0xCA /* 00002EF4 */
label00002E2E:
00002E2E  302E FFE8                move.w     D0, [A6 - 0x18]
00002E32  6000 0088                bra        +0x8A /* 00002EBC */
label00002E36:
00002E36  382E FFE4                move.w     D4, [A6 - 0x1C]
00002E3A  486E FD64                pea.l      [A6 - 0x29C]
00002E3E  486E FED2                pea.l      [A6 - 0x12E]
00002E42  3F3C 0001                move.w     -[A7], 0x1
00002E46  3F3C 000C                move.w     -[A7], 0xC
00002E4A  4EAD 0032                jsr        [A5 + 0x32 /* export_2, CODE:1 @ 00000048 */]
00002E4E  584F                     addq.w     A7, 4
00002E50  3F3C 000C                move.w     -[A7], 0xC
00002E54  486E FD64                pea.l      [A6 - 0x29C]
00002E58  486E FEB0                pea.l      [A6 - 0x150]
00002E5C  4EAD 005A                jsr        [A5 + 0x5A /* export_7, CODE:1 @ 00000274 */]
00002E60  6000 0092                bra        +0x94 /* 00002EF4 */
label00002E64:
00002E64  3A2E FFE4                move.w     D5, [A6 - 0x1C]
00002E68  486E FD64                pea.l      [A6 - 0x29C]
00002E6C  486E FED2                pea.l      [A6 - 0x12E]
00002E70  3F3C 0001                move.w     -[A7], 0x1
00002E74  3F3C 000C                move.w     -[A7], 0xC
00002E78  4EAD 0032                jsr        [A5 + 0x32 /* export_2, CODE:1 @ 00000048 */]
00002E7C  584F                     addq.w     A7, 4
00002E7E  3F3C 000C                move.w     -[A7], 0xC
00002E82  486E FD64                pea.l      [A6 - 0x29C]
00002E86  486E FEA2                pea.l      [A6 - 0x15E]
00002E8A  4EAD 005A                jsr        [A5 + 0x5A /* export_7, CODE:1 @ 00000274 */]
00002E8E  6064                     bra        +0x66 /* 00002EF4 */
label00002E90:
00002E90  3C2E FFE4                move.w     D6, [A6 - 0x1C]
00002E94  486E FD64                pea.l      [A6 - 0x29C]
00002E98  486E FED2                pea.l      [A6 - 0x12E]
00002E9C  3F3C 0001                move.w     -[A7], 0x1
00002EA0  3F3C 000C                move.w     -[A7], 0xC
00002EA4  4EAD 0032                jsr        [A5 + 0x32 /* export_2, CODE:1 @ 00000048 */]
00002EA8  584F                     addq.w     A7, 4
00002EAA  3F3C 000C                move.w     -[A7], 0xC
00002EAE  486E FD64                pea.l      [A6 - 0x29C]
00002EB2  486E FE94                pea.l      [A6 - 0x16C]
00002EB6  4EAD 005A                jsr        [A5 + 0x5A /* export_7, CODE:1 @ 00000274 */]
00002EBA  6038                     bra        +0x3A /* 00002EF4 */
label00002EBC:
00002EBC  5740                     subq.w     D0, 3
00002EBE  6700 FF76                beq        -0x88 /* 00002E36 */
00002EC2  5340                     subq.w     D0, 1
00002EC4  679E                     beq        -0x60 /* 00002E64 */
00002EC6  5340                     subq.w     D0, 1
00002EC8  67C6                     beq        -0x38 /* 00002E90 */
00002ECA  362E FFE4                move.w     D3, [A6 - 0x1C]
00002ECE  486E FD64                pea.l      [A6 - 0x29C]
00002ED2  486E FED2                pea.l      [A6 - 0x12E]
00002ED6  3F3C 0001                move.w     -[A7], 0x1
00002EDA  3F3C 000C                move.w     -[A7], 0xC
00002EDE  4EAD 0032                jsr        [A5 + 0x32 /* export_2, CODE:1 @ 00000048 */]
00002EE2  584F                     addq.w     A7, 4
00002EE4  3F3C 000C                move.w     -[A7], 0xC
00002EE8  486E FD64                pea.l      [A6 - 0x29C]
00002EEC  486E FE86                pea.l      [A6 - 0x17A]
00002EF0  4EAD 005A                jsr        [A5 + 0x5A /* export_7, CODE:1 @ 00000274 */]
label00002EF4:
00002EF4  2F2E FEC6                move.l     -[A7], [A6 - 0x13A]
00002EF8  3F3C 000B                move.w     -[A7], 0xB
00002EFC  486E FFEA                pea.l      [A6 - 0x16]
00002F00  486E FECE                pea.l      [A6 - 0x132]
00002F04  486E FEBE                pea.l      [A6 - 0x142]
00002F08  A98D                     syscall    GetDialogItem/GetDItem
00002F0A  2F2E FECE                move.l     -[A7], [A6 - 0x132]
00002F0E  487A 0420                pea.l      [PC + 0x420 /* 00003330, value 0x2F436C69 '/Cli', pstring "Click on an icon to change its controlling key." */]
00002F12  A98F                     syscall    SetDialogItemText/SetIText
label00002F14:
00002F14  0C6E 000C FFE8           cmpi.w     [A6 - 0x18], 0xC
00002F1A  6642                     bne        +0x44 /* 00002F5E */
00002F1C  422E FE84                clr.b      [A6 - 0x17C]
00002F20  2F2E FEC6                move.l     -[A7], [A6 - 0x13A]
00002F24  3F3C 000C                move.w     -[A7], 0xC
00002F28  486E FFEA                pea.l      [A6 - 0x16]
00002F2C  486E FECE                pea.l      [A6 - 0x132]
00002F30  486E FEBE                pea.l      [A6 - 0x142]
00002F34  A98D                     syscall    GetDialogItem/GetDItem
00002F36  2F2E FECE                move.l     -[A7], [A6 - 0x132]
00002F3A  3F3C 0001                move.w     -[A7], 0x1
00002F3E  A963                     syscall    SetControlValue/SetCtlValue
00002F40  2F2E FEC6                move.l     -[A7], [A6 - 0x13A]
00002F44  3F3C 000D                move.w     -[A7], 0xD /* '\r' */
00002F48  486E FFEA                pea.l      [A6 - 0x16]
00002F4C  486E FECE                pea.l      [A6 - 0x132]
00002F50  486E FEBE                pea.l      [A6 - 0x142]
00002F54  A98D                     syscall    GetDialogItem/GetDItem
00002F56  2F2E FECE                move.l     -[A7], [A6 - 0x132]
00002F5A  4267                     clr.w      -[A7]
00002F5C  A963                     syscall    SetControlValue/SetCtlValue
label00002F5E:
00002F5E  0C6E 000D FFE8           cmpi.w     [A6 - 0x18], 0xD /* '\r' */
00002F64  6644                     bne        +0x46 /* 00002FAA */
00002F66  1D7C 0001 FE84           move.b     [A6 - 0x17C], 0x1
00002F6C  2F2E FEC6                move.l     -[A7], [A6 - 0x13A]
00002F70  3F3C 000D                move.w     -[A7], 0xD /* '\r' */
00002F74  486E FFEA                pea.l      [A6 - 0x16]
00002F78  486E FECE                pea.l      [A6 - 0x132]
00002F7C  486E FEBE                pea.l      [A6 - 0x142]
00002F80  A98D                     syscall    GetDialogItem/GetDItem
00002F82  2F2E FECE                move.l     -[A7], [A6 - 0x132]
00002F86  3F3C 0001                move.w     -[A7], 0x1
00002F8A  A963                     syscall    SetControlValue/SetCtlValue
00002F8C  2F2E FEC6                move.l     -[A7], [A6 - 0x13A]
00002F90  3F3C 000C                move.w     -[A7], 0xC
00002F94  486E FFEA                pea.l      [A6 - 0x16]
00002F98  486E FECE                pea.l      [A6 - 0x132]
00002F9C  486E FEBE                pea.l      [A6 - 0x142]
00002FA0  A98D                     syscall    GetDialogItem/GetDItem
00002FA2  2F2E FECE                move.l     -[A7], [A6 - 0x132]
00002FA6  4267                     clr.w      -[A7]
00002FA8  A963                     syscall    SetControlValue/SetCtlValue
label00002FAA:
00002FAA  0C6E 0001 FFE8           cmpi.w     [A6 - 0x18], 0x1
00002FB0  6600 0224                bne        +0x226 /* 000031D6 */
00002FB4  7E01                     moveq.l    D7, 0x01
00002FB6  B845                     cmp.w      D4, D5
00002FB8  57C0                     seq        D0
00002FBA  B846                     cmp.w      D4, D6
00002FBC  57C1                     seq        D1
00002FBE  8001                     or.b       D0, D1
00002FC0  B843                     cmp.w      D4, D3
00002FC2  57C1                     seq        D1
00002FC4  8001                     or.b       D0, D1
00002FC6  6700 008C                beq        +0x8E /* 00003054 */
00002FCA  3F3C 0003                move.w     -[A7], 0x3
00002FCE  A9C8                     syscall    SysBeep
00002FD0  382D F85E                move.w     D4, [A5 - 0x7A2]
00002FD4  3F3C 000C                move.w     -[A7], 0xC
00002FD8  486D F888                pea.l      [A5 - 0x778]
00002FDC  486E FEB0                pea.l      [A6 - 0x150]
00002FE0  4EAD 005A                jsr        [A5 + 0x5A /* export_7, CODE:1 @ 00000274 */]
00002FE4  2F2E FEC6                move.l     -[A7], [A6 - 0x13A]
00002FE8  3F3C 0007                move.w     -[A7], 0x7
00002FEC  486E FFEA                pea.l      [A6 - 0x16]
00002FF0  486E FECE                pea.l      [A6 - 0x132]
00002FF4  486E FEBE                pea.l      [A6 - 0x142]
00002FF8  A98D                     syscall    GetDialogItem/GetDItem
00002FFA  2F2E FECE                move.l     -[A7], [A6 - 0x132]
00002FFE  486E FEB0                pea.l      [A6 - 0x150]
00003002  A98F                     syscall    SetDialogItemText/SetIText
00003004  2F2E FEC6                move.l     -[A7], [A6 - 0x13A]
00003008  3F3C 000B                move.w     -[A7], 0xB
0000300C  486E FFEA                pea.l      [A6 - 0x16]
00003010  486E FECE                pea.l      [A6 - 0x132]
00003014  486E FEBE                pea.l      [A6 - 0x142]
00003018  A98D                     syscall    GetDialogItem/GetDItem
0000301A  2F2E FECE                move.l     -[A7], [A6 - 0x132]
0000301E  487A 02DA                pea.l      [PC + 0x2DA /* 000032FA, value 0x34596F75 '4You', pstring "Your Left Key has been assigned to another function." */]
00003022  A98F                     syscall    SetDialogItemText/SetIText
00003024  2F3C 0000 00B4           move.l     -[A7], 0xB4
0000302A  486E FFD2                pea.l      [A6 - 0x2E]
0000302E  4EAD 009A                jsr        [A5 + 0x9A /* export_15, CODE:1 @ 00000506 */]
00003032  2F2E FEC6                move.l     -[A7], [A6 - 0x13A]
00003036  3F3C 000B                move.w     -[A7], 0xB
0000303A  486E FFEA                pea.l      [A6 - 0x16]
0000303E  486E FECE                pea.l      [A6 - 0x132]
00003042  486E FEBE                pea.l      [A6 - 0x142]
00003046  A98D                     syscall    GetDialogItem/GetDItem
00003048  2F2E FECE                move.l     -[A7], [A6 - 0x132]
0000304C  487A 027C                pea.l      [PC + 0x27C /* 000032CA, value 0x2F436C69 '/Cli', pstring "Click on an icon to change its controlling key." */]
00003050  A98F                     syscall    SetDialogItemText/SetIText
00003052  4207                     clr.b      D7
label00003054:
00003054  BA46                     cmp.w      D5, D6
00003056  57C0                     seq        D0
00003058  BA43                     cmp.w      D5, D3
0000305A  57C1                     seq        D1
0000305C  8001                     or.b       D0, D1
0000305E  6700 008C                beq        +0x8E /* 000030EC */
00003062  3F3C 0003                move.w     -[A7], 0x3
00003066  A9C8                     syscall    SysBeep
00003068  3A2D F860                move.w     D5, [A5 - 0x7A0]
0000306C  3F3C 000C                move.w     -[A7], 0xC
00003070  486D F896                pea.l      [A5 - 0x76A]
00003074  486E FEA2                pea.l      [A6 - 0x15E]
00003078  4EAD 005A                jsr        [A5 + 0x5A /* export_7, CODE:1 @ 00000274 */]
0000307C  2F2E FEC6                move.l     -[A7], [A6 - 0x13A]
00003080  3F3C 0008                move.w     -[A7], 0x8
00003084  486E FFEA                pea.l      [A6 - 0x16]
00003088  486E FECE                pea.l      [A6 - 0x132]
0000308C  486E FEBE                pea.l      [A6 - 0x142]
00003090  A98D                     syscall    GetDialogItem/GetDItem
00003092  2F2E FECE                move.l     -[A7], [A6 - 0x132]
00003096  486E FEA2                pea.l      [A6 - 0x15E]
0000309A  A98F                     syscall    SetDialogItemText/SetIText
0000309C  2F2E FEC6                move.l     -[A7], [A6 - 0x13A]
000030A0  3F3C 000B                move.w     -[A7], 0xB
000030A4  486E FFEA                pea.l      [A6 - 0x16]
000030A8  486E FECE                pea.l      [A6 - 0x132]
000030AC  486E FEBE                pea.l      [A6 - 0x142]
000030B0  A98D                     syscall    GetDialogItem/GetDItem
000030B2  2F2E FECE                move.l     -[A7], [A6 - 0x132]
000030B6  487A 01DC                pea.l      [PC + 0x1DC /* 00003294, value 0x35596F75 '5You', pstring "Your Right Key has been assigned to another function." */]
000030BA  A98F                     syscall    SetDialogItemText/SetIText
000030BC  2F3C 0000 00B4           move.l     -[A7], 0xB4
000030C2  486E FFD2                pea.l      [A6 - 0x2E]
000030C6  4EAD 009A                jsr        [A5 + 0x9A /* export_15, CODE:1 @ 00000506 */]
000030CA  2F2E FEC6                move.l     -[A7], [A6 - 0x13A]
000030CE  3F3C 000B                move.w     -[A7], 0xB
000030D2  486E FFEA                pea.l      [A6 - 0x16]
000030D6  486E FECE                pea.l      [A6 - 0x132]
000030DA  486E FEBE                pea.l      [A6 - 0x142]
000030DE  A98D                     syscall    GetDialogItem/GetDItem
000030E0  2F2E FECE                move.l     -[A7], [A6 - 0x132]
000030E4  487A 017E                pea.l      [PC + 0x17E /* 00003264, value 0x2F436C69 '/Cli', pstring "Click on an icon to change its controlling key." */]
000030E8  A98F                     syscall    SetDialogItemText/SetIText
000030EA  4207                     clr.b      D7
label000030EC:
000030EC  BC43                     cmp.w      D6, D3
000030EE  6600 008C                bne        +0x8E /* 0000317C */
000030F2  3F3C 0003                move.w     -[A7], 0x3
000030F6  A9C8                     syscall    SysBeep
000030F8  3C2D F862                move.w     D6, [A5 - 0x79E]
000030FC  3F3C 000C                move.w     -[A7], 0xC
00003100  486D F8A4                pea.l      [A5 - 0x75C]
00003104  486E FE94                pea.l      [A6 - 0x16C]
00003108  4EAD 005A                jsr        [A5 + 0x5A /* export_7, CODE:1 @ 00000274 */]
0000310C  2F2E FEC6                move.l     -[A7], [A6 - 0x13A]
00003110  3F3C 0009                move.w     -[A7], 0x9 /* '\t' */
00003114  486E FFEA                pea.l      [A6 - 0x16]
00003118  486E FECE                pea.l      [A6 - 0x132]
0000311C  486E FEBE                pea.l      [A6 - 0x142]
00003120  A98D                     syscall    GetDialogItem/GetDItem
00003122  2F2E FECE                move.l     -[A7], [A6 - 0x132]
00003126  486E FE94                pea.l      [A6 - 0x16C]
0000312A  A98F                     syscall    SetDialogItemText/SetIText
0000312C  2F2E FEC6                move.l     -[A7], [A6 - 0x13A]
00003130  3F3C 000B                move.w     -[A7], 0xB
00003134  486E FFEA                pea.l      [A6 - 0x16]
00003138  486E FECE                pea.l      [A6 - 0x132]
0000313C  486E FEBE                pea.l      [A6 - 0x142]
00003140  A98D                     syscall    GetDialogItem/GetDItem
00003142  2F2E FECE                move.l     -[A7], [A6 - 0x132]
00003146  487A 00E2                pea.l      [PC + 0xE2 /* 0000322A, value 0x38596F75 '8You', pstring "Your Energize Key has been assigned to another function." */]
0000314A  A98F                     syscall    SetDialogItemText/SetIText
0000314C  2F3C 0000 00B4           move.l     -[A7], 0xB4
00003152  486E FFD2                pea.l      [A6 - 0x2E]
00003156  4EAD 009A                jsr        [A5 + 0x9A /* export_15, CODE:1 @ 00000506 */]
0000315A  2F2E FEC6                move.l     -[A7], [A6 - 0x13A]
0000315E  3F3C 000B                move.w     -[A7], 0xB
00003162  486E FFEA                pea.l      [A6 - 0x16]
00003166  486E FECE                pea.l      [A6 - 0x132]
0000316A  486E FEBE                pea.l      [A6 - 0x142]
0000316E  A98D                     syscall    GetDialogItem/GetDItem
00003170  2F2E FECE                move.l     -[A7], [A6 - 0x132]
00003174  487A 0084                pea.l      [PC + 0x84 /* 000031FA, value 0x2F436C69 '/Cli', pstring "Click on an icon to change its controlling key." */]
00003178  A98F                     syscall    SetDialogItemText/SetIText
0000317A  4207                     clr.b      D7
label0000317C:
0000317C  4A07                     tst.b      D7
0000317E  6756                     beq        +0x58 /* 000031D6 */
00003180  3B44 F85E                move.w     [A5 - 0x7A2], D4
00003184  3B45 F860                move.w     [A5 - 0x7A0], D5
00003188  3B46 F862                move.w     [A5 - 0x79E], D6
0000318C  3B43 F864                move.w     [A5 - 0x79C], D3
00003190  1B6E FE84 FE77           move.b     [A5 - 0x189], [A6 - 0x17C]
00003196  3F3C 000C                move.w     -[A7], 0xC
0000319A  486E FEB0                pea.l      [A6 - 0x150]
0000319E  486D F888                pea.l      [A5 - 0x778]
000031A2  4EAD 005A                jsr        [A5 + 0x5A /* export_7, CODE:1 @ 00000274 */]
000031A6  3F3C 000C                move.w     -[A7], 0xC
000031AA  486E FEA2                pea.l      [A6 - 0x15E]
000031AE  486D F896                pea.l      [A5 - 0x76A]
000031B2  4EAD 005A                jsr        [A5 + 0x5A /* export_7, CODE:1 @ 00000274 */]
000031B6  3F3C 000C                move.w     -[A7], 0xC
000031BA  486E FE94                pea.l      [A6 - 0x16C]
000031BE  486D F8A4                pea.l      [A5 - 0x75C]
000031C2  4EAD 005A                jsr        [A5 + 0x5A /* export_7, CODE:1 @ 00000274 */]
000031C6  3F3C 000C                move.w     -[A7], 0xC
000031CA  486E FE86                pea.l      [A6 - 0x17A]
000031CE  486D F8B2                pea.l      [A5 - 0x74E]
000031D2  4EAD 005A                jsr        [A5 + 0x5A /* export_7, CODE:1 @ 00000274 */]
label000031D6:
000031D6  0C6E 0002 FFE8           cmpi.w     [A6 - 0x18], 0x2
000031DC  6602                     bne        +0x4 /* 000031E0 */
000031DE  7E01                     moveq.l    D7, 0x01
label000031E0:
000031E0  4A07                     tst.b      D7
000031E2  6700 FA52                beq        -0x5AC /* 00002C36 */
000031E6  2F2E FFEC                move.l     -[A7], [A6 - 0x14]
000031EA  A873                     syscall    SetPort
000031EC  2F2E FEC6                move.l     -[A7], [A6 - 0x13A]
000031F0  A983                     syscall    DisposeDialog
000031F2  4CDF 00F8                movem.l    D3,D4,D5,D6,D7, [A7]+
000031F6  4E5E                     unlink     A6
000031F8  4E75                     rts
000031FA  2F43 6C69                move.l     [A7 + 0x6C69], D3
000031FE  636B                     bls        +0x6D /* 0000326B */
00003200  206F 6E20                movea.l    A0, [A7 + 0x6E20]
00003204  616E                     bsr        +0x70 /* 00003274 */
00003206  2069 636F                movea.l    A0, [A1 + 0x636F]
0000320A  6E20                     bgt        +0x22 /* 0000322C */
0000320C  746F                     moveq.l    D2, 0x6F
0000320E  2063                     movea.l    A0, -[A3]
00003210  6861                     bvc        +0x63 /* 00003273 */
00003212  6E67                     bgt        +0x69 /* 0000327B */
00003214  6520                     bcs        +0x22 /* 00003236 */
00003216  6974                     bvs        +0x76 /* 0000328C */
00003218  7320                     moveq.l    D1, 0x20
0000321A  636F                     bls        +0x71 /* 0000328B */
0000321C  6E74                     bgt        +0x76 /* 00003292 */
0000321E  726F                     moveq.l    D1, 0x6F
00003220  6C6C                     bge        +0x6E /* 0000328E */
00003222  696E                     bvs        +0x70 /* 00003292 */
00003224  6720                     beq        +0x22 /* 00003246 */
00003226  6B65                     bmi        +0x67 /* 0000328D */
00003228  792E                     moveq.l    D4, 0x2E
0000322A  3859                     movea.w    A4, [A1]+
label0000322C:
0000322C  6F75                     ble        +0x77 /* 000032A3 */
0000322E  7220                     moveq.l    D1, 0x20
00003230  456E 6572                chk.w      D2, [A6 + 0x6572]
00003234  6769                     beq        +0x6B /* 0000329F */
label00003236:
00003236  7A65                     moveq.l    D5, 0x65
00003238  204B                     movea.l    A0, A3
0000323A  6579                     bcs        +0x7B /* 000032B5 */
0000323C  2068 6173                movea.l    A0, [A0 + 0x6173]
00003240  2062                     movea.l    A0, -[A2]
00003242  6565                     bcs        +0x67 /* 000032A9 */
00003244  6E20                     bgt        +0x22 /* 00003266 */
label00003246:
00003246  6173                     bsr        +0x75 /* 000032BB */
00003248  7369                     moveq.l    D1, 0x69
0000324A  676E                     beq        +0x70 /* 000032BA */
0000324C  6564                     bcs        +0x66 /* 000032B2 */
0000324E  2074 6F20 616E           movea.l    A0, [A4 + 0x616E + D6 * 8]
00003254  6F74                     ble        +0x76 /* 000032CA */
00003256  6865                     bvc        +0x67 /* 000032BD */
00003258  7220                     moveq.l    D1, 0x20
0000325A  6675                     bne        +0x77 /* 000032D1 */
0000325C  6E63                     bgt        +0x65 /* 000032C1 */
0000325E  7469                     moveq.l    D2, 0x69
00003260  6F6E                     ble        +0x70 /* 000032D0 */
00003262  2E16                     move.l     D7, [A6]
00003264  2F43 6C69                move.l     [A7 + 0x6C69], D3
// begin alternate branch 00003266-00003268
label00003266:
00003266  6C69                     bge        +0x6B /* 000032D1 */
// end alternate branch 00003266-00003268
label00003266: // (misaligned)
00003268  636B                     bls        +0x6D /* 000032D5 */
0000326A  206F 6E20                movea.l    A0, [A7 + 0x6E20]
0000326E  616E                     bsr        +0x70 /* 000032DE */
00003270  2069 636F                movea.l    A0, [A1 + 0x636F]
fn00003274:
00003274  6E20                     bgt        +0x22 /* 00003296 */
00003276  746F                     moveq.l    D2, 0x6F
00003278  2063                     movea.l    A0, -[A3]
0000327A  6861                     bvc        +0x63 /* 000032DD */
0000327C  6E67                     bgt        +0x69 /* 000032E5 */
0000327E  6520                     bcs        +0x22 /* 000032A0 */
00003280  6974                     bvs        +0x76 /* 000032F6 */
00003282  7320                     moveq.l    D1, 0x20
00003284  636F                     bls        +0x71 /* 000032F5 */
00003286  6E74                     bgt        +0x76 /* 000032FC */
00003288  726F                     moveq.l    D1, 0x6F
0000328A  6C6C                     bge        +0x6E /* 000032F8 */
label0000328C:
0000328C  696E                     bvs        +0x70 /* 000032FC */
label0000328E:
0000328E  6720                     beq        +0x22 /* 000032B0 */
00003290  6B65                     bmi        +0x67 /* 000032F7 */
label00003292:
00003292  792E                     moveq.l    D4, 0x2E
00003294  3559 6F75                move.w     [A2 + 0x6F75], [A1]+
// begin alternate branch 00003296-00003298
label00003296:
00003296  6F75                     ble        +0x77 /* 0000330D */
// end alternate branch 00003296-00003298
label00003296: // (misaligned)
00003298  7220                     moveq.l    D1, 0x20
0000329A  5269 6768                addq.w     [A1 + 0x6768], 1
0000329E  7420                     moveq.l    D2, 0x20
label000032A0:
000032A0  4B65                     chk.w      D5, -[A5]
000032A2  7920                     moveq.l    D4, 0x20
000032A4  6861                     bvc        +0x63 /* 00003307 */
000032A6  7320                     moveq.l    D1, 0x20
000032A8  6265                     bhi        +0x67 /* 0000330F */
000032AA  656E                     bcs        +0x70 /* 0000331A */
000032AC  2061                     movea.l    A0, -[A1]
000032AE  7373                     moveq.l    D1, 0x73
label000032B0:
000032B0  6967                     bvs        +0x69 /* 00003319 */
label000032B2:
000032B2  6E65                     bgt        +0x67 /* 00003319 */
000032B4  6420                     bcc        +0x22 /* 000032D6 */
000032B6  746F                     moveq.l    D2, 0x6F
000032B8  2061                     movea.l    A0, -[A1]
label000032BA:
000032BA  6E6F                     bgt        +0x71 /* 0000332B */
000032BC  7468                     moveq.l    D2, 0x68
000032BE  6572                     bcs        +0x74 /* 00003332 */
000032C0  2066                     movea.l    A0, -[A6]
000032C2  756E                     moveq.l    D2, 0x6E
000032C4  6374                     bls        +0x76 /* 0000333A */
000032C6  696F                     bvs        +0x71 /* 00003337 */
000032C8  6E2E                     bgt        +0x30 /* 000032F8 */
label000032CA:
000032CA  2F43 6C69                move.l     [A7 + 0x6C69], D3
000032CE  636B                     bls        +0x6D /* 0000333B */
label000032D0:
000032D0  206F 6E20                movea.l    A0, [A7 + 0x6E20]
000032D4  616E                     bsr        +0x70 /* 00003344 */
label000032D6:
000032D6  2069 636F                movea.l    A0, [A1 + 0x636F]
000032DA  6E20                     bgt        +0x22 /* 000032FC */
000032DC  746F                     moveq.l    D2, 0x6F
fn000032DE:
000032DE  2063                     movea.l    A0, -[A3]
000032E0  6861                     bvc        +0x63 /* 00003343 */
000032E2  6E67                     bgt        +0x69 /* 0000334B */
000032E4  6520                     bcs        +0x22 /* 00003306 */
000032E6  6974                     bvs        +0x76 /* 0000335C */
000032E8  7320                     moveq.l    D1, 0x20
000032EA  636F                     bls        +0x71 /* 0000335B */
000032EC  6E74                     bgt        +0x76 /* 00003362 */
000032EE  726F                     moveq.l    D1, 0x6F
000032F0  6C6C                     bge        +0x6E /* 0000335E */
000032F2  696E                     bvs        +0x70 /* 00003362 */
000032F4  6720                     beq        +0x22 /* 00003316 */
label000032F6:
000032F6  6B65                     bmi        +0x67 /* 0000335D */
label000032F8:
000032F8  792E                     moveq.l    D4, 0x2E
000032FA  3459                     movea.w    A2, [A1]+
label000032FC:
000032FC  6F75                     ble        +0x77 /* 00003373 */
000032FE  7220                     moveq.l    D1, 0x20
00003300  4C65 6674                divul.l    D4:D6, -[A5]
00003304  204B                     movea.l    A0, A3
label00003306:
00003306  6579                     bcs        +0x7B /* 00003381 */
00003308  2068 6173                movea.l    A0, [A0 + 0x6173]
0000330C  2062                     movea.l    A0, -[A2]
0000330E  6565                     bcs        +0x67 /* 00003375 */
00003310  6E20                     bgt        +0x22 /* 00003332 */
00003312  6173                     bsr        +0x75 /* 00003387 */
00003314  7369                     moveq.l    D1, 0x69
label00003316:
00003316  676E                     beq        +0x70 /* 00003386 */
00003318  6564                     bcs        +0x66 /* 0000337E */
label0000331A:
0000331A  2074 6F20 616E           movea.l    A0, [A4 + 0x616E + D6 * 8]
00003320  6F74                     ble        +0x76 /* 00003396 */
00003322  6865                     bvc        +0x67 /* 00003389 */
00003324  7220                     moveq.l    D1, 0x20
00003326  6675                     bne        +0x77 /* 0000339D */
00003328  6E63                     bgt        +0x65 /* 0000338D */
0000332A  7469                     moveq.l    D2, 0x69
0000332C  6F6E                     ble        +0x70 /* 0000339C */
0000332E  2E16                     move.l     D7, [A6]
00003330  2F43 6C69                move.l     [A7 + 0x6C69], D3
// begin alternate branch 00003332-00003334
label00003332:
00003332  6C69                     bge        +0x6B /* 0000339D */
// end alternate branch 00003332-00003334
label00003332: // (misaligned)
00003334  636B                     bls        +0x6D /* 000033A1 */
00003336  206F 6E20                movea.l    A0, [A7 + 0x6E20]
label0000333A:
0000333A  616E                     bsr        +0x70 /* 000033AA */
0000333C  2069 636F                movea.l    A0, [A1 + 0x636F]
00003340  6E20                     bgt        +0x22 /* 00003362 */
00003342  746F                     moveq.l    D2, 0x6F
fn00003344:
00003344  2063                     movea.l    A0, -[A3]
00003346  6861                     bvc        +0x63 /* 000033A9 */
00003348  6E67                     bgt        +0x69 /* 000033B1 */
0000334A  6520                     bcs        +0x22 /* 0000336C */
0000334C  6974                     bvs        +0x76 /* 000033C2 */
0000334E  7320                     moveq.l    D1, 0x20
00003350  636F                     bls        +0x71 /* 000033C1 */
00003352  6E74                     bgt        +0x76 /* 000033C8 */
00003354  726F                     moveq.l    D1, 0x6F
00003356  6C6C                     bge        +0x6E /* 000033C4 */
00003358  696E                     bvs        +0x70 /* 000033C8 */
0000335A  6720                     beq        +0x22 /* 0000337C */
label0000335C:
0000335C  6B65                     bmi        +0x67 /* 000033C3 */
label0000335E:
0000335E  792E                     moveq.l    D4, 0x2E
00003360  2B54 6865                move.l     [A5 + 0x6865], [A4]
// begin alternate branch 00003362-00003364
label00003362:
00003362  6865                     bvc        +0x67 /* 000033C9 */
// end alternate branch 00003362-00003364
label00003362: // (misaligned)
00003364  2054                     movea.l    A0, [A4]
00003366  4142                     chk.w      D0, D2
00003368  206B 6579                movea.l    A0, [A3 + 0x6579]
label0000336C:
0000336C  2069 7320                movea.l    A0, [A1 + 0x7320]
00003370  7265                     moveq.l    D1, 0x65
00003372  7365                     moveq.l    D1, 0x65
00003374  7276                     moveq.l    D1, 0x76
00003376  6564                     bcs        +0x66 /* 000033DC */
00003378  2066                     movea.l    A0, -[A6]
0000337A  6F72                     ble        +0x74 /* 000033EE */
label0000337C:
0000337C  2070 6175                movea.l    A0, <<invalid full ext with IS == 1 and I/IS == 5>>
// begin alternate branch 0000337E-00003380
label0000337E:
0000337E  6175                     bsr        +0x77 /* 000033F5 */
// end alternate branch 0000337E-00003380
label0000337E: // (misaligned)
00003380  7369                     moveq.l    D1, 0x69
00003382  6E67                     bgt        +0x69 /* 000033EB */
00003384  2047                     movea.l    A0, D7
label00003386:
00003386  6C69                     bge        +0x6B /* 000033F1 */
00003388  6465                     bcc        +0x67 /* 000033EF */
0000338A  722E                     moveq.l    D1, 0x2E
0000338C  3354 6865                move.w     [A1 + 0x6865], [A4]
00003390  206E 6578                movea.l    A0, [A6 + 0x6578]
00003394  7420                     moveq.l    D2, 0x20
label00003396:
00003396  6B65                     bmi        +0x67 /* 000033FD */
00003398  7920                     moveq.l    D4, 0x20
0000339A  796F                     moveq.l    D4, 0x6F
label0000339C:
0000339C  7520                     moveq.l    D2, 0x20
0000339E  7374                     moveq.l    D1, 0x74
000033A0  7269                     moveq.l    D1, 0x69
000033A2  6B65                     bmi        +0x67 /* 00003409 */
000033A4  2077 696C                movea.l    A0, <<invalid full ext with I/IS == 4>>
000033A8  6C20                     bge        +0x22 /* 000033CA */
fn000033AA:
000033AA  636F                     bls        +0x71 /* 0000341B */
000033AC  6E74                     bgt        +0x76 /* 00003422 */
000033AE  726F                     moveq.l    D1, 0x6F
000033B0  6C20                     bge        +0x22 /* 000033D2 */
000033B2  7468                     moveq.l    D2, 0x68
000033B4  6973                     bvs        +0x75 /* 00003429 */
000033B6  2066                     movea.l    A0, -[A6]
000033B8  756E                     moveq.l    D2, 0x6E
000033BA  6374                     bls        +0x76 /* 00003430 */
000033BC  696F                     bvs        +0x71 /* 0000342D */
000033BE  6E2E                     bgt        +0x30 /* 000033EE */
export_95:
fn000033C0:
000033C0  4E56 FFBC                link       A6, -0x0044
// begin alternate branch 000033C2-000033C4
label000033C2:
000033C2  FFBC                     .invalid   <<F/6/7>>
// end alternate branch 000033C2-000033C4
label000033C2: // (misaligned)
label000033C4:
000033C4  2F07                     move.l     -[A7], D7
000033C6  4EAD 018A                jsr        [A5 + 0x18A /* export_45, CODE:1 @ 00000A3A */]
// begin alternate branch 000033C8-000033CA
label000033C8:
000033C8  018A                     bclr       A2, D0
// end alternate branch 000033C8-000033CA
label000033C8: // (misaligned)
label000033CA:
000033CA  554F                     subq.w     A7, 2
000033CC  4EBA D158                jsr        [PC - 0x2EA8 /* 00000526 */]
000033D0  101F                     move.b     D0, [A7]+
label000033D2:
000033D2  5300                     subq.b     D0, 1
000033D4  6600 0260                bne        +0x262 /* 00003636 */
000033D8  3F3C 0020                move.w     -[A7], 0x20 /* ' ' */
label000033DC:
000033DC  486D BD74                pea.l      [A5 - 0x428C]
000033E0  486E FFC4                pea.l      [A6 - 0x3C]
000033E4  4EAD 005A                jsr        [A5 + 0x5A /* export_7, CODE:1 @ 00000274 */]
000033E8  486D F984                pea.l      [A5 - 0x67C]
000033EC  486E FFC4                pea.l      [A6 - 0x3C]
// begin alternate branch 000033EE-000033F0
label000033EE:
000033EE  FFC4                     .invalid   <<F/7/7>>
// end alternate branch 000033EE-000033F0
label000033EE: // (misaligned)
000033F0  4EAD 003A                jsr        [A5 + 0x3A /* export_3, CODE:1 @ 0000017A */]
000033F4  56C0                     sne        D0
000033F6  4A2E FFC4                tst.b      [A6 - 0x3C]
000033FA  56C1                     sne        D1
000033FC  C001                     and.b      D0, D1
000033FE  0CAE 036E 696C FFC4      cmpi.l     [A6 - 0x3C], 0x36E696C
00003406  56C1                     sne        D1
00003408  C001                     and.b      D0, D1
0000340A  6746                     beq        +0x48 /* 00003452 */
0000340C  3F3C 001F                move.w     -[A7], 0x1F
00003410  4EAD 019A                jsr        [A5 + 0x19A /* export_47, CODE:1 @ 00000BA6 */]
00003414  3F3C 0020                move.w     -[A7], 0x20 /* ' ' */
00003418  486E FFC4                pea.l      [A6 - 0x3C]
0000341C  486D F984                pea.l      [A5 - 0x67C]
00003420  4EAD 005A                jsr        [A5 + 0x5A /* export_7, CODE:1 @ 00000274 */]
// begin alternate branch 00003422-00003426
label00003422:
00003422  005A 554F                ori.w      [A2]+, 0x554F /* 'UO' */
// end alternate branch 00003422-00003426
label00003422: // (misaligned)
00003424  554F                     subq.w     A7, 2
00003426  4EBA CE10                jsr        [PC - 0x31F0 /* 00000238 */]
0000342A  101F                     move.b     D0, [A7]+
0000342C  5300                     subq.b     D0, 1
0000342E  670C                     beq        +0xE /* 0000343C */
label00003430:
00003430  3F3C 0017                move.w     -[A7], 0x17
00003434  4EAD 019A                jsr        [A5 + 0x19A /* export_47, CODE:1 @ 00000BA6 */]
00003438  6000 01FC                bra        +0x1FE /* 00003636 */
label0000343C:
0000343C  3F2D F876                move.w     -[A7], [A5 - 0x78A]
00003440  4EBA D09C                jsr        [PC - 0x2F64 /* 000004DE */]
00003444  422D BD74                clr.b      [A5 - 0x428C]
00003448  554F                     subq.w     A7, 2
0000344A  4EBA D7A6                jsr        [PC - 0x285A /* 00000BF2 */]
0000344E  101F                     move.b     D0, [A7]+
00003450  5300                     subq.b     D0, 1
label00003452:
00003452  3F3C 0020                move.w     -[A7], 0x20 /* ' ' */
00003456  486D F984                pea.l      [A5 - 0x67C]
0000345A  486D F940                pea.l      [A5 - 0x6C0]
0000345E  4EAD 005A                jsr        [A5 + 0x5A /* export_7, CODE:1 @ 00000274 */]
00003462  4EAD 01D2                jsr        [A5 + 0x1D2 /* export_54, CODE:1 @ 0000189E */]
00003466  0C6D 017E FF5A           cmpi.w     [A5 - 0xA6], 0x17E
0000346C  6F4C                     ble        +0x4E /* 000034BA */
0000346E  2F2D B560                move.l     -[A7], [A5 - 0x4AA0]
00003472  A873                     syscall    SetPort
00003474  A89E                     syscall    PenNormal
00003476  486D B570                pea.l      [A5 - 0x4A90]
0000347A  A87B                     syscall    ClipRect
0000347C  486E FFE6                pea.l      [A6 - 0x1A]
00003480  302D F846                move.w     D0, [A5 - 0x7BA]
00003484  4440                     neg.w      D0
00003486  3F00                     move.w     -[A7], D0
00003488  302D F848                move.w     D0, [A5 - 0x7B8]
0000348C  4440                     neg.w      D0
0000348E  3F00                     move.w     -[A7], D0
00003490  302D F846                move.w     D0, [A5 - 0x7BA]
00003494  D040                     add.w      D0, D0
00003496  0640 0200                addi.w     D0, 0x200
0000349A  3F00                     move.w     -[A7], D0
0000349C  302D F848                move.w     D0, [A5 - 0x7B8]
000034A0  4440                     neg.w      D0
000034A2  0640 0014                addi.w     D0, 0x14
000034A6  3F00                     move.w     -[A7], D0
000034A8  A8A7                     syscall    SetRect
000034AA  486E FFE6                pea.l      [A6 - 0x1A]
000034AE  486D FFBA                pea.l      [A5 - 0x46]
000034B2  A8A5                     syscall    FillRect
000034B4  486D B568                pea.l      [A5 - 0x4A98]
000034B8  A87B                     syscall    ClipRect
label000034BA:
000034BA  4A2D FE7A                tst.b      [A5 - 0x186]
000034BE  6708                     beq        +0xA /* 000034C8 */
000034C0  2F2D B7B2                move.l     -[A7], [A5 - 0x484E]
000034C4  A873                     syscall    SetPort
000034C6  6006                     bra        +0x8 /* 000034CE */
label000034C8:
000034C8  2F2D B5DE                move.l     -[A7], [A5 - 0x4A22]
000034CC  A873                     syscall    SetPort
label000034CE:
000034CE  422D F834                clr.b      [A5 - 0x7CC]
000034D2  3B7C 0014 F832           move.w     [A5 - 0x7CE], 0x14
000034D8  3B7C 0001 F868           move.w     [A5 - 0x798], 0x1
000034DE  3B7C 0001 F86A           move.w     [A5 - 0x796], 0x1
000034E4  42AD F81E                clr.l      [A5 - 0x7E2]
000034E8  42AD F822                clr.l      [A5 - 0x7DE]
000034EC  42AD F826                clr.l      [A5 - 0x7DA]
000034F0  486D F82E                pea.l      [A5 - 0x7D2]
000034F4  4EAD 0092                jsr        [A5 + 0x92 /* export_14, CODE:1 @ 000004FC */]
000034F8  426D F85C                clr.w      [A5 - 0x7A4]
000034FC  42AD F82A                clr.l      [A5 - 0x7D6]
00003500  426D F87C                clr.w      [A5 - 0x784]
00003504  3B7C 002E F87E           move.w     [A5 - 0x782], 0x2E /* '.' */
0000350A  7E01                     moveq.l    D7, 0x01
label0000350C:
0000350C  41ED F649                lea.l      A0, [A5 - 0x9B7]
00003510  4230 7000                clr.b      [A0 + D7.w]
00003514  5247                     addq.w     D7, 1
00003516  0C47 0028                cmpi.w     D7, 0x28 /* '(' */
0000351A  6FF0                     ble        -0xE /* 0000350C */
0000351C  4A2D FE91                tst.b      [A5 - 0x16F]
00003520  670E                     beq        +0x10 /* 00003530 */
00003522  3B7C 0032 F858           move.w     [A5 - 0x7A8], 0x32 /* '2' */
00003528  1B7C 0001 FE81           move.b     [A5 - 0x17F], 0x1
0000352E  600A                     bra        +0xC /* 0000353A */
label00003530:
00003530  3B7C 0005 F858           move.w     [A5 - 0x7A8], 0x5
00003536  422D FE81                clr.b      [A5 - 0x17F]
label0000353A:
0000353A  4247                     clr.w      D7
label0000353C:
0000353C  41ED FE8E                lea.l      A0, [A5 - 0x172]
00003540  4230 7000                clr.b      [A0 + D7.w]
00003544  5247                     addq.w     D7, 1
00003546  0C47 0003                cmpi.w     D7, 0x3
0000354A  6FF0                     ble        -0xE /* 0000353C */
0000354C  1B7C 0001 FE6A           move.b     [A5 - 0x196], 0x1
00003552  1B7C 0001 F648           move.b     [A5 - 0x9B8], 0x1
00003558  426D F644                clr.w      [A5 - 0x9BC]
0000355C  3B7C 0004 F640           move.w     [A5 - 0x9C0], 0x4
00003562  426D F646                clr.w      [A5 - 0x9BA]
00003566  3B7C 0001 F63A           move.w     [A5 - 0x9C6], 0x1
0000356C  4EAD 024A                jsr        [A5 + 0x24A /* export_69, CODE:2 @ 00002B56 */]
00003570  1B7C 0001 FE7D           move.b     [A5 - 0x183], 0x1
00003576  422D FE7E                clr.b      [A5 - 0x182]
0000357A  422D FE6D                clr.b      [A5 - 0x193]
0000357E  422D FE67                clr.b      [A5 - 0x199]
00003582  422D FE6E                clr.b      [A5 - 0x192]
00003586  422D FE82                clr.b      [A5 - 0x17E]
0000358A  422D F5FC                clr.b      [A5 - 0xA04]
0000358E  554F                     subq.w     A7, 2
00003590  4EAD 025A                jsr        [A5 + 0x25A /* export_71, CODE:2 @ 000042C6 */]
00003594  101F                     move.b     D0, [A7]+
00003596  5300                     subq.b     D0, 1
00003598  6600 009C                bne        +0x9E /* 00003636 */
0000359C  422D F8FC                clr.b      [A5 - 0x704]
000035A0  594F                     subq.w     A7, 4
000035A2  3F3C 0081                move.w     -[A7], 0x81
000035A6  A9BF                     syscall    GetRMenu
000035A8  3F3C 0002                move.w     -[A7], 0x2
000035AC  A93A                     syscall    DisableItem
000035AE  594F                     subq.w     A7, 4
000035B0  3F3C 0081                move.w     -[A7], 0x81
000035B4  A9BF                     syscall    GetRMenu
000035B6  3F3C 0003                move.w     -[A7], 0x3
000035BA  A939                     syscall    EnableItem
000035BC  594F                     subq.w     A7, 4
000035BE  3F3C 0081                move.w     -[A7], 0x81
000035C2  A9BF                     syscall    GetRMenu
000035C4  3F3C 0005                move.w     -[A7], 0x5
000035C8  A93A                     syscall    DisableItem
000035CA  594F                     subq.w     A7, 4
000035CC  3F3C 0081                move.w     -[A7], 0x81
000035D0  A9BF                     syscall    GetRMenu
000035D2  3F3C 0006                move.w     -[A7], 0x6
000035D6  A939                     syscall    EnableItem
000035D8  594F                     subq.w     A7, 4
000035DA  3F3C 0081                move.w     -[A7], 0x81
000035DE  A9BF                     syscall    GetRMenu
000035E0  3F3C 0007                move.w     -[A7], 0x7
000035E4  A939                     syscall    EnableItem
000035E6  594F                     subq.w     A7, 4
000035E8  3F3C 0082                move.w     -[A7], 0x82
000035EC  A9BF                     syscall    GetRMenu
000035EE  3F3C 0006                move.w     -[A7], 0x6
000035F2  A93A                     syscall    DisableItem
000035F4  2F2D B560                move.l     -[A7], [A5 - 0x4AA0]
000035F8  A873                     syscall    SetPort
000035FA  A89E                     syscall    PenNormal
000035FC  4267                     clr.w      -[A7]
000035FE  A887                     syscall    TextFont
00003600  3F3C 000C                move.w     -[A7], 0xC
00003604  A88A                     syscall    TextSize
00003606  3F3C 0009                move.w     -[A7], 0x9 /* '\t' */
0000360A  A889                     syscall    TextMode
0000360C  4A2D FE7A                tst.b      [A5 - 0x186]
00003610  6708                     beq        +0xA /* 0000361A */
00003612  2F2D B7B2                move.l     -[A7], [A5 - 0x484E]
00003616  A873                     syscall    SetPort
00003618  6006                     bra        +0x8 /* 00003620 */
label0000361A:
0000361A  2F2D B5DE                move.l     -[A7], [A5 - 0x4A22]
0000361E  A873                     syscall    SetPort
label00003620:
00003620  206D B814                movea.l    A0, [A5 - 0x47EC]
00003624  2F10                     move.l     -[A7], [A0]
00003626  A851                     syscall    SetCursor
00003628  4EAD 01C2                jsr        [A5 + 0x1C2 /* export_52, CODE:1 @ 00001018 */]
0000362C  3F3C FFFF                move.w     -[A7], 0xFFFF
00003630  4267                     clr.w      -[A7]
00003632  201F                     move.l     D0, [A7]+
00003634  A032                     syscall    FlushEvents
label00003636:
00003636  2E1F                     move.l     D7, [A7]+
00003638  4E5E                     unlink     A6
0000363A  4E75                     rts
fn0000363C:
0000363C  4E56 FFEE                link       A6, -0x0012
00003640  554F                     subq.w     A7, 2
00003642  4267                     clr.w      -[A7]
00003644  4EBA CDD2                jsr        [PC - 0x322E /* 00000418 */]
00003648  4A1F                     tst.b      [A7]+
0000364A  671A                     beq        +0x1C /* 00003666 */
0000364C  554F                     subq.w     A7, 2
0000364E  3F3C 000B                move.w     -[A7], 0xB
00003652  4EAD 01AA                jsr        [A5 + 0x1AA /* export_49, CODE:1 @ 00000F4A */]
00003656  301F                     move.w     D0, [A7]+
00003658  5240                     addq.w     D0, 1
0000365A  3B40 F850                move.w     [A5 - 0x7B0], D0
0000365E  4EAD 01D2                jsr        [A5 + 0x1D2 /* export_54, CODE:1 @ 0000189E */]
00003662  4EBA FD5C                jsr        [PC - 0x2A4 /* 000033C0 */]
label00003666:
00003666  4E5E                     unlink     A6
00003668  4E75                     rts
fn0000366A:
0000366A  594F                     subq.w     A7, 4
0000366C  3F3C 0081                move.w     -[A7], 0x81
00003670  A9BF                     syscall    GetRMenu
00003672  3F3C 0001                move.w     -[A7], 0x1
00003676  487A 000C                pea.l      [PC + 0xC /* 00003684, value 0xB426567 */]
0000367A  A947                     syscall    SetMenuItemText/SetItem
0000367C  4EAD 027A                jsr        [A5 + 0x27A /* export_75, CODE:2 @ 000056D6 */]
00003680  A937                     syscall    DrawMenuBar
00003682  4E75                     rts
00003684  0B42                     bchg       D2, D5
00003686  6567                     bcs        +0x69 /* 000036EF */
00003688  696E                     bvs        +0x70 /* 000036F8 */
0000368A  2047                     movea.l    A0, D7
0000368C  616D                     bsr        +0x6F /* 000036FB */
0000368E  65C9                     bcs        -0x35 /* 00003659 */
export_96:
fn00003690:
00003690  4E56 FFE0                link       A6, -0x0020
00003694  422E 0008                clr.b      [A6 + 0x8]
00003698  554F                     subq.w     A7, 2
0000369A  4EBA CED0                jsr        [PC - 0x3130 /* 0000056C */]
0000369E  101F                     move.b     D0, [A7]+
000036A0  5300                     subq.b     D0, 1
000036A2  6600 0168                bne        +0x16A /* 0000380C */
000036A6  4EAD 018A                jsr        [A5 + 0x18A /* export_45, CODE:1 @ 00000A3A */]
000036AA  554F                     subq.w     A7, 2
000036AC  3F3C 000B                move.w     -[A7], 0xB
000036B0  4EAD 01AA                jsr        [A5 + 0x1AA /* export_49, CODE:1 @ 00000F4A */]
000036B4  301F                     move.w     D0, [A7]+
000036B6  5240                     addq.w     D0, 1
000036B8  3B40 F850                move.w     [A5 - 0x7B0], D0
000036BC  4EAD 01D2                jsr        [A5 + 0x1D2 /* export_54, CODE:1 @ 0000189E */]
000036C0  0C6D 017E FF5A           cmpi.w     [A5 - 0xA6], 0x17E
000036C6  6F4C                     ble        +0x4E /* 00003714 */
000036C8  2F2D B560                move.l     -[A7], [A5 - 0x4AA0]
000036CC  A873                     syscall    SetPort
000036CE  A89E                     syscall    PenNormal
000036D0  486D B570                pea.l      [A5 - 0x4A90]
000036D4  A87B                     syscall    ClipRect
000036D6  486E FFE8                pea.l      [A6 - 0x18]
000036DA  302D F846                move.w     D0, [A5 - 0x7BA]
000036DE  4440                     neg.w      D0
000036E0  3F00                     move.w     -[A7], D0
000036E2  302D F848                move.w     D0, [A5 - 0x7B8]
000036E6  4440                     neg.w      D0
000036E8  3F00                     move.w     -[A7], D0
000036EA  302D F846                move.w     D0, [A5 - 0x7BA]
000036EE  D040                     add.w      D0, D0
000036F0  0640 0200                addi.w     D0, 0x200
000036F4  3F00                     move.w     -[A7], D0
000036F6  302D F848                move.w     D0, [A5 - 0x7B8]
// begin alternate branch 000036F8-000036FC
label000036F8:
000036F8  F848 4440                .extension 0x848 <<F/1/4>>, 0x4440 // unimplemented
// end alternate branch 000036F8-000036FC
label000036F8: // (misaligned)
000036FA  4440                     neg.w      D0
000036FC  0640 0014                addi.w     D0, 0x14
00003700  3F00                     move.w     -[A7], D0
00003702  A8A7                     syscall    SetRect
00003704  486E FFE8                pea.l      [A6 - 0x18]
00003708  486D FFBA                pea.l      [A5 - 0x46]
0000370C  A8A5                     syscall    FillRect
0000370E  486D B568                pea.l      [A5 - 0x4A98]
00003712  A87B                     syscall    ClipRect
label00003714:
00003714  4A2D FE7A                tst.b      [A5 - 0x186]
00003718  6708                     beq        +0xA /* 00003722 */
0000371A  2F2D B7B2                move.l     -[A7], [A5 - 0x484E]
0000371E  A873                     syscall    SetPort
00003720  6006                     bra        +0x8 /* 00003728 */
label00003722:
00003722  2F2D B5DE                move.l     -[A7], [A5 - 0x4A22]
00003726  A873                     syscall    SetPort
label00003728:
00003728  4EAD 024A                jsr        [A5 + 0x24A /* export_69, CODE:2 @ 00002B56 */]
0000372C  1B7C 0001 FE7D           move.b     [A5 - 0x183], 0x1
00003732  422D FE7E                clr.b      [A5 - 0x182]
00003736  422D FE6D                clr.b      [A5 - 0x193]
0000373A  422D FE67                clr.b      [A5 - 0x199]
0000373E  422D FE6E                clr.b      [A5 - 0x192]
00003742  422D FE82                clr.b      [A5 - 0x17E]
00003746  1B7C 0001 FE81           move.b     [A5 - 0x17F], 0x1
0000374C  422D F5FC                clr.b      [A5 - 0xA04]
00003750  426D F85C                clr.w      [A5 - 0x7A4]
00003754  42AD F82A                clr.l      [A5 - 0x7D6]
00003758  426D F87C                clr.w      [A5 - 0x784]
0000375C  3B7C 002E F87E           move.w     [A5 - 0x782], 0x2E /* '.' */
00003762  554F                     subq.w     A7, 2
00003764  4EAD 025A                jsr        [A5 + 0x25A /* export_71, CODE:2 @ 000042C6 */]
00003768  101F                     move.b     D0, [A7]+
0000376A  5300                     subq.b     D0, 1
0000376C  6600 009E                bne        +0xA0 /* 0000380C */
00003770  594F                     subq.w     A7, 4
00003772  3F3C 0081                move.w     -[A7], 0x81
00003776  A9BF                     syscall    GetRMenu
00003778  3F3C 0002                move.w     -[A7], 0x2
0000377C  A93A                     syscall    DisableItem
0000377E  594F                     subq.w     A7, 4
00003780  3F3C 0081                move.w     -[A7], 0x81
00003784  A9BF                     syscall    GetRMenu
00003786  3F3C 0003                move.w     -[A7], 0x3
0000378A  A939                     syscall    EnableItem
0000378C  594F                     subq.w     A7, 4
0000378E  3F3C 0081                move.w     -[A7], 0x81
00003792  A9BF                     syscall    GetRMenu
00003794  3F3C 0005                move.w     -[A7], 0x5
00003798  A93A                     syscall    DisableItem
0000379A  594F                     subq.w     A7, 4
0000379C  3F3C 0081                move.w     -[A7], 0x81
000037A0  A9BF                     syscall    GetRMenu
000037A2  3F3C 0006                move.w     -[A7], 0x6
000037A6  A939                     syscall    EnableItem
000037A8  594F                     subq.w     A7, 4
000037AA  3F3C 0081                move.w     -[A7], 0x81
000037AE  A9BF                     syscall    GetRMenu
000037B0  3F3C 0007                move.w     -[A7], 0x7
000037B4  A939                     syscall    EnableItem
000037B6  594F                     subq.w     A7, 4
000037B8  3F3C 0082                move.w     -[A7], 0x82
000037BC  A9BF                     syscall    GetRMenu
000037BE  3F3C 0006                move.w     -[A7], 0x6
000037C2  A93A                     syscall    DisableItem
000037C4  2F2D B560                move.l     -[A7], [A5 - 0x4AA0]
000037C8  A873                     syscall    SetPort
000037CA  A89E                     syscall    PenNormal
000037CC  4267                     clr.w      -[A7]
000037CE  A887                     syscall    TextFont
000037D0  3F3C 000C                move.w     -[A7], 0xC
000037D4  A88A                     syscall    TextSize
000037D6  3F3C 0009                move.w     -[A7], 0x9 /* '\t' */
000037DA  A889                     syscall    TextMode
000037DC  4A2D FE7A                tst.b      [A5 - 0x186]
000037E0  6708                     beq        +0xA /* 000037EA */
000037E2  2F2D B7B2                move.l     -[A7], [A5 - 0x484E]
000037E6  A873                     syscall    SetPort
000037E8  6006                     bra        +0x8 /* 000037F0 */
label000037EA:
000037EA  2F2D B5DE                move.l     -[A7], [A5 - 0x4A22]
000037EE  A873                     syscall    SetPort
label000037F0:
000037F0  206D B814                movea.l    A0, [A5 - 0x47EC]
000037F4  2F10                     move.l     -[A7], [A0]
000037F6  A851                     syscall    SetCursor
000037F8  4EAD 01C2                jsr        [A5 + 0x1C2 /* export_52, CODE:1 @ 00001018 */]
000037FC  3F3C FFFF                move.w     -[A7], 0xFFFF
00003800  4267                     clr.w      -[A7]
00003802  201F                     move.l     D0, [A7]+
00003804  A032                     syscall    FlushEvents
00003806  1D7C 0001 0008           move.b     [A6 + 0x8], 0x1
label0000380C:
0000380C  4E5E                     unlink     A6
0000380E  4E75                     rts
fn00003810:
00003810  4E56 FFE0                link       A6, -0x0020
00003814  4EAD 018A                jsr        [A5 + 0x18A /* export_45, CODE:1 @ 00000A3A */]
00003818  4EAD 01D2                jsr        [A5 + 0x1D2 /* export_54, CODE:1 @ 0000189E */]
0000381C  594F                     subq.w     A7, 4
0000381E  3F3C 0081                move.w     -[A7], 0x81
00003822  A9BF                     syscall    GetRMenu
00003824  3F3C 0001                move.w     -[A7], 0x1
00003828  487A 00D8                pea.l      [PC + 0xD8 /* 00003902, value 0xB426567 */]
0000382C  A947                     syscall    SetMenuItemText/SetItem
0000382E  206D B814                movea.l    A0, [A5 - 0x47EC]
00003832  2F10                     move.l     -[A7], [A0]
00003834  A851                     syscall    SetCursor
00003836  422D FE7E                clr.b      [A5 - 0x182]
0000383A  0C6D 017E FF5A           cmpi.w     [A5 - 0xA6], 0x17E
00003840  6C5C                     bge        +0x5E /* 0000389E */
00003842  2F2D B560                move.l     -[A7], [A5 - 0x4AA0]
00003846  A873                     syscall    SetPort
00003848  486E FFE8                pea.l      [A6 - 0x18]
0000384C  4267                     clr.w      -[A7]
0000384E  4267                     clr.w      -[A7]
00003850  3F3C 0200                move.w     -[A7], 0x200
00003854  3F3C 0014                move.w     -[A7], 0x14
00003858  A8A7                     syscall    SetRect
0000385A  4A2D FE7A                tst.b      [A5 - 0x186]
0000385E  6722                     beq        +0x24 /* 00003882 */
00003860  206D B7B2                movea.l    A0, [A5 - 0x484E]
00003864  2068 0002                movea.l    A0, [A0 + 0x2]
00003868  2F10                     move.l     -[A7], [A0]
0000386A  206D B560                movea.l    A0, [A5 - 0x4AA0]
0000386E  4868 0002                pea.l      [A0 + 0x2]
00003872  486E FFE8                pea.l      [A6 - 0x18]
00003876  486E FFE8                pea.l      [A6 - 0x18]
0000387A  4267                     clr.w      -[A7]
0000387C  42A7                     clr.l      -[A7]
0000387E  A8EC                     syscall    CopyBits
00003880  6068                     bra        +0x6A /* 000038EA */
label00003882:
00003882  486D B5A2                pea.l      [A5 - 0x4A5E]
00003886  206D B560                movea.l    A0, [A5 - 0x4AA0]
0000388A  4868 0002                pea.l      [A0 + 0x2]
0000388E  486E FFE8                pea.l      [A6 - 0x18]
00003892  486E FFE8                pea.l      [A6 - 0x18]
00003896  4267                     clr.w      -[A7]
00003898  42A7                     clr.l      -[A7]
0000389A  A8EC                     syscall    CopyBits
0000389C  604C                     bra        +0x4E /* 000038EA */
label0000389E:
0000389E  2F2D B560                move.l     -[A7], [A5 - 0x4AA0]
000038A2  A873                     syscall    SetPort
000038A4  A89E                     syscall    PenNormal
000038A6  486D B570                pea.l      [A5 - 0x4A90]
000038AA  A87B                     syscall    ClipRect
000038AC  486E FFE8                pea.l      [A6 - 0x18]
000038B0  302D F846                move.w     D0, [A5 - 0x7BA]
000038B4  4440                     neg.w      D0
000038B6  3F00                     move.w     -[A7], D0
000038B8  302D F848                move.w     D0, [A5 - 0x7B8]
000038BC  4440                     neg.w      D0
000038BE  3F00                     move.w     -[A7], D0
000038C0  302D F846                move.w     D0, [A5 - 0x7BA]
000038C4  D040                     add.w      D0, D0
000038C6  0640 0200                addi.w     D0, 0x200
000038CA  3F00                     move.w     -[A7], D0
000038CC  302D F848                move.w     D0, [A5 - 0x7B8]
000038D0  4440                     neg.w      D0
000038D2  0640 0014                addi.w     D0, 0x14
000038D6  3F00                     move.w     -[A7], D0
000038D8  A8A7                     syscall    SetRect
000038DA  486E FFE8                pea.l      [A6 - 0x18]
000038DE  486D FFBA                pea.l      [A5 - 0x46]
000038E2  A8A5                     syscall    FillRect
000038E4  486D B568                pea.l      [A5 - 0x4A98]
000038E8  A87B                     syscall    ClipRect
label000038EA:
000038EA  4A2D FE7A                tst.b      [A5 - 0x186]
000038EE  6708                     beq        +0xA /* 000038F8 */
000038F0  2F2D B7B2                move.l     -[A7], [A5 - 0x484E]
000038F4  A873                     syscall    SetPort
000038F6  6006                     bra        +0x8 /* 000038FE */
label000038F8:
000038F8  2F2D B5DE                move.l     -[A7], [A5 - 0x4A22]
000038FC  A873                     syscall    SetPort
label000038FE:
000038FE  4E5E                     unlink     A6
00003900  4E75                     rts
00003902  0B42                     bchg       D2, D5
00003904  6567                     bcs        +0x69 /* 0000396D */
00003906  696E                     bvs        +0x70 /* 00003976 */
00003908  2047                     movea.l    A0, D7
0000390A  616D                     bsr        +0x6F /* 00003979 */
0000390C  65C9                     bcs        -0x35 /* 000038D7 */
fn0000390E:
0000390E  4E56 FEDC                link       A6, -0x0124
00003912  48E7 0700                movem.l    -[A7], D5,D6,D7
00003916  3E2E 0008                move.w     D7, [A6 + 0x8]
0000391A  302E 000A                move.w     D0, [A6 + 0xA]
0000391E  6000 024E                bra        +0x250 /* 00003B6E */
label00003922:
00003922  3007                     move.w     D0, D7
00003924  600C                     bra        +0xE /* 00003932 */
00003926  6000 0264                bra        +0x266 /* 00003B8C */
label0000392A:
0000392A  4EBA E50C                jsr        [PC - 0x1AF4 /* 00001E38 */]
0000392E  6000 025C                bra        +0x25E /* 00003B8C */
label00003932:
00003932  6700 0258                beq        +0x25A /* 00003B8C */
00003936  5340                     subq.w     D0, 1
00003938  67F0                     beq        -0xE /* 0000392A */
0000393A  486E FEE4                pea.l      [A6 - 0x11C]
0000393E  A874                     syscall    GetPort
00003940  594F                     subq.w     A7, 4
00003942  3F3C 0080                move.w     -[A7], 0x80
00003946  A9BF                     syscall    GetRMenu
00003948  3F07                     move.w     -[A7], D7
0000394A  486E FEE8                pea.l      [A6 - 0x118]
0000394E  A946                     syscall    GetMenuItemText/GetItem
00003950  554F                     subq.w     A7, 2
00003952  486E FEE8                pea.l      [A6 - 0x118]
00003956  A9B6                     syscall    OpenDeskAcc
00003958  3A1F                     move.w     D5, [A7]+
0000395A  2F2E FEE4                move.l     -[A7], [A6 - 0x11C]
0000395E  A873                     syscall    SetPort
00003960  6000 022A                bra        +0x22C /* 00003B8C */
label00003964:
00003964  3007                     move.w     D0, D7
00003966  6000 00BE                bra        +0xC0 /* 00003A26 */
0000396A  554F                     subq.w     A7, 2
0000396C  3F3C 000B                move.w     -[A7], 0xB
00003970  4EAD 01AA                jsr        [A5 + 0x1AA /* export_49, CODE:1 @ 00000F4A */]
00003974  301F                     move.w     D0, [A7]+
label00003976:
00003976  5240                     addq.w     D0, 1
00003978  3B40 F850                move.w     [A5 - 0x7B0], D0
0000397C  102D FE7E                move.b     D0, [A5 - 0x182]
00003980  C02D FE7D                and.b      D0, [A5 - 0x183]
00003984  6708                     beq        +0xA /* 0000398E */
00003986  4EBA FE88                jsr        [PC - 0x178 /* 00003810 */]
0000398A  6000 0200                bra        +0x202 /* 00003B8C */
label0000398E:
0000398E  4EBA FA30                jsr        [PC - 0x5D0 /* 000033C0 */]
00003992  6000 01F8                bra        +0x1FA /* 00003B8C */
00003996  4EBA FCA4                jsr        [PC - 0x35C /* 0000363C */]
0000399A  6000 01F0                bra        +0x1F2 /* 00003B8C */
0000399E  4EBA FCCA                jsr        [PC - 0x336 /* 0000366A */]
000039A2  6000 01E8                bra        +0x1EA /* 00003B8C */
000039A6  554F                     subq.w     A7, 2
000039A8  3F3C 0002                move.w     -[A7], 0x2
000039AC  4EBA CA6A                jsr        [PC - 0x3596 /* 00000418 */]
000039B0  4A1F                     tst.b      [A7]+
000039B2  6700 01D8                beq        +0x1DA /* 00003B8C */
000039B6  554F                     subq.w     A7, 2
000039B8  4EBA FCD6                jsr        [PC - 0x32A /* 00003690 */]
000039BC  101F                     move.b     D0, [A7]+
000039BE  5300                     subq.b     D0, 1
000039C0  6700 01CA                beq        +0x1CC /* 00003B8C */
000039C4  6000 01C6                bra        +0x1C8 /* 00003B8C */
000039C8  554F                     subq.w     A7, 2
000039CA  4EBA D1C2                jsr        [PC - 0x2E3E /* 00000B8E */]
000039CE  101F                     move.b     D0, [A7]+
000039D0  5300                     subq.b     D0, 1
000039D2  6700 01B8                beq        +0x1BA /* 00003B8C */
000039D6  6000 01B4                bra        +0x1B6 /* 00003B8C */
000039DA  554F                     subq.w     A7, 2
000039DC  4EBA D06E                jsr        [PC - 0x2F92 /* 00000A4C */]
000039E0  101F                     move.b     D0, [A7]+
000039E2  5300                     subq.b     D0, 1
000039E4  6700 01A6                beq        +0x1A8 /* 00003B8C */
000039E8  6000 01A2                bra        +0x1A4 /* 00003B8C */
000039EC  554F                     subq.w     A7, 2
000039EE  4EAD 026A                jsr        [A5 + 0x26A /* export_73, CODE:2 @ 00004A02 */]
000039F2  4A1F                     tst.b      [A7]+
000039F4  6712                     beq        +0x14 /* 00003A08 */
000039F6  422D FE7D                clr.b      [A5 - 0x183]
000039FA  422D FE7E                clr.b      [A5 - 0x182]
000039FE  1B7C 0001 FE79           move.b     [A5 - 0x187], 0x1
00003A04  6000 0186                bra        +0x188 /* 00003B8C */
label00003A08:
00003A08  554F                     subq.w     A7, 2
00003A0A  4EBA D182                jsr        [PC - 0x2E7E /* 00000B8E */]
00003A0E  4A1F                     tst.b      [A7]+
00003A10  6700 017A                beq        +0x17C /* 00003B8C */
00003A14  422D FE7D                clr.b      [A5 - 0x183]
00003A18  422D FE7E                clr.b      [A5 - 0x182]
00003A1C  1B7C 0001 FE79           move.b     [A5 - 0x187], 0x1
00003A22  6000 0168                bra        +0x16A /* 00003B8C */
label00003A26:
00003A26  5340                     subq.w     D0, 1
00003A28  0C40 0009                cmpi.w     D0, 0x9 /* '\t' */
00003A2C  641C                     bcc        +0x1E /* 00003A4A */
00003A2E  D040                     add.w      D0, D0
00003A30  303B 0006                move.w     D0, [PC + D0.w + 0x6]
00003A34  4EFB 0002                jmp        [PC + D0.w + 0x2]
00003A38  FF32                     .extension 0xF32 <<F/4-5/7>> // unimplemented
00003A3A  FF5E                     .extension 0xF5E <<F/4-5/7>> // unimplemented
00003A3C  FF66                     .extension 0xF66 <<F/4-5/7>> // unimplemented
00003A3E  0012 FF6E                ori.b      [A2], 0x6E /* 'n' */
00003A42  FF90                     .invalid   <<F/6/7>>
00003A44  FFA2                     .invalid   <<F/6/7>>
00003A46  0012 FFB4                ori.b      [A2], 0xB4
label00003A4A:
00003A4A  6000 0140                bra        +0x142 /* 00003B8C */
label00003A4E:
00003A4E  3007                     move.w     D0, D7
00003A50  6000 00A8                bra        +0xAA /* 00003AFA */
00003A54  6000 0136                bra        +0x138 /* 00003B8C */
label00003A58:
00003A58  4EBA E630                jsr        [PC - 0x19D0 /* 0000208A */]
00003A5C  6000 012E                bra        +0x130 /* 00003B8C */
label00003A60:
00003A60  102D FE6C                move.b     D0, [A5 - 0x194]
00003A64  5300                     subq.b     D0, 1
00003A66  4400                     neg.b      D0
00003A68  1B40 FE6C                move.b     [A5 - 0x194], D0
00003A6C  4A2D FE6C                tst.b      [A5 - 0x194]
00003A70  6714                     beq        +0x16 /* 00003A86 */
00003A72  594F                     subq.w     A7, 4
00003A74  3F3C 0082                move.w     -[A7], 0x82
00003A78  A9BF                     syscall    GetRMenu
00003A7A  3F3C 0003                move.w     -[A7], 0x3
00003A7E  487A 0156                pea.l      [PC + 0x156 /* 00003BD6, value 0xE416972, pstring "Air is Visible" */]
00003A82  A947                     syscall    SetMenuItemText/SetItem
00003A84  6012                     bra        +0x14 /* 00003A98 */
label00003A86:
00003A86  594F                     subq.w     A7, 4
00003A88  3F3C 0082                move.w     -[A7], 0x82
00003A8C  A9BF                     syscall    GetRMenu
00003A8E  3F3C 0003                move.w     -[A7], 0x3
00003A92  487A 0130                pea.l      [PC + 0x130 /* 00003BC4, value 0x10416972, pstring "Air is Invisible" */]
00003A96  A947                     syscall    SetMenuItemText/SetItem
label00003A98:
00003A98  4A2D FE7D                tst.b      [A5 - 0x183]
00003A9C  6700 00EE                beq        +0xF0 /* 00003B8C */
00003AA0  3F3C 000B                move.w     -[A7], 0xB
00003AA4  4EAD 019A                jsr        [A5 + 0x19A /* export_47, CODE:1 @ 00000BA6 */]
00003AA8  6000 00E2                bra        +0xE4 /* 00003B8C */
label00003AAC:
00003AAC  102D FE80                move.b     D0, [A5 - 0x180]
00003AB0  5300                     subq.b     D0, 1
00003AB2  4400                     neg.b      D0
00003AB4  1B40 FE80                move.b     [A5 - 0x180], D0
00003AB8  4A2D FE80                tst.b      [A5 - 0x180]
00003ABC  6716                     beq        +0x18 /* 00003AD4 */
00003ABE  594F                     subq.w     A7, 4
00003AC0  3F3C 0082                move.w     -[A7], 0x82
00003AC4  A9BF                     syscall    GetRMenu
00003AC6  3F3C 0004                move.w     -[A7], 0x4
00003ACA  487A 00E4                pea.l      [PC + 0xE4 /* 00003BB0, value 0x13446570, pstring "Depth Restore is On" */]
00003ACE  A947                     syscall    SetMenuItemText/SetItem
00003AD0  6000 00BA                bra        +0xBC /* 00003B8C */
label00003AD4:
00003AD4  594F                     subq.w     A7, 4
00003AD6  3F3C 0082                move.w     -[A7], 0x82
00003ADA  A9BF                     syscall    GetRMenu
00003ADC  3F3C 0004                move.w     -[A7], 0x4
00003AE0  487A 00B8                pea.l      [PC + 0xB8 /* 00003B9A, value 0x14446570, pstring "Depth Restore is Off" */]
00003AE4  A947                     syscall    SetMenuItemText/SetItem
00003AE6  6000 00A4                bra        +0xA6 /* 00003B8C */
label00003AEA:
00003AEA  4EAD 01CA                jsr        [A5 + 0x1CA /* export_53, CODE:1 @ 0000114E */]
00003AEE  6000 009C                bra        +0x9E /* 00003B8C */
label00003AF2:
00003AF2  4EBA DAF2                jsr        [PC - 0x250E /* 000015E6 */]
00003AF6  6000 0094                bra        +0x96 /* 00003B8C */
label00003AFA:
00003AFA  5340                     subq.w     D0, 1
00003AFC  6700 008E                beq        +0x90 /* 00003B8C */
00003B00  5340                     subq.w     D0, 1
00003B02  6700 FF54                beq        -0xAA /* 00003A58 */
00003B06  5340                     subq.w     D0, 1
00003B08  6700 FF56                beq        -0xA8 /* 00003A60 */
00003B0C  5340                     subq.w     D0, 1
00003B0E  679C                     beq        -0x62 /* 00003AAC */
00003B10  5540                     subq.w     D0, 2
00003B12  67D6                     beq        -0x28 /* 00003AEA */
00003B14  5540                     subq.w     D0, 2
00003B16  67DA                     beq        -0x24 /* 00003AF2 */
00003B18  6000 0072                bra        +0x74 /* 00003B8C */
label00003B1C:
00003B1C  3007                     move.w     D0, D7
00003B1E  6034                     bra        +0x36 /* 00003B54 */
label00003B20:
00003B20  7C01                     moveq.l    D6, 0x01
label00003B22:
00003B22  594F                     subq.w     A7, 4
00003B24  3F3C 0083                move.w     -[A7], 0x83
00003B28  A9BF                     syscall    GetRMenu
00003B2A  3F06                     move.w     -[A7], D6
00003B2C  4227                     clr.b      -[A7]
00003B2E  A945                     syscall    CheckItem
00003B30  5246                     addq.w     D6, 1
00003B32  0C46 0004                cmpi.w     D6, 0x4
00003B36  6FEA                     ble        -0x14 /* 00003B22 */
00003B38  594F                     subq.w     A7, 4
00003B3A  3F3C 0083                move.w     -[A7], 0x83
00003B3E  A9BF                     syscall    GetRMenu
00003B40  3F07                     move.w     -[A7], D7
00003B42  1F3C 0001                move.b     -[A7], 0x1
00003B46  A945                     syscall    CheckItem
00003B48  3B47 F84E                move.w     [A5 - 0x7B2], D7
00003B4C  603E                     bra        +0x40 /* 00003B8C */
label00003B4E:
00003B4E  4EBA EF2E                jsr        [PC - 0x10D2 /* 00002A7E */]
00003B52  6038                     bra        +0x3A /* 00003B8C */
label00003B54:
00003B54  5340                     subq.w     D0, 1
00003B56  6B34                     bmi        +0x36 /* 00003B8C */
00003B58  5740                     subq.w     D0, 3
00003B5A  6FC4                     ble        -0x3A /* 00003B20 */
00003B5C  5540                     subq.w     D0, 2
00003B5E  67EE                     beq        -0x10 /* 00003B4E */
00003B60  602A                     bra        +0x2C /* 00003B8C */
label00003B62:
00003B62  BE6D F886                cmp.w      D7, [A5 - 0x77A]
00003B66  6624                     bne        +0x26 /* 00003B8C */
00003B68  4EBA DA7C                jsr        [PC - 0x2584 /* 000015E6 */]
00003B6C  601E                     bra        +0x20 /* 00003B8C */
label00003B6E:
00003B6E  0640 406A                addi.w     D0, 0x406A /* '@j' */
00003B72  67EE                     beq        -0x10 /* 00003B62 */
00003B74  0640 BF16                addi.w     D0, 0xBF16
00003B78  6700 FDA8                beq        -0x256 /* 00003922 */
00003B7C  5340                     subq.w     D0, 1
00003B7E  6700 FDE4                beq        -0x21A /* 00003964 */
00003B82  5340                     subq.w     D0, 1
00003B84  6700 FEC8                beq        -0x136 /* 00003A4E */
00003B88  5340                     subq.w     D0, 1
00003B8A  6790                     beq        -0x6E /* 00003B1C */
label00003B8C:
00003B8C  4267                     clr.w      -[A7]
00003B8E  A938                     syscall    HiliteMenu
00003B90  4CDF 00E0                movem.l    D5,D6,D7, [A7]+
00003B94  4E5E                     unlink     A6
00003B96  2E9F                     move.l     [A7], [A7]+
00003B98  4E75                     rts
00003B9A  1444                     movea.b    A2, D4
00003B9C  6570                     bcs        +0x72 /* 00003C0E */
00003B9E  7468                     moveq.l    D2, 0x68
00003BA0  2052                     movea.l    A0, [A2]
00003BA2  6573                     bcs        +0x75 /* 00003C17 */
00003BA4  746F                     moveq.l    D2, 0x6F
00003BA6  7265                     moveq.l    D1, 0x65
00003BA8  2069 7320                movea.l    A0, [A1 + 0x7320]
00003BAC  4F66                     chk.w      D7, -[A6]
00003BAE  6616                     bne        +0x18 /* 00003BC6 */
00003BB0  1344 6570                move.b     [A1 + 0x6570], D4
00003BB4  7468                     moveq.l    D2, 0x68
00003BB6  2052                     movea.l    A0, [A2]
00003BB8  6573                     bcs        +0x75 /* 00003C2D */
00003BBA  746F                     moveq.l    D2, 0x6F
00003BBC  7265                     moveq.l    D1, 0x65
00003BBE  2069 7320                movea.l    A0, [A1 + 0x7320]
00003BC2  4F6E 1041                chk.w      D7, [A6 + 0x1041]
label00003BC6:
00003BC6  6972                     bvs        +0x74 /* 00003C3A */
00003BC8  2069 7320                movea.l    A0, [A1 + 0x7320]
00003BCC  496E 7669                chk.w      D4, [A6 + 0x7669]
00003BD0  7369                     moveq.l    D1, 0x69
00003BD2  626C                     bhi        +0x6E /* 00003C40 */
00003BD4  6516                     bcs        +0x18 /* 00003BEC */
00003BD6  0E41 6972                .invalid.w D1, 0x6972 /* 'ir' */ // invalid immediate operation
00003BDA  2069 7320                movea.l    A0, [A1 + 0x7320]
00003BDE  5669 7369                addq.w     [A1 + 0x7369], 3
00003BE2  626C                     bhi        +0x6E /* 00003C50 */
00003BE4  6516                     bcs        +0x18 /* 00003BFC */
export_97:
00003BE6  4E56 FFE2                link       A6, -0x001E
00003BEA  48E7 0F00                movem.l    -[A7], D4,D5,D6,D7
// begin alternate branch 00003BEC-00003BEE
label00003BEC:
00003BEC  0F00                     btst       D0, D7
// end alternate branch 00003BEC-00003BEE
label00003BEC: // (misaligned)
00003BEE  554F                     subq.w     A7, 2
00003BF0  2F2D B55A                move.l     -[A7], [A5 - 0x4AA6]
00003BF4  486E FFEC                pea.l      [A6 - 0x14]
00003BF8  A92C                     syscall    FindWindow
00003BFA  3C1F                     move.w     D6, [A7]+
label00003BFC:
00003BFC  4A6D F850                tst.w      [A5 - 0x7B0]
00003C00  6606                     bne        +0x8 /* 00003C08 */
00003C02  4EBA D16E                jsr        [PC - 0x2E92 /* 00000D72 */]
00003C06  6040                     bra        +0x42 /* 00003C48 */
label00003C08:
00003C08  0C6D 0063 F850           cmpi.w     [A5 - 0x7B0], 0x63 /* 'c' */
label00003C0E:
00003C0E  6606                     bne        +0x8 /* 00003C16 */
00003C10  4EBA D9AC                jsr        [PC - 0x2654 /* 000015BE */]
00003C14  6032                     bra        +0x34 /* 00003C48 */
label00003C16:
00003C16  3006                     move.w     D0, D6
00003C18  6026                     bra        +0x28 /* 00003C40 */
label00003C1A:
00003C1A  594F                     subq.w     A7, 4
00003C1C  2F2D B55A                move.l     -[A7], [A5 - 0x4AA6]
00003C20  A93D                     syscall    MenuSelect
00003C22  2E1F                     move.l     D7, [A7]+
00003C24  2807                     move.l     D4, D7
00003C26  4844                     swap.w     D4
00003C28  3A07                     move.w     D5, D7
00003C2A  3F04                     move.w     -[A7], D4
00003C2C  3F05                     move.w     -[A7], D5
00003C2E  4EBA FCDE                jsr        [PC - 0x322 /* 0000390E */]
00003C32  6014                     bra        +0x16 /* 00003C48 */
label00003C34:
00003C34  486D B550                pea.l      [A5 - 0x4AB0]
00003C38  2F2E FFEC                move.l     -[A7], [A6 - 0x14]
// begin alternate branch 00003C3A-00003C3C
label00003C3A:
00003C3A  FFEC                     .invalid   <<F/7/7>>
// end alternate branch 00003C3A-00003C3C
label00003C3A: // (misaligned)
00003C3C  A9B3                     syscall    SystemClick
00003C3E  6008                     bra        +0xA /* 00003C48 */
label00003C40:
00003C40  5340                     subq.w     D0, 1
00003C42  67D6                     beq        -0x28 /* 00003C1A */
00003C44  5340                     subq.w     D0, 1
00003C46  67EC                     beq        -0x12 /* 00003C34 */
label00003C48:
00003C48  4CDF 00F0                movem.l    D4,D5,D6,D7, [A7]+
00003C4C  4E5E                     unlink     A6
00003C4E  4E75                     rts
export_98:
label00003C50:
00003C50  4E56 FFE6                link       A6, -0x001A
00003C54  48E7 0F00                movem.l    -[A7], D4,D5,D6,D7
00003C58  2E2D B552                move.l     D7, [A5 - 0x4AAE]
00003C5C  0287 0000 00FF           andi.l     D7, 0xFF
00003C62  302D B55E                move.w     D0, [A5 - 0x4AA2]
00003C66  48C0                     ext.l      D0
00003C68  81FC 0100                divs.w     D0, 0x100
00003C6C  0240 0001                andi.w     D0, 0x1
00003C70  6720                     beq        +0x22 /* 00003C92 */
00003C72  594F                     subq.w     A7, 4
00003C74  3F07                     move.w     -[A7], D7
00003C76  A93E                     syscall    MenuKey
00003C78  2C1F                     move.l     D6, [A7]+
00003C7A  2A06                     move.l     D5, D6
00003C7C  4845                     swap.w     D5
00003C7E  3806                     move.w     D4, D6
00003C80  4A45                     tst.w      D5
00003C82  6700 00FC                beq        +0xFE /* 00003D80 */
00003C86  3F05                     move.w     -[A7], D5
00003C88  3F04                     move.w     -[A7], D4
00003C8A  4EBA FC82                jsr        [PC - 0x37E /* 0000390E */]
00003C8E  6000 00F0                bra        +0xF2 /* 00003D80 */
label00003C92:
00003C92  0C47 0020                cmpi.w     D7, 0x20 /* ' ' */
00003C96  57C0                     seq        D0
00003C98  4A6D F850                tst.w      [A5 - 0x7B0]
00003C9C  56C1                     sne        D1
00003C9E  C001                     and.b      D0, D1
00003CA0  6738                     beq        +0x3A /* 00003CDA */
00003CA2  0C6D 0063 F850           cmpi.w     [A5 - 0x7B0], 0x63 /* 'c' */
00003CA8  6606                     bne        +0x8 /* 00003CB0 */
00003CAA  4EBA D912                jsr        [PC - 0x26EE /* 000015BE */]
00003CAE  602A                     bra        +0x2C /* 00003CDA */
label00003CB0:
00003CB0  302D F850                move.w     D0, [A5 - 0x7B0]
00003CB4  5240                     addq.w     D0, 1
00003CB6  3B40 F850                move.w     [A5 - 0x7B0], D0
00003CBA  0C6D 000B F850           cmpi.w     [A5 - 0x7B0], 0xB
00003CC0  6F06                     ble        +0x8 /* 00003CC8 */
00003CC2  3B7C 0001 F850           move.w     [A5 - 0x7B0], 0x1
label00003CC8:
00003CC8  426D F852                clr.w      [A5 - 0x7AE]
00003CCC  102D FE7D                move.b     D0, [A5 - 0x183]
00003CD0  5300                     subq.b     D0, 1
00003CD2  6706                     beq        +0x8 /* 00003CDA */
00003CD4  4227                     clr.b      -[A7]
00003CD6  4EBA D1A6                jsr        [PC - 0x2E5A /* 00000E7E */]
label00003CDA:
00003CDA  0C47 000D                cmpi.w     D7, 0xD /* '\r' */
00003CDE  6618                     bne        +0x1A /* 00003CF8 */
00003CE0  0C6D 0063 F850           cmpi.w     [A5 - 0x7B0], 0x63 /* 'c' */
00003CE6  6606                     bne        +0x8 /* 00003CEE */
00003CE8  4EBA D812                jsr        [PC - 0x27EE /* 000014FC */]
00003CEC  600A                     bra        +0xC /* 00003CF8 */
label00003CEE:
00003CEE  4A6D F850                tst.w      [A5 - 0x7B0]
00003CF2  6604                     bne        +0x6 /* 00003CF8 */
00003CF4  4EBA D07C                jsr        [PC - 0x2F84 /* 00000D72 */]
label00003CF8:
00003CF8  0C47 0009                cmpi.w     D7, 0x9 /* '\t' */
00003CFC  57C0                     seq        D0
00003CFE  C02D FE7D                and.b      D0, [A5 - 0x183]
00003D02  C02D FE7E                and.b      D0, [A5 - 0x182]
00003D06  6730                     beq        +0x32 /* 00003D38 */
00003D08  554F                     subq.w     A7, 2
00003D0A  3F3C 000B                move.w     -[A7], 0xB
00003D0E  4EAD 01AA                jsr        [A5 + 0x1AA /* export_49, CODE:1 @ 00000F4A */]
00003D12  301F                     move.w     D0, [A7]+
00003D14  5240                     addq.w     D0, 1
00003D16  3B40 F850                move.w     [A5 - 0x7B0], D0
00003D1A  4EAD 01D2                jsr        [A5 + 0x1D2 /* export_54, CODE:1 @ 0000189E */]
00003D1E  4EBA FAF0                jsr        [PC - 0x510 /* 00003810 */]
label00003D22:
00003D22  486D EEA6                pea.l      [A5 - 0x115A]
00003D26  A976                     syscall    GetKeys
00003D28  7030                     moveq.l    D0, 0x30
00003D2A  3200                     move.w     D1, D0
00003D2C  E649                     lsr        D1.w, 3
00003D2E  0641 EEA6                addi.w     D1, 0xEEA6
00003D32  0135 1000                btst       [A5 + D1.w], D0
00003D36  66EA                     bne        -0x14 /* 00003D22 */
label00003D38:
00003D38  0C47 004F                cmpi.w     D7, 0x4F /* 'O' */
00003D3C  6606                     bne        +0x8 /* 00003D44 */
00003D3E  1B7C 0001 FE8E           move.b     [A5 - 0x172], 0x1
label00003D44:
00003D44  0C47 007A                cmpi.w     D7, 0x7A /* 'z' */
00003D48  57C0                     seq        D0
00003D4A  C02D FE8E                and.b      D0, [A5 - 0x172]
00003D4E  6706                     beq        +0x8 /* 00003D56 */
00003D50  1B7C 0001 FE8F           move.b     [A5 - 0x171], 0x1
label00003D56:
00003D56  0C47 006D                cmpi.w     D7, 0x6D /* 'm' */
00003D5A  57C0                     seq        D0
00003D5C  C02D FE8F                and.b      D0, [A5 - 0x171]
00003D60  6706                     beq        +0x8 /* 00003D68 */
00003D62  1B7C 0001 FE90           move.b     [A5 - 0x170], 0x1
label00003D68:
00003D68  0C47 0061                cmpi.w     D7, 0x61 /* 'a' */
00003D6C  57C0                     seq        D0
00003D6E  C02D FE90                and.b      D0, [A5 - 0x170]
00003D72  670C                     beq        +0xE /* 00003D80 */
00003D74  1B7C 0001 FE91           move.b     [A5 - 0x16F], 0x1
00003D7A  1B7C 0001 FE81           move.b     [A5 - 0x17F], 0x1
label00003D80:
00003D80  4CDF 00F0                movem.l    D4,D5,D6,D7, [A7]+
00003D84  4E5E                     unlink     A6
00003D86  4E75                     rts
export_99:
00003D88  4E56 FFEC                link       A6, -0x0014
00003D8C  4A6D B552                tst.w      [A5 - 0x4AAE]
00003D90  672C                     beq        +0x2E /* 00003DBE */
00003D92  486E FFEC                pea.l      [A6 - 0x14]
00003D96  302D F846                move.w     D0, [A5 - 0x7BA]
00003D9A  0640 0055                addi.w     D0, 0x55 /* 'U' */
00003D9E  3F00                     move.w     -[A7], D0
00003DA0  302D F848                move.w     D0, [A5 - 0x7B8]
00003DA4  0640 0032                addi.w     D0, 0x32 /* '2' */
00003DA8  3F00                     move.w     -[A7], D0
00003DAA  A880                     syscall    SetPt
00003DAC  554F                     subq.w     A7, 2
00003DAE  2F2E FFEC                move.l     -[A7], [A6 - 0x14]
00003DB2  2F2D B552                move.l     -[A7], [A5 - 0x4AAE]
00003DB6  4EAD 013A                jsr        [A5 + 0x13A /* export_35, CODE:1 @ 000007CC */]
00003DBA  3B5F EEB6                move.w     [A5 - 0x114A], [A7]+
label00003DBE:
00003DBE  4E5E                     unlink     A6
00003DC0  4E75                     rts
export_100:
00003DC2  202D B552                move.l     D0, [A5 - 0x4AAE]
00003DC6  7218                     moveq.l    D1, 0x18
00003DC8  E2A8                     lsr        D0, D1
00003DCA  6020                     bra        +0x22 /* 00003DEC */
label00003DCC:
00003DCC  7001                     moveq.l    D0, 0x01
00003DCE  C0AD B552                and.l      D0, [A5 - 0x4AAE]
00003DD2  5380                     subq.l     D0, 1
00003DD4  6606                     bne        +0x8 /* 00003DDC */
00003DD6  422D FE7C                clr.b      [A5 - 0x184]
00003DDA  6014                     bra        +0x16 /* 00003DF0 */
label00003DDC:
00003DDC  4EAD 0182                jsr        [A5 + 0x182 /* export_44, CODE:1 @ 0000099A */]
00003DE0  1B7C 0001 FE7C           move.b     [A5 - 0x184], 0x1
00003DE6  4EAD 01DA                jsr        [A5 + 0x1DA /* export_55, CODE:1 @ 000018F4 */]
00003DEA  6004                     bra        +0x6 /* 00003DF0 */
label00003DEC:
00003DEC  5380                     subq.l     D0, 1
00003DEE  67DC                     beq        -0x22 /* 00003DCC */
label00003DF0:
00003DF0  4E75                     rts
