# near model CODE resource
# jump table entries: 664-664 (1 of them)
fn00000000:
00000000  4E56 FFE2                link       A6, -0x001E
00000004  48E7 0018                movem.l    -[A7], A3,A4
00000008  486E FFEC                pea.l      [A6 - 0x14]
0000000C  3F3C 0100                move.w     -[A7], 0x100
00000010  3F3C 00AB                move.w     -[A7], 0xAB
00000014  A880                     syscall    SetPt
00000016  287C 0000 082C           movea.l    A4, 0x82C
0000001C  264C                     movea.l    A3, A4
0000001E  26AE FFEC                move.l     [A3], [A6 - 0x14]
00000022  287C 0000 0828           movea.l    A4, 0x828
00000028  264C                     movea.l    A3, A4
0000002A  26AE FFEC                move.l     [A3], [A6 - 0x14]
0000002E  287C 0000 08CE           movea.l    A4, 0x8CE
00000034  18BC 00FF                move.b     [A4], 0xFF
00000038  4CDF 1800                movem.l    A3,A4, [A7]+
0000003C  4E5E                     unlink     A6
0000003E  4E75                     rts
fn00000040:
00000040  4E56 FEF0                link       A6, -0x0110
00000044  4A2D F5FC                tst.b      [A5 - 0xA04]
00000048  6764                     beq        +0x66 /* 000000AE */
0000004A  4A2D FE7A                tst.b      [A5 - 0x186]
0000004E  6724                     beq        +0x26 /* 00000074 */
00000050  206D B7B2                movea.l    A0, [A5 - 0x484E]
00000054  2068 0002                movea.l    A0, [A0 + 0x2]
00000058  2F10                     move.l     -[A7], [A0]
0000005A  206D B560                movea.l    A0, [A5 - 0x4AA0]
0000005E  4868 0002                pea.l      [A0 + 0x2]
00000062  486D F5DE                pea.l      [A5 - 0xA22]
00000066  486D F5DE                pea.l      [A5 - 0xA22]
0000006A  4267                     clr.w      -[A7]
0000006C  2F2D B590                move.l     -[A7], [A5 - 0x4A70]
00000070  A8EC                     syscall    CopyBits
00000072  601C                     bra        +0x1E /* 00000090 */
label00000074:
00000074  486D B5A2                pea.l      [A5 - 0x4A5E]
00000078  206D B560                movea.l    A0, [A5 - 0x4AA0]
0000007C  4868 0002                pea.l      [A0 + 0x2]
00000080  486D F5DE                pea.l      [A5 - 0xA22]
00000084  486D F5DE                pea.l      [A5 - 0xA22]
00000088  4267                     clr.w      -[A7]
0000008A  2F2D B590                move.l     -[A7], [A5 - 0x4A70]
0000008E  A8EC                     syscall    CopyBits
label00000090:
00000090  4A2D FE85                tst.b      [A5 - 0x17B]
00000094  6718                     beq        +0x1A /* 000000AE */
00000096  486D B5A2                pea.l      [A5 - 0x4A5E]
0000009A  486D B5B0                pea.l      [A5 - 0x4A50]
0000009E  486D F5DE                pea.l      [A5 - 0xA22]
000000A2  486D F5DE                pea.l      [A5 - 0xA22]
000000A6  4267                     clr.w      -[A7]
000000A8  2F2D B590                move.l     -[A7], [A5 - 0x4A70]
000000AC  A8EC                     syscall    CopyBits
label000000AE:
000000AE  1B7C 0001 F5FC           move.b     [A5 - 0xA04], 0x1
000000B4  41ED F5FE                lea.l      A0, [A5 - 0xA02]
000000B8  43ED F5DE                lea.l      A1, [A5 - 0xA22]
000000BC  22D8                     move.l     [A1]+, [A0]+
000000BE  22D8                     move.l     [A1]+, [A0]+
000000C0  4A2D FE7A                tst.b      [A5 - 0x186]
000000C4  6708                     beq        +0xA /* 000000CE */
000000C6  3B6D F5E2 F5DE           move.w     [A5 - 0xA22], [A5 - 0xA1E]
000000CC  600C                     bra        +0xE /* 000000DA */
label000000CE:
000000CE  302D F5DE                move.w     D0, [A5 - 0xA22]
000000D2  0640 FFE2                addi.w     D0, 0xFFE2
000000D6  3B40 F5DE                move.w     [A5 - 0xA22], D0
label000000DA:
000000DA  302D F5DE                move.w     D0, [A5 - 0xA22]
000000DE  0640 000C                addi.w     D0, 0xC
000000E2  3B40 F5E2                move.w     [A5 - 0xA1E], D0
000000E6  302E 0008                move.w     D0, [A6 + 0x8]
000000EA  48C0                     ext.l      D0
000000EC  2F00                     move.l     -[A7], D0
000000EE  486E FEF0                pea.l      [A6 - 0x110]
000000F2  4EAD 0142                jsr        [A5 + 0x142 /* export_36, CODE:1 @ 000007D2 */]
000000F6  3F3C 0010                move.w     -[A7], 0x10
000000FA  486E FEF0                pea.l      [A6 - 0x110]
000000FE  486D F5EA                pea.l      [A5 - 0xA16]
00000102  4EAD 005A                jsr        [A5 + 0x5A /* export_7, CODE:1 @ 00000274 */]
00000106  2F2D B560                move.l     -[A7], [A5 - 0x4AA0]
0000010A  A873                     syscall    SetPort
0000010C  4A2D FE7A                tst.b      [A5 - 0x186]
00000110  674A                     beq        +0x4C /* 0000015C */
00000112  A89E                     syscall    PenNormal
00000114  3F3C 0010                move.w     -[A7], 0x10
00000118  A887                     syscall    TextFont
0000011A  3F3C 000C                move.w     -[A7], 0xC
0000011E  A88A                     syscall    TextSize
00000120  3F2D F5E0                move.w     -[A7], [A5 - 0xA20]
00000124  302D F5E2                move.w     D0, [A5 - 0xA1E]
00000128  5540                     subq.w     D0, 2
0000012A  3F00                     move.w     -[A7], D0
0000012C  A893                     syscall    MoveTo
0000012E  486D B7F6                pea.l      [A5 - 0x480A]
00000132  AA14                     syscall    RGBForeColor
00000134  3F3C 0001                move.w     -[A7], 0x1
00000138  A89C                     syscall    PenMode
0000013A  486D F5EA                pea.l      [A5 - 0xA16]
0000013E  A884                     syscall    DrawString
00000140  A89E                     syscall    PenNormal
00000142  486D B7D2                pea.l      [A5 - 0x482E]
00000146  AA14                     syscall    RGBForeColor
00000148  594F                     subq.w     A7, 4
0000014A  A975                     syscall    TickCount
0000014C  7078                     moveq.l    D0, 0x78
0000014E  D09F                     add.l      D0, [A7]+
00000150  2B40 F5E6                move.l     [A5 - 0xA1A], D0
00000154  2F2D B7B2                move.l     -[A7], [A5 - 0x484E]
00000158  A873                     syscall    SetPort
0000015A  6054                     bra        +0x56 /* 000001B0 */
label0000015C:
0000015C  3F3C 00C9                move.w     -[A7], 0xC9
00000160  A887                     syscall    TextFont
00000162  3F3C 000B                move.w     -[A7], 0xB
00000166  A889                     syscall    TextMode
00000168  3F2D F5E0                move.w     -[A7], [A5 - 0xA20]
0000016C  302D F5E2                move.w     D0, [A5 - 0xA1E]
00000170  5540                     subq.w     D0, 2
00000172  3F00                     move.w     -[A7], D0
00000174  A893                     syscall    MoveTo
00000176  486E FEF0                pea.l      [A6 - 0x110]
0000017A  A884                     syscall    DrawString
0000017C  3F3C 00C8                move.w     -[A7], 0xC8
00000180  A887                     syscall    TextFont
00000182  3F3C 0009                move.w     -[A7], 0x9 /* '\t' */
00000186  A889                     syscall    TextMode
00000188  3F2D F5E0                move.w     -[A7], [A5 - 0xA20]
0000018C  302D F5E2                move.w     D0, [A5 - 0xA1E]
00000190  5540                     subq.w     D0, 2
00000192  3F00                     move.w     -[A7], D0
00000194  A893                     syscall    MoveTo
00000196  486E FEF0                pea.l      [A6 - 0x110]
0000019A  A884                     syscall    DrawString
0000019C  594F                     subq.w     A7, 4
0000019E  A975                     syscall    TickCount
000001A0  7078                     moveq.l    D0, 0x78
000001A2  D09F                     add.l      D0, [A7]+
000001A4  2B40 F5E6                move.l     [A5 - 0xA1A], D0
000001A8  A89E                     syscall    PenNormal
000001AA  2F2D B5DE                move.l     -[A7], [A5 - 0x4A22]
000001AE  A873                     syscall    SetPort
label000001B0:
000001B0  4A2D FE85                tst.b      [A5 - 0x17B]
000001B4  675A                     beq        +0x5C /* 00000210 */
000001B6  2F2D B5E2                move.l     -[A7], [A5 - 0x4A1E]
000001BA  A873                     syscall    SetPort
000001BC  3F3C 00C9                move.w     -[A7], 0xC9
000001C0  A887                     syscall    TextFont
000001C2  3F3C 000B                move.w     -[A7], 0xB
000001C6  A889                     syscall    TextMode
000001C8  3F2D F5E0                move.w     -[A7], [A5 - 0xA20]
000001CC  302D F5E2                move.w     D0, [A5 - 0xA1E]
000001D0  5540                     subq.w     D0, 2
000001D2  3F00                     move.w     -[A7], D0
000001D4  A893                     syscall    MoveTo
000001D6  486E FEF0                pea.l      [A6 - 0x110]
000001DA  A884                     syscall    DrawString
000001DC  3F3C 00C8                move.w     -[A7], 0xC8
000001E0  A887                     syscall    TextFont
000001E2  3F3C 0009                move.w     -[A7], 0x9 /* '\t' */
000001E6  A889                     syscall    TextMode
000001E8  3F2D F5E0                move.w     -[A7], [A5 - 0xA20]
000001EC  302D F5E2                move.w     D0, [A5 - 0xA1E]
000001F0  5540                     subq.w     D0, 2
000001F2  3F00                     move.w     -[A7], D0
000001F4  A893                     syscall    MoveTo
000001F6  486E FEF0                pea.l      [A6 - 0x110]
000001FA  A884                     syscall    DrawString
000001FC  594F                     subq.w     A7, 4
000001FE  A975                     syscall    TickCount
00000200  7078                     moveq.l    D0, 0x78
00000202  D09F                     add.l      D0, [A7]+
00000204  2B40 F5E6                move.l     [A5 - 0xA1A], D0
00000208  A89E                     syscall    PenNormal
0000020A  2F2D B5DE                move.l     -[A7], [A5 - 0x4A22]
0000020E  A873                     syscall    SetPort
label00000210:
00000210  4E5E                     unlink     A6
00000212  205F                     movea.l    A0, [A7]+
00000214  544F                     addq.w     A7, 2
00000216  4ED0                     jmp        [A0]
fn00000218:
00000218  4E56 FEC6                link       A6, -0x013A
0000021C  48E7 0308                movem.l    -[A7], D6,D7,A4
00000220  3E2E 0008                move.w     D7, [A6 + 0x8]
00000224  302E 000A                move.w     D0, [A6 + 0xA]
00000228  6000 0FD6                bra        +0xFD8 /* 00001200 */
0000022C  6000 1014                bra        +0x1016 /* 00001242 */
00000230  422D FE83                clr.b      [A5 - 0x17D]
00000234  3F3C 03E9                move.w     -[A7], 0x3E9
00000238  3F3C 0170                move.w     -[A7], 0x170
0000023C  4EAD 01A2                jsr        [A5 + 0x1A2 /* export_48, CODE:1 @ 00000CDE */]
00000240  3B7C 0002 F63A           move.w     [A5 - 0x9C6], 0x2
00000246  302D F602                move.w     D0, [A5 - 0x9FE]
0000024A  0640 FFEC                addi.w     D0, 0xFFEC
0000024E  3B40 F5FE                move.w     [A5 - 0xA02], D0
00000252  4A2D F649                tst.b      [A5 - 0x9B7]
00000256  6708                     beq        +0xA /* 00000260 */
00000258  426D F63E                clr.w      [A5 - 0x9C2]
0000025C  6000 0FE4                bra        +0xFE6 /* 00001242 */
label00000260:
00000260  3B7C 0002 F63E           move.w     [A5 - 0x9C2], 0x2
00000266  6000 0FDA                bra        +0xFDC /* 00001242 */
0000026A  102D FE70                move.b     D0, [A5 - 0x190]
0000026E  5300                     subq.b     D0, 1
00000270  6700 0FD0                beq        +0xFD2 /* 00001242 */
00000274  3B7C FFF9 F856           move.w     [A5 - 0x7AA], 0xFFF9
0000027A  6000 0FC6                bra        +0xFC8 /* 00001242 */
0000027E  102D FE70                move.b     D0, [A5 - 0x190]
00000282  5300                     subq.b     D0, 1
00000284  6700 0FBC                beq        +0xFBE /* 00001242 */
00000288  3B7C 0007 F856           move.w     [A5 - 0x7AA], 0x7
0000028E  6000 0FB2                bra        +0xFB4 /* 00001242 */
00000292  3F3C 03F8                move.w     -[A7], 0x3F8
00000296  3F3C 0157                move.w     -[A7], 0x157
0000029A  4EAD 01A2                jsr        [A5 + 0x1A2 /* export_48, CODE:1 @ 00000CDE */]
0000029E  3007                     move.w     D0, D7
000002A0  C1FC 000C                muls.w     D0, 0xC
000002A4  0640 FDA0                addi.w     D0, 0xFDA0
000002A8  3F35 0000                move.w     -[A7], [A5 + D0.w]
000002AC  4EAD 02B2                jsr        [A5 + 0x2B2 /* export_82, CODE:2 @ 00006D82 */]
000002B0  41ED B578                lea.l      A0, [A5 - 0x4A88]
000002B4  43ED FEF4                lea.l      A1, [A5 - 0x10C]
000002B8  22D8                     move.l     [A1]+, [A0]+
000002BA  22D8                     move.l     [A1]+, [A0]+
000002BC  6000 0F84                bra        +0xF86 /* 00001242 */
000002C0  3B7C FFF9 F85A           move.w     [A5 - 0x7A6], 0xFFF9
000002C6  4A2D FE83                tst.b      [A5 - 0x17D]
000002CA  6700 0F76                beq        +0xF78 /* 00001242 */
000002CE  4A2D F648                tst.b      [A5 - 0x9B8]
000002D2  6700 0F6E                beq        +0xF70 /* 00001242 */
000002D6  422D FE83                clr.b      [A5 - 0x17D]
000002DA  3B7C 0003 F63A           move.w     [A5 - 0x9C6], 0x3
000002E0  6000 0F60                bra        +0xF62 /* 00001242 */
000002E4  3B7C 0007 F85A           move.w     [A5 - 0x7A6], 0x7
000002EA  4A2D FE83                tst.b      [A5 - 0x17D]
000002EE  6700 0F52                beq        +0xF54 /* 00001242 */
000002F2  102D F648                move.b     D0, [A5 - 0x9B8]
000002F6  5300                     subq.b     D0, 1
000002F8  6700 0F48                beq        +0xF4A /* 00001242 */
000002FC  422D FE83                clr.b      [A5 - 0x17D]
00000300  3B7C 0004 F63A           move.w     [A5 - 0x9C6], 0x4
00000306  6000 0F3A                bra        +0xF3C /* 00001242 */
0000030A  3B7C FFF9 F856           move.w     [A5 - 0x7AA], 0xFFF9
00000310  3007                     move.w     D0, D7
00000312  C1FC 000C                muls.w     D0, 0xC
00000316  322D F602                move.w     D1, [A5 - 0x9FE]
0000031A  48C1                     ext.l      D1
0000031C  0640 FD9E                addi.w     D0, 0xFD9E
00000320  B2B5 0000                cmp.l      D1, [A5 + D0.w]
00000324  5EC0                     sgt        D0
00000326  C02D FE83                and.b      D0, [A5 - 0x17D]
0000032A  6700 0F16                beq        +0xF18 /* 00001242 */
0000032E  3F3C 03F0                move.w     -[A7], 0x3F0
00000332  3F3C 0160                move.w     -[A7], 0x160
00000336  4EAD 01A2                jsr        [A5 + 0x1A2 /* export_48, CODE:1 @ 00000CDE */]
0000033A  422D FE83                clr.b      [A5 - 0x17D]
0000033E  4A2D F648                tst.b      [A5 - 0x9B8]
00000342  6706                     beq        +0x8 /* 0000034A */
00000344  3B7C 0001 F63C           move.w     [A5 - 0x9C4], 0x1
label0000034A:
0000034A  3B7C 0005 F63A           move.w     [A5 - 0x9C6], 0x5
00000350  594F                     subq.w     A7, 4
00000352  A975                     syscall    TickCount
00000354  201F                     move.l     D0, [A7]+
00000356  0680 0000 012C           addi.l     D0, 0x12C
0000035C  2B40 F636                move.l     [A5 - 0x9CA], D0
00000360  302D F602                move.w     D0, [A5 - 0x9FE]
00000364  0640 FFDC                addi.w     D0, 0xFFDC
00000368  3B40 F5FE                move.w     [A5 - 0xA02], D0
0000036C  6000 0ED4                bra        +0xED6 /* 00001242 */
00000370  3007                     move.w     D0, D7
00000372  C1FC 000C                muls.w     D0, 0xC
00000376  0640 FD9E                addi.w     D0, 0xFD9E
0000037A  4AB5 0000                tst.l      [A5 + D0.w]
0000037E  6700 0EC2                beq        +0xEC4 /* 00001242 */
00000382  3F3C 03ED                move.w     -[A7], 0x3ED
00000386  3F3C 0100                move.w     -[A7], 0x100
0000038A  4EAD 01A2                jsr        [A5 + 0x1A2 /* export_48, CODE:1 @ 00000CDE */]
0000038E  4EAD 021A                jsr        [A5 + 0x21A /* export_63, CODE:2 @ 00002258 */]
00000392  3007                     move.w     D0, D7
00000394  C1FC 000C                muls.w     D0, 0xC
00000398  222D F822                move.l     D1, [A5 - 0x7DE]
0000039C  0640 FD9E                addi.w     D0, 0xFD9E
000003A0  D2B5 0000                add.l      D1, [A5 + D0.w]
000003A4  2B41 F822                move.l     [A5 - 0x7DE], D1
000003A8  3007                     move.w     D0, D7
000003AA  C1FC 000C                muls.w     D0, 0xC
000003AE  0640 FDA0                addi.w     D0, 0xFDA0
000003B2  3F35 0000                move.w     -[A7], [A5 + D0.w]
000003B6  4EBA FC88                jsr        [PC - 0x378 /* 00000040 */]
000003BA  3007                     move.w     D0, D7
000003BC  C1FC 000C                muls.w     D0, 0xC
000003C0  0640 FD9E                addi.w     D0, 0xFD9E
000003C4  42B5 0000                clr.l      [A5 + D0.w]
000003C8  302D F868                move.w     D0, [A5 - 0x798]
000003CC  C1FC 013A                muls.w     D0, 0x13A
000003D0  3207                     move.w     D1, D7
000003D2  E941                     asl        D1.w, 4
000003D4  D041                     add.w      D0, D1
000003D6  0640 BC90                addi.w     D0, 0xBC90
000003DA  4275 0000                clr.w      [A5 + D0.w]
000003DE  3007                     move.w     D0, D7
000003E0  E740                     asl        D0.w, 3
000003E2  0640 FC8A                addi.w     D0, 0xFC8A
000003E6  41F5 0000                lea.l      A0, [A5 + D0.w]
000003EA  43EE FED8                lea.l      A1, [A6 - 0x128]
000003EE  22D8                     move.l     [A1]+, [A0]+
000003F0  22D8                     move.l     [A1]+, [A0]+
000003F2  486E FED8                pea.l      [A6 - 0x128]
000003F6  302E FEDA                move.w     D0, [A6 - 0x126]
000003FA  4440                     neg.w      D0
000003FC  3F00                     move.w     -[A7], D0
000003FE  302E FED8                move.w     D0, [A6 - 0x128]
00000402  4440                     neg.w      D0
00000404  3F00                     move.w     -[A7], D0
00000406  A8A8                     syscall    OffsetRect
00000408  486E FED8                pea.l      [A6 - 0x128]
0000040C  3007                     move.w     D0, D7
0000040E  E740                     asl        D0.w, 3
00000410  0640 FD14                addi.w     D0, 0xFD14
00000414  3F35 0000                move.w     -[A7], [A5 + D0.w]
00000418  3007                     move.w     D0, D7
0000041A  E740                     asl        D0.w, 3
0000041C  0640 FD12                addi.w     D0, 0xFD12
00000420  3F35 0000                move.w     -[A7], [A5 + D0.w]
00000424  A8A8                     syscall    OffsetRect
00000426  102D FE6F                move.b     D0, [A5 - 0x191]
0000042A  5300                     subq.b     D0, 1
0000042C  6700 0E14                beq        +0xE16 /* 00001242 */
00000430  4A2D FE7A                tst.b      [A5 - 0x186]
00000434  6700 0084                beq        +0x86 /* 000004BA */
00000438  206D B7BE                movea.l    A0, [A5 - 0x4842]
0000043C  2068 0002                movea.l    A0, [A0 + 0x2]
00000440  2F10                     move.l     -[A7], [A0]
00000442  206D B7B2                movea.l    A0, [A5 - 0x484E]
00000446  2068 0002                movea.l    A0, [A0 + 0x2]
0000044A  2F10                     move.l     -[A7], [A0]
0000044C  486E FED8                pea.l      [A6 - 0x128]
00000450  3007                     move.w     D0, D7
00000452  E740                     asl        D0.w, 3
00000454  0640 FC8A                addi.w     D0, 0xFC8A
00000458  4875 0000                pea.l      [A5 + D0.w]
0000045C  4267                     clr.w      -[A7]
0000045E  42A7                     clr.l      -[A7]
00000460  A8EC                     syscall    CopyBits
00000462  206D B7BE                movea.l    A0, [A5 - 0x4842]
00000466  2068 0002                movea.l    A0, [A0 + 0x2]
0000046A  2F10                     move.l     -[A7], [A0]
0000046C  206D B7B6                movea.l    A0, [A5 - 0x484A]
00000470  2068 0002                movea.l    A0, [A0 + 0x2]
00000474  2F10                     move.l     -[A7], [A0]
00000476  486E FED8                pea.l      [A6 - 0x128]
0000047A  3007                     move.w     D0, D7
0000047C  E740                     asl        D0.w, 3
0000047E  0640 FC8A                addi.w     D0, 0xFC8A
00000482  4875 0000                pea.l      [A5 + D0.w]
00000486  4267                     clr.w      -[A7]
00000488  42A7                     clr.l      -[A7]
0000048A  A8EC                     syscall    CopyBits
0000048C  206D B7BE                movea.l    A0, [A5 - 0x4842]
00000490  2068 0002                movea.l    A0, [A0 + 0x2]
00000494  2F10                     move.l     -[A7], [A0]
00000496  206D B560                movea.l    A0, [A5 - 0x4AA0]
0000049A  4868 0002                pea.l      [A0 + 0x2]
0000049E  486E FED8                pea.l      [A6 - 0x128]
000004A2  3007                     move.w     D0, D7
000004A4  E740                     asl        D0.w, 3
000004A6  0640 FC8A                addi.w     D0, 0xFC8A
000004AA  4875 0000                pea.l      [A5 + D0.w]
000004AE  4267                     clr.w      -[A7]
000004B0  2F2D B590                move.l     -[A7], [A5 - 0x4A70]
000004B4  A8EC                     syscall    CopyBits
000004B6  6000 0D8A                bra        +0xD8C /* 00001242 */
label000004BA:
000004BA  486D B5CC                pea.l      [A5 - 0x4A34]
000004BE  486D B5A2                pea.l      [A5 - 0x4A5E]
000004C2  486E FED8                pea.l      [A6 - 0x128]
000004C6  3007                     move.w     D0, D7
000004C8  E740                     asl        D0.w, 3
000004CA  0640 FC8A                addi.w     D0, 0xFC8A
000004CE  4875 0000                pea.l      [A5 + D0.w]
000004D2  4267                     clr.w      -[A7]
000004D4  42A7                     clr.l      -[A7]
000004D6  A8EC                     syscall    CopyBits
000004D8  486D B5CC                pea.l      [A5 - 0x4A34]
000004DC  486D B5B0                pea.l      [A5 - 0x4A50]
000004E0  486E FED8                pea.l      [A6 - 0x128]
000004E4  3007                     move.w     D0, D7
000004E6  E740                     asl        D0.w, 3
000004E8  0640 FC8A                addi.w     D0, 0xFC8A
000004EC  4875 0000                pea.l      [A5 + D0.w]
000004F0  4267                     clr.w      -[A7]
000004F2  42A7                     clr.l      -[A7]
000004F4  A8EC                     syscall    CopyBits
000004F6  486D B5CC                pea.l      [A5 - 0x4A34]
000004FA  206D B560                movea.l    A0, [A5 - 0x4AA0]
000004FE  4868 0002                pea.l      [A0 + 0x2]
00000502  486E FED8                pea.l      [A6 - 0x128]
00000506  3007                     move.w     D0, D7
00000508  E740                     asl        D0.w, 3
0000050A  0640 FC8A                addi.w     D0, 0xFC8A
0000050E  4875 0000                pea.l      [A5 + D0.w]
00000512  4267                     clr.w      -[A7]
00000514  2F2D B590                move.l     -[A7], [A5 - 0x4A70]
00000518  A8EC                     syscall    CopyBits
0000051A  6000 0D26                bra        +0xD28 /* 00001242 */
0000051E  3007                     move.w     D0, D7
00000520  C1FC 000C                muls.w     D0, 0xC
00000524  0640 FD9E                addi.w     D0, 0xFD9E
00000528  4AB5 0000                tst.l      [A5 + D0.w]
0000052C  6700 0D14                beq        +0xD16 /* 00001242 */
00000530  3F3C 03F2                move.w     -[A7], 0x3F2
00000534  3F3C 0130                move.w     -[A7], 0x130
00000538  4EAD 01A2                jsr        [A5 + 0x1A2 /* export_48, CODE:1 @ 00000CDE */]
0000053C  4EAD 021A                jsr        [A5 + 0x21A /* export_63, CODE:2 @ 00002258 */]
00000540  3007                     move.w     D0, D7
00000542  C1FC 000C                muls.w     D0, 0xC
00000546  222D F822                move.l     D1, [A5 - 0x7DE]
0000054A  0640 FD9E                addi.w     D0, 0xFD9E
0000054E  D2B5 0000                add.l      D1, [A5 + D0.w]
00000552  2B41 F822                move.l     [A5 - 0x7DE], D1
00000556  3007                     move.w     D0, D7
00000558  C1FC 000C                muls.w     D0, 0xC
0000055C  0640 FDA0                addi.w     D0, 0xFDA0
00000560  3F35 0000                move.w     -[A7], [A5 + D0.w]
00000564  4EBA FADA                jsr        [PC - 0x526 /* 00000040 */]
00000568  3007                     move.w     D0, D7
0000056A  C1FC 000C                muls.w     D0, 0xC
0000056E  0640 FD9E                addi.w     D0, 0xFD9E
00000572  42B5 0000                clr.l      [A5 + D0.w]
00000576  302D F868                move.w     D0, [A5 - 0x798]
0000057A  C1FC 013A                muls.w     D0, 0x13A
0000057E  3207                     move.w     D1, D7
00000580  E941                     asl        D1.w, 4
00000582  D041                     add.w      D0, D1
00000584  0640 BC90                addi.w     D0, 0xBC90
00000588  4275 0000                clr.w      [A5 + D0.w]
0000058C  486D F858                pea.l      [A5 - 0x7A8]
00000590  205F                     movea.l    A0, [A7]+
00000592  5250                     addq.w     [A0], 1
00000594  0C6D 0004 F858           cmpi.w     [A5 - 0x7A8], 0x4
0000059A  6E00 0204                bgt        +0x206 /* 000007A0 */
0000059E  486E FEE8                pea.l      [A6 - 0x118]
000005A2  3F3C 01FB                move.w     -[A7], 0x1FB
000005A6  3F3C 0005                move.w     -[A7], 0x5
000005AA  3F3C 021E                move.w     -[A7], 0x21E
000005AE  3F3C 0014                move.w     -[A7], 0x14
000005B2  A8A7                     syscall    SetRect
000005B4  486E FEE8                pea.l      [A6 - 0x118]
000005B8  302D F858                move.w     D0, [A5 - 0x7A8]
000005BC  5340                     subq.w     D0, 1
000005BE  C1FC 0025                muls.w     D0, 0x25 /* '%' */
000005C2  4440                     neg.w      D0
000005C4  3F00                     move.w     -[A7], D0
000005C6  4267                     clr.w      -[A7]
000005C8  A8A8                     syscall    OffsetRect
000005CA  486E FEE0                pea.l      [A6 - 0x120]
000005CE  4267                     clr.w      -[A7]
000005D0  3F3C 013E                move.w     -[A7], 0x13E
000005D4  3F3C 0023                move.w     -[A7], 0x23 /* '#' */
000005D8  3F3C 014D                move.w     -[A7], 0x14D
000005DC  A8A7                     syscall    SetRect
000005DE  4A2D FE7A                tst.b      [A5 - 0x186]
000005E2  676E                     beq        +0x70 /* 00000652 */
000005E4  206D B7BA                movea.l    A0, [A5 - 0x4846]
000005E8  2068 0002                movea.l    A0, [A0 + 0x2]
000005EC  2F10                     move.l     -[A7], [A0]
000005EE  486D B594                pea.l      [A5 - 0x4A6C]
000005F2  206D B7B2                movea.l    A0, [A5 - 0x484E]
000005F6  2068 0002                movea.l    A0, [A0 + 0x2]
000005FA  2F10                     move.l     -[A7], [A0]
000005FC  486E FEE0                pea.l      [A6 - 0x120]
00000600  486E FEE0                pea.l      [A6 - 0x120]
00000604  486E FEE8                pea.l      [A6 - 0x118]
00000608  A817                     syscall    CopyMask
0000060A  206D B7B2                movea.l    A0, [A5 - 0x484E]
0000060E  2068 0002                movea.l    A0, [A0 + 0x2]
00000612  2F10                     move.l     -[A7], [A0]
00000614  206D B7B6                movea.l    A0, [A5 - 0x484A]
00000618  2068 0002                movea.l    A0, [A0 + 0x2]
0000061C  2F10                     move.l     -[A7], [A0]
0000061E  486E FEE8                pea.l      [A6 - 0x118]
00000622  486E FEE8                pea.l      [A6 - 0x118]
00000626  4267                     clr.w      -[A7]
00000628  2F2D B590                move.l     -[A7], [A5 - 0x4A70]
0000062C  A8EC                     syscall    CopyBits
0000062E  206D B7B2                movea.l    A0, [A5 - 0x484E]
00000632  2068 0002                movea.l    A0, [A0 + 0x2]
00000636  2F10                     move.l     -[A7], [A0]
00000638  206D B560                movea.l    A0, [A5 - 0x4AA0]
0000063C  4868 0002                pea.l      [A0 + 0x2]
00000640  486E FEE8                pea.l      [A6 - 0x118]
00000644  486E FEE8                pea.l      [A6 - 0x118]
00000648  4267                     clr.w      -[A7]
0000064A  2F2D B590                move.l     -[A7], [A5 - 0x4A70]
0000064E  A8EC                     syscall    CopyBits
00000650  604E                     bra        +0x50 /* 000006A0 */
label00000652:
00000652  486D B5BE                pea.l      [A5 - 0x4A42]
00000656  486D B594                pea.l      [A5 - 0x4A6C]
0000065A  486D B5A2                pea.l      [A5 - 0x4A5E]
0000065E  486E FEE0                pea.l      [A6 - 0x120]
00000662  486E FEE0                pea.l      [A6 - 0x120]
00000666  486E FEE8                pea.l      [A6 - 0x118]
0000066A  A817                     syscall    CopyMask
0000066C  486D B5A2                pea.l      [A5 - 0x4A5E]
00000670  486D B5B0                pea.l      [A5 - 0x4A50]
00000674  486E FEE8                pea.l      [A6 - 0x118]
00000678  486E FEE8                pea.l      [A6 - 0x118]
0000067C  4267                     clr.w      -[A7]
0000067E  2F2D B590                move.l     -[A7], [A5 - 0x4A70]
00000682  A8EC                     syscall    CopyBits
00000684  486D B5A2                pea.l      [A5 - 0x4A5E]
00000688  206D B560                movea.l    A0, [A5 - 0x4AA0]
0000068C  4868 0002                pea.l      [A0 + 0x2]
00000690  486E FEE8                pea.l      [A6 - 0x118]
00000694  486E FEE8                pea.l      [A6 - 0x118]
00000698  4267                     clr.w      -[A7]
0000069A  2F2D B590                move.l     -[A7], [A5 - 0x4A70]
0000069E  A8EC                     syscall    CopyBits
label000006A0:
000006A0  0C6D 0004 F858           cmpi.w     [A5 - 0x7A8], 0x4
000006A6  6600 01E8                bne        +0x1EA /* 00000890 */
000006AA  A89E                     syscall    PenNormal
000006AC  486E FEE8                pea.l      [A6 - 0x118]
000006B0  3F3C 0180                move.w     -[A7], 0x180
000006B4  3F3C 0005                move.w     -[A7], 0x5
000006B8  3F3C 018C                move.w     -[A7], 0x18C
000006BC  3F3C 0014                move.w     -[A7], 0x14
000006C0  A8A7                     syscall    SetRect
000006C2  486E FEE8                pea.l      [A6 - 0x118]
000006C6  A8A2                     syscall    PaintRect
000006C8  3F2E FEEA                move.w     -[A7], [A6 - 0x116]
000006CC  302E FEEC                move.w     D0, [A6 - 0x114]
000006D0  5540                     subq.w     D0, 2
000006D2  3F00                     move.w     -[A7], D0
000006D4  A893                     syscall    MoveTo
000006D6  3F3C 0010                move.w     -[A7], 0x10
000006DA  A887                     syscall    TextFont
000006DC  3F3C 000C                move.w     -[A7], 0xC
000006E0  A88A                     syscall    TextSize
000006E2  302D F858                move.w     D0, [A5 - 0x7A8]
000006E6  5340                     subq.w     D0, 1
000006E8  48C0                     ext.l      D0
000006EA  2F00                     move.l     -[A7], D0
000006EC  486E FEF0                pea.l      [A6 - 0x110]
000006F0  4EAD 0142                jsr        [A5 + 0x142 /* export_36, CODE:1 @ 000007D2 */]
000006F4  4A2D FE7A                tst.b      [A5 - 0x186]
000006F8  6762                     beq        +0x64 /* 0000075C */
000006FA  486D B7E4                pea.l      [A5 - 0x481C]
000006FE  AA14                     syscall    RGBForeColor
00000700  3F3C 0001                move.w     -[A7], 0x1
00000704  A89C                     syscall    PenMode
00000706  486E FEF0                pea.l      [A6 - 0x110]
0000070A  A884                     syscall    DrawString
0000070C  A89E                     syscall    PenNormal
0000070E  486D B7D2                pea.l      [A5 - 0x482E]
00000712  AA14                     syscall    RGBForeColor
00000714  206D B7B2                movea.l    A0, [A5 - 0x484E]
00000718  2068 0002                movea.l    A0, [A0 + 0x2]
0000071C  2F10                     move.l     -[A7], [A0]
0000071E  206D B7B6                movea.l    A0, [A5 - 0x484A]
00000722  2068 0002                movea.l    A0, [A0 + 0x2]
00000726  2F10                     move.l     -[A7], [A0]
00000728  486E FEE8                pea.l      [A6 - 0x118]
0000072C  486E FEE8                pea.l      [A6 - 0x118]
00000730  4267                     clr.w      -[A7]
00000732  42A7                     clr.l      -[A7]
00000734  A8EC                     syscall    CopyBits
00000736  206D B7B2                movea.l    A0, [A5 - 0x484E]
0000073A  2068 0002                movea.l    A0, [A0 + 0x2]
0000073E  2F10                     move.l     -[A7], [A0]
00000740  206D B560                movea.l    A0, [A5 - 0x4AA0]
00000744  4868 0002                pea.l      [A0 + 0x2]
00000748  486E FEE8                pea.l      [A6 - 0x118]
0000074C  486E FEE8                pea.l      [A6 - 0x118]
00000750  4267                     clr.w      -[A7]
00000752  2F2D B590                move.l     -[A7], [A5 - 0x4A70]
00000756  A8EC                     syscall    CopyBits
00000758  6000 0136                bra        +0x138 /* 00000890 */
label0000075C:
0000075C  3F3C 000A                move.w     -[A7], 0xA /* '\n' */
00000760  A889                     syscall    TextMode
00000762  486E FEF0                pea.l      [A6 - 0x110]
00000766  A884                     syscall    DrawString
00000768  A89E                     syscall    PenNormal
0000076A  486D B5A2                pea.l      [A5 - 0x4A5E]
0000076E  486D B5B0                pea.l      [A5 - 0x4A50]
00000772  486E FEE8                pea.l      [A6 - 0x118]
00000776  486E FEE8                pea.l      [A6 - 0x118]
0000077A  4267                     clr.w      -[A7]
0000077C  42A7                     clr.l      -[A7]
0000077E  A8EC                     syscall    CopyBits
00000780  486D B5A2                pea.l      [A5 - 0x4A5E]
00000784  206D B560                movea.l    A0, [A5 - 0x4AA0]
00000788  4868 0002                pea.l      [A0 + 0x2]
0000078C  486E FEE8                pea.l      [A6 - 0x118]
00000790  486E FEE8                pea.l      [A6 - 0x118]
00000794  4267                     clr.w      -[A7]
00000796  2F2D B590                move.l     -[A7], [A5 - 0x4A70]
0000079A  A8EC                     syscall    CopyBits
0000079C  6000 00F2                bra        +0xF4 /* 00000890 */
label000007A0:
000007A0  A89E                     syscall    PenNormal
000007A2  486E FEE8                pea.l      [A6 - 0x118]
000007A6  3F3C 0180                move.w     -[A7], 0x180
000007AA  3F3C 0005                move.w     -[A7], 0x5
000007AE  3F3C 018C                move.w     -[A7], 0x18C
000007B2  3F3C 0014                move.w     -[A7], 0x14
000007B6  A8A7                     syscall    SetRect
000007B8  486E FEE8                pea.l      [A6 - 0x118]
000007BC  A8A2                     syscall    PaintRect
000007BE  3F2E FEEA                move.w     -[A7], [A6 - 0x116]
000007C2  302E FEEC                move.w     D0, [A6 - 0x114]
000007C6  5540                     subq.w     D0, 2
000007C8  3F00                     move.w     -[A7], D0
000007CA  A893                     syscall    MoveTo
000007CC  3F3C 0010                move.w     -[A7], 0x10
000007D0  A887                     syscall    TextFont
000007D2  3F3C 000C                move.w     -[A7], 0xC
000007D6  A88A                     syscall    TextSize
000007D8  302D F858                move.w     D0, [A5 - 0x7A8]
000007DC  5340                     subq.w     D0, 1
000007DE  48C0                     ext.l      D0
000007E0  2F00                     move.l     -[A7], D0
000007E2  486E FEF0                pea.l      [A6 - 0x110]
000007E6  4EAD 0142                jsr        [A5 + 0x142 /* export_36, CODE:1 @ 000007D2 */]
000007EA  4A2D FE7A                tst.b      [A5 - 0x186]
000007EE  6760                     beq        +0x62 /* 00000850 */
000007F0  486D B7E4                pea.l      [A5 - 0x481C]
000007F4  AA14                     syscall    RGBForeColor
000007F6  3F3C 0001                move.w     -[A7], 0x1
000007FA  A89C                     syscall    PenMode
000007FC  486E FEF0                pea.l      [A6 - 0x110]
00000800  A884                     syscall    DrawString
00000802  A89E                     syscall    PenNormal
00000804  486D B7D2                pea.l      [A5 - 0x482E]
00000808  AA14                     syscall    RGBForeColor
0000080A  206D B7B2                movea.l    A0, [A5 - 0x484E]
0000080E  2068 0002                movea.l    A0, [A0 + 0x2]
00000812  2F10                     move.l     -[A7], [A0]
00000814  206D B7B6                movea.l    A0, [A5 - 0x484A]
00000818  2068 0002                movea.l    A0, [A0 + 0x2]
0000081C  2F10                     move.l     -[A7], [A0]
0000081E  486E FEE8                pea.l      [A6 - 0x118]
00000822  486E FEE8                pea.l      [A6 - 0x118]
00000826  4267                     clr.w      -[A7]
00000828  42A7                     clr.l      -[A7]
0000082A  A8EC                     syscall    CopyBits
0000082C  206D B7B2                movea.l    A0, [A5 - 0x484E]
00000830  2068 0002                movea.l    A0, [A0 + 0x2]
00000834  2F10                     move.l     -[A7], [A0]
00000836  206D B560                movea.l    A0, [A5 - 0x4AA0]
0000083A  4868 0002                pea.l      [A0 + 0x2]
0000083E  486E FEE8                pea.l      [A6 - 0x118]
00000842  486E FEE8                pea.l      [A6 - 0x118]
00000846  4267                     clr.w      -[A7]
00000848  2F2D B590                move.l     -[A7], [A5 - 0x4A70]
0000084C  A8EC                     syscall    CopyBits
0000084E  6040                     bra        +0x42 /* 00000890 */
label00000850:
00000850  3F3C 000A                move.w     -[A7], 0xA /* '\n' */
00000854  A889                     syscall    TextMode
00000856  486E FEF0                pea.l      [A6 - 0x110]
0000085A  A884                     syscall    DrawString
0000085C  A89E                     syscall    PenNormal
0000085E  486D B5A2                pea.l      [A5 - 0x4A5E]
00000862  486D B5B0                pea.l      [A5 - 0x4A50]
00000866  486E FEE8                pea.l      [A6 - 0x118]
0000086A  486E FEE8                pea.l      [A6 - 0x118]
0000086E  4267                     clr.w      -[A7]
00000870  42A7                     clr.l      -[A7]
00000872  A8EC                     syscall    CopyBits
00000874  486D B5A2                pea.l      [A5 - 0x4A5E]
00000878  206D B560                movea.l    A0, [A5 - 0x4AA0]
0000087C  4868 0002                pea.l      [A0 + 0x2]
00000880  486E FEE8                pea.l      [A6 - 0x118]
00000884  486E FEE8                pea.l      [A6 - 0x118]
00000888  4267                     clr.w      -[A7]
0000088A  2F2D B590                move.l     -[A7], [A5 - 0x4A70]
0000088E  A8EC                     syscall    CopyBits
label00000890:
00000890  3007                     move.w     D0, D7
00000892  E740                     asl        D0.w, 3
00000894  0640 FC8A                addi.w     D0, 0xFC8A
00000898  41F5 0000                lea.l      A0, [A5 + D0.w]
0000089C  43EE FED8                lea.l      A1, [A6 - 0x128]
000008A0  22D8                     move.l     [A1]+, [A0]+
000008A2  22D8                     move.l     [A1]+, [A0]+
000008A4  486E FED8                pea.l      [A6 - 0x128]
000008A8  302E FEDA                move.w     D0, [A6 - 0x126]
000008AC  4440                     neg.w      D0
000008AE  3F00                     move.w     -[A7], D0
000008B0  302E FED8                move.w     D0, [A6 - 0x128]
000008B4  4440                     neg.w      D0
000008B6  3F00                     move.w     -[A7], D0
000008B8  A8A8                     syscall    OffsetRect
000008BA  486E FED8                pea.l      [A6 - 0x128]
000008BE  3007                     move.w     D0, D7
000008C0  E740                     asl        D0.w, 3
000008C2  0640 FD14                addi.w     D0, 0xFD14
000008C6  3F35 0000                move.w     -[A7], [A5 + D0.w]
000008CA  3007                     move.w     D0, D7
000008CC  E740                     asl        D0.w, 3
000008CE  0640 FD12                addi.w     D0, 0xFD12
000008D2  3F35 0000                move.w     -[A7], [A5 + D0.w]
000008D6  A8A8                     syscall    OffsetRect
000008D8  102D FE6F                move.b     D0, [A5 - 0x191]
000008DC  5300                     subq.b     D0, 1
000008DE  6700 0962                beq        +0x964 /* 00001242 */
000008E2  4A2D FE7A                tst.b      [A5 - 0x186]
000008E6  6700 0084                beq        +0x86 /* 0000096C */
000008EA  206D B7BE                movea.l    A0, [A5 - 0x4842]
000008EE  2068 0002                movea.l    A0, [A0 + 0x2]
000008F2  2F10                     move.l     -[A7], [A0]
000008F4  206D B7B2                movea.l    A0, [A5 - 0x484E]
000008F8  2068 0002                movea.l    A0, [A0 + 0x2]
000008FC  2F10                     move.l     -[A7], [A0]
000008FE  486E FED8                pea.l      [A6 - 0x128]
00000902  3007                     move.w     D0, D7
00000904  E740                     asl        D0.w, 3
00000906  0640 FC8A                addi.w     D0, 0xFC8A
0000090A  4875 0000                pea.l      [A5 + D0.w]
0000090E  4267                     clr.w      -[A7]
00000910  42A7                     clr.l      -[A7]
00000912  A8EC                     syscall    CopyBits
00000914  206D B7BE                movea.l    A0, [A5 - 0x4842]
00000918  2068 0002                movea.l    A0, [A0 + 0x2]
0000091C  2F10                     move.l     -[A7], [A0]
0000091E  206D B7B6                movea.l    A0, [A5 - 0x484A]
00000922  2068 0002                movea.l    A0, [A0 + 0x2]
00000926  2F10                     move.l     -[A7], [A0]
00000928  486E FED8                pea.l      [A6 - 0x128]
0000092C  3007                     move.w     D0, D7
0000092E  E740                     asl        D0.w, 3
00000930  0640 FC8A                addi.w     D0, 0xFC8A
00000934  4875 0000                pea.l      [A5 + D0.w]
00000938  4267                     clr.w      -[A7]
0000093A  42A7                     clr.l      -[A7]
0000093C  A8EC                     syscall    CopyBits
0000093E  206D B7BE                movea.l    A0, [A5 - 0x4842]
00000942  2068 0002                movea.l    A0, [A0 + 0x2]
00000946  2F10                     move.l     -[A7], [A0]
00000948  206D B560                movea.l    A0, [A5 - 0x4AA0]
0000094C  4868 0002                pea.l      [A0 + 0x2]
00000950  486E FED8                pea.l      [A6 - 0x128]
00000954  3007                     move.w     D0, D7
00000956  E740                     asl        D0.w, 3
00000958  0640 FC8A                addi.w     D0, 0xFC8A
0000095C  4875 0000                pea.l      [A5 + D0.w]
00000960  4267                     clr.w      -[A7]
00000962  2F2D B590                move.l     -[A7], [A5 - 0x4A70]
00000966  A8EC                     syscall    CopyBits
00000968  6000 08D8                bra        +0x8DA /* 00001242 */
label0000096C:
0000096C  486D B5CC                pea.l      [A5 - 0x4A34]
00000970  486D B5A2                pea.l      [A5 - 0x4A5E]
00000974  486E FED8                pea.l      [A6 - 0x128]
00000978  3007                     move.w     D0, D7
0000097A  E740                     asl        D0.w, 3
0000097C  0640 FC8A                addi.w     D0, 0xFC8A
00000980  4875 0000                pea.l      [A5 + D0.w]
00000984  4267                     clr.w      -[A7]
00000986  42A7                     clr.l      -[A7]
00000988  A8EC                     syscall    CopyBits
0000098A  486D B5CC                pea.l      [A5 - 0x4A34]
0000098E  486D B5B0                pea.l      [A5 - 0x4A50]
00000992  486E FED8                pea.l      [A6 - 0x128]
00000996  3007                     move.w     D0, D7
00000998  E740                     asl        D0.w, 3
0000099A  0640 FC8A                addi.w     D0, 0xFC8A
0000099E  4875 0000                pea.l      [A5 + D0.w]
000009A2  4267                     clr.w      -[A7]
000009A4  42A7                     clr.l      -[A7]
000009A6  A8EC                     syscall    CopyBits
000009A8  486D B5CC                pea.l      [A5 - 0x4A34]
000009AC  206D B560                movea.l    A0, [A5 - 0x4AA0]
000009B0  4868 0002                pea.l      [A0 + 0x2]
000009B4  486E FED8                pea.l      [A6 - 0x128]
000009B8  3007                     move.w     D0, D7
000009BA  E740                     asl        D0.w, 3
000009BC  0640 FC8A                addi.w     D0, 0xFC8A
000009C0  4875 0000                pea.l      [A5 + D0.w]
000009C4  4267                     clr.w      -[A7]
000009C6  2F2D B590                move.l     -[A7], [A5 - 0x4A70]
000009CA  A8EC                     syscall    CopyBits
000009CC  6000 0874                bra        +0x876 /* 00001242 */
000009D0  3007                     move.w     D0, D7
000009D2  E740                     asl        D0.w, 3
000009D4  3207                     move.w     D1, D7
000009D6  E741                     asl        D1.w, 3
000009D8  0640 FC90                addi.w     D0, 0xFC90
000009DC  0641 FC8C                addi.w     D1, 0xFC8C
000009E0  3BB5 0000 1000           move.w     [A5 + D1.w], [A5 + D0.w]
000009E6  3007                     move.w     D0, D7
000009E8  E740                     asl        D0.w, 3
000009EA  3207                     move.w     D1, D7
000009EC  E741                     asl        D1.w, 3
000009EE  0640 FC90                addi.w     D0, 0xFC90
000009F2  0641 FC90                addi.w     D1, 0xFC90
000009F6  3BB5 0000 1000           move.w     [A5 + D1.w], [A5 + D0.w]
000009FC  3007                     move.w     D0, D7
000009FE  E740                     asl        D0.w, 3
00000A00  0640 FC8E                addi.w     D0, 0xFC8E
00000A04  3035 0000                move.w     D0, [A5 + D0.w]
00000A08  5B40                     subq.w     D0, 5
00000A0A  3207                     move.w     D1, D7
00000A0C  E741                     asl        D1.w, 3
00000A0E  0641 FC8A                addi.w     D1, 0xFC8A
00000A12  3B80 1000                move.w     [A5 + D1.w], D0
00000A16  3007                     move.w     D0, D7
00000A18  C1FC 000C                muls.w     D0, 0xC
00000A1C  0640 FD9A                addi.w     D0, 0xFD9A
00000A20  42B5 0000                clr.l      [A5 + D0.w]
00000A24  302D F868                move.w     D0, [A5 - 0x798]
00000A28  C1FC 013A                muls.w     D0, 0x13A
00000A2C  3207                     move.w     D1, D7
00000A2E  E941                     asl        D1.w, 4
00000A30  D041                     add.w      D0, D1
00000A32  0640 BC94                addi.w     D0, 0xBC94
00000A36  4235 0000                clr.b      [A5 + D0.w]
00000A3A  6000 0806                bra        +0x808 /* 00001242 */
00000A3E  3C07                     move.w     D6, D7
00000A40  E746                     asl        D6.w, 3
00000A42  41ED FC8A                lea.l      A0, [A5 - 0x376]
00000A46  3030 6000                move.w     D0, [A0 + D6.w]
00000A4A  906D F632                sub.w      D0, [A5 - 0x9CE]
00000A4E  5240                     addq.w     D0, 1
00000A50  3C00                     move.w     D6, D0
00000A52  302D F5FE                move.w     D0, [A5 - 0xA02]
00000A56  D046                     add.w      D0, D6
00000A58  3B40 F5FE                move.w     [A5 - 0xA02], D0
00000A5C  302D F602                move.w     D0, [A5 - 0x9FE]
00000A60  D046                     add.w      D0, D6
00000A62  3B40 F602                move.w     [A5 - 0x9FE], D0
00000A66  302D F62E                move.w     D0, [A5 - 0x9D2]
00000A6A  D046                     add.w      D0, D6
00000A6C  3B40 F62E                move.w     [A5 - 0x9D2], D0
00000A70  302D F632                move.w     D0, [A5 - 0x9CE]
00000A74  D046                     add.w      D0, D6
00000A76  3B40 F632                move.w     [A5 - 0x9CE], D0
00000A7A  1B7C 0001 FEFC           move.b     [A5 - 0x104], 0x1
00000A80  6000 07C0                bra        +0x7C2 /* 00001242 */
00000A84  3007                     move.w     D0, D7
00000A86  C1FC 000C                muls.w     D0, 0xC
00000A8A  0640 FD9E                addi.w     D0, 0xFD9E
00000A8E  4AB5 0000                tst.l      [A5 + D0.w]
00000A92  6700 07AE                beq        +0x7B0 /* 00001242 */
00000A96  3F3C 03F4                move.w     -[A7], 0x3F4
00000A9A  3F3C 0120                move.w     -[A7], 0x120
00000A9E  4EAD 01A2                jsr        [A5 + 0x1A2 /* export_48, CODE:1 @ 00000CDE */]
00000AA2  3007                     move.w     D0, D7
00000AA4  C1FC 000C                muls.w     D0, 0xC
00000AA8  322D F644                move.w     D1, [A5 - 0x9BC]
00000AAC  48C1                     ext.l      D1
00000AAE  0640 FD9E                addi.w     D0, 0xFD9E
00000AB2  D2B5 0000                add.l      D1, [A5 + D0.w]
00000AB6  3B41 F644                move.w     [A5 - 0x9BC], D1
00000ABA  3007                     move.w     D0, D7
00000ABC  C1FC 000C                muls.w     D0, 0xC
00000AC0  0640 FDA0                addi.w     D0, 0xFDA0
00000AC4  3F35 0000                move.w     -[A7], [A5 + D0.w]
00000AC8  4EBA F576                jsr        [PC - 0xA8A /* 00000040 */]
00000ACC  3007                     move.w     D0, D7
00000ACE  C1FC 000C                muls.w     D0, 0xC
00000AD2  0640 FD9E                addi.w     D0, 0xFD9E
00000AD6  42B5 0000                clr.l      [A5 + D0.w]
00000ADA  302D F868                move.w     D0, [A5 - 0x798]
00000ADE  C1FC 013A                muls.w     D0, 0x13A
00000AE2  3207                     move.w     D1, D7
00000AE4  E941                     asl        D1.w, 4
00000AE6  D041                     add.w      D0, D1
00000AE8  0640 BC90                addi.w     D0, 0xBC90
00000AEC  4275 0000                clr.w      [A5 + D0.w]
00000AF0  4EAD 022A                jsr        [A5 + 0x22A /* export_65, CODE:2 @ 0000238C */]
00000AF4  4EAD 0222                jsr        [A5 + 0x222 /* export_64, CODE:2 @ 00002282 */]
00000AF8  3007                     move.w     D0, D7
00000AFA  E740                     asl        D0.w, 3
00000AFC  0640 FC8A                addi.w     D0, 0xFC8A
00000B00  41F5 0000                lea.l      A0, [A5 + D0.w]
00000B04  43EE FED8                lea.l      A1, [A6 - 0x128]
00000B08  22D8                     move.l     [A1]+, [A0]+
00000B0A  22D8                     move.l     [A1]+, [A0]+
00000B0C  486E FED8                pea.l      [A6 - 0x128]
00000B10  302E FEDA                move.w     D0, [A6 - 0x126]
00000B14  4440                     neg.w      D0
00000B16  3F00                     move.w     -[A7], D0
00000B18  302E FED8                move.w     D0, [A6 - 0x128]
00000B1C  4440                     neg.w      D0
00000B1E  3F00                     move.w     -[A7], D0
00000B20  A8A8                     syscall    OffsetRect
00000B22  486E FED8                pea.l      [A6 - 0x128]
00000B26  3007                     move.w     D0, D7
00000B28  E740                     asl        D0.w, 3
00000B2A  0640 FD14                addi.w     D0, 0xFD14
00000B2E  3F35 0000                move.w     -[A7], [A5 + D0.w]
00000B32  3007                     move.w     D0, D7
00000B34  E740                     asl        D0.w, 3
00000B36  0640 FD12                addi.w     D0, 0xFD12
00000B3A  3F35 0000                move.w     -[A7], [A5 + D0.w]
00000B3E  A8A8                     syscall    OffsetRect
00000B40  102D FE6F                move.b     D0, [A5 - 0x191]
00000B44  5300                     subq.b     D0, 1
00000B46  6700 06FA                beq        +0x6FC /* 00001242 */
00000B4A  4A2D FE7A                tst.b      [A5 - 0x186]
00000B4E  6700 0084                beq        +0x86 /* 00000BD4 */
00000B52  206D B7BE                movea.l    A0, [A5 - 0x4842]
00000B56  2068 0002                movea.l    A0, [A0 + 0x2]
00000B5A  2F10                     move.l     -[A7], [A0]
00000B5C  206D B7B2                movea.l    A0, [A5 - 0x484E]
00000B60  2068 0002                movea.l    A0, [A0 + 0x2]
00000B64  2F10                     move.l     -[A7], [A0]
00000B66  486E FED8                pea.l      [A6 - 0x128]
00000B6A  3007                     move.w     D0, D7
00000B6C  E740                     asl        D0.w, 3
00000B6E  0640 FC8A                addi.w     D0, 0xFC8A
00000B72  4875 0000                pea.l      [A5 + D0.w]
00000B76  4267                     clr.w      -[A7]
00000B78  42A7                     clr.l      -[A7]
00000B7A  A8EC                     syscall    CopyBits
00000B7C  206D B7BE                movea.l    A0, [A5 - 0x4842]
00000B80  2068 0002                movea.l    A0, [A0 + 0x2]
00000B84  2F10                     move.l     -[A7], [A0]
00000B86  206D B7B6                movea.l    A0, [A5 - 0x484A]
00000B8A  2068 0002                movea.l    A0, [A0 + 0x2]
00000B8E  2F10                     move.l     -[A7], [A0]
00000B90  486E FED8                pea.l      [A6 - 0x128]
00000B94  3007                     move.w     D0, D7
00000B96  E740                     asl        D0.w, 3
00000B98  0640 FC8A                addi.w     D0, 0xFC8A
00000B9C  4875 0000                pea.l      [A5 + D0.w]
00000BA0  4267                     clr.w      -[A7]
00000BA2  42A7                     clr.l      -[A7]
00000BA4  A8EC                     syscall    CopyBits
00000BA6  206D B7BE                movea.l    A0, [A5 - 0x4842]
00000BAA  2068 0002                movea.l    A0, [A0 + 0x2]
00000BAE  2F10                     move.l     -[A7], [A0]
00000BB0  206D B560                movea.l    A0, [A5 - 0x4AA0]
00000BB4  4868 0002                pea.l      [A0 + 0x2]
00000BB8  486E FED8                pea.l      [A6 - 0x128]
00000BBC  3007                     move.w     D0, D7
00000BBE  E740                     asl        D0.w, 3
00000BC0  0640 FC8A                addi.w     D0, 0xFC8A
00000BC4  4875 0000                pea.l      [A5 + D0.w]
00000BC8  4267                     clr.w      -[A7]
00000BCA  2F2D B590                move.l     -[A7], [A5 - 0x4A70]
00000BCE  A8EC                     syscall    CopyBits
00000BD0  6000 0670                bra        +0x672 /* 00001242 */
label00000BD4:
00000BD4  486D B5CC                pea.l      [A5 - 0x4A34]
00000BD8  486D B5A2                pea.l      [A5 - 0x4A5E]
00000BDC  486E FED8                pea.l      [A6 - 0x128]
00000BE0  3007                     move.w     D0, D7
00000BE2  E740                     asl        D0.w, 3
00000BE4  0640 FC8A                addi.w     D0, 0xFC8A
00000BE8  4875 0000                pea.l      [A5 + D0.w]
00000BEC  4267                     clr.w      -[A7]
00000BEE  42A7                     clr.l      -[A7]
00000BF0  A8EC                     syscall    CopyBits
00000BF2  486D B5CC                pea.l      [A5 - 0x4A34]
00000BF6  486D B5B0                pea.l      [A5 - 0x4A50]
00000BFA  486E FED8                pea.l      [A6 - 0x128]
00000BFE  3007                     move.w     D0, D7
00000C00  E740                     asl        D0.w, 3
00000C02  0640 FC8A                addi.w     D0, 0xFC8A
00000C06  4875 0000                pea.l      [A5 + D0.w]
00000C0A  4267                     clr.w      -[A7]
00000C0C  42A7                     clr.l      -[A7]
00000C0E  A8EC                     syscall    CopyBits
00000C10  486D B5CC                pea.l      [A5 - 0x4A34]
00000C14  206D B560                movea.l    A0, [A5 - 0x4AA0]
00000C18  4868 0002                pea.l      [A0 + 0x2]
00000C1C  486E FED8                pea.l      [A6 - 0x128]
00000C20  3007                     move.w     D0, D7
00000C22  E740                     asl        D0.w, 3
00000C24  0640 FC8A                addi.w     D0, 0xFC8A
00000C28  4875 0000                pea.l      [A5 + D0.w]
00000C2C  4267                     clr.w      -[A7]
00000C2E  2F2D B590                move.l     -[A7], [A5 - 0x4A70]
00000C32  A8EC                     syscall    CopyBits
00000C34  6000 060C                bra        +0x60E /* 00001242 */
00000C38  3007                     move.w     D0, D7
00000C3A  C1FC 000C                muls.w     D0, 0xC
00000C3E  0640 FD9E                addi.w     D0, 0xFD9E
00000C42  4AB5 0000                tst.l      [A5 + D0.w]
00000C46  6700 05FA                beq        +0x5FC /* 00001242 */
00000C4A  3F3C 03F1                move.w     -[A7], 0x3F1
00000C4E  3F3C 00F0                move.w     -[A7], 0xF0
00000C52  4EAD 01A2                jsr        [A5 + 0x1A2 /* export_48, CODE:1 @ 00000CDE */]
00000C56  3007                     move.w     D0, D7
00000C58  C1FC 000C                muls.w     D0, 0xC
00000C5C  322D F646                move.w     D1, [A5 - 0x9BA]
00000C60  48C1                     ext.l      D1
00000C62  0640 FD9E                addi.w     D0, 0xFD9E
00000C66  D2B5 0000                add.l      D1, [A5 + D0.w]
00000C6A  3B41 F646                move.w     [A5 - 0x9BA], D1
00000C6E  3007                     move.w     D0, D7
00000C70  C1FC 000C                muls.w     D0, 0xC
00000C74  0640 FDA0                addi.w     D0, 0xFDA0
00000C78  3F35 0000                move.w     -[A7], [A5 + D0.w]
00000C7C  4EBA F3C2                jsr        [PC - 0xC3E /* 00000040 */]
00000C80  3007                     move.w     D0, D7
00000C82  C1FC 000C                muls.w     D0, 0xC
00000C86  0640 FD9E                addi.w     D0, 0xFD9E
00000C8A  42B5 0000                clr.l      [A5 + D0.w]
00000C8E  302D F868                move.w     D0, [A5 - 0x798]
00000C92  C1FC 013A                muls.w     D0, 0x13A
00000C96  3207                     move.w     D1, D7
00000C98  E941                     asl        D1.w, 4
00000C9A  D041                     add.w      D0, D1
00000C9C  0640 BC90                addi.w     D0, 0xBC90
00000CA0  4275 0000                clr.w      [A5 + D0.w]
00000CA4  4EAD 023A                jsr        [A5 + 0x23A /* export_67, CODE:2 @ 00002564 */]
00000CA8  4EAD 0232                jsr        [A5 + 0x232 /* export_66, CODE:2 @ 0000245A */]
00000CAC  3007                     move.w     D0, D7
00000CAE  E740                     asl        D0.w, 3
00000CB0  0640 FC8A                addi.w     D0, 0xFC8A
00000CB4  41F5 0000                lea.l      A0, [A5 + D0.w]
00000CB8  43EE FED8                lea.l      A1, [A6 - 0x128]
00000CBC  22D8                     move.l     [A1]+, [A0]+
00000CBE  22D8                     move.l     [A1]+, [A0]+
00000CC0  486E FED8                pea.l      [A6 - 0x128]
00000CC4  302E FEDA                move.w     D0, [A6 - 0x126]
00000CC8  4440                     neg.w      D0
00000CCA  3F00                     move.w     -[A7], D0
00000CCC  302E FED8                move.w     D0, [A6 - 0x128]
00000CD0  4440                     neg.w      D0
00000CD2  3F00                     move.w     -[A7], D0
00000CD4  A8A8                     syscall    OffsetRect
00000CD6  486E FED8                pea.l      [A6 - 0x128]
00000CDA  3007                     move.w     D0, D7
00000CDC  E740                     asl        D0.w, 3
00000CDE  0640 FD14                addi.w     D0, 0xFD14
00000CE2  3F35 0000                move.w     -[A7], [A5 + D0.w]
00000CE6  3007                     move.w     D0, D7
00000CE8  E740                     asl        D0.w, 3
00000CEA  0640 FD12                addi.w     D0, 0xFD12
00000CEE  3F35 0000                move.w     -[A7], [A5 + D0.w]
00000CF2  A8A8                     syscall    OffsetRect
00000CF4  102D FE6F                move.b     D0, [A5 - 0x191]
00000CF8  5300                     subq.b     D0, 1
00000CFA  6700 0546                beq        +0x548 /* 00001242 */
00000CFE  4A2D FE7A                tst.b      [A5 - 0x186]
00000D02  6700 0084                beq        +0x86 /* 00000D88 */
00000D06  206D B7BE                movea.l    A0, [A5 - 0x4842]
00000D0A  2068 0002                movea.l    A0, [A0 + 0x2]
00000D0E  2F10                     move.l     -[A7], [A0]
00000D10  206D B7B2                movea.l    A0, [A5 - 0x484E]
00000D14  2068 0002                movea.l    A0, [A0 + 0x2]
00000D18  2F10                     move.l     -[A7], [A0]
00000D1A  486E FED8                pea.l      [A6 - 0x128]
00000D1E  3007                     move.w     D0, D7
00000D20  E740                     asl        D0.w, 3
00000D22  0640 FC8A                addi.w     D0, 0xFC8A
00000D26  4875 0000                pea.l      [A5 + D0.w]
00000D2A  4267                     clr.w      -[A7]
00000D2C  42A7                     clr.l      -[A7]
00000D2E  A8EC                     syscall    CopyBits
00000D30  206D B7BE                movea.l    A0, [A5 - 0x4842]
00000D34  2068 0002                movea.l    A0, [A0 + 0x2]
00000D38  2F10                     move.l     -[A7], [A0]
00000D3A  206D B7B6                movea.l    A0, [A5 - 0x484A]
00000D3E  2068 0002                movea.l    A0, [A0 + 0x2]
00000D42  2F10                     move.l     -[A7], [A0]
00000D44  486E FED8                pea.l      [A6 - 0x128]
00000D48  3007                     move.w     D0, D7
00000D4A  E740                     asl        D0.w, 3
00000D4C  0640 FC8A                addi.w     D0, 0xFC8A
00000D50  4875 0000                pea.l      [A5 + D0.w]
00000D54  4267                     clr.w      -[A7]
00000D56  42A7                     clr.l      -[A7]
00000D58  A8EC                     syscall    CopyBits
00000D5A  206D B7BE                movea.l    A0, [A5 - 0x4842]
00000D5E  2068 0002                movea.l    A0, [A0 + 0x2]
00000D62  2F10                     move.l     -[A7], [A0]
00000D64  206D B560                movea.l    A0, [A5 - 0x4AA0]
00000D68  4868 0002                pea.l      [A0 + 0x2]
00000D6C  486E FED8                pea.l      [A6 - 0x128]
00000D70  3007                     move.w     D0, D7
00000D72  E740                     asl        D0.w, 3
00000D74  0640 FC8A                addi.w     D0, 0xFC8A
00000D78  4875 0000                pea.l      [A5 + D0.w]
00000D7C  4267                     clr.w      -[A7]
00000D7E  2F2D B590                move.l     -[A7], [A5 - 0x4A70]
00000D82  A8EC                     syscall    CopyBits
00000D84  6000 04BC                bra        +0x4BE /* 00001242 */
label00000D88:
00000D88  486D B5CC                pea.l      [A5 - 0x4A34]
00000D8C  486D B5A2                pea.l      [A5 - 0x4A5E]
00000D90  486E FED8                pea.l      [A6 - 0x128]
00000D94  3007                     move.w     D0, D7
00000D96  E740                     asl        D0.w, 3
00000D98  0640 FC8A                addi.w     D0, 0xFC8A
00000D9C  4875 0000                pea.l      [A5 + D0.w]
00000DA0  4267                     clr.w      -[A7]
00000DA2  42A7                     clr.l      -[A7]
00000DA4  A8EC                     syscall    CopyBits
00000DA6  486D B5CC                pea.l      [A5 - 0x4A34]
00000DAA  486D B5B0                pea.l      [A5 - 0x4A50]
00000DAE  486E FED8                pea.l      [A6 - 0x128]
00000DB2  3007                     move.w     D0, D7
00000DB4  E740                     asl        D0.w, 3
00000DB6  0640 FC8A                addi.w     D0, 0xFC8A
00000DBA  4875 0000                pea.l      [A5 + D0.w]
00000DBE  4267                     clr.w      -[A7]
00000DC0  42A7                     clr.l      -[A7]
00000DC2  A8EC                     syscall    CopyBits
00000DC4  486D B5CC                pea.l      [A5 - 0x4A34]
00000DC8  206D B560                movea.l    A0, [A5 - 0x4AA0]
00000DCC  4868 0002                pea.l      [A0 + 0x2]
00000DD0  486E FED8                pea.l      [A6 - 0x128]
00000DD4  3007                     move.w     D0, D7
00000DD6  E740                     asl        D0.w, 3
00000DD8  0640 FC8A                addi.w     D0, 0xFC8A
00000DDC  4875 0000                pea.l      [A5 + D0.w]
00000DE0  4267                     clr.w      -[A7]
00000DE2  2F2D B590                move.l     -[A7], [A5 - 0x4A70]
00000DE6  A8EC                     syscall    CopyBits
00000DE8  6000 0458                bra        +0x45A /* 00001242 */
00000DEC  3007                     move.w     D0, D7
00000DEE  C1FC 000C                muls.w     D0, 0xC
00000DF2  0640 FD9E                addi.w     D0, 0xFD9E
00000DF6  4AB5 0000                tst.l      [A5 + D0.w]
00000DFA  6700 0446                beq        +0x448 /* 00001242 */
00000DFE  3F3C 03F5                move.w     -[A7], 0x3F5
00000E02  3F3C 0110                move.w     -[A7], 0x110
00000E06  4EAD 01A2                jsr        [A5 + 0x1A2 /* export_48, CODE:1 @ 00000CDE */]
00000E0A  4EAD 021A                jsr        [A5 + 0x21A /* export_63, CODE:2 @ 00002258 */]
00000E0E  3007                     move.w     D0, D7
00000E10  C1FC 000C                muls.w     D0, 0xC
00000E14  222D F822                move.l     D1, [A5 - 0x7DE]
00000E18  0640 FD9E                addi.w     D0, 0xFD9E
00000E1C  D2B5 0000                add.l      D1, [A5 + D0.w]
00000E20  2B41 F822                move.l     [A5 - 0x7DE], D1
00000E24  3007                     move.w     D0, D7
00000E26  C1FC 000C                muls.w     D0, 0xC
00000E2A  0640 FDA0                addi.w     D0, 0xFDA0
00000E2E  3F35 0000                move.w     -[A7], [A5 + D0.w]
00000E32  4EBA F20C                jsr        [PC - 0xDF4 /* 00000040 */]
00000E36  3007                     move.w     D0, D7
00000E38  C1FC 000C                muls.w     D0, 0xC
00000E3C  0640 FD9E                addi.w     D0, 0xFD9E
00000E40  42B5 0000                clr.l      [A5 + D0.w]
00000E44  6000 03FC                bra        +0x3FE /* 00001242 */
00000E48  4A2D FE6F                tst.b      [A5 - 0x191]
00000E4C  6700 03F4                beq        +0x3F6 /* 00001242 */
00000E50  3F3C 03FA                move.w     -[A7], 0x3FA
00000E54  3F3C 00D0                move.w     -[A7], 0xD0
00000E58  4EAD 01A2                jsr        [A5 + 0x1A2 /* export_48, CODE:1 @ 00000CDE */]
00000E5C  422D FE6F                clr.b      [A5 - 0x191]
00000E60  302D F868                move.w     D0, [A5 - 0x798]
00000E64  C1FC 013A                muls.w     D0, 0x13A
00000E68  0640 BC94                addi.w     D0, 0xBC94
00000E6C  4275 0000                clr.w      [A5 + D0.w]
00000E70  554F                     subq.w     A7, 2
00000E72  302D F868                move.w     D0, [A5 - 0x798]
00000E76  C1FC 013A                muls.w     D0, 0x13A
00000E7A  0640 BC78                addi.w     D0, 0xBC78
00000E7E  3F35 0000                move.w     -[A7], [A5 + D0.w]
00000E82  4EAD 0202                jsr        [A5 + 0x202 /* export_60, CODE:2 @ 00000118 */]
00000E86  101F                     move.b     D0, [A7]+
00000E88  5300                     subq.b     D0, 1
00000E8A  6708                     beq        +0xA /* 00000E94 */
00000E8C  4EAD 0282                jsr        [A5 + 0x282 /* export_76, CODE:2 @ 0000582C */]
00000E90  6000 03B0                bra        +0x3B2 /* 00001242 */
label00000E94:
00000E94  4EAD 01FA                jsr        [A5 + 0x1FA /* export_59, CODE:2 @ 00000048 */]
00000E98  4EAD 020A                jsr        [A5 + 0x20A /* export_61, CODE:2 @ 0000185C */]
00000E9C  4EAD 0242                jsr        [A5 + 0x242 /* export_68, CODE:2 @ 00002632 */]
00000EA0  4A2D FE7A                tst.b      [A5 - 0x186]
00000EA4  674A                     beq        +0x4C /* 00000EF0 */
00000EA6  206D B7B2                movea.l    A0, [A5 - 0x484E]
00000EAA  2068 0002                movea.l    A0, [A0 + 0x2]
00000EAE  2F10                     move.l     -[A7], [A0]
00000EB0  206D B7B6                movea.l    A0, [A5 - 0x484A]
00000EB4  2068 0002                movea.l    A0, [A0 + 0x2]
00000EB8  2F10                     move.l     -[A7], [A0]
00000EBA  486D B568                pea.l      [A5 - 0x4A98]
00000EBE  486D B568                pea.l      [A5 - 0x4A98]
00000EC2  4267                     clr.w      -[A7]
00000EC4  2F2D B590                move.l     -[A7], [A5 - 0x4A70]
00000EC8  A8EC                     syscall    CopyBits
00000ECA  206D B7B2                movea.l    A0, [A5 - 0x484E]
00000ECE  2068 0002                movea.l    A0, [A0 + 0x2]
00000ED2  2F10                     move.l     -[A7], [A0]
00000ED4  206D B560                movea.l    A0, [A5 - 0x4AA0]
00000ED8  4868 0002                pea.l      [A0 + 0x2]
00000EDC  486D B568                pea.l      [A5 - 0x4A98]
00000EE0  486D B568                pea.l      [A5 - 0x4A98]
00000EE4  4267                     clr.w      -[A7]
00000EE6  2F2D B590                move.l     -[A7], [A5 - 0x4A70]
00000EEA  A8EC                     syscall    CopyBits
00000EEC  6000 0354                bra        +0x356 /* 00001242 */
label00000EF0:
00000EF0  486D B5A2                pea.l      [A5 - 0x4A5E]
00000EF4  486D B5B0                pea.l      [A5 - 0x4A50]
00000EF8  486D B568                pea.l      [A5 - 0x4A98]
00000EFC  486D B568                pea.l      [A5 - 0x4A98]
00000F00  4267                     clr.w      -[A7]
00000F02  2F2D B590                move.l     -[A7], [A5 - 0x4A70]
00000F06  A8EC                     syscall    CopyBits
00000F08  486D B5A2                pea.l      [A5 - 0x4A5E]
00000F0C  206D B560                movea.l    A0, [A5 - 0x4AA0]
00000F10  4868 0002                pea.l      [A0 + 0x2]
00000F14  486D B568                pea.l      [A5 - 0x4A98]
00000F18  486D B568                pea.l      [A5 - 0x4A98]
00000F1C  4267                     clr.w      -[A7]
00000F1E  2F2D B590                move.l     -[A7], [A5 - 0x4A70]
00000F22  A8EC                     syscall    CopyBits
00000F24  6000 031C                bra        +0x31E /* 00001242 */
00000F28  4A2D FE70                tst.b      [A5 - 0x190]
00000F2C  6700 0314                beq        +0x316 /* 00001242 */
00000F30  3F3C 03EB                move.w     -[A7], 0x3EB
00000F34  3F3C 00E0                move.w     -[A7], 0xE0
00000F38  4EAD 01A2                jsr        [A5 + 0x1A2 /* export_48, CODE:1 @ 00000CDE */]
00000F3C  422D FE70                clr.b      [A5 - 0x190]
00000F40  6000 0300                bra        +0x302 /* 00001242 */
00000F44  3007                     move.w     D0, D7
00000F46  C1FC 000C                muls.w     D0, 0xC
00000F4A  0640 FD9E                addi.w     D0, 0xFD9E
00000F4E  4AB5 0000                tst.l      [A5 + D0.w]
00000F52  6700 02EE                beq        +0x2F0 /* 00001242 */
00000F56  422D FE83                clr.b      [A5 - 0x17D]
00000F5A  3F3C 0400                move.w     -[A7], 0x400
00000F5E  3F3C 0040                move.w     -[A7], 0x40 /* '@' */
00000F62  4EAD 01A2                jsr        [A5 + 0x1A2 /* export_48, CODE:1 @ 00000CDE */]
00000F66  3B7C 0002 F63A           move.w     [A5 - 0x9C6], 0x2
00000F6C  302D F602                move.w     D0, [A5 - 0x9FE]
00000F70  0640 FFEC                addi.w     D0, 0xFFEC
00000F74  3B40 F5FE                move.w     [A5 - 0xA02], D0
00000F78  4A2D F649                tst.b      [A5 - 0x9B7]
00000F7C  6708                     beq        +0xA /* 00000F86 */
00000F7E  426D F63E                clr.w      [A5 - 0x9C2]
00000F82  6000 02BE                bra        +0x2C0 /* 00001242 */
label00000F86:
00000F86  3B7C 0002 F63E           move.w     [A5 - 0x9C2], 0x2
00000F8C  6000 02B4                bra        +0x2B6 /* 00001242 */
00000F90  3007                     move.w     D0, D7
00000F92  C1FC 000C                muls.w     D0, 0xC
00000F96  2F00                     move.l     -[A7], D0
00000F98  594F                     subq.w     A7, 4
00000F9A  A975                     syscall    TickCount
00000F9C  221F                     move.l     D1, [A7]+
00000F9E  201F                     move.l     D0, [A7]+
00000FA0  0640 FDA2                addi.w     D0, 0xFDA2
00000FA4  B2B5 0000                cmp.l      D1, [A5 + D0.w]
00000FA8  6F00 0298                ble        +0x29A /* 00001242 */
00000FAC  3F3C 03FA                move.w     -[A7], 0x3FA
00000FB0  3F3C 00D0                move.w     -[A7], 0xD0
00000FB4  4EAD 01A2                jsr        [A5 + 0x1A2 /* export_48, CODE:1 @ 00000CDE */]
00000FB8  3C07                     move.w     D6, D7
00000FBA  CDFC 000C                muls.w     D6, 0xC
00000FBE  41ED FDA0                lea.l      A0, [A5 - 0x260]
00000FC2  3C30 6000                move.w     D6, [A0 + D6.w]
00000FC6  302D F868                move.w     D0, [A5 - 0x798]
00000FCA  C1FC 013A                muls.w     D0, 0x13A
00000FCE  3206                     move.w     D1, D6
00000FD0  E941                     asl        D1.w, 4
00000FD2  D041                     add.w      D0, D1
00000FD4  0640 BC86                addi.w     D0, 0xBC86
00000FD8  49F5 0000                lea.l      A4, [A5 + D0.w]
00000FDC  102C 000E                move.b     D0, [A4 + 0xE]
00000FE0  5300                     subq.b     D0, 1
00000FE2  4400                     neg.b      D0
00000FE4  1940 000E                move.b     [A4 + 0xE], D0
00000FE8  3014                     move.w     D0, [A4]
00000FEA  6000 00B4                bra        +0xB6 /* 000010A0 */
label00000FEE:
00000FEE  3006                     move.w     D0, D6
00000FF0  C1FC 000C                muls.w     D0, 0xC
00000FF4  0640 FD9A                addi.w     D0, 0xFD9A
00000FF8  4AB5 0000                tst.l      [A5 + D0.w]
00000FFC  6620                     bne        +0x22 /* 0000101E */
00000FFE  3F3C 03EB                move.w     -[A7], 0x3EB
00001002  3F3C 00E0                move.w     -[A7], 0xE0
00001006  4EAD 01A2                jsr        [A5 + 0x1A2 /* export_48, CODE:1 @ 00000CDE */]
0000100A  3006                     move.w     D0, D6
0000100C  C1FC 000C                muls.w     D0, 0xC
00001010  0640 FD9A                addi.w     D0, 0xFD9A
00001014  7206                     moveq.l    D1, 0x06
00001016  2B81 0000                move.l     [A5 + D0.w], D1
0000101A  6000 0096                bra        +0x98 /* 000010B2 */
label0000101E:
0000101E  3006                     move.w     D0, D6
00001020  C1FC 000C                muls.w     D0, 0xC
00001024  0640 FD9A                addi.w     D0, 0xFD9A
00001028  42B5 0000                clr.l      [A5 + D0.w]
0000102C  6000 0084                bra        +0x86 /* 000010B2 */
label00001030:
00001030  3006                     move.w     D0, D6
00001032  C1FC 000C                muls.w     D0, 0xC
00001036  0640 FD9A                addi.w     D0, 0xFD9A
0000103A  4AB5 0000                tst.l      [A5 + D0.w]
0000103E  661E                     bne        +0x20 /* 0000105E */
00001040  3F3C 03EB                move.w     -[A7], 0x3EB
00001044  3F3C 00E0                move.w     -[A7], 0xE0
00001048  4EAD 01A2                jsr        [A5 + 0x1A2 /* export_48, CODE:1 @ 00000CDE */]
0000104C  3006                     move.w     D0, D6
0000104E  C1FC 000C                muls.w     D0, 0xC
00001052  0640 FD9A                addi.w     D0, 0xFD9A
00001056  7207                     moveq.l    D1, 0x07
00001058  2B81 0000                move.l     [A5 + D0.w], D1
0000105C  6054                     bra        +0x56 /* 000010B2 */
label0000105E:
0000105E  3006                     move.w     D0, D6
00001060  C1FC 000C                muls.w     D0, 0xC
00001064  0640 FD9A                addi.w     D0, 0xFD9A
00001068  42B5 0000                clr.l      [A5 + D0.w]
0000106C  6044                     bra        +0x46 /* 000010B2 */
label0000106E:
0000106E  3006                     move.w     D0, D6
00001070  C1FC 000C                muls.w     D0, 0xC
00001074  0640 FD9A                addi.w     D0, 0xFD9A
00001078  4AB5 0000                tst.l      [A5 + D0.w]
0000107C  6612                     bne        +0x14 /* 00001090 */
0000107E  3006                     move.w     D0, D6
00001080  C1FC 000C                muls.w     D0, 0xC
00001084  0640 FD9A                addi.w     D0, 0xFD9A
00001088  7212                     moveq.l    D1, 0x12
0000108A  2B81 0000                move.l     [A5 + D0.w], D1
0000108E  6022                     bra        +0x24 /* 000010B2 */
label00001090:
00001090  3006                     move.w     D0, D6
00001092  C1FC 000C                muls.w     D0, 0xC
00001096  0640 FD9A                addi.w     D0, 0xFD9A
0000109A  42B5 0000                clr.l      [A5 + D0.w]
0000109E  6012                     bra        +0x14 /* 000010B2 */
label000010A0:
000010A0  0640 FFF4                addi.w     D0, 0xFFF4
000010A4  6700 FF48                beq        -0xB6 /* 00000FEE */
000010A8  5340                     subq.w     D0, 1
000010AA  6784                     beq        -0x7A /* 00001030 */
000010AC  0640 FFF2                addi.w     D0, 0xFFF2
000010B0  67BC                     beq        -0x42 /* 0000106E */
label000010B2:
000010B2  594F                     subq.w     A7, 4
000010B4  A975                     syscall    TickCount
000010B6  705A                     moveq.l    D0, 0x5A
000010B8  D09F                     add.l      D0, [A7]+
000010BA  3207                     move.w     D1, D7
000010BC  C3FC 000C                muls.w     D1, 0xC
000010C0  0641 FDA2                addi.w     D1, 0xFDA2
000010C4  2B80 1000                move.l     [A5 + D1.w], D0
000010C8  6000 0178                bra        +0x17A /* 00001242 */
000010CC  3007                     move.w     D0, D7
000010CE  C1FC 000C                muls.w     D0, 0xC
000010D2  2F00                     move.l     -[A7], D0
000010D4  594F                     subq.w     A7, 4
000010D6  A975                     syscall    TickCount
000010D8  221F                     move.l     D1, [A7]+
000010DA  201F                     move.l     D0, [A7]+
000010DC  0640 FD9E                addi.w     D0, 0xFD9E
000010E0  B2B5 0000                cmp.l      D1, [A5 + D0.w]
000010E4  6F00 015C                ble        +0x15E /* 00001242 */
000010E8  3F3C 03F7                move.w     -[A7], 0x3F7
000010EC  3F3C 0070                move.w     -[A7], 0x70 /* 'p' */
000010F0  4EAD 01A2                jsr        [A5 + 0x1A2 /* export_48, CODE:1 @ 00000CDE */]
000010F4  594F                     subq.w     A7, 4
000010F6  A975                     syscall    TickCount
000010F8  7078                     moveq.l    D0, 0x78
000010FA  D09F                     add.l      D0, [A7]+
000010FC  3207                     move.w     D1, D7
000010FE  C3FC 000C                muls.w     D1, 0xC
00001102  0641 FD9E                addi.w     D1, 0xFD9E
00001106  2B80 1000                move.l     [A5 + D1.w], D0
0000110A  6000 0136                bra        +0x138 /* 00001242 */
0000110E  422D FE83                clr.b      [A5 - 0x17D]
00001112  3B7C 0006 F63A           move.w     [A5 - 0x9C6], 0x6
00001118  302D F602                move.w     D0, [A5 - 0x9FE]
0000111C  0640 FFEC                addi.w     D0, 0xFFEC
00001120  3B40 F5FE                move.w     [A5 - 0xA02], D0
00001124  4A2D F649                tst.b      [A5 - 0x9B7]
00001128  6706                     beq        +0x8 /* 00001130 */
0000112A  426D F63E                clr.w      [A5 - 0x9C2]
0000112E  6006                     bra        +0x8 /* 00001136 */
label00001130:
00001130  3B7C 0002 F63E           move.w     [A5 - 0x9C2], 0x2
label00001136:
00001136  3007                     move.w     D0, D7
00001138  C1FC 000C                muls.w     D0, 0xC
0000113C  0640 FDA0                addi.w     D0, 0xFDA0
00001140  3F35 0000                move.w     -[A7], [A5 + D0.w]
00001144  4EAD 02A2                jsr        [A5 + 0x2A2 /* export_80, CODE:2 @ 00006B58 */]
00001148  41ED B578                lea.l      A0, [A5 - 0x4A88]
0000114C  43ED FEF4                lea.l      A1, [A5 - 0x10C]
00001150  22D8                     move.l     [A1]+, [A0]+
00001152  22D8                     move.l     [A1]+, [A0]+
00001154  6000 00EC                bra        +0xEE /* 00001242 */
00001158  422D FE83                clr.b      [A5 - 0x17D]
0000115C  3B7C 0007 F63A           move.w     [A5 - 0x9C6], 0x7
00001162  302D F602                move.w     D0, [A5 - 0x9FE]
00001166  0640 FFEC                addi.w     D0, 0xFFEC
0000116A  3B40 F5FE                move.w     [A5 - 0xA02], D0
0000116E  4A2D F649                tst.b      [A5 - 0x9B7]
00001172  6706                     beq        +0x8 /* 0000117A */
00001174  426D F63E                clr.w      [A5 - 0x9C2]
00001178  6006                     bra        +0x8 /* 00001180 */
label0000117A:
0000117A  3B7C 0002 F63E           move.w     [A5 - 0x9C2], 0x2
label00001180:
00001180  3007                     move.w     D0, D7
00001182  C1FC 000C                muls.w     D0, 0xC
00001186  0640 FDA0                addi.w     D0, 0xFDA0
0000118A  3F35 0000                move.w     -[A7], [A5 + D0.w]
0000118E  4EAD 02AA                jsr        [A5 + 0x2AA /* export_81, CODE:2 @ 00006C74 */]
00001192  41ED B578                lea.l      A0, [A5 - 0x4A88]
00001196  43ED FEF4                lea.l      A1, [A5 - 0x10C]
0000119A  22D8                     move.l     [A1]+, [A0]+
0000119C  22D8                     move.l     [A1]+, [A0]+
0000119E  6000 00A2                bra        +0xA4 /* 00001242 */
000011A2  422D FE83                clr.b      [A5 - 0x17D]
000011A6  3B7C 0008 F63A           move.w     [A5 - 0x9C6], 0x8
000011AC  3007                     move.w     D0, D7
000011AE  E740                     asl        D0.w, 3
000011B0  0640 FC8E                addi.w     D0, 0xFC8E
000011B4  3B75 0000 F5FE           move.w     [A5 - 0xA02], [A5 + D0.w]
000011BA  3B6D F5FE F602           move.w     [A5 - 0x9FE], [A5 - 0xA02]
000011C0  3007                     move.w     D0, D7
000011C2  E740                     asl        D0.w, 3
000011C4  0640 FC8C                addi.w     D0, 0xFC8C
000011C8  3035 0000                move.w     D0, [A5 + D0.w]
000011CC  0640 000C                addi.w     D0, 0xC
000011D0  3B40 F600                move.w     [A5 - 0xA00], D0
000011D4  302D F600                move.w     D0, [A5 - 0xA00]
000011D8  0640 0030                addi.w     D0, 0x30 /* '0' */
000011DC  3B40 F604                move.w     [A5 - 0x9FC], D0
000011E0  3B6D F600 F618           move.w     [A5 - 0x9E8], [A5 - 0xA00]
000011E6  3B6D F604 F61C           move.w     [A5 - 0x9E4], [A5 - 0x9FC]
000011EC  426D F63C                clr.w      [A5 - 0x9C4]
000011F0  6050                     bra        +0x52 /* 00001242 */
000011F2  3B7C FFF9 F856           move.w     [A5 - 0x7AA], 0xFFF9
000011F8  3B7C FFF9 F85A           move.w     [A5 - 0x7A6], 0xFFF9
000011FE  6042                     bra        +0x44 /* 00001242 */
label00001200:
00001200  0C40 0019                cmpi.w     D0, 0x19
00001204  643C                     bcc        +0x3E /* 00001242 */
00001206  D040                     add.w      D0, D0
00001208  303B 0006                move.w     D0, [PC + D0.w + 0x6]
0000120C  4EFB 0002                jmp        [PC + D0.w + 0x2]
00001210  F01C F020                .invalid   0xF01C, 0xF020 // unimplemented
00001214  F05A F06E                .extension 0x05A <<F/1/0>>, 0xF06E // unimplemented
00001218  F082 F0FA                .extension 0x082 <<F/2-3/0>> // unimplemented
0000121C  F0B0 F0D4                .extension 0x0B0 <<F/2-3/0>> // unimplemented
00001220  F160                     .extension 0x160 <<F/4-5/0>> // unimplemented
00001222  F30E                     .extension 0x30E <<F/4-5/1>> // unimplemented
00001224  F82E FBDC                .tblXX     0xF82E, 0xFBDC // unimplemented
00001228  FA28 F874                .unknown   0xFA28 0xF874 (W = 5)
0000122C  FEBC FC38                .extension 0xEBC <<F/2-3/7>> // unimplemented
00001230  FD34                     .extension 0xD34 <<F/4-5/6>> // unimplemented
00001232  FD18                     .extension 0xD18 <<F/4-5/6>> // unimplemented
00001234  FF92                     .invalid   <<F/6/7>>
00001236  FD80                     .invalid   <<F/6/6>>
00001238  0032 F7C0 FEFE           ori.b      [A2 + A7 * 8 - 0x2], 0xC0
0000123E  FF48                     .extension 0xF48 <<F/4-5/7>> // unimplemented
00001240  FFE2                     .invalid   <<F/7/7>>
label00001242:
00001242  4CDF 10C0                movem.l    D6,D7,A4, [A7]+
00001246  4E5E                     unlink     A6
00001248  2E9F                     move.l     [A7], [A7]+
0000124A  4E75                     rts
fn0000124C:
0000124C  4E56 FFD8                link       A6, -0x0028
00001250  206E 0010                movea.l    A0, [A6 + 0x10]
00001254  43EE FFE0                lea.l      A1, [A6 - 0x20]
00001258  22D8                     move.l     [A1]+, [A0]+
0000125A  22D8                     move.l     [A1]+, [A0]+
0000125C  206E 000C                movea.l    A0, [A6 + 0xC]
00001260  43EE FFE8                lea.l      A1, [A6 - 0x18]
00001264  22D8                     move.l     [A1]+, [A0]+
00001266  22D8                     move.l     [A1]+, [A0]+
00001268  422E 0014                clr.b      [A6 + 0x14]
0000126C  302E FFE6                move.w     D0, [A6 - 0x1A]
00001270  B06E FFEA                cmp.w      D0, [A6 - 0x16]
00001274  6D32                     blt        +0x34 /* 000012A8 */
00001276  302E FFEE                move.w     D0, [A6 - 0x12]
0000127A  B06E FFEA                cmp.w      D0, [A6 - 0x16]
0000127E  6D28                     blt        +0x2A /* 000012A8 */
00001280  302E FFE4                move.w     D0, [A6 - 0x1C]
00001284  B06E FFE8                cmp.w      D0, [A6 - 0x18]
00001288  6D1E                     blt        +0x20 /* 000012A8 */
0000128A  302E FFEC                move.w     D0, [A6 - 0x14]
0000128E  B06E FFE8                cmp.w      D0, [A6 - 0x18]
00001292  6D14                     blt        +0x16 /* 000012A8 */
00001294  554F                     subq.w     A7, 2
00001296  486E FFE0                pea.l      [A6 - 0x20]
0000129A  486E FFE8                pea.l      [A6 - 0x18]
0000129E  486E FFD8                pea.l      [A6 - 0x28]
000012A2  A8AA                     syscall    SectRect
000012A4  1D5F 0014                move.b     [A6 + 0x14], [A7]+
label000012A8:
000012A8  4E5E                     unlink     A6
000012AA  205F                     movea.l    A0, [A7]+
000012AC  4FEF 000C                lea.l      A7, [A7 + 0xC]
000012B0  4ED0                     jmp        [A0]
fn000012B2:
000012B2  4E56 0000                link       A6, 0
000012B6  3F3C 03E9                move.w     -[A7], 0x3E9
000012BA  3F3C 0170                move.w     -[A7], 0x170
000012BE  4EAD 01A2                jsr        [A5 + 0x1A2 /* export_48, CODE:1 @ 00000CDE */]
000012C2  422D FE83                clr.b      [A5 - 0x17D]
000012C6  3B7C 0002 F63A           move.w     [A5 - 0x9C6], 0x2
000012CC  302D F602                move.w     D0, [A5 - 0x9FE]
000012D0  0640 FFEC                addi.w     D0, 0xFFEC
000012D4  3B40 F5FE                move.w     [A5 - 0xA02], D0
000012D8  4A2D F649                tst.b      [A5 - 0x9B7]
000012DC  6706                     beq        +0x8 /* 000012E4 */
000012DE  426D F63E                clr.w      [A5 - 0x9C2]
000012E2  6006                     bra        +0x8 /* 000012EA */
label000012E4:
000012E4  3B7C 0002 F63E           move.w     [A5 - 0x9C2], 0x2
label000012EA:
000012EA  4E5E                     unlink     A6
000012EC  2E9F                     move.l     [A7], [A7]+
000012EE  4E75                     rts
fn000012F0:
000012F0  4E56 0000                link       A6, 0
000012F4  48E7 0018                movem.l    -[A7], A3,A4
000012F8  266E 0008                movea.l    A3, [A6 + 0x8]
000012FC  302D F600                move.w     D0, [A5 - 0xA00]
00001300  D06B FFEC                add.w      D0, [A3 - 0x14]
00001304  3B40 F600                move.w     [A5 - 0xA00], D0
00001308  302D F604                move.w     D0, [A5 - 0x9FC]
0000130C  D06B FFEC                add.w      D0, [A3 - 0x14]
00001310  3B40 F604                move.w     [A5 - 0x9FC], D0
00001314  302D F618                move.w     D0, [A5 - 0x9E8]
00001318  D06B FFEC                add.w      D0, [A3 - 0x14]
0000131C  3B40 F618                move.w     [A5 - 0x9E8], D0
00001320  302D F61C                move.w     D0, [A5 - 0x9E4]
00001324  D06B FFEC                add.w      D0, [A3 - 0x14]
00001328  3B40 F61C                move.w     [A5 - 0x9E4], D0
0000132C  302D F630                move.w     D0, [A5 - 0x9D0]
00001330  D06B FFEC                add.w      D0, [A3 - 0x14]
00001334  3B40 F630                move.w     [A5 - 0x9D0], D0
00001338  302D F634                move.w     D0, [A5 - 0x9CC]
0000133C  D06B FFEC                add.w      D0, [A3 - 0x14]
00001340  3B40 F634                move.w     [A5 - 0x9CC], D0
00001344  4CDF 1800                movem.l    A3,A4, [A7]+
00001348  4E5E                     unlink     A6
0000134A  2E9F                     move.l     [A7], [A7]+
0000134C  4E75                     rts
fn0000134E:
0000134E  4E56 FFE2                link       A6, -0x001E
00001352  2F07                     move.l     -[A7], D7
00001354  41ED F62E                lea.l      A0, [A5 - 0x9D2]
00001358  43ED FEF4                lea.l      A1, [A5 - 0x10C]
0000135C  22D8                     move.l     [A1]+, [A0]+
0000135E  22D8                     move.l     [A1]+, [A0]+
00001360  4A2D FE69                tst.b      [A5 - 0x197]
00001364  6712                     beq        +0x14 /* 00001378 */
00001366  0C6D 01F4 F600           cmpi.w     [A5 - 0xA00], 0x1F4
0000136C  6F24                     ble        +0x26 /* 00001392 */
0000136E  4EAD 0292                jsr        [A5 + 0x292 /* export_78, CODE:2 @ 000069D4 */]
00001372  6000 00E2                bra        +0xE4 /* 00001456 */
00001376  601A                     bra        +0x1C /* 00001392 */
label00001378:
00001378  0C6D 0200 F604           cmpi.w     [A5 - 0x9FC], 0x200
0000137E  6F12                     ble        +0x14 /* 00001392 */
00001380  303C 0200                move.w     D0, 0x200
00001384  906D F604                sub.w      D0, [A5 - 0x9FC]
00001388  3D40 FFEC                move.w     [A6 - 0x14], D0
0000138C  2F0E                     move.l     -[A7], A6
0000138E  4EBA FF60                jsr        [PC - 0xA0 /* 000012F0 */]
label00001392:
00001392  4A2D FE68                tst.b      [A5 - 0x198]
00001396  6712                     beq        +0x14 /* 000013AA */
00001398  0C6D 000C F604           cmpi.w     [A5 - 0x9FC], 0xC
0000139E  6C20                     bge        +0x22 /* 000013C0 */
000013A0  4EAD 029A                jsr        [A5 + 0x29A /* export_79, CODE:2 @ 00006AAC */]
000013A4  6000 00B0                bra        +0xB2 /* 00001456 */
000013A8  6016                     bra        +0x18 /* 000013C0 */
label000013AA:
000013AA  4A6D F600                tst.w      [A5 - 0xA00]
000013AE  6C10                     bge        +0x12 /* 000013C0 */
000013B0  302D F600                move.w     D0, [A5 - 0xA00]
000013B4  4440                     neg.w      D0
000013B6  3D40 FFEC                move.w     [A6 - 0x14], D0
000013BA  2F0E                     move.l     -[A7], A6
000013BC  4EBA FF32                jsr        [PC - 0xCE /* 000012F0 */]
label000013C0:
000013C0  0C6D 014A F602           cmpi.w     [A5 - 0x9FE], 0x14A
000013C6  6F06                     ble        +0x8 /* 000013CE */
000013C8  2F0E                     move.l     -[A7], A6
000013CA  4EBA FEE6                jsr        [PC - 0x11A /* 000012B2 */]
label000013CE:
000013CE  426D F85A                clr.w      [A5 - 0x7A6]
000013D2  3D6D F86C FFE2           move.w     [A6 - 0x1E], [A5 - 0x794]
000013D8  7E01                     moveq.l    D7, 0x01
000013DA  6034                     bra        +0x36 /* 00001410 */
label000013DC:
000013DC  554F                     subq.w     A7, 2
000013DE  3007                     move.w     D0, D7
000013E0  E740                     asl        D0.w, 3
000013E2  0640 FC8A                addi.w     D0, 0xFC8A
000013E6  4875 0000                pea.l      [A5 + D0.w]
000013EA  486D FEF4                pea.l      [A5 - 0x10C]
000013EE  2F0E                     move.l     -[A7], A6
000013F0  4EBA FE5A                jsr        [PC - 0x1A6 /* 0000124C */]
000013F4  4A1F                     tst.b      [A7]+
000013F6  6714                     beq        +0x16 /* 0000140C */
000013F8  3007                     move.w     D0, D7
000013FA  C1FC 000C                muls.w     D0, 0xC
000013FE  0640 FD9C                addi.w     D0, 0xFD9C
00001402  3F35 0000                move.w     -[A7], [A5 + D0.w]
00001406  3F07                     move.w     -[A7], D7
00001408  4EBA EE0E                jsr        [PC - 0x11F2 /* 00000218 */]
label0000140C:
0000140C  5247                     addq.w     D7, 1
0000140E  6906                     bvs        +0x8 /* 00001416 */
label00001410:
00001410  BE6E FFE2                cmp.w      D7, [A6 - 0x1E]
00001414  6FC6                     ble        -0x38 /* 000013DC */
label00001416:
00001416  4A6D F880                tst.w      [A5 - 0x780]
0000141A  673A                     beq        +0x3C /* 00001456 */
0000141C  3D6D F880 FFE2           move.w     [A6 - 0x1E], [A5 - 0x780]
00001422  7E01                     moveq.l    D7, 0x01
00001424  602A                     bra        +0x2C /* 00001450 */
label00001426:
00001426  554F                     subq.w     A7, 2
00001428  3007                     move.w     D0, D7
0000142A  C1FC 002A                muls.w     D0, 0x2A /* '*' */
0000142E  0640 EEC4                addi.w     D0, 0xEEC4
00001432  4875 0000                pea.l      [A5 + D0.w]
00001436  486D FEF4                pea.l      [A5 - 0x10C]
0000143A  2F0E                     move.l     -[A7], A6
0000143C  4EBA FE0E                jsr        [PC - 0x1F2 /* 0000124C */]
00001440  4A1F                     tst.b      [A7]+
00001442  6708                     beq        +0xA /* 0000144C */
00001444  2F0E                     move.l     -[A7], A6
00001446  4EBA FE6A                jsr        [PC - 0x196 /* 000012B2 */]
0000144A  600A                     bra        +0xC /* 00001456 */
label0000144C:
0000144C  5247                     addq.w     D7, 1
0000144E  6906                     bvs        +0x8 /* 00001456 */
label00001450:
00001450  BE6E FFE2                cmp.w      D7, [A6 - 0x1E]
00001454  6FD0                     ble        -0x2E /* 00001426 */
label00001456:
00001456  2E1F                     move.l     D7, [A7]+
00001458  4E5E                     unlink     A6
0000145A  4E75                     rts
fn0000145C:
0000145C  4E56 FFD8                link       A6, -0x0028
00001460  206E 0010                movea.l    A0, [A6 + 0x10]
00001464  43EE FFE0                lea.l      A1, [A6 - 0x20]
00001468  22D8                     move.l     [A1]+, [A0]+
0000146A  22D8                     move.l     [A1]+, [A0]+
0000146C  206E 000C                movea.l    A0, [A6 + 0xC]
00001470  43EE FFE8                lea.l      A1, [A6 - 0x18]
00001474  22D8                     move.l     [A1]+, [A0]+
00001476  22D8                     move.l     [A1]+, [A0]+
00001478  422E 0014                clr.b      [A6 + 0x14]
0000147C  302E FFE6                move.w     D0, [A6 - 0x1A]
00001480  B06E FFEA                cmp.w      D0, [A6 - 0x16]
00001484  6D32                     blt        +0x34 /* 000014B8 */
00001486  302E FFEE                move.w     D0, [A6 - 0x12]
0000148A  B06E FFEA                cmp.w      D0, [A6 - 0x16]
0000148E  6D28                     blt        +0x2A /* 000014B8 */
00001490  302E FFE4                move.w     D0, [A6 - 0x1C]
00001494  B06E FFE8                cmp.w      D0, [A6 - 0x18]
00001498  6D1E                     blt        +0x20 /* 000014B8 */
0000149A  302E FFEC                move.w     D0, [A6 - 0x14]
0000149E  B06E FFE8                cmp.w      D0, [A6 - 0x18]
000014A2  6D14                     blt        +0x16 /* 000014B8 */
000014A4  554F                     subq.w     A7, 2
000014A6  486E FFE0                pea.l      [A6 - 0x20]
000014AA  486E FFE8                pea.l      [A6 - 0x18]
000014AE  486E FFD8                pea.l      [A6 - 0x28]
000014B2  A8AA                     syscall    SectRect
000014B4  1D5F 0014                move.b     [A6 + 0x14], [A7]+
label000014B8:
000014B8  4E5E                     unlink     A6
000014BA  205F                     movea.l    A0, [A7]+
000014BC  4FEF 000C                lea.l      A7, [A7 + 0xC]
000014C0  4ED0                     jmp        [A0]
fn000014C2:
000014C2  4E56 FFE4                link       A6, -0x001C
000014C6  48E7 0108                movem.l    -[A7], D7,A4
000014CA  0C6D 0200 F7F4           cmpi.w     [A5 - 0x80C], 0x200
000014D0  5EC0                     sgt        D0
000014D2  0C6D FFF0 F7F4           cmpi.w     [A5 - 0x80C], 0xFFF0
000014D8  5DC1                     slt        D1
000014DA  8001                     or.b       D0, D1
000014DC  6704                     beq        +0x6 /* 000014E2 */
000014DE  422D FE71                clr.b      [A5 - 0x18F]
label000014E2:
000014E2  486D F802                pea.l      [A5 - 0x7FE]
000014E6  205F                     movea.l    A0, [A7]+
000014E8  5250                     addq.w     [A0], 1
000014EA  0C6D 0002 F802           cmpi.w     [A5 - 0x7FE], 0x2
000014F0  6F04                     ble        +0x6 /* 000014F6 */
000014F2  426D F802                clr.w      [A5 - 0x7FE]
label000014F6:
000014F6  41ED F7EA                lea.l      A0, [A5 - 0x816]
000014FA  43ED F7F2                lea.l      A1, [A5 - 0x80E]
000014FE  22D8                     move.l     [A1]+, [A0]+
00001500  22D8                     move.l     [A1]+, [A0]+
00001502  302D F7EC                move.w     D0, [A5 - 0x814]
00001506  D06D F804                add.w      D0, [A5 - 0x7FC]
0000150A  3B40 F7EC                move.w     [A5 - 0x814], D0
0000150E  302D F7F0                move.w     D0, [A5 - 0x810]
00001512  D06D F804                add.w      D0, [A5 - 0x7FC]
00001516  3B40 F7F0                move.w     [A5 - 0x810], D0
0000151A  4A6D F804                tst.w      [A5 - 0x7FC]
0000151E  6F0E                     ble        +0x10 /* 0000152E */
00001520  302D F7F8                move.w     D0, [A5 - 0x808]
00001524  D06D F804                add.w      D0, [A5 - 0x7FC]
00001528  3B40 F7F8                move.w     [A5 - 0x808], D0
0000152C  600C                     bra        +0xE /* 0000153A */
label0000152E:
0000152E  302D F7F4                move.w     D0, [A5 - 0x80C]
00001532  D06D F804                add.w      D0, [A5 - 0x7FC]
00001536  3B40 F7F4                move.w     [A5 - 0x80C], D0
label0000153A:
0000153A  4A6D F880                tst.w      [A5 - 0x780]
0000153E  6F00 00A6                ble        +0xA8 /* 000015E6 */
00001542  3D6D F880 FFE4           move.w     [A6 - 0x1C], [A5 - 0x780]
00001548  7E01                     moveq.l    D7, 0x01
0000154A  6000 0092                bra        +0x94 /* 000015DE */
label0000154E:
0000154E  3007                     move.w     D0, D7
00001550  C1FC 002A                muls.w     D0, 0x2A /* '*' */
00001554  0640 EEC4                addi.w     D0, 0xEEC4
00001558  49F5 0000                lea.l      A4, [A5 + D0.w]
0000155C  0C6C 000C 001A           cmpi.w     [A4 + 0x1A], 0xC
00001562  6700 0076                beq        +0x78 /* 000015DA */
00001566  554F                     subq.w     A7, 2
00001568  2F0C                     move.l     -[A7], A4
0000156A  486D F7EA                pea.l      [A5 - 0x816]
0000156E  2F0E                     move.l     -[A7], A6
00001570  4EBA FEEA                jsr        [PC - 0x116 /* 0000145C */]
00001574  4A1F                     tst.b      [A7]+
00001576  6762                     beq        +0x64 /* 000015DA */
00001578  302C 001C                move.w     D0, [A4 + 0x1C]
0000157C  602A                     bra        +0x2C /* 000015A8 */
label0000157E:
0000157E  3F3C 03EE                move.w     -[A7], 0x3EE
00001582  3F3C 00C0                move.w     -[A7], 0xC0
00001586  4EAD 01A2                jsr        [A5 + 0x1A2 /* export_48, CODE:1 @ 00000CDE */]
0000158A  6026                     bra        +0x28 /* 000015B2 */
label0000158C:
0000158C  3F3C 03EE                move.w     -[A7], 0x3EE
00001590  3F3C 00C0                move.w     -[A7], 0xC0
00001594  4EAD 01A2                jsr        [A5 + 0x1A2 /* export_48, CODE:1 @ 00000CDE */]
00001598  6018                     bra        +0x1A /* 000015B2 */
label0000159A:
0000159A  3F3C 03FB                move.w     -[A7], 0x3FB
0000159E  3F3C 00B0                move.w     -[A7], 0xB0
000015A2  4EAD 01A2                jsr        [A5 + 0x1A2 /* export_48, CODE:1 @ 00000CDE */]
000015A6  600A                     bra        +0xC /* 000015B2 */
label000015A8:
000015A8  67D4                     beq        -0x2A /* 0000157E */
000015AA  5340                     subq.w     D0, 1
000015AC  67DE                     beq        -0x20 /* 0000158C */
000015AE  5340                     subq.w     D0, 1
000015B0  67E8                     beq        -0x16 /* 0000159A */
label000015B2:
000015B2  397C FFFF 001E           move.w     [A4 + 0x1E], 0xFFFF
000015B8  4EAD 021A                jsr        [A5 + 0x21A /* export_63, CODE:2 @ 00002258 */]
000015BC  7003                     moveq.l    D0, 0x03
000015BE  906C 001C                sub.w      D0, [A4 + 0x1C]
000015C2  C1FC 0064                muls.w     D0, 0x64 /* 'd' */
000015C6  48C0                     ext.l      D0
000015C8  D0AD F822                add.l      D0, [A5 - 0x7DE]
000015CC  2B40 F822                move.l     [A5 - 0x7DE], D0
000015D0  426C 0018                clr.w      [A4 + 0x18]
000015D4  397C 000C 001A           move.w     [A4 + 0x1A], 0xC
label000015DA:
000015DA  5247                     addq.w     D7, 1
000015DC  6908                     bvs        +0xA /* 000015E6 */
label000015DE:
000015DE  BE6E FFE4                cmp.w      D7, [A6 - 0x1C]
000015E2  6F00 FF6A                ble        -0x94 /* 0000154E */
label000015E6:
000015E6  4CDF 1080                movem.l    D7,A4, [A7]+
000015EA  4E5E                     unlink     A6
000015EC  4E75                     rts
fn000015EE:
000015EE  4E56 FFE8                link       A6, -0x0018
000015F2  2F0C                     move.l     -[A7], A4
000015F4  286E 0008                movea.l    A4, [A6 + 0x8]
000015F8  4A6D F646                tst.w      [A5 - 0x9BA]
000015FC  6F00 00CC                ble        +0xCE /* 000016CA */
00001600  302D F646                move.w     D0, [A5 - 0x9BA]
00001604  5340                     subq.w     D0, 1
00001606  3B40 F646                move.w     [A5 - 0x9BA], D0
0000160A  3F3C 0402                move.w     -[A7], 0x402
0000160E  3F3C 0097                move.w     -[A7], 0x97
00001612  4EAD 01A2                jsr        [A5 + 0x1A2 /* export_48, CODE:1 @ 00000CDE */]
00001616  4EAD 0232                jsr        [A5 + 0x232 /* export_66, CODE:2 @ 0000245A */]
0000161A  4A6D F646                tst.w      [A5 - 0x9BA]
0000161E  6600 00A4                bne        +0xA6 /* 000016C4 */
00001622  486C FFE2                pea.l      [A4 - 0x1E]
00001626  3F3C 0134                move.w     -[A7], 0x134
0000162A  3F3C 0005                move.w     -[A7], 0x5
0000162E  3F3C 014F                move.w     -[A7], 0x14F
00001632  3F3C 0014                move.w     -[A7], 0x14
00001636  A8A7                     syscall    SetRect
00001638  486C FFE2                pea.l      [A4 - 0x1E]
0000163C  486D FFBA                pea.l      [A5 - 0x46]
00001640  A8A5                     syscall    FillRect
00001642  4A2D FE7A                tst.b      [A5 - 0x186]
00001646  6748                     beq        +0x4A /* 00001690 */
00001648  206D B7B2                movea.l    A0, [A5 - 0x484E]
0000164C  2068 0002                movea.l    A0, [A0 + 0x2]
00001650  2F10                     move.l     -[A7], [A0]
00001652  206D B560                movea.l    A0, [A5 - 0x4AA0]
00001656  4868 0002                pea.l      [A0 + 0x2]
0000165A  486C FFE2                pea.l      [A4 - 0x1E]
0000165E  486C FFE2                pea.l      [A4 - 0x1E]
00001662  4267                     clr.w      -[A7]
00001664  2F2D B590                move.l     -[A7], [A5 - 0x4A70]
00001668  A8EC                     syscall    CopyBits
0000166A  206D B7B2                movea.l    A0, [A5 - 0x484E]
0000166E  2068 0002                movea.l    A0, [A0 + 0x2]
00001672  2F10                     move.l     -[A7], [A0]
00001674  206D B7B6                movea.l    A0, [A5 - 0x484A]
00001678  2068 0002                movea.l    A0, [A0 + 0x2]
0000167C  2F10                     move.l     -[A7], [A0]
0000167E  486C FFE2                pea.l      [A4 - 0x1E]
00001682  486C FFE2                pea.l      [A4 - 0x1E]
00001686  4267                     clr.w      -[A7]
00001688  2F2D B590                move.l     -[A7], [A5 - 0x4A70]
0000168C  A8EC                     syscall    CopyBits
0000168E  6034                     bra        +0x36 /* 000016C4 */
label00001690:
00001690  486D B5A2                pea.l      [A5 - 0x4A5E]
00001694  206D B560                movea.l    A0, [A5 - 0x4AA0]
00001698  4868 0002                pea.l      [A0 + 0x2]
0000169C  486C FFE2                pea.l      [A4 - 0x1E]
000016A0  486C FFE2                pea.l      [A4 - 0x1E]
000016A4  4267                     clr.w      -[A7]
000016A6  2F2D B590                move.l     -[A7], [A5 - 0x4A70]
000016AA  A8EC                     syscall    CopyBits
000016AC  486D B5A2                pea.l      [A5 - 0x4A5E]
000016B0  486D B5B0                pea.l      [A5 - 0x4A50]
000016B4  486C FFE2                pea.l      [A4 - 0x1E]
000016B8  486C FFE2                pea.l      [A4 - 0x1E]
000016BC  4267                     clr.w      -[A7]
000016BE  2F2D B590                move.l     -[A7], [A5 - 0x4A70]
000016C2  A8EC                     syscall    CopyBits
label000016C4:
000016C4  3B6E 000C F640           move.w     [A5 - 0x9C0], [A6 + 0xC]
label000016CA:
000016CA  285F                     movea.l    A4, [A7]+
000016CC  4E5E                     unlink     A6
000016CE  205F                     movea.l    A0, [A7]+
000016D0  5C4F                     addq.w     A7, 6
000016D2  4ED0                     jmp        [A0]
fn000016D4:
000016D4  4E56 FFE8                link       A6, -0x0018
000016D8  2F0C                     move.l     -[A7], A4
000016DA  286E 0008                movea.l    A4, [A6 + 0x8]
000016DE  4A6D F644                tst.w      [A5 - 0x9BC]
000016E2  6F00 012A                ble        +0x12C /* 0000180E */
000016E6  3F3C 03F3                move.w     -[A7], 0x3F3
000016EA  3F3C 0090                move.w     -[A7], 0x90
000016EE  4EAD 01A2                jsr        [A5 + 0x1A2 /* export_48, CODE:1 @ 00000CDE */]
000016F2  302D F644                move.w     D0, [A5 - 0x9BC]
000016F6  5340                     subq.w     D0, 1
000016F8  3B40 F644                move.w     [A5 - 0x9BC], D0
000016FC  4EAD 0222                jsr        [A5 + 0x222 /* export_64, CODE:2 @ 00002282 */]
00001700  4A6D F644                tst.w      [A5 - 0x9BC]
00001704  6600 00A4                bne        +0xA6 /* 000017AA */
00001708  486C FFE2                pea.l      [A4 - 0x1E]
0000170C  3F3C 015A                move.w     -[A7], 0x15A
00001710  3F3C 0005                move.w     -[A7], 0x5
00001714  3F3C 0170                move.w     -[A7], 0x170
00001718  3F3C 0014                move.w     -[A7], 0x14
0000171C  A8A7                     syscall    SetRect
0000171E  486C FFE2                pea.l      [A4 - 0x1E]
00001722  486D FFBA                pea.l      [A5 - 0x46]
00001726  A8A5                     syscall    FillRect
00001728  4A2D FE7A                tst.b      [A5 - 0x186]
0000172C  6748                     beq        +0x4A /* 00001776 */
0000172E  206D B7B2                movea.l    A0, [A5 - 0x484E]
00001732  2068 0002                movea.l    A0, [A0 + 0x2]
00001736  2F10                     move.l     -[A7], [A0]
00001738  206D B560                movea.l    A0, [A5 - 0x4AA0]
0000173C  4868 0002                pea.l      [A0 + 0x2]
00001740  486C FFE2                pea.l      [A4 - 0x1E]
00001744  486C FFE2                pea.l      [A4 - 0x1E]
00001748  4267                     clr.w      -[A7]
0000174A  2F2D B590                move.l     -[A7], [A5 - 0x4A70]
0000174E  A8EC                     syscall    CopyBits
00001750  206D B7B2                movea.l    A0, [A5 - 0x484E]
00001754  2068 0002                movea.l    A0, [A0 + 0x2]
00001758  2F10                     move.l     -[A7], [A0]
0000175A  206D B7B6                movea.l    A0, [A5 - 0x484A]
0000175E  2068 0002                movea.l    A0, [A0 + 0x2]
00001762  2F10                     move.l     -[A7], [A0]
00001764  486C FFE2                pea.l      [A4 - 0x1E]
00001768  486C FFE2                pea.l      [A4 - 0x1E]
0000176C  4267                     clr.w      -[A7]
0000176E  2F2D B590                move.l     -[A7], [A5 - 0x4A70]
00001772  A8EC                     syscall    CopyBits
00001774  6034                     bra        +0x36 /* 000017AA */
label00001776:
00001776  486D B5A2                pea.l      [A5 - 0x4A5E]
0000177A  206D B560                movea.l    A0, [A5 - 0x4AA0]
0000177E  4868 0002                pea.l      [A0 + 0x2]
00001782  486C FFE2                pea.l      [A4 - 0x1E]
00001786  486C FFE2                pea.l      [A4 - 0x1E]
0000178A  4267                     clr.w      -[A7]
0000178C  2F2D B590                move.l     -[A7], [A5 - 0x4A70]
00001790  A8EC                     syscall    CopyBits
00001792  486D B5A2                pea.l      [A5 - 0x4A5E]
00001796  486D B5B0                pea.l      [A5 - 0x4A50]
0000179A  486C FFE2                pea.l      [A4 - 0x1E]
0000179E  486C FFE2                pea.l      [A4 - 0x1E]
000017A2  4267                     clr.w      -[A7]
000017A4  2F2D B590                move.l     -[A7], [A5 - 0x4A70]
000017A8  A8EC                     syscall    CopyBits
label000017AA:
000017AA  1B7C 0001 FE71           move.b     [A5 - 0x18F], 0x1
000017B0  302D F5FE                move.w     D0, [A5 - 0xA02]
000017B4  5C40                     addq.w     D0, 6
000017B6  3B40 F7EA                move.w     [A5 - 0x816], D0
000017BA  302D F7EA                move.w     D0, [A5 - 0x816]
000017BE  5E40                     addq.w     D0, 7
000017C0  3B40 F7EE                move.w     [A5 - 0x812], D0
000017C4  4A2D F648                tst.b      [A5 - 0x9B8]
000017C8  670E                     beq        +0x10 /* 000017D8 */
000017CA  3B6D F604 F7EC           move.w     [A5 - 0x814], [A5 - 0x9FC]
000017D0  3B7C 0010 F804           move.w     [A5 - 0x7FC], 0x10
000017D6  6012                     bra        +0x14 /* 000017EA */
label000017D8:
000017D8  302D F600                move.w     D0, [A5 - 0xA00]
000017DC  0640 FFF0                addi.w     D0, 0xFFF0
000017E0  3B40 F7EC                move.w     [A5 - 0x814], D0
000017E4  3B7C FFF0 F804           move.w     [A5 - 0x7FC], 0xFFF0
label000017EA:
000017EA  302D F7EC                move.w     D0, [A5 - 0x814]
000017EE  0640 0010                addi.w     D0, 0x10
000017F2  3B40 F7F0                move.w     [A5 - 0x810], D0
000017F6  41ED F7EA                lea.l      A0, [A5 - 0x816]
000017FA  43ED F7F2                lea.l      A1, [A5 - 0x80E]
000017FE  22D8                     move.l     [A1]+, [A0]+
00001800  22D8                     move.l     [A1]+, [A0]+
00001802  41ED F7EA                lea.l      A0, [A5 - 0x816]
00001806  43ED F7FA                lea.l      A1, [A5 - 0x806]
0000180A  22D8                     move.l     [A1]+, [A0]+
0000180C  22D8                     move.l     [A1]+, [A0]+
label0000180E:
0000180E  285F                     movea.l    A4, [A7]+
00001810  4E5E                     unlink     A6
00001812  2E9F                     move.l     [A7], [A7]+
00001814  4E75                     rts
fn00001816:
00001816  4E56 FFE2                link       A6, -0x001E
0000181A  2F07                     move.l     -[A7], D7
0000181C  302D F84E                move.w     D0, [A5 - 0x7B2]
00001820  6000 05DC                bra        +0x5DE /* 00001DFE */
label00001824:
00001824  302D F85E                move.w     D0, [A5 - 0x7A2]
00001828  3200                     move.w     D1, D0
0000182A  E649                     lsr        D1.w, 3
0000182C  0641 EEA6                addi.w     D1, 0xEEA6
00001830  0135 1000                btst       [A5 + D1.w], D0
00001834  672E                     beq        +0x30 /* 00001864 */
00001836  4A2D F648                tst.b      [A5 - 0x9B8]
0000183A  6714                     beq        +0x16 /* 00001850 */
0000183C  422D F649                clr.b      [A5 - 0x9B7]
00001840  3B7C 0001 F63E           move.w     [A5 - 0x9C2], 0x1
00001846  3B7C FFFB F640           move.w     [A5 - 0x9C0], 0xFFFB
0000184C  6000 0078                bra        +0x7A /* 000018C6 */
label00001850:
00001850  1B7C 0001 F649           move.b     [A5 - 0x9B7], 0x1
00001856  3B7C 0002 F63E           move.w     [A5 - 0x9C2], 0x2
0000185C  3B7C FFFB F640           move.w     [A5 - 0x9C0], 0xFFFB
00001862  6062                     bra        +0x64 /* 000018C6 */
label00001864:
00001864  302D F860                move.w     D0, [A5 - 0x7A0]
00001868  3200                     move.w     D1, D0
0000186A  E649                     lsr        D1.w, 3
0000186C  0641 EEA6                addi.w     D1, 0xEEA6
00001870  0135 1000                btst       [A5 + D1.w], D0
00001874  672A                     beq        +0x2C /* 000018A0 */
00001876  4A2D F648                tst.b      [A5 - 0x9B8]
0000187A  6712                     beq        +0x14 /* 0000188E */
0000187C  1B7C 0001 F649           move.b     [A5 - 0x9B7], 0x1
00001882  426D F63E                clr.w      [A5 - 0x9C2]
00001886  3B7C 0005 F640           move.w     [A5 - 0x9C0], 0x5
0000188C  6038                     bra        +0x3A /* 000018C6 */
label0000188E:
0000188E  422D F649                clr.b      [A5 - 0x9B7]
00001892  3B7C 0003 F63E           move.w     [A5 - 0x9C2], 0x3
00001898  3B7C 0005 F640           move.w     [A5 - 0x9C0], 0x5
0000189E  6026                     bra        +0x28 /* 000018C6 */
label000018A0:
000018A0  4A2D F648                tst.b      [A5 - 0x9B8]
000018A4  6710                     beq        +0x12 /* 000018B6 */
000018A6  1B7C 0001 F649           move.b     [A5 - 0x9B7], 0x1
000018AC  426D F63E                clr.w      [A5 - 0x9C2]
000018B0  426D F640                clr.w      [A5 - 0x9C0]
000018B4  6010                     bra        +0x12 /* 000018C6 */
label000018B6:
000018B6  1B7C 0001 F649           move.b     [A5 - 0x9B7], 0x1
000018BC  3B7C 0002 F63E           move.w     [A5 - 0x9C2], 0x2
000018C2  426D F640                clr.w      [A5 - 0x9C0]
label000018C6:
000018C6  302D F864                move.w     D0, [A5 - 0x79C]
000018CA  3200                     move.w     D1, D0
000018CC  E649                     lsr        D1.w, 3
000018CE  0641 EEA6                addi.w     D1, 0xEEA6
000018D2  0135 1000                btst       [A5 + D1.w], D0
000018D6  56C0                     sne        D0
000018D8  122D FE71                move.b     D1, [A5 - 0x18F]
000018DC  5301                     subq.b     D1, 1
000018DE  C001                     and.b      D0, D1
000018E0  6706                     beq        +0x8 /* 000018E8 */
000018E2  2F0E                     move.l     -[A7], A6
000018E4  4EBA FDEE                jsr        [PC - 0x212 /* 000016D4 */]
label000018E8:
000018E8  302D F862                move.w     D0, [A5 - 0x79E]
000018EC  3200                     move.w     D1, D0
000018EE  E649                     lsr        D1.w, 3
000018F0  0641 EEA6                addi.w     D1, 0xEEA6
000018F4  0135 1000                btst       [A5 + D1.w], D0
000018F8  6700 051C                beq        +0x51E /* 00001E16 */
000018FC  102D F648                move.b     D0, [A5 - 0x9B8]
00001900  C02D F649                and.b      D0, [A5 - 0x9B7]
00001904  122D F648                move.b     D1, [A5 - 0x9B8]
00001908  5301                     subq.b     D1, 1
0000190A  142D F649                move.b     D2, [A5 - 0x9B7]
0000190E  5302                     subq.b     D2, 1
00001910  C202                     and.b      D1, D2
00001912  4401                     neg.b      D1
00001914  8001                     or.b       D0, D1
00001916  670E                     beq        +0x10 /* 00001926 */
00001918  3F3C 0010                move.w     -[A7], 0x10
0000191C  2F0E                     move.l     -[A7], A6
0000191E  4EBA FCCE                jsr        [PC - 0x332 /* 000015EE */]
00001922  6000 04F2                bra        +0x4F4 /* 00001E16 */
label00001926:
00001926  3F3C FFF0                move.w     -[A7], 0xFFF0
0000192A  2F0E                     move.l     -[A7], A6
0000192C  4EBA FCC0                jsr        [PC - 0x340 /* 000015EE */]
00001930  6000 04E4                bra        +0x4E6 /* 00001E16 */
label00001934:
00001934  102D F648                move.b     D0, [A5 - 0x9B8]
00001938  C02D F649                and.b      D0, [A5 - 0x9B7]
0000193C  122D F648                move.b     D1, [A5 - 0x9B8]
00001940  5301                     subq.b     D1, 1
00001942  142D F649                move.b     D2, [A5 - 0x9B7]
00001946  5302                     subq.b     D2, 1
00001948  C202                     and.b      D1, D2
0000194A  4401                     neg.b      D1
0000194C  8001                     or.b       D0, D1
0000194E  6708                     beq        +0xA /* 00001958 */
00001950  3B7C 0005 F640           move.w     [A5 - 0x9C0], 0x5
00001956  6006                     bra        +0x8 /* 0000195E */
label00001958:
00001958  3B7C FFFB F640           move.w     [A5 - 0x9C0], 0xFFFB
label0000195E:
0000195E  302D F85E                move.w     D0, [A5 - 0x7A2]
00001962  3200                     move.w     D1, D0
00001964  E649                     lsr        D1.w, 3
00001966  0641 EEA6                addi.w     D1, 0xEEA6
0000196A  0135 1000                btst       [A5 + D1.w], D0
0000196E  672C                     beq        +0x2E /* 0000199C */
00001970  4A2D F648                tst.b      [A5 - 0x9B8]
00001974  6712                     beq        +0x14 /* 00001988 */
00001976  422D F649                clr.b      [A5 - 0x9B7]
0000197A  3B7C 0001 F63E           move.w     [A5 - 0x9C2], 0x1
00001980  3B7C FFFB F640           move.w     [A5 - 0x9C0], 0xFFFB
00001986  604E                     bra        +0x50 /* 000019D6 */
label00001988:
00001988  1B7C 0001 F649           move.b     [A5 - 0x9B7], 0x1
0000198E  3B7C 0002 F63E           move.w     [A5 - 0x9C2], 0x2
00001994  3B7C FFFB F640           move.w     [A5 - 0x9C0], 0xFFFB
0000199A  603A                     bra        +0x3C /* 000019D6 */
label0000199C:
0000199C  302D F860                move.w     D0, [A5 - 0x7A0]
000019A0  3200                     move.w     D1, D0
000019A2  E649                     lsr        D1.w, 3
000019A4  0641 EEA6                addi.w     D1, 0xEEA6
000019A8  0135 1000                btst       [A5 + D1.w], D0
000019AC  6728                     beq        +0x2A /* 000019D6 */
000019AE  4A2D F648                tst.b      [A5 - 0x9B8]
000019B2  6712                     beq        +0x14 /* 000019C6 */
000019B4  1B7C 0001 F649           move.b     [A5 - 0x9B7], 0x1
000019BA  426D F63E                clr.w      [A5 - 0x9C2]
000019BE  3B7C 0005 F640           move.w     [A5 - 0x9C0], 0x5
000019C4  6010                     bra        +0x12 /* 000019D6 */
label000019C6:
000019C6  422D F649                clr.b      [A5 - 0x9B7]
000019CA  3B7C 0003 F63E           move.w     [A5 - 0x9C2], 0x3
000019D0  3B7C 0005 F640           move.w     [A5 - 0x9C0], 0x5
label000019D6:
000019D6  302D F864                move.w     D0, [A5 - 0x79C]
000019DA  3200                     move.w     D1, D0
000019DC  E649                     lsr        D1.w, 3
000019DE  0641 EEA6                addi.w     D1, 0xEEA6
000019E2  0135 1000                btst       [A5 + D1.w], D0
000019E6  56C0                     sne        D0
000019E8  122D FE71                move.b     D1, [A5 - 0x18F]
000019EC  5301                     subq.b     D1, 1
000019EE  C001                     and.b      D0, D1
000019F0  6706                     beq        +0x8 /* 000019F8 */
000019F2  2F0E                     move.l     -[A7], A6
000019F4  4EBA FCDE                jsr        [PC - 0x322 /* 000016D4 */]
label000019F8:
000019F8  302D F862                move.w     D0, [A5 - 0x79E]
000019FC  3200                     move.w     D1, D0
000019FE  E649                     lsr        D1.w, 3
00001A00  0641 EEA6                addi.w     D1, 0xEEA6
00001A04  0135 1000                btst       [A5 + D1.w], D0
00001A08  6700 040C                beq        +0x40E /* 00001E16 */
00001A0C  102D F648                move.b     D0, [A5 - 0x9B8]
00001A10  C02D F649                and.b      D0, [A5 - 0x9B7]
00001A14  122D F648                move.b     D1, [A5 - 0x9B8]
00001A18  5301                     subq.b     D1, 1
00001A1A  142D F649                move.b     D2, [A5 - 0x9B7]
00001A1E  5302                     subq.b     D2, 1
00001A20  C202                     and.b      D1, D2
00001A22  4401                     neg.b      D1
00001A24  8001                     or.b       D0, D1
00001A26  670E                     beq        +0x10 /* 00001A36 */
00001A28  3F3C 0010                move.w     -[A7], 0x10
00001A2C  2F0E                     move.l     -[A7], A6
00001A2E  4EBA FBBE                jsr        [PC - 0x442 /* 000015EE */]
00001A32  6000 03E2                bra        +0x3E4 /* 00001E16 */
label00001A36:
00001A36  3F3C FFF0                move.w     -[A7], 0xFFF0
00001A3A  2F0E                     move.l     -[A7], A6
00001A3C  4EBA FBB0                jsr        [PC - 0x450 /* 000015EE */]
00001A40  6000 03D4                bra        +0x3D6 /* 00001E16 */
label00001A44:
00001A44  302D F864                move.w     D0, [A5 - 0x79C]
00001A48  3200                     move.w     D1, D0
00001A4A  E649                     lsr        D1.w, 3
00001A4C  0641 EEA6                addi.w     D1, 0xEEA6
00001A50  0135 1000                btst       [A5 + D1.w], D0
00001A54  56C0                     sne        D0
00001A56  122D FE71                move.b     D1, [A5 - 0x18F]
00001A5A  5301                     subq.b     D1, 1
00001A5C  C001                     and.b      D0, D1
00001A5E  6706                     beq        +0x8 /* 00001A66 */
00001A60  2F0E                     move.l     -[A7], A6
00001A62  4EBA FC70                jsr        [PC - 0x390 /* 000016D4 */]
label00001A66:
00001A66  486E FFEA                pea.l      [A6 - 0x16]
00001A6A  A972                     syscall    GetMouse
00001A6C  4EAD 0272                jsr        [A5 + 0x272 /* export_74, CODE:2 @ 00004AB8 */]
00001A70  3E2E FFEC                move.w     D7, [A6 - 0x14]
00001A74  0647 FF00                addi.w     D7, 0xFF00
00001A78  48C7                     ext.l      D7
00001A7A  8FFC 0020                divs.w     D7, 0x20 /* ' ' */
00001A7E  0C47 0005                cmpi.w     D7, 0x5
00001A82  6F04                     ble        +0x6 /* 00001A88 */
00001A84  7E05                     moveq.l    D7, 0x05
00001A86  6008                     bra        +0xA /* 00001A90 */
label00001A88:
00001A88  0C47 FFFB                cmpi.w     D7, 0xFFFB
00001A8C  6C02                     bge        +0x4 /* 00001A90 */
00001A8E  7EFB                     moveq.l    D7, 0xFFFFFFFB
label00001A90:
00001A90  3B47 F640                move.w     [A5 - 0x9C0], D7
00001A94  4A2D F648                tst.b      [A5 - 0x9B8]
00001A98  6700 00C4                beq        +0xC6 /* 00001B5E */
00001A9C  4A6D F640                tst.w      [A5 - 0x9C0]
00001AA0  6C5E                     bge        +0x60 /* 00001B00 */
00001AA2  422D F649                clr.b      [A5 - 0x9B7]
00001AA6  3B7C 0001 F63E           move.w     [A5 - 0x9C2], 0x1
00001AAC  302D F862                move.w     D0, [A5 - 0x79E]
00001AB0  3200                     move.w     D1, D0
00001AB2  E649                     lsr        D1.w, 3
00001AB4  0641 EEA6                addi.w     D1, 0xEEA6
00001AB8  0135 1000                btst       [A5 + D1.w], D0
00001ABC  670A                     beq        +0xC /* 00001AC8 */
00001ABE  3F3C FFF0                move.w     -[A7], 0xFFF0
00001AC2  2F0E                     move.l     -[A7], A6
00001AC4  4EBA FB28                jsr        [PC - 0x4D8 /* 000015EE */]
label00001AC8:
00001AC8  554F                     subq.w     A7, 2
00001ACA  A974                     syscall    Button
00001ACC  4A1F                     tst.b      [A7]+
00001ACE  6700 0346                beq        +0x348 /* 00001E16 */
00001AD2  102D FE77                move.b     D0, [A5 - 0x189]
00001AD6  5300                     subq.b     D0, 1
00001AD8  670E                     beq        +0x10 /* 00001AE8 */
00001ADA  3F3C FFF0                move.w     -[A7], 0xFFF0
00001ADE  2F0E                     move.l     -[A7], A6
00001AE0  4EBA FB0C                jsr        [PC - 0x4F4 /* 000015EE */]
00001AE4  6000 0330                bra        +0x332 /* 00001E16 */
label00001AE8:
00001AE8  102D FE71                move.b     D0, [A5 - 0x18F]
00001AEC  5300                     subq.b     D0, 1
00001AEE  C02D FE77                and.b      D0, [A5 - 0x189]
00001AF2  6700 0322                beq        +0x324 /* 00001E16 */
00001AF6  2F0E                     move.l     -[A7], A6
00001AF8  4EBA FBDA                jsr        [PC - 0x426 /* 000016D4 */]
00001AFC  6000 0318                bra        +0x31A /* 00001E16 */
label00001B00:
00001B00  1B7C 0001 F649           move.b     [A5 - 0x9B7], 0x1
00001B06  426D F63E                clr.w      [A5 - 0x9C2]
00001B0A  302D F862                move.w     D0, [A5 - 0x79E]
00001B0E  3200                     move.w     D1, D0
00001B10  E649                     lsr        D1.w, 3
00001B12  0641 EEA6                addi.w     D1, 0xEEA6
00001B16  0135 1000                btst       [A5 + D1.w], D0
00001B1A  670A                     beq        +0xC /* 00001B26 */
00001B1C  3F3C 0010                move.w     -[A7], 0x10
00001B20  2F0E                     move.l     -[A7], A6
00001B22  4EBA FACA                jsr        [PC - 0x536 /* 000015EE */]
label00001B26:
00001B26  554F                     subq.w     A7, 2
00001B28  A974                     syscall    Button
00001B2A  4A1F                     tst.b      [A7]+
00001B2C  6700 02E8                beq        +0x2EA /* 00001E16 */
00001B30  102D FE77                move.b     D0, [A5 - 0x189]
00001B34  5300                     subq.b     D0, 1
00001B36  670E                     beq        +0x10 /* 00001B46 */
00001B38  3F3C 0010                move.w     -[A7], 0x10
00001B3C  2F0E                     move.l     -[A7], A6
00001B3E  4EBA FAAE                jsr        [PC - 0x552 /* 000015EE */]
00001B42  6000 02D2                bra        +0x2D4 /* 00001E16 */
label00001B46:
00001B46  102D FE71                move.b     D0, [A5 - 0x18F]
00001B4A  5300                     subq.b     D0, 1
00001B4C  C02D FE77                and.b      D0, [A5 - 0x189]
00001B50  6700 02C4                beq        +0x2C6 /* 00001E16 */
00001B54  2F0E                     move.l     -[A7], A6
00001B56  4EBA FB7C                jsr        [PC - 0x484 /* 000016D4 */]
00001B5A  6000 02BA                bra        +0x2BC /* 00001E16 */
label00001B5E:
00001B5E  4A6D F640                tst.w      [A5 - 0x9C0]
00001B62  6C60                     bge        +0x62 /* 00001BC4 */
00001B64  1B7C 0001 F649           move.b     [A5 - 0x9B7], 0x1
00001B6A  3B7C 0002 F63E           move.w     [A5 - 0x9C2], 0x2
00001B70  302D F862                move.w     D0, [A5 - 0x79E]
00001B74  3200                     move.w     D1, D0
00001B76  E649                     lsr        D1.w, 3
00001B78  0641 EEA6                addi.w     D1, 0xEEA6
00001B7C  0135 1000                btst       [A5 + D1.w], D0
00001B80  670A                     beq        +0xC /* 00001B8C */
00001B82  3F3C FFF0                move.w     -[A7], 0xFFF0
00001B86  2F0E                     move.l     -[A7], A6
00001B88  4EBA FA64                jsr        [PC - 0x59C /* 000015EE */]
label00001B8C:
00001B8C  554F                     subq.w     A7, 2
00001B8E  A974                     syscall    Button
00001B90  4A1F                     tst.b      [A7]+
00001B92  6700 0282                beq        +0x284 /* 00001E16 */
00001B96  102D FE77                move.b     D0, [A5 - 0x189]
00001B9A  5300                     subq.b     D0, 1
00001B9C  670E                     beq        +0x10 /* 00001BAC */
00001B9E  3F3C FFF0                move.w     -[A7], 0xFFF0
00001BA2  2F0E                     move.l     -[A7], A6
00001BA4  4EBA FA48                jsr        [PC - 0x5B8 /* 000015EE */]
00001BA8  6000 026C                bra        +0x26E /* 00001E16 */
label00001BAC:
00001BAC  102D FE71                move.b     D0, [A5 - 0x18F]
00001BB0  5300                     subq.b     D0, 1
00001BB2  C02D FE77                and.b      D0, [A5 - 0x189]
00001BB6  6700 025E                beq        +0x260 /* 00001E16 */
00001BBA  2F0E                     move.l     -[A7], A6
00001BBC  4EBA FB16                jsr        [PC - 0x4EA /* 000016D4 */]
00001BC0  6000 0254                bra        +0x256 /* 00001E16 */
label00001BC4:
00001BC4  422D F649                clr.b      [A5 - 0x9B7]
00001BC8  3B7C 0003 F63E           move.w     [A5 - 0x9C2], 0x3
00001BCE  302D F862                move.w     D0, [A5 - 0x79E]
00001BD2  3200                     move.w     D1, D0
00001BD4  E649                     lsr        D1.w, 3
00001BD6  0641 EEA6                addi.w     D1, 0xEEA6
00001BDA  0135 1000                btst       [A5 + D1.w], D0
00001BDE  670A                     beq        +0xC /* 00001BEA */
00001BE0  3F3C 0010                move.w     -[A7], 0x10
00001BE4  2F0E                     move.l     -[A7], A6
00001BE6  4EBA FA06                jsr        [PC - 0x5FA /* 000015EE */]
label00001BEA:
00001BEA  554F                     subq.w     A7, 2
00001BEC  A974                     syscall    Button
00001BEE  4A1F                     tst.b      [A7]+
00001BF0  6700 0224                beq        +0x226 /* 00001E16 */
00001BF4  102D FE77                move.b     D0, [A5 - 0x189]
00001BF8  5300                     subq.b     D0, 1
00001BFA  670E                     beq        +0x10 /* 00001C0A */
00001BFC  3F3C 0010                move.w     -[A7], 0x10
00001C00  2F0E                     move.l     -[A7], A6
00001C02  4EBA F9EA                jsr        [PC - 0x616 /* 000015EE */]
00001C06  6000 020E                bra        +0x210 /* 00001E16 */
label00001C0A:
00001C0A  102D FE71                move.b     D0, [A5 - 0x18F]
00001C0E  5300                     subq.b     D0, 1
00001C10  C02D FE77                and.b      D0, [A5 - 0x189]
00001C14  6700 0200                beq        +0x202 /* 00001E16 */
00001C18  2F0E                     move.l     -[A7], A6
00001C1A  4EBA FAB8                jsr        [PC - 0x548 /* 000016D4 */]
00001C1E  6000 01F6                bra        +0x1F8 /* 00001E16 */
label00001C22:
00001C22  302D F864                move.w     D0, [A5 - 0x79C]
00001C26  3200                     move.w     D1, D0
00001C28  E649                     lsr        D1.w, 3
00001C2A  0641 EEA6                addi.w     D1, 0xEEA6
00001C2E  0135 1000                btst       [A5 + D1.w], D0
00001C32  56C0                     sne        D0
00001C34  122D FE71                move.b     D1, [A5 - 0x18F]
00001C38  5301                     subq.b     D1, 1
00001C3A  C001                     and.b      D0, D1
00001C3C  6706                     beq        +0x8 /* 00001C44 */
00001C3E  2F0E                     move.l     -[A7], A6
00001C40  4EBA FA92                jsr        [PC - 0x56E /* 000016D4 */]
label00001C44:
00001C44  486E FFEA                pea.l      [A6 - 0x16]
00001C48  A972                     syscall    GetMouse
00001C4A  302E FFEC                move.w     D0, [A6 - 0x14]
00001C4E  0640 FF00                addi.w     D0, 0xFF00
00001C52  3B40 F640                move.w     [A5 - 0x9C0], D0
00001C56  0C6D 0005 F640           cmpi.w     [A5 - 0x9C0], 0x5
00001C5C  6F08                     ble        +0xA /* 00001C66 */
00001C5E  3B7C 0005 F640           move.w     [A5 - 0x9C0], 0x5
00001C64  600E                     bra        +0x10 /* 00001C74 */
label00001C66:
00001C66  0C6D FFFB F640           cmpi.w     [A5 - 0x9C0], 0xFFFB
00001C6C  6C06                     bge        +0x8 /* 00001C74 */
00001C6E  3B7C FFFB F640           move.w     [A5 - 0x9C0], 0xFFFB
label00001C74:
00001C74  4EBA E38A                jsr        [PC - 0x1C76 /* 00000000 */]
00001C78  4A2D F648                tst.b      [A5 - 0x9B8]
00001C7C  6700 00C4                beq        +0xC6 /* 00001D42 */
00001C80  4A6D F640                tst.w      [A5 - 0x9C0]
00001C84  6C5E                     bge        +0x60 /* 00001CE4 */
00001C86  422D F649                clr.b      [A5 - 0x9B7]
00001C8A  3B7C 0001 F63E           move.w     [A5 - 0x9C2], 0x1
00001C90  302D F862                move.w     D0, [A5 - 0x79E]
00001C94  3200                     move.w     D1, D0
00001C96  E649                     lsr        D1.w, 3
00001C98  0641 EEA6                addi.w     D1, 0xEEA6
00001C9C  0135 1000                btst       [A5 + D1.w], D0
00001CA0  670A                     beq        +0xC /* 00001CAC */
00001CA2  3F3C FFF0                move.w     -[A7], 0xFFF0
00001CA6  2F0E                     move.l     -[A7], A6
00001CA8  4EBA F944                jsr        [PC - 0x6BC /* 000015EE */]
label00001CAC:
00001CAC  554F                     subq.w     A7, 2
00001CAE  A974                     syscall    Button
00001CB0  4A1F                     tst.b      [A7]+
00001CB2  6700 0162                beq        +0x164 /* 00001E16 */
00001CB6  102D FE77                move.b     D0, [A5 - 0x189]
00001CBA  5300                     subq.b     D0, 1
00001CBC  670E                     beq        +0x10 /* 00001CCC */
00001CBE  3F3C FFF0                move.w     -[A7], 0xFFF0
00001CC2  2F0E                     move.l     -[A7], A6
00001CC4  4EBA F928                jsr        [PC - 0x6D8 /* 000015EE */]
00001CC8  6000 014C                bra        +0x14E /* 00001E16 */
label00001CCC:
00001CCC  102D FE71                move.b     D0, [A5 - 0x18F]
00001CD0  5300                     subq.b     D0, 1
00001CD2  C02D FE77                and.b      D0, [A5 - 0x189]
00001CD6  6700 013E                beq        +0x140 /* 00001E16 */
00001CDA  2F0E                     move.l     -[A7], A6
00001CDC  4EBA F9F6                jsr        [PC - 0x60A /* 000016D4 */]
00001CE0  6000 0134                bra        +0x136 /* 00001E16 */
label00001CE4:
00001CE4  1B7C 0001 F649           move.b     [A5 - 0x9B7], 0x1
00001CEA  426D F63E                clr.w      [A5 - 0x9C2]
00001CEE  302D F862                move.w     D0, [A5 - 0x79E]
00001CF2  3200                     move.w     D1, D0
00001CF4  E649                     lsr        D1.w, 3
00001CF6  0641 EEA6                addi.w     D1, 0xEEA6
00001CFA  0135 1000                btst       [A5 + D1.w], D0
00001CFE  670A                     beq        +0xC /* 00001D0A */
00001D00  3F3C 0010                move.w     -[A7], 0x10
00001D04  2F0E                     move.l     -[A7], A6
00001D06  4EBA F8E6                jsr        [PC - 0x71A /* 000015EE */]
label00001D0A:
00001D0A  554F                     subq.w     A7, 2
00001D0C  A974                     syscall    Button
00001D0E  4A1F                     tst.b      [A7]+
00001D10  6700 0104                beq        +0x106 /* 00001E16 */
00001D14  102D FE77                move.b     D0, [A5 - 0x189]
00001D18  5300                     subq.b     D0, 1
00001D1A  670E                     beq        +0x10 /* 00001D2A */
00001D1C  3F3C 0010                move.w     -[A7], 0x10
00001D20  2F0E                     move.l     -[A7], A6
00001D22  4EBA F8CA                jsr        [PC - 0x736 /* 000015EE */]
00001D26  6000 00EE                bra        +0xF0 /* 00001E16 */
label00001D2A:
00001D2A  102D FE71                move.b     D0, [A5 - 0x18F]
00001D2E  5300                     subq.b     D0, 1
00001D30  C02D FE77                and.b      D0, [A5 - 0x189]
00001D34  6700 00E0                beq        +0xE2 /* 00001E16 */
00001D38  2F0E                     move.l     -[A7], A6
00001D3A  4EBA F998                jsr        [PC - 0x668 /* 000016D4 */]
00001D3E  6000 00D6                bra        +0xD8 /* 00001E16 */
label00001D42:
00001D42  4A6D F640                tst.w      [A5 - 0x9C0]
00001D46  6C60                     bge        +0x62 /* 00001DA8 */
00001D48  1B7C 0001 F649           move.b     [A5 - 0x9B7], 0x1
00001D4E  3B7C 0002 F63E           move.w     [A5 - 0x9C2], 0x2
00001D54  302D F862                move.w     D0, [A5 - 0x79E]
00001D58  3200                     move.w     D1, D0
00001D5A  E649                     lsr        D1.w, 3
00001D5C  0641 EEA6                addi.w     D1, 0xEEA6
00001D60  0135 1000                btst       [A5 + D1.w], D0
00001D64  670A                     beq        +0xC /* 00001D70 */
00001D66  3F3C FFF0                move.w     -[A7], 0xFFF0
00001D6A  2F0E                     move.l     -[A7], A6
00001D6C  4EBA F880                jsr        [PC - 0x780 /* 000015EE */]
label00001D70:
00001D70  554F                     subq.w     A7, 2
00001D72  A974                     syscall    Button
00001D74  4A1F                     tst.b      [A7]+
00001D76  6700 009E                beq        +0xA0 /* 00001E16 */
00001D7A  102D FE77                move.b     D0, [A5 - 0x189]
00001D7E  5300                     subq.b     D0, 1
00001D80  670E                     beq        +0x10 /* 00001D90 */
00001D82  3F3C FFF0                move.w     -[A7], 0xFFF0
00001D86  2F0E                     move.l     -[A7], A6
00001D88  4EBA F864                jsr        [PC - 0x79C /* 000015EE */]
00001D8C  6000 0088                bra        +0x8A /* 00001E16 */
label00001D90:
00001D90  102D FE71                move.b     D0, [A5 - 0x18F]
00001D94  5300                     subq.b     D0, 1
00001D96  C02D FE77                and.b      D0, [A5 - 0x189]
00001D9A  6700 007A                beq        +0x7C /* 00001E16 */
00001D9E  2F0E                     move.l     -[A7], A6
00001DA0  4EBA F932                jsr        [PC - 0x6CE /* 000016D4 */]
00001DA4  6000 0070                bra        +0x72 /* 00001E16 */
label00001DA8:
00001DA8  422D F649                clr.b      [A5 - 0x9B7]
00001DAC  3B7C 0003 F63E           move.w     [A5 - 0x9C2], 0x3
00001DB2  302D F862                move.w     D0, [A5 - 0x79E]
00001DB6  3200                     move.w     D1, D0
00001DB8  E649                     lsr        D1.w, 3
00001DBA  0641 EEA6                addi.w     D1, 0xEEA6
00001DBE  0135 1000                btst       [A5 + D1.w], D0
00001DC2  670A                     beq        +0xC /* 00001DCE */
00001DC4  3F3C 0010                move.w     -[A7], 0x10
00001DC8  2F0E                     move.l     -[A7], A6
00001DCA  4EBA F822                jsr        [PC - 0x7DE /* 000015EE */]
label00001DCE:
00001DCE  554F                     subq.w     A7, 2
00001DD0  A974                     syscall    Button
00001DD2  4A1F                     tst.b      [A7]+
00001DD4  6740                     beq        +0x42 /* 00001E16 */
00001DD6  102D FE77                move.b     D0, [A5 - 0x189]
00001DDA  5300                     subq.b     D0, 1
00001DDC  670C                     beq        +0xE /* 00001DEA */
00001DDE  3F3C 0010                move.w     -[A7], 0x10
00001DE2  2F0E                     move.l     -[A7], A6
00001DE4  4EBA F808                jsr        [PC - 0x7F8 /* 000015EE */]
00001DE8  602C                     bra        +0x2E /* 00001E16 */
label00001DEA:
00001DEA  102D FE71                move.b     D0, [A5 - 0x18F]
00001DEE  5300                     subq.b     D0, 1
00001DF0  C02D FE77                and.b      D0, [A5 - 0x189]
00001DF4  6720                     beq        +0x22 /* 00001E16 */
00001DF6  2F0E                     move.l     -[A7], A6
00001DF8  4EBA F8DA                jsr        [PC - 0x726 /* 000016D4 */]
00001DFC  6018                     bra        +0x1A /* 00001E16 */
label00001DFE:
00001DFE  5340                     subq.w     D0, 1
00001E00  6700 FA22                beq        -0x5DC /* 00001824 */
00001E04  5340                     subq.w     D0, 1
00001E06  6700 FB2C                beq        -0x4D2 /* 00001934 */
00001E0A  5340                     subq.w     D0, 1
00001E0C  6700 FC36                beq        -0x3C8 /* 00001A44 */
00001E10  5340                     subq.w     D0, 1
00001E12  6700 FE0E                beq        -0x1F0 /* 00001C22 */
label00001E16:
00001E16  2E1F                     move.l     D7, [A7]+
00001E18  4E5E                     unlink     A6
00001E1A  4E75                     rts
fn00001E1C:
00001E1C  4A2D FE66                tst.b      [A5 - 0x19A]
00001E20  672C                     beq        +0x2E /* 00001E4E */
00001E22  554F                     subq.w     A7, 2
00001E24  3F3C 000B                move.w     -[A7], 0xB
00001E28  4EAD 01AA                jsr        [A5 + 0x1AA /* export_49, CODE:1 @ 00000F4A */]
00001E2C  301F                     move.w     D0, [A7]+
00001E2E  D06D F856                add.w      D0, [A5 - 0x7AA]
00001E32  5B40                     subq.w     D0, 5
00001E34  3B40 F856                move.w     [A5 - 0x7AA], D0
00001E38  554F                     subq.w     A7, 2
00001E3A  3F3C 000B                move.w     -[A7], 0xB
00001E3E  4EAD 01AA                jsr        [A5 + 0x1AA /* export_49, CODE:1 @ 00000F4A */]
00001E42  301F                     move.w     D0, [A7]+
00001E44  D06D F85A                add.w      D0, [A5 - 0x7A6]
00001E48  5B40                     subq.w     D0, 5
00001E4A  3B40 F85A                move.w     [A5 - 0x7A6], D0
label00001E4E:
00001E4E  302D F856                move.w     D0, [A5 - 0x7AA]
00001E52  5240                     addq.w     D0, 1
00001E54  3B40 F856                move.w     [A5 - 0x7AA], D0
00001E58  4A2D FEFC                tst.b      [A5 - 0x104]
00001E5C  670A                     beq        +0xC /* 00001E68 */
00001E5E  426D F856                clr.w      [A5 - 0x7AA]
00001E62  422D FEFC                clr.b      [A5 - 0x104]
00001E66  6030                     bra        +0x32 /* 00001E98 */
label00001E68:
00001E68  302D F5FE                move.w     D0, [A5 - 0xA02]
00001E6C  D06D F856                add.w      D0, [A5 - 0x7AA]
00001E70  3B40 F5FE                move.w     [A5 - 0xA02], D0
00001E74  302D F602                move.w     D0, [A5 - 0x9FE]
00001E78  D06D F856                add.w      D0, [A5 - 0x7AA]
00001E7C  3B40 F602                move.w     [A5 - 0x9FE], D0
00001E80  302D F62E                move.w     D0, [A5 - 0x9D2]
00001E84  D06D F856                add.w      D0, [A5 - 0x7AA]
00001E88  3B40 F62E                move.w     [A5 - 0x9D2], D0
00001E8C  302D F632                move.w     D0, [A5 - 0x9CE]
00001E90  D06D F856                add.w      D0, [A5 - 0x7AA]
00001E94  3B40 F632                move.w     [A5 - 0x9CE], D0
label00001E98:
00001E98  302D F640                move.w     D0, [A5 - 0x9C0]
00001E9C  D06D F85A                add.w      D0, [A5 - 0x7A6]
00001EA0  3B40 F640                move.w     [A5 - 0x9C0], D0
00001EA4  302D F600                move.w     D0, [A5 - 0xA00]
00001EA8  D06D F640                add.w      D0, [A5 - 0x9C0]
00001EAC  3B40 F600                move.w     [A5 - 0xA00], D0
00001EB0  302D F604                move.w     D0, [A5 - 0x9FC]
00001EB4  D06D F640                add.w      D0, [A5 - 0x9C0]
00001EB8  3B40 F604                move.w     [A5 - 0x9FC], D0
00001EBC  302D F600                move.w     D0, [A5 - 0xA00]
00001EC0  0640 000A                addi.w     D0, 0xA /* '\n' */
00001EC4  3B40 F630                move.w     [A5 - 0x9D0], D0
00001EC8  302D F604                move.w     D0, [A5 - 0x9FC]
00001ECC  0640 FFF6                addi.w     D0, 0xFFF6
00001ED0  3B40 F634                move.w     [A5 - 0x9CC], D0
00001ED4  3B6D F600 F618           move.w     [A5 - 0x9E8], [A5 - 0xA00]
00001EDA  3B6D F604 F61C           move.w     [A5 - 0x9E4], [A5 - 0x9FC]
00001EE0  4E75                     rts
fn00001EE2:
00001EE2  4E56 FFD8                link       A6, -0x0028
00001EE6  206E 0010                movea.l    A0, [A6 + 0x10]
00001EEA  43EE FFE0                lea.l      A1, [A6 - 0x20]
00001EEE  22D8                     move.l     [A1]+, [A0]+
00001EF0  22D8                     move.l     [A1]+, [A0]+
00001EF2  206E 000C                movea.l    A0, [A6 + 0xC]
00001EF6  43EE FFE8                lea.l      A1, [A6 - 0x18]
00001EFA  22D8                     move.l     [A1]+, [A0]+
00001EFC  22D8                     move.l     [A1]+, [A0]+
00001EFE  422E 0014                clr.b      [A6 + 0x14]
00001F02  302E FFE6                move.w     D0, [A6 - 0x1A]
00001F06  B06E FFEA                cmp.w      D0, [A6 - 0x16]
00001F0A  6D32                     blt        +0x34 /* 00001F3E */
00001F0C  302E FFEE                move.w     D0, [A6 - 0x12]
00001F10  B06E FFEA                cmp.w      D0, [A6 - 0x16]
00001F14  6D28                     blt        +0x2A /* 00001F3E */
00001F16  302E FFE4                move.w     D0, [A6 - 0x1C]
00001F1A  B06E FFE8                cmp.w      D0, [A6 - 0x18]
00001F1E  6D1E                     blt        +0x20 /* 00001F3E */
00001F20  302E FFEC                move.w     D0, [A6 - 0x14]
00001F24  B06E FFE8                cmp.w      D0, [A6 - 0x18]
00001F28  6D14                     blt        +0x16 /* 00001F3E */
00001F2A  554F                     subq.w     A7, 2
00001F2C  486E FFE0                pea.l      [A6 - 0x20]
00001F30  486E FFE8                pea.l      [A6 - 0x18]
00001F34  486E FFD8                pea.l      [A6 - 0x28]
00001F38  A8AA                     syscall    SectRect
00001F3A  1D5F 0014                move.b     [A6 + 0x14], [A7]+
label00001F3E:
00001F3E  4E5E                     unlink     A6
00001F40  205F                     movea.l    A0, [A7]+
00001F42  4FEF 000C                lea.l      A7, [A7 + 0xC]
00001F46  4ED0                     jmp        [A0]
fn00001F48:
00001F48  4E56 FFE4                link       A6, -0x001C
00001F4C  48E7 0118                movem.l    -[A7], D7,A3,A4
00001F50  3D6D F880 FFE4           move.w     [A6 - 0x1C], [A5 - 0x780]
00001F56  7E01                     moveq.l    D7, 0x01
00001F58  6000 0182                bra        +0x184 /* 000020DC */
label00001F5C:
00001F5C  3007                     move.w     D0, D7
00001F5E  C1FC 002A                muls.w     D0, 0x2A /* '*' */
00001F62  0640 EEC4                addi.w     D0, 0xEEC4
00001F66  49F5 0000                lea.l      A4, [A5 + D0.w]
00001F6A  4A2C 0028                tst.b      [A4 + 0x28]
00001F6E  6720                     beq        +0x22 /* 00001F90 */
00001F70  594F                     subq.w     A7, 4
00001F72  A975                     syscall    TickCount
00001F74  201F                     move.l     D0, [A7]+
00001F76  B0AC 0020                cmp.l      D0, [A4 + 0x20]
00001F7A  6F00 015C                ble        +0x15E /* 000020D8 */
00001F7E  3F3C FFFF                move.w     -[A7], 0xFFFF
00001F82  3F07                     move.w     -[A7], D7
00001F84  4EAD 0252                jsr        [A5 + 0x252 /* export_70, CODE:2 @ 00002C1E */]
00001F88  422C 0028                clr.b      [A4 + 0x28]
00001F8C  6000 014A                bra        +0x14C /* 000020D8 */
label00001F90:
00001F90  0C6C FFFF 001E           cmpi.w     [A4 + 0x1E], 0xFFFF
00001F96  6F14                     ble        +0x16 /* 00001FAC */
00001F98  486C 001E                pea.l      [A4 + 0x1E]
00001F9C  205F                     movea.l    A0, [A7]+
00001F9E  5250                     addq.w     [A0], 1
00001FA0  0C6C 0007 001E           cmpi.w     [A4 + 0x1E], 0x7
00001FA6  6F04                     ble        +0x6 /* 00001FAC */
00001FA8  426C 001E                clr.w      [A4 + 0x1E]
label00001FAC:
00001FAC  41D4                     lea.l      A0, [A4]
00001FAE  43EC 0008                lea.l      A1, [A4 + 0x8]
00001FB2  22D8                     move.l     [A1]+, [A0]+
00001FB4  22D8                     move.l     [A1]+, [A0]+
00001FB6  302C 001C                move.w     D0, [A4 + 0x1C]
00001FBA  6000 00C6                bra        +0xC8 /* 00002082 */
label00001FBE:
00001FBE  302C 0002                move.w     D0, [A4 + 0x2]
00001FC2  D06C 0018                add.w      D0, [A4 + 0x18]
00001FC6  3940 0002                move.w     [A4 + 0x2], D0
00001FCA  302C 0006                move.w     D0, [A4 + 0x6]
00001FCE  D06C 0018                add.w      D0, [A4 + 0x18]
00001FD2  3940 0006                move.w     [A4 + 0x6], D0
00001FD6  3014                     move.w     D0, [A4]
00001FD8  D06C 001A                add.w      D0, [A4 + 0x1A]
00001FDC  3880                     move.w     [A4], D0
00001FDE  302C 0004                move.w     D0, [A4 + 0x4]
00001FE2  D06C 001A                add.w      D0, [A4 + 0x1A]
00001FE6  3940 0004                move.w     [A4 + 0x4], D0
00001FEA  302C 000A                move.w     D0, [A4 + 0xA]
00001FEE  D06C 0018                add.w      D0, [A4 + 0x18]
00001FF2  3940 000A                move.w     [A4 + 0xA], D0
00001FF6  302C 000C                move.w     D0, [A4 + 0xC]
00001FFA  D06C 001A                add.w      D0, [A4 + 0x1A]
00001FFE  3940 000C                move.w     [A4 + 0xC], D0
00002002  6000 008C                bra        +0x8E /* 00002090 */
label00002006:
00002006  302C 0002                move.w     D0, [A4 + 0x2]
0000200A  D06C 0018                add.w      D0, [A4 + 0x18]
0000200E  3940 0002                move.w     [A4 + 0x2], D0
00002012  302C 0006                move.w     D0, [A4 + 0x6]
00002016  D06C 0018                add.w      D0, [A4 + 0x18]
0000201A  3940 0006                move.w     [A4 + 0x6], D0
0000201E  3014                     move.w     D0, [A4]
00002020  D06C 001A                add.w      D0, [A4 + 0x1A]
00002024  3880                     move.w     [A4], D0
00002026  302C 0004                move.w     D0, [A4 + 0x4]
0000202A  D06C 001A                add.w      D0, [A4 + 0x1A]
0000202E  3940 0004                move.w     [A4 + 0x4], D0
00002032  302C 000A                move.w     D0, [A4 + 0xA]
00002036  D06C 0018                add.w      D0, [A4 + 0x18]
0000203A  3940 000A                move.w     [A4 + 0xA], D0
0000203E  302C 000C                move.w     D0, [A4 + 0xC]
00002042  D06C 001A                add.w      D0, [A4 + 0x1A]
00002046  3940 000C                move.w     [A4 + 0xC], D0
0000204A  6044                     bra        +0x46 /* 00002090 */
label0000204C:
0000204C  3014                     move.w     D0, [A4]
0000204E  D06C 001A                add.w      D0, [A4 + 0x1A]
00002052  3880                     move.w     [A4], D0
00002054  302C 0004                move.w     D0, [A4 + 0x4]
00002058  D06C 001A                add.w      D0, [A4 + 0x1A]
0000205C  3940 0004                move.w     [A4 + 0x4], D0
00002060  4A6C 001A                tst.w      [A4 + 0x1A]
00002064  6F0E                     ble        +0x10 /* 00002074 */
00002066  302C 000C                move.w     D0, [A4 + 0xC]
0000206A  D06C 001A                add.w      D0, [A4 + 0x1A]
0000206E  3940 000C                move.w     [A4 + 0xC], D0
00002072  601C                     bra        +0x1E /* 00002090 */
label00002074:
00002074  302C 0008                move.w     D0, [A4 + 0x8]
00002078  D06C 001A                add.w      D0, [A4 + 0x1A]
0000207C  3940 0008                move.w     [A4 + 0x8], D0
00002080  600E                     bra        +0x10 /* 00002090 */
label00002082:
00002082  6700 FF3A                beq        -0xC4 /* 00001FBE */
00002086  5340                     subq.w     D0, 1
00002088  6700 FF7C                beq        -0x82 /* 00002006 */
0000208C  5340                     subq.w     D0, 1
0000208E  67BC                     beq        -0x42 /* 0000204C */
label00002090:
00002090  102C 0028                move.b     D0, [A4 + 0x28]
00002094  5300                     subq.b     D0, 1
00002096  6740                     beq        +0x42 /* 000020D8 */
00002098  554F                     subq.w     A7, 2
0000209A  486C 0008                pea.l      [A4 + 0x8]
0000209E  486D B568                pea.l      [A5 - 0x4A98]
000020A2  2F0E                     move.l     -[A7], A6
000020A4  4EBA FE3C                jsr        [PC - 0x1C4 /* 00001EE2 */]
000020A8  101F                     move.b     D0, [A7]+
000020AA  5300                     subq.b     D0, 1
000020AC  672A                     beq        +0x2C /* 000020D8 */
000020AE  594F                     subq.w     A7, 4
000020B0  A975                     syscall    TickCount
000020B2  201F                     move.l     D0, [A7]+
000020B4  D0AC 0024                add.l      D0, [A4 + 0x24]
000020B8  2940 0020                move.l     [A4 + 0x20], D0
000020BC  41ED B578                lea.l      A0, [A5 - 0x4A88]
000020C0  43D4                     lea.l      A1, [A4]
000020C2  22D8                     move.l     [A1]+, [A0]+
000020C4  22D8                     move.l     [A1]+, [A0]+
000020C6  41ED B578                lea.l      A0, [A5 - 0x4A88]
000020CA  43EC 0008                lea.l      A1, [A4 + 0x8]
000020CE  22D8                     move.l     [A1]+, [A0]+
000020D0  22D8                     move.l     [A1]+, [A0]+
000020D2  197C 0001 0028           move.b     [A4 + 0x28], 0x1
label000020D8:
000020D8  5247                     addq.w     D7, 1
000020DA  6908                     bvs        +0xA /* 000020E4 */
label000020DC:
000020DC  BE6E FFE4                cmp.w      D7, [A6 - 0x1C]
000020E0  6F00 FE7A                ble        -0x184 /* 00001F5C */
label000020E4:
000020E4  4CDF 1880                movem.l    D7,A3,A4, [A7]+
000020E8  4E5E                     unlink     A6
000020EA  4E75                     rts
fn000020EC:
000020EC  4E56 FFEA                link       A6, -0x0016
000020F0  48E7 0318                movem.l    -[A7], D6,D7,A3,A4
000020F4  3D6D F882 FFEA           move.w     [A6 - 0x16], [A5 - 0x77E]
000020FA  7C01                     moveq.l    D6, 0x01
000020FC  6000 06AE                bra        +0x6B0 /* 000027AC */
label00002100:
00002100  3006                     move.w     D0, D6
00002102  C1FC 002A                muls.w     D0, 0x2A /* '*' */
00002106  0640 F314                addi.w     D0, 0xF314
0000210A  49F5 0000                lea.l      A4, [A5 + D0.w]
0000210E  302C 001A                move.w     D0, [A4 + 0x1A]
00002112  6000 0662                bra        +0x664 /* 00002776 */
label00002116:
00002116  486C 0022                pea.l      [A4 + 0x22]
0000211A  205F                     movea.l    A0, [A7]+
0000211C  5290                     addq.l     [A0], 1
0000211E  7032                     moveq.l    D0, 0x32
00002120  B0AC 0022                cmp.l      D0, [A4 + 0x22]
00002124  6C00 0682                bge        +0x684 /* 000027A8 */
00002128  7030                     moveq.l    D0, 0x30
0000212A  2940 0022                move.l     [A4 + 0x22], D0
0000212E  6000 0678                bra        +0x67A /* 000027A8 */
label00002132:
00002132  302C 0018                move.w     D0, [A4 + 0x18]
00002136  C1FC 000C                muls.w     D0, 0xC
0000213A  0640 FD9A                addi.w     D0, 0xFD9A
0000213E  4AB5 0000                tst.l      [A5 + D0.w]
00002142  6628                     bne        +0x2A /* 0000216C */
00002144  3F3C 03F6                move.w     -[A7], 0x3F6
00002148  3F3C 0080                move.w     -[A7], 0x80
0000214C  4EAD 01A2                jsr        [A5 + 0x1A2 /* export_48, CODE:1 @ 00000CDE */]
00002150  302C 0018                move.w     D0, [A4 + 0x18]
00002154  C1FC 000C                muls.w     D0, 0xC
00002158  0640 FD9A                addi.w     D0, 0xFD9A
0000215C  720A                     moveq.l    D1, 0x0A
0000215E  2B81 0000                move.l     [A5 + D0.w], D1
00002162  7001                     moveq.l    D0, 0x01
00002164  2940 001E                move.l     [A4 + 0x1E], D0
00002168  6000 063E                bra        +0x640 /* 000027A8 */
label0000216C:
0000216C  4AAC 001E                tst.l      [A4 + 0x1E]
00002170  56C0                     sne        D0
00002172  0CAC 0000 03E7 001E      cmpi.l     [A4 + 0x1E], 0x3E7
0000217A  56C1                     sne        D1
0000217C  C001                     and.b      D0, D1
0000217E  6700 0628                beq        +0x62A /* 000027A8 */
00002182  202C 001E                move.l     D0, [A4 + 0x1E]
00002186  5280                     addq.l     D0, 1
00002188  2940 001E                move.l     [A4 + 0x1E], D0
0000218C  7004                     moveq.l    D0, 0x04
0000218E  B0AC 001E                cmp.l      D0, [A4 + 0x1E]
00002192  6C42                     bge        +0x44 /* 000021D6 */
00002194  302C 0028                move.w     D0, [A4 + 0x28]
00002198  5240                     addq.w     D0, 1
0000219A  3940 0028                move.w     [A4 + 0x28], D0
0000219E  302C 0018                move.w     D0, [A4 + 0x18]
000021A2  E740                     asl        D0.w, 3
000021A4  0640 FC90                addi.w     D0, 0xFC90
000021A8  3035 0000                move.w     D0, [A5 + D0.w]
000021AC  5240                     addq.w     D0, 1
000021AE  322C 0018                move.w     D1, [A4 + 0x18]
000021B2  E741                     asl        D1.w, 3
000021B4  0641 FC90                addi.w     D1, 0xFC90
000021B8  3B80 1000                move.w     [A5 + D1.w], D0
000021BC  302C 0028                move.w     D0, [A4 + 0x28]
000021C0  48C0                     ext.l      D0
000021C2  B0AC 0022                cmp.l      D0, [A4 + 0x22]
000021C6  6F00 05E0                ble        +0x5E2 /* 000027A8 */
000021CA  297C 0000 03E7 001E      move.l     [A4 + 0x1E], 0x3E7
000021D2  6000 05D4                bra        +0x5D6 /* 000027A8 */
label000021D6:
000021D6  7003                     moveq.l    D0, 0x03
000021D8  B0AC 001E                cmp.l      D0, [A4 + 0x1E]
000021DC  6F0A                     ble        +0xC /* 000021E8 */
000021DE  397C 003A 0026           move.w     [A4 + 0x26], 0x3A /* ':' */
000021E4  6000 05C2                bra        +0x5C4 /* 000027A8 */
label000021E8:
000021E8  397C 003B 0026           move.w     [A4 + 0x26], 0x3B /* ';' */
000021EE  6000 05B8                bra        +0x5BA /* 000027A8 */
label000021F2:
000021F2  0C6C 0019 0026           cmpi.w     [A4 + 0x26], 0x19
000021F8  6638                     bne        +0x3A /* 00002232 */
000021FA  594F                     subq.w     A7, 4
000021FC  A975                     syscall    TickCount
000021FE  201F                     move.l     D0, [A7]+
00002200  B0AC 0022                cmp.l      D0, [A4 + 0x22]
00002204  6F00 05A2                ble        +0x5A4 /* 000027A8 */
00002208  302D F86E                move.w     D0, [A5 - 0x792]
0000220C  0640 0033                addi.w     D0, 0x33 /* '3' */
00002210  3940 0026                move.w     [A4 + 0x26], D0
00002214  594F                     subq.w     A7, 4
00002216  A975                     syscall    TickCount
00002218  295F 0022                move.l     [A4 + 0x22], [A7]+
0000221C  302C 0018                move.w     D0, [A4 + 0x18]
00002220  C1FC 000C                muls.w     D0, 0xC
00002224  0640 FD9E                addi.w     D0, 0xFD9E
00002228  7201                     moveq.l    D1, 0x01
0000222A  2B81 0000                move.l     [A5 + D0.w], D1
0000222E  6000 0578                bra        +0x57A /* 000027A8 */
label00002232:
00002232  594F                     subq.w     A7, 4
00002234  A975                     syscall    TickCount
00002236  703C                     moveq.l    D0, 0x3C
00002238  D0AC 0022                add.l      D0, [A4 + 0x22]
0000223C  B09F                     cmp.l      D0, [A7]+
0000223E  6C28                     bge        +0x2A /* 00002268 */
00002240  397C 0019 0026           move.w     [A4 + 0x26], 0x19
00002246  594F                     subq.w     A7, 4
00002248  A975                     syscall    TickCount
0000224A  201F                     move.l     D0, [A7]+
0000224C  D0AC 001E                add.l      D0, [A4 + 0x1E]
00002250  2940 0022                move.l     [A4 + 0x22], D0
00002254  302C 0018                move.w     D0, [A4 + 0x18]
00002258  C1FC 000C                muls.w     D0, 0xC
0000225C  0640 FD9E                addi.w     D0, 0xFD9E
00002260  42B5 0000                clr.l      [A5 + D0.w]
00002264  6000 0542                bra        +0x544 /* 000027A8 */
label00002268:
00002268  3F3C 0400                move.w     -[A7], 0x400
0000226C  3F3C 0040                move.w     -[A7], 0x40 /* '@' */
00002270  4EAD 01A2                jsr        [A5 + 0x1A2 /* export_48, CODE:1 @ 00000CDE */]
00002274  302D F86E                move.w     D0, [A5 - 0x792]
00002278  0640 0033                addi.w     D0, 0x33 /* '3' */
0000227C  3940 0026                move.w     [A4 + 0x26], D0
00002280  6000 0526                bra        +0x528 /* 000027A8 */
label00002284:
00002284  0C6C 0039 001C           cmpi.w     [A4 + 0x1C], 0x39 /* '9' */
0000228A  6C2C                     bge        +0x2E /* 000022B8 */
0000228C  4A6D F86E                tst.w      [A5 - 0x792]
00002290  6700 0516                beq        +0x518 /* 000027A8 */
00002294  486C 001C                pea.l      [A4 + 0x1C]
00002298  205F                     movea.l    A0, [A7]+
0000229A  5250                     addq.w     [A0], 1
0000229C  0C6C 0039 001C           cmpi.w     [A4 + 0x1C], 0x39 /* '9' */
000022A2  6600 0504                bne        +0x506 /* 000027A8 */
000022A6  202C 0022                move.l     D0, [A4 + 0x22]
000022AA  0680 0000 00A0           addi.l     D0, 0xA0
000022B0  2940 0022                move.l     [A4 + 0x22], D0
000022B4  6000 04F2                bra        +0x4F4 /* 000027A8 */
label000022B8:
000022B8  302C 0028                move.w     D0, [A4 + 0x28]
000022BC  D06C 0026                add.w      D0, [A4 + 0x26]
000022C0  3940 0028                move.w     [A4 + 0x28], D0
000022C4  302C 0028                move.w     D0, [A4 + 0x28]
000022C8  48C0                     ext.l      D0
000022CA  D0AC 0022                add.l      D0, [A4 + 0x22]
000022CE  2940 0022                move.l     [A4 + 0x22], D0
000022D2  202C 0022                move.l     D0, [A4 + 0x22]
000022D6  B0AC 001E                cmp.l      D0, [A4 + 0x1E]
000022DA  6F00 010A                ble        +0x10C /* 000023E6 */
000022DE  3F3C 03EF                move.w     -[A7], 0x3EF
000022E2  3F3C 0030                move.w     -[A7], 0x30 /* '0' */
000022E6  4EAD 01A2                jsr        [A5 + 0x1A2 /* export_48, CODE:1 @ 00000CDE */]
000022EA  426C 0028                clr.w      [A4 + 0x28]
000022EE  302C 0004                move.w     D0, [A4 + 0x4]
000022F2  EB40                     asl        D0.w, 5
000022F4  48C0                     ext.l      D0
000022F6  2940 0022                move.l     [A4 + 0x22], D0
000022FA  4A2D FE7A                tst.b      [A5 - 0x186]
000022FE  6770                     beq        +0x72 /* 00002370 */
00002300  206D B7B2                movea.l    A0, [A5 - 0x484E]
00002304  2068 0002                movea.l    A0, [A0 + 0x2]
00002308  2F10                     move.l     -[A7], [A0]
0000230A  206D B7B6                movea.l    A0, [A5 - 0x484A]
0000230E  2068 0002                movea.l    A0, [A0 + 0x2]
00002312  2F10                     move.l     -[A7], [A0]
00002314  302C 0018                move.w     D0, [A4 + 0x18]
00002318  E740                     asl        D0.w, 3
0000231A  0640 FC8A                addi.w     D0, 0xFC8A
0000231E  4875 0000                pea.l      [A5 + D0.w]
00002322  302C 0018                move.w     D0, [A4 + 0x18]
00002326  E740                     asl        D0.w, 3
00002328  0640 FC8A                addi.w     D0, 0xFC8A
0000232C  4875 0000                pea.l      [A5 + D0.w]
00002330  4267                     clr.w      -[A7]
00002332  2F2D B590                move.l     -[A7], [A5 - 0x4A70]
00002336  A8EC                     syscall    CopyBits
00002338  206D B7B2                movea.l    A0, [A5 - 0x484E]
0000233C  2068 0002                movea.l    A0, [A0 + 0x2]
00002340  2F10                     move.l     -[A7], [A0]
00002342  206D B560                movea.l    A0, [A5 - 0x4AA0]
00002346  4868 0002                pea.l      [A0 + 0x2]
0000234A  302C 0018                move.w     D0, [A4 + 0x18]
0000234E  E740                     asl        D0.w, 3
00002350  0640 FC8A                addi.w     D0, 0xFC8A
00002354  4875 0000                pea.l      [A5 + D0.w]
00002358  302C 0018                move.w     D0, [A4 + 0x18]
0000235C  E740                     asl        D0.w, 3
0000235E  0640 FC8A                addi.w     D0, 0xFC8A
00002362  4875 0000                pea.l      [A5 + D0.w]
00002366  4267                     clr.w      -[A7]
00002368  2F2D B590                move.l     -[A7], [A5 - 0x4A70]
0000236C  A8EC                     syscall    CopyBits
0000236E  605C                     bra        +0x5E /* 000023CC */
label00002370:
00002370  486D B5A2                pea.l      [A5 - 0x4A5E]
00002374  486D B5B0                pea.l      [A5 - 0x4A50]
00002378  302C 0018                move.w     D0, [A4 + 0x18]
0000237C  E740                     asl        D0.w, 3
0000237E  0640 FC8A                addi.w     D0, 0xFC8A
00002382  4875 0000                pea.l      [A5 + D0.w]
00002386  302C 0018                move.w     D0, [A4 + 0x18]
0000238A  E740                     asl        D0.w, 3
0000238C  0640 FC8A                addi.w     D0, 0xFC8A
00002390  4875 0000                pea.l      [A5 + D0.w]
00002394  4267                     clr.w      -[A7]
00002396  2F2D B590                move.l     -[A7], [A5 - 0x4A70]
0000239A  A8EC                     syscall    CopyBits
0000239C  486D B5A2                pea.l      [A5 - 0x4A5E]
000023A0  206D B560                movea.l    A0, [A5 - 0x4AA0]
000023A4  4868 0002                pea.l      [A0 + 0x2]
000023A8  302C 0018                move.w     D0, [A4 + 0x18]
000023AC  E740                     asl        D0.w, 3
000023AE  0640 FC8A                addi.w     D0, 0xFC8A
000023B2  4875 0000                pea.l      [A5 + D0.w]
000023B6  302C 0018                move.w     D0, [A4 + 0x18]
000023BA  E740                     asl        D0.w, 3
000023BC  0640 FC8A                addi.w     D0, 0xFC8A
000023C0  4875 0000                pea.l      [A5 + D0.w]
000023C4  4267                     clr.w      -[A7]
000023C6  2F2D B590                move.l     -[A7], [A5 - 0x4A70]
000023CA  A8EC                     syscall    CopyBits
label000023CC:
000023CC  302C 0018                move.w     D0, [A4 + 0x18]
000023D0  E740                     asl        D0.w, 3
000023D2  41D4                     lea.l      A0, [A4]
000023D4  0640 FC8A                addi.w     D0, 0xFC8A
000023D8  43F5 0000                lea.l      A1, [A5 + D0.w]
000023DC  22D8                     move.l     [A1]+, [A0]+
000023DE  22D8                     move.l     [A1]+, [A0]+
000023E0  397C 0035 001C           move.w     [A4 + 0x1C], 0x35 /* '5' */
label000023E6:
000023E6  302C 0018                move.w     D0, [A4 + 0x18]
000023EA  E740                     asl        D0.w, 3
000023EC  0640 FC8A                addi.w     D0, 0xFC8A
000023F0  41F5 0000                lea.l      A0, [A5 + D0.w]
000023F4  43EC 0008                lea.l      A1, [A4 + 0x8]
000023F8  22D8                     move.l     [A1]+, [A0]+
000023FA  22D8                     move.l     [A1]+, [A0]+
000023FC  302C 0018                move.w     D0, [A4 + 0x18]
00002400  E740                     asl        D0.w, 3
00002402  0640 FC8A                addi.w     D0, 0xFC8A
00002406  47F5 0000                lea.l      A3, [A5 + D0.w]
0000240A  2E2C 0022                move.l     D7, [A4 + 0x22]
0000240E  EA8F                     lsr        D7, 5
00002410  9E6B 0004                sub.w      D7, [A3 + 0x4]
00002414  302B 0004                move.w     D0, [A3 + 0x4]
00002418  D047                     add.w      D0, D7
0000241A  3740 0004                move.w     [A3 + 0x4], D0
0000241E  3013                     move.w     D0, [A3]
00002420  D047                     add.w      D0, D7
00002422  3680                     move.w     [A3], D0
00002424  302C 000C                move.w     D0, [A4 + 0xC]
00002428  D047                     add.w      D0, D7
0000242A  3940 000C                move.w     [A4 + 0xC], D0
0000242E  6000 0378                bra        +0x37A /* 000027A8 */
label00002432:
00002432  4A6C 001C                tst.w      [A4 + 0x1C]
00002436  6700 00E6                beq        +0xE8 /* 0000251E */
0000243A  4A6D F86E                tst.w      [A5 - 0x792]
0000243E  6618                     bne        +0x1A /* 00002458 */
00002440  302C 001C                move.w     D0, [A4 + 0x1C]
00002444  5240                     addq.w     D0, 1
00002446  3940 001C                move.w     [A4 + 0x1C], D0
0000244A  0C6C 0041 001C           cmpi.w     [A4 + 0x1C], 0x41 /* 'A' */
00002450  6F06                     ble        +0x8 /* 00002458 */
00002452  397C 003C 001C           move.w     [A4 + 0x1C], 0x3C /* '<' */
label00002458:
00002458  302C 0028                move.w     D0, [A4 + 0x28]
0000245C  D06C 0026                add.w      D0, [A4 + 0x26]
00002460  3940 0028                move.w     [A4 + 0x28], D0
00002464  302C 0028                move.w     D0, [A4 + 0x28]
00002468  48C0                     ext.l      D0
0000246A  D0AC 0022                add.l      D0, [A4 + 0x22]
0000246E  2940 0022                move.l     [A4 + 0x22], D0
00002472  202C 0022                move.l     D0, [A4 + 0x22]
00002476  B0AC 001E                cmp.l      D0, [A4 + 0x1E]
0000247A  6F44                     ble        +0x46 /* 000024C0 */
0000247C  3F3C 03FE                move.w     -[A7], 0x3FE
00002480  3F3C 0050                move.w     -[A7], 0x50 /* 'P' */
00002484  4EAD 01A2                jsr        [A5 + 0x1A2 /* export_48, CODE:1 @ 00000CDE */]
00002488  302C 0028                move.w     D0, [A4 + 0x28]
0000248C  4440                     neg.w      D0
0000248E  3940 0028                move.w     [A4 + 0x28], D0
00002492  296C 001E 0022           move.l     [A4 + 0x22], [A4 + 0x1E]
00002498  594F                     subq.w     A7, 4
0000249A  A975                     syscall    TickCount
0000249C  302D F868                move.w     D0, [A5 - 0x798]
000024A0  C1FC 013A                muls.w     D0, 0x13A
000024A4  322C 0018                move.w     D1, [A4 + 0x18]
000024A8  E941                     asl        D1.w, 4
000024AA  D041                     add.w      D0, D1
000024AC  0640 BC92                addi.w     D0, 0xBC92
000024B0  3035 0000                move.w     D0, [A5 + D0.w]
000024B4  48C0                     ext.l      D0
000024B6  D09F                     add.l      D0, [A7]+
000024B8  2940 001E                move.l     [A4 + 0x1E], D0
000024BC  426C 001C                clr.w      [A4 + 0x1C]
label000024C0:
000024C0  302C 0018                move.w     D0, [A4 + 0x18]
000024C4  E740                     asl        D0.w, 3
000024C6  0640 FC8A                addi.w     D0, 0xFC8A
000024CA  41F5 0000                lea.l      A0, [A5 + D0.w]
000024CE  43EC 0008                lea.l      A1, [A4 + 0x8]
000024D2  22D8                     move.l     [A1]+, [A0]+
000024D4  22D8                     move.l     [A1]+, [A0]+
000024D6  302C 0018                move.w     D0, [A4 + 0x18]
000024DA  E740                     asl        D0.w, 3
000024DC  0640 FC8A                addi.w     D0, 0xFC8A
000024E0  47F5 0000                lea.l      A3, [A5 + D0.w]
000024E4  2E2C 0022                move.l     D7, [A4 + 0x22]
000024E8  EA8F                     lsr        D7, 5
000024EA  9E6B 0004                sub.w      D7, [A3 + 0x4]
000024EE  302B 0004                move.w     D0, [A3 + 0x4]
000024F2  D047                     add.w      D0, D7
000024F4  3740 0004                move.w     [A3 + 0x4], D0
000024F8  3013                     move.w     D0, [A3]
000024FA  D047                     add.w      D0, D7
000024FC  3680                     move.w     [A3], D0
000024FE  4A47                     tst.w      D7
00002500  6F0E                     ble        +0x10 /* 00002510 */
00002502  302C 000C                move.w     D0, [A4 + 0xC]
00002506  D047                     add.w      D0, D7
00002508  3940 000C                move.w     [A4 + 0xC], D0
0000250C  6000 029A                bra        +0x29C /* 000027A8 */
label00002510:
00002510  302C 0008                move.w     D0, [A4 + 0x8]
00002514  D047                     add.w      D0, D7
00002516  3940 0008                move.w     [A4 + 0x8], D0
0000251A  6000 028C                bra        +0x28E /* 000027A8 */
label0000251E:
0000251E  594F                     subq.w     A7, 4
00002520  A975                     syscall    TickCount
00002522  201F                     move.l     D0, [A7]+
00002524  B0AC 001E                cmp.l      D0, [A4 + 0x1E]
00002528  6F00 027E                ble        +0x280 /* 000027A8 */
0000252C  3F3C 03FF                move.w     -[A7], 0x3FF
00002530  3F3C 0060                move.w     -[A7], 0x60 /* '`' */
00002534  4EAD 01A2                jsr        [A5 + 0x1A2 /* export_48, CODE:1 @ 00000CDE */]
00002538  296C 0022 001E           move.l     [A4 + 0x1E], [A4 + 0x22]
0000253E  397C 003C 001C           move.w     [A4 + 0x1C], 0x3C /* '<' */
00002544  6000 0262                bra        +0x264 /* 000027A8 */
label00002548:
00002548  302C 0028                move.w     D0, [A4 + 0x28]
0000254C  D06C 0026                add.w      D0, [A4 + 0x26]
00002550  3940 0028                move.w     [A4 + 0x28], D0
00002554  302C 0028                move.w     D0, [A4 + 0x28]
00002558  48C0                     ext.l      D0
0000255A  D0AC 0022                add.l      D0, [A4 + 0x22]
0000255E  2940 0022                move.l     [A4 + 0x22], D0
00002562  202C 0022                move.l     D0, [A4 + 0x22]
00002566  B0AC 001E                cmp.l      D0, [A4 + 0x1E]
0000256A  6F1C                     ble        +0x1E /* 00002588 */
0000256C  3F3C 03EC                move.w     -[A7], 0x3EC
00002570  3F3C 00A0                move.w     -[A7], 0xA0
00002574  4EAD 01A2                jsr        [A5 + 0x1A2 /* export_48, CODE:1 @ 00000CDE */]
00002578  302C 0028                move.w     D0, [A4 + 0x28]
0000257C  4440                     neg.w      D0
0000257E  3940 0028                move.w     [A4 + 0x28], D0
00002582  296C 001E 0022           move.l     [A4 + 0x22], [A4 + 0x1E]
label00002588:
00002588  302C 0018                move.w     D0, [A4 + 0x18]
0000258C  E740                     asl        D0.w, 3
0000258E  0640 FC8A                addi.w     D0, 0xFC8A
00002592  41F5 0000                lea.l      A0, [A5 + D0.w]
00002596  43EC 0008                lea.l      A1, [A4 + 0x8]
0000259A  22D8                     move.l     [A1]+, [A0]+
0000259C  22D8                     move.l     [A1]+, [A0]+
0000259E  302C 0018                move.w     D0, [A4 + 0x18]
000025A2  E740                     asl        D0.w, 3
000025A4  0640 FC8A                addi.w     D0, 0xFC8A
000025A8  47F5 0000                lea.l      A3, [A5 + D0.w]
000025AC  2E2C 0022                move.l     D7, [A4 + 0x22]
000025B0  EA8F                     lsr        D7, 5
000025B2  9E6B 0004                sub.w      D7, [A3 + 0x4]
000025B6  302B 0004                move.w     D0, [A3 + 0x4]
000025BA  D047                     add.w      D0, D7
000025BC  3740 0004                move.w     [A3 + 0x4], D0
000025C0  3013                     move.w     D0, [A3]
000025C2  D047                     add.w      D0, D7
000025C4  3680                     move.w     [A3], D0
000025C6  4A47                     tst.w      D7
000025C8  6F0E                     ble        +0x10 /* 000025D8 */
000025CA  302C 000C                move.w     D0, [A4 + 0xC]
000025CE  D047                     add.w      D0, D7
000025D0  3940 000C                move.w     [A4 + 0xC], D0
000025D4  6000 01D2                bra        +0x1D4 /* 000027A8 */
label000025D8:
000025D8  302C 0008                move.w     D0, [A4 + 0x8]
000025DC  D047                     add.w      D0, D7
000025DE  3940 0008                move.w     [A4 + 0x8], D0
000025E2  6000 01C4                bra        +0x1C6 /* 000027A8 */
label000025E6:
000025E6  4A6C 001C                tst.w      [A4 + 0x1C]
000025EA  6700 00F8                beq        +0xFA /* 000026E4 */
000025EE  0C6C FFF0 0028           cmpi.w     [A4 + 0x28], 0xFFF0
000025F4  5EC0                     sgt        D0
000025F6  0C6C 0010 0028           cmpi.w     [A4 + 0x28], 0x10
000025FC  5DC1                     slt        D1
000025FE  C001                     and.b      D0, D1
00002600  6708                     beq        +0xA /* 0000260A */
00002602  397C 0045 001C           move.w     [A4 + 0x1C], 0x45 /* 'E' */
00002608  6014                     bra        +0x16 /* 0000261E */
label0000260A:
0000260A  4A6C 0028                tst.w      [A4 + 0x28]
0000260E  6C08                     bge        +0xA /* 00002618 */
00002610  397C 0042 001C           move.w     [A4 + 0x1C], 0x42 /* 'B' */
00002616  6006                     bra        +0x8 /* 0000261E */
label00002618:
00002618  397C 0044 001C           move.w     [A4 + 0x1C], 0x44 /* 'D' */
label0000261E:
0000261E  302C 0028                move.w     D0, [A4 + 0x28]
00002622  D06C 0026                add.w      D0, [A4 + 0x26]
00002626  3940 0028                move.w     [A4 + 0x28], D0
0000262A  302C 0028                move.w     D0, [A4 + 0x28]
0000262E  48C0                     ext.l      D0
00002630  D0AC 0022                add.l      D0, [A4 + 0x22]
00002634  2940 0022                move.l     [A4 + 0x22], D0
00002638  202C 0022                move.l     D0, [A4 + 0x22]
0000263C  B0AC 001E                cmp.l      D0, [A4 + 0x1E]
00002640  6F44                     ble        +0x46 /* 00002686 */
00002642  3F3C 03EF                move.w     -[A7], 0x3EF
00002646  3F3C 0030                move.w     -[A7], 0x30 /* '0' */
0000264A  4EAD 01A2                jsr        [A5 + 0x1A2 /* export_48, CODE:1 @ 00000CDE */]
0000264E  302C 0028                move.w     D0, [A4 + 0x28]
00002652  4440                     neg.w      D0
00002654  3940 0028                move.w     [A4 + 0x28], D0
00002658  296C 001E 0022           move.l     [A4 + 0x22], [A4 + 0x1E]
0000265E  594F                     subq.w     A7, 4
00002660  A975                     syscall    TickCount
00002662  302D F868                move.w     D0, [A5 - 0x798]
00002666  C1FC 013A                muls.w     D0, 0x13A
0000266A  322C 0018                move.w     D1, [A4 + 0x18]
0000266E  E941                     asl        D1.w, 4
00002670  D041                     add.w      D0, D1
00002672  0640 BC92                addi.w     D0, 0xBC92
00002676  3035 0000                move.w     D0, [A5 + D0.w]
0000267A  48C0                     ext.l      D0
0000267C  D09F                     add.l      D0, [A7]+
0000267E  2940 001E                move.l     [A4 + 0x1E], D0
00002682  426C 001C                clr.w      [A4 + 0x1C]
label00002686:
00002686  302C 0018                move.w     D0, [A4 + 0x18]
0000268A  E740                     asl        D0.w, 3
0000268C  0640 FC8A                addi.w     D0, 0xFC8A
00002690  41F5 0000                lea.l      A0, [A5 + D0.w]
00002694  43EC 0008                lea.l      A1, [A4 + 0x8]
00002698  22D8                     move.l     [A1]+, [A0]+
0000269A  22D8                     move.l     [A1]+, [A0]+
0000269C  302C 0018                move.w     D0, [A4 + 0x18]
000026A0  E740                     asl        D0.w, 3
000026A2  0640 FC8A                addi.w     D0, 0xFC8A
000026A6  47F5 0000                lea.l      A3, [A5 + D0.w]
000026AA  2E2C 0022                move.l     D7, [A4 + 0x22]
000026AE  EA8F                     lsr        D7, 5
000026B0  9E6B 0004                sub.w      D7, [A3 + 0x4]
000026B4  302B 0004                move.w     D0, [A3 + 0x4]
000026B8  D047                     add.w      D0, D7
000026BA  3740 0004                move.w     [A3 + 0x4], D0
000026BE  3013                     move.w     D0, [A3]
000026C0  D047                     add.w      D0, D7
000026C2  3680                     move.w     [A3], D0
000026C4  4A47                     tst.w      D7
000026C6  6F0E                     ble        +0x10 /* 000026D6 */
000026C8  302C 000C                move.w     D0, [A4 + 0xC]
000026CC  D047                     add.w      D0, D7
000026CE  3940 000C                move.w     [A4 + 0xC], D0
000026D2  6000 00D4                bra        +0xD6 /* 000027A8 */
label000026D6:
000026D6  302C 0008                move.w     D0, [A4 + 0x8]
000026DA  D047                     add.w      D0, D7
000026DC  3940 0008                move.w     [A4 + 0x8], D0
000026E0  6000 00C6                bra        +0xC8 /* 000027A8 */
label000026E4:
000026E4  594F                     subq.w     A7, 4
000026E6  A975                     syscall    TickCount
000026E8  201F                     move.l     D0, [A7]+
000026EA  B0AC 001E                cmp.l      D0, [A4 + 0x1E]
000026EE  6F00 00B8                ble        +0xBA /* 000027A8 */
000026F2  3F3C 03EF                move.w     -[A7], 0x3EF
000026F6  3F3C 0030                move.w     -[A7], 0x30 /* '0' */
000026FA  4EAD 01A2                jsr        [A5 + 0x1A2 /* export_48, CODE:1 @ 00000CDE */]
000026FE  296C 0022 001E           move.l     [A4 + 0x1E], [A4 + 0x22]
00002704  397C 0042 001C           move.w     [A4 + 0x1C], 0x42 /* 'B' */
0000270A  6000 009C                bra        +0x9E /* 000027A8 */
label0000270E:
0000270E  594F                     subq.w     A7, 4
00002710  A975                     syscall    TickCount
00002712  201F                     move.l     D0, [A7]+
00002714  B0AC 001E                cmp.l      D0, [A4 + 0x1E]
00002718  6F00 008E                ble        +0x90 /* 000027A8 */
0000271C  302C 0018                move.w     D0, [A4 + 0x18]
00002720  C1FC 000C                muls.w     D0, 0xC
00002724  0640 FD9A                addi.w     D0, 0xFD9A
00002728  7218                     moveq.l    D1, 0x18
0000272A  2B81 0000                move.l     [A5 + D0.w], D1
0000272E  4A6C 001C                tst.w      [A4 + 0x1C]
00002732  660C                     bne        +0xE /* 00002740 */
00002734  3F3C 0401                move.w     -[A7], 0x401
00002738  3F3C 0190                move.w     -[A7], 0x190
0000273C  4EAD 01A2                jsr        [A5 + 0x1A2 /* export_48, CODE:1 @ 00000CDE */]
label00002740:
00002740  302C 001C                move.w     D0, [A4 + 0x1C]
00002744  5240                     addq.w     D0, 1
00002746  3940 001C                move.w     [A4 + 0x1C], D0
0000274A  0C6C 000A 001C           cmpi.w     [A4 + 0x1C], 0xA /* '\n' */
00002750  6F56                     ble        +0x58 /* 000027A8 */
00002752  426C 001C                clr.w      [A4 + 0x1C]
00002756  302C 0018                move.w     D0, [A4 + 0x18]
0000275A  C1FC 000C                muls.w     D0, 0xC
0000275E  0640 FD9A                addi.w     D0, 0xFD9A
00002762  42B5 0000                clr.l      [A5 + D0.w]
00002766  594F                     subq.w     A7, 4
00002768  A975                     syscall    TickCount
0000276A  201F                     move.l     D0, [A7]+
0000276C  D0AC 0022                add.l      D0, [A4 + 0x22]
00002770  2940 001E                move.l     [A4 + 0x1E], D0
00002774  6032                     bra        +0x34 /* 000027A8 */
label00002776:
00002776  0640 FFF5                addi.w     D0, 0xFFF5
0000277A  6700 F99A                beq        -0x664 /* 00002116 */
0000277E  5F40                     subq.w     D0, 7
00002780  6700 F9B0                beq        -0x64E /* 00002132 */
00002784  5F40                     subq.w     D0, 7
00002786  6700 FA6A                beq        -0x594 /* 000021F2 */
0000278A  5F40                     subq.w     D0, 7
0000278C  6700 FAF6                beq        -0x508 /* 00002284 */
00002790  5340                     subq.w     D0, 1
00002792  6700 FC9E                beq        -0x360 /* 00002432 */
00002796  5340                     subq.w     D0, 1
00002798  6700 FDAE                beq        -0x250 /* 00002548 */
0000279C  5340                     subq.w     D0, 1
0000279E  6700 FE46                beq        -0x1B8 /* 000025E6 */
000027A2  5340                     subq.w     D0, 1
000027A4  6700 FF68                beq        -0x96 /* 0000270E */
label000027A8:
000027A8  5246                     addq.w     D6, 1
000027AA  6908                     bvs        +0xA /* 000027B4 */
label000027AC:
000027AC  BC6E FFEA                cmp.w      D6, [A6 - 0x16]
000027B0  6F00 F94E                ble        -0x6B0 /* 00002100 */
label000027B4:
000027B4  4CDF 18C0                movem.l    D6,D7,A3,A4, [A7]+
000027B8  4E5E                     unlink     A6
000027BA  4E75                     rts
fn000027BC:
000027BC  4A6D FA14                tst.w      [A5 - 0x5EC]
000027C0  6614                     bne        +0x16 /* 000027D6 */
000027C2  594F                     subq.w     A7, 4
000027C4  A975                     syscall    TickCount
000027C6  201F                     move.l     D0, [A7]+
000027C8  B0AD FA16                cmp.l      D0, [A5 - 0x5EA]
000027CC  6F56                     ble        +0x58 /* 00002824 */
000027CE  3B7C 0001 FA14           move.w     [A5 - 0x5EC], 0x1
000027D4  604E                     bra        +0x50 /* 00002824 */
label000027D6:
000027D6  0C6D 0003 FA14           cmpi.w     [A5 - 0x5EC], 0x3
000027DC  6F3C                     ble        +0x3E /* 0000281A */
000027DE  426D FA14                clr.w      [A5 - 0x5EC]
000027E2  554F                     subq.w     A7, 2
000027E4  3F3C 0003                move.w     -[A7], 0x3
000027E8  4EAD 01AA                jsr        [A5 + 0x1AA /* export_49, CODE:1 @ 00000F4A */]
000027EC  301F                     move.w     D0, [A7]+
000027EE  5240                     addq.w     D0, 1
000027F0  3B40 FA12                move.w     [A5 - 0x5EE], D0
000027F4  594F                     subq.w     A7, 4
000027F6  A975                     syscall    TickCount
000027F8  554F                     subq.w     A7, 2
000027FA  3F3C 012C                move.w     -[A7], 0x12C
000027FE  4EAD 01AA                jsr        [A5 + 0x1AA /* export_49, CODE:1 @ 00000F4A */]
00002802  301F                     move.w     D0, [A7]+
00002804  48C0                     ext.l      D0
00002806  D09F                     add.l      D0, [A7]+
00002808  2B40 FA16                move.l     [A5 - 0x5EA], D0
0000280C  3F3C 03F9                move.w     -[A7], 0x3F9
00002810  3F3C 0020                move.w     -[A7], 0x20 /* ' ' */
00002814  4EAD 01A2                jsr        [A5 + 0x1A2 /* export_48, CODE:1 @ 00000CDE */]
00002818  600A                     bra        +0xC /* 00002824 */
label0000281A:
0000281A  302D FA14                move.w     D0, [A5 - 0x5EC]
0000281E  5240                     addq.w     D0, 1
00002820  3B40 FA14                move.w     [A5 - 0x5EC], D0
label00002824:
00002824  4E75                     rts
fn00002826:
00002826  4E56 FFDA                link       A6, -0x0026
0000282A  48E7 0308                movem.l    -[A7], D6,D7,A4
0000282E  4A2D FE86                tst.b      [A5 - 0x17A]
00002832  6700 085A                beq        +0x85C /* 0000308E */
00002836  4A2D FE67                tst.b      [A5 - 0x199]
0000283A  6700 00DA                beq        +0xDC /* 00002916 */
0000283E  4A6D FA14                tst.w      [A5 - 0x5EC]
00002842  6700 00D2                beq        +0xD4 /* 00002916 */
00002846  0C6D 0004 FA14           cmpi.w     [A5 - 0x5EC], 0x4
0000284C  6644                     bne        +0x46 /* 00002892 */
0000284E  2F2D B560                move.l     -[A7], [A5 - 0x4AA0]
00002852  A873                     syscall    SetPort
00002854  2F2D F9AA                move.l     -[A7], [A5 - 0x656]
00002858  A879                     syscall    SetClip
0000285A  A89E                     syscall    PenNormal
0000285C  2F2D F9AA                move.l     -[A7], [A5 - 0x656]
00002860  486D FFBA                pea.l      [A5 - 0x46]
00002864  A8D6                     syscall    FillRgn
00002866  486D B568                pea.l      [A5 - 0x4A98]
0000286A  A87B                     syscall    ClipRect
0000286C  2F2D B5E2                move.l     -[A7], [A5 - 0x4A1E]
00002870  A873                     syscall    SetPort
00002872  2F2D F9AA                move.l     -[A7], [A5 - 0x656]
00002876  A879                     syscall    SetClip
00002878  2F2D F9AA                move.l     -[A7], [A5 - 0x656]
0000287C  486D FFBA                pea.l      [A5 - 0x46]
00002880  A8D6                     syscall    FillRgn
00002882  486D B568                pea.l      [A5 - 0x4A98]
00002886  A87B                     syscall    ClipRect
00002888  2F2D B5DE                move.l     -[A7], [A5 - 0x4A22]
0000288C  A873                     syscall    SetPort
0000288E  6000 0086                bra        +0x88 /* 00002916 */
label00002892:
00002892  2F2D B560                move.l     -[A7], [A5 - 0x4AA0]
00002896  A873                     syscall    SetPort
00002898  2F2D F9AA                move.l     -[A7], [A5 - 0x656]
0000289C  A879                     syscall    SetClip
0000289E  A89E                     syscall    PenNormal
000028A0  3F3C 0002                move.w     -[A7], 0x2
000028A4  3F3C 0002                move.w     -[A7], 0x2
000028A8  A89B                     syscall    PenSize
000028AA  3F3C 000A                move.w     -[A7], 0xA /* '\n' */
000028AE  A89C                     syscall    PenMode
000028B0  302D FA12                move.w     D0, [A5 - 0x5EE]
000028B4  EB40                     asl        D0.w, 5
000028B6  0640 F992                addi.w     D0, 0xF992
000028BA  3F35 0000                move.w     -[A7], [A5 + D0.w]
000028BE  302D FA12                move.w     D0, [A5 - 0x5EE]
000028C2  EB40                     asl        D0.w, 5
000028C4  0640 F994                addi.w     D0, 0xF994
000028C8  3F35 0000                move.w     -[A7], [A5 + D0.w]
000028CC  A893                     syscall    MoveTo
000028CE  7E01                     moveq.l    D7, 0x01
label000028D0:
000028D0  302D FA12                move.w     D0, [A5 - 0x5EE]
000028D4  EB40                     asl        D0.w, 5
000028D6  3207                     move.w     D1, D7
000028D8  E541                     asl        D1.w, 2
000028DA  D041                     add.w      D0, D1
000028DC  0640 F992                addi.w     D0, 0xF992
000028E0  3F35 0000                move.w     -[A7], [A5 + D0.w]
000028E4  302D FA12                move.w     D0, [A5 - 0x5EE]
000028E8  EB40                     asl        D0.w, 5
000028EA  3207                     move.w     D1, D7
000028EC  E541                     asl        D1.w, 2
000028EE  D041                     add.w      D0, D1
000028F0  0640 F994                addi.w     D0, 0xF994
000028F4  3F35 0000                move.w     -[A7], [A5 + D0.w]
000028F8  A891                     syscall    LineTo
000028FA  4267                     clr.w      -[A7]
000028FC  3F3C 0002                move.w     -[A7], 0x2
00002900  A894                     syscall    Move
00002902  5247                     addq.w     D7, 1
00002904  0C47 0007                cmpi.w     D7, 0x7
00002908  6FC6                     ble        -0x38 /* 000028D0 */
0000290A  486D B568                pea.l      [A5 - 0x4A98]
0000290E  A87B                     syscall    ClipRect
00002910  2F2D B5DE                move.l     -[A7], [A5 - 0x4A22]
00002914  A873                     syscall    SetPort
label00002916:
00002916  4A2D FE6D                tst.b      [A5 - 0x193]
0000291A  6700 0088                beq        +0x8A /* 000029A4 */
0000291E  41ED F5FE                lea.l      A0, [A5 - 0xA02]
00002922  43EE FFDC                lea.l      A1, [A6 - 0x24]
00002926  22D8                     move.l     [A1]+, [A0]+
00002928  22D8                     move.l     [A1]+, [A0]+
0000292A  302E FFDE                move.w     D0, [A6 - 0x22]
0000292E  0640 FFF0                addi.w     D0, 0xFFF0
00002932  3D40 FFDE                move.w     [A6 - 0x22], D0
00002936  302E FFE2                move.w     D0, [A6 - 0x1E]
0000293A  0640 FFF0                addi.w     D0, 0xFFF0
0000293E  3D40 FFE2                move.w     [A6 - 0x1E], D0
00002942  302E FFDC                move.w     D0, [A6 - 0x24]
00002946  0640 FFE0                addi.w     D0, 0xFFE0
0000294A  3D40 FFDC                move.w     [A6 - 0x24], D0
0000294E  302E FFE0                move.w     D0, [A6 - 0x20]
00002952  0640 FFE0                addi.w     D0, 0xFFE0
00002956  3D40 FFE0                move.w     [A6 - 0x20], D0
0000295A  2F2D B560                move.l     -[A7], [A5 - 0x4AA0]
0000295E  A873                     syscall    SetPort
00002960  2F2D F9A6                move.l     -[A7], [A5 - 0x65A]
00002964  A879                     syscall    SetClip
00002966  486D B5BE                pea.l      [A5 - 0x4A42]
0000296A  486D B594                pea.l      [A5 - 0x4A6C]
0000296E  206D B560                movea.l    A0, [A5 - 0x4AA0]
00002972  4868 0002                pea.l      [A0 + 0x2]
00002976  302D F63E                move.w     D0, [A5 - 0x9C2]
0000297A  E740                     asl        D0.w, 3
0000297C  0640 F672                addi.w     D0, 0xF672
00002980  4875 0000                pea.l      [A5 + D0.w]
00002984  302D F63E                move.w     D0, [A5 - 0x9C2]
00002988  E740                     asl        D0.w, 3
0000298A  0640 F672                addi.w     D0, 0xF672
0000298E  4875 0000                pea.l      [A5 + D0.w]
00002992  486E FFDC                pea.l      [A6 - 0x24]
00002996  A817                     syscall    CopyMask
00002998  486D B568                pea.l      [A5 - 0x4A98]
0000299C  A87B                     syscall    ClipRect
0000299E  2F2D B5DE                move.l     -[A7], [A5 - 0x4A22]
000029A2  A873                     syscall    SetPort
label000029A4:
000029A4  4A6D F882                tst.w      [A5 - 0x77E]
000029A8  6F00 02C0                ble        +0x2C2 /* 00002C6A */
000029AC  3D6D F882 FFDA           move.w     [A6 - 0x26], [A5 - 0x77E]
000029B2  7E01                     moveq.l    D7, 0x01
000029B4  6000 02AC                bra        +0x2AE /* 00002C62 */
label000029B8:
000029B8  3007                     move.w     D0, D7
000029BA  C1FC 002A                muls.w     D0, 0x2A /* '*' */
000029BE  0640 F314                addi.w     D0, 0xF314
000029C2  49F5 0000                lea.l      A4, [A5 + D0.w]
000029C6  302C 001A                move.w     D0, [A4 + 0x1A]
000029CA  6000 0266                bra        +0x268 /* 00002C32 */
label000029CE:
000029CE  486D B5BE                pea.l      [A5 - 0x4A42]
000029D2  486D B594                pea.l      [A5 - 0x4A6C]
000029D6  206D B560                movea.l    A0, [A5 - 0x4AA0]
000029DA  4868 0002                pea.l      [A0 + 0x2]
000029DE  302C 0024                move.w     D0, [A4 + 0x24]
000029E2  E740                     asl        D0.w, 3
000029E4  0640 FA5A                addi.w     D0, 0xFA5A
000029E8  4875 0000                pea.l      [A5 + D0.w]
000029EC  302C 0024                move.w     D0, [A4 + 0x24]
000029F0  E740                     asl        D0.w, 3
000029F2  0640 FA5A                addi.w     D0, 0xFA5A
000029F6  4875 0000                pea.l      [A5 + D0.w]
000029FA  486C 0008                pea.l      [A4 + 0x8]
000029FE  A817                     syscall    CopyMask
00002A00  6000 025C                bra        +0x25E /* 00002C5E */
label00002A04:
00002A04  486D B5BE                pea.l      [A5 - 0x4A42]
00002A08  486D B594                pea.l      [A5 - 0x4A6C]
00002A0C  206D B560                movea.l    A0, [A5 - 0x4AA0]
00002A10  4868 0002                pea.l      [A0 + 0x2]
00002A14  302C 0026                move.w     D0, [A4 + 0x26]
00002A18  E740                     asl        D0.w, 3
00002A1A  0640 FA5A                addi.w     D0, 0xFA5A
00002A1E  4875 0000                pea.l      [A5 + D0.w]
00002A22  302C 0026                move.w     D0, [A4 + 0x26]
00002A26  E740                     asl        D0.w, 3
00002A28  0640 FA5A                addi.w     D0, 0xFA5A
00002A2C  4875 0000                pea.l      [A5 + D0.w]
00002A30  486C 0008                pea.l      [A4 + 0x8]
00002A34  A817                     syscall    CopyMask
00002A36  6000 0226                bra        +0x228 /* 00002C5E */
label00002A3A:
00002A3A  486D B5BE                pea.l      [A5 - 0x4A42]
00002A3E  486D B594                pea.l      [A5 - 0x4A6C]
00002A42  206D B560                movea.l    A0, [A5 - 0x4AA0]
00002A46  4868 0002                pea.l      [A0 + 0x2]
00002A4A  302C 0026                move.w     D0, [A4 + 0x26]
00002A4E  E740                     asl        D0.w, 3
00002A50  0640 FA5A                addi.w     D0, 0xFA5A
00002A54  4875 0000                pea.l      [A5 + D0.w]
00002A58  302C 0026                move.w     D0, [A4 + 0x26]
00002A5C  E740                     asl        D0.w, 3
00002A5E  0640 FA5A                addi.w     D0, 0xFA5A
00002A62  4875 0000                pea.l      [A5 + D0.w]
00002A66  486C 0008                pea.l      [A4 + 0x8]
00002A6A  A817                     syscall    CopyMask
00002A6C  2F2D B5E2                move.l     -[A7], [A5 - 0x4A1E]
00002A70  A873                     syscall    SetPort
00002A72  A89E                     syscall    PenNormal
00002A74  3F3C 0002                move.w     -[A7], 0x2
00002A78  3F3C 0002                move.w     -[A7], 0x2
00002A7C  A89B                     syscall    PenSize
00002A7E  302C 0028                move.w     D0, [A4 + 0x28]
00002A82  5540                     subq.w     D0, 2
00002A84  3F00                     move.w     -[A7], D0
00002A86  302C 000C                move.w     D0, [A4 + 0xC]
00002A8A  5540                     subq.w     D0, 2
00002A8C  3F00                     move.w     -[A7], D0
00002A8E  A893                     syscall    MoveTo
00002A90  302C 000E                move.w     D0, [A4 + 0xE]
00002A94  5240                     addq.w     D0, 1
00002A96  B06C 0028                cmp.w      D0, [A4 + 0x28]
00002A9A  6C08                     bge        +0xA /* 00002AA4 */
00002A9C  3F3C 0002                move.w     -[A7], 0x2
00002AA0  4267                     clr.w      -[A7]
00002AA2  A892                     syscall    Line
label00002AA4:
00002AA4  A89E                     syscall    PenNormal
00002AA6  2F2D B5DE                move.l     -[A7], [A5 - 0x4A22]
00002AAA  A873                     syscall    SetPort
00002AAC  A89E                     syscall    PenNormal
00002AAE  3F3C 0002                move.w     -[A7], 0x2
00002AB2  3F3C 0002                move.w     -[A7], 0x2
00002AB6  A89B                     syscall    PenSize
00002AB8  302C 0028                move.w     D0, [A4 + 0x28]
00002ABC  5540                     subq.w     D0, 2
00002ABE  3F00                     move.w     -[A7], D0
00002AC0  302C 000C                move.w     D0, [A4 + 0xC]
00002AC4  5540                     subq.w     D0, 2
00002AC6  3F00                     move.w     -[A7], D0
00002AC8  A893                     syscall    MoveTo
00002ACA  302C 000E                move.w     D0, [A4 + 0xE]
00002ACE  5240                     addq.w     D0, 1
00002AD0  B06C 0028                cmp.w      D0, [A4 + 0x28]
00002AD4  6C08                     bge        +0xA /* 00002ADE */
00002AD6  3F3C 0002                move.w     -[A7], 0x2
00002ADA  4267                     clr.w      -[A7]
00002ADC  A892                     syscall    Line
label00002ADE:
00002ADE  A89E                     syscall    PenNormal
00002AE0  6000 017C                bra        +0x17E /* 00002C5E */
label00002AE4:
00002AE4  486D B5BE                pea.l      [A5 - 0x4A42]
00002AE8  486D B594                pea.l      [A5 - 0x4A6C]
00002AEC  206D B560                movea.l    A0, [A5 - 0x4AA0]
00002AF0  4868 0002                pea.l      [A0 + 0x2]
00002AF4  302C 001A                move.w     D0, [A4 + 0x1A]
00002AF8  E740                     asl        D0.w, 3
00002AFA  0640 FA5A                addi.w     D0, 0xFA5A
00002AFE  4875 0000                pea.l      [A5 + D0.w]
00002B02  302C 001A                move.w     D0, [A4 + 0x1A]
00002B06  E740                     asl        D0.w, 3
00002B08  0640 FA5A                addi.w     D0, 0xFA5A
00002B0C  4875 0000                pea.l      [A5 + D0.w]
00002B10  302C 0018                move.w     D0, [A4 + 0x18]
00002B14  E740                     asl        D0.w, 3
00002B16  0640 FC8A                addi.w     D0, 0xFC8A
00002B1A  4875 0000                pea.l      [A5 + D0.w]
00002B1E  A817                     syscall    CopyMask
00002B20  6000 013C                bra        +0x13E /* 00002C5E */
label00002B24:
00002B24  486D B5BE                pea.l      [A5 - 0x4A42]
00002B28  486D B594                pea.l      [A5 - 0x4A6C]
00002B2C  206D B560                movea.l    A0, [A5 - 0x4AA0]
00002B30  4868 0002                pea.l      [A0 + 0x2]
00002B34  302C 001C                move.w     D0, [A4 + 0x1C]
00002B38  E740                     asl        D0.w, 3
00002B3A  0640 FA5A                addi.w     D0, 0xFA5A
00002B3E  4875 0000                pea.l      [A5 + D0.w]
00002B42  302C 001C                move.w     D0, [A4 + 0x1C]
00002B46  E740                     asl        D0.w, 3
00002B48  0640 FA5A                addi.w     D0, 0xFA5A
00002B4C  4875 0000                pea.l      [A5 + D0.w]
00002B50  302C 0018                move.w     D0, [A4 + 0x18]
00002B54  E740                     asl        D0.w, 3
00002B56  0640 FC8A                addi.w     D0, 0xFC8A
00002B5A  4875 0000                pea.l      [A5 + D0.w]
00002B5E  A817                     syscall    CopyMask
00002B60  6000 00FC                bra        +0xFE /* 00002C5E */
label00002B64:
00002B64  4A6C 001C                tst.w      [A4 + 0x1C]
00002B68  6700 00F4                beq        +0xF6 /* 00002C5E */
00002B6C  2F2D B560                move.l     -[A7], [A5 - 0x4AA0]
00002B70  A873                     syscall    SetPort
00002B72  2F2D F9AE                move.l     -[A7], [A5 - 0x652]
00002B76  A879                     syscall    SetClip
00002B78  486D B5BE                pea.l      [A5 - 0x4A42]
00002B7C  486D B594                pea.l      [A5 - 0x4A6C]
00002B80  206D B560                movea.l    A0, [A5 - 0x4AA0]
00002B84  4868 0002                pea.l      [A0 + 0x2]
00002B88  302C 001C                move.w     D0, [A4 + 0x1C]
00002B8C  E740                     asl        D0.w, 3
00002B8E  0640 FA5A                addi.w     D0, 0xFA5A
00002B92  4875 0000                pea.l      [A5 + D0.w]
00002B96  302C 001C                move.w     D0, [A4 + 0x1C]
00002B9A  E740                     asl        D0.w, 3
00002B9C  0640 FA5A                addi.w     D0, 0xFA5A
00002BA0  4875 0000                pea.l      [A5 + D0.w]
00002BA4  302C 0018                move.w     D0, [A4 + 0x18]
00002BA8  E740                     asl        D0.w, 3
00002BAA  0640 FC8A                addi.w     D0, 0xFC8A
00002BAE  4875 0000                pea.l      [A5 + D0.w]
00002BB2  A817                     syscall    CopyMask
00002BB4  486D B568                pea.l      [A5 - 0x4A98]
00002BB8  A87B                     syscall    ClipRect
00002BBA  2F2D B5DE                move.l     -[A7], [A5 - 0x4A22]
00002BBE  A873                     syscall    SetPort
00002BC0  6000 009C                bra        +0x9E /* 00002C5E */
label00002BC4:
00002BC4  4A6C 001C                tst.w      [A4 + 0x1C]
00002BC8  673E                     beq        +0x40 /* 00002C08 */
00002BCA  486D B5BE                pea.l      [A5 - 0x4A42]
00002BCE  486D B594                pea.l      [A5 - 0x4A6C]
00002BD2  206D B560                movea.l    A0, [A5 - 0x4AA0]
00002BD6  4868 0002                pea.l      [A0 + 0x2]
00002BDA  302C 001C                move.w     D0, [A4 + 0x1C]
00002BDE  E740                     asl        D0.w, 3
00002BE0  0640 FA5A                addi.w     D0, 0xFA5A
00002BE4  4875 0000                pea.l      [A5 + D0.w]
00002BE8  302C 001C                move.w     D0, [A4 + 0x1C]
00002BEC  E740                     asl        D0.w, 3
00002BEE  0640 FA5A                addi.w     D0, 0xFA5A
00002BF2  4875 0000                pea.l      [A5 + D0.w]
00002BF6  302C 0018                move.w     D0, [A4 + 0x18]
00002BFA  E740                     asl        D0.w, 3
00002BFC  0640 FC8A                addi.w     D0, 0xFC8A
00002C00  4875 0000                pea.l      [A5 + D0.w]
00002C04  A817                     syscall    CopyMask
00002C06  6056                     bra        +0x58 /* 00002C5E */
label00002C08:
00002C08  486D B5BE                pea.l      [A5 - 0x4A42]
00002C0C  486D B594                pea.l      [A5 - 0x4A6C]
00002C10  206D B560                movea.l    A0, [A5 - 0x4AA0]
00002C14  4868 0002                pea.l      [A0 + 0x2]
00002C18  486D FC82                pea.l      [A5 - 0x37E]
00002C1C  486D FC82                pea.l      [A5 - 0x37E]
00002C20  302C 0018                move.w     D0, [A4 + 0x18]
00002C24  E740                     asl        D0.w, 3
00002C26  0640 FC8A                addi.w     D0, 0xFC8A
00002C2A  4875 0000                pea.l      [A5 + D0.w]
00002C2E  A817                     syscall    CopyMask
00002C30  602C                     bra        +0x2E /* 00002C5E */
label00002C32:
00002C32  0640 FFF5                addi.w     D0, 0xFFF5
00002C36  6700 FD96                beq        -0x268 /* 000029CE */
00002C3A  5F40                     subq.w     D0, 7
00002C3C  6700 FDFC                beq        -0x202 /* 00002A3A */
00002C40  5F40                     subq.w     D0, 7
00002C42  6700 FDC0                beq        -0x23E /* 00002A04 */
00002C46  5F40                     subq.w     D0, 7
00002C48  6700 FEDA                beq        -0x124 /* 00002B24 */
00002C4C  5340                     subq.w     D0, 1
00002C4E  6700 FF14                beq        -0xEA /* 00002B64 */
00002C52  5340                     subq.w     D0, 1
00002C54  6700 FE8E                beq        -0x170 /* 00002AE4 */
00002C58  5340                     subq.w     D0, 1
00002C5A  6700 FF68                beq        -0x96 /* 00002BC4 */
label00002C5E:
00002C5E  5247                     addq.w     D7, 1
00002C60  6908                     bvs        +0xA /* 00002C6A */
label00002C62:
00002C62  BE6E FFDA                cmp.w      D7, [A6 - 0x26]
00002C66  6F00 FD50                ble        -0x2AE /* 000029B8 */
label00002C6A:
00002C6A  4A2D F648                tst.b      [A5 - 0x9B8]
00002C6E  6720                     beq        +0x22 /* 00002C90 */
00002C70  486D B5BE                pea.l      [A5 - 0x4A42]
00002C74  486D B594                pea.l      [A5 - 0x4A6C]
00002C78  206D B560                movea.l    A0, [A5 - 0x4AA0]
00002C7C  4868 0002                pea.l      [A0 + 0x2]
00002C80  486D F752                pea.l      [A5 - 0x8AE]
00002C84  486D F752                pea.l      [A5 - 0x8AE]
00002C88  486D F616                pea.l      [A5 - 0x9EA]
00002C8C  A817                     syscall    CopyMask
00002C8E  601E                     bra        +0x20 /* 00002CAE */
label00002C90:
00002C90  486D B5BE                pea.l      [A5 - 0x4A42]
00002C94  486D B594                pea.l      [A5 - 0x4A6C]
00002C98  206D B560                movea.l    A0, [A5 - 0x4AA0]
00002C9C  4868 0002                pea.l      [A0 + 0x2]
00002CA0  486D F75A                pea.l      [A5 - 0x8A6]
00002CA4  486D F75A                pea.l      [A5 - 0x8A6]
00002CA8  486D F616                pea.l      [A5 - 0x9EA]
00002CAC  A817                     syscall    CopyMask
label00002CAE:
00002CAE  4A2D FE83                tst.b      [A5 - 0x17D]
00002CB2  6736                     beq        +0x38 /* 00002CEA */
00002CB4  486D B5BE                pea.l      [A5 - 0x4A42]
00002CB8  486D B594                pea.l      [A5 - 0x4A6C]
00002CBC  206D B560                movea.l    A0, [A5 - 0x4AA0]
00002CC0  4868 0002                pea.l      [A0 + 0x2]
00002CC4  302D F63E                move.w     D0, [A5 - 0x9C2]
00002CC8  E740                     asl        D0.w, 3
00002CCA  0640 F672                addi.w     D0, 0xF672
00002CCE  4875 0000                pea.l      [A5 + D0.w]
00002CD2  302D F63E                move.w     D0, [A5 - 0x9C2]
00002CD6  E740                     asl        D0.w, 3
00002CD8  0640 F672                addi.w     D0, 0xF672
00002CDC  4875 0000                pea.l      [A5 + D0.w]
00002CE0  486D F5FE                pea.l      [A5 - 0xA02]
00002CE4  A817                     syscall    CopyMask
00002CE6  6000 0142                bra        +0x144 /* 00002E2A */
label00002CEA:
00002CEA  302D F63A                move.w     D0, [A5 - 0x9C6]
00002CEE  6000 0118                bra        +0x11A /* 00002E08 */
00002CF2  3C2D F63A                move.w     D6, [A5 - 0x9C6]
00002CF6  CDFC 0022                muls.w     D6, 0x22 /* '\"' */
00002CFA  302D F63C                move.w     D0, [A5 - 0x9C4]
00002CFE  D040                     add.w      D0, D0
00002D00  D046                     add.w      D0, D6
00002D02  0640 F740                addi.w     D0, 0xF740
00002D06  3C35 0000                move.w     D6, [A5 + D0.w]
00002D0A  102D F648                move.b     D0, [A5 - 0x9B8]
00002D0E  5300                     subq.b     D0, 1
00002D10  6702                     beq        +0x4 /* 00002D14 */
00002D12  5E46                     addq.w     D6, 7
label00002D14:
00002D14  486D B5BE                pea.l      [A5 - 0x4A42]
00002D18  486D B594                pea.l      [A5 - 0x4A6C]
00002D1C  206D B560                movea.l    A0, [A5 - 0x4AA0]
00002D20  4868 0002                pea.l      [A0 + 0x2]
00002D24  302D F63E                move.w     D0, [A5 - 0x9C2]
00002D28  E740                     asl        D0.w, 3
00002D2A  0640 F672                addi.w     D0, 0xF672
00002D2E  4875 0000                pea.l      [A5 + D0.w]
00002D32  3006                     move.w     D0, D6
00002D34  E740                     asl        D0.w, 3
00002D36  0640 F672                addi.w     D0, 0xF672
00002D3A  4875 0000                pea.l      [A5 + D0.w]
00002D3E  486D F5FE                pea.l      [A5 - 0xA02]
00002D42  A817                     syscall    CopyMask
00002D44  6000 00E4                bra        +0xE6 /* 00002E2A */
00002D48  3C2D F63A                move.w     D6, [A5 - 0x9C6]
00002D4C  CDFC 0022                muls.w     D6, 0x22 /* '\"' */
00002D50  302D F63C                move.w     D0, [A5 - 0x9C4]
00002D54  D040                     add.w      D0, D0
00002D56  D046                     add.w      D0, D6
00002D58  0640 F740                addi.w     D0, 0xF740
00002D5C  3C35 0000                move.w     D6, [A5 + D0.w]
00002D60  486D B5BE                pea.l      [A5 - 0x4A42]
00002D64  486D B594                pea.l      [A5 - 0x4A6C]
00002D68  206D B560                movea.l    A0, [A5 - 0x4AA0]
00002D6C  4868 0002                pea.l      [A0 + 0x2]
00002D70  3006                     move.w     D0, D6
00002D72  E740                     asl        D0.w, 3
00002D74  0640 F672                addi.w     D0, 0xF672
00002D78  4875 0000                pea.l      [A5 + D0.w]
00002D7C  3006                     move.w     D0, D6
00002D7E  E740                     asl        D0.w, 3
00002D80  0640 F672                addi.w     D0, 0xF672
00002D84  4875 0000                pea.l      [A5 + D0.w]
00002D88  486D F5FE                pea.l      [A5 - 0xA02]
00002D8C  A817                     syscall    CopyMask
00002D8E  6000 009A                bra        +0x9C /* 00002E2A */
00002D92  486D B5BE                pea.l      [A5 - 0x4A42]
00002D96  486D B594                pea.l      [A5 - 0x4A6C]
00002D9A  206D B560                movea.l    A0, [A5 - 0x4AA0]
00002D9E  4868 0002                pea.l      [A0 + 0x2]
00002DA2  302D F63E                move.w     D0, [A5 - 0x9C2]
00002DA6  E740                     asl        D0.w, 3
00002DA8  0640 F672                addi.w     D0, 0xF672
00002DAC  4875 0000                pea.l      [A5 + D0.w]
00002DB0  302D F63E                move.w     D0, [A5 - 0x9C2]
00002DB4  E740                     asl        D0.w, 3
00002DB6  0640 F672                addi.w     D0, 0xF672
00002DBA  4875 0000                pea.l      [A5 + D0.w]
00002DBE  486D F5FE                pea.l      [A5 - 0xA02]
00002DC2  A817                     syscall    CopyMask
00002DC4  6064                     bra        +0x66 /* 00002E2A */
00002DC6  486E FFE4                pea.l      [A6 - 0x1C]
00002DCA  3F3C 0100                move.w     -[A7], 0x100
00002DCE  302D F602                move.w     D0, [A5 - 0x9FE]
00002DD2  906D F5FE                sub.w      D0, [A5 - 0xA02]
00002DD6  323C 00D0                move.w     D1, 0xD0
00002DDA  9240                     sub.w      D1, D0
00002DDC  3F01                     move.w     -[A7], D1
00002DDE  3F3C 0130                move.w     -[A7], 0x130
00002DE2  3F3C 00D0                move.w     -[A7], 0xD0
00002DE6  A8A7                     syscall    SetRect
00002DE8  486D B5BE                pea.l      [A5 - 0x4A42]
00002DEC  486D B594                pea.l      [A5 - 0x4A6C]
00002DF0  206D B560                movea.l    A0, [A5 - 0x4AA0]
00002DF4  4868 0002                pea.l      [A0 + 0x2]
00002DF8  486E FFE4                pea.l      [A6 - 0x1C]
00002DFC  486E FFE4                pea.l      [A6 - 0x1C]
00002E00  486D F5FE                pea.l      [A5 - 0xA02]
00002E04  A817                     syscall    CopyMask
00002E06  6022                     bra        +0x24 /* 00002E2A */
label00002E08:
00002E08  5340                     subq.w     D0, 1
00002E0A  0C40 0008                cmpi.w     D0, 0x8
00002E0E  641A                     bcc        +0x1C /* 00002E2A */
00002E10  D040                     add.w      D0, D0
00002E12  303B 0006                move.w     D0, [PC + D0.w + 0x6]
00002E16  4EFB 0002                jmp        [PC + D0.w + 0x2]
00002E1A  FED8 FED8                .extension 0xED8 <<F/2-3/7>> // unimplemented
00002E1E  FF2E                     .extension 0xF2E <<F/4-5/7>> // unimplemented
00002E20  FF2E                     .extension 0xF2E <<F/4-5/7>> // unimplemented
00002E22  FF78                     .extension 0xF78 <<F/4-5/7>> // unimplemented
00002E24  FF78                     .extension 0xF78 <<F/4-5/7>> // unimplemented
00002E26  FF78                     .extension 0xF78 <<F/4-5/7>> // unimplemented
00002E28  FFAC                     .invalid   <<F/6/7>>
label00002E2A:
00002E2A  4A6D F880                tst.w      [A5 - 0x780]
00002E2E  6F66                     ble        +0x68 /* 00002E96 */
00002E30  3D6D F880 FFDA           move.w     [A6 - 0x26], [A5 - 0x780]
00002E36  7E01                     moveq.l    D7, 0x01
00002E38  6056                     bra        +0x58 /* 00002E90 */
label00002E3A:
00002E3A  3007                     move.w     D0, D7
00002E3C  C1FC 002A                muls.w     D0, 0x2A /* '*' */
00002E40  0640 EEC4                addi.w     D0, 0xEEC4
00002E44  49F5 0000                lea.l      A4, [A5 + D0.w]
00002E48  486D B5BE                pea.l      [A5 - 0x4A42]
00002E4C  486D B594                pea.l      [A5 - 0x4A6C]
00002E50  206D B560                movea.l    A0, [A5 - 0x4AA0]
00002E54  4868 0002                pea.l      [A0 + 0x2]
00002E58  302C 001C                move.w     D0, [A4 + 0x1C]
00002E5C  C1FC 0090                muls.w     D0, 0x90
00002E60  322C 001E                move.w     D1, [A4 + 0x1E]
00002E64  E741                     asl        D1.w, 3
00002E66  D041                     add.w      D0, D1
00002E68  0640 F196                addi.w     D0, 0xF196
00002E6C  4875 0000                pea.l      [A5 + D0.w]
00002E70  302C 001C                move.w     D0, [A4 + 0x1C]
00002E74  C1FC 0090                muls.w     D0, 0x90
00002E78  322C 001E                move.w     D1, [A4 + 0x1E]
00002E7C  E741                     asl        D1.w, 3
00002E7E  D041                     add.w      D0, D1
00002E80  0640 F196                addi.w     D0, 0xF196
00002E84  4875 0000                pea.l      [A5 + D0.w]
00002E88  2F0C                     move.l     -[A7], A4
00002E8A  A817                     syscall    CopyMask
00002E8C  5247                     addq.w     D7, 1
00002E8E  6906                     bvs        +0x8 /* 00002E96 */
label00002E90:
00002E90  BE6E FFDA                cmp.w      D7, [A6 - 0x26]
00002E94  6FA4                     ble        -0x5A /* 00002E3A */
label00002E96:
00002E96  4A2D FE71                tst.b      [A5 - 0x18F]
00002E9A  6732                     beq        +0x34 /* 00002ECE */
00002E9C  486D B5BE                pea.l      [A5 - 0x4A42]
00002EA0  486D B594                pea.l      [A5 - 0x4A6C]
00002EA4  206D B560                movea.l    A0, [A5 - 0x4AA0]
00002EA8  4868 0002                pea.l      [A0 + 0x2]
00002EAC  302D F802                move.w     D0, [A5 - 0x7FE]
00002EB0  E740                     asl        D0.w, 3
00002EB2  0640 F806                addi.w     D0, 0xF806
00002EB6  4875 0000                pea.l      [A5 + D0.w]
00002EBA  302D F802                move.w     D0, [A5 - 0x7FE]
00002EBE  E740                     asl        D0.w, 3
00002EC0  0640 F806                addi.w     D0, 0xF806
00002EC4  4875 0000                pea.l      [A5 + D0.w]
00002EC8  486D F7EA                pea.l      [A5 - 0x816]
00002ECC  A817                     syscall    CopyMask
label00002ECE:
00002ECE  594F                     subq.w     A7, 4
00002ED0  A975                     syscall    TickCount
00002ED2  201F                     move.l     D0, [A7]+
00002ED4  B0AD F5E6                cmp.l      D0, [A5 - 0xA1A]
00002ED8  5EC0                     sgt        D0
00002EDA  C02D F5FC                and.b      D0, [A5 - 0xA04]
00002EDE  6738                     beq        +0x3A /* 00002F18 */
00002EE0  422D F5FC                clr.b      [A5 - 0xA04]
00002EE4  486D B5A2                pea.l      [A5 - 0x4A5E]
00002EE8  486D B5B0                pea.l      [A5 - 0x4A50]
00002EEC  486D F5DE                pea.l      [A5 - 0xA22]
00002EF0  486D F5DE                pea.l      [A5 - 0xA22]
00002EF4  4267                     clr.w      -[A7]
00002EF6  2F2D B590                move.l     -[A7], [A5 - 0x4A70]
00002EFA  A8EC                     syscall    CopyBits
00002EFC  486D B5A2                pea.l      [A5 - 0x4A5E]
00002F00  206D B560                movea.l    A0, [A5 - 0x4AA0]
00002F04  4868 0002                pea.l      [A0 + 0x2]
00002F08  486D F5DE                pea.l      [A5 - 0xA22]
00002F0C  486D F5DE                pea.l      [A5 - 0xA22]
00002F10  4267                     clr.w      -[A7]
00002F12  2F2D B590                move.l     -[A7], [A5 - 0x4A70]
00002F16  A8EC                     syscall    CopyBits
label00002F18:
00002F18  102D FE86                move.b     D0, [A5 - 0x17A]
00002F1C  5300                     subq.b     D0, 1
00002F1E  4400                     neg.b      D0
00002F20  1B40 FE86                move.b     [A5 - 0x17A], D0
00002F24  1F2D FE86                move.b     -[A7], [A5 - 0x17A]
00002F28  4EAD 015A                jsr        [A5 + 0x15A /* export_39, CODE:1 @ 00000868 */]
00002F2C  4A2D FE6D                tst.b      [A5 - 0x193]
00002F30  6754                     beq        +0x56 /* 00002F86 */
00002F32  41ED F606                lea.l      A0, [A5 - 0x9FA]
00002F36  43EE FFDC                lea.l      A1, [A6 - 0x24]
00002F3A  22D8                     move.l     [A1]+, [A0]+
00002F3C  22D8                     move.l     [A1]+, [A0]+
00002F3E  302E FFDE                move.w     D0, [A6 - 0x22]
00002F42  0640 FFF0                addi.w     D0, 0xFFF0
00002F46  3D40 FFDE                move.w     [A6 - 0x22], D0
00002F4A  302E FFE2                move.w     D0, [A6 - 0x1E]
00002F4E  0640 FFF0                addi.w     D0, 0xFFF0
00002F52  3D40 FFE2                move.w     [A6 - 0x1E], D0
00002F56  302E FFDC                move.w     D0, [A6 - 0x24]
00002F5A  0640 FFE0                addi.w     D0, 0xFFE0
00002F5E  3D40 FFDC                move.w     [A6 - 0x24], D0
00002F62  302E FFE0                move.w     D0, [A6 - 0x20]
00002F66  0640 FFE0                addi.w     D0, 0xFFE0
00002F6A  3D40 FFE0                move.w     [A6 - 0x20], D0
00002F6E  486D B5A2                pea.l      [A5 - 0x4A5E]
00002F72  486D B5B0                pea.l      [A5 - 0x4A50]
00002F76  486E FFDC                pea.l      [A6 - 0x24]
00002F7A  486E FFDC                pea.l      [A6 - 0x24]
00002F7E  4267                     clr.w      -[A7]
00002F80  2F2D B590                move.l     -[A7], [A5 - 0x4A70]
00002F84  A8EC                     syscall    CopyBits
label00002F86:
00002F86  486D B5A2                pea.l      [A5 - 0x4A5E]
00002F8A  486D B5B0                pea.l      [A5 - 0x4A50]
00002F8E  486D F606                pea.l      [A5 - 0x9FA]
00002F92  486D F606                pea.l      [A5 - 0x9FA]
00002F96  4267                     clr.w      -[A7]
00002F98  2F2D B590                move.l     -[A7], [A5 - 0x4A70]
00002F9C  A8EC                     syscall    CopyBits
00002F9E  486D B5A2                pea.l      [A5 - 0x4A5E]
00002FA2  486D B5B0                pea.l      [A5 - 0x4A50]
00002FA6  486D F61E                pea.l      [A5 - 0x9E2]
00002FAA  486D F61E                pea.l      [A5 - 0x9E2]
00002FAE  4267                     clr.w      -[A7]
00002FB0  2F2D B590                move.l     -[A7], [A5 - 0x4A70]
00002FB4  A8EC                     syscall    CopyBits
00002FB6  41ED F5FE                lea.l      A0, [A5 - 0xA02]
00002FBA  43ED F606                lea.l      A1, [A5 - 0x9FA]
00002FBE  22D8                     move.l     [A1]+, [A0]+
00002FC0  22D8                     move.l     [A1]+, [A0]+
00002FC2  41ED F616                lea.l      A0, [A5 - 0x9EA]
00002FC6  43ED F61E                lea.l      A1, [A5 - 0x9E2]
00002FCA  22D8                     move.l     [A1]+, [A0]+
00002FCC  22D8                     move.l     [A1]+, [A0]+
00002FCE  4A6D F880                tst.w      [A5 - 0x780]
00002FD2  6F42                     ble        +0x44 /* 00003016 */
00002FD4  3D6D F880 FFDA           move.w     [A6 - 0x26], [A5 - 0x780]
00002FDA  7E01                     moveq.l    D7, 0x01
00002FDC  6032                     bra        +0x34 /* 00003010 */
label00002FDE:
00002FDE  3007                     move.w     D0, D7
00002FE0  C1FC 002A                muls.w     D0, 0x2A /* '*' */
00002FE4  0640 EEC4                addi.w     D0, 0xEEC4
00002FE8  49F5 0000                lea.l      A4, [A5 + D0.w]
00002FEC  486D B5A2                pea.l      [A5 - 0x4A5E]
00002FF0  486D B5B0                pea.l      [A5 - 0x4A50]
00002FF4  486C 0010                pea.l      [A4 + 0x10]
00002FF8  486C 0010                pea.l      [A4 + 0x10]
00002FFC  4267                     clr.w      -[A7]
00002FFE  42A7                     clr.l      -[A7]
00003000  A8EC                     syscall    CopyBits
00003002  41D4                     lea.l      A0, [A4]
00003004  43EC 0010                lea.l      A1, [A4 + 0x10]
00003008  22D8                     move.l     [A1]+, [A0]+
0000300A  22D8                     move.l     [A1]+, [A0]+
0000300C  5247                     addq.w     D7, 1
0000300E  6906                     bvs        +0x8 /* 00003016 */
label00003010:
00003010  BE6E FFDA                cmp.w      D7, [A6 - 0x26]
00003014  6FC8                     ble        -0x36 /* 00002FDE */
label00003016:
00003016  4A6D F882                tst.w      [A5 - 0x77E]
0000301A  6F44                     ble        +0x46 /* 00003060 */
0000301C  3D6D F882 FFDA           move.w     [A6 - 0x26], [A5 - 0x77E]
00003022  7E01                     moveq.l    D7, 0x01
00003024  6034                     bra        +0x36 /* 0000305A */
label00003026:
00003026  3007                     move.w     D0, D7
00003028  C1FC 002A                muls.w     D0, 0x2A /* '*' */
0000302C  0640 F314                addi.w     D0, 0xF314
00003030  49F5 0000                lea.l      A4, [A5 + D0.w]
00003034  486D B5A2                pea.l      [A5 - 0x4A5E]
00003038  486D B5B0                pea.l      [A5 - 0x4A50]
0000303C  486C 0010                pea.l      [A4 + 0x10]
00003040  486C 0010                pea.l      [A4 + 0x10]
00003044  4267                     clr.w      -[A7]
00003046  42A7                     clr.l      -[A7]
00003048  A8EC                     syscall    CopyBits
0000304A  41EC 0008                lea.l      A0, [A4 + 0x8]
0000304E  43EC 0010                lea.l      A1, [A4 + 0x10]
00003052  22D8                     move.l     [A1]+, [A0]+
00003054  22D8                     move.l     [A1]+, [A0]+
00003056  5247                     addq.w     D7, 1
00003058  6906                     bvs        +0x8 /* 00003060 */
label0000305A:
0000305A  BE6E FFDA                cmp.w      D7, [A6 - 0x26]
0000305E  6FC6                     ble        -0x38 /* 00003026 */
label00003060:
00003060  4A2D FE71                tst.b      [A5 - 0x18F]
00003064  6700 084A                beq        +0x84C /* 000038B0 */
00003068  486D B5A2                pea.l      [A5 - 0x4A5E]
0000306C  486D B5B0                pea.l      [A5 - 0x4A50]
00003070  486D F7FA                pea.l      [A5 - 0x806]
00003074  486D F7FA                pea.l      [A5 - 0x806]
00003078  4267                     clr.w      -[A7]
0000307A  42A7                     clr.l      -[A7]
0000307C  A8EC                     syscall    CopyBits
0000307E  41ED F7EA                lea.l      A0, [A5 - 0x816]
00003082  43ED F7FA                lea.l      A1, [A5 - 0x806]
00003086  22D8                     move.l     [A1]+, [A0]+
00003088  22D8                     move.l     [A1]+, [A0]+
0000308A  6000 0824                bra        +0x826 /* 000038B0 */
label0000308E:
0000308E  4A2D FE67                tst.b      [A5 - 0x199]
00003092  6700 00DA                beq        +0xDC /* 0000316E */
00003096  4A6D FA14                tst.w      [A5 - 0x5EC]
0000309A  6700 00D2                beq        +0xD4 /* 0000316E */
0000309E  0C6D 0004 FA14           cmpi.w     [A5 - 0x5EC], 0x4
000030A4  6644                     bne        +0x46 /* 000030EA */
000030A6  2F2D B560                move.l     -[A7], [A5 - 0x4AA0]
000030AA  A873                     syscall    SetPort
000030AC  2F2D F9AA                move.l     -[A7], [A5 - 0x656]
000030B0  A879                     syscall    SetClip
000030B2  A89E                     syscall    PenNormal
000030B4  2F2D F9AA                move.l     -[A7], [A5 - 0x656]
000030B8  486D FFBA                pea.l      [A5 - 0x46]
000030BC  A8D6                     syscall    FillRgn
000030BE  486D B568                pea.l      [A5 - 0x4A98]
000030C2  A87B                     syscall    ClipRect
000030C4  2F2D B5E2                move.l     -[A7], [A5 - 0x4A1E]
000030C8  A873                     syscall    SetPort
000030CA  2F2D F9AA                move.l     -[A7], [A5 - 0x656]
000030CE  A879                     syscall    SetClip
000030D0  2F2D F9AA                move.l     -[A7], [A5 - 0x656]
000030D4  486D FFBA                pea.l      [A5 - 0x46]
000030D8  A8D6                     syscall    FillRgn
000030DA  486D B568                pea.l      [A5 - 0x4A98]
000030DE  A87B                     syscall    ClipRect
000030E0  2F2D B5DE                move.l     -[A7], [A5 - 0x4A22]
000030E4  A873                     syscall    SetPort
000030E6  6000 0086                bra        +0x88 /* 0000316E */
label000030EA:
000030EA  2F2D B5E2                move.l     -[A7], [A5 - 0x4A1E]
000030EE  A873                     syscall    SetPort
000030F0  2F2D F9AA                move.l     -[A7], [A5 - 0x656]
000030F4  A879                     syscall    SetClip
000030F6  A89E                     syscall    PenNormal
000030F8  3F3C 0002                move.w     -[A7], 0x2
000030FC  3F3C 0002                move.w     -[A7], 0x2
00003100  A89B                     syscall    PenSize
00003102  3F3C 000A                move.w     -[A7], 0xA /* '\n' */
00003106  A89C                     syscall    PenMode
00003108  302D FA12                move.w     D0, [A5 - 0x5EE]
0000310C  EB40                     asl        D0.w, 5
0000310E  0640 F992                addi.w     D0, 0xF992
00003112  3F35 0000                move.w     -[A7], [A5 + D0.w]
00003116  302D FA12                move.w     D0, [A5 - 0x5EE]
0000311A  EB40                     asl        D0.w, 5
0000311C  0640 F994                addi.w     D0, 0xF994
00003120  3F35 0000                move.w     -[A7], [A5 + D0.w]
00003124  A893                     syscall    MoveTo
00003126  7E01                     moveq.l    D7, 0x01
label00003128:
00003128  302D FA12                move.w     D0, [A5 - 0x5EE]
0000312C  EB40                     asl        D0.w, 5
0000312E  3207                     move.w     D1, D7
00003130  E541                     asl        D1.w, 2
00003132  D041                     add.w      D0, D1
00003134  0640 F992                addi.w     D0, 0xF992
00003138  3F35 0000                move.w     -[A7], [A5 + D0.w]
0000313C  302D FA12                move.w     D0, [A5 - 0x5EE]
00003140  EB40                     asl        D0.w, 5
00003142  3207                     move.w     D1, D7
00003144  E541                     asl        D1.w, 2
00003146  D041                     add.w      D0, D1
00003148  0640 F994                addi.w     D0, 0xF994
0000314C  3F35 0000                move.w     -[A7], [A5 + D0.w]
00003150  A891                     syscall    LineTo
00003152  4267                     clr.w      -[A7]
00003154  3F3C 0002                move.w     -[A7], 0x2
00003158  A894                     syscall    Move
0000315A  5247                     addq.w     D7, 1
0000315C  0C47 0007                cmpi.w     D7, 0x7
00003160  6FC6                     ble        -0x38 /* 00003128 */
00003162  486D B568                pea.l      [A5 - 0x4A98]
00003166  A87B                     syscall    ClipRect
00003168  2F2D B5DE                move.l     -[A7], [A5 - 0x4A22]
0000316C  A873                     syscall    SetPort
label0000316E:
0000316E  4A2D FE6D                tst.b      [A5 - 0x193]
00003172  6700 0084                beq        +0x86 /* 000031F8 */
00003176  41ED F5FE                lea.l      A0, [A5 - 0xA02]
0000317A  43EE FFDC                lea.l      A1, [A6 - 0x24]
0000317E  22D8                     move.l     [A1]+, [A0]+
00003180  22D8                     move.l     [A1]+, [A0]+
00003182  302E FFDE                move.w     D0, [A6 - 0x22]
00003186  0640 FFF0                addi.w     D0, 0xFFF0
0000318A  3D40 FFDE                move.w     [A6 - 0x22], D0
0000318E  302E FFE2                move.w     D0, [A6 - 0x1E]
00003192  0640 FFF0                addi.w     D0, 0xFFF0
00003196  3D40 FFE2                move.w     [A6 - 0x1E], D0
0000319A  302E FFDC                move.w     D0, [A6 - 0x24]
0000319E  0640 FFE0                addi.w     D0, 0xFFE0
000031A2  3D40 FFDC                move.w     [A6 - 0x24], D0
000031A6  302E FFE0                move.w     D0, [A6 - 0x20]
000031AA  0640 FFE0                addi.w     D0, 0xFFE0
000031AE  3D40 FFE0                move.w     [A6 - 0x20], D0
000031B2  2F2D B5E2                move.l     -[A7], [A5 - 0x4A1E]
000031B6  A873                     syscall    SetPort
000031B8  2F2D F9A6                move.l     -[A7], [A5 - 0x65A]
000031BC  A879                     syscall    SetClip
000031BE  486D B5BE                pea.l      [A5 - 0x4A42]
000031C2  486D B594                pea.l      [A5 - 0x4A6C]
000031C6  486D B5B0                pea.l      [A5 - 0x4A50]
000031CA  302D F63E                move.w     D0, [A5 - 0x9C2]
000031CE  E740                     asl        D0.w, 3
000031D0  0640 F672                addi.w     D0, 0xF672
000031D4  4875 0000                pea.l      [A5 + D0.w]
000031D8  302D F63E                move.w     D0, [A5 - 0x9C2]
000031DC  E740                     asl        D0.w, 3
000031DE  0640 F672                addi.w     D0, 0xF672
000031E2  4875 0000                pea.l      [A5 + D0.w]
000031E6  486E FFDC                pea.l      [A6 - 0x24]
000031EA  A817                     syscall    CopyMask
000031EC  486D B568                pea.l      [A5 - 0x4A98]
000031F0  A87B                     syscall    ClipRect
000031F2  2F2D B5DE                move.l     -[A7], [A5 - 0x4A22]
000031F6  A873                     syscall    SetPort
label000031F8:
000031F8  4A6D F882                tst.w      [A5 - 0x77E]
000031FC  6F00 02A0                ble        +0x2A2 /* 0000349E */
00003200  3D6D F882 FFDA           move.w     [A6 - 0x26], [A5 - 0x77E]
00003206  7E01                     moveq.l    D7, 0x01
00003208  6000 028C                bra        +0x28E /* 00003496 */
label0000320C:
0000320C  3007                     move.w     D0, D7
0000320E  C1FC 002A                muls.w     D0, 0x2A /* '*' */
00003212  0640 F314                addi.w     D0, 0xF314
00003216  49F5 0000                lea.l      A4, [A5 + D0.w]
0000321A  302C 001A                move.w     D0, [A4 + 0x1A]
0000321E  6000 0246                bra        +0x248 /* 00003466 */
label00003222:
00003222  486D B5BE                pea.l      [A5 - 0x4A42]
00003226  486D B594                pea.l      [A5 - 0x4A6C]
0000322A  486D B5B0                pea.l      [A5 - 0x4A50]
0000322E  302C 0024                move.w     D0, [A4 + 0x24]
00003232  E740                     asl        D0.w, 3
00003234  0640 FA5A                addi.w     D0, 0xFA5A
00003238  4875 0000                pea.l      [A5 + D0.w]
0000323C  302C 0024                move.w     D0, [A4 + 0x24]
00003240  E740                     asl        D0.w, 3
00003242  0640 FA5A                addi.w     D0, 0xFA5A
00003246  4875 0000                pea.l      [A5 + D0.w]
0000324A  486C 0008                pea.l      [A4 + 0x8]
0000324E  A817                     syscall    CopyMask
00003250  6000 0240                bra        +0x242 /* 00003492 */
label00003254:
00003254  486D B5BE                pea.l      [A5 - 0x4A42]
00003258  486D B594                pea.l      [A5 - 0x4A6C]
0000325C  486D B5B0                pea.l      [A5 - 0x4A50]
00003260  302C 0026                move.w     D0, [A4 + 0x26]
00003264  E740                     asl        D0.w, 3
00003266  0640 FA5A                addi.w     D0, 0xFA5A
0000326A  4875 0000                pea.l      [A5 + D0.w]
0000326E  302C 0026                move.w     D0, [A4 + 0x26]
00003272  E740                     asl        D0.w, 3
00003274  0640 FA5A                addi.w     D0, 0xFA5A
00003278  4875 0000                pea.l      [A5 + D0.w]
0000327C  486C 0008                pea.l      [A4 + 0x8]
00003280  A817                     syscall    CopyMask
00003282  6000 020E                bra        +0x210 /* 00003492 */
label00003286:
00003286  486D B5BE                pea.l      [A5 - 0x4A42]
0000328A  486D B594                pea.l      [A5 - 0x4A6C]
0000328E  486D B5B0                pea.l      [A5 - 0x4A50]
00003292  302C 0026                move.w     D0, [A4 + 0x26]
00003296  E740                     asl        D0.w, 3
00003298  0640 FA5A                addi.w     D0, 0xFA5A
0000329C  4875 0000                pea.l      [A5 + D0.w]
000032A0  302C 0026                move.w     D0, [A4 + 0x26]
000032A4  E740                     asl        D0.w, 3
000032A6  0640 FA5A                addi.w     D0, 0xFA5A
000032AA  4875 0000                pea.l      [A5 + D0.w]
000032AE  486C 0008                pea.l      [A4 + 0x8]
000032B2  A817                     syscall    CopyMask
000032B4  2F2D B560                move.l     -[A7], [A5 - 0x4AA0]
000032B8  A873                     syscall    SetPort
000032BA  A89E                     syscall    PenNormal
000032BC  3F3C 0002                move.w     -[A7], 0x2
000032C0  3F3C 0002                move.w     -[A7], 0x2
000032C4  A89B                     syscall    PenSize
000032C6  302C 0028                move.w     D0, [A4 + 0x28]
000032CA  5540                     subq.w     D0, 2
000032CC  3F00                     move.w     -[A7], D0
000032CE  302C 000C                move.w     D0, [A4 + 0xC]
000032D2  5540                     subq.w     D0, 2
000032D4  3F00                     move.w     -[A7], D0
000032D6  A893                     syscall    MoveTo
000032D8  302C 000E                move.w     D0, [A4 + 0xE]
000032DC  5240                     addq.w     D0, 1
000032DE  B06C 0028                cmp.w      D0, [A4 + 0x28]
000032E2  6C08                     bge        +0xA /* 000032EC */
000032E4  3F3C 0002                move.w     -[A7], 0x2
000032E8  4267                     clr.w      -[A7]
000032EA  A892                     syscall    Line
label000032EC:
000032EC  A89E                     syscall    PenNormal
000032EE  2F2D B5DE                move.l     -[A7], [A5 - 0x4A22]
000032F2  A873                     syscall    SetPort
000032F4  A89E                     syscall    PenNormal
000032F6  3F3C 0002                move.w     -[A7], 0x2
000032FA  3F3C 0002                move.w     -[A7], 0x2
000032FE  A89B                     syscall    PenSize
00003300  302C 0028                move.w     D0, [A4 + 0x28]
00003304  5540                     subq.w     D0, 2
00003306  3F00                     move.w     -[A7], D0
00003308  302C 000C                move.w     D0, [A4 + 0xC]
0000330C  5540                     subq.w     D0, 2
0000330E  3F00                     move.w     -[A7], D0
00003310  A893                     syscall    MoveTo
00003312  302C 000E                move.w     D0, [A4 + 0xE]
00003316  5240                     addq.w     D0, 1
00003318  B06C 0028                cmp.w      D0, [A4 + 0x28]
0000331C  6C08                     bge        +0xA /* 00003326 */
0000331E  3F3C 0002                move.w     -[A7], 0x2
00003322  4267                     clr.w      -[A7]
00003324  A892                     syscall    Line
label00003326:
00003326  A89E                     syscall    PenNormal
00003328  6000 0168                bra        +0x16A /* 00003492 */
label0000332C:
0000332C  486D B5BE                pea.l      [A5 - 0x4A42]
00003330  486D B594                pea.l      [A5 - 0x4A6C]
00003334  486D B5B0                pea.l      [A5 - 0x4A50]
00003338  302C 001A                move.w     D0, [A4 + 0x1A]
0000333C  E740                     asl        D0.w, 3
0000333E  0640 FA5A                addi.w     D0, 0xFA5A
00003342  4875 0000                pea.l      [A5 + D0.w]
00003346  302C 001A                move.w     D0, [A4 + 0x1A]
0000334A  E740                     asl        D0.w, 3
0000334C  0640 FA5A                addi.w     D0, 0xFA5A
00003350  4875 0000                pea.l      [A5 + D0.w]
00003354  302C 0018                move.w     D0, [A4 + 0x18]
00003358  E740                     asl        D0.w, 3
0000335A  0640 FC8A                addi.w     D0, 0xFC8A
0000335E  4875 0000                pea.l      [A5 + D0.w]
00003362  A817                     syscall    CopyMask
00003364  6000 012C                bra        +0x12E /* 00003492 */
label00003368:
00003368  486D B5BE                pea.l      [A5 - 0x4A42]
0000336C  486D B594                pea.l      [A5 - 0x4A6C]
00003370  486D B5B0                pea.l      [A5 - 0x4A50]
00003374  302C 001C                move.w     D0, [A4 + 0x1C]
00003378  E740                     asl        D0.w, 3
0000337A  0640 FA5A                addi.w     D0, 0xFA5A
0000337E  4875 0000                pea.l      [A5 + D0.w]
00003382  302C 001C                move.w     D0, [A4 + 0x1C]
00003386  E740                     asl        D0.w, 3
00003388  0640 FA5A                addi.w     D0, 0xFA5A
0000338C  4875 0000                pea.l      [A5 + D0.w]
00003390  302C 0018                move.w     D0, [A4 + 0x18]
00003394  E740                     asl        D0.w, 3
00003396  0640 FC8A                addi.w     D0, 0xFC8A
0000339A  4875 0000                pea.l      [A5 + D0.w]
0000339E  A817                     syscall    CopyMask
000033A0  6000 00F0                bra        +0xF2 /* 00003492 */
label000033A4:
000033A4  4A6C 001C                tst.w      [A4 + 0x1C]
000033A8  6700 00E8                beq        +0xEA /* 00003492 */
000033AC  2F2D B5E2                move.l     -[A7], [A5 - 0x4A1E]
000033B0  A873                     syscall    SetPort
000033B2  2F2D F9AE                move.l     -[A7], [A5 - 0x652]
000033B6  A879                     syscall    SetClip
000033B8  486D B5BE                pea.l      [A5 - 0x4A42]
000033BC  486D B594                pea.l      [A5 - 0x4A6C]
000033C0  486D B5B0                pea.l      [A5 - 0x4A50]
000033C4  302C 001C                move.w     D0, [A4 + 0x1C]
000033C8  E740                     asl        D0.w, 3
000033CA  0640 FA5A                addi.w     D0, 0xFA5A
000033CE  4875 0000                pea.l      [A5 + D0.w]
000033D2  302C 001C                move.w     D0, [A4 + 0x1C]
000033D6  E740                     asl        D0.w, 3
000033D8  0640 FA5A                addi.w     D0, 0xFA5A
000033DC  4875 0000                pea.l      [A5 + D0.w]
000033E0  302C 0018                move.w     D0, [A4 + 0x18]
000033E4  E740                     asl        D0.w, 3
000033E6  0640 FC8A                addi.w     D0, 0xFC8A
000033EA  4875 0000                pea.l      [A5 + D0.w]
000033EE  A817                     syscall    CopyMask
000033F0  486D B568                pea.l      [A5 - 0x4A98]
000033F4  A87B                     syscall    ClipRect
000033F6  2F2D B5DE                move.l     -[A7], [A5 - 0x4A22]
000033FA  A873                     syscall    SetPort
000033FC  6000 0094                bra        +0x96 /* 00003492 */
label00003400:
00003400  4A6C 001C                tst.w      [A4 + 0x1C]
00003404  673A                     beq        +0x3C /* 00003440 */
00003406  486D B5BE                pea.l      [A5 - 0x4A42]
0000340A  486D B594                pea.l      [A5 - 0x4A6C]
0000340E  486D B5B0                pea.l      [A5 - 0x4A50]
00003412  302C 001C                move.w     D0, [A4 + 0x1C]
00003416  E740                     asl        D0.w, 3
00003418  0640 FA5A                addi.w     D0, 0xFA5A
0000341C  4875 0000                pea.l      [A5 + D0.w]
00003420  302C 001C                move.w     D0, [A4 + 0x1C]
00003424  E740                     asl        D0.w, 3
00003426  0640 FA5A                addi.w     D0, 0xFA5A
0000342A  4875 0000                pea.l      [A5 + D0.w]
0000342E  302C 0018                move.w     D0, [A4 + 0x18]
00003432  E740                     asl        D0.w, 3
00003434  0640 FC8A                addi.w     D0, 0xFC8A
00003438  4875 0000                pea.l      [A5 + D0.w]
0000343C  A817                     syscall    CopyMask
0000343E  6052                     bra        +0x54 /* 00003492 */
label00003440:
00003440  486D B5BE                pea.l      [A5 - 0x4A42]
00003444  486D B594                pea.l      [A5 - 0x4A6C]
00003448  486D B5B0                pea.l      [A5 - 0x4A50]
0000344C  486D FC82                pea.l      [A5 - 0x37E]
00003450  486D FC82                pea.l      [A5 - 0x37E]
00003454  302C 0018                move.w     D0, [A4 + 0x18]
00003458  E740                     asl        D0.w, 3
0000345A  0640 FC8A                addi.w     D0, 0xFC8A
0000345E  4875 0000                pea.l      [A5 + D0.w]
00003462  A817                     syscall    CopyMask
00003464  602C                     bra        +0x2E /* 00003492 */
label00003466:
00003466  0640 FFF5                addi.w     D0, 0xFFF5
0000346A  6700 FDB6                beq        -0x248 /* 00003222 */
0000346E  5F40                     subq.w     D0, 7
00003470  6700 FE14                beq        -0x1EA /* 00003286 */
00003474  5F40                     subq.w     D0, 7
00003476  6700 FDDC                beq        -0x222 /* 00003254 */
0000347A  5F40                     subq.w     D0, 7
0000347C  6700 FEEA                beq        -0x114 /* 00003368 */
00003480  5340                     subq.w     D0, 1
00003482  6700 FF20                beq        -0xDE /* 000033A4 */
00003486  5340                     subq.w     D0, 1
00003488  6700 FEA2                beq        -0x15C /* 0000332C */
0000348C  5340                     subq.w     D0, 1
0000348E  6700 FF70                beq        -0x8E /* 00003400 */
label00003492:
00003492  5247                     addq.w     D7, 1
00003494  6908                     bvs        +0xA /* 0000349E */
label00003496:
00003496  BE6E FFDA                cmp.w      D7, [A6 - 0x26]
0000349A  6F00 FD70                ble        -0x28E /* 0000320C */
label0000349E:
0000349E  4A2D F648                tst.b      [A5 - 0x9B8]
000034A2  671C                     beq        +0x1E /* 000034C0 */
000034A4  486D B5BE                pea.l      [A5 - 0x4A42]
000034A8  486D B594                pea.l      [A5 - 0x4A6C]
000034AC  486D B5B0                pea.l      [A5 - 0x4A50]
000034B0  486D F752                pea.l      [A5 - 0x8AE]
000034B4  486D F752                pea.l      [A5 - 0x8AE]
000034B8  486D F616                pea.l      [A5 - 0x9EA]
000034BC  A817                     syscall    CopyMask
000034BE  601A                     bra        +0x1C /* 000034DA */
label000034C0:
000034C0  486D B5BE                pea.l      [A5 - 0x4A42]
000034C4  486D B594                pea.l      [A5 - 0x4A6C]
000034C8  486D B5B0                pea.l      [A5 - 0x4A50]
000034CC  486D F75A                pea.l      [A5 - 0x8A6]
000034D0  486D F75A                pea.l      [A5 - 0x8A6]
000034D4  486D F616                pea.l      [A5 - 0x9EA]
000034D8  A817                     syscall    CopyMask
label000034DA:
000034DA  4A2D FE83                tst.b      [A5 - 0x17D]
000034DE  6732                     beq        +0x34 /* 00003512 */
000034E0  486D B5BE                pea.l      [A5 - 0x4A42]
000034E4  486D B594                pea.l      [A5 - 0x4A6C]
000034E8  486D B5B0                pea.l      [A5 - 0x4A50]
000034EC  302D F63E                move.w     D0, [A5 - 0x9C2]
000034F0  E740                     asl        D0.w, 3
000034F2  0640 F672                addi.w     D0, 0xF672
000034F6  4875 0000                pea.l      [A5 + D0.w]
000034FA  302D F63E                move.w     D0, [A5 - 0x9C2]
000034FE  E740                     asl        D0.w, 3
00003500  0640 F672                addi.w     D0, 0xF672
00003504  4875 0000                pea.l      [A5 + D0.w]
00003508  486D F5FE                pea.l      [A5 - 0xA02]
0000350C  A817                     syscall    CopyMask
0000350E  6000 0132                bra        +0x134 /* 00003642 */
label00003512:
00003512  302D F63A                move.w     D0, [A5 - 0x9C6]
00003516  6000 0108                bra        +0x10A /* 00003620 */
0000351A  3C2D F63A                move.w     D6, [A5 - 0x9C6]
0000351E  CDFC 0022                muls.w     D6, 0x22 /* '\"' */
00003522  302D F63C                move.w     D0, [A5 - 0x9C4]
00003526  D040                     add.w      D0, D0
00003528  D046                     add.w      D0, D6
0000352A  0640 F740                addi.w     D0, 0xF740
0000352E  3C35 0000                move.w     D6, [A5 + D0.w]
00003532  102D F648                move.b     D0, [A5 - 0x9B8]
00003536  5300                     subq.b     D0, 1
00003538  6702                     beq        +0x4 /* 0000353C */
0000353A  5E46                     addq.w     D6, 7
label0000353C:
0000353C  486D B5BE                pea.l      [A5 - 0x4A42]
00003540  486D B594                pea.l      [A5 - 0x4A6C]
00003544  486D B5B0                pea.l      [A5 - 0x4A50]
00003548  302D F63E                move.w     D0, [A5 - 0x9C2]
0000354C  E740                     asl        D0.w, 3
0000354E  0640 F672                addi.w     D0, 0xF672
00003552  4875 0000                pea.l      [A5 + D0.w]
00003556  3006                     move.w     D0, D6
00003558  E740                     asl        D0.w, 3
0000355A  0640 F672                addi.w     D0, 0xF672
0000355E  4875 0000                pea.l      [A5 + D0.w]
00003562  486D F5FE                pea.l      [A5 - 0xA02]
00003566  A817                     syscall    CopyMask
00003568  6000 00D8                bra        +0xDA /* 00003642 */
0000356C  3C2D F63A                move.w     D6, [A5 - 0x9C6]
00003570  CDFC 0022                muls.w     D6, 0x22 /* '\"' */
00003574  302D F63C                move.w     D0, [A5 - 0x9C4]
00003578  D040                     add.w      D0, D0
0000357A  D046                     add.w      D0, D6
0000357C  0640 F740                addi.w     D0, 0xF740
00003580  3C35 0000                move.w     D6, [A5 + D0.w]
00003584  486D B5BE                pea.l      [A5 - 0x4A42]
00003588  486D B594                pea.l      [A5 - 0x4A6C]
0000358C  486D B5B0                pea.l      [A5 - 0x4A50]
00003590  3006                     move.w     D0, D6
00003592  E740                     asl        D0.w, 3
00003594  0640 F672                addi.w     D0, 0xF672
00003598  4875 0000                pea.l      [A5 + D0.w]
0000359C  3006                     move.w     D0, D6
0000359E  E740                     asl        D0.w, 3
000035A0  0640 F672                addi.w     D0, 0xF672
000035A4  4875 0000                pea.l      [A5 + D0.w]
000035A8  486D F5FE                pea.l      [A5 - 0xA02]
000035AC  A817                     syscall    CopyMask
000035AE  6000 0092                bra        +0x94 /* 00003642 */
000035B2  486D B5BE                pea.l      [A5 - 0x4A42]
000035B6  486D B594                pea.l      [A5 - 0x4A6C]
000035BA  486D B5B0                pea.l      [A5 - 0x4A50]
000035BE  302D F63E                move.w     D0, [A5 - 0x9C2]
000035C2  E740                     asl        D0.w, 3
000035C4  0640 F672                addi.w     D0, 0xF672
000035C8  4875 0000                pea.l      [A5 + D0.w]
000035CC  302D F63E                move.w     D0, [A5 - 0x9C2]
000035D0  E740                     asl        D0.w, 3
000035D2  0640 F672                addi.w     D0, 0xF672
000035D6  4875 0000                pea.l      [A5 + D0.w]
000035DA  486D F5FE                pea.l      [A5 - 0xA02]
000035DE  A817                     syscall    CopyMask
000035E0  6060                     bra        +0x62 /* 00003642 */
000035E2  486E FFE4                pea.l      [A6 - 0x1C]
000035E6  3F3C 0100                move.w     -[A7], 0x100
000035EA  302D F602                move.w     D0, [A5 - 0x9FE]
000035EE  906D F5FE                sub.w      D0, [A5 - 0xA02]
000035F2  323C 00D0                move.w     D1, 0xD0
000035F6  9240                     sub.w      D1, D0
000035F8  3F01                     move.w     -[A7], D1
000035FA  3F3C 0130                move.w     -[A7], 0x130
000035FE  3F3C 00D0                move.w     -[A7], 0xD0
00003602  A8A7                     syscall    SetRect
00003604  486D B5BE                pea.l      [A5 - 0x4A42]
00003608  486D B594                pea.l      [A5 - 0x4A6C]
0000360C  486D B5B0                pea.l      [A5 - 0x4A50]
00003610  486E FFE4                pea.l      [A6 - 0x1C]
00003614  486E FFE4                pea.l      [A6 - 0x1C]
00003618  486D F5FE                pea.l      [A5 - 0xA02]
0000361C  A817                     syscall    CopyMask
0000361E  6022                     bra        +0x24 /* 00003642 */
label00003620:
00003620  5340                     subq.w     D0, 1
00003622  0C40 0008                cmpi.w     D0, 0x8
00003626  641A                     bcc        +0x1C /* 00003642 */
00003628  D040                     add.w      D0, D0
0000362A  303B 0006                move.w     D0, [PC + D0.w + 0x6]
0000362E  4EFB 0002                jmp        [PC + D0.w + 0x2]
00003632  FEE8 FEE8                .extension 0xEE8 <<F/2-3/7>> // unimplemented
00003636  FF3A                     .extension 0xF3A <<F/4-5/7>> // unimplemented
00003638  FF3A                     .extension 0xF3A <<F/4-5/7>> // unimplemented
0000363A  FF80                     .invalid   <<F/6/7>>
0000363C  FF80                     .invalid   <<F/6/7>>
0000363E  FF80                     .invalid   <<F/6/7>>
00003640  FFB0                     .invalid   <<F/6/7>>
label00003642:
00003642  4A6D F880                tst.w      [A5 - 0x780]
00003646  6F62                     ble        +0x64 /* 000036AA */
00003648  3D6D F880 FFDA           move.w     [A6 - 0x26], [A5 - 0x780]
0000364E  7E01                     moveq.l    D7, 0x01
00003650  6052                     bra        +0x54 /* 000036A4 */
label00003652:
00003652  3007                     move.w     D0, D7
00003654  C1FC 002A                muls.w     D0, 0x2A /* '*' */
00003658  0640 EEC4                addi.w     D0, 0xEEC4
0000365C  49F5 0000                lea.l      A4, [A5 + D0.w]
00003660  486D B5BE                pea.l      [A5 - 0x4A42]
00003664  486D B594                pea.l      [A5 - 0x4A6C]
00003668  486D B5B0                pea.l      [A5 - 0x4A50]
0000366C  302C 001C                move.w     D0, [A4 + 0x1C]
00003670  C1FC 0090                muls.w     D0, 0x90
00003674  322C 001E                move.w     D1, [A4 + 0x1E]
00003678  E741                     asl        D1.w, 3
0000367A  D041                     add.w      D0, D1
0000367C  0640 F196                addi.w     D0, 0xF196
00003680  4875 0000                pea.l      [A5 + D0.w]
00003684  302C 001C                move.w     D0, [A4 + 0x1C]
00003688  C1FC 0090                muls.w     D0, 0x90
0000368C  322C 001E                move.w     D1, [A4 + 0x1E]
00003690  E741                     asl        D1.w, 3
00003692  D041                     add.w      D0, D1
00003694  0640 F196                addi.w     D0, 0xF196
00003698  4875 0000                pea.l      [A5 + D0.w]
0000369C  2F0C                     move.l     -[A7], A4
0000369E  A817                     syscall    CopyMask
000036A0  5247                     addq.w     D7, 1
000036A2  6906                     bvs        +0x8 /* 000036AA */
label000036A4:
000036A4  BE6E FFDA                cmp.w      D7, [A6 - 0x26]
000036A8  6FA8                     ble        -0x56 /* 00003652 */
label000036AA:
000036AA  4A2D FE71                tst.b      [A5 - 0x18F]
000036AE  672E                     beq        +0x30 /* 000036DE */
000036B0  486D B5BE                pea.l      [A5 - 0x4A42]
000036B4  486D B594                pea.l      [A5 - 0x4A6C]
000036B8  486D B5B0                pea.l      [A5 - 0x4A50]
000036BC  302D F802                move.w     D0, [A5 - 0x7FE]
000036C0  E740                     asl        D0.w, 3
000036C2  0640 F806                addi.w     D0, 0xF806
000036C6  4875 0000                pea.l      [A5 + D0.w]
000036CA  302D F802                move.w     D0, [A5 - 0x7FE]
000036CE  E740                     asl        D0.w, 3
000036D0  0640 F806                addi.w     D0, 0xF806
000036D4  4875 0000                pea.l      [A5 + D0.w]
000036D8  486D F7EA                pea.l      [A5 - 0x816]
000036DC  A817                     syscall    CopyMask
label000036DE:
000036DE  594F                     subq.w     A7, 4
000036E0  A975                     syscall    TickCount
000036E2  201F                     move.l     D0, [A7]+
000036E4  B0AD F5E6                cmp.l      D0, [A5 - 0xA1A]
000036E8  5EC0                     sgt        D0
000036EA  C02D F5FC                and.b      D0, [A5 - 0xA04]
000036EE  6738                     beq        +0x3A /* 00003728 */
000036F0  422D F5FC                clr.b      [A5 - 0xA04]
000036F4  486D B5A2                pea.l      [A5 - 0x4A5E]
000036F8  486D B5B0                pea.l      [A5 - 0x4A50]
000036FC  486D F5DE                pea.l      [A5 - 0xA22]
00003700  486D F5DE                pea.l      [A5 - 0xA22]
00003704  4267                     clr.w      -[A7]
00003706  2F2D B590                move.l     -[A7], [A5 - 0x4A70]
0000370A  A8EC                     syscall    CopyBits
0000370C  486D B5A2                pea.l      [A5 - 0x4A5E]
00003710  206D B560                movea.l    A0, [A5 - 0x4AA0]
00003714  4868 0002                pea.l      [A0 + 0x2]
00003718  486D F5DE                pea.l      [A5 - 0xA22]
0000371C  486D F5DE                pea.l      [A5 - 0xA22]
00003720  4267                     clr.w      -[A7]
00003722  2F2D B590                move.l     -[A7], [A5 - 0x4A70]
00003726  A8EC                     syscall    CopyBits
label00003728:
00003728  102D FE86                move.b     D0, [A5 - 0x17A]
0000372C  5300                     subq.b     D0, 1
0000372E  4400                     neg.b      D0
00003730  1B40 FE86                move.b     [A5 - 0x17A], D0
00003734  1F2D FE86                move.b     -[A7], [A5 - 0x17A]
00003738  4EAD 015A                jsr        [A5 + 0x15A /* export_39, CODE:1 @ 00000868 */]
0000373C  4A2D FE6D                tst.b      [A5 - 0x193]
00003740  6758                     beq        +0x5A /* 0000379A */
00003742  41ED F606                lea.l      A0, [A5 - 0x9FA]
00003746  43EE FFDC                lea.l      A1, [A6 - 0x24]
0000374A  22D8                     move.l     [A1]+, [A0]+
0000374C  22D8                     move.l     [A1]+, [A0]+
0000374E  302E FFDE                move.w     D0, [A6 - 0x22]
00003752  0640 FFF0                addi.w     D0, 0xFFF0
00003756  3D40 FFDE                move.w     [A6 - 0x22], D0
0000375A  302E FFE2                move.w     D0, [A6 - 0x1E]
0000375E  0640 FFF0                addi.w     D0, 0xFFF0
00003762  3D40 FFE2                move.w     [A6 - 0x1E], D0
00003766  302E FFDC                move.w     D0, [A6 - 0x24]
0000376A  0640 FFE0                addi.w     D0, 0xFFE0
0000376E  3D40 FFDC                move.w     [A6 - 0x24], D0
00003772  302E FFE0                move.w     D0, [A6 - 0x20]
00003776  0640 FFE0                addi.w     D0, 0xFFE0
0000377A  3D40 FFE0                move.w     [A6 - 0x20], D0
0000377E  486D B5A2                pea.l      [A5 - 0x4A5E]
00003782  206D B560                movea.l    A0, [A5 - 0x4AA0]
00003786  4868 0002                pea.l      [A0 + 0x2]
0000378A  486E FFDC                pea.l      [A6 - 0x24]
0000378E  486E FFDC                pea.l      [A6 - 0x24]
00003792  4267                     clr.w      -[A7]
00003794  2F2D B590                move.l     -[A7], [A5 - 0x4A70]
00003798  A8EC                     syscall    CopyBits
label0000379A:
0000379A  486D B5A2                pea.l      [A5 - 0x4A5E]
0000379E  206D B560                movea.l    A0, [A5 - 0x4AA0]
000037A2  4868 0002                pea.l      [A0 + 0x2]
000037A6  486D F606                pea.l      [A5 - 0x9FA]
000037AA  486D F606                pea.l      [A5 - 0x9FA]
000037AE  4267                     clr.w      -[A7]
000037B0  2F2D B590                move.l     -[A7], [A5 - 0x4A70]
000037B4  A8EC                     syscall    CopyBits
000037B6  486D B5A2                pea.l      [A5 - 0x4A5E]
000037BA  206D B560                movea.l    A0, [A5 - 0x4AA0]
000037BE  4868 0002                pea.l      [A0 + 0x2]
000037C2  486D F61E                pea.l      [A5 - 0x9E2]
000037C6  486D F61E                pea.l      [A5 - 0x9E2]
000037CA  4267                     clr.w      -[A7]
000037CC  2F2D B590                move.l     -[A7], [A5 - 0x4A70]
000037D0  A8EC                     syscall    CopyBits
000037D2  41ED F5FE                lea.l      A0, [A5 - 0xA02]
000037D6  43ED F606                lea.l      A1, [A5 - 0x9FA]
000037DA  22D8                     move.l     [A1]+, [A0]+
000037DC  22D8                     move.l     [A1]+, [A0]+
000037DE  41ED F616                lea.l      A0, [A5 - 0x9EA]
000037E2  43ED F61E                lea.l      A1, [A5 - 0x9E2]
000037E6  22D8                     move.l     [A1]+, [A0]+
000037E8  22D8                     move.l     [A1]+, [A0]+
000037EA  4A6D F880                tst.w      [A5 - 0x780]
000037EE  6F46                     ble        +0x48 /* 00003836 */
000037F0  3D6D F880 FFDA           move.w     [A6 - 0x26], [A5 - 0x780]
000037F6  7E01                     moveq.l    D7, 0x01
000037F8  6036                     bra        +0x38 /* 00003830 */
label000037FA:
000037FA  3007                     move.w     D0, D7
000037FC  C1FC 002A                muls.w     D0, 0x2A /* '*' */
00003800  0640 EEC4                addi.w     D0, 0xEEC4
00003804  49F5 0000                lea.l      A4, [A5 + D0.w]
00003808  486D B5A2                pea.l      [A5 - 0x4A5E]
0000380C  206D B560                movea.l    A0, [A5 - 0x4AA0]
00003810  4868 0002                pea.l      [A0 + 0x2]
00003814  486C 0010                pea.l      [A4 + 0x10]
00003818  486C 0010                pea.l      [A4 + 0x10]
0000381C  4267                     clr.w      -[A7]
0000381E  42A7                     clr.l      -[A7]
00003820  A8EC                     syscall    CopyBits
00003822  41D4                     lea.l      A0, [A4]
00003824  43EC 0010                lea.l      A1, [A4 + 0x10]
00003828  22D8                     move.l     [A1]+, [A0]+
0000382A  22D8                     move.l     [A1]+, [A0]+
0000382C  5247                     addq.w     D7, 1
0000382E  6906                     bvs        +0x8 /* 00003836 */
label00003830:
00003830  BE6E FFDA                cmp.w      D7, [A6 - 0x26]
00003834  6FC4                     ble        -0x3A /* 000037FA */
label00003836:
00003836  4A6D F882                tst.w      [A5 - 0x77E]
0000383A  6F48                     ble        +0x4A /* 00003884 */
0000383C  3D6D F882 FFDA           move.w     [A6 - 0x26], [A5 - 0x77E]
00003842  7E01                     moveq.l    D7, 0x01
00003844  6038                     bra        +0x3A /* 0000387E */
label00003846:
00003846  3007                     move.w     D0, D7
00003848  C1FC 002A                muls.w     D0, 0x2A /* '*' */
0000384C  0640 F314                addi.w     D0, 0xF314
00003850  49F5 0000                lea.l      A4, [A5 + D0.w]
00003854  486D B5A2                pea.l      [A5 - 0x4A5E]
00003858  206D B560                movea.l    A0, [A5 - 0x4AA0]
0000385C  4868 0002                pea.l      [A0 + 0x2]
00003860  486C 0010                pea.l      [A4 + 0x10]
00003864  486C 0010                pea.l      [A4 + 0x10]
00003868  4267                     clr.w      -[A7]
0000386A  42A7                     clr.l      -[A7]
0000386C  A8EC                     syscall    CopyBits
0000386E  41EC 0008                lea.l      A0, [A4 + 0x8]
00003872  43EC 0010                lea.l      A1, [A4 + 0x10]
00003876  22D8                     move.l     [A1]+, [A0]+
00003878  22D8                     move.l     [A1]+, [A0]+
0000387A  5247                     addq.w     D7, 1
0000387C  6906                     bvs        +0x8 /* 00003884 */
label0000387E:
0000387E  BE6E FFDA                cmp.w      D7, [A6 - 0x26]
00003882  6FC2                     ble        -0x3C /* 00003846 */
label00003884:
00003884  4A2D FE71                tst.b      [A5 - 0x18F]
00003888  6726                     beq        +0x28 /* 000038B0 */
0000388A  486D B5A2                pea.l      [A5 - 0x4A5E]
0000388E  206D B560                movea.l    A0, [A5 - 0x4AA0]
00003892  4868 0002                pea.l      [A0 + 0x2]
00003896  486D F7FA                pea.l      [A5 - 0x806]
0000389A  486D F7FA                pea.l      [A5 - 0x806]
0000389E  4267                     clr.w      -[A7]
000038A0  42A7                     clr.l      -[A7]
000038A2  A8EC                     syscall    CopyBits
000038A4  41ED F7EA                lea.l      A0, [A5 - 0x816]
000038A8  43ED F7FA                lea.l      A1, [A5 - 0x806]
000038AC  22D8                     move.l     [A1]+, [A0]+
000038AE  22D8                     move.l     [A1]+, [A0]+
label000038B0:
000038B0  4CDF 10C0                movem.l    D6,D7,A4, [A7]+
000038B4  4E5E                     unlink     A6
000038B6  4E75                     rts
fn000038B8:
000038B8  4E56 FFDA                link       A6, -0x0026
000038BC  48E7 0308                movem.l    -[A7], D6,D7,A4
000038C0  4A2D FE67                tst.b      [A5 - 0x199]
000038C4  6700 00A2                beq        +0xA4 /* 00003968 */
000038C8  4A6D FA14                tst.w      [A5 - 0x5EC]
000038CC  6700 009A                beq        +0x9C /* 00003968 */
000038D0  2F2D B560                move.l     -[A7], [A5 - 0x4AA0]
000038D4  A873                     syscall    SetPort
000038D6  2F2D F9AA                move.l     -[A7], [A5 - 0x656]
000038DA  A879                     syscall    SetClip
000038DC  A89E                     syscall    PenNormal
000038DE  0C6D 0004 FA14           cmpi.w     [A5 - 0x5EC], 0x4
000038E4  660C                     bne        +0xE /* 000038F2 */
000038E6  2F2D F9AA                move.l     -[A7], [A5 - 0x656]
000038EA  486D FFBA                pea.l      [A5 - 0x46]
000038EE  A8D6                     syscall    FillRgn
000038F0  606A                     bra        +0x6C /* 0000395C */
label000038F2:
000038F2  3F3C 0002                move.w     -[A7], 0x2
000038F6  3F3C 0002                move.w     -[A7], 0x2
000038FA  A89B                     syscall    PenSize
000038FC  3F3C 000A                move.w     -[A7], 0xA /* '\n' */
00003900  A89C                     syscall    PenMode
00003902  302D FA12                move.w     D0, [A5 - 0x5EE]
00003906  EB40                     asl        D0.w, 5
00003908  0640 F992                addi.w     D0, 0xF992
0000390C  3F35 0000                move.w     -[A7], [A5 + D0.w]
00003910  302D FA12                move.w     D0, [A5 - 0x5EE]
00003914  EB40                     asl        D0.w, 5
00003916  0640 F994                addi.w     D0, 0xF994
0000391A  3F35 0000                move.w     -[A7], [A5 + D0.w]
0000391E  A893                     syscall    MoveTo
00003920  7E01                     moveq.l    D7, 0x01
label00003922:
00003922  302D FA12                move.w     D0, [A5 - 0x5EE]
00003926  EB40                     asl        D0.w, 5
00003928  3207                     move.w     D1, D7
0000392A  E541                     asl        D1.w, 2
0000392C  D041                     add.w      D0, D1
0000392E  0640 F992                addi.w     D0, 0xF992
00003932  3F35 0000                move.w     -[A7], [A5 + D0.w]
00003936  302D FA12                move.w     D0, [A5 - 0x5EE]
0000393A  EB40                     asl        D0.w, 5
0000393C  3207                     move.w     D1, D7
0000393E  E541                     asl        D1.w, 2
00003940  D041                     add.w      D0, D1
00003942  0640 F994                addi.w     D0, 0xF994
00003946  3F35 0000                move.w     -[A7], [A5 + D0.w]
0000394A  A891                     syscall    LineTo
0000394C  4267                     clr.w      -[A7]
0000394E  3F3C 0002                move.w     -[A7], 0x2
00003952  A894                     syscall    Move
00003954  5247                     addq.w     D7, 1
00003956  0C47 0007                cmpi.w     D7, 0x7
0000395A  6FC6                     ble        -0x38 /* 00003922 */
label0000395C:
0000395C  486D B568                pea.l      [A5 - 0x4A98]
00003960  A87B                     syscall    ClipRect
00003962  2F2D B5DE                move.l     -[A7], [A5 - 0x4A22]
00003966  A873                     syscall    SetPort
label00003968:
00003968  4A2D FE6D                tst.b      [A5 - 0x193]
0000396C  6754                     beq        +0x56 /* 000039C2 */
0000396E  41ED F606                lea.l      A0, [A5 - 0x9FA]
00003972  43EE FFE4                lea.l      A1, [A6 - 0x1C]
00003976  22D8                     move.l     [A1]+, [A0]+
00003978  22D8                     move.l     [A1]+, [A0]+
0000397A  302E FFE6                move.w     D0, [A6 - 0x1A]
0000397E  0640 FFF0                addi.w     D0, 0xFFF0
00003982  3D40 FFE6                move.w     [A6 - 0x1A], D0
00003986  302E FFEA                move.w     D0, [A6 - 0x16]
0000398A  0640 FFF0                addi.w     D0, 0xFFF0
0000398E  3D40 FFEA                move.w     [A6 - 0x16], D0
00003992  302E FFE4                move.w     D0, [A6 - 0x1C]
00003996  0640 FFE0                addi.w     D0, 0xFFE0
0000399A  3D40 FFE4                move.w     [A6 - 0x1C], D0
0000399E  302E FFE8                move.w     D0, [A6 - 0x18]
000039A2  0640 FFE0                addi.w     D0, 0xFFE0
000039A6  3D40 FFE8                move.w     [A6 - 0x18], D0
000039AA  486D B5A2                pea.l      [A5 - 0x4A5E]
000039AE  486D B5B0                pea.l      [A5 - 0x4A50]
000039B2  486E FFE4                pea.l      [A6 - 0x1C]
000039B6  486E FFE4                pea.l      [A6 - 0x1C]
000039BA  4267                     clr.w      -[A7]
000039BC  2F2D F9A6                move.l     -[A7], [A5 - 0x65A]
000039C0  A8EC                     syscall    CopyBits
label000039C2:
000039C2  486D F5FE                pea.l      [A5 - 0xA02]
000039C6  486D F606                pea.l      [A5 - 0x9FA]
000039CA  486D F60E                pea.l      [A5 - 0x9F2]
000039CE  A8AB                     syscall    UnionRect
000039D0  486D F616                pea.l      [A5 - 0x9EA]
000039D4  486D F61E                pea.l      [A5 - 0x9E2]
000039D8  486D F626                pea.l      [A5 - 0x9DA]
000039DC  A8AB                     syscall    UnionRect
000039DE  486D B5A2                pea.l      [A5 - 0x4A5E]
000039E2  486D B5B0                pea.l      [A5 - 0x4A50]
000039E6  486D F606                pea.l      [A5 - 0x9FA]
000039EA  486D F606                pea.l      [A5 - 0x9FA]
000039EE  4267                     clr.w      -[A7]
000039F0  2F2D B590                move.l     -[A7], [A5 - 0x4A70]
000039F4  A8EC                     syscall    CopyBits
000039F6  486D B5A2                pea.l      [A5 - 0x4A5E]
000039FA  486D B5B0                pea.l      [A5 - 0x4A50]
000039FE  486D F61E                pea.l      [A5 - 0x9E2]
00003A02  486D F61E                pea.l      [A5 - 0x9E2]
00003A06  4267                     clr.w      -[A7]
00003A08  2F2D B590                move.l     -[A7], [A5 - 0x4A70]
00003A0C  A8EC                     syscall    CopyBits
00003A0E  41ED F5FE                lea.l      A0, [A5 - 0xA02]
00003A12  43ED F606                lea.l      A1, [A5 - 0x9FA]
00003A16  22D8                     move.l     [A1]+, [A0]+
00003A18  22D8                     move.l     [A1]+, [A0]+
00003A1A  41ED F616                lea.l      A0, [A5 - 0x9EA]
00003A1E  43ED F61E                lea.l      A1, [A5 - 0x9E2]
00003A22  22D8                     move.l     [A1]+, [A0]+
00003A24  22D8                     move.l     [A1]+, [A0]+
00003A26  4A6D F880                tst.w      [A5 - 0x780]
00003A2A  6F38                     ble        +0x3A /* 00003A64 */
00003A2C  3D6D F880 FFDA           move.w     [A6 - 0x26], [A5 - 0x780]
00003A32  7E01                     moveq.l    D7, 0x01
00003A34  6028                     bra        +0x2A /* 00003A5E */
label00003A36:
00003A36  3007                     move.w     D0, D7
00003A38  C1FC 002A                muls.w     D0, 0x2A /* '*' */
00003A3C  0640 EEC4                addi.w     D0, 0xEEC4
00003A40  49F5 0000                lea.l      A4, [A5 + D0.w]
00003A44  486D B5A2                pea.l      [A5 - 0x4A5E]
00003A48  486D B5B0                pea.l      [A5 - 0x4A50]
00003A4C  486C 0010                pea.l      [A4 + 0x10]
00003A50  486C 0010                pea.l      [A4 + 0x10]
00003A54  4267                     clr.w      -[A7]
00003A56  42A7                     clr.l      -[A7]
00003A58  A8EC                     syscall    CopyBits
00003A5A  5247                     addq.w     D7, 1
00003A5C  6906                     bvs        +0x8 /* 00003A64 */
label00003A5E:
00003A5E  BE6E FFDA                cmp.w      D7, [A6 - 0x26]
00003A62  6FD2                     ble        -0x2C /* 00003A36 */
label00003A64:
00003A64  4A6D F882                tst.w      [A5 - 0x77E]
00003A68  6F38                     ble        +0x3A /* 00003AA2 */
00003A6A  3D6D F882 FFDA           move.w     [A6 - 0x26], [A5 - 0x77E]
00003A70  7E01                     moveq.l    D7, 0x01
00003A72  6028                     bra        +0x2A /* 00003A9C */
label00003A74:
00003A74  3007                     move.w     D0, D7
00003A76  C1FC 002A                muls.w     D0, 0x2A /* '*' */
00003A7A  0640 F314                addi.w     D0, 0xF314
00003A7E  49F5 0000                lea.l      A4, [A5 + D0.w]
00003A82  486D B5A2                pea.l      [A5 - 0x4A5E]
00003A86  486D B5B0                pea.l      [A5 - 0x4A50]
00003A8A  486C 0010                pea.l      [A4 + 0x10]
00003A8E  486C 0010                pea.l      [A4 + 0x10]
00003A92  4267                     clr.w      -[A7]
00003A94  42A7                     clr.l      -[A7]
00003A96  A8EC                     syscall    CopyBits
00003A98  5247                     addq.w     D7, 1
00003A9A  6906                     bvs        +0x8 /* 00003AA2 */
label00003A9C:
00003A9C  BE6E FFDA                cmp.w      D7, [A6 - 0x26]
00003AA0  6FD2                     ble        -0x2C /* 00003A74 */
label00003AA2:
00003AA2  4A2D FE71                tst.b      [A5 - 0x18F]
00003AA6  6716                     beq        +0x18 /* 00003ABE */
00003AA8  486D B5A2                pea.l      [A5 - 0x4A5E]
00003AAC  486D B5B0                pea.l      [A5 - 0x4A50]
00003AB0  486D F7FA                pea.l      [A5 - 0x806]
00003AB4  486D F7FA                pea.l      [A5 - 0x806]
00003AB8  4267                     clr.w      -[A7]
00003ABA  42A7                     clr.l      -[A7]
00003ABC  A8EC                     syscall    CopyBits
label00003ABE:
00003ABE  4A2D FE6D                tst.b      [A5 - 0x193]
00003AC2  6700 0092                beq        +0x94 /* 00003B56 */
00003AC6  41ED F5FE                lea.l      A0, [A5 - 0xA02]
00003ACA  43EE FFDC                lea.l      A1, [A6 - 0x24]
00003ACE  22D8                     move.l     [A1]+, [A0]+
00003AD0  22D8                     move.l     [A1]+, [A0]+
00003AD2  302E FFDE                move.w     D0, [A6 - 0x22]
00003AD6  0640 FFF0                addi.w     D0, 0xFFF0
00003ADA  3D40 FFDE                move.w     [A6 - 0x22], D0
00003ADE  302E FFE2                move.w     D0, [A6 - 0x1E]
00003AE2  0640 FFF0                addi.w     D0, 0xFFF0
00003AE6  3D40 FFE2                move.w     [A6 - 0x1E], D0
00003AEA  302E FFDC                move.w     D0, [A6 - 0x24]
00003AEE  0640 FFE0                addi.w     D0, 0xFFE0
00003AF2  3D40 FFDC                move.w     [A6 - 0x24], D0
00003AF6  302E FFE0                move.w     D0, [A6 - 0x20]
00003AFA  0640 FFE0                addi.w     D0, 0xFFE0
00003AFE  3D40 FFE0                move.w     [A6 - 0x20], D0
00003B02  2F2D B5E2                move.l     -[A7], [A5 - 0x4A1E]
00003B06  A873                     syscall    SetPort
00003B08  2F2D F9A6                move.l     -[A7], [A5 - 0x65A]
00003B0C  A879                     syscall    SetClip
00003B0E  486D B5BE                pea.l      [A5 - 0x4A42]
00003B12  486D B594                pea.l      [A5 - 0x4A6C]
00003B16  486D B5B0                pea.l      [A5 - 0x4A50]
00003B1A  302D F63E                move.w     D0, [A5 - 0x9C2]
00003B1E  E740                     asl        D0.w, 3
00003B20  0640 F672                addi.w     D0, 0xF672
00003B24  4875 0000                pea.l      [A5 + D0.w]
00003B28  302D F63E                move.w     D0, [A5 - 0x9C2]
00003B2C  E740                     asl        D0.w, 3
00003B2E  0640 F672                addi.w     D0, 0xF672
00003B32  4875 0000                pea.l      [A5 + D0.w]
00003B36  486E FFDC                pea.l      [A6 - 0x24]
00003B3A  A817                     syscall    CopyMask
00003B3C  486D B568                pea.l      [A5 - 0x4A98]
00003B40  A87B                     syscall    ClipRect
00003B42  2F2D B5DE                move.l     -[A7], [A5 - 0x4A22]
00003B46  A873                     syscall    SetPort
00003B48  486E FFE4                pea.l      [A6 - 0x1C]
00003B4C  486E FFDC                pea.l      [A6 - 0x24]
00003B50  486E FFE4                pea.l      [A6 - 0x1C]
00003B54  A8AB                     syscall    UnionRect
label00003B56:
00003B56  4A6D F882                tst.w      [A5 - 0x77E]
00003B5A  6F00 0206                ble        +0x208 /* 00003D62 */
00003B5E  3D6D F882 FFDA           move.w     [A6 - 0x26], [A5 - 0x77E]
00003B64  7E01                     moveq.l    D7, 0x01
00003B66  6000 01F2                bra        +0x1F4 /* 00003D5A */
label00003B6A:
00003B6A  3007                     move.w     D0, D7
00003B6C  C1FC 002A                muls.w     D0, 0x2A /* '*' */
00003B70  0640 F314                addi.w     D0, 0xF314
00003B74  49F5 0000                lea.l      A4, [A5 + D0.w]
00003B78  302C 001A                move.w     D0, [A4 + 0x1A]
00003B7C  6000 01A0                bra        +0x1A2 /* 00003D1E */
label00003B80:
00003B80  486D B5BE                pea.l      [A5 - 0x4A42]
00003B84  486D B594                pea.l      [A5 - 0x4A6C]
00003B88  486D B5B0                pea.l      [A5 - 0x4A50]
00003B8C  302C 0024                move.w     D0, [A4 + 0x24]
00003B90  E740                     asl        D0.w, 3
00003B92  0640 FA5A                addi.w     D0, 0xFA5A
00003B96  4875 0000                pea.l      [A5 + D0.w]
00003B9A  302C 0024                move.w     D0, [A4 + 0x24]
00003B9E  E740                     asl        D0.w, 3
00003BA0  0640 FA5A                addi.w     D0, 0xFA5A
00003BA4  4875 0000                pea.l      [A5 + D0.w]
00003BA8  486C 0008                pea.l      [A4 + 0x8]
00003BAC  A817                     syscall    CopyMask
00003BAE  6000 019A                bra        +0x19C /* 00003D4A */
label00003BB2:
00003BB2  486D B5BE                pea.l      [A5 - 0x4A42]
00003BB6  486D B594                pea.l      [A5 - 0x4A6C]
00003BBA  486D B5B0                pea.l      [A5 - 0x4A50]
00003BBE  302C 0026                move.w     D0, [A4 + 0x26]
00003BC2  E740                     asl        D0.w, 3
00003BC4  0640 FA5A                addi.w     D0, 0xFA5A
00003BC8  4875 0000                pea.l      [A5 + D0.w]
00003BCC  302C 0026                move.w     D0, [A4 + 0x26]
00003BD0  E740                     asl        D0.w, 3
00003BD2  0640 FA5A                addi.w     D0, 0xFA5A
00003BD6  4875 0000                pea.l      [A5 + D0.w]
00003BDA  486C 0008                pea.l      [A4 + 0x8]
00003BDE  A817                     syscall    CopyMask
00003BE0  6000 0168                bra        +0x16A /* 00003D4A */
label00003BE4:
00003BE4  486D B5BE                pea.l      [A5 - 0x4A42]
00003BE8  486D B594                pea.l      [A5 - 0x4A6C]
00003BEC  486D B5B0                pea.l      [A5 - 0x4A50]
00003BF0  302C 001A                move.w     D0, [A4 + 0x1A]
00003BF4  E740                     asl        D0.w, 3
00003BF6  0640 FA5A                addi.w     D0, 0xFA5A
00003BFA  4875 0000                pea.l      [A5 + D0.w]
00003BFE  302C 001A                move.w     D0, [A4 + 0x1A]
00003C02  E740                     asl        D0.w, 3
00003C04  0640 FA5A                addi.w     D0, 0xFA5A
00003C08  4875 0000                pea.l      [A5 + D0.w]
00003C0C  302C 0018                move.w     D0, [A4 + 0x18]
00003C10  E740                     asl        D0.w, 3
00003C12  0640 FC8A                addi.w     D0, 0xFC8A
00003C16  4875 0000                pea.l      [A5 + D0.w]
00003C1A  A817                     syscall    CopyMask
00003C1C  6000 012C                bra        +0x12E /* 00003D4A */
label00003C20:
00003C20  486D B5BE                pea.l      [A5 - 0x4A42]
00003C24  486D B594                pea.l      [A5 - 0x4A6C]
00003C28  486D B5B0                pea.l      [A5 - 0x4A50]
00003C2C  302C 001C                move.w     D0, [A4 + 0x1C]
00003C30  E740                     asl        D0.w, 3
00003C32  0640 FA5A                addi.w     D0, 0xFA5A
00003C36  4875 0000                pea.l      [A5 + D0.w]
00003C3A  302C 001C                move.w     D0, [A4 + 0x1C]
00003C3E  E740                     asl        D0.w, 3
00003C40  0640 FA5A                addi.w     D0, 0xFA5A
00003C44  4875 0000                pea.l      [A5 + D0.w]
00003C48  302C 0018                move.w     D0, [A4 + 0x18]
00003C4C  E740                     asl        D0.w, 3
00003C4E  0640 FC8A                addi.w     D0, 0xFC8A
00003C52  4875 0000                pea.l      [A5 + D0.w]
00003C56  A817                     syscall    CopyMask
00003C58  6000 00F0                bra        +0xF2 /* 00003D4A */
label00003C5C:
00003C5C  4A6C 001C                tst.w      [A4 + 0x1C]
00003C60  6700 00E8                beq        +0xEA /* 00003D4A */
00003C64  2F2D B5E2                move.l     -[A7], [A5 - 0x4A1E]
00003C68  A873                     syscall    SetPort
00003C6A  2F2D F9AE                move.l     -[A7], [A5 - 0x652]
00003C6E  A879                     syscall    SetClip
00003C70  486D B5BE                pea.l      [A5 - 0x4A42]
00003C74  486D B594                pea.l      [A5 - 0x4A6C]
00003C78  486D B5B0                pea.l      [A5 - 0x4A50]
00003C7C  302C 001C                move.w     D0, [A4 + 0x1C]
00003C80  E740                     asl        D0.w, 3
00003C82  0640 FA5A                addi.w     D0, 0xFA5A
00003C86  4875 0000                pea.l      [A5 + D0.w]
00003C8A  302C 001C                move.w     D0, [A4 + 0x1C]
00003C8E  E740                     asl        D0.w, 3
00003C90  0640 FA5A                addi.w     D0, 0xFA5A
00003C94  4875 0000                pea.l      [A5 + D0.w]
00003C98  302C 0018                move.w     D0, [A4 + 0x18]
00003C9C  E740                     asl        D0.w, 3
00003C9E  0640 FC8A                addi.w     D0, 0xFC8A
00003CA2  4875 0000                pea.l      [A5 + D0.w]
00003CA6  A817                     syscall    CopyMask
00003CA8  486D B568                pea.l      [A5 - 0x4A98]
00003CAC  A87B                     syscall    ClipRect
00003CAE  2F2D B5DE                move.l     -[A7], [A5 - 0x4A22]
00003CB2  A873                     syscall    SetPort
00003CB4  6000 0094                bra        +0x96 /* 00003D4A */
label00003CB8:
00003CB8  4A6C 001C                tst.w      [A4 + 0x1C]
00003CBC  673A                     beq        +0x3C /* 00003CF8 */
00003CBE  486D B5BE                pea.l      [A5 - 0x4A42]
00003CC2  486D B594                pea.l      [A5 - 0x4A6C]
00003CC6  486D B5B0                pea.l      [A5 - 0x4A50]
00003CCA  302C 001C                move.w     D0, [A4 + 0x1C]
00003CCE  E740                     asl        D0.w, 3
00003CD0  0640 FA5A                addi.w     D0, 0xFA5A
00003CD4  4875 0000                pea.l      [A5 + D0.w]
00003CD8  302C 001C                move.w     D0, [A4 + 0x1C]
00003CDC  E740                     asl        D0.w, 3
00003CDE  0640 FA5A                addi.w     D0, 0xFA5A
00003CE2  4875 0000                pea.l      [A5 + D0.w]
00003CE6  302C 0018                move.w     D0, [A4 + 0x18]
00003CEA  E740                     asl        D0.w, 3
00003CEC  0640 FC8A                addi.w     D0, 0xFC8A
00003CF0  4875 0000                pea.l      [A5 + D0.w]
00003CF4  A817                     syscall    CopyMask
00003CF6  6052                     bra        +0x54 /* 00003D4A */
label00003CF8:
00003CF8  486D B5BE                pea.l      [A5 - 0x4A42]
00003CFC  486D B594                pea.l      [A5 - 0x4A6C]
00003D00  486D B5B0                pea.l      [A5 - 0x4A50]
00003D04  486D FC82                pea.l      [A5 - 0x37E]
00003D08  486D FC82                pea.l      [A5 - 0x37E]
00003D0C  302C 0018                move.w     D0, [A4 + 0x18]
00003D10  E740                     asl        D0.w, 3
00003D12  0640 FC8A                addi.w     D0, 0xFC8A
00003D16  4875 0000                pea.l      [A5 + D0.w]
00003D1A  A817                     syscall    CopyMask
00003D1C  602C                     bra        +0x2E /* 00003D4A */
label00003D1E:
00003D1E  0640 FFF5                addi.w     D0, 0xFFF5
00003D22  6700 FE5C                beq        -0x1A2 /* 00003B80 */
00003D26  5F40                     subq.w     D0, 7
00003D28  6700 FE88                beq        -0x176 /* 00003BB2 */
00003D2C  5F40                     subq.w     D0, 7
00003D2E  6700 FE82                beq        -0x17C /* 00003BB2 */
00003D32  5F40                     subq.w     D0, 7
00003D34  6700 FEEA                beq        -0x114 /* 00003C20 */
00003D38  5340                     subq.w     D0, 1
00003D3A  6700 FF20                beq        -0xDE /* 00003C5C */
00003D3E  5340                     subq.w     D0, 1
00003D40  6700 FEA2                beq        -0x15C /* 00003BE4 */
00003D44  5340                     subq.w     D0, 1
00003D46  6700 FF70                beq        -0x8E /* 00003CB8 */
label00003D4A:
00003D4A  41EC 0008                lea.l      A0, [A4 + 0x8]
00003D4E  43EC 0010                lea.l      A1, [A4 + 0x10]
00003D52  22D8                     move.l     [A1]+, [A0]+
00003D54  22D8                     move.l     [A1]+, [A0]+
00003D56  5247                     addq.w     D7, 1
00003D58  6908                     bvs        +0xA /* 00003D62 */
label00003D5A:
00003D5A  BE6E FFDA                cmp.w      D7, [A6 - 0x26]
00003D5E  6F00 FE0A                ble        -0x1F4 /* 00003B6A */
label00003D62:
00003D62  4A2D F648                tst.b      [A5 - 0x9B8]
00003D66  671C                     beq        +0x1E /* 00003D84 */
00003D68  486D B5BE                pea.l      [A5 - 0x4A42]
00003D6C  486D B594                pea.l      [A5 - 0x4A6C]
00003D70  486D B5B0                pea.l      [A5 - 0x4A50]
00003D74  486D F752                pea.l      [A5 - 0x8AE]
00003D78  486D F752                pea.l      [A5 - 0x8AE]
00003D7C  486D F616                pea.l      [A5 - 0x9EA]
00003D80  A817                     syscall    CopyMask
00003D82  601A                     bra        +0x1C /* 00003D9E */
label00003D84:
00003D84  486D B5BE                pea.l      [A5 - 0x4A42]
00003D88  486D B594                pea.l      [A5 - 0x4A6C]
00003D8C  486D B5B0                pea.l      [A5 - 0x4A50]
00003D90  486D F75A                pea.l      [A5 - 0x8A6]
00003D94  486D F75A                pea.l      [A5 - 0x8A6]
00003D98  486D F616                pea.l      [A5 - 0x9EA]
00003D9C  A817                     syscall    CopyMask
label00003D9E:
00003D9E  4A2D FE83                tst.b      [A5 - 0x17D]
00003DA2  6732                     beq        +0x34 /* 00003DD6 */
00003DA4  486D B5BE                pea.l      [A5 - 0x4A42]
00003DA8  486D B594                pea.l      [A5 - 0x4A6C]
00003DAC  486D B5B0                pea.l      [A5 - 0x4A50]
00003DB0  302D F63E                move.w     D0, [A5 - 0x9C2]
00003DB4  E740                     asl        D0.w, 3
00003DB6  0640 F672                addi.w     D0, 0xF672
00003DBA  4875 0000                pea.l      [A5 + D0.w]
00003DBE  302D F63E                move.w     D0, [A5 - 0x9C2]
00003DC2  E740                     asl        D0.w, 3
00003DC4  0640 F672                addi.w     D0, 0xF672
00003DC8  4875 0000                pea.l      [A5 + D0.w]
00003DCC  486D F5FE                pea.l      [A5 - 0xA02]
00003DD0  A817                     syscall    CopyMask
00003DD2  6000 0132                bra        +0x134 /* 00003F06 */
label00003DD6:
00003DD6  302D F63A                move.w     D0, [A5 - 0x9C6]
00003DDA  6000 0108                bra        +0x10A /* 00003EE4 */
00003DDE  3C2D F63A                move.w     D6, [A5 - 0x9C6]
00003DE2  CDFC 0022                muls.w     D6, 0x22 /* '\"' */
00003DE6  302D F63C                move.w     D0, [A5 - 0x9C4]
00003DEA  D040                     add.w      D0, D0
00003DEC  D046                     add.w      D0, D6
00003DEE  0640 F740                addi.w     D0, 0xF740
00003DF2  3C35 0000                move.w     D6, [A5 + D0.w]
00003DF6  102D F648                move.b     D0, [A5 - 0x9B8]
00003DFA  5300                     subq.b     D0, 1
00003DFC  6702                     beq        +0x4 /* 00003E00 */
00003DFE  5E46                     addq.w     D6, 7
label00003E00:
00003E00  486D B5BE                pea.l      [A5 - 0x4A42]
00003E04  486D B594                pea.l      [A5 - 0x4A6C]
00003E08  486D B5B0                pea.l      [A5 - 0x4A50]
00003E0C  302D F63E                move.w     D0, [A5 - 0x9C2]
00003E10  E740                     asl        D0.w, 3
00003E12  0640 F672                addi.w     D0, 0xF672
00003E16  4875 0000                pea.l      [A5 + D0.w]
00003E1A  3006                     move.w     D0, D6
00003E1C  E740                     asl        D0.w, 3
00003E1E  0640 F672                addi.w     D0, 0xF672
00003E22  4875 0000                pea.l      [A5 + D0.w]
00003E26  486D F5FE                pea.l      [A5 - 0xA02]
00003E2A  A817                     syscall    CopyMask
00003E2C  6000 00D8                bra        +0xDA /* 00003F06 */
00003E30  3C2D F63A                move.w     D6, [A5 - 0x9C6]
00003E34  CDFC 0022                muls.w     D6, 0x22 /* '\"' */
00003E38  302D F63C                move.w     D0, [A5 - 0x9C4]
00003E3C  D040                     add.w      D0, D0
00003E3E  D046                     add.w      D0, D6
00003E40  0640 F740                addi.w     D0, 0xF740
00003E44  3C35 0000                move.w     D6, [A5 + D0.w]
00003E48  486D B5BE                pea.l      [A5 - 0x4A42]
00003E4C  486D B594                pea.l      [A5 - 0x4A6C]
00003E50  486D B5B0                pea.l      [A5 - 0x4A50]
00003E54  3006                     move.w     D0, D6
00003E56  E740                     asl        D0.w, 3
00003E58  0640 F672                addi.w     D0, 0xF672
00003E5C  4875 0000                pea.l      [A5 + D0.w]
00003E60  3006                     move.w     D0, D6
00003E62  E740                     asl        D0.w, 3
00003E64  0640 F672                addi.w     D0, 0xF672
00003E68  4875 0000                pea.l      [A5 + D0.w]
00003E6C  486D F5FE                pea.l      [A5 - 0xA02]
00003E70  A817                     syscall    CopyMask
00003E72  6000 0092                bra        +0x94 /* 00003F06 */
00003E76  486D B5BE                pea.l      [A5 - 0x4A42]
00003E7A  486D B594                pea.l      [A5 - 0x4A6C]
00003E7E  486D B5B0                pea.l      [A5 - 0x4A50]
00003E82  302D F63E                move.w     D0, [A5 - 0x9C2]
00003E86  E740                     asl        D0.w, 3
00003E88  0640 F672                addi.w     D0, 0xF672
00003E8C  4875 0000                pea.l      [A5 + D0.w]
00003E90  302D F63E                move.w     D0, [A5 - 0x9C2]
00003E94  E740                     asl        D0.w, 3
00003E96  0640 F672                addi.w     D0, 0xF672
00003E9A  4875 0000                pea.l      [A5 + D0.w]
00003E9E  486D F5FE                pea.l      [A5 - 0xA02]
00003EA2  A817                     syscall    CopyMask
00003EA4  6060                     bra        +0x62 /* 00003F06 */
00003EA6  486E FFE4                pea.l      [A6 - 0x1C]
00003EAA  3F3C 0100                move.w     -[A7], 0x100
00003EAE  302D F602                move.w     D0, [A5 - 0x9FE]
00003EB2  906D F5FE                sub.w      D0, [A5 - 0xA02]
00003EB6  323C 00D0                move.w     D1, 0xD0
00003EBA  9240                     sub.w      D1, D0
00003EBC  3F01                     move.w     -[A7], D1
00003EBE  3F3C 0130                move.w     -[A7], 0x130
00003EC2  3F3C 00D0                move.w     -[A7], 0xD0
00003EC6  A8A7                     syscall    SetRect
00003EC8  486D B5BE                pea.l      [A5 - 0x4A42]
00003ECC  486D B594                pea.l      [A5 - 0x4A6C]
00003ED0  486D B5B0                pea.l      [A5 - 0x4A50]
00003ED4  486E FFE4                pea.l      [A6 - 0x1C]
00003ED8  486E FFE4                pea.l      [A6 - 0x1C]
00003EDC  486D F5FE                pea.l      [A5 - 0xA02]
00003EE0  A817                     syscall    CopyMask
00003EE2  6022                     bra        +0x24 /* 00003F06 */
label00003EE4:
00003EE4  5340                     subq.w     D0, 1
00003EE6  0C40 0008                cmpi.w     D0, 0x8
00003EEA  641A                     bcc        +0x1C /* 00003F06 */
00003EEC  D040                     add.w      D0, D0
00003EEE  303B 0006                move.w     D0, [PC + D0.w + 0x6]
00003EF2  4EFB 0002                jmp        [PC + D0.w + 0x2]
00003EF6  FEE8 FEE8                .extension 0xEE8 <<F/2-3/7>> // unimplemented
00003EFA  FF3A                     .extension 0xF3A <<F/4-5/7>> // unimplemented
00003EFC  FF3A                     .extension 0xF3A <<F/4-5/7>> // unimplemented
00003EFE  FF80                     .invalid   <<F/6/7>>
00003F00  FF80                     .invalid   <<F/6/7>>
00003F02  FF80                     .invalid   <<F/6/7>>
00003F04  FFB0                     .invalid   <<F/6/7>>
label00003F06:
00003F06  4A6D F880                tst.w      [A5 - 0x780]
00003F0A  6F6E                     ble        +0x70 /* 00003F7A */
00003F0C  3D6D F880 FFDA           move.w     [A6 - 0x26], [A5 - 0x780]
00003F12  7E01                     moveq.l    D7, 0x01
00003F14  605E                     bra        +0x60 /* 00003F74 */
label00003F16:
00003F16  3007                     move.w     D0, D7
00003F18  C1FC 002A                muls.w     D0, 0x2A /* '*' */
00003F1C  0640 EEC4                addi.w     D0, 0xEEC4
00003F20  49F5 0000                lea.l      A4, [A5 + D0.w]
00003F24  486D B5BE                pea.l      [A5 - 0x4A42]
00003F28  486D B594                pea.l      [A5 - 0x4A6C]
00003F2C  486D B5B0                pea.l      [A5 - 0x4A50]
00003F30  302C 001C                move.w     D0, [A4 + 0x1C]
00003F34  C1FC 0090                muls.w     D0, 0x90
00003F38  322C 001E                move.w     D1, [A4 + 0x1E]
00003F3C  E741                     asl        D1.w, 3
00003F3E  D041                     add.w      D0, D1
00003F40  0640 F196                addi.w     D0, 0xF196
00003F44  4875 0000                pea.l      [A5 + D0.w]
00003F48  302C 001C                move.w     D0, [A4 + 0x1C]
00003F4C  C1FC 0090                muls.w     D0, 0x90
00003F50  322C 001E                move.w     D1, [A4 + 0x1E]
00003F54  E741                     asl        D1.w, 3
00003F56  D041                     add.w      D0, D1
00003F58  0640 F196                addi.w     D0, 0xF196
00003F5C  4875 0000                pea.l      [A5 + D0.w]
00003F60  2F0C                     move.l     -[A7], A4
00003F62  A817                     syscall    CopyMask
00003F64  41EC 0008                lea.l      A0, [A4 + 0x8]
00003F68  43EC 0010                lea.l      A1, [A4 + 0x10]
00003F6C  22D8                     move.l     [A1]+, [A0]+
00003F6E  22D8                     move.l     [A1]+, [A0]+
00003F70  5247                     addq.w     D7, 1
00003F72  6906                     bvs        +0x8 /* 00003F7A */
label00003F74:
00003F74  BE6E FFDA                cmp.w      D7, [A6 - 0x26]
00003F78  6F9C                     ble        -0x62 /* 00003F16 */
label00003F7A:
00003F7A  4A2D FE71                tst.b      [A5 - 0x18F]
00003F7E  673A                     beq        +0x3C /* 00003FBA */
00003F80  486D B5BE                pea.l      [A5 - 0x4A42]
00003F84  486D B594                pea.l      [A5 - 0x4A6C]
00003F88  486D B5B0                pea.l      [A5 - 0x4A50]
00003F8C  302D F802                move.w     D0, [A5 - 0x7FE]
00003F90  E740                     asl        D0.w, 3
00003F92  0640 F806                addi.w     D0, 0xF806
00003F96  4875 0000                pea.l      [A5 + D0.w]
00003F9A  302D F802                move.w     D0, [A5 - 0x7FE]
00003F9E  E740                     asl        D0.w, 3
00003FA0  0640 F806                addi.w     D0, 0xF806
00003FA4  4875 0000                pea.l      [A5 + D0.w]
00003FA8  486D F7EA                pea.l      [A5 - 0x816]
00003FAC  A817                     syscall    CopyMask
00003FAE  41ED F7EA                lea.l      A0, [A5 - 0x816]
00003FB2  43ED F7FA                lea.l      A1, [A5 - 0x806]
00003FB6  22D8                     move.l     [A1]+, [A0]+
00003FB8  22D8                     move.l     [A1]+, [A0]+
label00003FBA:
00003FBA  594F                     subq.w     A7, 4
00003FBC  A975                     syscall    TickCount
00003FBE  201F                     move.l     D0, [A7]+
00003FC0  B0AD F5E6                cmp.l      D0, [A5 - 0xA1A]
00003FC4  5EC0                     sgt        D0
00003FC6  C02D F5FC                and.b      D0, [A5 - 0xA04]
00003FCA  6720                     beq        +0x22 /* 00003FEC */
00003FCC  422D F5FC                clr.b      [A5 - 0xA04]
00003FD0  486D B5A2                pea.l      [A5 - 0x4A5E]
00003FD4  206D B560                movea.l    A0, [A5 - 0x4AA0]
00003FD8  4868 0002                pea.l      [A0 + 0x2]
00003FDC  486D F5DE                pea.l      [A5 - 0xA22]
00003FE0  486D F5DE                pea.l      [A5 - 0xA22]
00003FE4  4267                     clr.w      -[A7]
00003FE6  2F2D B590                move.l     -[A7], [A5 - 0x4A70]
00003FEA  A8EC                     syscall    CopyBits
label00003FEC:
00003FEC  4A2D FE6D                tst.b      [A5 - 0x193]
00003FF0  671C                     beq        +0x1E /* 0000400E */
00003FF2  486D B5B0                pea.l      [A5 - 0x4A50]
00003FF6  206D B560                movea.l    A0, [A5 - 0x4AA0]
00003FFA  4868 0002                pea.l      [A0 + 0x2]
00003FFE  486E FFE4                pea.l      [A6 - 0x1C]
00004002  486E FFE4                pea.l      [A6 - 0x1C]
00004006  4267                     clr.w      -[A7]
00004008  2F2D F9A6                move.l     -[A7], [A5 - 0x65A]
0000400C  A8EC                     syscall    CopyBits
label0000400E:
0000400E  4A6D F882                tst.w      [A5 - 0x77E]
00004012  6F00 00E4                ble        +0xE6 /* 000040F8 */
00004016  3D6D F882 FFDA           move.w     [A6 - 0x26], [A5 - 0x77E]
0000401C  7E01                     moveq.l    D7, 0x01
0000401E  6000 00D0                bra        +0xD2 /* 000040F0 */
label00004022:
00004022  3007                     move.w     D0, D7
00004024  C1FC 002A                muls.w     D0, 0x2A /* '*' */
00004028  0640 F314                addi.w     D0, 0xF314
0000402C  49F5 0000                lea.l      A4, [A5 + D0.w]
00004030  0C6C 0012 001A           cmpi.w     [A4 + 0x1A], 0x12
00004036  6720                     beq        +0x22 /* 00004058 */
00004038  486D B5B0                pea.l      [A5 - 0x4A50]
0000403C  206D B560                movea.l    A0, [A5 - 0x4AA0]
00004040  4868 0002                pea.l      [A0 + 0x2]
00004044  486C 0008                pea.l      [A4 + 0x8]
00004048  486C 0008                pea.l      [A4 + 0x8]
0000404C  4267                     clr.w      -[A7]
0000404E  2F2D B590                move.l     -[A7], [A5 - 0x4A70]
00004052  A8EC                     syscall    CopyBits
00004054  6000 0096                bra        +0x98 /* 000040EC */
label00004058:
00004058  486D B5B0                pea.l      [A5 - 0x4A50]
0000405C  206D B560                movea.l    A0, [A5 - 0x4AA0]
00004060  4868 0002                pea.l      [A0 + 0x2]
00004064  486C 0008                pea.l      [A4 + 0x8]
00004068  486C 0008                pea.l      [A4 + 0x8]
0000406C  4267                     clr.w      -[A7]
0000406E  2F2D B590                move.l     -[A7], [A5 - 0x4A70]
00004072  A8EC                     syscall    CopyBits
00004074  2F2D B560                move.l     -[A7], [A5 - 0x4AA0]
00004078  A873                     syscall    SetPort
0000407A  A89E                     syscall    PenNormal
0000407C  3F3C 0002                move.w     -[A7], 0x2
00004080  3F3C 0002                move.w     -[A7], 0x2
00004084  A89B                     syscall    PenSize
00004086  3F2C 000E                move.w     -[A7], [A4 + 0xE]
0000408A  302C 000C                move.w     D0, [A4 + 0xC]
0000408E  5540                     subq.w     D0, 2
00004090  3F00                     move.w     -[A7], D0
00004092  A893                     syscall    MoveTo
00004094  302C 000E                move.w     D0, [A4 + 0xE]
00004098  5240                     addq.w     D0, 1
0000409A  B06C 0028                cmp.w      D0, [A4 + 0x28]
0000409E  6C0E                     bge        +0x10 /* 000040AE */
000040A0  3F2C 0028                move.w     -[A7], [A4 + 0x28]
000040A4  302C 000C                move.w     D0, [A4 + 0xC]
000040A8  5540                     subq.w     D0, 2
000040AA  3F00                     move.w     -[A7], D0
000040AC  A891                     syscall    LineTo
label000040AE:
000040AE  A89E                     syscall    PenNormal
000040B0  2F2D B5DE                move.l     -[A7], [A5 - 0x4A22]
000040B4  A873                     syscall    SetPort
000040B6  A89E                     syscall    PenNormal
000040B8  3F3C 0002                move.w     -[A7], 0x2
000040BC  3F3C 0002                move.w     -[A7], 0x2
000040C0  A89B                     syscall    PenSize
000040C2  3F2C 000E                move.w     -[A7], [A4 + 0xE]
000040C6  302C 000C                move.w     D0, [A4 + 0xC]
000040CA  5540                     subq.w     D0, 2
000040CC  3F00                     move.w     -[A7], D0
000040CE  A893                     syscall    MoveTo
000040D0  302C 000E                move.w     D0, [A4 + 0xE]
000040D4  5240                     addq.w     D0, 1
000040D6  B06C 0028                cmp.w      D0, [A4 + 0x28]
000040DA  6C0E                     bge        +0x10 /* 000040EA */
000040DC  3F2C 0028                move.w     -[A7], [A4 + 0x28]
000040E0  302C 000C                move.w     D0, [A4 + 0xC]
000040E4  5540                     subq.w     D0, 2
000040E6  3F00                     move.w     -[A7], D0
000040E8  A891                     syscall    LineTo
label000040EA:
000040EA  A89E                     syscall    PenNormal
label000040EC:
000040EC  5247                     addq.w     D7, 1
000040EE  6908                     bvs        +0xA /* 000040F8 */
label000040F0:
000040F0  BE6E FFDA                cmp.w      D7, [A6 - 0x26]
000040F4  6F00 FF2C                ble        -0xD2 /* 00004022 */
label000040F8:
000040F8  486D B5B0                pea.l      [A5 - 0x4A50]
000040FC  206D B560                movea.l    A0, [A5 - 0x4AA0]
00004100  4868 0002                pea.l      [A0 + 0x2]
00004104  486D F60E                pea.l      [A5 - 0x9F2]
00004108  486D F60E                pea.l      [A5 - 0x9F2]
0000410C  4267                     clr.w      -[A7]
0000410E  2F2D B590                move.l     -[A7], [A5 - 0x4A70]
00004112  A8EC                     syscall    CopyBits
00004114  486D B5B0                pea.l      [A5 - 0x4A50]
00004118  206D B560                movea.l    A0, [A5 - 0x4AA0]
0000411C  4868 0002                pea.l      [A0 + 0x2]
00004120  486D F626                pea.l      [A5 - 0x9DA]
00004124  486D F626                pea.l      [A5 - 0x9DA]
00004128  4267                     clr.w      -[A7]
0000412A  2F2D B590                move.l     -[A7], [A5 - 0x4A70]
0000412E  A8EC                     syscall    CopyBits
00004130  4A6D F880                tst.w      [A5 - 0x780]
00004134  6F3E                     ble        +0x40 /* 00004174 */
00004136  3D6D F880 FFDA           move.w     [A6 - 0x26], [A5 - 0x780]
0000413C  7E01                     moveq.l    D7, 0x01
0000413E  602E                     bra        +0x30 /* 0000416E */
label00004140:
00004140  3007                     move.w     D0, D7
00004142  C1FC 002A                muls.w     D0, 0x2A /* '*' */
00004146  0640 EEC4                addi.w     D0, 0xEEC4
0000414A  49F5 0000                lea.l      A4, [A5 + D0.w]
0000414E  486D B5B0                pea.l      [A5 - 0x4A50]
00004152  206D B560                movea.l    A0, [A5 - 0x4AA0]
00004156  4868 0002                pea.l      [A0 + 0x2]
0000415A  486C 0008                pea.l      [A4 + 0x8]
0000415E  486C 0008                pea.l      [A4 + 0x8]
00004162  4267                     clr.w      -[A7]
00004164  2F2D B590                move.l     -[A7], [A5 - 0x4A70]
00004168  A8EC                     syscall    CopyBits
0000416A  5247                     addq.w     D7, 1
0000416C  6906                     bvs        +0x8 /* 00004174 */
label0000416E:
0000416E  BE6E FFDA                cmp.w      D7, [A6 - 0x26]
00004172  6FCC                     ble        -0x32 /* 00004140 */
label00004174:
00004174  4A2D FE71                tst.b      [A5 - 0x18F]
00004178  671C                     beq        +0x1E /* 00004196 */
0000417A  486D B5B0                pea.l      [A5 - 0x4A50]
0000417E  206D B560                movea.l    A0, [A5 - 0x4AA0]
00004182  4868 0002                pea.l      [A0 + 0x2]
00004186  486D F7F2                pea.l      [A5 - 0x80E]
0000418A  486D F7F2                pea.l      [A5 - 0x80E]
0000418E  4267                     clr.w      -[A7]
00004190  2F2D B590                move.l     -[A7], [A5 - 0x4A70]
00004194  A8EC                     syscall    CopyBits
label00004196:
00004196  4CDF 10C0                movem.l    D6,D7,A4, [A7]+
0000419A  4E5E                     unlink     A6
0000419C  4E75                     rts
fn0000419E:
0000419E  4E56 FFDA                link       A6, -0x0026
000041A2  48E7 0308                movem.l    -[A7], D6,D7,A4
000041A6  4A6D FA14                tst.w      [A5 - 0x5EC]
000041AA  56C0                     sne        D0
000041AC  C02D FE67                and.b      D0, [A5 - 0x199]
000041B0  6700 009A                beq        +0x9C /* 0000424C */
000041B4  2F2D B560                move.l     -[A7], [A5 - 0x4AA0]
000041B8  A873                     syscall    SetPort
000041BA  2F2D F9AA                move.l     -[A7], [A5 - 0x656]
000041BE  A879                     syscall    SetClip
000041C0  A89E                     syscall    PenNormal
000041C2  0C6D 0004 FA14           cmpi.w     [A5 - 0x5EC], 0x4
000041C8  660C                     bne        +0xE /* 000041D6 */
000041CA  2F2D F9AA                move.l     -[A7], [A5 - 0x656]
000041CE  486D FFBA                pea.l      [A5 - 0x46]
000041D2  A8D6                     syscall    FillRgn
000041D4  606A                     bra        +0x6C /* 00004240 */
label000041D6:
000041D6  3F3C 0002                move.w     -[A7], 0x2
000041DA  A89C                     syscall    PenMode
000041DC  3F3C 0002                move.w     -[A7], 0x2
000041E0  3F3C 0002                move.w     -[A7], 0x2
000041E4  A89B                     syscall    PenSize
000041E6  302D FA12                move.w     D0, [A5 - 0x5EE]
000041EA  EB40                     asl        D0.w, 5
000041EC  0640 F992                addi.w     D0, 0xF992
000041F0  3F35 0000                move.w     -[A7], [A5 + D0.w]
000041F4  302D FA12                move.w     D0, [A5 - 0x5EE]
000041F8  EB40                     asl        D0.w, 5
000041FA  0640 F994                addi.w     D0, 0xF994
000041FE  3F35 0000                move.w     -[A7], [A5 + D0.w]
00004202  A893                     syscall    MoveTo
00004204  7E01                     moveq.l    D7, 0x01
label00004206:
00004206  302D FA12                move.w     D0, [A5 - 0x5EE]
0000420A  EB40                     asl        D0.w, 5
0000420C  3207                     move.w     D1, D7
0000420E  E541                     asl        D1.w, 2
00004210  D041                     add.w      D0, D1
00004212  0640 F992                addi.w     D0, 0xF992
00004216  3F35 0000                move.w     -[A7], [A5 + D0.w]
0000421A  302D FA12                move.w     D0, [A5 - 0x5EE]
0000421E  EB40                     asl        D0.w, 5
00004220  3207                     move.w     D1, D7
00004222  E541                     asl        D1.w, 2
00004224  D041                     add.w      D0, D1
00004226  0640 F994                addi.w     D0, 0xF994
0000422A  3F35 0000                move.w     -[A7], [A5 + D0.w]
0000422E  A891                     syscall    LineTo
00004230  4267                     clr.w      -[A7]
00004232  3F3C 0002                move.w     -[A7], 0x2
00004236  A894                     syscall    Move
00004238  5247                     addq.w     D7, 1
0000423A  0C47 0007                cmpi.w     D7, 0x7
0000423E  6FC6                     ble        -0x38 /* 00004206 */
label00004240:
00004240  486D B568                pea.l      [A5 - 0x4A98]
00004244  A87B                     syscall    ClipRect
00004246  2F2D B7B2                move.l     -[A7], [A5 - 0x484E]
0000424A  A873                     syscall    SetPort
label0000424C:
0000424C  4A2D FE6D                tst.b      [A5 - 0x193]
00004250  6762                     beq        +0x64 /* 000042B4 */
00004252  486D F5FE                pea.l      [A5 - 0xA02]
00004256  486D F606                pea.l      [A5 - 0x9FA]
0000425A  486E FFE4                pea.l      [A6 - 0x1C]
0000425E  A8AB                     syscall    UnionRect
00004260  302E FFE6                move.w     D0, [A6 - 0x1A]
00004264  0640 FFE0                addi.w     D0, 0xFFE0
00004268  3D40 FFE6                move.w     [A6 - 0x1A], D0
0000426C  302E FFEA                move.w     D0, [A6 - 0x16]
00004270  0640 FFE0                addi.w     D0, 0xFFE0
00004274  3D40 FFEA                move.w     [A6 - 0x16], D0
00004278  302E FFE4                move.w     D0, [A6 - 0x1C]
0000427C  0640 FFE0                addi.w     D0, 0xFFE0
00004280  3D40 FFE4                move.w     [A6 - 0x1C], D0
00004284  302E FFE8                move.w     D0, [A6 - 0x18]
00004288  0640 FFE0                addi.w     D0, 0xFFE0
0000428C  3D40 FFE8                move.w     [A6 - 0x18], D0
00004290  206D B7B2                movea.l    A0, [A5 - 0x484E]
00004294  2068 0002                movea.l    A0, [A0 + 0x2]
00004298  2F10                     move.l     -[A7], [A0]
0000429A  206D B7B6                movea.l    A0, [A5 - 0x484A]
0000429E  2068 0002                movea.l    A0, [A0 + 0x2]
000042A2  2F10                     move.l     -[A7], [A0]
000042A4  486E FFE4                pea.l      [A6 - 0x1C]
000042A8  486E FFE4                pea.l      [A6 - 0x1C]
000042AC  4267                     clr.w      -[A7]
000042AE  2F2D F9A6                move.l     -[A7], [A5 - 0x65A]
000042B2  A8EC                     syscall    CopyBits
label000042B4:
000042B4  486D F5FE                pea.l      [A5 - 0xA02]
000042B8  486D F606                pea.l      [A5 - 0x9FA]
000042BC  486D F60E                pea.l      [A5 - 0x9F2]
000042C0  A8AB                     syscall    UnionRect
000042C2  486D F616                pea.l      [A5 - 0x9EA]
000042C6  486D F61E                pea.l      [A5 - 0x9E2]
000042CA  486D F626                pea.l      [A5 - 0x9DA]
000042CE  A8AB                     syscall    UnionRect
000042D0  206D B7B2                movea.l    A0, [A5 - 0x484E]
000042D4  2068 0002                movea.l    A0, [A0 + 0x2]
000042D8  2F10                     move.l     -[A7], [A0]
000042DA  206D B7B6                movea.l    A0, [A5 - 0x484A]
000042DE  2068 0002                movea.l    A0, [A0 + 0x2]
000042E2  2F10                     move.l     -[A7], [A0]
000042E4  486D F606                pea.l      [A5 - 0x9FA]
000042E8  486D F606                pea.l      [A5 - 0x9FA]
000042EC  4267                     clr.w      -[A7]
000042EE  2F2D B590                move.l     -[A7], [A5 - 0x4A70]
000042F2  A8EC                     syscall    CopyBits
000042F4  206D B7B2                movea.l    A0, [A5 - 0x484E]
000042F8  2068 0002                movea.l    A0, [A0 + 0x2]
000042FC  2F10                     move.l     -[A7], [A0]
000042FE  206D B7B6                movea.l    A0, [A5 - 0x484A]
00004302  2068 0002                movea.l    A0, [A0 + 0x2]
00004306  2F10                     move.l     -[A7], [A0]
00004308  486D F61E                pea.l      [A5 - 0x9E2]
0000430C  486D F61E                pea.l      [A5 - 0x9E2]
00004310  4267                     clr.w      -[A7]
00004312  2F2D B590                move.l     -[A7], [A5 - 0x4A70]
00004316  A8EC                     syscall    CopyBits
00004318  41ED F5FE                lea.l      A0, [A5 - 0xA02]
0000431C  43ED F606                lea.l      A1, [A5 - 0x9FA]
00004320  22D8                     move.l     [A1]+, [A0]+
00004322  22D8                     move.l     [A1]+, [A0]+
00004324  41ED F616                lea.l      A0, [A5 - 0x9EA]
00004328  43ED F61E                lea.l      A1, [A5 - 0x9E2]
0000432C  22D8                     move.l     [A1]+, [A0]+
0000432E  22D8                     move.l     [A1]+, [A0]+
00004330  4A6D F880                tst.w      [A5 - 0x780]
00004334  6F46                     ble        +0x48 /* 0000437C */
00004336  3D6D F880 FFDA           move.w     [A6 - 0x26], [A5 - 0x780]
0000433C  7E01                     moveq.l    D7, 0x01
0000433E  6036                     bra        +0x38 /* 00004376 */
label00004340:
00004340  3007                     move.w     D0, D7
00004342  C1FC 002A                muls.w     D0, 0x2A /* '*' */
00004346  0640 EEC4                addi.w     D0, 0xEEC4
0000434A  49F5 0000                lea.l      A4, [A5 + D0.w]
0000434E  206D B7B2                movea.l    A0, [A5 - 0x484E]
00004352  2068 0002                movea.l    A0, [A0 + 0x2]
00004356  2F10                     move.l     -[A7], [A0]
00004358  206D B7B6                movea.l    A0, [A5 - 0x484A]
0000435C  2068 0002                movea.l    A0, [A0 + 0x2]
00004360  2F10                     move.l     -[A7], [A0]
00004362  486C 0010                pea.l      [A4 + 0x10]
00004366  486C 0010                pea.l      [A4 + 0x10]
0000436A  4267                     clr.w      -[A7]
0000436C  2F2D B590                move.l     -[A7], [A5 - 0x4A70]
00004370  A8EC                     syscall    CopyBits
00004372  5247                     addq.w     D7, 1
00004374  6906                     bvs        +0x8 /* 0000437C */
label00004376:
00004376  BE6E FFDA                cmp.w      D7, [A6 - 0x26]
0000437A  6FC4                     ble        -0x3A /* 00004340 */
label0000437C:
0000437C  4A6D F882                tst.w      [A5 - 0x77E]
00004380  6F46                     ble        +0x48 /* 000043C8 */
00004382  3D6D F882 FFDA           move.w     [A6 - 0x26], [A5 - 0x77E]
00004388  7E01                     moveq.l    D7, 0x01
0000438A  6036                     bra        +0x38 /* 000043C2 */
label0000438C:
0000438C  3007                     move.w     D0, D7
0000438E  C1FC 002A                muls.w     D0, 0x2A /* '*' */
00004392  0640 F314                addi.w     D0, 0xF314
00004396  49F5 0000                lea.l      A4, [A5 + D0.w]
0000439A  206D B7B2                movea.l    A0, [A5 - 0x484E]
0000439E  2068 0002                movea.l    A0, [A0 + 0x2]
000043A2  2F10                     move.l     -[A7], [A0]
000043A4  206D B7B6                movea.l    A0, [A5 - 0x484A]
000043A8  2068 0002                movea.l    A0, [A0 + 0x2]
000043AC  2F10                     move.l     -[A7], [A0]
000043AE  486C 0010                pea.l      [A4 + 0x10]
000043B2  486C 0010                pea.l      [A4 + 0x10]
000043B6  4267                     clr.w      -[A7]
000043B8  2F2D B590                move.l     -[A7], [A5 - 0x4A70]
000043BC  A8EC                     syscall    CopyBits
000043BE  5247                     addq.w     D7, 1
000043C0  6906                     bvs        +0x8 /* 000043C8 */
label000043C2:
000043C2  BE6E FFDA                cmp.w      D7, [A6 - 0x26]
000043C6  6FC4                     ble        -0x3A /* 0000438C */
label000043C8:
000043C8  4A2D FE71                tst.b      [A5 - 0x18F]
000043CC  6724                     beq        +0x26 /* 000043F2 */
000043CE  206D B7B2                movea.l    A0, [A5 - 0x484E]
000043D2  2068 0002                movea.l    A0, [A0 + 0x2]
000043D6  2F10                     move.l     -[A7], [A0]
000043D8  206D B7B6                movea.l    A0, [A5 - 0x484A]
000043DC  2068 0002                movea.l    A0, [A0 + 0x2]
000043E0  2F10                     move.l     -[A7], [A0]
000043E2  486D F7FA                pea.l      [A5 - 0x806]
000043E6  486D F7FA                pea.l      [A5 - 0x806]
000043EA  4267                     clr.w      -[A7]
000043EC  2F2D B590                move.l     -[A7], [A5 - 0x4A70]
000043F0  A8EC                     syscall    CopyBits
label000043F2:
000043F2  4A2D FE6D                tst.b      [A5 - 0x193]
000043F6  6700 0090                beq        +0x92 /* 00004488 */
000043FA  41ED F5FE                lea.l      A0, [A5 - 0xA02]
000043FE  43EE FFDC                lea.l      A1, [A6 - 0x24]
00004402  22D8                     move.l     [A1]+, [A0]+
00004404  22D8                     move.l     [A1]+, [A0]+
00004406  302E FFDE                move.w     D0, [A6 - 0x22]
0000440A  0640 FFE0                addi.w     D0, 0xFFE0
0000440E  3D40 FFDE                move.w     [A6 - 0x22], D0
00004412  302E FFE2                move.w     D0, [A6 - 0x1E]
00004416  0640 FFE0                addi.w     D0, 0xFFE0
0000441A  3D40 FFE2                move.w     [A6 - 0x1E], D0
0000441E  302E FFDC                move.w     D0, [A6 - 0x24]
00004422  0640 FFE0                addi.w     D0, 0xFFE0
00004426  3D40 FFDC                move.w     [A6 - 0x24], D0
0000442A  302E FFE0                move.w     D0, [A6 - 0x20]
0000442E  0640 FFE0                addi.w     D0, 0xFFE0
00004432  3D40 FFE0                move.w     [A6 - 0x20], D0
00004436  2F2D B7B6                move.l     -[A7], [A5 - 0x484A]
0000443A  A873                     syscall    SetPort
0000443C  2F2D F9A6                move.l     -[A7], [A5 - 0x65A]
00004440  A879                     syscall    SetClip
00004442  206D B7BA                movea.l    A0, [A5 - 0x4846]
00004446  2068 0002                movea.l    A0, [A0 + 0x2]
0000444A  2F10                     move.l     -[A7], [A0]
0000444C  486D B594                pea.l      [A5 - 0x4A6C]
00004450  206D B7B6                movea.l    A0, [A5 - 0x484A]
00004454  2068 0002                movea.l    A0, [A0 + 0x2]
00004458  2F10                     move.l     -[A7], [A0]
0000445A  302D F63E                move.w     D0, [A5 - 0x9C2]
0000445E  E740                     asl        D0.w, 3
00004460  0640 F672                addi.w     D0, 0xF672
00004464  4875 0000                pea.l      [A5 + D0.w]
00004468  302D F63E                move.w     D0, [A5 - 0x9C2]
0000446C  E740                     asl        D0.w, 3
0000446E  0640 F672                addi.w     D0, 0xF672
00004472  4875 0000                pea.l      [A5 + D0.w]
00004476  486E FFDC                pea.l      [A6 - 0x24]
0000447A  A817                     syscall    CopyMask
0000447C  486D B568                pea.l      [A5 - 0x4A98]
00004480  A87B                     syscall    ClipRect
00004482  2F2D B7B2                move.l     -[A7], [A5 - 0x484E]
00004486  A873                     syscall    SetPort
label00004488:
00004488  4A6D F882                tst.w      [A5 - 0x77E]
0000448C  6F00 025A                ble        +0x25C /* 000046E8 */
00004490  3D6D F882 FFDA           move.w     [A6 - 0x26], [A5 - 0x77E]
00004496  7E01                     moveq.l    D7, 0x01
00004498  6000 0246                bra        +0x248 /* 000046E0 */
label0000449C:
0000449C  3007                     move.w     D0, D7
0000449E  C1FC 002A                muls.w     D0, 0x2A /* '*' */
000044A2  0640 F314                addi.w     D0, 0xF314
000044A6  49F5 0000                lea.l      A4, [A5 + D0.w]
000044AA  302C 001A                move.w     D0, [A4 + 0x1A]
000044AE  6000 01F4                bra        +0x1F6 /* 000046A4 */
label000044B2:
000044B2  206D B7BA                movea.l    A0, [A5 - 0x4846]
000044B6  2068 0002                movea.l    A0, [A0 + 0x2]
000044BA  2F10                     move.l     -[A7], [A0]
000044BC  486D B594                pea.l      [A5 - 0x4A6C]
000044C0  206D B7B6                movea.l    A0, [A5 - 0x484A]
000044C4  2068 0002                movea.l    A0, [A0 + 0x2]
000044C8  2F10                     move.l     -[A7], [A0]
000044CA  302C 0024                move.w     D0, [A4 + 0x24]
000044CE  E740                     asl        D0.w, 3
000044D0  0640 FA5A                addi.w     D0, 0xFA5A
000044D4  4875 0000                pea.l      [A5 + D0.w]
000044D8  302C 0024                move.w     D0, [A4 + 0x24]
000044DC  E740                     asl        D0.w, 3
000044DE  0640 FA5A                addi.w     D0, 0xFA5A
000044E2  4875 0000                pea.l      [A5 + D0.w]
000044E6  486C 0008                pea.l      [A4 + 0x8]
000044EA  A817                     syscall    CopyMask
000044EC  6000 01E2                bra        +0x1E4 /* 000046D0 */
label000044F0:
000044F0  206D B7BA                movea.l    A0, [A5 - 0x4846]
000044F4  2068 0002                movea.l    A0, [A0 + 0x2]
000044F8  2F10                     move.l     -[A7], [A0]
000044FA  486D B594                pea.l      [A5 - 0x4A6C]
000044FE  206D B7B6                movea.l    A0, [A5 - 0x484A]
00004502  2068 0002                movea.l    A0, [A0 + 0x2]
00004506  2F10                     move.l     -[A7], [A0]
00004508  302C 0026                move.w     D0, [A4 + 0x26]
0000450C  E740                     asl        D0.w, 3
0000450E  0640 FA5A                addi.w     D0, 0xFA5A
00004512  4875 0000                pea.l      [A5 + D0.w]
00004516  302C 0026                move.w     D0, [A4 + 0x26]
0000451A  E740                     asl        D0.w, 3
0000451C  0640 FA5A                addi.w     D0, 0xFA5A
00004520  4875 0000                pea.l      [A5 + D0.w]
00004524  486C 0008                pea.l      [A4 + 0x8]
00004528  A817                     syscall    CopyMask
0000452A  6000 01A4                bra        +0x1A6 /* 000046D0 */
label0000452E:
0000452E  206D B7BA                movea.l    A0, [A5 - 0x4846]
00004532  2068 0002                movea.l    A0, [A0 + 0x2]
00004536  2F10                     move.l     -[A7], [A0]
00004538  486D B594                pea.l      [A5 - 0x4A6C]
0000453C  206D B7B6                movea.l    A0, [A5 - 0x484A]
00004540  2068 0002                movea.l    A0, [A0 + 0x2]
00004544  2F10                     move.l     -[A7], [A0]
00004546  302C 001A                move.w     D0, [A4 + 0x1A]
0000454A  E740                     asl        D0.w, 3
0000454C  0640 FA5A                addi.w     D0, 0xFA5A
00004550  4875 0000                pea.l      [A5 + D0.w]
00004554  302C 001A                move.w     D0, [A4 + 0x1A]
00004558  E740                     asl        D0.w, 3
0000455A  0640 FA5A                addi.w     D0, 0xFA5A
0000455E  4875 0000                pea.l      [A5 + D0.w]
00004562  302C 0018                move.w     D0, [A4 + 0x18]
00004566  E740                     asl        D0.w, 3
00004568  0640 FC8A                addi.w     D0, 0xFC8A
0000456C  4875 0000                pea.l      [A5 + D0.w]
00004570  A817                     syscall    CopyMask
00004572  6000 015C                bra        +0x15E /* 000046D0 */
label00004576:
00004576  206D B7BA                movea.l    A0, [A5 - 0x4846]
0000457A  2068 0002                movea.l    A0, [A0 + 0x2]
0000457E  2F10                     move.l     -[A7], [A0]
00004580  486D B594                pea.l      [A5 - 0x4A6C]
00004584  206D B7B6                movea.l    A0, [A5 - 0x484A]
00004588  2068 0002                movea.l    A0, [A0 + 0x2]
0000458C  2F10                     move.l     -[A7], [A0]
0000458E  302C 001C                move.w     D0, [A4 + 0x1C]
00004592  E740                     asl        D0.w, 3
00004594  0640 FA5A                addi.w     D0, 0xFA5A
00004598  4875 0000                pea.l      [A5 + D0.w]
0000459C  302C 001C                move.w     D0, [A4 + 0x1C]
000045A0  E740                     asl        D0.w, 3
000045A2  0640 FA5A                addi.w     D0, 0xFA5A
000045A6  4875 0000                pea.l      [A5 + D0.w]
000045AA  302C 0018                move.w     D0, [A4 + 0x18]
000045AE  E740                     asl        D0.w, 3
000045B0  0640 FC8A                addi.w     D0, 0xFC8A
000045B4  4875 0000                pea.l      [A5 + D0.w]
000045B8  A817                     syscall    CopyMask
000045BA  6000 0114                bra        +0x116 /* 000046D0 */
label000045BE:
000045BE  4A6C 001C                tst.w      [A4 + 0x1C]
000045C2  6700 010C                beq        +0x10E /* 000046D0 */
000045C6  2F2D B7B6                move.l     -[A7], [A5 - 0x484A]
000045CA  A873                     syscall    SetPort
000045CC  2F2D F9AE                move.l     -[A7], [A5 - 0x652]
000045D0  A879                     syscall    SetClip
000045D2  206D B7BA                movea.l    A0, [A5 - 0x4846]
000045D6  2068 0002                movea.l    A0, [A0 + 0x2]
000045DA  2F10                     move.l     -[A7], [A0]
000045DC  486D B594                pea.l      [A5 - 0x4A6C]
000045E0  206D B7B6                movea.l    A0, [A5 - 0x484A]
000045E4  2068 0002                movea.l    A0, [A0 + 0x2]
000045E8  2F10                     move.l     -[A7], [A0]
000045EA  302C 001C                move.w     D0, [A4 + 0x1C]
000045EE  E740                     asl        D0.w, 3
000045F0  0640 FA5A                addi.w     D0, 0xFA5A
000045F4  4875 0000                pea.l      [A5 + D0.w]
000045F8  302C 001C                move.w     D0, [A4 + 0x1C]
000045FC  E740                     asl        D0.w, 3
000045FE  0640 FA5A                addi.w     D0, 0xFA5A
00004602  4875 0000                pea.l      [A5 + D0.w]
00004606  302C 0018                move.w     D0, [A4 + 0x18]
0000460A  E740                     asl        D0.w, 3
0000460C  0640 FC8A                addi.w     D0, 0xFC8A
00004610  4875 0000                pea.l      [A5 + D0.w]
00004614  A817                     syscall    CopyMask
00004616  486D B568                pea.l      [A5 - 0x4A98]
0000461A  A87B                     syscall    ClipRect
0000461C  2F2D B7B2                move.l     -[A7], [A5 - 0x484E]
00004620  A873                     syscall    SetPort
00004622  6000 00AC                bra        +0xAE /* 000046D0 */
label00004626:
00004626  4A6C 001C                tst.w      [A4 + 0x1C]
0000462A  6746                     beq        +0x48 /* 00004672 */
0000462C  206D B7BA                movea.l    A0, [A5 - 0x4846]
00004630  2068 0002                movea.l    A0, [A0 + 0x2]
00004634  2F10                     move.l     -[A7], [A0]
00004636  486D B594                pea.l      [A5 - 0x4A6C]
0000463A  206D B7B6                movea.l    A0, [A5 - 0x484A]
0000463E  2068 0002                movea.l    A0, [A0 + 0x2]
00004642  2F10                     move.l     -[A7], [A0]
00004644  302C 001C                move.w     D0, [A4 + 0x1C]
00004648  E740                     asl        D0.w, 3
0000464A  0640 FA5A                addi.w     D0, 0xFA5A
0000464E  4875 0000                pea.l      [A5 + D0.w]
00004652  302C 001C                move.w     D0, [A4 + 0x1C]
00004656  E740                     asl        D0.w, 3
00004658  0640 FA5A                addi.w     D0, 0xFA5A
0000465C  4875 0000                pea.l      [A5 + D0.w]
00004660  302C 0018                move.w     D0, [A4 + 0x18]
00004664  E740                     asl        D0.w, 3
00004666  0640 FC8A                addi.w     D0, 0xFC8A
0000466A  4875 0000                pea.l      [A5 + D0.w]
0000466E  A817                     syscall    CopyMask
00004670  605E                     bra        +0x60 /* 000046D0 */
label00004672:
00004672  206D B7BA                movea.l    A0, [A5 - 0x4846]
00004676  2068 0002                movea.l    A0, [A0 + 0x2]
0000467A  2F10                     move.l     -[A7], [A0]
0000467C  486D B594                pea.l      [A5 - 0x4A6C]
00004680  206D B7B6                movea.l    A0, [A5 - 0x484A]
00004684  2068 0002                movea.l    A0, [A0 + 0x2]
00004688  2F10                     move.l     -[A7], [A0]
0000468A  486D FC82                pea.l      [A5 - 0x37E]
0000468E  486D FC82                pea.l      [A5 - 0x37E]
00004692  302C 0018                move.w     D0, [A4 + 0x18]
00004696  E740                     asl        D0.w, 3
00004698  0640 FC8A                addi.w     D0, 0xFC8A
0000469C  4875 0000                pea.l      [A5 + D0.w]
000046A0  A817                     syscall    CopyMask
000046A2  602C                     bra        +0x2E /* 000046D0 */
label000046A4:
000046A4  0640 FFF5                addi.w     D0, 0xFFF5
000046A8  6700 FE08                beq        -0x1F6 /* 000044B2 */
000046AC  5F40                     subq.w     D0, 7
000046AE  6700 FE40                beq        -0x1BE /* 000044F0 */
000046B2  5F40                     subq.w     D0, 7
000046B4  6700 FE3A                beq        -0x1C4 /* 000044F0 */
000046B8  5F40                     subq.w     D0, 7
000046BA  6700 FEBA                beq        -0x144 /* 00004576 */
000046BE  5340                     subq.w     D0, 1
000046C0  6700 FEFC                beq        -0x102 /* 000045BE */
000046C4  5340                     subq.w     D0, 1
000046C6  6700 FE66                beq        -0x198 /* 0000452E */
000046CA  5340                     subq.w     D0, 1
000046CC  6700 FF58                beq        -0xA6 /* 00004626 */
label000046D0:
000046D0  41EC 0008                lea.l      A0, [A4 + 0x8]
000046D4  43EC 0010                lea.l      A1, [A4 + 0x10]
000046D8  22D8                     move.l     [A1]+, [A0]+
000046DA  22D8                     move.l     [A1]+, [A0]+
000046DC  5247                     addq.w     D7, 1
000046DE  6908                     bvs        +0xA /* 000046E8 */
label000046E0:
000046E0  BE6E FFDA                cmp.w      D7, [A6 - 0x26]
000046E4  6F00 FDB6                ble        -0x248 /* 0000449C */
label000046E8:
000046E8  4A2D F648                tst.b      [A5 - 0x9B8]
000046EC  6728                     beq        +0x2A /* 00004716 */
000046EE  206D B7BA                movea.l    A0, [A5 - 0x4846]
000046F2  2068 0002                movea.l    A0, [A0 + 0x2]
000046F6  2F10                     move.l     -[A7], [A0]
000046F8  486D B594                pea.l      [A5 - 0x4A6C]
000046FC  206D B7B6                movea.l    A0, [A5 - 0x484A]
00004700  2068 0002                movea.l    A0, [A0 + 0x2]
00004704  2F10                     move.l     -[A7], [A0]
00004706  486D F752                pea.l      [A5 - 0x8AE]
0000470A  486D F752                pea.l      [A5 - 0x8AE]
0000470E  486D F616                pea.l      [A5 - 0x9EA]
00004712  A817                     syscall    CopyMask
00004714  6026                     bra        +0x28 /* 0000473C */
label00004716:
00004716  206D B7BA                movea.l    A0, [A5 - 0x4846]
0000471A  2068 0002                movea.l    A0, [A0 + 0x2]
0000471E  2F10                     move.l     -[A7], [A0]
00004720  486D B594                pea.l      [A5 - 0x4A6C]
00004724  206D B7B6                movea.l    A0, [A5 - 0x484A]
00004728  2068 0002                movea.l    A0, [A0 + 0x2]
0000472C  2F10                     move.l     -[A7], [A0]
0000472E  486D F75A                pea.l      [A5 - 0x8A6]
00004732  486D F75A                pea.l      [A5 - 0x8A6]
00004736  486D F616                pea.l      [A5 - 0x9EA]
0000473A  A817                     syscall    CopyMask
label0000473C:
0000473C  4A2D FE83                tst.b      [A5 - 0x17D]
00004740  673E                     beq        +0x40 /* 00004780 */
00004742  206D B7BA                movea.l    A0, [A5 - 0x4846]
00004746  2068 0002                movea.l    A0, [A0 + 0x2]
0000474A  2F10                     move.l     -[A7], [A0]
0000474C  486D B594                pea.l      [A5 - 0x4A6C]
00004750  206D B7B6                movea.l    A0, [A5 - 0x484A]
00004754  2068 0002                movea.l    A0, [A0 + 0x2]
00004758  2F10                     move.l     -[A7], [A0]
0000475A  302D F63E                move.w     D0, [A5 - 0x9C2]
0000475E  E740                     asl        D0.w, 3
00004760  0640 F672                addi.w     D0, 0xF672
00004764  4875 0000                pea.l      [A5 + D0.w]
00004768  302D F63E                move.w     D0, [A5 - 0x9C2]
0000476C  E740                     asl        D0.w, 3
0000476E  0640 F672                addi.w     D0, 0xF672
00004772  4875 0000                pea.l      [A5 + D0.w]
00004776  486D F5FE                pea.l      [A5 - 0xA02]
0000477A  A817                     syscall    CopyMask
0000477C  6000 0162                bra        +0x164 /* 000048E0 */
label00004780:
00004780  302D F63A                move.w     D0, [A5 - 0x9C6]
00004784  6000 0138                bra        +0x13A /* 000048BE */
00004788  3C2D F63A                move.w     D6, [A5 - 0x9C6]
0000478C  CDFC 0022                muls.w     D6, 0x22 /* '\"' */
00004790  302D F63C                move.w     D0, [A5 - 0x9C4]
00004794  D040                     add.w      D0, D0
00004796  D046                     add.w      D0, D6
00004798  0640 F740                addi.w     D0, 0xF740
0000479C  3C35 0000                move.w     D6, [A5 + D0.w]
000047A0  102D F648                move.b     D0, [A5 - 0x9B8]
000047A4  5300                     subq.b     D0, 1
000047A6  6702                     beq        +0x4 /* 000047AA */
000047A8  5E46                     addq.w     D6, 7
label000047AA:
000047AA  206D B7BA                movea.l    A0, [A5 - 0x4846]
000047AE  2068 0002                movea.l    A0, [A0 + 0x2]
000047B2  2F10                     move.l     -[A7], [A0]
000047B4  486D B594                pea.l      [A5 - 0x4A6C]
000047B8  206D B7B6                movea.l    A0, [A5 - 0x484A]
000047BC  2068 0002                movea.l    A0, [A0 + 0x2]
000047C0  2F10                     move.l     -[A7], [A0]
000047C2  302D F63E                move.w     D0, [A5 - 0x9C2]
000047C6  E740                     asl        D0.w, 3
000047C8  0640 F672                addi.w     D0, 0xF672
000047CC  4875 0000                pea.l      [A5 + D0.w]
000047D0  3006                     move.w     D0, D6
000047D2  E740                     asl        D0.w, 3
000047D4  0640 F672                addi.w     D0, 0xF672
000047D8  4875 0000                pea.l      [A5 + D0.w]
000047DC  486D F5FE                pea.l      [A5 - 0xA02]
000047E0  A817                     syscall    CopyMask
000047E2  6000 00FC                bra        +0xFE /* 000048E0 */
000047E6  3C2D F63A                move.w     D6, [A5 - 0x9C6]
000047EA  CDFC 0022                muls.w     D6, 0x22 /* '\"' */
000047EE  302D F63C                move.w     D0, [A5 - 0x9C4]
000047F2  D040                     add.w      D0, D0
000047F4  D046                     add.w      D0, D6
000047F6  0640 F740                addi.w     D0, 0xF740
000047FA  3C35 0000                move.w     D6, [A5 + D0.w]
000047FE  206D B7BA                movea.l    A0, [A5 - 0x4846]
00004802  2068 0002                movea.l    A0, [A0 + 0x2]
00004806  2F10                     move.l     -[A7], [A0]
00004808  486D B594                pea.l      [A5 - 0x4A6C]
0000480C  206D B7B6                movea.l    A0, [A5 - 0x484A]
00004810  2068 0002                movea.l    A0, [A0 + 0x2]
00004814  2F10                     move.l     -[A7], [A0]
00004816  3006                     move.w     D0, D6
00004818  E740                     asl        D0.w, 3
0000481A  0640 F672                addi.w     D0, 0xF672
0000481E  4875 0000                pea.l      [A5 + D0.w]
00004822  3006                     move.w     D0, D6
00004824  E740                     asl        D0.w, 3
00004826  0640 F672                addi.w     D0, 0xF672
0000482A  4875 0000                pea.l      [A5 + D0.w]
0000482E  486D F5FE                pea.l      [A5 - 0xA02]
00004832  A817                     syscall    CopyMask
00004834  6000 00AA                bra        +0xAC /* 000048E0 */
00004838  206D B7BA                movea.l    A0, [A5 - 0x4846]
0000483C  2068 0002                movea.l    A0, [A0 + 0x2]
00004840  2F10                     move.l     -[A7], [A0]
00004842  486D B594                pea.l      [A5 - 0x4A6C]
00004846  206D B7B6                movea.l    A0, [A5 - 0x484A]
0000484A  2068 0002                movea.l    A0, [A0 + 0x2]
0000484E  2F10                     move.l     -[A7], [A0]
00004850  302D F63E                move.w     D0, [A5 - 0x9C2]
00004854  E740                     asl        D0.w, 3
00004856  0640 F672                addi.w     D0, 0xF672
0000485A  4875 0000                pea.l      [A5 + D0.w]
0000485E  302D F63E                move.w     D0, [A5 - 0x9C2]
00004862  E740                     asl        D0.w, 3
00004864  0640 F672                addi.w     D0, 0xF672
00004868  4875 0000                pea.l      [A5 + D0.w]
0000486C  486D F5FE                pea.l      [A5 - 0xA02]
00004870  A817                     syscall    CopyMask
00004872  606C                     bra        +0x6E /* 000048E0 */
00004874  486E FFE4                pea.l      [A6 - 0x1C]
00004878  3F3C 0100                move.w     -[A7], 0x100
0000487C  302D F602                move.w     D0, [A5 - 0x9FE]
00004880  906D F5FE                sub.w      D0, [A5 - 0xA02]
00004884  323C 00D0                move.w     D1, 0xD0
00004888  9240                     sub.w      D1, D0
0000488A  3F01                     move.w     -[A7], D1
0000488C  3F3C 0130                move.w     -[A7], 0x130
00004890  3F3C 00D0                move.w     -[A7], 0xD0
00004894  A8A7                     syscall    SetRect
00004896  206D B7BA                movea.l    A0, [A5 - 0x4846]
0000489A  2068 0002                movea.l    A0, [A0 + 0x2]
0000489E  2F10                     move.l     -[A7], [A0]
000048A0  486D B594                pea.l      [A5 - 0x4A6C]
000048A4  206D B7B6                movea.l    A0, [A5 - 0x484A]
000048A8  2068 0002                movea.l    A0, [A0 + 0x2]
000048AC  2F10                     move.l     -[A7], [A0]
000048AE  486E FFE4                pea.l      [A6 - 0x1C]
000048B2  486E FFE4                pea.l      [A6 - 0x1C]
000048B6  486D F5FE                pea.l      [A5 - 0xA02]
000048BA  A817                     syscall    CopyMask
000048BC  6022                     bra        +0x24 /* 000048E0 */
label000048BE:
000048BE  5340                     subq.w     D0, 1
000048C0  0C40 0008                cmpi.w     D0, 0x8
000048C4  641A                     bcc        +0x1C /* 000048E0 */
000048C6  D040                     add.w      D0, D0
000048C8  303B 0006                move.w     D0, [PC + D0.w + 0x6]
000048CC  4EFB 0002                jmp        [PC + D0.w + 0x2]
000048D0  FEB8 FEB8                .extension 0xEB8 <<F/2-3/7>> // unimplemented
000048D4  FF16                     .extension 0xF16 <<F/4-5/7>> // unimplemented
000048D6  FF16                     .extension 0xF16 <<F/4-5/7>> // unimplemented
000048D8  FF68                     .extension 0xF68 <<F/4-5/7>> // unimplemented
000048DA  FF68                     .extension 0xF68 <<F/4-5/7>> // unimplemented
000048DC  FF68                     .extension 0xF68 <<F/4-5/7>> // unimplemented
000048DE  FFA4                     .invalid   <<F/6/7>>
label000048E0:
000048E0  4A6D F880                tst.w      [A5 - 0x780]
000048E4  6F00 007C                ble        +0x7E /* 00004962 */
000048E8  3D6D F880 FFDA           move.w     [A6 - 0x26], [A5 - 0x780]
000048EE  7E01                     moveq.l    D7, 0x01
000048F0  606A                     bra        +0x6C /* 0000495C */
label000048F2:
000048F2  3007                     move.w     D0, D7
000048F4  C1FC 002A                muls.w     D0, 0x2A /* '*' */
000048F8  0640 EEC4                addi.w     D0, 0xEEC4
000048FC  49F5 0000                lea.l      A4, [A5 + D0.w]
00004900  206D B7BA                movea.l    A0, [A5 - 0x4846]
00004904  2068 0002                movea.l    A0, [A0 + 0x2]
00004908  2F10                     move.l     -[A7], [A0]
0000490A  486D B594                pea.l      [A5 - 0x4A6C]
0000490E  206D B7B6                movea.l    A0, [A5 - 0x484A]
00004912  2068 0002                movea.l    A0, [A0 + 0x2]
00004916  2F10                     move.l     -[A7], [A0]
00004918  302C 001C                move.w     D0, [A4 + 0x1C]
0000491C  C1FC 0090                muls.w     D0, 0x90
00004920  322C 001E                move.w     D1, [A4 + 0x1E]
00004924  E741                     asl        D1.w, 3
00004926  D041                     add.w      D0, D1
00004928  0640 F196                addi.w     D0, 0xF196
0000492C  4875 0000                pea.l      [A5 + D0.w]
00004930  302C 001C                move.w     D0, [A4 + 0x1C]
00004934  C1FC 0090                muls.w     D0, 0x90
00004938  322C 001E                move.w     D1, [A4 + 0x1E]
0000493C  E741                     asl        D1.w, 3
0000493E  D041                     add.w      D0, D1
00004940  0640 F196                addi.w     D0, 0xF196
00004944  4875 0000                pea.l      [A5 + D0.w]
00004948  2F0C                     move.l     -[A7], A4
0000494A  A817                     syscall    CopyMask
0000494C  41EC 0008                lea.l      A0, [A4 + 0x8]
00004950  43EC 0010                lea.l      A1, [A4 + 0x10]
00004954  22D8                     move.l     [A1]+, [A0]+
00004956  22D8                     move.l     [A1]+, [A0]+
00004958  5247                     addq.w     D7, 1
0000495A  6906                     bvs        +0x8 /* 00004962 */
label0000495C:
0000495C  BE6E FFDA                cmp.w      D7, [A6 - 0x26]
00004960  6F90                     ble        -0x6E /* 000048F2 */
label00004962:
00004962  4A2D FE71                tst.b      [A5 - 0x18F]
00004966  6746                     beq        +0x48 /* 000049AE */
00004968  206D B7BA                movea.l    A0, [A5 - 0x4846]
0000496C  2068 0002                movea.l    A0, [A0 + 0x2]
00004970  2F10                     move.l     -[A7], [A0]
00004972  486D B594                pea.l      [A5 - 0x4A6C]
00004976  206D B7B6                movea.l    A0, [A5 - 0x484A]
0000497A  2068 0002                movea.l    A0, [A0 + 0x2]
0000497E  2F10                     move.l     -[A7], [A0]
00004980  302D F802                move.w     D0, [A5 - 0x7FE]
00004984  E740                     asl        D0.w, 3
00004986  0640 F806                addi.w     D0, 0xF806
0000498A  4875 0000                pea.l      [A5 + D0.w]
0000498E  302D F802                move.w     D0, [A5 - 0x7FE]
00004992  E740                     asl        D0.w, 3
00004994  0640 F806                addi.w     D0, 0xF806
00004998  4875 0000                pea.l      [A5 + D0.w]
0000499C  486D F7EA                pea.l      [A5 - 0x816]
000049A0  A817                     syscall    CopyMask
000049A2  41ED F7EA                lea.l      A0, [A5 - 0x816]
000049A6  43ED F7FA                lea.l      A1, [A5 - 0x806]
000049AA  22D8                     move.l     [A1]+, [A0]+
000049AC  22D8                     move.l     [A1]+, [A0]+
label000049AE:
000049AE  4A2D F5FC                tst.b      [A5 - 0xA04]
000049B2  6700 00D2                beq        +0xD4 /* 00004A86 */
000049B6  594F                     subq.w     A7, 4
000049B8  A975                     syscall    TickCount
000049BA  201F                     move.l     D0, [A7]+
000049BC  B0AD F5E6                cmp.l      D0, [A5 - 0xA1A]
000049C0  6F2A                     ble        +0x2C /* 000049EC */
000049C2  422D F5FC                clr.b      [A5 - 0xA04]
000049C6  206D B7B2                movea.l    A0, [A5 - 0x484E]
000049CA  2068 0002                movea.l    A0, [A0 + 0x2]
000049CE  2F10                     move.l     -[A7], [A0]
000049D0  206D B560                movea.l    A0, [A5 - 0x4AA0]
000049D4  4868 0002                pea.l      [A0 + 0x2]
000049D8  486D F5DE                pea.l      [A5 - 0xA22]
000049DC  486D F5DE                pea.l      [A5 - 0xA22]
000049E0  4267                     clr.w      -[A7]
000049E2  2F2D B590                move.l     -[A7], [A5 - 0x4A70]
000049E6  A8EC                     syscall    CopyBits
000049E8  6000 009C                bra        +0x9E /* 00004A86 */
label000049EC:
000049EC  206D B7B2                movea.l    A0, [A5 - 0x484E]
000049F0  2068 0002                movea.l    A0, [A0 + 0x2]
000049F4  2F10                     move.l     -[A7], [A0]
000049F6  206D B560                movea.l    A0, [A5 - 0x4AA0]
000049FA  4868 0002                pea.l      [A0 + 0x2]
000049FE  486D F5DE                pea.l      [A5 - 0xA22]
00004A02  486D F5DE                pea.l      [A5 - 0xA22]
00004A06  4267                     clr.w      -[A7]
00004A08  2F2D B590                move.l     -[A7], [A5 - 0x4A70]
00004A0C  A8EC                     syscall    CopyBits
00004A0E  2F2D B560                move.l     -[A7], [A5 - 0x4AA0]
00004A12  A873                     syscall    SetPort
00004A14  A89E                     syscall    PenNormal
00004A16  302D F5E4                move.w     D0, [A5 - 0xA1C]
00004A1A  5440                     addq.w     D0, 2
00004A1C  3B40 F5E4                move.w     [A5 - 0xA1C], D0
00004A20  302D F5E0                move.w     D0, [A5 - 0xA20]
00004A24  5440                     addq.w     D0, 2
00004A26  3B40 F5E0                move.w     [A5 - 0xA20], D0
00004A2A  302D F5DE                move.w     D0, [A5 - 0xA22]
00004A2E  5340                     subq.w     D0, 1
00004A30  3B40 F5DE                move.w     [A5 - 0xA22], D0
00004A34  302D F5E2                move.w     D0, [A5 - 0xA1E]
00004A38  5340                     subq.w     D0, 1
00004A3A  3B40 F5E2                move.w     [A5 - 0xA1E], D0
00004A3E  3F3C 0010                move.w     -[A7], 0x10
00004A42  A887                     syscall    TextFont
00004A44  3F3C 000C                move.w     -[A7], 0xC
00004A48  A88A                     syscall    TextSize
00004A4A  3F2D F5E0                move.w     -[A7], [A5 - 0xA20]
00004A4E  302D F5E2                move.w     D0, [A5 - 0xA1E]
00004A52  5540                     subq.w     D0, 2
00004A54  3F00                     move.w     -[A7], D0
00004A56  A893                     syscall    MoveTo
00004A58  4A6D F86E                tst.w      [A5 - 0x792]
00004A5C  6608                     bne        +0xA /* 00004A66 */
00004A5E  486D B7EA                pea.l      [A5 - 0x4816]
00004A62  AA14                     syscall    RGBForeColor
00004A64  6006                     bra        +0x8 /* 00004A6C */
label00004A66:
00004A66  486D B7E4                pea.l      [A5 - 0x481C]
00004A6A  AA14                     syscall    RGBForeColor
label00004A6C:
00004A6C  3F3C 0001                move.w     -[A7], 0x1
00004A70  A89C                     syscall    PenMode
00004A72  486D F5EA                pea.l      [A5 - 0xA16]
00004A76  A884                     syscall    DrawString
00004A78  A89E                     syscall    PenNormal
00004A7A  486D B7D2                pea.l      [A5 - 0x482E]
00004A7E  AA14                     syscall    RGBForeColor
00004A80  2F2D B7B2                move.l     -[A7], [A5 - 0x484E]
00004A84  A873                     syscall    SetPort
label00004A86:
00004A86  4A2D FE6D                tst.b      [A5 - 0x193]
00004A8A  6722                     beq        +0x24 /* 00004AAE */
00004A8C  206D B7B6                movea.l    A0, [A5 - 0x484A]
00004A90  2068 0002                movea.l    A0, [A0 + 0x2]
00004A94  2F10                     move.l     -[A7], [A0]
00004A96  206D B560                movea.l    A0, [A5 - 0x4AA0]
00004A9A  4868 0002                pea.l      [A0 + 0x2]
00004A9E  486E FFE4                pea.l      [A6 - 0x1C]
00004AA2  486E FFE4                pea.l      [A6 - 0x1C]
00004AA6  4267                     clr.w      -[A7]
00004AA8  2F2D F9A6                move.l     -[A7], [A5 - 0x65A]
00004AAC  A8EC                     syscall    CopyBits
label00004AAE:
00004AAE  4A6D F882                tst.w      [A5 - 0x77E]
00004AB2  6F00 00F0                ble        +0xF2 /* 00004BA4 */
00004AB6  3D6D F882 FFDA           move.w     [A6 - 0x26], [A5 - 0x77E]
00004ABC  7E01                     moveq.l    D7, 0x01
00004ABE  6000 00DC                bra        +0xDE /* 00004B9C */
label00004AC2:
00004AC2  3007                     move.w     D0, D7
00004AC4  C1FC 002A                muls.w     D0, 0x2A /* '*' */
00004AC8  0640 F314                addi.w     D0, 0xF314
00004ACC  49F5 0000                lea.l      A4, [A5 + D0.w]
00004AD0  0C6C 0012 001A           cmpi.w     [A4 + 0x1A], 0x12
00004AD6  6726                     beq        +0x28 /* 00004AFE */
00004AD8  206D B7B6                movea.l    A0, [A5 - 0x484A]
00004ADC  2068 0002                movea.l    A0, [A0 + 0x2]
00004AE0  2F10                     move.l     -[A7], [A0]
00004AE2  206D B560                movea.l    A0, [A5 - 0x4AA0]
00004AE6  4868 0002                pea.l      [A0 + 0x2]
00004AEA  486C 0008                pea.l      [A4 + 0x8]
00004AEE  486C 0008                pea.l      [A4 + 0x8]
00004AF2  4267                     clr.w      -[A7]
00004AF4  2F2D B590                move.l     -[A7], [A5 - 0x4A70]
00004AF8  A8EC                     syscall    CopyBits
00004AFA  6000 009C                bra        +0x9E /* 00004B98 */
label00004AFE:
00004AFE  206D B7B6                movea.l    A0, [A5 - 0x484A]
00004B02  2068 0002                movea.l    A0, [A0 + 0x2]
00004B06  2F10                     move.l     -[A7], [A0]
00004B08  206D B560                movea.l    A0, [A5 - 0x4AA0]
00004B0C  4868 0002                pea.l      [A0 + 0x2]
00004B10  486C 0008                pea.l      [A4 + 0x8]
00004B14  486C 0008                pea.l      [A4 + 0x8]
00004B18  4267                     clr.w      -[A7]
00004B1A  2F2D B590                move.l     -[A7], [A5 - 0x4A70]
00004B1E  A8EC                     syscall    CopyBits
00004B20  2F2D B560                move.l     -[A7], [A5 - 0x4AA0]
00004B24  A873                     syscall    SetPort
00004B26  A89E                     syscall    PenNormal
00004B28  3F3C 0002                move.w     -[A7], 0x2
00004B2C  3F3C 0002                move.w     -[A7], 0x2
00004B30  A89B                     syscall    PenSize
00004B32  3F2C 000E                move.w     -[A7], [A4 + 0xE]
00004B36  302C 000C                move.w     D0, [A4 + 0xC]
00004B3A  5540                     subq.w     D0, 2
00004B3C  3F00                     move.w     -[A7], D0
00004B3E  A893                     syscall    MoveTo
00004B40  302C 000E                move.w     D0, [A4 + 0xE]
00004B44  5240                     addq.w     D0, 1
00004B46  B06C 0028                cmp.w      D0, [A4 + 0x28]
00004B4A  6C0E                     bge        +0x10 /* 00004B5A */
00004B4C  3F2C 0028                move.w     -[A7], [A4 + 0x28]
00004B50  302C 000C                move.w     D0, [A4 + 0xC]
00004B54  5540                     subq.w     D0, 2
00004B56  3F00                     move.w     -[A7], D0
00004B58  A891                     syscall    LineTo
label00004B5A:
00004B5A  A89E                     syscall    PenNormal
00004B5C  2F2D B7B2                move.l     -[A7], [A5 - 0x484E]
00004B60  A873                     syscall    SetPort
00004B62  A89E                     syscall    PenNormal
00004B64  3F3C 0002                move.w     -[A7], 0x2
00004B68  3F3C 0002                move.w     -[A7], 0x2
00004B6C  A89B                     syscall    PenSize
00004B6E  3F2C 000E                move.w     -[A7], [A4 + 0xE]
00004B72  302C 000C                move.w     D0, [A4 + 0xC]
00004B76  5540                     subq.w     D0, 2
00004B78  3F00                     move.w     -[A7], D0
00004B7A  A893                     syscall    MoveTo
00004B7C  302C 000E                move.w     D0, [A4 + 0xE]
00004B80  5240                     addq.w     D0, 1
00004B82  B06C 0028                cmp.w      D0, [A4 + 0x28]
00004B86  6C0E                     bge        +0x10 /* 00004B96 */
00004B88  3F2C 0028                move.w     -[A7], [A4 + 0x28]
00004B8C  302C 000C                move.w     D0, [A4 + 0xC]
00004B90  5540                     subq.w     D0, 2
00004B92  3F00                     move.w     -[A7], D0
00004B94  A891                     syscall    LineTo
label00004B96:
00004B96  A89E                     syscall    PenNormal
label00004B98:
00004B98  5247                     addq.w     D7, 1
00004B9A  6908                     bvs        +0xA /* 00004BA4 */
label00004B9C:
00004B9C  BE6E FFDA                cmp.w      D7, [A6 - 0x26]
00004BA0  6F00 FF20                ble        -0xDE /* 00004AC2 */
label00004BA4:
00004BA4  206D B7B6                movea.l    A0, [A5 - 0x484A]
00004BA8  2068 0002                movea.l    A0, [A0 + 0x2]
00004BAC  2F10                     move.l     -[A7], [A0]
00004BAE  206D B560                movea.l    A0, [A5 - 0x4AA0]
00004BB2  4868 0002                pea.l      [A0 + 0x2]
00004BB6  486D F60E                pea.l      [A5 - 0x9F2]
00004BBA  486D F60E                pea.l      [A5 - 0x9F2]
00004BBE  4267                     clr.w      -[A7]
00004BC0  2F2D B590                move.l     -[A7], [A5 - 0x4A70]
00004BC4  A8EC                     syscall    CopyBits
00004BC6  206D B7B6                movea.l    A0, [A5 - 0x484A]
00004BCA  2068 0002                movea.l    A0, [A0 + 0x2]
00004BCE  2F10                     move.l     -[A7], [A0]
00004BD0  206D B560                movea.l    A0, [A5 - 0x4AA0]
00004BD4  4868 0002                pea.l      [A0 + 0x2]
00004BD8  486D F626                pea.l      [A5 - 0x9DA]
00004BDC  486D F626                pea.l      [A5 - 0x9DA]
00004BE0  4267                     clr.w      -[A7]
00004BE2  2F2D B590                move.l     -[A7], [A5 - 0x4A70]
00004BE6  A8EC                     syscall    CopyBits
00004BE8  4A6D F880                tst.w      [A5 - 0x780]
00004BEC  6F44                     ble        +0x46 /* 00004C32 */
00004BEE  3D6D F880 FFDA           move.w     [A6 - 0x26], [A5 - 0x780]
00004BF4  7E01                     moveq.l    D7, 0x01
00004BF6  6034                     bra        +0x36 /* 00004C2C */
label00004BF8:
00004BF8  3007                     move.w     D0, D7
00004BFA  C1FC 002A                muls.w     D0, 0x2A /* '*' */
00004BFE  0640 EEC4                addi.w     D0, 0xEEC4
00004C02  49F5 0000                lea.l      A4, [A5 + D0.w]
00004C06  206D B7B6                movea.l    A0, [A5 - 0x484A]
00004C0A  2068 0002                movea.l    A0, [A0 + 0x2]
00004C0E  2F10                     move.l     -[A7], [A0]
00004C10  206D B560                movea.l    A0, [A5 - 0x4AA0]
00004C14  4868 0002                pea.l      [A0 + 0x2]
00004C18  486C 0008                pea.l      [A4 + 0x8]
00004C1C  486C 0008                pea.l      [A4 + 0x8]
00004C20  4267                     clr.w      -[A7]
00004C22  2F2D B590                move.l     -[A7], [A5 - 0x4A70]
00004C26  A8EC                     syscall    CopyBits
00004C28  5247                     addq.w     D7, 1
00004C2A  6906                     bvs        +0x8 /* 00004C32 */
label00004C2C:
00004C2C  BE6E FFDA                cmp.w      D7, [A6 - 0x26]
00004C30  6FC6                     ble        -0x38 /* 00004BF8 */
label00004C32:
00004C32  4A2D FE71                tst.b      [A5 - 0x18F]
00004C36  6722                     beq        +0x24 /* 00004C5A */
00004C38  206D B7B6                movea.l    A0, [A5 - 0x484A]
00004C3C  2068 0002                movea.l    A0, [A0 + 0x2]
00004C40  2F10                     move.l     -[A7], [A0]
00004C42  206D B560                movea.l    A0, [A5 - 0x4AA0]
00004C46  4868 0002                pea.l      [A0 + 0x2]
00004C4A  486D F7F2                pea.l      [A5 - 0x80E]
00004C4E  486D F7F2                pea.l      [A5 - 0x80E]
00004C52  4267                     clr.w      -[A7]
00004C54  2F2D B590                move.l     -[A7], [A5 - 0x4A70]
00004C58  A8EC                     syscall    CopyBits
label00004C5A:
00004C5A  4CDF 10C0                movem.l    D6,D7,A4, [A7]+
00004C5E  4E5E                     unlink     A6
00004C60  4E75                     rts
fn00004C62:
00004C62  486D EEA6                pea.l      [A5 - 0x115A]
00004C66  A976                     syscall    GetKeys
00004C68  302D F63A                move.w     D0, [A5 - 0x9C6]
00004C6C  6000 0320                bra        +0x322 /* 00004F8E */
00004C70  0C6D 0001 F63C           cmpi.w     [A5 - 0x9C4], 0x1
00004C76  660C                     bne        +0xE /* 00004C84 */
00004C78  3F3C 03EA                move.w     -[A7], 0x3EA
00004C7C  3F3C 0180                move.w     -[A7], 0x180
00004C80  4EAD 01A2                jsr        [A5 + 0x1A2 /* export_48, CODE:1 @ 00000CDE */]
label00004C84:
00004C84  486D F63C                pea.l      [A5 - 0x9C4]
00004C88  205F                     movea.l    A0, [A7]+
00004C8A  5250                     addq.w     [A0], 1
00004C8C  0C6D 0010 F63C           cmpi.w     [A5 - 0x9C4], 0x10
00004C92  6F00 031C                ble        +0x31E /* 00004FB0 */
00004C96  4A2D F648                tst.b      [A5 - 0x9B8]
00004C9A  6706                     beq        +0x8 /* 00004CA2 */
00004C9C  426D F63E                clr.w      [A5 - 0x9C2]
00004CA0  6006                     bra        +0x8 /* 00004CA8 */
label00004CA2:
00004CA2  3B7C 0002 F63E           move.w     [A5 - 0x9C2], 0x2
label00004CA8:
00004CA8  1B7C 0001 FE83           move.b     [A5 - 0x17D], 0x1
00004CAE  426D F63C                clr.w      [A5 - 0x9C4]
00004CB2  426D F63A                clr.w      [A5 - 0x9C6]
00004CB6  6000 02F8                bra        +0x2FA /* 00004FB0 */
00004CBA  486D F63C                pea.l      [A5 - 0x9C4]
00004CBE  205F                     movea.l    A0, [A7]+
00004CC0  5250                     addq.w     [A0], 1
00004CC2  4A2D F648                tst.b      [A5 - 0x9B8]
00004CC6  6706                     beq        +0x8 /* 00004CCE */
00004CC8  426D F63E                clr.w      [A5 - 0x9C2]
00004CCC  6006                     bra        +0x8 /* 00004CD4 */
label00004CCE:
00004CCE  3B7C 0002 F63E           move.w     [A5 - 0x9C2], 0x2
label00004CD4:
00004CD4  0C6D 0010 F63C           cmpi.w     [A5 - 0x9C4], 0x10
00004CDA  6F00 02D4                ble        +0x2D6 /* 00004FB0 */
00004CDE  4EAD 028A                jsr        [A5 + 0x28A /* export_77, CODE:2 @ 00005AA0 */]
00004CE2  6000 02CC                bra        +0x2CE /* 00004FB0 */
00004CE6  486D F63C                pea.l      [A5 - 0x9C4]
00004CEA  205F                     movea.l    A0, [A7]+
00004CEC  5250                     addq.w     [A0], 1
00004CEE  0C6D 000B F63C           cmpi.w     [A5 - 0x9C4], 0xB
00004CF4  6F16                     ble        +0x18 /* 00004D0C */
00004CF6  1B7C 0001 FE83           move.b     [A5 - 0x17D], 0x1
00004CFC  426D F63C                clr.w      [A5 - 0x9C4]
00004D00  426D F63A                clr.w      [A5 - 0x9C6]
00004D04  426D F85A                clr.w      [A5 - 0x7A6]
00004D08  422D F648                clr.b      [A5 - 0x9B8]
label00004D0C:
00004D0C  4EBA C640                jsr        [PC - 0x39C0 /* 0000134E */]
00004D10  302D F600                move.w     D0, [A5 - 0xA00]
00004D14  D06D F85A                add.w      D0, [A5 - 0x7A6]
00004D18  3B40 F600                move.w     [A5 - 0xA00], D0
00004D1C  302D F604                move.w     D0, [A5 - 0x9FC]
00004D20  D06D F85A                add.w      D0, [A5 - 0x7A6]
00004D24  3B40 F604                move.w     [A5 - 0x9FC], D0
00004D28  302D F630                move.w     D0, [A5 - 0x9D0]
00004D2C  D06D F85A                add.w      D0, [A5 - 0x7A6]
00004D30  3B40 F630                move.w     [A5 - 0x9D0], D0
00004D34  302D F634                move.w     D0, [A5 - 0x9CC]
00004D38  D06D F85A                add.w      D0, [A5 - 0x7A6]
00004D3C  3B40 F634                move.w     [A5 - 0x9CC], D0
00004D40  302D F618                move.w     D0, [A5 - 0x9E8]
00004D44  D06D F85A                add.w      D0, [A5 - 0x7A6]
00004D48  3B40 F618                move.w     [A5 - 0x9E8], D0
00004D4C  302D F61C                move.w     D0, [A5 - 0x9E4]
00004D50  D06D F85A                add.w      D0, [A5 - 0x7A6]
00004D54  3B40 F61C                move.w     [A5 - 0x9E4], D0
00004D58  6000 0256                bra        +0x258 /* 00004FB0 */
00004D5C  486D F63C                pea.l      [A5 - 0x9C4]
00004D60  205F                     movea.l    A0, [A7]+
00004D62  5250                     addq.w     [A0], 1
00004D64  0C6D 000B F63C           cmpi.w     [A5 - 0x9C4], 0xB
00004D6A  6F18                     ble        +0x1A /* 00004D84 */
00004D6C  1B7C 0001 FE83           move.b     [A5 - 0x17D], 0x1
00004D72  426D F63C                clr.w      [A5 - 0x9C4]
00004D76  426D F63A                clr.w      [A5 - 0x9C6]
00004D7A  426D F85A                clr.w      [A5 - 0x7A6]
00004D7E  1B7C 0001 F648           move.b     [A5 - 0x9B8], 0x1
label00004D84:
00004D84  4EBA C5C8                jsr        [PC - 0x3A38 /* 0000134E */]
00004D88  302D F600                move.w     D0, [A5 - 0xA00]
00004D8C  D06D F85A                add.w      D0, [A5 - 0x7A6]
00004D90  3B40 F600                move.w     [A5 - 0xA00], D0
00004D94  302D F604                move.w     D0, [A5 - 0x9FC]
00004D98  D06D F85A                add.w      D0, [A5 - 0x7A6]
00004D9C  3B40 F604                move.w     [A5 - 0x9FC], D0
00004DA0  302D F630                move.w     D0, [A5 - 0x9D0]
00004DA4  D06D F85A                add.w      D0, [A5 - 0x7A6]
00004DA8  3B40 F630                move.w     [A5 - 0x9D0], D0
00004DAC  302D F634                move.w     D0, [A5 - 0x9CC]
00004DB0  D06D F85A                add.w      D0, [A5 - 0x7A6]
00004DB4  3B40 F634                move.w     [A5 - 0x9CC], D0
00004DB8  302D F618                move.w     D0, [A5 - 0x9E8]
00004DBC  D06D F85A                add.w      D0, [A5 - 0x7A6]
00004DC0  3B40 F618                move.w     [A5 - 0x9E8], D0
00004DC4  302D F61C                move.w     D0, [A5 - 0x9E4]
00004DC8  D06D F85A                add.w      D0, [A5 - 0x7A6]
00004DCC  3B40 F61C                move.w     [A5 - 0x9E4], D0
00004DD0  6000 01DE                bra        +0x1E0 /* 00004FB0 */
00004DD4  7001                     moveq.l    D0, 0x01
00004DD6  906D F63C                sub.w      D0, [A5 - 0x9C4]
00004DDA  3B40 F63C                move.w     [A5 - 0x9C4], D0
00004DDE  4A2D F648                tst.b      [A5 - 0x9B8]
00004DE2  6714                     beq        +0x16 /* 00004DF8 */
00004DE4  302D F63C                move.w     D0, [A5 - 0x9C4]
00004DE8  0640 0018                addi.w     D0, 0x18
00004DEC  3B40 F63E                move.w     [A5 - 0x9C2], D0
00004DF0  3B7C 0001 F640           move.w     [A5 - 0x9C0], 0x1
00004DF6  6012                     bra        +0x14 /* 00004E0A */
label00004DF8:
00004DF8  302D F63C                move.w     D0, [A5 - 0x9C4]
00004DFC  0640 001A                addi.w     D0, 0x1A
00004E00  3B40 F63E                move.w     [A5 - 0x9C2], D0
00004E04  3B7C FFFF F640           move.w     [A5 - 0x9C0], 0xFFFF
label00004E0A:
00004E0A  4EBA C542                jsr        [PC - 0x3ABE /* 0000134E */]
00004E0E  4EBA D00C                jsr        [PC - 0x2FF4 /* 00001E1C */]
00004E12  594F                     subq.w     A7, 4
00004E14  A975                     syscall    TickCount
00004E16  201F                     move.l     D0, [A7]+
00004E18  B0AD F636                cmp.l      D0, [A5 - 0x9CA]
00004E1C  6F00 0192                ble        +0x194 /* 00004FB0 */
00004E20  3F3C 03E9                move.w     -[A7], 0x3E9
00004E24  3F3C 0170                move.w     -[A7], 0x170
00004E28  4EAD 01A2                jsr        [A5 + 0x1A2 /* export_48, CODE:1 @ 00000CDE */]
00004E2C  3B7C 0002 F63A           move.w     [A5 - 0x9C6], 0x2
00004E32  426D F63C                clr.w      [A5 - 0x9C4]
00004E36  302D F602                move.w     D0, [A5 - 0x9FE]
00004E3A  0640 FFEC                addi.w     D0, 0xFFEC
00004E3E  3B40 F5FE                move.w     [A5 - 0xA02], D0
00004E42  4A2D F649                tst.b      [A5 - 0x9B7]
00004E46  6708                     beq        +0xA /* 00004E50 */
00004E48  426D F63E                clr.w      [A5 - 0x9C2]
00004E4C  6000 0162                bra        +0x164 /* 00004FB0 */
label00004E50:
00004E50  3B7C 0002 F63E           move.w     [A5 - 0x9C2], 0x2
00004E56  6000 0158                bra        +0x15A /* 00004FB0 */
00004E5A  302D F600                move.w     D0, [A5 - 0xA00]
00004E5E  5540                     subq.w     D0, 2
00004E60  3B40 F600                move.w     [A5 - 0xA00], D0
00004E64  302D F600                move.w     D0, [A5 - 0xA00]
00004E68  0640 0030                addi.w     D0, 0x30 /* '0' */
00004E6C  3B40 F604                move.w     [A5 - 0x9FC], D0
00004E70  302D F5FE                move.w     D0, [A5 - 0xA02]
00004E74  5D40                     subq.w     D0, 6
00004E76  3B40 F5FE                move.w     [A5 - 0xA02], D0
00004E7A  302D F5FE                move.w     D0, [A5 - 0xA02]
00004E7E  0640 0014                addi.w     D0, 0x14
00004E82  3B40 F602                move.w     [A5 - 0x9FE], D0
00004E86  3B6D F600 F618           move.w     [A5 - 0x9E8], [A5 - 0xA00]
00004E8C  3B6D F604 F61C           move.w     [A5 - 0x9E4], [A5 - 0x9FC]
00004E92  41ED F5FE                lea.l      A0, [A5 - 0xA02]
00004E96  43ED F62E                lea.l      A1, [A5 - 0x9D2]
00004E9A  22D8                     move.l     [A1]+, [A0]+
00004E9C  22D8                     move.l     [A1]+, [A0]+
00004E9E  486D F62E                pea.l      [A5 - 0x9D2]
00004EA2  3F3C 000A                move.w     -[A7], 0xA /* '\n' */
00004EA6  3F3C 0005                move.w     -[A7], 0x5
00004EAA  A8A9                     syscall    InsetRect
00004EAC  0C6D 00DC F5FE           cmpi.w     [A5 - 0xA02], 0xDC
00004EB2  6C00 00FC                bge        +0xFE /* 00004FB0 */
00004EB6  1B7C 0001 FE83           move.b     [A5 - 0x17D], 0x1
00004EBC  426D F63C                clr.w      [A5 - 0x9C4]
00004EC0  426D F63A                clr.w      [A5 - 0x9C6]
00004EC4  6000 00EA                bra        +0xEC /* 00004FB0 */
00004EC8  302D F600                move.w     D0, [A5 - 0xA00]
00004ECC  5440                     addq.w     D0, 2
00004ECE  3B40 F600                move.w     [A5 - 0xA00], D0
00004ED2  302D F600                move.w     D0, [A5 - 0xA00]
00004ED6  0640 0030                addi.w     D0, 0x30 /* '0' */
00004EDA  3B40 F604                move.w     [A5 - 0x9FC], D0
00004EDE  302D F5FE                move.w     D0, [A5 - 0xA02]
00004EE2  5C40                     addq.w     D0, 6
00004EE4  3B40 F5FE                move.w     [A5 - 0xA02], D0
00004EE8  302D F5FE                move.w     D0, [A5 - 0xA02]
00004EEC  0640 0014                addi.w     D0, 0x14
00004EF0  3B40 F602                move.w     [A5 - 0x9FE], D0
00004EF4  3B6D F600 F618           move.w     [A5 - 0x9E8], [A5 - 0xA00]
00004EFA  3B6D F604 F61C           move.w     [A5 - 0x9E4], [A5 - 0x9FC]
00004F00  41ED F5FE                lea.l      A0, [A5 - 0xA02]
00004F04  43ED F62E                lea.l      A1, [A5 - 0x9D2]
00004F08  22D8                     move.l     [A1]+, [A0]+
00004F0A  22D8                     move.l     [A1]+, [A0]+
00004F0C  486D F62E                pea.l      [A5 - 0x9D2]
00004F10  3F3C 000A                move.w     -[A7], 0xA /* '\n' */
00004F14  3F3C 0005                move.w     -[A7], 0x5
00004F18  A8A9                     syscall    InsetRect
00004F1A  0C6D 0078 F5FE           cmpi.w     [A5 - 0xA02], 0x78 /* 'x' */
00004F20  6F00 008E                ble        +0x90 /* 00004FB0 */
00004F24  1B7C 0001 FE83           move.b     [A5 - 0x17D], 0x1
00004F2A  426D F63C                clr.w      [A5 - 0x9C4]
00004F2E  426D F63A                clr.w      [A5 - 0x9C6]
00004F32  6000 007C                bra        +0x7E /* 00004FB0 */
00004F36  4A6D F63C                tst.w      [A5 - 0x9C4]
00004F3A  662C                     bne        +0x2E /* 00004F68 */
00004F3C  3F3C 03FC                move.w     -[A7], 0x3FC
00004F40  3F3C 0150                move.w     -[A7], 0x150
00004F44  4EAD 01A2                jsr        [A5 + 0x1A2 /* export_48, CODE:1 @ 00000CDE */]
00004F48  302D F602                move.w     D0, [A5 - 0x9FE]
00004F4C  5240                     addq.w     D0, 1
00004F4E  3B40 F602                move.w     [A5 - 0x9FE], D0
00004F52  302D F5FE                move.w     D0, [A5 - 0xA02]
00004F56  0640 0024                addi.w     D0, 0x24 /* '$' */
00004F5A  B06D F602                cmp.w      D0, [A5 - 0x9FE]
00004F5E  6E50                     bgt        +0x52 /* 00004FB0 */
00004F60  3B7C 0001 F63C           move.w     [A5 - 0x9C4], 0x1
00004F66  6048                     bra        +0x4A /* 00004FB0 */
label00004F68:
00004F68  302D F5FE                move.w     D0, [A5 - 0xA02]
00004F6C  5040                     addq.w     D0, 8
00004F6E  3B40 F5FE                move.w     [A5 - 0xA02], D0
00004F72  302D F602                move.w     D0, [A5 - 0x9FE]
00004F76  5040                     addq.w     D0, 8
00004F78  3B40 F602                move.w     [A5 - 0x9FE], D0
00004F7C  0C6D 0156 F5FE           cmpi.w     [A5 - 0xA02], 0x156
00004F82  6F2C                     ble        +0x2E /* 00004FB0 */
00004F84  426D F63C                clr.w      [A5 - 0x9C4]
00004F88  4EAD 028A                jsr        [A5 + 0x28A /* export_77, CODE:2 @ 00005AA0 */]
00004F8C  6022                     bra        +0x24 /* 00004FB0 */
label00004F8E:
00004F8E  5340                     subq.w     D0, 1
00004F90  0C40 0008                cmpi.w     D0, 0x8
00004F94  641A                     bcc        +0x1C /* 00004FB0 */
00004F96  D040                     add.w      D0, D0
00004F98  303B 0006                move.w     D0, [PC + D0.w + 0x6]
00004F9C  4EFB 0002                jmp        [PC + D0.w + 0x2]
00004FA0  FCD0 FD1A                .extension 0xCD0 <<F/2-3/6>> // unimplemented
00004FA4  FD46                     .extension 0xD46 <<F/4-5/6>> // unimplemented
00004FA6  FDBC                     .invalid   <<F/6/6>>
00004FA8  FE34 FEBA                .unknown   0xFE34 0xFEBA (W = 7)
00004FAC  FF28                     .extension 0xF28 <<F/4-5/7>> // unimplemented
00004FAE  FF96                     .invalid   <<F/6/7>>
label00004FB0:
00004FB0  4E75                     rts
fn00004FB2:
00004FB2  4EAD 0182                jsr        [A5 + 0x182 /* export_44, CODE:1 @ 0000099A */]
00004FB6  554F                     subq.w     A7, 2
00004FB8  3F3C 000B                move.w     -[A7], 0xB
00004FBC  4EAD 01AA                jsr        [A5 + 0x1AA /* export_49, CODE:1 @ 00000F4A */]
00004FC0  301F                     move.w     D0, [A7]+
00004FC2  5240                     addq.w     D0, 1
00004FC4  3B40 F850                move.w     [A5 - 0x7B0], D0
00004FC8  1B7C 0001 FE7E           move.b     [A5 - 0x182], 0x1
00004FCE  4EAD 01F2                jsr        [A5 + 0x1F2 /* export_58, CODE:2 @ 00000000 */]
00004FD2  A850                     syscall    InitCursor
00004FD4  4EAD 01DA                jsr        [A5 + 0x1DA /* export_55, CODE:1 @ 000018F4 */]
00004FD8  594F                     subq.w     A7, 4
00004FDA  3F3C 0081                move.w     -[A7], 0x81
00004FDE  A9BF                     syscall    GetRMenu
00004FE0  3F3C 0001                move.w     -[A7], 0x1
00004FE4  487A 0024                pea.l      [PC + 0x24 /* 0000500A, value 0xE436F6E */]
00004FE8  A947                     syscall    SetMenuItemText/SetItem
00004FEA  A937                     syscall    DrawMenuBar
00004FEC  3F3C FFFF                move.w     -[A7], 0xFFFF
00004FF0  4267                     clr.w      -[A7]
00004FF2  201F                     move.l     D0, [A7]+
00004FF4  A032                     syscall    FlushEvents
00004FF6  554F                     subq.w     A7, 2
00004FF8  3F3C 0003                move.w     -[A7], 0x3
00004FFC  7041                     moveq.l    D0, 0x41
00004FFE  2F00                     move.l     -[A7], D0
00005000  4EAD 00FA                jsr        [A5 + 0xFA /* export_27, CODE:1 @ 000006D2 */]
00005004  3B5F EEB6                move.w     [A5 - 0x114A], [A7]+
00005008  4E75                     rts
0000500A  0E43 6F6E                .invalid.w D3, 0x6F6E /* 'on' */ // invalid immediate operation
0000500E  7469                     moveq.l    D2, 0x69
00005010  6E75                     bgt        +0x77 /* 00005087 */
00005012  6520                     bcs        +0x22 /* 00005034 */
00005014  4761                     chk.w      D3, -[A1]
00005016  6D65                     blt        +0x67 /* 0000507D */
00005018  C916                     and.b      [A6], D4
fn0000501A:
0000501A  4EAD 0182                jsr        [A5 + 0x182 /* export_44, CODE:1 @ 0000099A */]
0000501E  4EAD 01F2                jsr        [A5 + 0x1F2 /* export_58, CODE:2 @ 00000000 */]
00005022  4EAD 01DA                jsr        [A5 + 0x1DA /* export_55, CODE:1 @ 000018F4 */]
00005026  554F                     subq.w     A7, 2
00005028  4EAD 026A                jsr        [A5 + 0x26A /* export_73, CODE:2 @ 00004A02 */]
0000502C  4A1F                     tst.b      [A7]+
0000502E  6712                     beq        +0x14 /* 00005042 */
00005030  422D FE7D                clr.b      [A5 - 0x183]
label00005034:
00005034  422D FE7E                clr.b      [A5 - 0x182]
00005038  1B7C 0001 FE79           move.b     [A5 - 0x187], 0x1
0000503E  6000 0092                bra        +0x94 /* 000050D2 */
label00005042:
00005042  554F                     subq.w     A7, 2
00005044  4EAD 02E2                jsr        [A5 + 0x2E2 /* export_88, CODE:4 @ 00000B8E */]
00005048  4A1F                     tst.b      [A7]+
0000504A  6712                     beq        +0x14 /* 0000505E */
0000504C  422D FE7D                clr.b      [A5 - 0x183]
00005050  422D FE7E                clr.b      [A5 - 0x182]
00005054  1B7C 0001 FE79           move.b     [A5 - 0x187], 0x1
0000505A  6000 0076                bra        +0x78 /* 000050D2 */
label0000505E:
0000505E  206D B814                movea.l    A0, [A5 - 0x47EC]
00005062  2F10                     move.l     -[A7], [A0]
00005064  A851                     syscall    SetCursor
00005066  2F2D B560                move.l     -[A7], [A5 - 0x4AA0]
0000506A  A873                     syscall    SetPort
0000506C  2F2D B560                move.l     -[A7], [A5 - 0x4AA0]
00005070  A922                     syscall    BeginUpdate
00005072  4A2D FE7A                tst.b      [A5 - 0x186]
00005076  6722                     beq        +0x24 /* 0000509A */
00005078  206D B7B2                movea.l    A0, [A5 - 0x484E]
0000507C  2068 0002                movea.l    A0, [A0 + 0x2]
00005080  2F10                     move.l     -[A7], [A0]
00005082  206D B560                movea.l    A0, [A5 - 0x4AA0]
00005086  4868 0002                pea.l      [A0 + 0x2]
0000508A  486D B568                pea.l      [A5 - 0x4A98]
0000508E  486D B568                pea.l      [A5 - 0x4A98]
00005092  4267                     clr.w      -[A7]
00005094  42A7                     clr.l      -[A7]
00005096  A8EC                     syscall    CopyBits
00005098  601A                     bra        +0x1C /* 000050B4 */
label0000509A:
0000509A  486D B5A2                pea.l      [A5 - 0x4A5E]
0000509E  206D B560                movea.l    A0, [A5 - 0x4AA0]
000050A2  4868 0002                pea.l      [A0 + 0x2]
000050A6  486D B568                pea.l      [A5 - 0x4A98]
000050AA  486D B568                pea.l      [A5 - 0x4A98]
000050AE  4267                     clr.w      -[A7]
000050B0  42A7                     clr.l      -[A7]
000050B2  A8EC                     syscall    CopyBits
label000050B4:
000050B4  2F2D B560                move.l     -[A7], [A5 - 0x4AA0]
000050B8  A923                     syscall    EndUpdate
000050BA  4A2D FE7A                tst.b      [A5 - 0x186]
000050BE  6708                     beq        +0xA /* 000050C8 */
000050C0  2F2D B7B2                move.l     -[A7], [A5 - 0x484E]
000050C4  A873                     syscall    SetPort
000050C6  6006                     bra        +0x8 /* 000050CE */
label000050C8:
000050C8  2F2D B5DE                move.l     -[A7], [A5 - 0x4A22]
000050CC  A873                     syscall    SetPort
label000050CE:
000050CE  4EAD 018A                jsr        [A5 + 0x18A /* export_45, CODE:1 @ 00000A3A */]
label000050D2:
000050D2  4E75                     rts
fn000050D4:
000050D4  4EAD 0182                jsr        [A5 + 0x182 /* export_44, CODE:1 @ 0000099A */]
000050D8  A850                     syscall    InitCursor
000050DA  4EAD 0192                jsr        [A5 + 0x192 /* export_46, CODE:1 @ 00000B2E */]
000050DE  4EAD 01F2                jsr        [A5 + 0x1F2 /* export_58, CODE:2 @ 00000000 */]
000050E2  554F                     subq.w     A7, 2
000050E4  4EAD 02E2                jsr        [A5 + 0x2E2 /* export_88, CODE:4 @ 00000B8E */]
000050E8  101F                     move.b     D0, [A7]+
000050EA  5300                     subq.b     D0, 1
000050EC  4EAD 0192                jsr        [A5 + 0x192 /* export_46, CODE:1 @ 00000B2E */]
000050F0  206D B814                movea.l    A0, [A5 - 0x47EC]
000050F4  2F10                     move.l     -[A7], [A0]
000050F6  A851                     syscall    SetCursor
000050F8  2F2D B560                move.l     -[A7], [A5 - 0x4AA0]
000050FC  A873                     syscall    SetPort
000050FE  2F2D B560                move.l     -[A7], [A5 - 0x4AA0]
00005102  A922                     syscall    BeginUpdate
00005104  4A2D FE7A                tst.b      [A5 - 0x186]
00005108  6722                     beq        +0x24 /* 0000512C */
0000510A  206D B7B2                movea.l    A0, [A5 - 0x484E]
0000510E  2068 0002                movea.l    A0, [A0 + 0x2]
00005112  2F10                     move.l     -[A7], [A0]
00005114  206D B560                movea.l    A0, [A5 - 0x4AA0]
00005118  4868 0002                pea.l      [A0 + 0x2]
0000511C  486D B568                pea.l      [A5 - 0x4A98]
00005120  486D B568                pea.l      [A5 - 0x4A98]
00005124  4267                     clr.w      -[A7]
00005126  42A7                     clr.l      -[A7]
00005128  A8EC                     syscall    CopyBits
0000512A  601A                     bra        +0x1C /* 00005146 */
label0000512C:
0000512C  486D B5A2                pea.l      [A5 - 0x4A5E]
00005130  206D B560                movea.l    A0, [A5 - 0x4AA0]
00005134  4868 0002                pea.l      [A0 + 0x2]
00005138  486D B568                pea.l      [A5 - 0x4A98]
0000513C  486D B568                pea.l      [A5 - 0x4A98]
00005140  4267                     clr.w      -[A7]
00005142  42A7                     clr.l      -[A7]
00005144  A8EC                     syscall    CopyBits
label00005146:
00005146  2F2D B560                move.l     -[A7], [A5 - 0x4AA0]
0000514A  A923                     syscall    EndUpdate
0000514C  4A2D FE7A                tst.b      [A5 - 0x186]
00005150  6708                     beq        +0xA /* 0000515A */
00005152  2F2D B7B2                move.l     -[A7], [A5 - 0x484E]
00005156  A873                     syscall    SetPort
00005158  6006                     bra        +0x8 /* 00005160 */
label0000515A:
0000515A  2F2D B5DE                move.l     -[A7], [A5 - 0x4A22]
0000515E  A873                     syscall    SetPort
label00005160:
00005160  4EAD 018A                jsr        [A5 + 0x18A /* export_45, CODE:1 @ 00000A3A */]
00005164  4E75                     rts
fn00005166:
00005166  4EAD 0182                jsr        [A5 + 0x182 /* export_44, CODE:1 @ 0000099A */]
0000516A  594F                     subq.w     A7, 4
0000516C  3F3C 0081                move.w     -[A7], 0x81
00005170  A9BF                     syscall    GetRMenu
00005172  3F3C 0001                move.w     -[A7], 0x1
00005176  487A 000C                pea.l      [PC + 0xC /* 00005184, value 0xB426567 */]
0000517A  A947                     syscall    SetMenuItemText/SetItem
0000517C  4EAD 027A                jsr        [A5 + 0x27A /* export_75, CODE:2 @ 000056D6 */]
00005180  A937                     syscall    DrawMenuBar
00005182  4E75                     rts
00005184  0B42                     bchg       D2, D5
00005186  6567                     bcs        +0x69 /* 000051EF */
00005188  696E                     bvs        +0x70 /* 000051F8 */
0000518A  2047                     movea.l    A0, D7
0000518C  616D                     bsr        +0x6F /* 000051FB */
0000518E  65C9                     bcs        -0x35 /* 00005159 */
export_83:
00005190  4E56 FFEE                link       A6, -0x0012
00005194  486D EEA6                pea.l      [A5 - 0x115A]
00005198  A976                     syscall    GetKeys
0000519A  6000 0188                bra        +0x18A /* 00005324 */
label0000519E:
0000519E  594F                     subq.w     A7, 4
000051A0  A975                     syscall    TickCount
000051A2  2B5F FEF0                move.l     [A5 - 0x110], [A7]+
000051A6  3B7C 0002 F856           move.w     [A5 - 0x7AA], 0x2
000051AC  302D F86E                move.w     D0, [A5 - 0x792]
000051B0  0A40 0001                xori.w     D0, 0x1
000051B4  3B40 F86E                move.w     [A5 - 0x792], D0
000051B8  4A2D FE71                tst.b      [A5 - 0x18F]
000051BC  6704                     beq        +0x6 /* 000051C2 */
000051BE  4EBA C302                jsr        [PC - 0x3CFE /* 000014C2 */]
label000051C2:
000051C2  4A2D FE83                tst.b      [A5 - 0x17D]
000051C6  6714                     beq        +0x16 /* 000051DC */
000051C8  4EBA C184                jsr        [PC - 0x3E7C /* 0000134E */]
000051CC  486D EEA6                pea.l      [A5 - 0x115A]
000051D0  A976                     syscall    GetKeys
000051D2  4EBA C642                jsr        [PC - 0x39BE /* 00001816 */]
000051D6  4EBA CC44                jsr        [PC - 0x33BC /* 00001E1C */]
000051DA  6004                     bra        +0x6 /* 000051E0 */
label000051DC:
000051DC  4EBA FA84                jsr        [PC - 0x57C /* 00004C62 */]
label000051E0:
000051E0  4A2D FE7D                tst.b      [A5 - 0x183]
000051E4  6744                     beq        +0x46 /* 0000522A */
000051E6  4A6D F880                tst.w      [A5 - 0x780]
000051EA  6F04                     ble        +0x6 /* 000051F0 */
000051EC  4EBA CD5A                jsr        [PC - 0x32A6 /* 00001F48 */]
label000051F0:
000051F0  4A6D F882                tst.w      [A5 - 0x77E]
000051F4  6F04                     ble        +0x6 /* 000051FA */
000051F6  4EBA CEF4                jsr        [PC - 0x310C /* 000020EC */]
// begin alternate branch 000051F8-00005200
label000051F8:
000051F8  CEF4 4A2D                mulu.w     D7, [A4 + D4 * 2 + 0x2D]
label000051FA: // (misaligned)
000051FC  FE67 6704                .extension 0xE67 <<F/1/7>>, 0x6704 // unimplemented
// end alternate branch 000051F8-00005200
label000051F8: // (misaligned)
label000051FA:
000051FA  4A2D FE67                tst.b      [A5 - 0x199]
000051FE  6704                     beq        +0x6 /* 00005204 */
00005200  4EBA D5BA                jsr        [PC - 0x2A46 /* 000027BC */]
label00005204:
00005204  4A2D FE85                tst.b      [A5 - 0x17B]
00005208  6706                     beq        +0x8 /* 00005210 */
0000520A  4EBA D61A                jsr        [PC - 0x29E6 /* 00002826 */]
0000520E  6010                     bra        +0x12 /* 00005220 */
label00005210:
00005210  4A2D FE7A                tst.b      [A5 - 0x186]
00005214  6706                     beq        +0x8 /* 0000521C */
00005216  4EBA EF86                jsr        [PC - 0x107A /* 0000419E */]
0000521A  6004                     bra        +0x6 /* 00005220 */
label0000521C:
0000521C  4EBA E69A                jsr        [PC - 0x1966 /* 000038B8 */]
label00005220:
00005220  4A2D FE82                tst.b      [A5 - 0x17E]
00005224  6704                     beq        +0x6 /* 0000522A */
00005226  4EAD 0212                jsr        [A5 + 0x212 /* export_62, CODE:2 @ 000021B2 */]
label0000522A:
0000522A  7037                     moveq.l    D0, 0x37
0000522C  3200                     move.w     D1, D0
0000522E  E649                     lsr        D1.w, 3
00005230  0641 EEA6                addi.w     D1, 0xEEA6
00005234  0135 1000                btst       [A5 + D1.w], D0
00005238  56C0                     sne        D0
0000523A  720C                     moveq.l    D1, 0x0C
0000523C  3401                     move.w     D2, D1
0000523E  E64A                     lsr        D2.w, 3
00005240  0642 EEA6                addi.w     D2, 0xEEA6
00005244  0335 2000                btst       [A5 + D2.w], D1
00005248  56C1                     sne        D1
0000524A  C001                     and.b      D0, D1
0000524C  6704                     beq        +0x6 /* 00005252 */
0000524E  4EBA FDCA                jsr        [PC - 0x236 /* 0000501A */]
label00005252:
00005252  7037                     moveq.l    D0, 0x37
00005254  3200                     move.w     D1, D0
00005256  E649                     lsr        D1.w, 3
00005258  0641 EEA6                addi.w     D1, 0xEEA6
0000525C  0135 1000                btst       [A5 + D1.w], D0
00005260  56C0                     sne        D0
00005262  7201                     moveq.l    D1, 0x01
00005264  3401                     move.w     D2, D1
00005266  E64A                     lsr        D2.w, 3
00005268  0642 EEA6                addi.w     D2, 0xEEA6
0000526C  0335 2000                btst       [A5 + D2.w], D1
00005270  56C1                     sne        D1
00005272  C001                     and.b      D0, D1
00005274  6704                     beq        +0x6 /* 0000527A */
00005276  4EBA FE5C                jsr        [PC - 0x1A4 /* 000050D4 */]
label0000527A:
0000527A  7037                     moveq.l    D0, 0x37
0000527C  3200                     move.w     D1, D0
0000527E  E649                     lsr        D1.w, 3
00005280  0641 EEA6                addi.w     D1, 0xEEA6
00005284  0135 1000                btst       [A5 + D1.w], D0
00005288  56C0                     sne        D0
0000528A  720E                     moveq.l    D1, 0x0E
0000528C  3401                     move.w     D2, D1
0000528E  E64A                     lsr        D2.w, 3
00005290  0642 EEA6                addi.w     D2, 0xEEA6
00005294  0335 2000                btst       [A5 + D2.w], D1
00005298  56C1                     sne        D1
0000529A  C001                     and.b      D0, D1
0000529C  6704                     beq        +0x6 /* 000052A2 */
0000529E  4EBA FEC6                jsr        [PC - 0x13A /* 00005166 */]
label000052A2:
000052A2  7030                     moveq.l    D0, 0x30
000052A4  3200                     move.w     D1, D0
000052A6  E649                     lsr        D1.w, 3
000052A8  0641 EEA6                addi.w     D1, 0xEEA6
000052AC  0135 1000                btst       [A5 + D1.w], D0
000052B0  6704                     beq        +0x6 /* 000052B6 */
000052B2  4EBA FCFE                jsr        [PC - 0x302 /* 00004FB2 */]
label000052B6:
000052B6  206D B814                movea.l    A0, [A5 - 0x47EC]
000052BA  2F10                     move.l     -[A7], [A0]
000052BC  A851                     syscall    SetCursor
label000052BE:
000052BE  594F                     subq.w     A7, 4
000052C0  A975                     syscall    TickCount
000052C2  202D FEF0                move.l     D0, [A5 - 0x110]
000052C6  5480                     addq.l     D0, 2
000052C8  B09F                     cmp.l      D0, [A7]+
000052CA  6EF2                     bgt        -0xC /* 000052BE */
000052CC  202D F82A                move.l     D0, [A5 - 0x7D6]
000052D0  5280                     addq.l     D0, 1
000052D2  2B40 F82A                move.l     [A5 - 0x7D6], D0
000052D6  302D F87C                move.w     D0, [A5 - 0x784]
000052DA  5240                     addq.w     D0, 1
000052DC  3B40 F87C                move.w     [A5 - 0x784], D0
000052E0  302D F87C                move.w     D0, [A5 - 0x784]
000052E4  B06D F87E                cmp.w      D0, [A5 - 0x782]
000052E8  6D3A                     blt        +0x3C /* 00005324 */
000052EA  426D F87C                clr.w      [A5 - 0x784]
000052EE  3F3C 0406                move.w     -[A7], 0x406
000052F2  3F3C 0015                move.w     -[A7], 0x15
000052F6  4EAD 01A2                jsr        [A5 + 0x1A2 /* export_48, CODE:1 @ 00000CDE */]
000052FA  203C 0000 0100           move.l     D0, 0x100
00005300  90AD F82A                sub.l      D0, [A5 - 0x7D6]
00005304  2F00                     move.l     -[A7], D0
00005306  7008                     moveq.l    D0, 0x08
00005308  2F00                     move.l     -[A7], D0
0000530A  4EAD 004A                jsr        [A5 + 0x4A /* export_5, CODE:1 @ 000001DA */]
0000530E  700E                     moveq.l    D0, 0x0E
00005310  D09F                     add.l      D0, [A7]+
00005312  3B40 F87E                move.w     [A5 - 0x782], D0
00005316  0C6D 000E F87E           cmpi.w     [A5 - 0x782], 0xE
0000531C  6C06                     bge        +0x8 /* 00005324 */
0000531E  3B7C 000E F87E           move.w     [A5 - 0x782], 0xE
label00005324:
00005324  102D FE7E                move.b     D0, [A5 - 0x182]
00005328  5300                     subq.b     D0, 1
0000532A  C02D FE7D                and.b      D0, [A5 - 0x183]
0000532E  6600 FE6E                bne        -0x190 /* 0000519E */
00005332  3F3C FFFF                move.w     -[A7], 0xFFFF
00005336  4267                     clr.w      -[A7]
00005338  201F                     move.l     D0, [A7]+
0000533A  A032                     syscall    FlushEvents
0000533C  A850                     syscall    InitCursor
0000533E  A937                     syscall    DrawMenuBar
00005340  0C6D 0014 F832           cmpi.w     [A5 - 0x7CE], 0x14
00005346  6704                     beq        +0x6 /* 0000534C */
00005348  4EAD 01CA                jsr        [A5 + 0x1CA /* export_53, CODE:1 @ 0000114E */]
label0000534C:
0000534C  4E5E                     unlink     A6
0000534E  4E75                     rts
