# near model CODE resource
# jump table entries: 520-520 (1 of them)
fn00000000:
00000000  4E56 FFE2                link       A6, -0x001E
00000004  48E7 0018                movem.l    -[A7], A3,A4
00000008  486E FFEC                pea.l      [A6 - 0x14]
0000000C  3F3C 0100                move.w     -[A7], 0x100
00000010  3F3C 00AB                move.w     -[A7], 0xAB
00000014  A880                     syscall    SetPt
00000016  287C 0000 082C           movea.l    A4, 0x82C
0000001C  264C                     movea.l    A3, A4
0000001E  26AE FFEC                move.l     [A3], [A6 - 0x14]
00000022  287C 0000 0828           movea.l    A4, 0x828
00000028  264C                     movea.l    A3, A4
0000002A  26AE FFEC                move.l     [A3], [A6 - 0x14]
0000002E  287C 0000 08CE           movea.l    A4, 0x8CE
00000034  18BC 00FF                move.b     [A4], 0xFF
00000038  4CDF 1800                movem.l    A3,A4, [A7]+
0000003C  4E5E                     unlink     A6
0000003E  4E75                     rts
fn00000040:
00000040  4E56 FFAC                link       A6, -0x0054
00000044  2F07                     move.l     -[A7], D7
00000046  426D F772                clr.w      [A5 - 0x88E]
0000004A  3B7C 0004 F76E           move.w     [A5 - 0x892], 0x4
00000050  426D F774                clr.w      [A5 - 0x88C]
00000054  3B7C 0001 F766           move.w     [A5 - 0x89A], 0x1
0000005A  426D F768                clr.w      [A5 - 0x898]
0000005E  1B7C 0001 F76B           move.b     [A5 - 0x895], 0x1
00000064  1B7C 0001 F76A           move.b     [A5 - 0x896], 0x1
0000006A  4A2D F76A                tst.b      [A5 - 0x896]
0000006E  6716                     beq        +0x18 /* 00000086 */
00000070  486D F72E                pea.l      [A5 - 0x8D2]
00000074  4267                     clr.w      -[A7]
00000076  3F3C 0028                move.w     -[A7], 0x28 /* '(' */
0000007A  3F3C 0030                move.w     -[A7], 0x30 /* '0' */
0000007E  3F3C 003C                move.w     -[A7], 0x3C /* '<' */
00000082  A8A7                     syscall    SetRect
00000084  6016                     bra        +0x18 /* 0000009C */
label00000086:
00000086  486D F72E                pea.l      [A5 - 0x8D2]
0000008A  3F3C 01D0                move.w     -[A7], 0x1D0
0000008E  3F3C 0028                move.w     -[A7], 0x28 /* '(' */
00000092  3F3C 0200                move.w     -[A7], 0x200
00000096  3F3C 003C                move.w     -[A7], 0x3C /* '<' */
0000009A  A8A7                     syscall    SetRect
label0000009C:
0000009C  41ED F72E                lea.l      A0, [A5 - 0x8D2]
000000A0  43ED F736                lea.l      A1, [A5 - 0x8CA]
000000A4  22D8                     move.l     [A1]+, [A0]+
000000A6  22D8                     move.l     [A1]+, [A0]+
000000A8  41ED F72E                lea.l      A0, [A5 - 0x8D2]
000000AC  43ED F73E                lea.l      A1, [A5 - 0x8C2]
000000B0  22D8                     move.l     [A1]+, [A0]+
000000B2  22D8                     move.l     [A1]+, [A0]+
000000B4  426D F76C                clr.w      [A5 - 0x894]
000000B8  3B6D F778 F770           move.w     [A5 - 0x890], [A5 - 0x888]
000000BE  422D F776                clr.b      [A5 - 0x88A]
000000C2  A89E                     syscall    PenNormal
000000C4  3F3C 000A                move.w     -[A7], 0xA /* '\n' */
000000C8  A89C                     syscall    PenMode
000000CA  486D F72E                pea.l      [A5 - 0x8D2]
000000CE  A8A1                     syscall    FrameRect
label000000D0:
000000D0  554F                     subq.w     A7, 2
000000D2  A974                     syscall    Button
000000D4  101F                     move.b     D0, [A7]+
000000D6  5300                     subq.b     D0, 1
000000D8  67F6                     beq        -0x8 /* 000000D0 */
label000000DA:
000000DA  486D F736                pea.l      [A5 - 0x8CA]
000000DE  A8A1                     syscall    FrameRect
000000E0  486E FFEC                pea.l      [A6 - 0x14]
000000E4  A972                     syscall    GetMouse
000000E6  486D F72E                pea.l      [A5 - 0x8D2]
000000EA  3F3C FFE8                move.w     -[A7], 0xFFE8
000000EE  3F3C FFF6                move.w     -[A7], 0xFFF6
000000F2  3F3C 0018                move.w     -[A7], 0x18
000000F6  3F3C 000A                move.w     -[A7], 0xA /* '\n' */
000000FA  A8A7                     syscall    SetRect
000000FC  486D F72E                pea.l      [A5 - 0x8D2]
00000100  3F2E FFEE                move.w     -[A7], [A6 - 0x12]
00000104  3F2E FFEC                move.w     -[A7], [A6 - 0x14]
00000108  A8A8                     syscall    OffsetRect
0000010A  486D F72E                pea.l      [A5 - 0x8D2]
0000010E  A8A1                     syscall    FrameRect
00000110  41ED F72E                lea.l      A0, [A5 - 0x8D2]
00000114  43ED F736                lea.l      A1, [A5 - 0x8CA]
00000118  22D8                     move.l     [A1]+, [A0]+
0000011A  22D8                     move.l     [A1]+, [A0]+
0000011C  554F                     subq.w     A7, 2
0000011E  A974                     syscall    Button
00000120  4A1F                     tst.b      [A7]+
00000122  67B6                     beq        -0x48 /* 000000DA */
00000124  486D F736                pea.l      [A5 - 0x8CA]
00000128  A8A1                     syscall    FrameRect
0000012A  41ED F736                lea.l      A0, [A5 - 0x8CA]
0000012E  43EE FFDC                lea.l      A1, [A6 - 0x24]
00000132  22D8                     move.l     [A1]+, [A0]+
00000134  22D8                     move.l     [A1]+, [A0]+
00000136  486E FFDC                pea.l      [A6 - 0x24]
0000013A  3F3C FFFF                move.w     -[A7], 0xFFFF
0000013E  3F3C FFFF                move.w     -[A7], 0xFFFF
00000142  A8A9                     syscall    InsetRect
00000144  486E FFDC                pea.l      [A6 - 0x24]
00000148  A8A1                     syscall    FrameRect
0000014A  41ED F72E                lea.l      A0, [A5 - 0x8D2]
0000014E  43ED F736                lea.l      A1, [A5 - 0x8CA]
00000152  22D8                     move.l     [A1]+, [A0]+
00000154  22D8                     move.l     [A1]+, [A0]+
00000156  41ED F72E                lea.l      A0, [A5 - 0x8D2]
0000015A  43ED F73E                lea.l      A1, [A5 - 0x8C2]
0000015E  22D8                     move.l     [A1]+, [A0]+
00000160  22D8                     move.l     [A1]+, [A0]+
00000162  41ED F72E                lea.l      A0, [A5 - 0x8D2]
00000166  43ED F746                lea.l      A1, [A5 - 0x8BA]
0000016A  22D8                     move.l     [A1]+, [A0]+
0000016C  22D8                     move.l     [A1]+, [A0]+
0000016E  3B7C 0145 F746           move.w     [A5 - 0x8BA], 0x145
00000174  3B7C 0150 F74A           move.w     [A5 - 0x8B6], 0x150
0000017A  41ED F746                lea.l      A0, [A5 - 0x8BA]
0000017E  43ED F74E                lea.l      A1, [A5 - 0x8B2]
00000182  22D8                     move.l     [A1]+, [A0]+
00000184  22D8                     move.l     [A1]+, [A0]+
00000186  41ED F746                lea.l      A0, [A5 - 0x8BA]
0000018A  43ED F756                lea.l      A1, [A5 - 0x8AA]
0000018E  22D8                     move.l     [A1]+, [A0]+
00000190  22D8                     move.l     [A1]+, [A0]+
00000192  41ED F72E                lea.l      A0, [A5 - 0x8D2]
00000196  43ED F75E                lea.l      A1, [A5 - 0x8A2]
0000019A  22D8                     move.l     [A1]+, [A0]+
0000019C  22D8                     move.l     [A1]+, [A0]+
0000019E  486D F75E                pea.l      [A5 - 0x8A2]
000001A2  3F3C 000A                move.w     -[A7], 0xA /* '\n' */
000001A6  3F3C 0005                move.w     -[A7], 0x5
000001AA  A8A9                     syscall    InsetRect
000001AC  4A2D FD97                tst.b      [A5 - 0x269]
000001B0  673A                     beq        +0x3C /* 000001EC */
000001B2  206D BA86                movea.l    A0, [A5 - 0x457A]
000001B6  2068 0002                movea.l    A0, [A0 + 0x2]
000001BA  2F10                     move.l     -[A7], [A0]
000001BC  486D B8E2                pea.l      [A5 - 0x471E]
000001C0  206D B8B2                movea.l    A0, [A5 - 0x474E]
000001C4  4868 0002                pea.l      [A0 + 0x2]
000001C8  302D F76C                move.w     D0, [A5 - 0x894]
000001CC  E740                     asl        D0.w, 3
000001CE  0640 F780                addi.w     D0, 0xF780
000001D2  4875 0000                pea.l      [A5 + D0.w]
000001D6  302D F76C                move.w     D0, [A5 - 0x894]
000001DA  E740                     asl        D0.w, 3
000001DC  0640 F780                addi.w     D0, 0xF780
000001E0  4875 0000                pea.l      [A5 + D0.w]
000001E4  486D F72E                pea.l      [A5 - 0x8D2]
000001E8  A817                     syscall    CopyMask
000001EA  6032                     bra        +0x34 /* 0000021E */
label000001EC:
000001EC  486D B90C                pea.l      [A5 - 0x46F4]
000001F0  486D B8E2                pea.l      [A5 - 0x471E]
000001F4  206D B8B2                movea.l    A0, [A5 - 0x474E]
000001F8  4868 0002                pea.l      [A0 + 0x2]
000001FC  302D F76C                move.w     D0, [A5 - 0x894]
00000200  E740                     asl        D0.w, 3
00000202  0640 F780                addi.w     D0, 0xF780
00000206  4875 0000                pea.l      [A5 + D0.w]
0000020A  302D F76C                move.w     D0, [A5 - 0x894]
0000020E  E740                     asl        D0.w, 3
00000210  0640 F780                addi.w     D0, 0xF780
00000214  4875 0000                pea.l      [A5 + D0.w]
00000218  486D F72E                pea.l      [A5 - 0x8D2]
0000021C  A817                     syscall    CopyMask
label0000021E:
0000021E  594F                     subq.w     A7, 4
00000220  A975                     syscall    TickCount
00000222  7E78                     moveq.l    D7, 0x78
00000224  DE9F                     add.l      D7, [A7]+
label00000226:
00000226  4EAD 023A                jsr        [A5 + 0x23A /* export_67, CODE:5 @ 00000000 */]
0000022A  7002                     moveq.l    D0, 0x02
0000022C  2F00                     move.l     -[A7], D0
0000022E  486E FFE8                pea.l      [A6 - 0x18]
00000232  4EAD 008A                jsr        [A5 + 0x8A /* export_13, CODE:1 @ 00000308 */]
00000236  594F                     subq.w     A7, 4
00000238  A975                     syscall    TickCount
0000023A  BE9F                     cmp.l      D7, [A7]+
0000023C  6CE8                     bge        -0x16 /* 00000226 */
0000023E  486E FFDC                pea.l      [A6 - 0x24]
00000242  A8A1                     syscall    FrameRect
00000244  2E1F                     move.l     D7, [A7]+
00000246  4E5E                     unlink     A6
00000248  4E75                     rts
fn0000024A:
0000024A  4E56 0000                link       A6, 0
0000024E  48E7 0038                movem.l    -[A7], A2,A3,A4
00000252  246E 0008                movea.l    A2, [A6 + 0x8]
00000256  302D F48C                move.w     D0, [A5 - 0xB74]
0000025A  5240                     addq.w     D0, 1
0000025C  3B40 F48C                move.w     [A5 - 0xB74], D0
00000260  302A FFEE                move.w     D0, [A2 - 0x12]
00000264  E940                     asl        D0.w, 4
00000266  0640 FDEA                addi.w     D0, 0xFDEA
0000026A  47F5 0000                lea.l      A3, [A5 + D0.w]
0000026E  4A2B 000E                tst.b      [A3 + 0xE]
00000272  6772                     beq        +0x74 /* 000002E6 */
00000274  302A FFEE                move.w     D0, [A2 - 0x12]
00000278  E740                     asl        D0.w, 3
0000027A  41EB 0002                lea.l      A0, [A3 + 0x2]
0000027E  0640 F8FE                addi.w     D0, 0xF8FE
00000282  43F5 0000                lea.l      A1, [A5 + D0.w]
00000286  22D8                     move.l     [A1]+, [A0]+
00000288  22D8                     move.l     [A1]+, [A0]+
0000028A  302D F48C                move.w     D0, [A5 - 0xB74]
0000028E  C1FC 002A                muls.w     D0, 0x2A /* '*' */
00000292  0640 F464                addi.w     D0, 0xF464
00000296  49F5 0000                lea.l      A4, [A5 + D0.w]
0000029A  397C 0012 001A           move.w     [A4 + 0x1A], 0x12
000002A0  396A FFEE 0018           move.w     [A4 + 0x18], [A2 - 0x12]
000002A6  302A FFEE                move.w     D0, [A2 - 0x12]
000002AA  E740                     asl        D0.w, 3
000002AC  0640 F8FE                addi.w     D0, 0xF8FE
000002B0  41F5 0000                lea.l      A0, [A5 + D0.w]
000002B4  43EC 0008                lea.l      A1, [A4 + 0x8]
000002B8  22D8                     move.l     [A1]+, [A0]+
000002BA  22D8                     move.l     [A1]+, [A0]+
000002BC  41EC 0008                lea.l      A0, [A4 + 0x8]
000002C0  43EC 0010                lea.l      A1, [A4 + 0x10]
000002C4  22D8                     move.l     [A1]+, [A0]+
000002C6  22D8                     move.l     [A1]+, [A0]+
000002C8  42AC 001E                clr.l      [A4 + 0x1E]
000002CC  397C 0012 0026           move.w     [A4 + 0x26], 0x12
000002D2  396C 000E 0028           move.w     [A4 + 0x28], [A4 + 0xE]
000002D8  302B 000A                move.w     D0, [A3 + 0xA]
000002DC  48C0                     ext.l      D0
000002DE  2940 0022                move.l     [A4 + 0x22], D0
000002E2  6000 0098                bra        +0x9A /* 0000037C */
label000002E6:
000002E6  302A FFEE                move.w     D0, [A2 - 0x12]
000002EA  E740                     asl        D0.w, 3
000002EC  0640 F900                addi.w     D0, 0xF900
000002F0  3BAB 0008 0000           move.w     [A5 + D0.w], [A3 + 0x8]
000002F6  302A FFEE                move.w     D0, [A2 - 0x12]
000002FA  E740                     asl        D0.w, 3
000002FC  0640 F902                addi.w     D0, 0xF902
00000300  3BAB 0006 0000           move.w     [A5 + D0.w], [A3 + 0x6]
00000306  302A FFEE                move.w     D0, [A2 - 0x12]
0000030A  E740                     asl        D0.w, 3
0000030C  0640 F904                addi.w     D0, 0xF904
00000310  3BAB 000A 0000           move.w     [A5 + D0.w], [A3 + 0xA]
00000316  302B 0006                move.w     D0, [A3 + 0x6]
0000031A  5940                     subq.w     D0, 4
0000031C  322A FFEE                move.w     D1, [A2 - 0x12]
00000320  E741                     asl        D1.w, 3
00000322  0641 F8FE                addi.w     D1, 0xF8FE
00000326  3B80 1000                move.w     [A5 + D1.w], D0
0000032A  302D F48C                move.w     D0, [A5 - 0xB74]
0000032E  C1FC 002A                muls.w     D0, 0x2A /* '*' */
00000332  0640 F464                addi.w     D0, 0xF464
00000336  49F5 0000                lea.l      A4, [A5 + D0.w]
0000033A  397C 0012 001A           move.w     [A4 + 0x1A], 0x12
00000340  396A FFEE 0018           move.w     [A4 + 0x18], [A2 - 0x12]
00000346  41EB 0002                lea.l      A0, [A3 + 0x2]
0000034A  43EC 0008                lea.l      A1, [A4 + 0x8]
0000034E  22D8                     move.l     [A1]+, [A0]+
00000350  22D8                     move.l     [A1]+, [A0]+
00000352  41EC 0008                lea.l      A0, [A4 + 0x8]
00000356  43EC 0010                lea.l      A1, [A4 + 0x10]
0000035A  22D8                     move.l     [A1]+, [A0]+
0000035C  22D8                     move.l     [A1]+, [A0]+
0000035E  297C 0000 03E7 001E      move.l     [A4 + 0x1E], 0x3E7
00000366  397C 003B 0026           move.w     [A4 + 0x26], 0x3B /* ';' */
0000036C  396B 000A 0028           move.w     [A4 + 0x28], [A3 + 0xA]
00000372  302B 000A                move.w     D0, [A3 + 0xA]
00000376  48C0                     ext.l      D0
00000378  2940 0022                move.l     [A4 + 0x22], D0
label0000037C:
0000037C  4CDF 1C00                movem.l    A2,A3,A4, [A7]+
00000380  4E5E                     unlink     A6
00000382  2E9F                     move.l     [A7], [A7]+
00000384  4E75                     rts
fn00000386:
00000386  4E56 0000                link       A6, 0
0000038A  48E7 0018                movem.l    -[A7], A3,A4
0000038E  266E 0008                movea.l    A3, [A6 + 0x8]
00000392  302D F48C                move.w     D0, [A5 - 0xB74]
00000396  5240                     addq.w     D0, 1
00000398  3B40 F48C                move.w     [A5 - 0xB74], D0
0000039C  302B FFEE                move.w     D0, [A3 - 0x12]
000003A0  E940                     asl        D0.w, 4
000003A2  322B FFEE                move.w     D1, [A3 - 0x12]
000003A6  E741                     asl        D1.w, 3
000003A8  0640 FDEC                addi.w     D0, 0xFDEC
000003AC  41F5 0000                lea.l      A0, [A5 + D0.w]
000003B0  0641 F8FE                addi.w     D1, 0xF8FE
000003B4  43F5 1000                lea.l      A1, [A5 + D1.w]
000003B8  22D8                     move.l     [A1]+, [A0]+
000003BA  22D8                     move.l     [A1]+, [A0]+
000003BC  302D F48C                move.w     D0, [A5 - 0xB74]
000003C0  C1FC 002A                muls.w     D0, 0x2A /* '*' */
000003C4  0640 F464                addi.w     D0, 0xF464
000003C8  49F5 0000                lea.l      A4, [A5 + D0.w]
000003CC  397C 0019 001A           move.w     [A4 + 0x1A], 0x19
000003D2  396B FFEE 0018           move.w     [A4 + 0x18], [A3 - 0x12]
000003D8  302C 0018                move.w     D0, [A4 + 0x18]
000003DC  C1FC 000C                muls.w     D0, 0xC
000003E0  0640 F98A                addi.w     D0, 0xF98A
000003E4  42B5 0000                clr.l      [A5 + D0.w]
000003E8  397C 0019 0026           move.w     [A4 + 0x26], 0x19
000003EE  302B FFEE                move.w     D0, [A3 - 0x12]
000003F2  E940                     asl        D0.w, 4
000003F4  0640 FDEC                addi.w     D0, 0xFDEC
000003F8  41F5 0000                lea.l      A0, [A5 + D0.w]
000003FC  43EC 0008                lea.l      A1, [A4 + 0x8]
00000400  22D8                     move.l     [A1]+, [A0]+
00000402  22D8                     move.l     [A1]+, [A0]+
00000404  41EC 0008                lea.l      A0, [A4 + 0x8]
00000408  43EC 0010                lea.l      A1, [A4 + 0x10]
0000040C  22D8                     move.l     [A1]+, [A0]+
0000040E  22D8                     move.l     [A1]+, [A0]+
00000410  302B FFEE                move.w     D0, [A3 - 0x12]
00000414  E940                     asl        D0.w, 4
00000416  0640 FDF4                addi.w     D0, 0xFDF4
0000041A  3035 0000                move.w     D0, [A5 + D0.w]
0000041E  48C0                     ext.l      D0
00000420  2940 001E                move.l     [A4 + 0x1E], D0
00000424  594F                     subq.w     A7, 4
00000426  A975                     syscall    TickCount
00000428  295F 0022                move.l     [A4 + 0x22], [A7]+
0000042C  4CDF 1800                movem.l    A3,A4, [A7]+
00000430  4E5E                     unlink     A6
00000432  2E9F                     move.l     [A7], [A7]+
00000434  4E75                     rts
fn00000436:
00000436  4E56 0000                link       A6, 0
0000043A  48E7 0018                movem.l    -[A7], A3,A4
0000043E  266E 0008                movea.l    A3, [A6 + 0x8]
00000442  302D F48C                move.w     D0, [A5 - 0xB74]
00000446  5240                     addq.w     D0, 1
00000448  3B40 F48C                move.w     [A5 - 0xB74], D0
0000044C  302B FFEE                move.w     D0, [A3 - 0x12]
00000450  E940                     asl        D0.w, 4
00000452  0640 FDEA                addi.w     D0, 0xFDEA
00000456  49F5 0000                lea.l      A4, [A5 + D0.w]
0000045A  302C 0008                move.w     D0, [A4 + 0x8]
0000045E  D06C 0004                add.w      D0, [A4 + 0x4]
00000462  48C0                     ext.l      D0
00000464  81FC 0002                divs.w     D0, 0x2
00000468  3740 FFEC                move.w     [A3 - 0x14], D0
0000046C  302B FFEE                move.w     D0, [A3 - 0x12]
00000470  E740                     asl        D0.w, 3
00000472  0640 F8FE                addi.w     D0, 0xF8FE
00000476  4875 0000                pea.l      [A5 + D0.w]
0000047A  302B FFEC                move.w     D0, [A3 - 0x14]
0000047E  0640 FFF4                addi.w     D0, 0xFFF4
00000482  3F00                     move.w     -[A7], D0
00000484  3F2C 000A                move.w     -[A7], [A4 + 0xA]
00000488  302B FFEC                move.w     D0, [A3 - 0x14]
0000048C  5840                     addq.w     D0, 4
0000048E  3F00                     move.w     -[A7], D0
00000490  3F2C 0002                move.w     -[A7], [A4 + 0x2]
00000494  A8A7                     syscall    SetRect
00000496  302D F48C                move.w     D0, [A5 - 0xB74]
0000049A  C1FC 002A                muls.w     D0, 0x2A /* '*' */
0000049E  0640 F464                addi.w     D0, 0xF464
000004A2  49F5 0000                lea.l      A4, [A5 + D0.w]
000004A6  302B FFEE                move.w     D0, [A3 - 0x12]
000004AA  E940                     asl        D0.w, 4
000004AC  0640 FDEC                addi.w     D0, 0xFDEC
000004B0  41F5 0000                lea.l      A0, [A5 + D0.w]
000004B4  43EC 0008                lea.l      A1, [A4 + 0x8]
000004B8  22D8                     move.l     [A1]+, [A0]+
000004BA  22D8                     move.l     [A1]+, [A0]+
000004BC  396C 0008 000C           move.w     [A4 + 0xC], [A4 + 0x8]
000004C2  302C 000C                move.w     D0, [A4 + 0xC]
000004C6  0640 FFF4                addi.w     D0, 0xFFF4
000004CA  3940 0008                move.w     [A4 + 0x8], D0
000004CE  302C 000A                move.w     D0, [A4 + 0xA]
000004D2  5A40                     addq.w     D0, 5
000004D4  3940 000A                move.w     [A4 + 0xA], D0
000004D8  302C 000A                move.w     D0, [A4 + 0xA]
000004DC  0640 0010                addi.w     D0, 0x10
000004E0  3940 000E                move.w     [A4 + 0xE], D0
000004E4  41EC 0008                lea.l      A0, [A4 + 0x8]
000004E8  43EC 0010                lea.l      A1, [A4 + 0x10]
000004EC  22D8                     move.l     [A1]+, [A0]+
000004EE  22D8                     move.l     [A1]+, [A0]+
000004F0  397C 000B 001A           move.w     [A4 + 0x1A], 0xB
000004F6  554F                     subq.w     A7, 2
000004F8  3F3C 0003                move.w     -[A7], 0x3
000004FC  4EAD 024A                jsr        [A5 + 0x24A /* export_69, CODE:5 @ 000000EE */]
00000500  301F                     move.w     D0, [A7]+
00000502  0640 0030                addi.w     D0, 0x30 /* '0' */
00000506  48C0                     ext.l      D0
00000508  2940 0022                move.l     [A4 + 0x22], D0
0000050C  4CDF 1800                movem.l    A3,A4, [A7]+
00000510  4E5E                     unlink     A6
00000512  2E9F                     move.l     [A7], [A7]+
00000514  4E75                     rts
fn00000516:
00000516  4E56 FFEE                link       A6, -0x0012
0000051A  48E7 0038                movem.l    -[A7], A2,A3,A4
0000051E  246E 0008                movea.l    A2, [A6 + 0x8]
00000522  302D F48C                move.w     D0, [A5 - 0xB74]
00000526  5240                     addq.w     D0, 1
00000528  3B40 F48C                move.w     [A5 - 0xB74], D0
0000052C  302A FFEE                move.w     D0, [A2 - 0x12]
00000530  E940                     asl        D0.w, 4
00000532  322A FFEE                move.w     D1, [A2 - 0x12]
00000536  E741                     asl        D1.w, 3
00000538  0640 FDEC                addi.w     D0, 0xFDEC
0000053C  41F5 0000                lea.l      A0, [A5 + D0.w]
00000540  0641 F8FE                addi.w     D1, 0xF8FE
00000544  43F5 1000                lea.l      A1, [A5 + D1.w]
00000548  22D8                     move.l     [A1]+, [A0]+
0000054A  22D8                     move.l     [A1]+, [A0]+
0000054C  302D F48C                move.w     D0, [A5 - 0xB74]
00000550  C1FC 002A                muls.w     D0, 0x2A /* '*' */
00000554  0640 F464                addi.w     D0, 0xF464
00000558  49F5 0000                lea.l      A4, [A5 + D0.w]
0000055C  397C 0020 001A           move.w     [A4 + 0x1A], 0x20 /* ' ' */
00000562  396A FFEE 0018           move.w     [A4 + 0x18], [A2 - 0x12]
00000568  302A FFEE                move.w     D0, [A2 - 0x12]
0000056C  E940                     asl        D0.w, 4
0000056E  0640 FDEC                addi.w     D0, 0xFDEC
00000572  41F5 0000                lea.l      A0, [A5 + D0.w]
00000576  43D4                     lea.l      A1, [A4]
00000578  22D8                     move.l     [A1]+, [A0]+
0000057A  22D8                     move.l     [A1]+, [A0]+
0000057C  41D4                     lea.l      A0, [A4]
0000057E  43EC 0008                lea.l      A1, [A4 + 0x8]
00000582  22D8                     move.l     [A1]+, [A0]+
00000584  22D8                     move.l     [A1]+, [A0]+
00000586  41EC 0008                lea.l      A0, [A4 + 0x8]
0000058A  43EC 0010                lea.l      A1, [A4 + 0x10]
0000058E  22D8                     move.l     [A1]+, [A0]+
00000590  22D8                     move.l     [A1]+, [A0]+
00000592  302A FFEE                move.w     D0, [A2 - 0x12]
00000596  E940                     asl        D0.w, 4
00000598  0640 FDF4                addi.w     D0, 0xFDF4
0000059C  3035 0000                move.w     D0, [A5 + D0.w]
000005A0  EB40                     asl        D0.w, 5
000005A2  48C0                     ext.l      D0
000005A4  2940 001E                move.l     [A4 + 0x1E], D0
000005A8  397C 000C 0026           move.w     [A4 + 0x26], 0xC
000005AE  302C 0004                move.w     D0, [A4 + 0x4]
000005B2  EB40                     asl        D0.w, 5
000005B4  48C0                     ext.l      D0
000005B6  2940 0022                move.l     [A4 + 0x22], D0
000005BA  426C 0028                clr.w      [A4 + 0x28]
000005BE  397C 0035 001C           move.w     [A4 + 0x1C], 0x35 /* '5' */
000005C4  302A FFEE                move.w     D0, [A2 - 0x12]
000005C8  E940                     asl        D0.w, 4
000005CA  0640 FDEA                addi.w     D0, 0xFDEA
000005CE  47F5 0000                lea.l      A3, [A5 + D0.w]
000005D2  4A2D FD97                tst.b      [A5 - 0x269]
000005D6  6738                     beq        +0x3A /* 00000610 */
000005D8  206D BA86                movea.l    A0, [A5 - 0x457A]
000005DC  2068 0002                movea.l    A0, [A0 + 0x2]
000005E0  2F10                     move.l     -[A7], [A0]
000005E2  486D B8E2                pea.l      [A5 - 0x471E]
000005E6  206D BA7E                movea.l    A0, [A5 - 0x4582]
000005EA  2068 0002                movea.l    A0, [A0 + 0x2]
000005EE  2F10                     move.l     -[A7], [A0]
000005F0  3013                     move.w     D0, [A3]
000005F2  E740                     asl        D0.w, 3
000005F4  0640 FAF2                addi.w     D0, 0xFAF2
000005F8  4875 0000                pea.l      [A5 + D0.w]
000005FC  3013                     move.w     D0, [A3]
000005FE  E740                     asl        D0.w, 3
00000600  0640 FAF2                addi.w     D0, 0xFAF2
00000604  4875 0000                pea.l      [A5 + D0.w]
00000608  486B 0002                pea.l      [A3 + 0x2]
0000060C  A817                     syscall    CopyMask
0000060E  602A                     bra        +0x2C /* 0000063A */
label00000610:
00000610  486D B90C                pea.l      [A5 - 0x46F4]
00000614  486D B8E2                pea.l      [A5 - 0x471E]
00000618  486D B8F0                pea.l      [A5 - 0x4710]
0000061C  3013                     move.w     D0, [A3]
0000061E  E740                     asl        D0.w, 3
00000620  0640 FAF2                addi.w     D0, 0xFAF2
00000624  4875 0000                pea.l      [A5 + D0.w]
00000628  3013                     move.w     D0, [A3]
0000062A  E740                     asl        D0.w, 3
0000062C  0640 FAF2                addi.w     D0, 0xFAF2
00000630  4875 0000                pea.l      [A5 + D0.w]
00000634  486B 0002                pea.l      [A3 + 0x2]
00000638  A817                     syscall    CopyMask
label0000063A:
0000063A  4CDF 1C00                movem.l    A2,A3,A4, [A7]+
0000063E  4E5E                     unlink     A6
00000640  2E9F                     move.l     [A7], [A7]+
00000642  4E75                     rts
fn00000644:
00000644  4E56 0000                link       A6, 0
00000648  48E7 0018                movem.l    -[A7], A3,A4
0000064C  286E 0008                movea.l    A4, [A6 + 0x8]
00000650  302D F48C                move.w     D0, [A5 - 0xB74]
00000654  5240                     addq.w     D0, 1
00000656  3B40 F48C                move.w     [A5 - 0xB74], D0
0000065A  302C FFEE                move.w     D0, [A4 - 0x12]
0000065E  E940                     asl        D0.w, 4
00000660  0640 FDEA                addi.w     D0, 0xFDEA
00000664  47F5 0000                lea.l      A3, [A5 + D0.w]
00000668  302B 0004                move.w     D0, [A3 + 0x4]
0000066C  5640                     addq.w     D0, 3
0000066E  3940 FFEC                move.w     [A4 - 0x14], D0
00000672  302B 0006                move.w     D0, [A3 + 0x6]
00000676  5740                     subq.w     D0, 3
00000678  3940 FFEA                move.w     [A4 - 0x16], D0
0000067C  302C FFEE                move.w     D0, [A4 - 0x12]
00000680  E740                     asl        D0.w, 3
00000682  0640 F8FE                addi.w     D0, 0xF8FE
00000686  4875 0000                pea.l      [A5 + D0.w]
0000068A  4267                     clr.w      -[A7]
0000068C  4267                     clr.w      -[A7]
0000068E  3F3C 0020                move.w     -[A7], 0x20 /* ' ' */
00000692  3F3C 001F                move.w     -[A7], 0x1F
00000696  A8A7                     syscall    SetRect
00000698  302C FFEE                move.w     D0, [A4 - 0x12]
0000069C  E740                     asl        D0.w, 3
0000069E  0640 F8FE                addi.w     D0, 0xF8FE
000006A2  4875 0000                pea.l      [A5 + D0.w]
000006A6  3F2C FFEC                move.w     -[A7], [A4 - 0x14]
000006AA  3F2C FFEA                move.w     -[A7], [A4 - 0x16]
000006AE  A8A8                     syscall    OffsetRect
000006B0  486C FFE2                pea.l      [A4 - 0x1E]
000006B4  3F2C FFEC                move.w     -[A7], [A4 - 0x14]
000006B8  3F2B 000A                move.w     -[A7], [A3 + 0xA]
000006BC  302C FFEC                move.w     D0, [A4 - 0x14]
000006C0  0640 0020                addi.w     D0, 0x20 /* ' ' */
000006C4  3F00                     move.w     -[A7], D0
000006C6  3F2B 0002                move.w     -[A7], [A3 + 0x2]
000006CA  A8A7                     syscall    SetRect
000006CC  4A2D FD97                tst.b      [A5 - 0x269]
000006D0  6738                     beq        +0x3A /* 0000070A */
000006D2  206D BA86                movea.l    A0, [A5 - 0x457A]
000006D6  2068 0002                movea.l    A0, [A0 + 0x2]
000006DA  2F10                     move.l     -[A7], [A0]
000006DC  486D B8E2                pea.l      [A5 - 0x471E]
000006E0  206D BA7E                movea.l    A0, [A5 - 0x4582]
000006E4  2068 0002                movea.l    A0, [A0 + 0x2]
000006E8  2F10                     move.l     -[A7], [A0]
000006EA  3013                     move.w     D0, [A3]
000006EC  E740                     asl        D0.w, 3
000006EE  0640 FAF2                addi.w     D0, 0xFAF2
000006F2  4875 0000                pea.l      [A5 + D0.w]
000006F6  3013                     move.w     D0, [A3]
000006F8  E740                     asl        D0.w, 3
000006FA  0640 FAF2                addi.w     D0, 0xFAF2
000006FE  4875 0000                pea.l      [A5 + D0.w]
00000702  486B 0002                pea.l      [A3 + 0x2]
00000706  A817                     syscall    CopyMask
00000708  602A                     bra        +0x2C /* 00000734 */
label0000070A:
0000070A  486D B90C                pea.l      [A5 - 0x46F4]
0000070E  486D B8E2                pea.l      [A5 - 0x471E]
00000712  486D B8F0                pea.l      [A5 - 0x4710]
00000716  3013                     move.w     D0, [A3]
00000718  E740                     asl        D0.w, 3
0000071A  0640 FAF2                addi.w     D0, 0xFAF2
0000071E  4875 0000                pea.l      [A5 + D0.w]
00000722  3013                     move.w     D0, [A3]
00000724  E740                     asl        D0.w, 3
00000726  0640 FAF2                addi.w     D0, 0xFAF2
0000072A  4875 0000                pea.l      [A5 + D0.w]
0000072E  486B 0002                pea.l      [A3 + 0x2]
00000732  A817                     syscall    CopyMask
label00000734:
00000734  594F                     subq.w     A7, 4
00000736  A8D8                     syscall    NewRgn
00000738  2B5F F8FA                move.l     [A5 - 0x706], [A7]+
0000073C  2F2D F8FA                move.l     -[A7], [A5 - 0x706]
00000740  486C FFE2                pea.l      [A4 - 0x1E]
00000744  A8DF                     syscall    RectRgn
00000746  1B7C 0001 FD86           move.b     [A5 - 0x27A], 0x1
0000074C  302D F48C                move.w     D0, [A5 - 0xB74]
00000750  C1FC 002A                muls.w     D0, 0x2A /* '*' */
00000754  0640 F464                addi.w     D0, 0xF464
00000758  47F5 0000                lea.l      A3, [A5 + D0.w]
0000075C  377C 003C 001C           move.w     [A3 + 0x1C], 0x3C /* '<' */
00000762  377C 0021 001A           move.w     [A3 + 0x1A], 0x21 /* '!' */
00000768  376C FFEE 0018           move.w     [A3 + 0x18], [A4 - 0x12]
0000076E  302C FFEE                move.w     D0, [A4 - 0x12]
00000772  E740                     asl        D0.w, 3
00000774  0640 F8FE                addi.w     D0, 0xF8FE
00000778  41F5 0000                lea.l      A0, [A5 + D0.w]
0000077C  43EB 0008                lea.l      A1, [A3 + 0x8]
00000780  22D8                     move.l     [A1]+, [A0]+
00000782  22D8                     move.l     [A1]+, [A0]+
00000784  41EB 0008                lea.l      A0, [A3 + 0x8]
00000788  43EB 0010                lea.l      A1, [A3 + 0x10]
0000078C  22D8                     move.l     [A1]+, [A0]+
0000078E  22D8                     move.l     [A1]+, [A0]+
00000790  302C FFEA                move.w     D0, [A4 - 0x16]
00000794  EB40                     asl        D0.w, 5
00000796  48C0                     ext.l      D0
00000798  2740 001E                move.l     [A3 + 0x1E], D0
0000079C  377C 0008 0026           move.w     [A3 + 0x26], 0x8
000007A2  276B 001E 0022           move.l     [A3 + 0x22], [A3 + 0x1E]
000007A8  302C FFEE                move.w     D0, [A4 - 0x12]
000007AC  E940                     asl        D0.w, 4
000007AE  0640 FDF4                addi.w     D0, 0xFDF4
000007B2  3035 0000                move.w     D0, [A5 + D0.w]
000007B6  0640 0020                addi.w     D0, 0x20 /* ' ' */
000007BA  EB40                     asl        D0.w, 5
000007BC  3940 FFEC                move.w     [A4 - 0x14], D0
000007C0  426B 0028                clr.w      [A3 + 0x28]
label000007C4:
000007C4  302B 0028                move.w     D0, [A3 + 0x28]
000007C8  D06B 0026                add.w      D0, [A3 + 0x26]
000007CC  3740 0028                move.w     [A3 + 0x28], D0
000007D0  302C FFEC                move.w     D0, [A4 - 0x14]
000007D4  D06B 0028                add.w      D0, [A3 + 0x28]
000007D8  3940 FFEC                move.w     [A4 - 0x14], D0
000007DC  302C FFEC                move.w     D0, [A4 - 0x14]
000007E0  48C0                     ext.l      D0
000007E2  B0AB 001E                cmp.l      D0, [A3 + 0x1E]
000007E6  6FDC                     ble        -0x22 /* 000007C4 */
000007E8  302B 0028                move.w     D0, [A3 + 0x28]
000007EC  4440                     neg.w      D0
000007EE  3740 0028                move.w     [A3 + 0x28], D0
000007F2  4CDF 1800                movem.l    A3,A4, [A7]+
000007F6  4E5E                     unlink     A6
000007F8  2E9F                     move.l     [A7], [A7]+
000007FA  4E75                     rts
fn000007FC:
000007FC  4E56 0000                link       A6, 0
00000800  48E7 0018                movem.l    -[A7], A3,A4
00000804  266E 0008                movea.l    A3, [A6 + 0x8]
00000808  302D F48C                move.w     D0, [A5 - 0xB74]
0000080C  5240                     addq.w     D0, 1
0000080E  3B40 F48C                move.w     [A5 - 0xB74], D0
00000812  302B FFEE                move.w     D0, [A3 - 0x12]
00000816  E940                     asl        D0.w, 4
00000818  322B FFEE                move.w     D1, [A3 - 0x12]
0000081C  E741                     asl        D1.w, 3
0000081E  0640 FDEC                addi.w     D0, 0xFDEC
00000822  41F5 0000                lea.l      A0, [A5 + D0.w]
00000826  0641 F8FE                addi.w     D1, 0xF8FE
0000082A  43F5 1000                lea.l      A1, [A5 + D1.w]
0000082E  22D8                     move.l     [A1]+, [A0]+
00000830  22D8                     move.l     [A1]+, [A0]+
00000832  302D F48C                move.w     D0, [A5 - 0xB74]
00000836  C1FC 002A                muls.w     D0, 0x2A /* '*' */
0000083A  0640 F464                addi.w     D0, 0xF464
0000083E  49F5 0000                lea.l      A4, [A5 + D0.w]
00000842  397C 0022 001A           move.w     [A4 + 0x1A], 0x22 /* '\"' */
00000848  396B FFEE 0018           move.w     [A4 + 0x18], [A3 - 0x12]
0000084E  302B FFEE                move.w     D0, [A3 - 0x12]
00000852  E940                     asl        D0.w, 4
00000854  0640 FDEC                addi.w     D0, 0xFDEC
00000858  41F5 0000                lea.l      A0, [A5 + D0.w]
0000085C  43EC 0008                lea.l      A1, [A4 + 0x8]
00000860  22D8                     move.l     [A1]+, [A0]+
00000862  22D8                     move.l     [A1]+, [A0]+
00000864  41EC 0008                lea.l      A0, [A4 + 0x8]
00000868  43EC 0010                lea.l      A1, [A4 + 0x10]
0000086C  22D8                     move.l     [A1]+, [A0]+
0000086E  22D8                     move.l     [A1]+, [A0]+
00000870  302B FFEE                move.w     D0, [A3 - 0x12]
00000874  E940                     asl        D0.w, 4
00000876  0640 FDF0                addi.w     D0, 0xFDF0
0000087A  3035 0000                move.w     D0, [A5 + D0.w]
0000087E  EB40                     asl        D0.w, 5
00000880  48C0                     ext.l      D0
00000882  2940 001E                move.l     [A4 + 0x1E], D0
00000886  397C 0008 0026           move.w     [A4 + 0x26], 0x8
0000088C  296C 001E 0022           move.l     [A4 + 0x22], [A4 + 0x1E]
00000892  302B FFEE                move.w     D0, [A3 - 0x12]
00000896  E940                     asl        D0.w, 4
00000898  0640 FDF4                addi.w     D0, 0xFDF4
0000089C  3035 0000                move.w     D0, [A5 + D0.w]
000008A0  0640 0020                addi.w     D0, 0x20 /* ' ' */
000008A4  EB40                     asl        D0.w, 5
000008A6  3740 FFEC                move.w     [A3 - 0x14], D0
000008AA  426C 0028                clr.w      [A4 + 0x28]
label000008AE:
000008AE  302C 0028                move.w     D0, [A4 + 0x28]
000008B2  D06C 0026                add.w      D0, [A4 + 0x26]
000008B6  3940 0028                move.w     [A4 + 0x28], D0
000008BA  302B FFEC                move.w     D0, [A3 - 0x14]
000008BE  D06C 0028                add.w      D0, [A4 + 0x28]
000008C2  3740 FFEC                move.w     [A3 - 0x14], D0
000008C6  302B FFEC                move.w     D0, [A3 - 0x14]
000008CA  48C0                     ext.l      D0
000008CC  B0AC 001E                cmp.l      D0, [A4 + 0x1E]
000008D0  6FDC                     ble        -0x22 /* 000008AE */
000008D2  302C 0028                move.w     D0, [A4 + 0x28]
000008D6  4440                     neg.w      D0
000008D8  3940 0028                move.w     [A4 + 0x28], D0
000008DC  4CDF 1800                movem.l    A3,A4, [A7]+
000008E0  4E5E                     unlink     A6
000008E2  2E9F                     move.l     [A7], [A7]+
000008E4  4E75                     rts
fn000008E6:
000008E6  4E56 0000                link       A6, 0
000008EA  48E7 0018                movem.l    -[A7], A3,A4
000008EE  266E 0008                movea.l    A3, [A6 + 0x8]
000008F2  302D F48C                move.w     D0, [A5 - 0xB74]
000008F6  5240                     addq.w     D0, 1
000008F8  3B40 F48C                move.w     [A5 - 0xB74], D0
000008FC  302B FFEE                move.w     D0, [A3 - 0x12]
00000900  E940                     asl        D0.w, 4
00000902  0640 FDEA                addi.w     D0, 0xFDEA
00000906  49F5 0000                lea.l      A4, [A5 + D0.w]
0000090A  302C 0004                move.w     D0, [A4 + 0x4]
0000090E  5040                     addq.w     D0, 8
00000910  3740 FFEC                move.w     [A3 - 0x14], D0
00000914  302C 0002                move.w     D0, [A4 + 0x2]
00000918  0640 0018                addi.w     D0, 0x18
0000091C  3740 FFEA                move.w     [A3 - 0x16], D0
00000920  302B FFEE                move.w     D0, [A3 - 0x12]
00000924  E740                     asl        D0.w, 3
00000926  0640 F8FE                addi.w     D0, 0xF8FE
0000092A  4875 0000                pea.l      [A5 + D0.w]
0000092E  4267                     clr.w      -[A7]
00000930  4267                     clr.w      -[A7]
00000932  3F3C 0010                move.w     -[A7], 0x10
00000936  3F3C 0010                move.w     -[A7], 0x10
0000093A  A8A7                     syscall    SetRect
0000093C  302B FFEE                move.w     D0, [A3 - 0x12]
00000940  E740                     asl        D0.w, 3
00000942  0640 F8FE                addi.w     D0, 0xF8FE
00000946  4875 0000                pea.l      [A5 + D0.w]
0000094A  3F2B FFEC                move.w     -[A7], [A3 - 0x14]
0000094E  3F2B FFEA                move.w     -[A7], [A3 - 0x16]
00000952  A8A8                     syscall    OffsetRect
00000954  4A2D FD97                tst.b      [A5 - 0x269]
00000958  6738                     beq        +0x3A /* 00000992 */
0000095A  206D BA86                movea.l    A0, [A5 - 0x457A]
0000095E  2068 0002                movea.l    A0, [A0 + 0x2]
00000962  2F10                     move.l     -[A7], [A0]
00000964  486D B8E2                pea.l      [A5 - 0x471E]
00000968  206D BA7E                movea.l    A0, [A5 - 0x4582]
0000096C  2068 0002                movea.l    A0, [A0 + 0x2]
00000970  2F10                     move.l     -[A7], [A0]
00000972  3014                     move.w     D0, [A4]
00000974  E740                     asl        D0.w, 3
00000976  0640 FAF2                addi.w     D0, 0xFAF2
0000097A  4875 0000                pea.l      [A5 + D0.w]
0000097E  3014                     move.w     D0, [A4]
00000980  E740                     asl        D0.w, 3
00000982  0640 FAF2                addi.w     D0, 0xFAF2
00000986  4875 0000                pea.l      [A5 + D0.w]
0000098A  486C 0002                pea.l      [A4 + 0x2]
0000098E  A817                     syscall    CopyMask
00000990  602A                     bra        +0x2C /* 000009BC */
label00000992:
00000992  486D B90C                pea.l      [A5 - 0x46F4]
00000996  486D B8E2                pea.l      [A5 - 0x471E]
0000099A  486D B8F0                pea.l      [A5 - 0x4710]
0000099E  3014                     move.w     D0, [A4]
000009A0  E740                     asl        D0.w, 3
000009A2  0640 FAF2                addi.w     D0, 0xFAF2
000009A6  4875 0000                pea.l      [A5 + D0.w]
000009AA  3014                     move.w     D0, [A4]
000009AC  E740                     asl        D0.w, 3
000009AE  0640 FAF2                addi.w     D0, 0xFAF2
000009B2  4875 0000                pea.l      [A5 + D0.w]
000009B6  486C 0002                pea.l      [A4 + 0x2]
000009BA  A817                     syscall    CopyMask
label000009BC:
000009BC  302D F48C                move.w     D0, [A5 - 0xB74]
000009C0  C1FC 002A                muls.w     D0, 0x2A /* '*' */
000009C4  0640 F464                addi.w     D0, 0xF464
000009C8  49F5 0000                lea.l      A4, [A5 + D0.w]
000009CC  397C 0045 001C           move.w     [A4 + 0x1C], 0x45 /* 'E' */
000009D2  397C 0023 001A           move.w     [A4 + 0x1A], 0x23 /* '#' */
000009D8  396B FFEE 0018           move.w     [A4 + 0x18], [A3 - 0x12]
000009DE  302B FFEE                move.w     D0, [A3 - 0x12]
000009E2  E740                     asl        D0.w, 3
000009E4  0640 F8FE                addi.w     D0, 0xF8FE
000009E8  41F5 0000                lea.l      A0, [A5 + D0.w]
000009EC  43EC 0008                lea.l      A1, [A4 + 0x8]
000009F0  22D8                     move.l     [A1]+, [A0]+
000009F2  22D8                     move.l     [A1]+, [A0]+
000009F4  41EC 0008                lea.l      A0, [A4 + 0x8]
000009F8  43EC 0010                lea.l      A1, [A4 + 0x10]
000009FC  22D8                     move.l     [A1]+, [A0]+
000009FE  22D8                     move.l     [A1]+, [A0]+
00000A00  302B FFEA                move.w     D0, [A3 - 0x16]
00000A04  EB40                     asl        D0.w, 5
00000A06  48C0                     ext.l      D0
00000A08  2940 001E                move.l     [A4 + 0x1E], D0
00000A0C  397C 0008 0026           move.w     [A4 + 0x26], 0x8
00000A12  296C 001E 0022           move.l     [A4 + 0x22], [A4 + 0x1E]
00000A18  302B FFEE                move.w     D0, [A3 - 0x12]
00000A1C  E940                     asl        D0.w, 4
00000A1E  0640 FDF4                addi.w     D0, 0xFDF4
00000A22  3035 0000                move.w     D0, [A5 + D0.w]
00000A26  0640 0020                addi.w     D0, 0x20 /* ' ' */
00000A2A  EB40                     asl        D0.w, 5
00000A2C  3740 FFEC                move.w     [A3 - 0x14], D0
00000A30  426C 0028                clr.w      [A4 + 0x28]
label00000A34:
00000A34  302C 0028                move.w     D0, [A4 + 0x28]
00000A38  D06C 0026                add.w      D0, [A4 + 0x26]
00000A3C  3940 0028                move.w     [A4 + 0x28], D0
00000A40  302B FFEC                move.w     D0, [A3 - 0x14]
00000A44  D06C 0028                add.w      D0, [A4 + 0x28]
00000A48  3740 FFEC                move.w     [A3 - 0x14], D0
00000A4C  302B FFEC                move.w     D0, [A3 - 0x14]
00000A50  48C0                     ext.l      D0
00000A52  B0AC 001E                cmp.l      D0, [A4 + 0x1E]
00000A56  6FDC                     ble        -0x22 /* 00000A34 */
00000A58  302C 0028                move.w     D0, [A4 + 0x28]
00000A5C  4440                     neg.w      D0
00000A5E  3940 0028                move.w     [A4 + 0x28], D0
00000A62  4CDF 1800                movem.l    A3,A4, [A7]+
00000A66  4E5E                     unlink     A6
00000A68  2E9F                     move.l     [A7], [A7]+
00000A6A  4E75                     rts
fn00000A6C:
00000A6C  4E56 0000                link       A6, 0
00000A70  48E7 0018                movem.l    -[A7], A3,A4
00000A74  286E 0008                movea.l    A4, [A6 + 0x8]
00000A78  302D F48C                move.w     D0, [A5 - 0xB74]
00000A7C  5240                     addq.w     D0, 1
00000A7E  3B40 F48C                move.w     [A5 - 0xB74], D0
00000A82  302C FFEE                move.w     D0, [A4 - 0x12]
00000A86  E940                     asl        D0.w, 4
00000A88  0640 FDEA                addi.w     D0, 0xFDEA
00000A8C  47F5 0000                lea.l      A3, [A5 + D0.w]
00000A90  396B 0004 FFEC           move.w     [A4 - 0x14], [A3 + 0x4]
00000A96  396B 0002 FFEA           move.w     [A4 - 0x16], [A3 + 0x2]
00000A9C  302C FFEE                move.w     D0, [A4 - 0x12]
00000AA0  E740                     asl        D0.w, 3
00000AA2  0640 F8FE                addi.w     D0, 0xF8FE
00000AA6  4875 0000                pea.l      [A5 + D0.w]
00000AAA  302C FFEC                move.w     D0, [A4 - 0x14]
00000AAE  0640 FF80                addi.w     D0, 0xFF80
00000AB2  3F00                     move.w     -[A7], D0
00000AB4  302C FFEA                move.w     D0, [A4 - 0x16]
00000AB8  0640 FF80                addi.w     D0, 0xFF80
00000ABC  3F00                     move.w     -[A7], D0
00000ABE  3F2C FFEC                move.w     -[A7], [A4 - 0x14]
00000AC2  3F2C FFEA                move.w     -[A7], [A4 - 0x16]
00000AC6  A8A7                     syscall    SetRect
00000AC8  302C FFEE                move.w     D0, [A4 - 0x12]
00000ACC  E740                     asl        D0.w, 3
00000ACE  0640 F8FE                addi.w     D0, 0xF8FE
00000AD2  0C75 0018 0000           cmpi.w     [A5 + D0.w], 0x18
00000AD8  6C10                     bge        +0x12 /* 00000AEA */
00000ADA  302C FFEE                move.w     D0, [A4 - 0x12]
00000ADE  E740                     asl        D0.w, 3
00000AE0  0640 F8FE                addi.w     D0, 0xF8FE
00000AE4  3BBC 0018 0000           move.w     [A5 + D0.w], 0x18
label00000AEA:
00000AEA  302C FFEE                move.w     D0, [A4 - 0x12]
00000AEE  E740                     asl        D0.w, 3
00000AF0  0640 F900                addi.w     D0, 0xF900
00000AF4  4A75 0000                tst.w      [A5 + D0.w]
00000AF8  6C0E                     bge        +0x10 /* 00000B08 */
00000AFA  302C FFEE                move.w     D0, [A4 - 0x12]
00000AFE  E740                     asl        D0.w, 3
00000B00  0640 F900                addi.w     D0, 0xF900
00000B04  4275 0000                clr.w      [A5 + D0.w]
label00000B08:
00000B08  302D F48C                move.w     D0, [A5 - 0xB74]
00000B0C  C1FC 002A                muls.w     D0, 0x2A /* '*' */
00000B10  0640 F464                addi.w     D0, 0xF464
00000B14  47F5 0000                lea.l      A3, [A5 + D0.w]
00000B18  426B 001C                clr.w      [A3 + 0x1C]
00000B1C  377C 0024 001A           move.w     [A3 + 0x1A], 0x24 /* '$' */
00000B22  376C FFEE 0018           move.w     [A3 + 0x18], [A4 - 0x12]
00000B28  486B 0008                pea.l      [A3 + 0x8]
00000B2C  4267                     clr.w      -[A7]
00000B2E  4267                     clr.w      -[A7]
00000B30  4267                     clr.w      -[A7]
00000B32  4267                     clr.w      -[A7]
00000B34  A8A7                     syscall    SetRect
00000B36  41EB 0008                lea.l      A0, [A3 + 0x8]
00000B3A  43EB 0010                lea.l      A1, [A3 + 0x10]
00000B3E  22D8                     move.l     [A1]+, [A0]+
00000B40  22D8                     move.l     [A1]+, [A0]+
00000B42  302C FFEE                move.w     D0, [A4 - 0x12]
00000B46  E940                     asl        D0.w, 4
00000B48  0640 FDF4                addi.w     D0, 0xFDF4
00000B4C  3035 0000                move.w     D0, [A5 + D0.w]
00000B50  48C0                     ext.l      D0
00000B52  2740 0022                move.l     [A3 + 0x22], D0
00000B56  554F                     subq.w     A7, 2
00000B58  3F3C 0078                move.w     -[A7], 0x78 /* 'x' */
00000B5C  4EAD 024A                jsr        [A5 + 0x24A /* export_69, CODE:5 @ 000000EE */]
00000B60  301F                     move.w     D0, [A7]+
00000B62  48C0                     ext.l      D0
00000B64  D0AB 0022                add.l      D0, [A3 + 0x22]
00000B68  2740 001E                move.l     [A3 + 0x1E], D0
00000B6C  4CDF 1800                movem.l    A3,A4, [A7]+
00000B70  4E5E                     unlink     A6
00000B72  2E9F                     move.l     [A7], [A7]+
00000B74  4E75                     rts
fn00000B76:
00000B76  4E56 0000                link       A6, 0
00000B7A  302D FDBA                move.w     D0, [A5 - 0x246]
00000B7E  5340                     subq.w     D0, 1
00000B80  3B40 FDBA                move.w     [A5 - 0x246], D0
00000B84  4E5E                     unlink     A6
00000B86  2E9F                     move.l     [A7], [A7]+
00000B88  4E75                     rts
fn00000B8A:
00000B8A  4E56 0000                link       A6, 0
00000B8E  48E7 0018                movem.l    -[A7], A3,A4
00000B92  286E 0008                movea.l    A4, [A6 + 0x8]
00000B96  302D FDBA                move.w     D0, [A5 - 0x246]
00000B9A  5340                     subq.w     D0, 1
00000B9C  3B40 FDBA                move.w     [A5 - 0x246], D0
00000BA0  302C FFEE                move.w     D0, [A4 - 0x12]
00000BA4  E940                     asl        D0.w, 4
00000BA6  0640 FDEA                addi.w     D0, 0xFDEA
00000BAA  47F5 0000                lea.l      A3, [A5 + D0.w]
00000BAE  41EB 0002                lea.l      A0, [A3 + 0x2]
00000BB2  43EC FFE2                lea.l      A1, [A4 - 0x1E]
00000BB6  22D8                     move.l     [A1]+, [A0]+
00000BB8  22D8                     move.l     [A1]+, [A0]+
00000BBA  486C FFE2                pea.l      [A4 - 0x1E]
00000BBE  3F3C 0005                move.w     -[A7], 0x5
00000BC2  3F3C 0005                move.w     -[A7], 0x5
00000BC6  A8A9                     syscall    InsetRect
00000BC8  4CDF 1800                movem.l    A3,A4, [A7]+
00000BCC  4E5E                     unlink     A6
00000BCE  2E9F                     move.l     [A7], [A7]+
00000BD0  4E75                     rts
fn00000BD2:
00000BD2  4E56 FFE0                link       A6, -0x0020
00000BD6  48E7 0018                movem.l    -[A7], A3,A4
00000BDA  422D FD87                clr.b      [A5 - 0x279]
00000BDE  0C6D 0002 FDF8           cmpi.w     [A5 - 0x208], 0x2
00000BE4  6608                     bne        +0xA /* 00000BEE */
00000BE6  1B7C 0001 FD82           move.b     [A5 - 0x27E], 0x1
00000BEC  6004                     bra        +0x6 /* 00000BF2 */
label00000BEE:
00000BEE  422D FD82                clr.b      [A5 - 0x27E]
label00000BF2:
00000BF2  0C6D 0001 FDF8           cmpi.w     [A5 - 0x208], 0x1
00000BF8  6608                     bne        +0xA /* 00000C02 */
00000BFA  1B7C 0001 FD83           move.b     [A5 - 0x27D], 0x1
00000C00  6004                     bra        +0x6 /* 00000C06 */
label00000C02:
00000C02  422D FD83                clr.b      [A5 - 0x27D]
label00000C06:
00000C06  426D F48C                clr.w      [A5 - 0xB74]
00000C0A  3B6D FDDA FDBA           move.w     [A5 - 0x246], [A5 - 0x226]
00000C10  3D6D FDBA FFEA           move.w     [A6 - 0x16], [A5 - 0x246]
00000C16  3D6E FFEA FFE0           move.w     [A6 - 0x20], [A6 - 0x16]
00000C1C  3D7C 0001 FFEE           move.w     [A6 - 0x12], 0x1
00000C22  6000 0872                bra        +0x874 /* 00001496 */
label00000C26:
00000C26  302E FFEE                move.w     D0, [A6 - 0x12]
00000C2A  E940                     asl        D0.w, 4
00000C2C  0640 FDEA                addi.w     D0, 0xFDEA
00000C30  49F5 0000                lea.l      A4, [A5 + D0.w]
00000C34  3014                     move.w     D0, [A4]
00000C36  6000 034A                bra        +0x34C /* 00000F82 */
00000C3A  302E FFEE                move.w     D0, [A6 - 0x12]
00000C3E  E740                     asl        D0.w, 3
00000C40  41EC 0002                lea.l      A0, [A4 + 0x2]
00000C44  0640 F8FE                addi.w     D0, 0xF8FE
00000C48  43F5 0000                lea.l      A1, [A5 + D0.w]
00000C4C  22D8                     move.l     [A1]+, [A0]+
00000C4E  22D8                     move.l     [A1]+, [A0]+
00000C50  6000 03B2                bra        +0x3B4 /* 00001004 */
00000C54  302C 0008                move.w     D0, [A4 + 0x8]
00000C58  D06C 0004                add.w      D0, [A4 + 0x4]
00000C5C  48C0                     ext.l      D0
00000C5E  81FC 0002                divs.w     D0, 0x2
00000C62  3D40 FFEC                move.w     [A6 - 0x14], D0
00000C66  302E FFEE                move.w     D0, [A6 - 0x12]
00000C6A  E740                     asl        D0.w, 3
00000C6C  0640 F8FE                addi.w     D0, 0xF8FE
00000C70  4875 0000                pea.l      [A5 + D0.w]
00000C74  302E FFEC                move.w     D0, [A6 - 0x14]
00000C78  5140                     subq.w     D0, 8
00000C7A  3F00                     move.w     -[A7], D0
00000C7C  3F2C 000A                move.w     -[A7], [A4 + 0xA]
00000C80  302E FFEC                move.w     D0, [A6 - 0x14]
00000C84  5040                     addq.w     D0, 8
00000C86  3F00                     move.w     -[A7], D0
00000C88  3F3C 0145                move.w     -[A7], 0x145
00000C8C  A8A7                     syscall    SetRect
00000C8E  6000 0374                bra        +0x376 /* 00001004 */
00000C92  302C 0008                move.w     D0, [A4 + 0x8]
00000C96  D06C 0004                add.w      D0, [A4 + 0x4]
00000C9A  48C0                     ext.l      D0
00000C9C  81FC 0002                divs.w     D0, 0x2
00000CA0  3D40 FFEC                move.w     [A6 - 0x14], D0
00000CA4  302E FFEE                move.w     D0, [A6 - 0x12]
00000CA8  E740                     asl        D0.w, 3
00000CAA  0640 F8FE                addi.w     D0, 0xF8FE
00000CAE  4875 0000                pea.l      [A5 + D0.w]
00000CB2  302E FFEC                move.w     D0, [A6 - 0x14]
00000CB6  5140                     subq.w     D0, 8
00000CB8  3F00                     move.w     -[A7], D0
00000CBA  3F3C 0018                move.w     -[A7], 0x18
00000CBE  302E FFEC                move.w     D0, [A6 - 0x14]
00000CC2  5040                     addq.w     D0, 8
00000CC4  3F00                     move.w     -[A7], D0
00000CC6  3F2C 000A                move.w     -[A7], [A4 + 0xA]
00000CCA  A8A7                     syscall    SetRect
00000CCC  6000 0336                bra        +0x338 /* 00001004 */
00000CD0  4A2C 000E                tst.b      [A4 + 0xE]
00000CD4  673E                     beq        +0x40 /* 00000D14 */
00000CD6  302C 0008                move.w     D0, [A4 + 0x8]
00000CDA  D06C 0004                add.w      D0, [A4 + 0x4]
00000CDE  48C0                     ext.l      D0
00000CE0  81FC 0002                divs.w     D0, 0x2
00000CE4  3D40 FFEC                move.w     [A6 - 0x14], D0
00000CE8  302E FFEE                move.w     D0, [A6 - 0x12]
00000CEC  E740                     asl        D0.w, 3
00000CEE  0640 F8FE                addi.w     D0, 0xF8FE
00000CF2  4875 0000                pea.l      [A5 + D0.w]
00000CF6  302E FFEC                move.w     D0, [A6 - 0x14]
00000CFA  5140                     subq.w     D0, 8
00000CFC  3F00                     move.w     -[A7], D0
00000CFE  3F3C 0018                move.w     -[A7], 0x18
00000D02  302E FFEC                move.w     D0, [A6 - 0x14]
00000D06  5040                     addq.w     D0, 8
00000D08  3F00                     move.w     -[A7], D0
00000D0A  3F2C 000A                move.w     -[A7], [A4 + 0xA]
00000D0E  A8A7                     syscall    SetRect
00000D10  6000 02F2                bra        +0x2F4 /* 00001004 */
label00000D14:
00000D14  302E FFEE                move.w     D0, [A6 - 0x12]
00000D18  E740                     asl        D0.w, 3
00000D1A  41EC 0002                lea.l      A0, [A4 + 0x2]
00000D1E  0640 F8FE                addi.w     D0, 0xF8FE
00000D22  43F5 0000                lea.l      A1, [A5 + D0.w]
00000D26  22D8                     move.l     [A1]+, [A0]+
00000D28  22D8                     move.l     [A1]+, [A0]+
00000D2A  302E FFEE                move.w     D0, [A6 - 0x12]
00000D2E  E740                     asl        D0.w, 3
00000D30  0640 F8FE                addi.w     D0, 0xF8FE
00000D34  3035 0000                move.w     D0, [A5 + D0.w]
00000D38  5040                     addq.w     D0, 8
00000D3A  322E FFEE                move.w     D1, [A6 - 0x12]
00000D3E  E741                     asl        D1.w, 3
00000D40  0641 F902                addi.w     D1, 0xF902
00000D44  3B80 1000                move.w     [A5 + D1.w], D0
00000D48  6000 02BA                bra        +0x2BC /* 00001004 */
00000D4C  2F0E                     move.l     -[A7], A6
00000D4E  4EBA F6E6                jsr        [PC - 0x91A /* 00000436 */]
00000D52  6000 02B0                bra        +0x2B2 /* 00001004 */
00000D56  302E FFEE                move.w     D0, [A6 - 0x12]
00000D5A  E740                     asl        D0.w, 3
00000D5C  0640 F8FE                addi.w     D0, 0xF8FE
00000D60  4875 0000                pea.l      [A5 + D0.w]
00000D64  3F2C 000A                move.w     -[A7], [A4 + 0xA]
00000D68  302C 0002                move.w     D0, [A4 + 0x2]
00000D6C  0640 000A                addi.w     D0, 0xA /* '\n' */
00000D70  3F00                     move.w     -[A7], D0
00000D72  3F2C 0004                move.w     -[A7], [A4 + 0x4]
00000D76  302C 0002                move.w     D0, [A4 + 0x2]
00000D7A  0640 001E                addi.w     D0, 0x1E
00000D7E  3F00                     move.w     -[A7], D0
00000D80  A8A7                     syscall    SetRect
00000D82  6000 0280                bra        +0x282 /* 00001004 */
00000D86  302E FFEE                move.w     D0, [A6 - 0x12]
00000D8A  E740                     asl        D0.w, 3
00000D8C  0640 F8FE                addi.w     D0, 0xF8FE
00000D90  4875 0000                pea.l      [A5 + D0.w]
00000D94  3F2C 0008                move.w     -[A7], [A4 + 0x8]
00000D98  302C 0002                move.w     D0, [A4 + 0x2]
00000D9C  0640 000A                addi.w     D0, 0xA /* '\n' */
00000DA0  3F00                     move.w     -[A7], D0
00000DA2  3F2C 000A                move.w     -[A7], [A4 + 0xA]
00000DA6  302C 0002                move.w     D0, [A4 + 0x2]
00000DAA  0640 001E                addi.w     D0, 0x1E
00000DAE  3F00                     move.w     -[A7], D0
00000DB0  A8A7                     syscall    SetRect
00000DB2  6000 0250                bra        +0x252 /* 00001004 */
00000DB6  302E FFEE                move.w     D0, [A6 - 0x12]
00000DBA  E740                     asl        D0.w, 3
00000DBC  41EC 0002                lea.l      A0, [A4 + 0x2]
00000DC0  0640 F8FE                addi.w     D0, 0xF8FE
00000DC4  43F5 0000                lea.l      A1, [A5 + D0.w]
00000DC8  22D8                     move.l     [A1]+, [A0]+
00000DCA  22D8                     move.l     [A1]+, [A0]+
00000DCC  6000 0236                bra        +0x238 /* 00001004 */
00000DD0  2F0E                     move.l     -[A7], A6
00000DD2  4EBA F476                jsr        [PC - 0xB8A /* 0000024A */]
00000DD6  6000 022C                bra        +0x22E /* 00001004 */
00000DDA  302E FFEE                move.w     D0, [A6 - 0x12]
00000DDE  E740                     asl        D0.w, 3
00000DE0  41EC 0002                lea.l      A0, [A4 + 0x2]
00000DE4  0640 F8FE                addi.w     D0, 0xF8FE
00000DE8  43F5 0000                lea.l      A1, [A5 + D0.w]
00000DEC  22D8                     move.l     [A1]+, [A0]+
00000DEE  22D8                     move.l     [A1]+, [A0]+
00000DF0  6000 0212                bra        +0x214 /* 00001004 */
00000DF4  302E FFEE                move.w     D0, [A6 - 0x12]
00000DF8  E740                     asl        D0.w, 3
00000DFA  41EC 0002                lea.l      A0, [A4 + 0x2]
00000DFE  0640 F8FE                addi.w     D0, 0xF8FE
00000E02  43F5 0000                lea.l      A1, [A5 + D0.w]
00000E06  22D8                     move.l     [A1]+, [A0]+
00000E08  22D8                     move.l     [A1]+, [A0]+
00000E0A  6000 01F8                bra        +0x1FA /* 00001004 */
00000E0E  302E FFEE                move.w     D0, [A6 - 0x12]
00000E12  E740                     asl        D0.w, 3
00000E14  41EC 0002                lea.l      A0, [A4 + 0x2]
00000E18  0640 F8FE                addi.w     D0, 0xF8FE
00000E1C  43F5 0000                lea.l      A1, [A5 + D0.w]
00000E20  22D8                     move.l     [A1]+, [A0]+
00000E22  22D8                     move.l     [A1]+, [A0]+
00000E24  302E FFEE                move.w     D0, [A6 - 0x12]
00000E28  E740                     asl        D0.w, 3
00000E2A  0640 F8FE                addi.w     D0, 0xF8FE
00000E2E  3035 0000                move.w     D0, [A5 + D0.w]
00000E32  5940                     subq.w     D0, 4
00000E34  322E FFEE                move.w     D1, [A6 - 0x12]
00000E38  E741                     asl        D1.w, 3
00000E3A  0641 F8FE                addi.w     D1, 0xF8FE
00000E3E  3B80 1000                move.w     [A5 + D1.w], D0
00000E42  302E FFEE                move.w     D0, [A6 - 0x12]
00000E46  E740                     asl        D0.w, 3
00000E48  0640 F902                addi.w     D0, 0xF902
00000E4C  3035 0000                move.w     D0, [A5 + D0.w]
00000E50  0640 FFF4                addi.w     D0, 0xFFF4
00000E54  322E FFEE                move.w     D1, [A6 - 0x12]
00000E58  E741                     asl        D1.w, 3
00000E5A  0641 F902                addi.w     D1, 0xF902
00000E5E  3B80 1000                move.w     [A5 + D1.w], D0
00000E62  6000 01A0                bra        +0x1A2 /* 00001004 */
00000E66  2F0E                     move.l     -[A7], A6
00000E68  4EBA F51C                jsr        [PC - 0xAE4 /* 00000386 */]
00000E6C  6000 0196                bra        +0x198 /* 00001004 */
00000E70  302E FFEE                move.w     D0, [A6 - 0x12]
00000E74  E740                     asl        D0.w, 3
00000E76  0640 F8FE                addi.w     D0, 0xF8FE
00000E7A  4875 0000                pea.l      [A5 + D0.w]
00000E7E  302C 0004                move.w     D0, [A4 + 0x4]
00000E82  0640 0024                addi.w     D0, 0x24 /* '$' */
00000E86  3F00                     move.w     -[A7], D0
00000E88  302C 0002                move.w     D0, [A4 + 0x2]
00000E8C  0640 0018                addi.w     D0, 0x18
00000E90  3F00                     move.w     -[A7], D0
00000E92  302C 0004                move.w     D0, [A4 + 0x4]
00000E96  0640 0026                addi.w     D0, 0x26 /* '&' */
00000E9A  3F00                     move.w     -[A7], D0
00000E9C  302C 0006                move.w     D0, [A4 + 0x6]
00000EA0  0640 FFC8                addi.w     D0, 0xFFC8
00000EA4  3F00                     move.w     -[A7], D0
00000EA6  A8A7                     syscall    SetRect
00000EA8  6000 015A                bra        +0x15C /* 00001004 */
00000EAC  2F0E                     move.l     -[A7], A6
00000EAE  4EBA F94C                jsr        [PC - 0x6B4 /* 000007FC */]
00000EB2  6000 0150                bra        +0x152 /* 00001004 */
00000EB6  2F0E                     move.l     -[A7], A6
00000EB8  4EBA F65C                jsr        [PC - 0x9A4 /* 00000516 */]
00000EBC  6000 0146                bra        +0x148 /* 00001004 */
00000EC0  2F0E                     move.l     -[A7], A6
00000EC2  4EBA F780                jsr        [PC - 0x880 /* 00000644 */]
00000EC6  6000 013C                bra        +0x13E /* 00001004 */
00000ECA  2F0E                     move.l     -[A7], A6
00000ECC  4EBA FA18                jsr        [PC - 0x5E8 /* 000008E6 */]
00000ED0  6000 0132                bra        +0x134 /* 00001004 */
00000ED4  2F0E                     move.l     -[A7], A6
00000ED6  4EBA FB94                jsr        [PC - 0x46C /* 00000A6C */]
00000EDA  6000 0128                bra        +0x12A /* 00001004 */
00000EDE  2F0E                     move.l     -[A7], A6
00000EE0  4EBA FC94                jsr        [PC - 0x36C /* 00000B76 */]
00000EE4  6000 011E                bra        +0x120 /* 00001004 */
00000EE8  302D FDBA                move.w     D0, [A5 - 0x246]
00000EEC  5340                     subq.w     D0, 1
00000EEE  3B40 FDBA                move.w     [A5 - 0x246], D0
00000EF2  6000 0110                bra        +0x112 /* 00001004 */
00000EF6  2F0E                     move.l     -[A7], A6
00000EF8  4EBA FC90                jsr        [PC - 0x370 /* 00000B8A */]
00000EFC  6000 0106                bra        +0x108 /* 00001004 */
00000F00  302E FFEE                move.w     D0, [A6 - 0x12]
00000F04  E740                     asl        D0.w, 3
00000F06  41EC 0002                lea.l      A0, [A4 + 0x2]
00000F0A  0640 F8FE                addi.w     D0, 0xF8FE
00000F0E  43F5 0000                lea.l      A1, [A5 + D0.w]
00000F12  22D8                     move.l     [A1]+, [A0]+
00000F14  22D8                     move.l     [A1]+, [A0]+
00000F16  6000 00EC                bra        +0xEE /* 00001004 */
00000F1A  302E FFEE                move.w     D0, [A6 - 0x12]
00000F1E  E740                     asl        D0.w, 3
00000F20  0640 F8FE                addi.w     D0, 0xF8FE
00000F24  4875 0000                pea.l      [A5 + D0.w]
00000F28  302C 0004                move.w     D0, [A4 + 0x4]
00000F2C  0640 0020                addi.w     D0, 0x20 /* ' ' */
00000F30  3F00                     move.w     -[A7], D0
00000F32  3F2C 0002                move.w     -[A7], [A4 + 0x2]
00000F36  302C 0008                move.w     D0, [A4 + 0x8]
00000F3A  0640 FFE0                addi.w     D0, 0xFFE0
00000F3E  3F00                     move.w     -[A7], D0
00000F40  302C 0002                move.w     D0, [A4 + 0x2]
00000F44  5040                     addq.w     D0, 8
00000F46  3F00                     move.w     -[A7], D0
00000F48  A8A7                     syscall    SetRect
00000F4A  6000 00B8                bra        +0xBA /* 00001004 */
00000F4E  302E FFEE                move.w     D0, [A6 - 0x12]
00000F52  E740                     asl        D0.w, 3
00000F54  0640 F8FE                addi.w     D0, 0xF8FE
00000F58  4875 0000                pea.l      [A5 + D0.w]
00000F5C  302C 0004                move.w     D0, [A4 + 0x4]
00000F60  0640 0020                addi.w     D0, 0x20 /* ' ' */
00000F64  3F00                     move.w     -[A7], D0
00000F66  302C 0006                move.w     D0, [A4 + 0x6]
00000F6A  5140                     subq.w     D0, 8
00000F6C  3F00                     move.w     -[A7], D0
00000F6E  302C 0008                move.w     D0, [A4 + 0x8]
00000F72  0640 FFE0                addi.w     D0, 0xFFE0
00000F76  3F00                     move.w     -[A7], D0
00000F78  3F2C 0006                move.w     -[A7], [A4 + 0x6]
00000F7C  A8A7                     syscall    SetRect
00000F7E  6000 0084                bra        +0x86 /* 00001004 */
label00000F82:
00000F82  5340                     subq.w     D0, 1
00000F84  0C40 002D                cmpi.w     D0, 0x2D /* '-' */
00000F88  6464                     bcc        +0x66 /* 00000FEE */
00000F8A  D040                     add.w      D0, D0
00000F8C  303B 0006                move.w     D0, [PC + D0.w + 0x6]
00000F90  4EFB 0002                jmp        [PC + D0.w + 0x2]
00000F94  FCA6 FCA6                .extension 0xCA6 <<F/2-3/6>> // unimplemented
00000F98  FCA6 FCA6                .extension 0xCA6 <<F/2-3/6>> // unimplemented
00000F9C  FCA6 FCA6                .extension 0xCA6 <<F/2-3/6>> // unimplemented
00000FA0  005A FCC0                ori.w      [A2]+, 0xFCC0
00000FA4  FCFE FD3C                .extension 0xCFE <<F/2-3/6>> // unimplemented
00000FA8  FDB8                     .invalid   <<F/6/6>>
00000FAA  FDC2                     .invalid   <<F/7/6>>
00000FAC  FDF2                     .invalid   <<F/7/6>>
00000FAE  005A 005A                ori.w      [A2]+, 0x5A /* 'Z' */
00000FB2  FE22 FE22                .unknown   0xFE22 0xFE22 (W = 7)
00000FB6  FE3C FE46                .unknown   0xFE3C 0xFE46 (W = 7)
00000FBA  FE46 FE46                .extension 0xE46 <<F/1/7>>, 0xFE46 // unimplemented
00000FBE  005A 005A                ori.w      [A2]+, 0x5A /* 'Z' */
00000FC2  FE60 FED2                .extension 0xE60 <<F/1/7>>, 0xFED2 // unimplemented
00000FC6  FE60 FE7A                .extension 0xE60 <<F/1/7>>, 0xFE7A // unimplemented
00000FCA  FE60 FEDC                .extension 0xE60 <<F/1/7>>, 0xFEDC // unimplemented
00000FCE  005A 005A                ori.w      [A2]+, 0x5A /* 'Z' */
00000FD2  FF22                     .extension 0xF22 <<F/4-5/7>> // unimplemented
00000FD4  FF2C                     .extension 0xF2C <<F/4-5/7>> // unimplemented
00000FD6  FF18                     .extension 0xF18 <<F/4-5/7>> // unimplemented
00000FD8  FF36                     .extension 0xF36 <<F/4-5/7>> // unimplemented
00000FDA  FF40                     .extension 0xF40 <<F/4-5/7>> // unimplemented
00000FDC  FF4A                     .extension 0xF4A <<F/4-5/7>> // unimplemented
00000FDE  005A 005A                ori.w      [A2]+, 0x5A /* 'Z' */
00000FE2  FF54                     .extension 0xF54 <<F/4-5/7>> // unimplemented
00000FE4  FF62                     .extension 0xF62 <<F/4-5/7>> // unimplemented
00000FE6  FF6C                     .extension 0xF6C <<F/4-5/7>> // unimplemented
00000FE8  FF6C                     .extension 0xF6C <<F/4-5/7>> // unimplemented
00000FEA  FF86                     .invalid   <<F/6/7>>
00000FEC  FFBA                     .invalid   <<F/6/7>>
label00000FEE:
00000FEE  302E FFEE                move.w     D0, [A6 - 0x12]
00000FF2  E740                     asl        D0.w, 3
00000FF4  41ED B8D6                lea.l      A0, [A5 - 0x472A]
00000FF8  0640 F8FE                addi.w     D0, 0xF8FE
00000FFC  43F5 0000                lea.l      A1, [A5 + D0.w]
00001000  22D8                     move.l     [A1]+, [A0]+
00001002  22D8                     move.l     [A1]+, [A0]+
label00001004:
00001004  302E FFEE                move.w     D0, [A6 - 0x12]
00001008  C1FC 000C                muls.w     D0, 0xC
0000100C  0640 F98A                addi.w     D0, 0xF98A
00001010  42B5 0000                clr.l      [A5 + D0.w]
00001014  3014                     move.w     D0, [A4]
00001016  6000 03FC                bra        +0x3FE /* 00001414 */
0000101A  302E FFEE                move.w     D0, [A6 - 0x12]
0000101E  C1FC 000C                muls.w     D0, 0xC
00001022  0640 F986                addi.w     D0, 0xF986
00001026  7201                     moveq.l    D1, 0x01
00001028  2B81 0000                move.l     [A5 + D0.w], D1
0000102C  6000 0462                bra        +0x464 /* 00001490 */
00001030  302E FFEE                move.w     D0, [A6 - 0x12]
00001034  C1FC 000C                muls.w     D0, 0xC
00001038  0640 F986                addi.w     D0, 0xF986
0000103C  7204                     moveq.l    D1, 0x04
0000103E  2B81 0000                move.l     [A5 + D0.w], D1
00001042  6000 044C                bra        +0x44E /* 00001490 */
00001046  302E FFEE                move.w     D0, [A6 - 0x12]
0000104A  C1FC 000C                muls.w     D0, 0xC
0000104E  0640 F986                addi.w     D0, 0xF986
00001052  7202                     moveq.l    D1, 0x02
00001054  2B81 0000                move.l     [A5 + D0.w], D1
00001058  6000 0436                bra        +0x438 /* 00001490 */
0000105C  302E FFEE                move.w     D0, [A6 - 0x12]
00001060  C1FC 000C                muls.w     D0, 0xC
00001064  0640 F986                addi.w     D0, 0xF986
00001068  7203                     moveq.l    D1, 0x03
0000106A  2B81 0000                move.l     [A5 + D0.w], D1
0000106E  6000 0420                bra        +0x422 /* 00001490 */
00001072  4A2C 000E                tst.b      [A4 + 0xE]
00001076  6716                     beq        +0x18 /* 0000108E */
00001078  302E FFEE                move.w     D0, [A6 - 0x12]
0000107C  C1FC 000C                muls.w     D0, 0xC
00001080  0640 F986                addi.w     D0, 0xF986
00001084  7203                     moveq.l    D1, 0x03
00001086  2B81 0000                move.l     [A5 + D0.w], D1
0000108A  6000 0404                bra        +0x406 /* 00001490 */
label0000108E:
0000108E  302E FFEE                move.w     D0, [A6 - 0x12]
00001092  C1FC 000C                muls.w     D0, 0xC
00001096  0640 F986                addi.w     D0, 0xF986
0000109A  7204                     moveq.l    D1, 0x04
0000109C  2B81 0000                move.l     [A5 + D0.w], D1
000010A0  302E FFEE                move.w     D0, [A6 - 0x12]
000010A4  C1FC 000C                muls.w     D0, 0xC
000010A8  322C 000C                move.w     D1, [A4 + 0xC]
000010AC  48C1                     ext.l      D1
000010AE  0640 F98A                addi.w     D0, 0xF98A
000010B2  2B81 0000                move.l     [A5 + D0.w], D1
000010B6  6000 03D8                bra        +0x3DA /* 00001490 */
000010BA  302E FFEE                move.w     D0, [A6 - 0x12]
000010BE  C1FC 000C                muls.w     D0, 0xC
000010C2  0640 F986                addi.w     D0, 0xF986
000010C6  7205                     moveq.l    D1, 0x05
000010C8  2B81 0000                move.l     [A5 + D0.w], D1
000010CC  302C 0006                move.w     D0, [A4 + 0x6]
000010D0  0640 FFD0                addi.w     D0, 0xFFD0
000010D4  322E FFEE                move.w     D1, [A6 - 0x12]
000010D8  C3FC 000C                muls.w     D1, 0xC
000010DC  48C0                     ext.l      D0
000010DE  0641 F98A                addi.w     D1, 0xF98A
000010E2  2B80 1000                move.l     [A5 + D1.w], D0
000010E6  6000 03A8                bra        +0x3AA /* 00001490 */
000010EA  4A2C 000E                tst.b      [A4 + 0xE]
000010EE  6716                     beq        +0x18 /* 00001106 */
000010F0  302E FFEE                move.w     D0, [A6 - 0x12]
000010F4  C1FC 000C                muls.w     D0, 0xC
000010F8  0640 F986                addi.w     D0, 0xF986
000010FC  7206                     moveq.l    D1, 0x06
000010FE  2B81 0000                move.l     [A5 + D0.w], D1
00001102  6000 038C                bra        +0x38E /* 00001490 */
label00001106:
00001106  302E FFEE                move.w     D0, [A6 - 0x12]
0000110A  C1FC 000C                muls.w     D0, 0xC
0000110E  0640 F986                addi.w     D0, 0xF986
00001112  42B5 0000                clr.l      [A5 + D0.w]
00001116  6000 0378                bra        +0x37A /* 00001490 */
0000111A  4A2C 000E                tst.b      [A4 + 0xE]
0000111E  6716                     beq        +0x18 /* 00001136 */
00001120  302E FFEE                move.w     D0, [A6 - 0x12]
00001124  C1FC 000C                muls.w     D0, 0xC
00001128  0640 F986                addi.w     D0, 0xF986
0000112C  7207                     moveq.l    D1, 0x07
0000112E  2B81 0000                move.l     [A5 + D0.w], D1
00001132  6000 035C                bra        +0x35E /* 00001490 */
label00001136:
00001136  302E FFEE                move.w     D0, [A6 - 0x12]
0000113A  C1FC 000C                muls.w     D0, 0xC
0000113E  0640 F986                addi.w     D0, 0xF986
00001142  42B5 0000                clr.l      [A5 + D0.w]
00001146  6000 0348                bra        +0x34A /* 00001490 */
0000114A  302E FFEE                move.w     D0, [A6 - 0x12]
0000114E  C1FC 000C                muls.w     D0, 0xC
00001152  0640 F986                addi.w     D0, 0xF986
00001156  7208                     moveq.l    D1, 0x08
00001158  2B81 0000                move.l     [A5 + D0.w], D1
0000115C  302E FFEE                move.w     D0, [A6 - 0x12]
00001160  C1FC 000C                muls.w     D0, 0xC
00001164  322C 000A                move.w     D1, [A4 + 0xA]
00001168  48C1                     ext.l      D1
0000116A  0640 F98A                addi.w     D0, 0xF98A
0000116E  2B81 0000                move.l     [A5 + D0.w], D1
00001172  0C6C 0001 000A           cmpi.w     [A4 + 0xA], 0x1
00001178  6C00 0316                bge        +0x318 /* 00001490 */
0000117C  302E FFEE                move.w     D0, [A6 - 0x12]
00001180  E740                     asl        D0.w, 3
00001182  41ED B8D6                lea.l      A0, [A5 - 0x472A]
00001186  0640 F8FE                addi.w     D0, 0xF8FE
0000118A  43F5 0000                lea.l      A1, [A5 + D0.w]
0000118E  22D8                     move.l     [A1]+, [A0]+
00001190  22D8                     move.l     [A1]+, [A0]+
00001192  6000 02FC                bra        +0x2FE /* 00001490 */
00001196  302E FFEE                move.w     D0, [A6 - 0x12]
0000119A  C1FC 000C                muls.w     D0, 0xC
0000119E  0640 F986                addi.w     D0, 0xF986
000011A2  7209                     moveq.l    D1, 0x09
000011A4  2B81 0000                move.l     [A5 + D0.w], D1
000011A8  302E FFEE                move.w     D0, [A6 - 0x12]
000011AC  C1FC 000C                muls.w     D0, 0xC
000011B0  322C 000A                move.w     D1, [A4 + 0xA]
000011B4  48C1                     ext.l      D1
000011B6  0640 F98A                addi.w     D0, 0xF98A
000011BA  2B81 0000                move.l     [A5 + D0.w], D1
000011BE  0C6C 0001 000A           cmpi.w     [A4 + 0xA], 0x1
000011C4  6C00 02CA                bge        +0x2CC /* 00001490 */
000011C8  302E FFEE                move.w     D0, [A6 - 0x12]
000011CC  E740                     asl        D0.w, 3
000011CE  41ED B8D6                lea.l      A0, [A5 - 0x472A]
000011D2  0640 F8FE                addi.w     D0, 0xF8FE
000011D6  43F5 0000                lea.l      A1, [A5 + D0.w]
000011DA  22D8                     move.l     [A1]+, [A0]+
000011DC  22D8                     move.l     [A1]+, [A0]+
000011DE  6000 02B0                bra        +0x2B2 /* 00001490 */
000011E2  4A2C 000E                tst.b      [A4 + 0xE]
000011E6  6716                     beq        +0x18 /* 000011FE */
000011E8  302E FFEE                move.w     D0, [A6 - 0x12]
000011EC  C1FC 000C                muls.w     D0, 0xC
000011F0  0640 F986                addi.w     D0, 0xF986
000011F4  7215                     moveq.l    D1, 0x15
000011F6  2B81 0000                move.l     [A5 + D0.w], D1
000011FA  6000 0294                bra        +0x296 /* 00001490 */
label000011FE:
000011FE  302E FFEE                move.w     D0, [A6 - 0x12]
00001202  C1FC 000C                muls.w     D0, 0xC
00001206  0640 F986                addi.w     D0, 0xF986
0000120A  720A                     moveq.l    D1, 0x0A
0000120C  2B81 0000                move.l     [A5 + D0.w], D1
00001210  6000 027E                bra        +0x280 /* 00001490 */
00001214  302E FFEE                move.w     D0, [A6 - 0x12]
00001218  C1FC 000C                muls.w     D0, 0xC
0000121C  0640 F986                addi.w     D0, 0xF986
00001220  720B                     moveq.l    D1, 0x0B
00001222  2B81 0000                move.l     [A5 + D0.w], D1
00001226  302E FFEE                move.w     D0, [A6 - 0x12]
0000122A  C1FC 000C                muls.w     D0, 0xC
0000122E  322C 000A                move.w     D1, [A4 + 0xA]
00001232  48C1                     ext.l      D1
00001234  0640 F98A                addi.w     D0, 0xF98A
00001238  2B81 0000                move.l     [A5 + D0.w], D1
0000123C  0C6C 0001 000A           cmpi.w     [A4 + 0xA], 0x1
00001242  6C00 024C                bge        +0x24E /* 00001490 */
00001246  302E FFEE                move.w     D0, [A6 - 0x12]
0000124A  E740                     asl        D0.w, 3
0000124C  41ED B8D6                lea.l      A0, [A5 - 0x472A]
00001250  0640 F8FE                addi.w     D0, 0xF8FE
00001254  43F5 0000                lea.l      A1, [A5 + D0.w]
00001258  22D8                     move.l     [A1]+, [A0]+
0000125A  22D8                     move.l     [A1]+, [A0]+
0000125C  6000 0232                bra        +0x234 /* 00001490 */
00001260  302E FFEE                move.w     D0, [A6 - 0x12]
00001264  C1FC 000C                muls.w     D0, 0xC
00001268  0640 F986                addi.w     D0, 0xF986
0000126C  720C                     moveq.l    D1, 0x0C
0000126E  2B81 0000                move.l     [A5 + D0.w], D1
00001272  302E FFEE                move.w     D0, [A6 - 0x12]
00001276  C1FC 000C                muls.w     D0, 0xC
0000127A  322C 000A                move.w     D1, [A4 + 0xA]
0000127E  48C1                     ext.l      D1
00001280  0640 F98A                addi.w     D0, 0xF98A
00001284  2B81 0000                move.l     [A5 + D0.w], D1
00001288  0C6C 0001 000A           cmpi.w     [A4 + 0xA], 0x1
0000128E  6C00 0200                bge        +0x202 /* 00001490 */
00001292  302E FFEE                move.w     D0, [A6 - 0x12]
00001296  E740                     asl        D0.w, 3
00001298  41ED B8D6                lea.l      A0, [A5 - 0x472A]
0000129C  0640 F8FE                addi.w     D0, 0xF8FE
000012A0  43F5 0000                lea.l      A1, [A5 + D0.w]
000012A4  22D8                     move.l     [A1]+, [A0]+
000012A6  22D8                     move.l     [A1]+, [A0]+
000012A8  6000 01E6                bra        +0x1E8 /* 00001490 */
000012AC  302E FFEE                move.w     D0, [A6 - 0x12]
000012B0  C1FC 000C                muls.w     D0, 0xC
000012B4  0640 F986                addi.w     D0, 0xF986
000012B8  720D                     moveq.l    D1, 0x0D
000012BA  2B81 0000                move.l     [A5 + D0.w], D1
000012BE  302E FFEE                move.w     D0, [A6 - 0x12]
000012C2  C1FC 000C                muls.w     D0, 0xC
000012C6  322C 000A                move.w     D1, [A4 + 0xA]
000012CA  48C1                     ext.l      D1
000012CC  0640 F98A                addi.w     D0, 0xF98A
000012D0  2B81 0000                move.l     [A5 + D0.w], D1
000012D4  0C6C 0001 000A           cmpi.w     [A4 + 0xA], 0x1
000012DA  6C00 01B4                bge        +0x1B6 /* 00001490 */
000012DE  302E FFEE                move.w     D0, [A6 - 0x12]
000012E2  E740                     asl        D0.w, 3
000012E4  41ED B8D6                lea.l      A0, [A5 - 0x472A]
000012E8  0640 F8FE                addi.w     D0, 0xF8FE
000012EC  43F5 0000                lea.l      A1, [A5 + D0.w]
000012F0  22D8                     move.l     [A1]+, [A0]+
000012F2  22D8                     move.l     [A1]+, [A0]+
000012F4  6000 019A                bra        +0x19C /* 00001490 */
000012F8  302E FFEE                move.w     D0, [A6 - 0x12]
000012FC  C1FC 000C                muls.w     D0, 0xC
00001300  0640 F986                addi.w     D0, 0xF986
00001304  720F                     moveq.l    D1, 0x0F
00001306  2B81 0000                move.l     [A5 + D0.w], D1
0000130A  6000 0184                bra        +0x186 /* 00001490 */
0000130E  302E FFEE                move.w     D0, [A6 - 0x12]
00001312  C1FC 000C                muls.w     D0, 0xC
00001316  0640 F986                addi.w     D0, 0xF986
0000131A  7210                     moveq.l    D1, 0x10
0000131C  2B81 0000                move.l     [A5 + D0.w], D1
00001320  6000 016E                bra        +0x170 /* 00001490 */
00001324  302E FFEE                move.w     D0, [A6 - 0x12]
00001328  C1FC 000C                muls.w     D0, 0xC
0000132C  0640 F986                addi.w     D0, 0xF986
00001330  7211                     moveq.l    D1, 0x11
00001332  2B81 0000                move.l     [A5 + D0.w], D1
00001336  6000 0158                bra        +0x15A /* 00001490 */
0000133A  4A2C 000E                tst.b      [A4 + 0xE]
0000133E  6716                     beq        +0x18 /* 00001356 */
00001340  302E FFEE                move.w     D0, [A6 - 0x12]
00001344  C1FC 000C                muls.w     D0, 0xC
00001348  0640 F986                addi.w     D0, 0xF986
0000134C  7212                     moveq.l    D1, 0x12
0000134E  2B81 0000                move.l     [A5 + D0.w], D1
00001352  6000 013C                bra        +0x13E /* 00001490 */
label00001356:
00001356  302E FFEE                move.w     D0, [A6 - 0x12]
0000135A  C1FC 000C                muls.w     D0, 0xC
0000135E  0640 F986                addi.w     D0, 0xF986
00001362  42B5 0000                clr.l      [A5 + D0.w]
00001366  6000 0128                bra        +0x12A /* 00001490 */
0000136A  302E FFEE                move.w     D0, [A6 - 0x12]
0000136E  C1FC 000C                muls.w     D0, 0xC
00001372  0640 F986                addi.w     D0, 0xF986
00001376  7213                     moveq.l    D1, 0x13
00001378  2B81 0000                move.l     [A5 + D0.w], D1
0000137C  302E FFEE                move.w     D0, [A6 - 0x12]
00001380  C1FC 000C                muls.w     D0, 0xC
00001384  322C 000A                move.w     D1, [A4 + 0xA]
00001388  48C1                     ext.l      D1
0000138A  0640 F98A                addi.w     D0, 0xF98A
0000138E  2B81 0000                move.l     [A5 + D0.w], D1
00001392  6000 00FC                bra        +0xFE /* 00001490 */
00001396  302E FFEE                move.w     D0, [A6 - 0x12]
0000139A  C1FC 000C                muls.w     D0, 0xC
0000139E  0640 F986                addi.w     D0, 0xF986
000013A2  720E                     moveq.l    D1, 0x0E
000013A4  2B81 0000                move.l     [A5 + D0.w], D1
000013A8  302E FFEE                move.w     D0, [A6 - 0x12]
000013AC  C1FC 000C                muls.w     D0, 0xC
000013B0  0640 F98A                addi.w     D0, 0xF98A
000013B4  42B5 0000                clr.l      [A5 + D0.w]
000013B8  6000 00D6                bra        +0xD8 /* 00001490 */
000013BC  302E FFEE                move.w     D0, [A6 - 0x12]
000013C0  C1FC 000C                muls.w     D0, 0xC
000013C4  0640 F986                addi.w     D0, 0xF986
000013C8  7216                     moveq.l    D1, 0x16
000013CA  2B81 0000                move.l     [A5 + D0.w], D1
000013CE  302E FFEE                move.w     D0, [A6 - 0x12]
000013D2  C1FC 000C                muls.w     D0, 0xC
000013D6  322C 000A                move.w     D1, [A4 + 0xA]
000013DA  48C1                     ext.l      D1
000013DC  0640 F98A                addi.w     D0, 0xF98A
000013E0  2B81 0000                move.l     [A5 + D0.w], D1
000013E4  6000 00AA                bra        +0xAC /* 00001490 */
000013E8  302E FFEE                move.w     D0, [A6 - 0x12]
000013EC  C1FC 000C                muls.w     D0, 0xC
000013F0  0640 F986                addi.w     D0, 0xF986
000013F4  7217                     moveq.l    D1, 0x17
000013F6  2B81 0000                move.l     [A5 + D0.w], D1
000013FA  302E FFEE                move.w     D0, [A6 - 0x12]
000013FE  C1FC 000C                muls.w     D0, 0xC
00001402  322C 000A                move.w     D1, [A4 + 0xA]
00001406  48C1                     ext.l      D1
00001408  0640 F98A                addi.w     D0, 0xF98A
0000140C  2B81 0000                move.l     [A5 + D0.w], D1
00001410  6000 007E                bra        +0x80 /* 00001490 */
label00001414:
00001414  5340                     subq.w     D0, 1
00001416  0C40 002D                cmpi.w     D0, 0x2D /* '-' */
0000141A  6464                     bcc        +0x66 /* 00001480 */
0000141C  D040                     add.w      D0, D0
0000141E  303B 0006                move.w     D0, [PC + D0.w + 0x6]
00001422  4EFB 0002                jmp        [PC + D0.w + 0x2]
00001426  FBF4                     .invalid   <<F/7/5>>
00001428  FBF4                     .invalid   <<F/7/5>>
0000142A  FBF4                     .invalid   <<F/7/5>>
0000142C  FBF4                     .invalid   <<F/7/5>>
0000142E  FC0A FBF4                .unknown   0xFC0A 0xFBF4 (W = 6)
00001432  005A FC20                ori.w      [A2]+, 0xFC20
00001436  FC36 FC4C                .unknown   0xFC36 0xFC4C (W = 6)
0000143A  FC94 FCC4                .extension 0xC94 <<F/2-3/6>> // unimplemented
0000143E  FCF4 005A                .extension 0xCF4 <<F/2-3/6>> // unimplemented
00001442  005A FD24                ori.w      [A2]+, 0xFD24
00001446  FD70                     .extension 0xD70 <<F/4-5/6>> // unimplemented
00001448  FDBC                     .invalid   <<F/6/6>>
0000144A  FDEE                     .invalid   <<F/7/6>>
0000144C  FE3A FE86                .unknown   0xFE3A 0xFE86 (W = 7)
00001450  005A 005A                ori.w      [A2]+, 0x5A /* 'Z' */
00001454  FED2 FEE8                .extension 0xED2 <<F/2-3/7>> // unimplemented
00001458  FEFE FF14                .extension 0xEFE <<F/2-3/7>> // unimplemented
0000145C  FF44                     .extension 0xF44 <<F/4-5/7>> // unimplemented
0000145E  FF70                     .extension 0xF70 <<F/4-5/7>> // unimplemented
00001460  005A 005A                ori.w      [A2]+, 0x5A /* 'Z' */
00001464  FBF4                     .invalid   <<F/7/5>>
00001466  FBF4                     .invalid   <<F/7/5>>
00001468  FBF4                     .invalid   <<F/7/5>>
0000146A  FBF4                     .invalid   <<F/7/5>>
0000146C  005A 005A                ori.w      [A2]+, 0x5A /* 'Z' */
00001470  005A 005A                ori.w      [A2]+, 0x5A /* 'Z' */
00001474  005A 005A                ori.w      [A2]+, 0x5A /* 'Z' */
00001478  FBF4                     .invalid   <<F/7/5>>
0000147A  FBF4                     .invalid   <<F/7/5>>
0000147C  FF96                     .invalid   <<F/6/7>>
0000147E  FFC2                     .invalid   <<F/7/7>>
label00001480:
00001480  302E FFEE                move.w     D0, [A6 - 0x12]
00001484  C1FC 000C                muls.w     D0, 0xC
00001488  0640 F986                addi.w     D0, 0xF986
0000148C  42B5 0000                clr.l      [A5 + D0.w]
label00001490:
00001490  526E FFEE                addq.w     [A6 - 0x12], 1
00001494  690C                     bvs        +0xE /* 000014A2 */
label00001496:
00001496  302E FFEE                move.w     D0, [A6 - 0x12]
0000149A  B06E FFE0                cmp.w      D0, [A6 - 0x20]
0000149E  6F00 F786                ble        -0x878 /* 00000C26 */
label000014A2:
000014A2  4CDF 1800                movem.l    A3,A4, [A7]+
000014A6  4E5E                     unlink     A6
000014A8  4E75                     rts
fn000014AA:
000014AA  4E56 FFEE                link       A6, -0x0012
000014AE  1B6D FDEF FD85           move.b     [A5 - 0x27B], [A5 - 0x211]
000014B4  1B6D FDEE FD84           move.b     [A5 - 0x27C], [A5 - 0x212]
000014BA  4EBA F716                jsr        [PC - 0x8EA /* 00000BD2 */]
000014BE  4E5E                     unlink     A6
000014C0  4E75                     rts
fn000014C2:
000014C2  4E56 FFD8                link       A6, -0x0028
000014C6  206E 000C                movea.l    A0, [A6 + 0xC]
000014CA  43EE FFE0                lea.l      A1, [A6 - 0x20]
000014CE  22D8                     move.l     [A1]+, [A0]+
000014D0  22D8                     move.l     [A1]+, [A0]+
000014D2  206E 0008                movea.l    A0, [A6 + 0x8]
000014D6  43EE FFE8                lea.l      A1, [A6 - 0x18]
000014DA  22D8                     move.l     [A1]+, [A0]+
000014DC  22D8                     move.l     [A1]+, [A0]+
000014DE  422E 0010                clr.b      [A6 + 0x10]
000014E2  302E FFE6                move.w     D0, [A6 - 0x1A]
000014E6  B06E FFEA                cmp.w      D0, [A6 - 0x16]
000014EA  6D32                     blt        +0x34 /* 0000151E */
000014EC  302E FFEE                move.w     D0, [A6 - 0x12]
000014F0  B06E FFEA                cmp.w      D0, [A6 - 0x16]
000014F4  6D28                     blt        +0x2A /* 0000151E */
000014F6  302E FFE4                move.w     D0, [A6 - 0x1C]
000014FA  B06E FFE8                cmp.w      D0, [A6 - 0x18]
000014FE  6D1E                     blt        +0x20 /* 0000151E */
00001500  302E FFEC                move.w     D0, [A6 - 0x14]
00001504  B06E FFE8                cmp.w      D0, [A6 - 0x18]
00001508  6D14                     blt        +0x16 /* 0000151E */
0000150A  554F                     subq.w     A7, 2
0000150C  486E FFE0                pea.l      [A6 - 0x20]
00001510  486E FFE8                pea.l      [A6 - 0x18]
00001514  486E FFD8                pea.l      [A6 - 0x28]
00001518  A8AA                     syscall    SectRect
0000151A  1D5F 0010                move.b     [A6 + 0x10], [A7]+
label0000151E:
0000151E  4E5E                     unlink     A6
00001520  205F                     movea.l    A0, [A7]+
00001522  504F                     addq.w     A7, 8
00001524  4ED0                     jmp        [A0]
fn00001526:
00001526  4E56 FFDE                link       A6, -0x0022
0000152A  48E7 0308                movem.l    -[A7], D6,D7,A4
0000152E  3E2E 0008                move.w     D7, [A6 + 0x8]
00001532  302E 000A                move.w     D0, [A6 + 0xA]
00001536  6000 0526                bra        +0x528 /* 00001A5E */
0000153A  6000 0564                bra        +0x566 /* 00001AA0 */
0000153E  3F3C 0001                move.w     -[A7], 0x1
00001542  A9C8                     syscall    SysBeep
00001544  422D F776                clr.b      [A5 - 0x88A]
00001548  3B7C 0002 F766           move.w     [A5 - 0x89A], 0x2
0000154E  302D F732                move.w     D0, [A5 - 0x8CE]
00001552  0640 FFEC                addi.w     D0, 0xFFEC
00001556  3B40 F72E                move.w     [A5 - 0x8D2], D0
0000155A  4A2D F76B                tst.b      [A5 - 0x895]
0000155E  6708                     beq        +0xA /* 00001568 */
00001560  426D F76C                clr.w      [A5 - 0x894]
00001564  6000 053A                bra        +0x53C /* 00001AA0 */
label00001568:
00001568  3B7C 0002 F76C           move.w     [A5 - 0x894], 0x2
0000156E  6000 0530                bra        +0x532 /* 00001AA0 */
00001572  102D FD83                move.b     D0, [A5 - 0x27D]
00001576  5300                     subq.b     D0, 1
00001578  6700 0526                beq        +0x528 /* 00001AA0 */
0000157C  3B7C FFF9 F77A           move.w     [A5 - 0x886], 0xFFF9
00001582  6000 051C                bra        +0x51E /* 00001AA0 */
00001586  3F3C 0001                move.w     -[A7], 0x1
0000158A  A9C8                     syscall    SysBeep
0000158C  422D F776                clr.b      [A5 - 0x88A]
00001590  3B7C 0002 F766           move.w     [A5 - 0x89A], 0x2
00001596  302D F732                move.w     D0, [A5 - 0x8CE]
0000159A  0640 FFEC                addi.w     D0, 0xFFEC
0000159E  3B40 F72E                move.w     [A5 - 0x8D2], D0
000015A2  4A2D F76B                tst.b      [A5 - 0x895]
000015A6  6708                     beq        +0xA /* 000015B0 */
000015A8  426D F76C                clr.w      [A5 - 0x894]
000015AC  6000 04F2                bra        +0x4F4 /* 00001AA0 */
label000015B0:
000015B0  3B7C 0002 F76C           move.w     [A5 - 0x894], 0x2
000015B6  6000 04E8                bra        +0x4EA /* 00001AA0 */
000015BA  102D FD83                move.b     D0, [A5 - 0x27D]
000015BE  5300                     subq.b     D0, 1
000015C0  6700 04DE                beq        +0x4E0 /* 00001AA0 */
000015C4  3B7C 0007 F77A           move.w     [A5 - 0x886], 0x7
000015CA  6000 04D4                bra        +0x4D6 /* 00001AA0 */
000015CE  3B7C FFF9 F77E           move.w     [A5 - 0x882], 0xFFF9
000015D4  4A2D F776                tst.b      [A5 - 0x88A]
000015D8  6700 04C6                beq        +0x4C8 /* 00001AA0 */
000015DC  4A2D F76A                tst.b      [A5 - 0x896]
000015E0  6700 04BE                beq        +0x4C0 /* 00001AA0 */
000015E4  422D F776                clr.b      [A5 - 0x88A]
000015E8  3B7C 0003 F766           move.w     [A5 - 0x89A], 0x3
000015EE  6000 04B0                bra        +0x4B2 /* 00001AA0 */
000015F2  3B7C 0007 F77E           move.w     [A5 - 0x882], 0x7
000015F8  4A2D F776                tst.b      [A5 - 0x88A]
000015FC  6700 04A2                beq        +0x4A4 /* 00001AA0 */
00001600  102D F76A                move.b     D0, [A5 - 0x896]
00001604  5300                     subq.b     D0, 1
00001606  6700 0498                beq        +0x49A /* 00001AA0 */
0000160A  422D F776                clr.b      [A5 - 0x88A]
0000160E  3B7C 0004 F766           move.w     [A5 - 0x89A], 0x4
00001614  6000 048A                bra        +0x48C /* 00001AA0 */
00001618  3B7C FFF9 F77A           move.w     [A5 - 0x886], 0xFFF9
0000161E  3007                     move.w     D0, D7
00001620  C1FC 000C                muls.w     D0, 0xC
00001624  322D F732                move.w     D1, [A5 - 0x8CE]
00001628  48C1                     ext.l      D1
0000162A  0640 F98A                addi.w     D0, 0xF98A
0000162E  B2B5 0000                cmp.l      D1, [A5 + D0.w]
00001632  5EC0                     sgt        D0
00001634  C02D F776                and.b      D0, [A5 - 0x88A]
00001638  6700 0466                beq        +0x468 /* 00001AA0 */
0000163C  3F3C 0001                move.w     -[A7], 0x1
00001640  A9C8                     syscall    SysBeep
00001642  422D F776                clr.b      [A5 - 0x88A]
00001646  4A2D F76A                tst.b      [A5 - 0x896]
0000164A  6706                     beq        +0x8 /* 00001652 */
0000164C  3B7C 0001 F768           move.w     [A5 - 0x898], 0x1
label00001652:
00001652  3B7C 0005 F766           move.w     [A5 - 0x89A], 0x5
00001658  302D F732                move.w     D0, [A5 - 0x8CE]
0000165C  0640 FFDC                addi.w     D0, 0xFFDC
00001660  3B40 F72E                move.w     [A5 - 0x8D2], D0
00001664  6000 043A                bra        +0x43C /* 00001AA0 */
00001668  3007                     move.w     D0, D7
0000166A  C1FC 000C                muls.w     D0, 0xC
0000166E  0640 F98A                addi.w     D0, 0xF98A
00001672  4AB5 0000                tst.l      [A5 + D0.w]
00001676  6700 0428                beq        +0x42A /* 00001AA0 */
0000167A  3F3C 0001                move.w     -[A7], 0x1
0000167E  A9C8                     syscall    SysBeep
00001680  3007                     move.w     D0, D7
00001682  C1FC 000C                muls.w     D0, 0xC
00001686  0640 F98A                addi.w     D0, 0xF98A
0000168A  42B5 0000                clr.l      [A5 + D0.w]
0000168E  6000 0410                bra        +0x412 /* 00001AA0 */
00001692  3007                     move.w     D0, D7
00001694  C1FC 000C                muls.w     D0, 0xC
00001698  0640 F98A                addi.w     D0, 0xF98A
0000169C  4AB5 0000                tst.l      [A5 + D0.w]
000016A0  6700 03FE                beq        +0x400 /* 00001AA0 */
000016A4  3F3C 0001                move.w     -[A7], 0x1
000016A8  A9C8                     syscall    SysBeep
000016AA  3007                     move.w     D0, D7
000016AC  C1FC 000C                muls.w     D0, 0xC
000016B0  0640 F98A                addi.w     D0, 0xF98A
000016B4  42B5 0000                clr.l      [A5 + D0.w]
000016B8  6000 03E6                bra        +0x3E8 /* 00001AA0 */
000016BC  3007                     move.w     D0, D7
000016BE  E740                     asl        D0.w, 3
000016C0  3207                     move.w     D1, D7
000016C2  E741                     asl        D1.w, 3
000016C4  0640 F904                addi.w     D0, 0xF904
000016C8  0641 F900                addi.w     D1, 0xF900
000016CC  3BB5 0000 1000           move.w     [A5 + D1.w], [A5 + D0.w]
000016D2  3007                     move.w     D0, D7
000016D4  E740                     asl        D0.w, 3
000016D6  3207                     move.w     D1, D7
000016D8  E741                     asl        D1.w, 3
000016DA  0640 F904                addi.w     D0, 0xF904
000016DE  0641 F904                addi.w     D1, 0xF904
000016E2  3BB5 0000 1000           move.w     [A5 + D1.w], [A5 + D0.w]
000016E8  3007                     move.w     D0, D7
000016EA  E740                     asl        D0.w, 3
000016EC  0640 F902                addi.w     D0, 0xF902
000016F0  3035 0000                move.w     D0, [A5 + D0.w]
000016F4  5B40                     subq.w     D0, 5
000016F6  3207                     move.w     D1, D7
000016F8  E741                     asl        D1.w, 3
000016FA  0641 F8FE                addi.w     D1, 0xF8FE
000016FE  3B80 1000                move.w     [A5 + D1.w], D0
00001702  3007                     move.w     D0, D7
00001704  C1FC 000C                muls.w     D0, 0xC
00001708  0640 F986                addi.w     D0, 0xF986
0000170C  42B5 0000                clr.l      [A5 + D0.w]
00001710  302D BB3A                move.w     D0, [A5 - 0x44C6]
00001714  C1FC 013A                muls.w     D0, 0x13A
00001718  3207                     move.w     D1, D7
0000171A  E941                     asl        D1.w, 4
0000171C  D041                     add.w      D0, D1
0000171E  0640 BFE0                addi.w     D0, 0xBFE0
00001722  4235 0000                clr.b      [A5 + D0.w]
00001726  6000 0378                bra        +0x37A /* 00001AA0 */
0000172A  3C07                     move.w     D6, D7
0000172C  E746                     asl        D6.w, 3
0000172E  41ED F8FE                lea.l      A0, [A5 - 0x702]
00001732  3030 6000                move.w     D0, [A0 + D6.w]
00001736  906D F762                sub.w      D0, [A5 - 0x89E]
0000173A  5240                     addq.w     D0, 1
0000173C  3C00                     move.w     D6, D0
0000173E  302D F72E                move.w     D0, [A5 - 0x8D2]
00001742  D046                     add.w      D0, D6
00001744  3B40 F72E                move.w     [A5 - 0x8D2], D0
00001748  302D F732                move.w     D0, [A5 - 0x8CE]
0000174C  D046                     add.w      D0, D6
0000174E  3B40 F732                move.w     [A5 - 0x8CE], D0
00001752  302D F75E                move.w     D0, [A5 - 0x8A2]
00001756  D046                     add.w      D0, D6
00001758  3B40 F75E                move.w     [A5 - 0x8A2], D0
0000175C  302D F762                move.w     D0, [A5 - 0x89E]
00001760  D046                     add.w      D0, D6
00001762  3B40 F762                move.w     [A5 - 0x89E], D0
00001766  1B7C 0001 FD8D           move.b     [A5 - 0x273], 0x1
0000176C  6000 0332                bra        +0x334 /* 00001AA0 */
00001770  3007                     move.w     D0, D7
00001772  C1FC 000C                muls.w     D0, 0xC
00001776  0640 F98A                addi.w     D0, 0xF98A
0000177A  4AB5 0000                tst.l      [A5 + D0.w]
0000177E  6700 0320                beq        +0x322 /* 00001AA0 */
00001782  3F3C 0001                move.w     -[A7], 0x1
00001786  A9C8                     syscall    SysBeep
00001788  3007                     move.w     D0, D7
0000178A  C1FC 000C                muls.w     D0, 0xC
0000178E  0640 F98A                addi.w     D0, 0xF98A
00001792  42B5 0000                clr.l      [A5 + D0.w]
00001796  6000 0308                bra        +0x30A /* 00001AA0 */
0000179A  3007                     move.w     D0, D7
0000179C  C1FC 000C                muls.w     D0, 0xC
000017A0  0640 F98A                addi.w     D0, 0xF98A
000017A4  4AB5 0000                tst.l      [A5 + D0.w]
000017A8  6700 02F6                beq        +0x2F8 /* 00001AA0 */
000017AC  3F3C 0001                move.w     -[A7], 0x1
000017B0  A9C8                     syscall    SysBeep
000017B2  3007                     move.w     D0, D7
000017B4  C1FC 000C                muls.w     D0, 0xC
000017B8  322D F774                move.w     D1, [A5 - 0x88C]
000017BC  48C1                     ext.l      D1
000017BE  0640 F98A                addi.w     D0, 0xF98A
000017C2  D2B5 0000                add.l      D1, [A5 + D0.w]
000017C6  3B41 F774                move.w     [A5 - 0x88C], D1
000017CA  3007                     move.w     D0, D7
000017CC  C1FC 000C                muls.w     D0, 0xC
000017D0  0640 F98A                addi.w     D0, 0xF98A
000017D4  42B5 0000                clr.l      [A5 + D0.w]
000017D8  6000 02C6                bra        +0x2C8 /* 00001AA0 */
000017DC  3007                     move.w     D0, D7
000017DE  C1FC 000C                muls.w     D0, 0xC
000017E2  0640 F98A                addi.w     D0, 0xF98A
000017E6  4AB5 0000                tst.l      [A5 + D0.w]
000017EA  6700 02B4                beq        +0x2B6 /* 00001AA0 */
000017EE  3F3C 0001                move.w     -[A7], 0x1
000017F2  A9C8                     syscall    SysBeep
000017F4  3007                     move.w     D0, D7
000017F6  C1FC 000C                muls.w     D0, 0xC
000017FA  0640 F98A                addi.w     D0, 0xF98A
000017FE  42B5 0000                clr.l      [A5 + D0.w]
00001802  6000 029C                bra        +0x29E /* 00001AA0 */
00001806  4A2D FD82                tst.b      [A5 - 0x27E]
0000180A  6700 0294                beq        +0x296 /* 00001AA0 */
0000180E  3F3C 0001                move.w     -[A7], 0x1
00001812  A9C8                     syscall    SysBeep
00001814  426D FDF8                clr.w      [A5 - 0x208]
00001818  422D FD82                clr.b      [A5 - 0x27E]
0000181C  6000 0282                bra        +0x284 /* 00001AA0 */
00001820  4A2D FD83                tst.b      [A5 - 0x27D]
00001824  6700 027A                beq        +0x27C /* 00001AA0 */
00001828  3F3C 0001                move.w     -[A7], 0x1
0000182C  A9C8                     syscall    SysBeep
0000182E  422D FD83                clr.b      [A5 - 0x27D]
00001832  6000 026C                bra        +0x26E /* 00001AA0 */
00001836  3007                     move.w     D0, D7
00001838  C1FC 000C                muls.w     D0, 0xC
0000183C  0640 F98A                addi.w     D0, 0xF98A
00001840  4AB5 0000                tst.l      [A5 + D0.w]
00001844  6700 025A                beq        +0x25C /* 00001AA0 */
00001848  422D F776                clr.b      [A5 - 0x88A]
0000184C  3B7C 0002 F766           move.w     [A5 - 0x89A], 0x2
00001852  302D F732                move.w     D0, [A5 - 0x8CE]
00001856  0640 FFEC                addi.w     D0, 0xFFEC
0000185A  3B40 F72E                move.w     [A5 - 0x8D2], D0
0000185E  4A2D F76B                tst.b      [A5 - 0x895]
00001862  6708                     beq        +0xA /* 0000186C */
00001864  426D F76C                clr.w      [A5 - 0x894]
00001868  6000 0236                bra        +0x238 /* 00001AA0 */
label0000186C:
0000186C  3B7C 0002 F76C           move.w     [A5 - 0x894], 0x2
00001872  6000 022C                bra        +0x22E /* 00001AA0 */
00001876  3007                     move.w     D0, D7
00001878  C1FC 000C                muls.w     D0, 0xC
0000187C  2F00                     move.l     -[A7], D0
0000187E  594F                     subq.w     A7, 4
00001880  A975                     syscall    TickCount
00001882  221F                     move.l     D1, [A7]+
00001884  201F                     move.l     D0, [A7]+
00001886  0640 F98E                addi.w     D0, 0xF98E
0000188A  B2B5 0000                cmp.l      D1, [A5 + D0.w]
0000188E  6F00 0210                ble        +0x212 /* 00001AA0 */
00001892  3F3C 0001                move.w     -[A7], 0x1
00001896  A9C8                     syscall    SysBeep
00001898  3C07                     move.w     D6, D7
0000189A  CDFC 000C                muls.w     D6, 0xC
0000189E  41ED F98C                lea.l      A0, [A5 - 0x674]
000018A2  3C30 6000                move.w     D6, [A0 + D6.w]
000018A6  302D BB3A                move.w     D0, [A5 - 0x44C6]
000018AA  C1FC 013A                muls.w     D0, 0x13A
000018AE  3206                     move.w     D1, D6
000018B0  E941                     asl        D1.w, 4
000018B2  D041                     add.w      D0, D1
000018B4  0640 BFD2                addi.w     D0, 0xBFD2
000018B8  49F5 0000                lea.l      A4, [A5 + D0.w]
000018BC  102C 000E                move.b     D0, [A4 + 0xE]
000018C0  5300                     subq.b     D0, 1
000018C2  4400                     neg.b      D0
000018C4  1940 000E                move.b     [A4 + 0xE], D0
000018C8  3014                     move.w     D0, [A4]
000018CA  6000 00A8                bra        +0xAA /* 00001974 */
label000018CE:
000018CE  3006                     move.w     D0, D6
000018D0  C1FC 000C                muls.w     D0, 0xC
000018D4  0640 F986                addi.w     D0, 0xF986
000018D8  4AB5 0000                tst.l      [A5 + D0.w]
000018DC  661A                     bne        +0x1C /* 000018F8 */
000018DE  3F3C 0001                move.w     -[A7], 0x1
000018E2  A9C8                     syscall    SysBeep
000018E4  3006                     move.w     D0, D6
000018E6  C1FC 000C                muls.w     D0, 0xC
000018EA  0640 F986                addi.w     D0, 0xF986
000018EE  7206                     moveq.l    D1, 0x06
000018F0  2B81 0000                move.l     [A5 + D0.w], D1
000018F4  6000 0090                bra        +0x92 /* 00001986 */
label000018F8:
000018F8  3006                     move.w     D0, D6
000018FA  C1FC 000C                muls.w     D0, 0xC
000018FE  0640 F986                addi.w     D0, 0xF986
00001902  42B5 0000                clr.l      [A5 + D0.w]
00001906  6000 007E                bra        +0x80 /* 00001986 */
label0000190A:
0000190A  3006                     move.w     D0, D6
0000190C  C1FC 000C                muls.w     D0, 0xC
00001910  0640 F986                addi.w     D0, 0xF986
00001914  4AB5 0000                tst.l      [A5 + D0.w]
00001918  6618                     bne        +0x1A /* 00001932 */
0000191A  3F3C 0001                move.w     -[A7], 0x1
0000191E  A9C8                     syscall    SysBeep
00001920  3006                     move.w     D0, D6
00001922  C1FC 000C                muls.w     D0, 0xC
00001926  0640 F986                addi.w     D0, 0xF986
0000192A  7207                     moveq.l    D1, 0x07
0000192C  2B81 0000                move.l     [A5 + D0.w], D1
00001930  6054                     bra        +0x56 /* 00001986 */
label00001932:
00001932  3006                     move.w     D0, D6
00001934  C1FC 000C                muls.w     D0, 0xC
00001938  0640 F986                addi.w     D0, 0xF986
0000193C  42B5 0000                clr.l      [A5 + D0.w]
00001940  6044                     bra        +0x46 /* 00001986 */
label00001942:
00001942  3006                     move.w     D0, D6
00001944  C1FC 000C                muls.w     D0, 0xC
00001948  0640 F986                addi.w     D0, 0xF986
0000194C  4AB5 0000                tst.l      [A5 + D0.w]
00001950  6612                     bne        +0x14 /* 00001964 */
00001952  3006                     move.w     D0, D6
00001954  C1FC 000C                muls.w     D0, 0xC
00001958  0640 F986                addi.w     D0, 0xF986
0000195C  7212                     moveq.l    D1, 0x12
0000195E  2B81 0000                move.l     [A5 + D0.w], D1
00001962  6022                     bra        +0x24 /* 00001986 */
label00001964:
00001964  3006                     move.w     D0, D6
00001966  C1FC 000C                muls.w     D0, 0xC
0000196A  0640 F986                addi.w     D0, 0xF986
0000196E  42B5 0000                clr.l      [A5 + D0.w]
00001972  6012                     bra        +0x14 /* 00001986 */
label00001974:
00001974  0640 FFF4                addi.w     D0, 0xFFF4
00001978  6700 FF54                beq        -0xAA /* 000018CE */
0000197C  5340                     subq.w     D0, 1
0000197E  678A                     beq        -0x74 /* 0000190A */
00001980  0640 FFF2                addi.w     D0, 0xFFF2
00001984  67BC                     beq        -0x42 /* 00001942 */
label00001986:
00001986  594F                     subq.w     A7, 4
00001988  A975                     syscall    TickCount
0000198A  705A                     moveq.l    D0, 0x5A
0000198C  D09F                     add.l      D0, [A7]+
0000198E  3207                     move.w     D1, D7
00001990  C3FC 000C                muls.w     D1, 0xC
00001994  0641 F98E                addi.w     D1, 0xF98E
00001998  2B80 1000                move.l     [A5 + D1.w], D0
0000199C  6000 0102                bra        +0x104 /* 00001AA0 */
000019A0  3007                     move.w     D0, D7
000019A2  C1FC 000C                muls.w     D0, 0xC
000019A6  2F00                     move.l     -[A7], D0
000019A8  594F                     subq.w     A7, 4
000019AA  A975                     syscall    TickCount
000019AC  221F                     move.l     D1, [A7]+
000019AE  201F                     move.l     D0, [A7]+
000019B0  0640 F98A                addi.w     D0, 0xF98A
000019B4  B2B5 0000                cmp.l      D1, [A5 + D0.w]
000019B8  6F00 00E6                ble        +0xE8 /* 00001AA0 */
000019BC  3F3C 0001                move.w     -[A7], 0x1
000019C0  A9C8                     syscall    SysBeep
000019C2  594F                     subq.w     A7, 4
000019C4  A975                     syscall    TickCount
000019C6  7078                     moveq.l    D0, 0x78
000019C8  D09F                     add.l      D0, [A7]+
000019CA  3207                     move.w     D1, D7
000019CC  C3FC 000C                muls.w     D1, 0xC
000019D0  0641 F98A                addi.w     D1, 0xF98A
000019D4  2B80 1000                move.l     [A5 + D1.w], D0
000019D8  6000 00C6                bra        +0xC8 /* 00001AA0 */
000019DC  422D F776                clr.b      [A5 - 0x88A]
000019E0  3B7C 0006 F766           move.w     [A5 - 0x89A], 0x6
000019E6  422D FD8F                clr.b      [A5 - 0x271]
000019EA  6000 00B4                bra        +0xB6 /* 00001AA0 */
000019EE  422D F776                clr.b      [A5 - 0x88A]
000019F2  3B7C 0007 F766           move.w     [A5 - 0x89A], 0x7
000019F8  422D FD8F                clr.b      [A5 - 0x271]
000019FC  6000 00A2                bra        +0xA4 /* 00001AA0 */
00001A00  422D F776                clr.b      [A5 - 0x88A]
00001A04  3B7C 0008 F766           move.w     [A5 - 0x89A], 0x8
00001A0A  3007                     move.w     D0, D7
00001A0C  E740                     asl        D0.w, 3
00001A0E  0640 F902                addi.w     D0, 0xF902
00001A12  3B75 0000 F72E           move.w     [A5 - 0x8D2], [A5 + D0.w]
00001A18  3B6D F72E F732           move.w     [A5 - 0x8CE], [A5 - 0x8D2]
00001A1E  3007                     move.w     D0, D7
00001A20  E740                     asl        D0.w, 3
00001A22  0640 F900                addi.w     D0, 0xF900
00001A26  3035 0000                move.w     D0, [A5 + D0.w]
00001A2A  0640 000C                addi.w     D0, 0xC
00001A2E  3B40 F730                move.w     [A5 - 0x8D0], D0
00001A32  302D F730                move.w     D0, [A5 - 0x8D0]
00001A36  0640 0030                addi.w     D0, 0x30 /* '0' */
00001A3A  3B40 F734                move.w     [A5 - 0x8CC], D0
00001A3E  3B6D F730 F748           move.w     [A5 - 0x8B8], [A5 - 0x8D0]
00001A44  3B6D F734 F74C           move.w     [A5 - 0x8B4], [A5 - 0x8CC]
00001A4A  426D F768                clr.w      [A5 - 0x898]
00001A4E  6050                     bra        +0x52 /* 00001AA0 */
00001A50  3B7C FFF9 F77A           move.w     [A5 - 0x886], 0xFFF9
00001A56  3B7C FFF9 F77E           move.w     [A5 - 0x882], 0xFFF9
00001A5C  6042                     bra        +0x44 /* 00001AA0 */
label00001A5E:
00001A5E  0C40 0019                cmpi.w     D0, 0x19
00001A62  643C                     bcc        +0x3E /* 00001AA0 */
00001A64  D040                     add.w      D0, D0
00001A66  303B 0006                move.w     D0, [PC + D0.w + 0x6]
00001A6A  4EFB 0002                jmp        [PC + D0.w + 0x2]
00001A6E  FACC FAD0                .extension 0xACC <<F/2-3/5>> // unimplemented
00001A72  FB04                     .extension 0xB04 <<F/4-5/5>> // unimplemented
00001A74  FB4C                     .extension 0xB4C <<F/4-5/5>> // unimplemented
00001A76  FB18                     .extension 0xB18 <<F/4-5/5>> // unimplemented
00001A78  FBAA                     .invalid   <<F/6/5>>
00001A7A  FB60                     .extension 0xB60 <<F/4-5/5>> // unimplemented
00001A7C  FB84                     .invalid   <<F/6/5>>
00001A7E  FBFA                     .invalid   <<F/7/5>>
00001A80  FC24 FCBC                .unknown   0xFC24 0xFCBC (W = 6)
00001A84  FD6E                     .extension 0xD6E <<F/4-5/6>> // unimplemented
00001A86  FD2C                     .extension 0xD2C <<F/4-5/6>> // unimplemented
00001A88  FD02                     .extension 0xD02 <<F/4-5/6>> // unimplemented
00001A8A  FF32                     .extension 0xF32 <<F/4-5/7>> // unimplemented
00001A8C  FD98                     .invalid   <<F/6/6>>
00001A8E  FDC8                     .invalid   <<F/7/6>>
00001A90  FDB2                     .invalid   <<F/6/6>>
00001A92  FF92                     .invalid   <<F/6/7>>
00001A94  FE08 0032                .unknown   0xFE08 0x0032 (W = 7)
00001A98  FC4E FF6E                .extension 0xC4E <<F/1/6>>, 0xFF6E // unimplemented
00001A9C  FF80                     .invalid   <<F/6/7>>
00001A9E  FFE2                     .invalid   <<F/7/7>>
label00001AA0:
00001AA0  4CDF 10C0                movem.l    D6,D7,A4, [A7]+
00001AA4  4E5E                     unlink     A6
00001AA6  2E9F                     move.l     [A7], [A7]+
00001AA8  4E75                     rts
fn00001AAA:
00001AAA  4E56 0000                link       A6, 0
00001AAE  3F3C 0001                move.w     -[A7], 0x1
00001AB2  A9C8                     syscall    SysBeep
00001AB4  422D F776                clr.b      [A5 - 0x88A]
00001AB8  3B7C 0002 F766           move.w     [A5 - 0x89A], 0x2
00001ABE  4A2D F76B                tst.b      [A5 - 0x895]
00001AC2  6706                     beq        +0x8 /* 00001ACA */
00001AC4  426D F76C                clr.w      [A5 - 0x894]
00001AC8  6006                     bra        +0x8 /* 00001AD0 */
label00001ACA:
00001ACA  3B7C 0002 F76C           move.w     [A5 - 0x894], 0x2
label00001AD0:
00001AD0  4E5E                     unlink     A6
00001AD2  2E9F                     move.l     [A7], [A7]+
00001AD4  4E75                     rts
fn00001AD6:
00001AD6  4E56 0000                link       A6, 0
00001ADA  48E7 0018                movem.l    -[A7], A3,A4
00001ADE  266E 0008                movea.l    A3, [A6 + 0x8]
00001AE2  302D F730                move.w     D0, [A5 - 0x8D0]
00001AE6  D06B FFEC                add.w      D0, [A3 - 0x14]
00001AEA  3B40 F730                move.w     [A5 - 0x8D0], D0
00001AEE  302D F734                move.w     D0, [A5 - 0x8CC]
00001AF2  D06B FFEC                add.w      D0, [A3 - 0x14]
00001AF6  3B40 F734                move.w     [A5 - 0x8CC], D0
00001AFA  302D F748                move.w     D0, [A5 - 0x8B8]
00001AFE  D06B FFEC                add.w      D0, [A3 - 0x14]
00001B02  3B40 F748                move.w     [A5 - 0x8B8], D0
00001B06  302D F74C                move.w     D0, [A5 - 0x8B4]
00001B0A  D06B FFEC                add.w      D0, [A3 - 0x14]
00001B0E  3B40 F74C                move.w     [A5 - 0x8B4], D0
00001B12  302D F760                move.w     D0, [A5 - 0x8A0]
00001B16  D06B FFEC                add.w      D0, [A3 - 0x14]
00001B1A  3B40 F760                move.w     [A5 - 0x8A0], D0
00001B1E  302D F764                move.w     D0, [A5 - 0x89C]
00001B22  D06B FFEC                add.w      D0, [A3 - 0x14]
00001B26  3B40 F764                move.w     [A5 - 0x89C], D0
00001B2A  4CDF 1800                movem.l    A3,A4, [A7]+
00001B2E  4E5E                     unlink     A6
00001B30  2E9F                     move.l     [A7], [A7]+
00001B32  4E75                     rts
fn00001B34:
00001B34  4E56 FFDA                link       A6, -0x0026
00001B38  2F07                     move.l     -[A7], D7
00001B3A  41ED F75E                lea.l      A0, [A5 - 0x8A2]
00001B3E  43EE FFE4                lea.l      A1, [A6 - 0x1C]
00001B42  22D8                     move.l     [A1]+, [A0]+
00001B44  22D8                     move.l     [A1]+, [A0]+
00001B46  4A2D FD85                tst.b      [A5 - 0x27B]
00001B4A  6712                     beq        +0x14 /* 00001B5E */
00001B4C  0C6D 01F4 F730           cmpi.w     [A5 - 0x8D0], 0x1F4
00001B52  6F24                     ble        +0x26 /* 00001B78 */
00001B54  422D FD8F                clr.b      [A5 - 0x271]
00001B58  6000 00A0                bra        +0xA2 /* 00001BFA */
00001B5C  601A                     bra        +0x1C /* 00001B78 */
label00001B5E:
00001B5E  0C6D 0200 F734           cmpi.w     [A5 - 0x8CC], 0x200
00001B64  6F12                     ble        +0x14 /* 00001B78 */
00001B66  303C 0200                move.w     D0, 0x200
00001B6A  906D F734                sub.w      D0, [A5 - 0x8CC]
00001B6E  3D40 FFEC                move.w     [A6 - 0x14], D0
00001B72  2F0E                     move.l     -[A7], A6
00001B74  4EBA FF60                jsr        [PC - 0xA0 /* 00001AD6 */]
label00001B78:
00001B78  4A2D FD84                tst.b      [A5 - 0x27C]
00001B7C  6712                     beq        +0x14 /* 00001B90 */
00001B7E  0C6D 000C F734           cmpi.w     [A5 - 0x8CC], 0xC
00001B84  6C20                     bge        +0x22 /* 00001BA6 */
00001B86  422D FD8F                clr.b      [A5 - 0x271]
00001B8A  6000 006E                bra        +0x70 /* 00001BFA */
00001B8E  6016                     bra        +0x18 /* 00001BA6 */
label00001B90:
00001B90  4A6D F730                tst.w      [A5 - 0x8D0]
00001B94  6C10                     bge        +0x12 /* 00001BA6 */
00001B96  302D F730                move.w     D0, [A5 - 0x8D0]
00001B9A  4440                     neg.w      D0
00001B9C  3D40 FFEC                move.w     [A6 - 0x14], D0
00001BA0  2F0E                     move.l     -[A7], A6
00001BA2  4EBA FF32                jsr        [PC - 0xCE /* 00001AD6 */]
label00001BA6:
00001BA6  0C6D 014A F732           cmpi.w     [A5 - 0x8CE], 0x14A
00001BAC  6F06                     ble        +0x8 /* 00001BB4 */
00001BAE  2F0E                     move.l     -[A7], A6
00001BB0  4EBA FEF8                jsr        [PC - 0x108 /* 00001AAA */]
label00001BB4:
00001BB4  426D F77E                clr.w      [A5 - 0x882]
00001BB8  3D6D FDBA FFDA           move.w     [A6 - 0x26], [A5 - 0x246]
00001BBE  7E01                     moveq.l    D7, 0x01
00001BC0  6032                     bra        +0x34 /* 00001BF4 */
label00001BC2:
00001BC2  554F                     subq.w     A7, 2
00001BC4  3007                     move.w     D0, D7
00001BC6  E740                     asl        D0.w, 3
00001BC8  0640 F8FE                addi.w     D0, 0xF8FE
00001BCC  4875 0000                pea.l      [A5 + D0.w]
00001BD0  486E FFE4                pea.l      [A6 - 0x1C]
00001BD4  4EBA F8EC                jsr        [PC - 0x714 /* 000014C2 */]
00001BD8  4A1F                     tst.b      [A7]+
00001BDA  6714                     beq        +0x16 /* 00001BF0 */
00001BDC  3007                     move.w     D0, D7
00001BDE  C1FC 000C                muls.w     D0, 0xC
00001BE2  0640 F988                addi.w     D0, 0xF988
00001BE6  3F35 0000                move.w     -[A7], [A5 + D0.w]
00001BEA  3F07                     move.w     -[A7], D7
00001BEC  4EBA F938                jsr        [PC - 0x6C8 /* 00001526 */]
label00001BF0:
00001BF0  5247                     addq.w     D7, 1
00001BF2  6906                     bvs        +0x8 /* 00001BFA */
label00001BF4:
00001BF4  BE6E FFDA                cmp.w      D7, [A6 - 0x26]
00001BF8  6FC8                     ble        -0x36 /* 00001BC2 */
label00001BFA:
00001BFA  2E1F                     move.l     D7, [A7]+
00001BFC  4E5E                     unlink     A6
00001BFE  4E75                     rts
fn00001C00:
00001C00  4E56 0000                link       A6, 0
00001C04  3B6E 000C F76E           move.w     [A5 - 0x892], [A6 + 0xC]
00001C0A  4E5E                     unlink     A6
00001C0C  205F                     movea.l    A0, [A7]+
00001C0E  5C4F                     addq.w     A7, 6
00001C10  4ED0                     jmp        [A0]
fn00001C12:
00001C12  4E56 0000                link       A6, 0
00001C16  4E5E                     unlink     A6
00001C18  2E9F                     move.l     [A7], [A7]+
00001C1A  4E75                     rts
fn00001C1C:
00001C1C  4E56 FFE2                link       A6, -0x001E
00001C20  2F07                     move.l     -[A7], D7
00001C22  302D BB54                move.w     D0, [A5 - 0x44AC]
00001C26  6000 05FE                bra        +0x600 /* 00002226 */
label00001C2A:
00001C2A  486D BAF8                pea.l      [A5 - 0x4508]
00001C2E  A976                     syscall    GetKeys
00001C30  302D BB56                move.w     D0, [A5 - 0x44AA]
00001C34  3200                     move.w     D1, D0
00001C36  E649                     lsr        D1.w, 3
00001C38  0641 BAF8                addi.w     D1, 0xBAF8
00001C3C  0135 1000                btst       [A5 + D1.w], D0
00001C40  672E                     beq        +0x30 /* 00001C70 */
00001C42  4A2D F76A                tst.b      [A5 - 0x896]
00001C46  6714                     beq        +0x16 /* 00001C5C */
00001C48  422D F76B                clr.b      [A5 - 0x895]
00001C4C  3B7C 0001 F76C           move.w     [A5 - 0x894], 0x1
00001C52  3B7C FFFB F76E           move.w     [A5 - 0x892], 0xFFFB
00001C58  6000 0078                bra        +0x7A /* 00001CD2 */
label00001C5C:
00001C5C  1B7C 0001 F76B           move.b     [A5 - 0x895], 0x1
00001C62  3B7C 0002 F76C           move.w     [A5 - 0x894], 0x2
00001C68  3B7C FFFB F76E           move.w     [A5 - 0x892], 0xFFFB
00001C6E  6062                     bra        +0x64 /* 00001CD2 */
label00001C70:
00001C70  302D BB58                move.w     D0, [A5 - 0x44A8]
00001C74  3200                     move.w     D1, D0
00001C76  E649                     lsr        D1.w, 3
00001C78  0641 BAF8                addi.w     D1, 0xBAF8
00001C7C  0135 1000                btst       [A5 + D1.w], D0
00001C80  672A                     beq        +0x2C /* 00001CAC */
00001C82  4A2D F76A                tst.b      [A5 - 0x896]
00001C86  6712                     beq        +0x14 /* 00001C9A */
00001C88  1B7C 0001 F76B           move.b     [A5 - 0x895], 0x1
00001C8E  426D F76C                clr.w      [A5 - 0x894]
00001C92  3B7C 0005 F76E           move.w     [A5 - 0x892], 0x5
00001C98  6038                     bra        +0x3A /* 00001CD2 */
label00001C9A:
00001C9A  422D F76B                clr.b      [A5 - 0x895]
00001C9E  3B7C 0003 F76C           move.w     [A5 - 0x894], 0x3
00001CA4  3B7C 0005 F76E           move.w     [A5 - 0x892], 0x5
00001CAA  6026                     bra        +0x28 /* 00001CD2 */
label00001CAC:
00001CAC  4A2D F76A                tst.b      [A5 - 0x896]
00001CB0  6710                     beq        +0x12 /* 00001CC2 */
00001CB2  1B7C 0001 F76B           move.b     [A5 - 0x895], 0x1
00001CB8  426D F76C                clr.w      [A5 - 0x894]
00001CBC  426D F76E                clr.w      [A5 - 0x892]
00001CC0  6010                     bra        +0x12 /* 00001CD2 */
label00001CC2:
00001CC2  1B7C 0001 F76B           move.b     [A5 - 0x895], 0x1
00001CC8  3B7C 0002 F76C           move.w     [A5 - 0x894], 0x2
00001CCE  426D F76E                clr.w      [A5 - 0x892]
label00001CD2:
00001CD2  302D BB5C                move.w     D0, [A5 - 0x44A4]
00001CD6  3200                     move.w     D1, D0
00001CD8  E649                     lsr        D1.w, 3
00001CDA  0641 BAF8                addi.w     D1, 0xBAF8
00001CDE  0135 1000                btst       [A5 + D1.w], D0
00001CE2  56C0                     sne        D0
00001CE4  122D FD9D                move.b     D1, [A5 - 0x263]
00001CE8  5301                     subq.b     D1, 1
00001CEA  C001                     and.b      D0, D1
00001CEC  6706                     beq        +0x8 /* 00001CF4 */
00001CEE  2F0E                     move.l     -[A7], A6
00001CF0  4EBA FF20                jsr        [PC - 0xE0 /* 00001C12 */]
label00001CF4:
00001CF4  302D BB5A                move.w     D0, [A5 - 0x44A6]
00001CF8  3200                     move.w     D1, D0
00001CFA  E649                     lsr        D1.w, 3
00001CFC  0641 BAF8                addi.w     D1, 0xBAF8
00001D00  0135 1000                btst       [A5 + D1.w], D0
00001D04  6700 0538                beq        +0x53A /* 0000223E */
00001D08  102D F76A                move.b     D0, [A5 - 0x896]
00001D0C  C02D F76B                and.b      D0, [A5 - 0x895]
00001D10  122D F76A                move.b     D1, [A5 - 0x896]
00001D14  5301                     subq.b     D1, 1
00001D16  142D F76B                move.b     D2, [A5 - 0x895]
00001D1A  5302                     subq.b     D2, 1
00001D1C  C202                     and.b      D1, D2
00001D1E  4401                     neg.b      D1
00001D20  8001                     or.b       D0, D1
00001D22  670E                     beq        +0x10 /* 00001D32 */
00001D24  3F3C 0010                move.w     -[A7], 0x10
00001D28  2F0E                     move.l     -[A7], A6
00001D2A  4EBA FED4                jsr        [PC - 0x12C /* 00001C00 */]
00001D2E  6000 050E                bra        +0x510 /* 0000223E */
label00001D32:
00001D32  3F3C FFF0                move.w     -[A7], 0xFFF0
00001D36  2F0E                     move.l     -[A7], A6
00001D38  4EBA FEC6                jsr        [PC - 0x13A /* 00001C00 */]
00001D3C  6000 0500                bra        +0x502 /* 0000223E */
label00001D40:
00001D40  102D F76A                move.b     D0, [A5 - 0x896]
00001D44  C02D F76B                and.b      D0, [A5 - 0x895]
00001D48  122D F76A                move.b     D1, [A5 - 0x896]
00001D4C  5301                     subq.b     D1, 1
00001D4E  142D F76B                move.b     D2, [A5 - 0x895]
00001D52  5302                     subq.b     D2, 1
00001D54  C202                     and.b      D1, D2
00001D56  4401                     neg.b      D1
00001D58  8001                     or.b       D0, D1
00001D5A  6708                     beq        +0xA /* 00001D64 */
00001D5C  3B7C 0005 F76E           move.w     [A5 - 0x892], 0x5
00001D62  6006                     bra        +0x8 /* 00001D6A */
label00001D64:
00001D64  3B7C FFFB F76E           move.w     [A5 - 0x892], 0xFFFB
label00001D6A:
00001D6A  486D BAF8                pea.l      [A5 - 0x4508]
00001D6E  A976                     syscall    GetKeys
00001D70  302D BB56                move.w     D0, [A5 - 0x44AA]
00001D74  3200                     move.w     D1, D0
00001D76  E649                     lsr        D1.w, 3
00001D78  0641 BAF8                addi.w     D1, 0xBAF8
00001D7C  0135 1000                btst       [A5 + D1.w], D0
00001D80  672C                     beq        +0x2E /* 00001DAE */
00001D82  4A2D F76A                tst.b      [A5 - 0x896]
00001D86  6712                     beq        +0x14 /* 00001D9A */
00001D88  422D F76B                clr.b      [A5 - 0x895]
00001D8C  3B7C 0001 F76C           move.w     [A5 - 0x894], 0x1
00001D92  3B7C FFFB F76E           move.w     [A5 - 0x892], 0xFFFB
00001D98  604E                     bra        +0x50 /* 00001DE8 */
label00001D9A:
00001D9A  1B7C 0001 F76B           move.b     [A5 - 0x895], 0x1
00001DA0  3B7C 0002 F76C           move.w     [A5 - 0x894], 0x2
00001DA6  3B7C FFFB F76E           move.w     [A5 - 0x892], 0xFFFB
00001DAC  603A                     bra        +0x3C /* 00001DE8 */
label00001DAE:
00001DAE  302D BB58                move.w     D0, [A5 - 0x44A8]
00001DB2  3200                     move.w     D1, D0
00001DB4  E649                     lsr        D1.w, 3
00001DB6  0641 BAF8                addi.w     D1, 0xBAF8
00001DBA  0135 1000                btst       [A5 + D1.w], D0
00001DBE  6728                     beq        +0x2A /* 00001DE8 */
00001DC0  4A2D F76A                tst.b      [A5 - 0x896]
00001DC4  6712                     beq        +0x14 /* 00001DD8 */
00001DC6  1B7C 0001 F76B           move.b     [A5 - 0x895], 0x1
00001DCC  426D F76C                clr.w      [A5 - 0x894]
00001DD0  3B7C 0005 F76E           move.w     [A5 - 0x892], 0x5
00001DD6  6010                     bra        +0x12 /* 00001DE8 */
label00001DD8:
00001DD8  422D F76B                clr.b      [A5 - 0x895]
00001DDC  3B7C 0003 F76C           move.w     [A5 - 0x894], 0x3
00001DE2  3B7C 0005 F76E           move.w     [A5 - 0x892], 0x5
label00001DE8:
00001DE8  302D BB5C                move.w     D0, [A5 - 0x44A4]
00001DEC  3200                     move.w     D1, D0
00001DEE  E649                     lsr        D1.w, 3
00001DF0  0641 BAF8                addi.w     D1, 0xBAF8
00001DF4  0135 1000                btst       [A5 + D1.w], D0
00001DF8  56C0                     sne        D0
00001DFA  122D FD9D                move.b     D1, [A5 - 0x263]
00001DFE  5301                     subq.b     D1, 1
00001E00  C001                     and.b      D0, D1
00001E02  6706                     beq        +0x8 /* 00001E0A */
00001E04  2F0E                     move.l     -[A7], A6
00001E06  4EBA FE0A                jsr        [PC - 0x1F6 /* 00001C12 */]
label00001E0A:
00001E0A  302D BB5A                move.w     D0, [A5 - 0x44A6]
00001E0E  3200                     move.w     D1, D0
00001E10  E649                     lsr        D1.w, 3
00001E12  0641 BAF8                addi.w     D1, 0xBAF8
00001E16  0135 1000                btst       [A5 + D1.w], D0
00001E1A  6700 0422                beq        +0x424 /* 0000223E */
00001E1E  102D F76A                move.b     D0, [A5 - 0x896]
00001E22  C02D F76B                and.b      D0, [A5 - 0x895]
00001E26  122D F76A                move.b     D1, [A5 - 0x896]
00001E2A  5301                     subq.b     D1, 1
00001E2C  142D F76B                move.b     D2, [A5 - 0x895]
00001E30  5302                     subq.b     D2, 1
00001E32  C202                     and.b      D1, D2
00001E34  4401                     neg.b      D1
00001E36  8001                     or.b       D0, D1
00001E38  670E                     beq        +0x10 /* 00001E48 */
00001E3A  3F3C 0010                move.w     -[A7], 0x10
00001E3E  2F0E                     move.l     -[A7], A6
00001E40  4EBA FDBE                jsr        [PC - 0x242 /* 00001C00 */]
00001E44  6000 03F8                bra        +0x3FA /* 0000223E */
label00001E48:
00001E48  3F3C FFF0                move.w     -[A7], 0xFFF0
00001E4C  2F0E                     move.l     -[A7], A6
00001E4E  4EBA FDB0                jsr        [PC - 0x250 /* 00001C00 */]
00001E52  6000 03EA                bra        +0x3EC /* 0000223E */
label00001E56:
00001E56  486D BAF8                pea.l      [A5 - 0x4508]
00001E5A  A976                     syscall    GetKeys
00001E5C  302D BB5C                move.w     D0, [A5 - 0x44A4]
00001E60  3200                     move.w     D1, D0
00001E62  E649                     lsr        D1.w, 3
00001E64  0641 BAF8                addi.w     D1, 0xBAF8
00001E68  0135 1000                btst       [A5 + D1.w], D0
00001E6C  56C0                     sne        D0
00001E6E  122D FD9D                move.b     D1, [A5 - 0x263]
00001E72  5301                     subq.b     D1, 1
00001E74  C001                     and.b      D0, D1
00001E76  6706                     beq        +0x8 /* 00001E7E */
00001E78  2F0E                     move.l     -[A7], A6
00001E7A  4EBA FD96                jsr        [PC - 0x26A /* 00001C12 */]
label00001E7E:
00001E7E  486E FFEA                pea.l      [A6 - 0x16]
00001E82  A972                     syscall    GetMouse
00001E84  3E2E FFEC                move.w     D7, [A6 - 0x14]
00001E88  0647 FF00                addi.w     D7, 0xFF00
00001E8C  DE6D BB40                add.w      D7, [A5 - 0x44C0]
00001E90  48C7                     ext.l      D7
00001E92  8FFC 0020                divs.w     D7, 0x20 /* ' ' */
00001E96  0C47 0005                cmpi.w     D7, 0x5
00001E9A  6F04                     ble        +0x6 /* 00001EA0 */
00001E9C  7E05                     moveq.l    D7, 0x05
00001E9E  6008                     bra        +0xA /* 00001EA8 */
label00001EA0:
00001EA0  0C47 FFFB                cmpi.w     D7, 0xFFFB
00001EA4  6C02                     bge        +0x4 /* 00001EA8 */
00001EA6  7EFB                     moveq.l    D7, 0xFFFFFFFB
label00001EA8:
00001EA8  3B47 F76E                move.w     [A5 - 0x892], D7
00001EAC  4A2D F76A                tst.b      [A5 - 0x896]
00001EB0  6700 00C4                beq        +0xC6 /* 00001F76 */
00001EB4  4A6D F76E                tst.w      [A5 - 0x892]
00001EB8  6C5E                     bge        +0x60 /* 00001F18 */
00001EBA  422D F76B                clr.b      [A5 - 0x895]
00001EBE  3B7C 0001 F76C           move.w     [A5 - 0x894], 0x1
00001EC4  302D BB5A                move.w     D0, [A5 - 0x44A6]
00001EC8  3200                     move.w     D1, D0
00001ECA  E649                     lsr        D1.w, 3
00001ECC  0641 BAF8                addi.w     D1, 0xBAF8
00001ED0  0135 1000                btst       [A5 + D1.w], D0
00001ED4  670A                     beq        +0xC /* 00001EE0 */
00001ED6  3F3C FFF0                move.w     -[A7], 0xFFF0
00001EDA  2F0E                     move.l     -[A7], A6
00001EDC  4EBA FD22                jsr        [PC - 0x2DE /* 00001C00 */]
label00001EE0:
00001EE0  554F                     subq.w     A7, 2
00001EE2  A974                     syscall    Button
00001EE4  4A1F                     tst.b      [A7]+
00001EE6  6700 0356                beq        +0x358 /* 0000223E */
00001EEA  102D FD9C                move.b     D0, [A5 - 0x264]
00001EEE  5300                     subq.b     D0, 1
00001EF0  670E                     beq        +0x10 /* 00001F00 */
00001EF2  3F3C FFF0                move.w     -[A7], 0xFFF0
00001EF6  2F0E                     move.l     -[A7], A6
00001EF8  4EBA FD06                jsr        [PC - 0x2FA /* 00001C00 */]
00001EFC  6000 0340                bra        +0x342 /* 0000223E */
label00001F00:
00001F00  102D FD9D                move.b     D0, [A5 - 0x263]
00001F04  5300                     subq.b     D0, 1
00001F06  C02D FD9C                and.b      D0, [A5 - 0x264]
00001F0A  6700 0332                beq        +0x334 /* 0000223E */
00001F0E  2F0E                     move.l     -[A7], A6
00001F10  4EBA FD00                jsr        [PC - 0x300 /* 00001C12 */]
00001F14  6000 0328                bra        +0x32A /* 0000223E */
label00001F18:
00001F18  1B7C 0001 F76B           move.b     [A5 - 0x895], 0x1
00001F1E  426D F76C                clr.w      [A5 - 0x894]
00001F22  302D BB5A                move.w     D0, [A5 - 0x44A6]
00001F26  3200                     move.w     D1, D0
00001F28  E649                     lsr        D1.w, 3
00001F2A  0641 BAF8                addi.w     D1, 0xBAF8
00001F2E  0135 1000                btst       [A5 + D1.w], D0
00001F32  670A                     beq        +0xC /* 00001F3E */
00001F34  3F3C 0010                move.w     -[A7], 0x10
00001F38  2F0E                     move.l     -[A7], A6
00001F3A  4EBA FCC4                jsr        [PC - 0x33C /* 00001C00 */]
label00001F3E:
00001F3E  554F                     subq.w     A7, 2
00001F40  A974                     syscall    Button
00001F42  4A1F                     tst.b      [A7]+
00001F44  6700 02F8                beq        +0x2FA /* 0000223E */
00001F48  102D FD9C                move.b     D0, [A5 - 0x264]
00001F4C  5300                     subq.b     D0, 1
00001F4E  670E                     beq        +0x10 /* 00001F5E */
00001F50  3F3C 0010                move.w     -[A7], 0x10
00001F54  2F0E                     move.l     -[A7], A6
00001F56  4EBA FCA8                jsr        [PC - 0x358 /* 00001C00 */]
00001F5A  6000 02E2                bra        +0x2E4 /* 0000223E */
label00001F5E:
00001F5E  102D FD9D                move.b     D0, [A5 - 0x263]
00001F62  5300                     subq.b     D0, 1
00001F64  C02D FD9C                and.b      D0, [A5 - 0x264]
00001F68  6700 02D4                beq        +0x2D6 /* 0000223E */
00001F6C  2F0E                     move.l     -[A7], A6
00001F6E  4EBA FCA2                jsr        [PC - 0x35E /* 00001C12 */]
00001F72  6000 02CA                bra        +0x2CC /* 0000223E */
label00001F76:
00001F76  4A6D F76E                tst.w      [A5 - 0x892]
00001F7A  6C60                     bge        +0x62 /* 00001FDC */
00001F7C  1B7C 0001 F76B           move.b     [A5 - 0x895], 0x1
00001F82  3B7C 0002 F76C           move.w     [A5 - 0x894], 0x2
00001F88  302D BB5A                move.w     D0, [A5 - 0x44A6]
00001F8C  3200                     move.w     D1, D0
00001F8E  E649                     lsr        D1.w, 3
00001F90  0641 BAF8                addi.w     D1, 0xBAF8
00001F94  0135 1000                btst       [A5 + D1.w], D0
00001F98  670A                     beq        +0xC /* 00001FA4 */
00001F9A  3F3C FFF0                move.w     -[A7], 0xFFF0
00001F9E  2F0E                     move.l     -[A7], A6
00001FA0  4EBA FC5E                jsr        [PC - 0x3A2 /* 00001C00 */]
label00001FA4:
00001FA4  554F                     subq.w     A7, 2
00001FA6  A974                     syscall    Button
00001FA8  4A1F                     tst.b      [A7]+
00001FAA  6700 0292                beq        +0x294 /* 0000223E */
00001FAE  102D FD9C                move.b     D0, [A5 - 0x264]
00001FB2  5300                     subq.b     D0, 1
00001FB4  670E                     beq        +0x10 /* 00001FC4 */
00001FB6  3F3C FFF0                move.w     -[A7], 0xFFF0
00001FBA  2F0E                     move.l     -[A7], A6
00001FBC  4EBA FC42                jsr        [PC - 0x3BE /* 00001C00 */]
00001FC0  6000 027C                bra        +0x27E /* 0000223E */
label00001FC4:
00001FC4  102D FD9D                move.b     D0, [A5 - 0x263]
00001FC8  5300                     subq.b     D0, 1
00001FCA  C02D FD9C                and.b      D0, [A5 - 0x264]
00001FCE  6700 026E                beq        +0x270 /* 0000223E */
00001FD2  2F0E                     move.l     -[A7], A6
00001FD4  4EBA FC3C                jsr        [PC - 0x3C4 /* 00001C12 */]
00001FD8  6000 0264                bra        +0x266 /* 0000223E */
label00001FDC:
00001FDC  422D F76B                clr.b      [A5 - 0x895]
00001FE0  3B7C 0003 F76C           move.w     [A5 - 0x894], 0x3
00001FE6  302D BB5A                move.w     D0, [A5 - 0x44A6]
00001FEA  3200                     move.w     D1, D0
00001FEC  E649                     lsr        D1.w, 3
00001FEE  0641 BAF8                addi.w     D1, 0xBAF8
00001FF2  0135 1000                btst       [A5 + D1.w], D0
00001FF6  670A                     beq        +0xC /* 00002002 */
00001FF8  3F3C 0010                move.w     -[A7], 0x10
00001FFC  2F0E                     move.l     -[A7], A6
00001FFE  4EBA FC00                jsr        [PC - 0x400 /* 00001C00 */]
label00002002:
00002002  554F                     subq.w     A7, 2
00002004  A974                     syscall    Button
00002006  4A1F                     tst.b      [A7]+
00002008  6700 0234                beq        +0x236 /* 0000223E */
0000200C  102D FD9C                move.b     D0, [A5 - 0x264]
00002010  5300                     subq.b     D0, 1
00002012  670E                     beq        +0x10 /* 00002022 */
00002014  3F3C 0010                move.w     -[A7], 0x10
00002018  2F0E                     move.l     -[A7], A6
0000201A  4EBA FBE4                jsr        [PC - 0x41C /* 00001C00 */]
0000201E  6000 021E                bra        +0x220 /* 0000223E */
label00002022:
00002022  102D FD9D                move.b     D0, [A5 - 0x263]
00002026  5300                     subq.b     D0, 1
00002028  C02D FD9C                and.b      D0, [A5 - 0x264]
0000202C  6700 0210                beq        +0x212 /* 0000223E */
00002030  2F0E                     move.l     -[A7], A6
00002032  4EBA FBDE                jsr        [PC - 0x422 /* 00001C12 */]
00002036  6000 0206                bra        +0x208 /* 0000223E */
label0000203A:
0000203A  486D BAF8                pea.l      [A5 - 0x4508]
0000203E  A976                     syscall    GetKeys
00002040  302D BB5C                move.w     D0, [A5 - 0x44A4]
00002044  3200                     move.w     D1, D0
00002046  E649                     lsr        D1.w, 3
00002048  0641 BAF8                addi.w     D1, 0xBAF8
0000204C  0135 1000                btst       [A5 + D1.w], D0
00002050  56C0                     sne        D0
00002052  122D FD9D                move.b     D1, [A5 - 0x263]
00002056  5301                     subq.b     D1, 1
00002058  C001                     and.b      D0, D1
0000205A  6706                     beq        +0x8 /* 00002062 */
0000205C  2F0E                     move.l     -[A7], A6
0000205E  4EBA FBB2                jsr        [PC - 0x44E /* 00001C12 */]
label00002062:
00002062  486E FFEA                pea.l      [A6 - 0x16]
00002066  A972                     syscall    GetMouse
00002068  302E FFEC                move.w     D0, [A6 - 0x14]
0000206C  0640 FF00                addi.w     D0, 0xFF00
00002070  D06D BB40                add.w      D0, [A5 - 0x44C0]
00002074  48C0                     ext.l      D0
00002076  81FC 000A                divs.w     D0, 0xA /* '\n' */
0000207A  3B40 F76E                move.w     [A5 - 0x892], D0
0000207E  0C6D 0005 F76E           cmpi.w     [A5 - 0x892], 0x5
00002084  6F08                     ble        +0xA /* 0000208E */
00002086  3B7C 0005 F76E           move.w     [A5 - 0x892], 0x5
0000208C  600E                     bra        +0x10 /* 0000209C */
label0000208E:
0000208E  0C6D FFFB F76E           cmpi.w     [A5 - 0x892], 0xFFFB
00002094  6C06                     bge        +0x8 /* 0000209C */
00002096  3B7C FFFB F76E           move.w     [A5 - 0x892], 0xFFFB
label0000209C:
0000209C  4EBA DF62                jsr        [PC - 0x209E /* 00000000 */]
000020A0  4A2D F76A                tst.b      [A5 - 0x896]
000020A4  6700 00C4                beq        +0xC6 /* 0000216A */
000020A8  4A6D F76E                tst.w      [A5 - 0x892]
000020AC  6C5E                     bge        +0x60 /* 0000210C */
000020AE  422D F76B                clr.b      [A5 - 0x895]
000020B2  3B7C 0001 F76C           move.w     [A5 - 0x894], 0x1
000020B8  302D BB5A                move.w     D0, [A5 - 0x44A6]
000020BC  3200                     move.w     D1, D0
000020BE  E649                     lsr        D1.w, 3
000020C0  0641 BAF8                addi.w     D1, 0xBAF8
000020C4  0135 1000                btst       [A5 + D1.w], D0
000020C8  670A                     beq        +0xC /* 000020D4 */
000020CA  3F3C FFF0                move.w     -[A7], 0xFFF0
000020CE  2F0E                     move.l     -[A7], A6
000020D0  4EBA FB2E                jsr        [PC - 0x4D2 /* 00001C00 */]
label000020D4:
000020D4  554F                     subq.w     A7, 2
000020D6  A974                     syscall    Button
000020D8  4A1F                     tst.b      [A7]+
000020DA  6700 0162                beq        +0x164 /* 0000223E */
000020DE  102D FD9C                move.b     D0, [A5 - 0x264]
000020E2  5300                     subq.b     D0, 1
000020E4  670E                     beq        +0x10 /* 000020F4 */
000020E6  3F3C FFF0                move.w     -[A7], 0xFFF0
000020EA  2F0E                     move.l     -[A7], A6
000020EC  4EBA FB12                jsr        [PC - 0x4EE /* 00001C00 */]
000020F0  6000 014C                bra        +0x14E /* 0000223E */
label000020F4:
000020F4  102D FD9D                move.b     D0, [A5 - 0x263]
000020F8  5300                     subq.b     D0, 1
000020FA  C02D FD9C                and.b      D0, [A5 - 0x264]
000020FE  6700 013E                beq        +0x140 /* 0000223E */
00002102  2F0E                     move.l     -[A7], A6
00002104  4EBA FB0C                jsr        [PC - 0x4F4 /* 00001C12 */]
00002108  6000 0134                bra        +0x136 /* 0000223E */
label0000210C:
0000210C  1B7C 0001 F76B           move.b     [A5 - 0x895], 0x1
00002112  426D F76C                clr.w      [A5 - 0x894]
00002116  302D BB5A                move.w     D0, [A5 - 0x44A6]
0000211A  3200                     move.w     D1, D0
0000211C  E649                     lsr        D1.w, 3
0000211E  0641 BAF8                addi.w     D1, 0xBAF8
00002122  0135 1000                btst       [A5 + D1.w], D0
00002126  670A                     beq        +0xC /* 00002132 */
00002128  3F3C 0010                move.w     -[A7], 0x10
0000212C  2F0E                     move.l     -[A7], A6
0000212E  4EBA FAD0                jsr        [PC - 0x530 /* 00001C00 */]
label00002132:
00002132  554F                     subq.w     A7, 2
00002134  A974                     syscall    Button
00002136  4A1F                     tst.b      [A7]+
00002138  6700 0104                beq        +0x106 /* 0000223E */
0000213C  102D FD9C                move.b     D0, [A5 - 0x264]
00002140  5300                     subq.b     D0, 1
00002142  670E                     beq        +0x10 /* 00002152 */
00002144  3F3C 0010                move.w     -[A7], 0x10
00002148  2F0E                     move.l     -[A7], A6
0000214A  4EBA FAB4                jsr        [PC - 0x54C /* 00001C00 */]
0000214E  6000 00EE                bra        +0xF0 /* 0000223E */
label00002152:
00002152  102D FD9D                move.b     D0, [A5 - 0x263]
00002156  5300                     subq.b     D0, 1
00002158  C02D FD9C                and.b      D0, [A5 - 0x264]
0000215C  6700 00E0                beq        +0xE2 /* 0000223E */
00002160  2F0E                     move.l     -[A7], A6
00002162  4EBA FAAE                jsr        [PC - 0x552 /* 00001C12 */]
00002166  6000 00D6                bra        +0xD8 /* 0000223E */
label0000216A:
0000216A  4A6D F76E                tst.w      [A5 - 0x892]
0000216E  6C60                     bge        +0x62 /* 000021D0 */
00002170  1B7C 0001 F76B           move.b     [A5 - 0x895], 0x1
00002176  3B7C 0002 F76C           move.w     [A5 - 0x894], 0x2
0000217C  302D BB5A                move.w     D0, [A5 - 0x44A6]
00002180  3200                     move.w     D1, D0
00002182  E649                     lsr        D1.w, 3
00002184  0641 BAF8                addi.w     D1, 0xBAF8
00002188  0135 1000                btst       [A5 + D1.w], D0
0000218C  670A                     beq        +0xC /* 00002198 */
0000218E  3F3C FFF0                move.w     -[A7], 0xFFF0
00002192  2F0E                     move.l     -[A7], A6
00002194  4EBA FA6A                jsr        [PC - 0x596 /* 00001C00 */]
label00002198:
00002198  554F                     subq.w     A7, 2
0000219A  A974                     syscall    Button
0000219C  4A1F                     tst.b      [A7]+
0000219E  6700 009E                beq        +0xA0 /* 0000223E */
000021A2  102D FD9C                move.b     D0, [A5 - 0x264]
000021A6  5300                     subq.b     D0, 1
000021A8  670E                     beq        +0x10 /* 000021B8 */
000021AA  3F3C FFF0                move.w     -[A7], 0xFFF0
000021AE  2F0E                     move.l     -[A7], A6
000021B0  4EBA FA4E                jsr        [PC - 0x5B2 /* 00001C00 */]
000021B4  6000 0088                bra        +0x8A /* 0000223E */
label000021B8:
000021B8  102D FD9D                move.b     D0, [A5 - 0x263]
000021BC  5300                     subq.b     D0, 1
000021BE  C02D FD9C                and.b      D0, [A5 - 0x264]
000021C2  6700 007A                beq        +0x7C /* 0000223E */
000021C6  2F0E                     move.l     -[A7], A6
000021C8  4EBA FA48                jsr        [PC - 0x5B8 /* 00001C12 */]
000021CC  6000 0070                bra        +0x72 /* 0000223E */
label000021D0:
000021D0  422D F76B                clr.b      [A5 - 0x895]
000021D4  3B7C 0003 F76C           move.w     [A5 - 0x894], 0x3
000021DA  302D BB5A                move.w     D0, [A5 - 0x44A6]
000021DE  3200                     move.w     D1, D0
000021E0  E649                     lsr        D1.w, 3
000021E2  0641 BAF8                addi.w     D1, 0xBAF8
000021E6  0135 1000                btst       [A5 + D1.w], D0
000021EA  670A                     beq        +0xC /* 000021F6 */
000021EC  3F3C 0010                move.w     -[A7], 0x10
000021F0  2F0E                     move.l     -[A7], A6
000021F2  4EBA FA0C                jsr        [PC - 0x5F4 /* 00001C00 */]
label000021F6:
000021F6  554F                     subq.w     A7, 2
000021F8  A974                     syscall    Button
000021FA  4A1F                     tst.b      [A7]+
000021FC  6740                     beq        +0x42 /* 0000223E */
000021FE  102D FD9C                move.b     D0, [A5 - 0x264]
00002202  5300                     subq.b     D0, 1
00002204  670C                     beq        +0xE /* 00002212 */
00002206  3F3C 0010                move.w     -[A7], 0x10
0000220A  2F0E                     move.l     -[A7], A6
0000220C  4EBA F9F2                jsr        [PC - 0x60E /* 00001C00 */]
00002210  602C                     bra        +0x2E /* 0000223E */
label00002212:
00002212  102D FD9D                move.b     D0, [A5 - 0x263]
00002216  5300                     subq.b     D0, 1
00002218  C02D FD9C                and.b      D0, [A5 - 0x264]
0000221C  6720                     beq        +0x22 /* 0000223E */
0000221E  2F0E                     move.l     -[A7], A6
00002220  4EBA F9F0                jsr        [PC - 0x610 /* 00001C12 */]
00002224  6018                     bra        +0x1A /* 0000223E */
label00002226:
00002226  5340                     subq.w     D0, 1
00002228  6700 FA00                beq        -0x5FE /* 00001C2A */
0000222C  5340                     subq.w     D0, 1
0000222E  6700 FB10                beq        -0x4EE /* 00001D40 */
00002232  5340                     subq.w     D0, 1
00002234  6700 FC20                beq        -0x3DE /* 00001E56 */
00002238  5340                     subq.w     D0, 1
0000223A  6700 FDFE                beq        -0x200 /* 0000203A */
label0000223E:
0000223E  2E1F                     move.l     D7, [A7]+
00002240  4E5E                     unlink     A6
00002242  4E75                     rts
fn00002244:
00002244  302D F77A                move.w     D0, [A5 - 0x886]
00002248  5240                     addq.w     D0, 1
0000224A  3B40 F77A                move.w     [A5 - 0x886], D0
0000224E  4A2D FD8D                tst.b      [A5 - 0x273]
00002252  670A                     beq        +0xC /* 0000225E */
00002254  426D F77A                clr.w      [A5 - 0x886]
00002258  422D FD8D                clr.b      [A5 - 0x273]
0000225C  6030                     bra        +0x32 /* 0000228E */
label0000225E:
0000225E  302D F72E                move.w     D0, [A5 - 0x8D2]
00002262  D06D F77A                add.w      D0, [A5 - 0x886]
00002266  3B40 F72E                move.w     [A5 - 0x8D2], D0
0000226A  302D F732                move.w     D0, [A5 - 0x8CE]
0000226E  D06D F77A                add.w      D0, [A5 - 0x886]
00002272  3B40 F732                move.w     [A5 - 0x8CE], D0
00002276  302D F75E                move.w     D0, [A5 - 0x8A2]
0000227A  D06D F77A                add.w      D0, [A5 - 0x886]
0000227E  3B40 F75E                move.w     [A5 - 0x8A2], D0
00002282  302D F762                move.w     D0, [A5 - 0x89E]
00002286  D06D F77A                add.w      D0, [A5 - 0x886]
0000228A  3B40 F762                move.w     [A5 - 0x89E], D0
label0000228E:
0000228E  302D F76E                move.w     D0, [A5 - 0x892]
00002292  D06D F77E                add.w      D0, [A5 - 0x882]
00002296  3B40 F76E                move.w     [A5 - 0x892], D0
0000229A  302D F730                move.w     D0, [A5 - 0x8D0]
0000229E  D06D F76E                add.w      D0, [A5 - 0x892]
000022A2  3B40 F730                move.w     [A5 - 0x8D0], D0
000022A6  302D F734                move.w     D0, [A5 - 0x8CC]
000022AA  D06D F76E                add.w      D0, [A5 - 0x892]
000022AE  3B40 F734                move.w     [A5 - 0x8CC], D0
000022B2  302D F730                move.w     D0, [A5 - 0x8D0]
000022B6  0640 000A                addi.w     D0, 0xA /* '\n' */
000022BA  3B40 F760                move.w     [A5 - 0x8A0], D0
000022BE  302D F734                move.w     D0, [A5 - 0x8CC]
000022C2  0640 FFF6                addi.w     D0, 0xFFF6
000022C6  3B40 F764                move.w     [A5 - 0x89C], D0
000022CA  3B6D F730 F748           move.w     [A5 - 0x8B8], [A5 - 0x8D0]
000022D0  3B6D F734 F74C           move.w     [A5 - 0x8B4], [A5 - 0x8CC]
000022D6  4E75                     rts
fn000022D8:
000022D8  4E56 FFEA                link       A6, -0x0016
000022DC  48E7 0318                movem.l    -[A7], D6,D7,A3,A4
000022E0  3D6D F48C FFEA           move.w     [A6 - 0x16], [A5 - 0xB74]
000022E6  7C01                     moveq.l    D6, 0x01
000022E8  6000 0678                bra        +0x67A /* 00002962 */
label000022EC:
000022EC  3006                     move.w     D0, D6
000022EE  C1FC 002A                muls.w     D0, 0x2A /* '*' */
000022F2  0640 F464                addi.w     D0, 0xF464
000022F6  49F5 0000                lea.l      A4, [A5 + D0.w]
000022FA  302C 001A                move.w     D0, [A4 + 0x1A]
000022FE  6000 062C                bra        +0x62E /* 0000292C */
label00002302:
00002302  486C 0022                pea.l      [A4 + 0x22]
00002306  205F                     movea.l    A0, [A7]+
00002308  5290                     addq.l     [A0], 1
0000230A  7032                     moveq.l    D0, 0x32
0000230C  B0AC 0022                cmp.l      D0, [A4 + 0x22]
00002310  6C00 064C                bge        +0x64E /* 0000295E */
00002314  7030                     moveq.l    D0, 0x30
00002316  2940 0022                move.l     [A4 + 0x22], D0
0000231A  6000 0642                bra        +0x644 /* 0000295E */
label0000231E:
0000231E  302C 0018                move.w     D0, [A4 + 0x18]
00002322  C1FC 000C                muls.w     D0, 0xC
00002326  0640 F986                addi.w     D0, 0xF986
0000232A  4AB5 0000                tst.l      [A5 + D0.w]
0000232E  661E                     bne        +0x20 /* 0000234E */
00002330  3F3C 0001                move.w     -[A7], 0x1
00002334  A9C8                     syscall    SysBeep
00002336  302C 0018                move.w     D0, [A4 + 0x18]
0000233A  C1FC 000C                muls.w     D0, 0xC
0000233E  0640 F986                addi.w     D0, 0xF986
00002342  720A                     moveq.l    D1, 0x0A
00002344  2B81 0000                move.l     [A5 + D0.w], D1
00002348  7001                     moveq.l    D0, 0x01
0000234A  2940 001E                move.l     [A4 + 0x1E], D0
label0000234E:
0000234E  4AAC 001E                tst.l      [A4 + 0x1E]
00002352  56C0                     sne        D0
00002354  0CAC 0000 03E7 001E      cmpi.l     [A4 + 0x1E], 0x3E7
0000235C  56C1                     sne        D1
0000235E  C001                     and.b      D0, D1
00002360  6700 05FC                beq        +0x5FE /* 0000295E */
00002364  202C 001E                move.l     D0, [A4 + 0x1E]
00002368  5280                     addq.l     D0, 1
0000236A  2940 001E                move.l     [A4 + 0x1E], D0
0000236E  7004                     moveq.l    D0, 0x04
00002370  B0AC 001E                cmp.l      D0, [A4 + 0x1E]
00002374  6C42                     bge        +0x44 /* 000023B8 */
00002376  302C 0028                move.w     D0, [A4 + 0x28]
0000237A  5240                     addq.w     D0, 1
0000237C  3940 0028                move.w     [A4 + 0x28], D0
00002380  302C 0018                move.w     D0, [A4 + 0x18]
00002384  E740                     asl        D0.w, 3
00002386  0640 F904                addi.w     D0, 0xF904
0000238A  3035 0000                move.w     D0, [A5 + D0.w]
0000238E  5240                     addq.w     D0, 1
00002390  322C 0018                move.w     D1, [A4 + 0x18]
00002394  E741                     asl        D1.w, 3
00002396  0641 F904                addi.w     D1, 0xF904
0000239A  3B80 1000                move.w     [A5 + D1.w], D0
0000239E  302C 0028                move.w     D0, [A4 + 0x28]
000023A2  48C0                     ext.l      D0
000023A4  B0AC 0022                cmp.l      D0, [A4 + 0x22]
000023A8  6F00 05B4                ble        +0x5B6 /* 0000295E */
000023AC  297C 0000 03E7 001E      move.l     [A4 + 0x1E], 0x3E7
000023B4  6000 05A8                bra        +0x5AA /* 0000295E */
label000023B8:
000023B8  7003                     moveq.l    D0, 0x03
000023BA  B0AC 001E                cmp.l      D0, [A4 + 0x1E]
000023BE  6F0A                     ble        +0xC /* 000023CA */
000023C0  397C 003A 0026           move.w     [A4 + 0x26], 0x3A /* ':' */
000023C6  6000 0596                bra        +0x598 /* 0000295E */
label000023CA:
000023CA  397C 003B 0026           move.w     [A4 + 0x26], 0x3B /* ';' */
000023D0  6000 058C                bra        +0x58E /* 0000295E */
label000023D4:
000023D4  0C6C 0019 0026           cmpi.w     [A4 + 0x26], 0x19
000023DA  663C                     bne        +0x3E /* 00002418 */
000023DC  594F                     subq.w     A7, 4
000023DE  A975                     syscall    TickCount
000023E0  202C 0022                move.l     D0, [A4 + 0x22]
000023E4  D0AC 001E                add.l      D0, [A4 + 0x1E]
000023E8  B09F                     cmp.l      D0, [A7]+
000023EA  6C00 0572                bge        +0x574 /* 0000295E */
000023EE  302D F8F8                move.w     D0, [A5 - 0x708]
000023F2  0640 0033                addi.w     D0, 0x33 /* '3' */
000023F6  3940 0026                move.w     [A4 + 0x26], D0
000023FA  594F                     subq.w     A7, 4
000023FC  A975                     syscall    TickCount
000023FE  295F 0022                move.l     [A4 + 0x22], [A7]+
00002402  302C 0018                move.w     D0, [A4 + 0x18]
00002406  C1FC 000C                muls.w     D0, 0xC
0000240A  0640 F98A                addi.w     D0, 0xF98A
0000240E  7201                     moveq.l    D1, 0x01
00002410  2B81 0000                move.l     [A5 + D0.w], D1
00002414  6000 0548                bra        +0x54A /* 0000295E */
label00002418:
00002418  594F                     subq.w     A7, 4
0000241A  A975                     syscall    TickCount
0000241C  703C                     moveq.l    D0, 0x3C
0000241E  D0AC 0022                add.l      D0, [A4 + 0x22]
00002422  B09F                     cmp.l      D0, [A7]+
00002424  6C22                     bge        +0x24 /* 00002448 */
00002426  397C 0019 0026           move.w     [A4 + 0x26], 0x19
0000242C  594F                     subq.w     A7, 4
0000242E  A975                     syscall    TickCount
00002430  295F 0022                move.l     [A4 + 0x22], [A7]+
00002434  302C 0018                move.w     D0, [A4 + 0x18]
00002438  C1FC 000C                muls.w     D0, 0xC
0000243C  0640 F98A                addi.w     D0, 0xF98A
00002440  42B5 0000                clr.l      [A5 + D0.w]
00002444  6000 0518                bra        +0x51A /* 0000295E */
label00002448:
00002448  302D F8F8                move.w     D0, [A5 - 0x708]
0000244C  0640 0033                addi.w     D0, 0x33 /* '3' */
00002450  3940 0026                move.w     [A4 + 0x26], D0
00002454  6000 0508                bra        +0x50A /* 0000295E */
label00002458:
00002458  0C6C 0039 001C           cmpi.w     [A4 + 0x1C], 0x39 /* '9' */
0000245E  6C2C                     bge        +0x2E /* 0000248C */
00002460  4A6D F8F8                tst.w      [A5 - 0x708]
00002464  6700 04F8                beq        +0x4FA /* 0000295E */
00002468  486C 001C                pea.l      [A4 + 0x1C]
0000246C  205F                     movea.l    A0, [A7]+
0000246E  5250                     addq.w     [A0], 1
00002470  0C6C 0039 001C           cmpi.w     [A4 + 0x1C], 0x39 /* '9' */
00002476  6600 04E6                bne        +0x4E8 /* 0000295E */
0000247A  202C 0022                move.l     D0, [A4 + 0x22]
0000247E  0680 0000 00A0           addi.l     D0, 0xA0
00002484  2940 0022                move.l     [A4 + 0x22], D0
00002488  6000 04D4                bra        +0x4D6 /* 0000295E */
label0000248C:
0000248C  302C 0028                move.w     D0, [A4 + 0x28]
00002490  D06C 0026                add.w      D0, [A4 + 0x26]
00002494  3940 0028                move.w     [A4 + 0x28], D0
00002498  302C 0028                move.w     D0, [A4 + 0x28]
0000249C  48C0                     ext.l      D0
0000249E  D0AC 0022                add.l      D0, [A4 + 0x22]
000024A2  2940 0022                move.l     [A4 + 0x22], D0
000024A6  202C 0022                move.l     D0, [A4 + 0x22]
000024AA  B0AC 001E                cmp.l      D0, [A4 + 0x1E]
000024AE  6F00 00FE                ble        +0x100 /* 000025AE */
000024B2  426C 0028                clr.w      [A4 + 0x28]
000024B6  302C 0004                move.w     D0, [A4 + 0x4]
000024BA  EB40                     asl        D0.w, 5
000024BC  48C0                     ext.l      D0
000024BE  2940 0022                move.l     [A4 + 0x22], D0
000024C2  4A2D FD97                tst.b      [A5 - 0x269]
000024C6  6770                     beq        +0x72 /* 00002538 */
000024C8  206D BA7E                movea.l    A0, [A5 - 0x4582]
000024CC  2068 0002                movea.l    A0, [A0 + 0x2]
000024D0  2F10                     move.l     -[A7], [A0]
000024D2  206D BA82                movea.l    A0, [A5 - 0x457E]
000024D6  2068 0002                movea.l    A0, [A0 + 0x2]
000024DA  2F10                     move.l     -[A7], [A0]
000024DC  302C 0018                move.w     D0, [A4 + 0x18]
000024E0  E740                     asl        D0.w, 3
000024E2  0640 F8FE                addi.w     D0, 0xF8FE
000024E6  4875 0000                pea.l      [A5 + D0.w]
000024EA  302C 0018                move.w     D0, [A4 + 0x18]
000024EE  E740                     asl        D0.w, 3
000024F0  0640 F8FE                addi.w     D0, 0xF8FE
000024F4  4875 0000                pea.l      [A5 + D0.w]
000024F8  4267                     clr.w      -[A7]
000024FA  2F2D B8DE                move.l     -[A7], [A5 - 0x4722]
000024FE  A8EC                     syscall    CopyBits
00002500  206D BA7E                movea.l    A0, [A5 - 0x4582]
00002504  2068 0002                movea.l    A0, [A0 + 0x2]
00002508  2F10                     move.l     -[A7], [A0]
0000250A  206D B8B2                movea.l    A0, [A5 - 0x474E]
0000250E  4868 0002                pea.l      [A0 + 0x2]
00002512  302C 0018                move.w     D0, [A4 + 0x18]
00002516  E740                     asl        D0.w, 3
00002518  0640 F8FE                addi.w     D0, 0xF8FE
0000251C  4875 0000                pea.l      [A5 + D0.w]
00002520  302C 0018                move.w     D0, [A4 + 0x18]
00002524  E740                     asl        D0.w, 3
00002526  0640 F8FE                addi.w     D0, 0xF8FE
0000252A  4875 0000                pea.l      [A5 + D0.w]
0000252E  4267                     clr.w      -[A7]
00002530  2F2D B8DE                move.l     -[A7], [A5 - 0x4722]
00002534  A8EC                     syscall    CopyBits
00002536  605C                     bra        +0x5E /* 00002594 */
label00002538:
00002538  486D B8F0                pea.l      [A5 - 0x4710]
0000253C  486D B8FE                pea.l      [A5 - 0x4702]
00002540  302C 0018                move.w     D0, [A4 + 0x18]
00002544  E740                     asl        D0.w, 3
00002546  0640 F8FE                addi.w     D0, 0xF8FE
0000254A  4875 0000                pea.l      [A5 + D0.w]
0000254E  302C 0018                move.w     D0, [A4 + 0x18]
00002552  E740                     asl        D0.w, 3
00002554  0640 F8FE                addi.w     D0, 0xF8FE
00002558  4875 0000                pea.l      [A5 + D0.w]
0000255C  4267                     clr.w      -[A7]
0000255E  2F2D B8DE                move.l     -[A7], [A5 - 0x4722]
00002562  A8EC                     syscall    CopyBits
00002564  486D B8F0                pea.l      [A5 - 0x4710]
00002568  206D B8B2                movea.l    A0, [A5 - 0x474E]
0000256C  4868 0002                pea.l      [A0 + 0x2]
00002570  302C 0018                move.w     D0, [A4 + 0x18]
00002574  E740                     asl        D0.w, 3
00002576  0640 F8FE                addi.w     D0, 0xF8FE
0000257A  4875 0000                pea.l      [A5 + D0.w]
0000257E  302C 0018                move.w     D0, [A4 + 0x18]
00002582  E740                     asl        D0.w, 3
00002584  0640 F8FE                addi.w     D0, 0xF8FE
00002588  4875 0000                pea.l      [A5 + D0.w]
0000258C  4267                     clr.w      -[A7]
0000258E  2F2D B8DE                move.l     -[A7], [A5 - 0x4722]
00002592  A8EC                     syscall    CopyBits
label00002594:
00002594  302C 0018                move.w     D0, [A4 + 0x18]
00002598  E740                     asl        D0.w, 3
0000259A  41D4                     lea.l      A0, [A4]
0000259C  0640 F8FE                addi.w     D0, 0xF8FE
000025A0  43F5 0000                lea.l      A1, [A5 + D0.w]
000025A4  22D8                     move.l     [A1]+, [A0]+
000025A6  22D8                     move.l     [A1]+, [A0]+
000025A8  397C 0035 001C           move.w     [A4 + 0x1C], 0x35 /* '5' */
label000025AE:
000025AE  302C 0018                move.w     D0, [A4 + 0x18]
000025B2  E740                     asl        D0.w, 3
000025B4  0640 F8FE                addi.w     D0, 0xF8FE
000025B8  41F5 0000                lea.l      A0, [A5 + D0.w]
000025BC  43EC 0008                lea.l      A1, [A4 + 0x8]
000025C0  22D8                     move.l     [A1]+, [A0]+
000025C2  22D8                     move.l     [A1]+, [A0]+
000025C4  302C 0018                move.w     D0, [A4 + 0x18]
000025C8  E740                     asl        D0.w, 3
000025CA  0640 F8FE                addi.w     D0, 0xF8FE
000025CE  47F5 0000                lea.l      A3, [A5 + D0.w]
000025D2  2F2C 0022                move.l     -[A7], [A4 + 0x22]
000025D6  7E20                     moveq.l    D7, 0x20
000025D8  2F07                     move.l     -[A7], D7
000025DA  4EAD 014A                jsr        [A5 + 0x14A /* export_37, CODE:1 @ 00000946 */]
000025DE  302B 0004                move.w     D0, [A3 + 0x4]
000025E2  48C0                     ext.l      D0
000025E4  221F                     move.l     D1, [A7]+
000025E6  9280                     sub.l      D1, D0
000025E8  3E01                     move.w     D7, D1
000025EA  302B 0004                move.w     D0, [A3 + 0x4]
000025EE  D047                     add.w      D0, D7
000025F0  3740 0004                move.w     [A3 + 0x4], D0
000025F4  3013                     move.w     D0, [A3]
000025F6  D047                     add.w      D0, D7
000025F8  3680                     move.w     [A3], D0
000025FA  302C 000C                move.w     D0, [A4 + 0xC]
000025FE  D047                     add.w      D0, D7
00002600  3940 000C                move.w     [A4 + 0xC], D0
00002604  6000 0358                bra        +0x35A /* 0000295E */
label00002608:
00002608  4A6C 001C                tst.w      [A4 + 0x1C]
0000260C  6700 00E8                beq        +0xEA /* 000026F6 */
00002610  4A6D F8F8                tst.w      [A5 - 0x708]
00002614  6618                     bne        +0x1A /* 0000262E */
00002616  302C 001C                move.w     D0, [A4 + 0x1C]
0000261A  5240                     addq.w     D0, 1
0000261C  3940 001C                move.w     [A4 + 0x1C], D0
00002620  0C6C 0041 001C           cmpi.w     [A4 + 0x1C], 0x41 /* 'A' */
00002626  6F06                     ble        +0x8 /* 0000262E */
00002628  397C 003C 001C           move.w     [A4 + 0x1C], 0x3C /* '<' */
label0000262E:
0000262E  302C 0028                move.w     D0, [A4 + 0x28]
00002632  D06C 0026                add.w      D0, [A4 + 0x26]
00002636  3940 0028                move.w     [A4 + 0x28], D0
0000263A  302C 0028                move.w     D0, [A4 + 0x28]
0000263E  48C0                     ext.l      D0
00002640  D0AC 0022                add.l      D0, [A4 + 0x22]
00002644  2940 0022                move.l     [A4 + 0x22], D0
00002648  202C 0022                move.l     D0, [A4 + 0x22]
0000264C  B0AC 001E                cmp.l      D0, [A4 + 0x1E]
00002650  6F38                     ble        +0x3A /* 0000268A */
00002652  302C 0028                move.w     D0, [A4 + 0x28]
00002656  4440                     neg.w      D0
00002658  3940 0028                move.w     [A4 + 0x28], D0
0000265C  296C 001E 0022           move.l     [A4 + 0x22], [A4 + 0x1E]
00002662  594F                     subq.w     A7, 4
00002664  A975                     syscall    TickCount
00002666  302D BB3A                move.w     D0, [A5 - 0x44C6]
0000266A  C1FC 013A                muls.w     D0, 0x13A
0000266E  322C 0018                move.w     D1, [A4 + 0x18]
00002672  E941                     asl        D1.w, 4
00002674  D041                     add.w      D0, D1
00002676  0640 BFDE                addi.w     D0, 0xBFDE
0000267A  3035 0000                move.w     D0, [A5 + D0.w]
0000267E  48C0                     ext.l      D0
00002680  D09F                     add.l      D0, [A7]+
00002682  2940 001E                move.l     [A4 + 0x1E], D0
00002686  426C 001C                clr.w      [A4 + 0x1C]
label0000268A:
0000268A  302C 0018                move.w     D0, [A4 + 0x18]
0000268E  E740                     asl        D0.w, 3
00002690  0640 F8FE                addi.w     D0, 0xF8FE
00002694  41F5 0000                lea.l      A0, [A5 + D0.w]
00002698  43EC 0008                lea.l      A1, [A4 + 0x8]
0000269C  22D8                     move.l     [A1]+, [A0]+
0000269E  22D8                     move.l     [A1]+, [A0]+
000026A0  302C 0018                move.w     D0, [A4 + 0x18]
000026A4  E740                     asl        D0.w, 3
000026A6  0640 F8FE                addi.w     D0, 0xF8FE
000026AA  47F5 0000                lea.l      A3, [A5 + D0.w]
000026AE  2F2C 0022                move.l     -[A7], [A4 + 0x22]
000026B2  7E20                     moveq.l    D7, 0x20
000026B4  2F07                     move.l     -[A7], D7
000026B6  4EAD 014A                jsr        [A5 + 0x14A /* export_37, CODE:1 @ 00000946 */]
000026BA  302B 0004                move.w     D0, [A3 + 0x4]
000026BE  48C0                     ext.l      D0
000026C0  221F                     move.l     D1, [A7]+
000026C2  9280                     sub.l      D1, D0
000026C4  3E01                     move.w     D7, D1
000026C6  302B 0004                move.w     D0, [A3 + 0x4]
000026CA  D047                     add.w      D0, D7
000026CC  3740 0004                move.w     [A3 + 0x4], D0
000026D0  3013                     move.w     D0, [A3]
000026D2  D047                     add.w      D0, D7
000026D4  3680                     move.w     [A3], D0
000026D6  4A47                     tst.w      D7
000026D8  6F0E                     ble        +0x10 /* 000026E8 */
000026DA  302C 000C                move.w     D0, [A4 + 0xC]
000026DE  D047                     add.w      D0, D7
000026E0  3940 000C                move.w     [A4 + 0xC], D0
000026E4  6000 0278                bra        +0x27A /* 0000295E */
label000026E8:
000026E8  302C 0008                move.w     D0, [A4 + 0x8]
000026EC  D047                     add.w      D0, D7
000026EE  3940 0008                move.w     [A4 + 0x8], D0
000026F2  6000 026A                bra        +0x26C /* 0000295E */
label000026F6:
000026F6  594F                     subq.w     A7, 4
000026F8  A975                     syscall    TickCount
000026FA  201F                     move.l     D0, [A7]+
000026FC  B0AC 001E                cmp.l      D0, [A4 + 0x1E]
00002700  6F00 025C                ble        +0x25E /* 0000295E */
00002704  296C 0022 001E           move.l     [A4 + 0x1E], [A4 + 0x22]
0000270A  397C 003C 001C           move.w     [A4 + 0x1C], 0x3C /* '<' */
00002710  6000 024C                bra        +0x24E /* 0000295E */
label00002714:
00002714  302C 0028                move.w     D0, [A4 + 0x28]
00002718  D06C 0026                add.w      D0, [A4 + 0x26]
0000271C  3940 0028                move.w     [A4 + 0x28], D0
00002720  302C 0028                move.w     D0, [A4 + 0x28]
00002724  48C0                     ext.l      D0
00002726  D0AC 0022                add.l      D0, [A4 + 0x22]
0000272A  2940 0022                move.l     [A4 + 0x22], D0
0000272E  202C 0022                move.l     D0, [A4 + 0x22]
00002732  B0AC 001E                cmp.l      D0, [A4 + 0x1E]
00002736  6F10                     ble        +0x12 /* 00002748 */
00002738  302C 0028                move.w     D0, [A4 + 0x28]
0000273C  4440                     neg.w      D0
0000273E  3940 0028                move.w     [A4 + 0x28], D0
00002742  296C 001E 0022           move.l     [A4 + 0x22], [A4 + 0x1E]
label00002748:
00002748  302C 0018                move.w     D0, [A4 + 0x18]
0000274C  E740                     asl        D0.w, 3
0000274E  0640 F8FE                addi.w     D0, 0xF8FE
00002752  41F5 0000                lea.l      A0, [A5 + D0.w]
00002756  43EC 0008                lea.l      A1, [A4 + 0x8]
0000275A  22D8                     move.l     [A1]+, [A0]+
0000275C  22D8                     move.l     [A1]+, [A0]+
0000275E  302C 0018                move.w     D0, [A4 + 0x18]
00002762  E740                     asl        D0.w, 3
00002764  0640 F8FE                addi.w     D0, 0xF8FE
00002768  47F5 0000                lea.l      A3, [A5 + D0.w]
0000276C  2F2C 0022                move.l     -[A7], [A4 + 0x22]
00002770  7E20                     moveq.l    D7, 0x20
00002772  2F07                     move.l     -[A7], D7
00002774  4EAD 014A                jsr        [A5 + 0x14A /* export_37, CODE:1 @ 00000946 */]
00002778  302B 0004                move.w     D0, [A3 + 0x4]
0000277C  48C0                     ext.l      D0
0000277E  221F                     move.l     D1, [A7]+
00002780  9280                     sub.l      D1, D0
00002782  3E01                     move.w     D7, D1
00002784  302B 0004                move.w     D0, [A3 + 0x4]
00002788  D047                     add.w      D0, D7
0000278A  3740 0004                move.w     [A3 + 0x4], D0
0000278E  3013                     move.w     D0, [A3]
00002790  D047                     add.w      D0, D7
00002792  3680                     move.w     [A3], D0
00002794  4A47                     tst.w      D7
00002796  6F0E                     ble        +0x10 /* 000027A6 */
00002798  302C 000C                move.w     D0, [A4 + 0xC]
0000279C  D047                     add.w      D0, D7
0000279E  3940 000C                move.w     [A4 + 0xC], D0
000027A2  6000 01BA                bra        +0x1BC /* 0000295E */
label000027A6:
000027A6  302C 0008                move.w     D0, [A4 + 0x8]
000027AA  D047                     add.w      D0, D7
000027AC  3940 0008                move.w     [A4 + 0x8], D0
000027B0  6000 01AC                bra        +0x1AE /* 0000295E */
label000027B4:
000027B4  4A6C 001C                tst.w      [A4 + 0x1C]
000027B8  6700 00FA                beq        +0xFC /* 000028B4 */
000027BC  0C6C FFF0 0028           cmpi.w     [A4 + 0x28], 0xFFF0
000027C2  5EC0                     sgt        D0
000027C4  0C6C 0010 0028           cmpi.w     [A4 + 0x28], 0x10
000027CA  5DC1                     slt        D1
000027CC  C001                     and.b      D0, D1
000027CE  6708                     beq        +0xA /* 000027D8 */
000027D0  397C 0045 001C           move.w     [A4 + 0x1C], 0x45 /* 'E' */
000027D6  6014                     bra        +0x16 /* 000027EC */
label000027D8:
000027D8  4A6C 0028                tst.w      [A4 + 0x28]
000027DC  6C08                     bge        +0xA /* 000027E6 */
000027DE  397C 0042 001C           move.w     [A4 + 0x1C], 0x42 /* 'B' */
000027E4  6006                     bra        +0x8 /* 000027EC */
label000027E6:
000027E6  397C 0044 001C           move.w     [A4 + 0x1C], 0x44 /* 'D' */
label000027EC:
000027EC  302C 0028                move.w     D0, [A4 + 0x28]
000027F0  D06C 0026                add.w      D0, [A4 + 0x26]
000027F4  3940 0028                move.w     [A4 + 0x28], D0
000027F8  302C 0028                move.w     D0, [A4 + 0x28]
000027FC  48C0                     ext.l      D0
000027FE  D0AC 0022                add.l      D0, [A4 + 0x22]
00002802  2940 0022                move.l     [A4 + 0x22], D0
00002806  202C 0022                move.l     D0, [A4 + 0x22]
0000280A  B0AC 001E                cmp.l      D0, [A4 + 0x1E]
0000280E  6F38                     ble        +0x3A /* 00002848 */
00002810  302C 0028                move.w     D0, [A4 + 0x28]
00002814  4440                     neg.w      D0
00002816  3940 0028                move.w     [A4 + 0x28], D0
0000281A  296C 001E 0022           move.l     [A4 + 0x22], [A4 + 0x1E]
00002820  594F                     subq.w     A7, 4
00002822  A975                     syscall    TickCount
00002824  302D BB3A                move.w     D0, [A5 - 0x44C6]
00002828  C1FC 013A                muls.w     D0, 0x13A
0000282C  322C 0018                move.w     D1, [A4 + 0x18]
00002830  E941                     asl        D1.w, 4
00002832  D041                     add.w      D0, D1
00002834  0640 BFDE                addi.w     D0, 0xBFDE
00002838  3035 0000                move.w     D0, [A5 + D0.w]
0000283C  48C0                     ext.l      D0
0000283E  D09F                     add.l      D0, [A7]+
00002840  2940 001E                move.l     [A4 + 0x1E], D0
00002844  426C 001C                clr.w      [A4 + 0x1C]
label00002848:
00002848  302C 0018                move.w     D0, [A4 + 0x18]
0000284C  E740                     asl        D0.w, 3
0000284E  0640 F8FE                addi.w     D0, 0xF8FE
00002852  41F5 0000                lea.l      A0, [A5 + D0.w]
00002856  43EC 0008                lea.l      A1, [A4 + 0x8]
0000285A  22D8                     move.l     [A1]+, [A0]+
0000285C  22D8                     move.l     [A1]+, [A0]+
0000285E  302C 0018                move.w     D0, [A4 + 0x18]
00002862  E740                     asl        D0.w, 3
00002864  0640 F8FE                addi.w     D0, 0xF8FE
00002868  47F5 0000                lea.l      A3, [A5 + D0.w]
0000286C  2F2C 0022                move.l     -[A7], [A4 + 0x22]
00002870  7E20                     moveq.l    D7, 0x20
00002872  2F07                     move.l     -[A7], D7
00002874  4EAD 014A                jsr        [A5 + 0x14A /* export_37, CODE:1 @ 00000946 */]
00002878  302B 0004                move.w     D0, [A3 + 0x4]
0000287C  48C0                     ext.l      D0
0000287E  221F                     move.l     D1, [A7]+
00002880  9280                     sub.l      D1, D0
00002882  3E01                     move.w     D7, D1
00002884  302B 0004                move.w     D0, [A3 + 0x4]
00002888  D047                     add.w      D0, D7
0000288A  3740 0004                move.w     [A3 + 0x4], D0
0000288E  3013                     move.w     D0, [A3]
00002890  D047                     add.w      D0, D7
00002892  3680                     move.w     [A3], D0
00002894  4A47                     tst.w      D7
00002896  6F0E                     ble        +0x10 /* 000028A6 */
00002898  302C 000C                move.w     D0, [A4 + 0xC]
0000289C  D047                     add.w      D0, D7
0000289E  3940 000C                move.w     [A4 + 0xC], D0
000028A2  6000 00BA                bra        +0xBC /* 0000295E */
label000028A6:
000028A6  302C 0008                move.w     D0, [A4 + 0x8]
000028AA  D047                     add.w      D0, D7
000028AC  3940 0008                move.w     [A4 + 0x8], D0
000028B0  6000 00AC                bra        +0xAE /* 0000295E */
label000028B4:
000028B4  594F                     subq.w     A7, 4
000028B6  A975                     syscall    TickCount
000028B8  201F                     move.l     D0, [A7]+
000028BA  B0AC 001E                cmp.l      D0, [A4 + 0x1E]
000028BE  6F00 009E                ble        +0xA0 /* 0000295E */
000028C2  296C 0022 001E           move.l     [A4 + 0x1E], [A4 + 0x22]
000028C8  397C 0042 001C           move.w     [A4 + 0x1C], 0x42 /* 'B' */
000028CE  6000 008E                bra        +0x90 /* 0000295E */
label000028D2:
000028D2  594F                     subq.w     A7, 4
000028D4  A975                     syscall    TickCount
000028D6  201F                     move.l     D0, [A7]+
000028D8  B0AC 001E                cmp.l      D0, [A4 + 0x1E]
000028DC  6F00 0080                ble        +0x82 /* 0000295E */
000028E0  302C 0018                move.w     D0, [A4 + 0x18]
000028E4  C1FC 000C                muls.w     D0, 0xC
000028E8  0640 F986                addi.w     D0, 0xF986
000028EC  7218                     moveq.l    D1, 0x18
000028EE  2B81 0000                move.l     [A5 + D0.w], D1
000028F2  4A6C 001C                tst.w      [A4 + 0x1C]
000028F6  302C 001C                move.w     D0, [A4 + 0x1C]
000028FA  5240                     addq.w     D0, 1
000028FC  3940 001C                move.w     [A4 + 0x1C], D0
00002900  0C6C 000A 001C           cmpi.w     [A4 + 0x1C], 0xA /* '\n' */
00002906  6F56                     ble        +0x58 /* 0000295E */
00002908  426C 001C                clr.w      [A4 + 0x1C]
0000290C  302C 0018                move.w     D0, [A4 + 0x18]
00002910  C1FC 000C                muls.w     D0, 0xC
00002914  0640 F986                addi.w     D0, 0xF986
00002918  42B5 0000                clr.l      [A5 + D0.w]
0000291C  594F                     subq.w     A7, 4
0000291E  A975                     syscall    TickCount
00002920  201F                     move.l     D0, [A7]+
00002922  D0AC 0022                add.l      D0, [A4 + 0x22]
00002926  2940 001E                move.l     [A4 + 0x1E], D0
0000292A  6032                     bra        +0x34 /* 0000295E */
label0000292C:
0000292C  0640 FFF5                addi.w     D0, 0xFFF5
00002930  6700 F9D0                beq        -0x62E /* 00002302 */
00002934  5F40                     subq.w     D0, 7
00002936  6700 F9E6                beq        -0x618 /* 0000231E */
0000293A  5F40                     subq.w     D0, 7
0000293C  6700 FA96                beq        -0x568 /* 000023D4 */
00002940  5F40                     subq.w     D0, 7
00002942  6700 FB14                beq        -0x4EA /* 00002458 */
00002946  5340                     subq.w     D0, 1
00002948  6700 FCBE                beq        -0x340 /* 00002608 */
0000294C  5340                     subq.w     D0, 1
0000294E  6700 FDC4                beq        -0x23A /* 00002714 */
00002952  5340                     subq.w     D0, 1
00002954  6700 FE5E                beq        -0x1A0 /* 000027B4 */
00002958  5340                     subq.w     D0, 1
0000295A  6700 FF76                beq        -0x88 /* 000028D2 */
label0000295E:
0000295E  5246                     addq.w     D6, 1
00002960  6908                     bvs        +0xA /* 0000296A */
label00002962:
00002962  BC6E FFEA                cmp.w      D6, [A6 - 0x16]
00002966  6F00 F984                ble        -0x67A /* 000022EC */
label0000296A:
0000296A  4CDF 18C0                movem.l    D6,D7,A3,A4, [A7]+
0000296E  4E5E                     unlink     A6
00002970  4E75                     rts
fn00002972:
00002972  302D F766                move.w     D0, [A5 - 0x89A]
00002976  6000 02BC                bra        +0x2BE /* 00002C34 */
0000297A  486D F768                pea.l      [A5 - 0x898]
0000297E  205F                     movea.l    A0, [A7]+
00002980  5250                     addq.w     [A0], 1
00002982  0C6D 0010 F768           cmpi.w     [A5 - 0x898], 0x10
00002988  6F00 02CC                ble        +0x2CE /* 00002C56 */
0000298C  4A2D F76B                tst.b      [A5 - 0x895]
00002990  6706                     beq        +0x8 /* 00002998 */
00002992  426D F76C                clr.w      [A5 - 0x894]
00002996  6006                     bra        +0x8 /* 0000299E */
label00002998:
00002998  3B7C 0003 F76C           move.w     [A5 - 0x894], 0x3
label0000299E:
0000299E  1B7C 0001 F776           move.b     [A5 - 0x88A], 0x1
000029A4  426D F768                clr.w      [A5 - 0x898]
000029A8  426D F766                clr.w      [A5 - 0x89A]
000029AC  6000 02A8                bra        +0x2AA /* 00002C56 */
000029B0  486D F768                pea.l      [A5 - 0x898]
000029B4  205F                     movea.l    A0, [A7]+
000029B6  5250                     addq.w     [A0], 1
000029B8  4A2D F76A                tst.b      [A5 - 0x896]
000029BC  6706                     beq        +0x8 /* 000029C4 */
000029BE  426D F76C                clr.w      [A5 - 0x894]
000029C2  6006                     bra        +0x8 /* 000029CA */
label000029C4:
000029C4  3B7C 0002 F76C           move.w     [A5 - 0x894], 0x2
label000029CA:
000029CA  0C6D 0010 F768           cmpi.w     [A5 - 0x898], 0x10
000029D0  6F00 0284                ble        +0x286 /* 00002C56 */
000029D4  422D FD8F                clr.b      [A5 - 0x271]
000029D8  6000 027C                bra        +0x27E /* 00002C56 */
000029DC  486D F768                pea.l      [A5 - 0x898]
000029E0  205F                     movea.l    A0, [A7]+
000029E2  5250                     addq.w     [A0], 1
000029E4  0C6D 000B F768           cmpi.w     [A5 - 0x898], 0xB
000029EA  6F16                     ble        +0x18 /* 00002A02 */
000029EC  1B7C 0001 F776           move.b     [A5 - 0x88A], 0x1
000029F2  426D F768                clr.w      [A5 - 0x898]
000029F6  426D F766                clr.w      [A5 - 0x89A]
000029FA  426D F77E                clr.w      [A5 - 0x882]
000029FE  422D F76A                clr.b      [A5 - 0x896]
label00002A02:
00002A02  4EBA F130                jsr        [PC - 0xED0 /* 00001B34 */]
00002A06  302D F730                move.w     D0, [A5 - 0x8D0]
00002A0A  D06D F77E                add.w      D0, [A5 - 0x882]
00002A0E  3B40 F730                move.w     [A5 - 0x8D0], D0
00002A12  302D F734                move.w     D0, [A5 - 0x8CC]
00002A16  D06D F77E                add.w      D0, [A5 - 0x882]
00002A1A  3B40 F734                move.w     [A5 - 0x8CC], D0
00002A1E  302D F760                move.w     D0, [A5 - 0x8A0]
00002A22  D06D F77E                add.w      D0, [A5 - 0x882]
00002A26  3B40 F760                move.w     [A5 - 0x8A0], D0
00002A2A  302D F764                move.w     D0, [A5 - 0x89C]
00002A2E  D06D F77E                add.w      D0, [A5 - 0x882]
00002A32  3B40 F764                move.w     [A5 - 0x89C], D0
00002A36  302D F748                move.w     D0, [A5 - 0x8B8]
00002A3A  D06D F77E                add.w      D0, [A5 - 0x882]
00002A3E  3B40 F748                move.w     [A5 - 0x8B8], D0
00002A42  302D F74C                move.w     D0, [A5 - 0x8B4]
00002A46  D06D F77E                add.w      D0, [A5 - 0x882]
00002A4A  3B40 F74C                move.w     [A5 - 0x8B4], D0
00002A4E  6000 0206                bra        +0x208 /* 00002C56 */
00002A52  486D F768                pea.l      [A5 - 0x898]
00002A56  205F                     movea.l    A0, [A7]+
00002A58  5250                     addq.w     [A0], 1
00002A5A  0C6D 000B F768           cmpi.w     [A5 - 0x898], 0xB
00002A60  6F18                     ble        +0x1A /* 00002A7A */
00002A62  1B7C 0001 F776           move.b     [A5 - 0x88A], 0x1
00002A68  426D F768                clr.w      [A5 - 0x898]
00002A6C  426D F766                clr.w      [A5 - 0x89A]
00002A70  426D F77E                clr.w      [A5 - 0x882]
00002A74  1B7C 0001 F76A           move.b     [A5 - 0x896], 0x1
label00002A7A:
00002A7A  4EBA F0B8                jsr        [PC - 0xF48 /* 00001B34 */]
00002A7E  302D F730                move.w     D0, [A5 - 0x8D0]
00002A82  D06D F77E                add.w      D0, [A5 - 0x882]
00002A86  3B40 F730                move.w     [A5 - 0x8D0], D0
00002A8A  302D F734                move.w     D0, [A5 - 0x8CC]
00002A8E  D06D F77E                add.w      D0, [A5 - 0x882]
00002A92  3B40 F734                move.w     [A5 - 0x8CC], D0
00002A96  302D F760                move.w     D0, [A5 - 0x8A0]
00002A9A  D06D F77E                add.w      D0, [A5 - 0x882]
00002A9E  3B40 F760                move.w     [A5 - 0x8A0], D0
00002AA2  302D F764                move.w     D0, [A5 - 0x89C]
00002AA6  D06D F77E                add.w      D0, [A5 - 0x882]
00002AAA  3B40 F764                move.w     [A5 - 0x89C], D0
00002AAE  302D F748                move.w     D0, [A5 - 0x8B8]
00002AB2  D06D F77E                add.w      D0, [A5 - 0x882]
00002AB6  3B40 F748                move.w     [A5 - 0x8B8], D0
00002ABA  302D F74C                move.w     D0, [A5 - 0x8B4]
00002ABE  D06D F77E                add.w      D0, [A5 - 0x882]
00002AC2  3B40 F74C                move.w     [A5 - 0x8B4], D0
00002AC6  6000 018E                bra        +0x190 /* 00002C56 */
00002ACA  7001                     moveq.l    D0, 0x01
00002ACC  906D F768                sub.w      D0, [A5 - 0x898]
00002AD0  3B40 F768                move.w     [A5 - 0x898], D0
00002AD4  4A2D F76A                tst.b      [A5 - 0x896]
00002AD8  6714                     beq        +0x16 /* 00002AEE */
00002ADA  302D F768                move.w     D0, [A5 - 0x898]
00002ADE  0640 0018                addi.w     D0, 0x18
00002AE2  3B40 F76C                move.w     [A5 - 0x894], D0
00002AE6  3B7C 0001 F76E           move.w     [A5 - 0x892], 0x1
00002AEC  6012                     bra        +0x14 /* 00002B00 */
label00002AEE:
00002AEE  302D F768                move.w     D0, [A5 - 0x898]
00002AF2  0640 001A                addi.w     D0, 0x1A
00002AF6  3B40 F76C                move.w     [A5 - 0x894], D0
00002AFA  3B7C FFFF F76E           move.w     [A5 - 0x892], 0xFFFF
label00002B00:
00002B00  4EBA F032                jsr        [PC - 0xFCE /* 00001B34 */]
00002B04  4EBA F73E                jsr        [PC - 0x8C2 /* 00002244 */]
00002B08  6000 014C                bra        +0x14E /* 00002C56 */
00002B0C  302D F730                move.w     D0, [A5 - 0x8D0]
00002B10  5540                     subq.w     D0, 2
00002B12  3B40 F730                move.w     [A5 - 0x8D0], D0
00002B16  302D F730                move.w     D0, [A5 - 0x8D0]
00002B1A  0640 0030                addi.w     D0, 0x30 /* '0' */
00002B1E  3B40 F734                move.w     [A5 - 0x8CC], D0
00002B22  302D F72E                move.w     D0, [A5 - 0x8D2]
00002B26  5D40                     subq.w     D0, 6
00002B28  3B40 F72E                move.w     [A5 - 0x8D2], D0
00002B2C  302D F72E                move.w     D0, [A5 - 0x8D2]
00002B30  0640 0014                addi.w     D0, 0x14
00002B34  3B40 F732                move.w     [A5 - 0x8CE], D0
00002B38  3B6D F730 F748           move.w     [A5 - 0x8B8], [A5 - 0x8D0]
00002B3E  3B6D F734 F74C           move.w     [A5 - 0x8B4], [A5 - 0x8CC]
00002B44  41ED F72E                lea.l      A0, [A5 - 0x8D2]
00002B48  43ED F75E                lea.l      A1, [A5 - 0x8A2]
00002B4C  22D8                     move.l     [A1]+, [A0]+
00002B4E  22D8                     move.l     [A1]+, [A0]+
00002B50  486D F75E                pea.l      [A5 - 0x8A2]
00002B54  3F3C 000A                move.w     -[A7], 0xA /* '\n' */
00002B58  3F3C 0005                move.w     -[A7], 0x5
00002B5C  A8A9                     syscall    InsetRect
00002B5E  0C6D 0096 F72E           cmpi.w     [A5 - 0x8D2], 0x96
00002B64  6C00 00F0                bge        +0xF2 /* 00002C56 */
00002B68  1B7C 0001 F776           move.b     [A5 - 0x88A], 0x1
00002B6E  426D F768                clr.w      [A5 - 0x898]
00002B72  426D F766                clr.w      [A5 - 0x89A]
00002B76  6000 00DE                bra        +0xE0 /* 00002C56 */
00002B7A  302D F730                move.w     D0, [A5 - 0x8D0]
00002B7E  5440                     addq.w     D0, 2
00002B80  3B40 F730                move.w     [A5 - 0x8D0], D0
00002B84  302D F730                move.w     D0, [A5 - 0x8D0]
00002B88  0640 0030                addi.w     D0, 0x30 /* '0' */
00002B8C  3B40 F734                move.w     [A5 - 0x8CC], D0
00002B90  302D F72E                move.w     D0, [A5 - 0x8D2]
00002B94  5C40                     addq.w     D0, 6
00002B96  3B40 F72E                move.w     [A5 - 0x8D2], D0
00002B9A  302D F72E                move.w     D0, [A5 - 0x8D2]
00002B9E  0640 0014                addi.w     D0, 0x14
00002BA2  3B40 F732                move.w     [A5 - 0x8CE], D0
00002BA6  3B6D F730 F748           move.w     [A5 - 0x8B8], [A5 - 0x8D0]
00002BAC  3B6D F734 F74C           move.w     [A5 - 0x8B4], [A5 - 0x8CC]
00002BB2  41ED F72E                lea.l      A0, [A5 - 0x8D2]
00002BB6  43ED F75E                lea.l      A1, [A5 - 0x8A2]
00002BBA  22D8                     move.l     [A1]+, [A0]+
00002BBC  22D8                     move.l     [A1]+, [A0]+
00002BBE  486D F75E                pea.l      [A5 - 0x8A2]
00002BC2  3F3C 000A                move.w     -[A7], 0xA /* '\n' */
00002BC6  3F3C 0005                move.w     -[A7], 0x5
00002BCA  A8A9                     syscall    InsetRect
00002BCC  0C6D 0096 F72E           cmpi.w     [A5 - 0x8D2], 0x96
00002BD2  6F00 0082                ble        +0x84 /* 00002C56 */
00002BD6  1B7C 0001 F776           move.b     [A5 - 0x88A], 0x1
00002BDC  426D F768                clr.w      [A5 - 0x898]
00002BE0  426D F766                clr.w      [A5 - 0x89A]
00002BE4  6000 0070                bra        +0x72 /* 00002C56 */
00002BE8  4A6D F768                tst.w      [A5 - 0x898]
00002BEC  6620                     bne        +0x22 /* 00002C0E */
00002BEE  302D F732                move.w     D0, [A5 - 0x8CE]
00002BF2  5240                     addq.w     D0, 1
00002BF4  3B40 F732                move.w     [A5 - 0x8CE], D0
00002BF8  302D F72E                move.w     D0, [A5 - 0x8D2]
00002BFC  0640 0024                addi.w     D0, 0x24 /* '$' */
00002C00  B06D F732                cmp.w      D0, [A5 - 0x8CE]
00002C04  6E50                     bgt        +0x52 /* 00002C56 */
00002C06  3B7C 0001 F768           move.w     [A5 - 0x898], 0x1
00002C0C  6048                     bra        +0x4A /* 00002C56 */
label00002C0E:
00002C0E  302D F72E                move.w     D0, [A5 - 0x8D2]
00002C12  5040                     addq.w     D0, 8
00002C14  3B40 F72E                move.w     [A5 - 0x8D2], D0
00002C18  302D F732                move.w     D0, [A5 - 0x8CE]
00002C1C  5040                     addq.w     D0, 8
00002C1E  3B40 F732                move.w     [A5 - 0x8CE], D0
00002C22  0C6D 0156 F72E           cmpi.w     [A5 - 0x8D2], 0x156
00002C28  6F2C                     ble        +0x2E /* 00002C56 */
00002C2A  426D F768                clr.w      [A5 - 0x898]
00002C2E  422D FD8F                clr.b      [A5 - 0x271]
00002C32  6022                     bra        +0x24 /* 00002C56 */
label00002C34:
00002C34  5340                     subq.w     D0, 1
00002C36  0C40 0008                cmpi.w     D0, 0x8
00002C3A  641A                     bcc        +0x1C /* 00002C56 */
00002C3C  D040                     add.w      D0, D0
00002C3E  303B 0006                move.w     D0, [PC + D0.w + 0x6]
00002C42  4EFB 0002                jmp        [PC + D0.w + 0x2]
00002C46  FD34                     .extension 0xD34 <<F/4-5/6>> // unimplemented
00002C48  FD6A                     .extension 0xD6A <<F/4-5/6>> // unimplemented
00002C4A  FD96                     .invalid   <<F/6/6>>
00002C4C  FE0C FE84                .unknown   0xFE0C 0xFE84 (W = 7)
00002C50  FEC6 FF34                .extension 0xEC6 <<F/2-3/7>> // unimplemented
00002C54  FFA2                     .invalid   <<F/6/7>>
label00002C56:
00002C56  4E75                     rts
fn00002C58:
00002C58  4E56 FFDA                link       A6, -0x0026
00002C5C  48E7 0308                movem.l    -[A7], D6,D7,A4
00002C60  4A6D F48C                tst.w      [A5 - 0xB74]
00002C64  6F3A                     ble        +0x3C /* 00002CA0 */
00002C66  3D6D F48C FFDA           move.w     [A6 - 0x26], [A5 - 0xB74]
00002C6C  7E01                     moveq.l    D7, 0x01
00002C6E  602A                     bra        +0x2C /* 00002C9A */
label00002C70:
00002C70  3007                     move.w     D0, D7
00002C72  C1FC 002A                muls.w     D0, 0x2A /* '*' */
00002C76  0640 F464                addi.w     D0, 0xF464
00002C7A  49F5 0000                lea.l      A4, [A5 + D0.w]
00002C7E  486D B8F0                pea.l      [A5 - 0x4710]
00002C82  486D B8FE                pea.l      [A5 - 0x4702]
00002C86  486C 0008                pea.l      [A4 + 0x8]
00002C8A  486C 0008                pea.l      [A4 + 0x8]
00002C8E  4267                     clr.w      -[A7]
00002C90  2F2D B8DE                move.l     -[A7], [A5 - 0x4722]
00002C94  A8EC                     syscall    CopyBits
00002C96  5247                     addq.w     D7, 1
00002C98  6906                     bvs        +0x8 /* 00002CA0 */
label00002C9A:
00002C9A  BE6E FFDA                cmp.w      D7, [A6 - 0x26]
00002C9E  6FD0                     ble        -0x2E /* 00002C70 */
label00002CA0:
00002CA0  4A6D F48C                tst.w      [A5 - 0xB74]
00002CA4  6F00 0212                ble        +0x214 /* 00002EB8 */
00002CA8  3D6D F48C FFDA           move.w     [A6 - 0x26], [A5 - 0xB74]
00002CAE  7E01                     moveq.l    D7, 0x01
00002CB0  6000 01FE                bra        +0x200 /* 00002EB0 */
label00002CB4:
00002CB4  3007                     move.w     D0, D7
00002CB6  C1FC 002A                muls.w     D0, 0x2A /* '*' */
00002CBA  0640 F464                addi.w     D0, 0xF464
00002CBE  49F5 0000                lea.l      A4, [A5 + D0.w]
00002CC2  302C 001A                move.w     D0, [A4 + 0x1A]
00002CC6  6000 01B0                bra        +0x1B2 /* 00002E78 */
label00002CCA:
00002CCA  486D B90C                pea.l      [A5 - 0x46F4]
00002CCE  486D B8E2                pea.l      [A5 - 0x471E]
00002CD2  486D B8FE                pea.l      [A5 - 0x4702]
00002CD6  302C 0024                move.w     D0, [A4 + 0x24]
00002CDA  E740                     asl        D0.w, 3
00002CDC  0640 FAF2                addi.w     D0, 0xFAF2
00002CE0  4875 0000                pea.l      [A5 + D0.w]
00002CE4  302C 0024                move.w     D0, [A4 + 0x24]
00002CE8  E740                     asl        D0.w, 3
00002CEA  0640 FAF2                addi.w     D0, 0xFAF2
00002CEE  4875 0000                pea.l      [A5 + D0.w]
00002CF2  486C 0008                pea.l      [A4 + 0x8]
00002CF6  A817                     syscall    CopyMask
00002CF8  6000 01A6                bra        +0x1A8 /* 00002EA0 */
label00002CFC:
00002CFC  486D B90C                pea.l      [A5 - 0x46F4]
00002D00  486D B8E2                pea.l      [A5 - 0x471E]
00002D04  486D B8FE                pea.l      [A5 - 0x4702]
00002D08  302C 0026                move.w     D0, [A4 + 0x26]
00002D0C  E740                     asl        D0.w, 3
00002D0E  0640 FAF2                addi.w     D0, 0xFAF2
00002D12  4875 0000                pea.l      [A5 + D0.w]
00002D16  302C 0026                move.w     D0, [A4 + 0x26]
00002D1A  E740                     asl        D0.w, 3
00002D1C  0640 FAF2                addi.w     D0, 0xFAF2
00002D20  4875 0000                pea.l      [A5 + D0.w]
00002D24  486C 0008                pea.l      [A4 + 0x8]
00002D28  A817                     syscall    CopyMask
00002D2A  6000 0174                bra        +0x176 /* 00002EA0 */
label00002D2E:
00002D2E  486D B90C                pea.l      [A5 - 0x46F4]
00002D32  486D B8E2                pea.l      [A5 - 0x471E]
00002D36  486D B8FE                pea.l      [A5 - 0x4702]
00002D3A  302C 001A                move.w     D0, [A4 + 0x1A]
00002D3E  E740                     asl        D0.w, 3
00002D40  0640 FAF2                addi.w     D0, 0xFAF2
00002D44  4875 0000                pea.l      [A5 + D0.w]
00002D48  302C 001A                move.w     D0, [A4 + 0x1A]
00002D4C  E740                     asl        D0.w, 3
00002D4E  0640 FAF2                addi.w     D0, 0xFAF2
00002D52  4875 0000                pea.l      [A5 + D0.w]
00002D56  302C 0018                move.w     D0, [A4 + 0x18]
00002D5A  E740                     asl        D0.w, 3
00002D5C  0640 F8FE                addi.w     D0, 0xF8FE
00002D60  4875 0000                pea.l      [A5 + D0.w]
00002D64  A817                     syscall    CopyMask
00002D66  6000 0138                bra        +0x13A /* 00002EA0 */
label00002D6A:
00002D6A  486D B90C                pea.l      [A5 - 0x46F4]
00002D6E  486D B8E2                pea.l      [A5 - 0x471E]
00002D72  486D B8FE                pea.l      [A5 - 0x4702]
00002D76  302C 001C                move.w     D0, [A4 + 0x1C]
00002D7A  E740                     asl        D0.w, 3
00002D7C  0640 FAF2                addi.w     D0, 0xFAF2
00002D80  4875 0000                pea.l      [A5 + D0.w]
00002D84  302C 001C                move.w     D0, [A4 + 0x1C]
00002D88  E740                     asl        D0.w, 3
00002D8A  0640 FAF2                addi.w     D0, 0xFAF2
00002D8E  4875 0000                pea.l      [A5 + D0.w]
00002D92  302C 0018                move.w     D0, [A4 + 0x18]
00002D96  E740                     asl        D0.w, 3
00002D98  0640 F8FE                addi.w     D0, 0xF8FE
00002D9C  4875 0000                pea.l      [A5 + D0.w]
00002DA0  A817                     syscall    CopyMask
00002DA2  6000 00FC                bra        +0xFE /* 00002EA0 */
label00002DA6:
00002DA6  4A6C 001C                tst.w      [A4 + 0x1C]
00002DAA  6700 00F4                beq        +0xF6 /* 00002EA0 */
00002DAE  2F2D B922                move.l     -[A7], [A5 - 0x46DE]
00002DB2  A873                     syscall    SetPort
00002DB4  2F2D F8FA                move.l     -[A7], [A5 - 0x706]
00002DB8  4EAD 0052                jsr        [A5 + 0x52 /* export_6, CODE:1 @ 000002A8 */]
00002DBC  2F2D F8FA                move.l     -[A7], [A5 - 0x706]
00002DC0  A879                     syscall    SetClip
00002DC2  486D B90C                pea.l      [A5 - 0x46F4]
00002DC6  486D B8E2                pea.l      [A5 - 0x471E]
00002DCA  486D B8FE                pea.l      [A5 - 0x4702]
00002DCE  302C 001C                move.w     D0, [A4 + 0x1C]
00002DD2  E740                     asl        D0.w, 3
00002DD4  0640 FAF2                addi.w     D0, 0xFAF2
00002DD8  4875 0000                pea.l      [A5 + D0.w]
00002DDC  302C 001C                move.w     D0, [A4 + 0x1C]
00002DE0  E740                     asl        D0.w, 3
00002DE2  0640 FAF2                addi.w     D0, 0xFAF2
00002DE6  4875 0000                pea.l      [A5 + D0.w]
00002DEA  302C 0018                move.w     D0, [A4 + 0x18]
00002DEE  E740                     asl        D0.w, 3
00002DF0  0640 F8FE                addi.w     D0, 0xF8FE
00002DF4  4875 0000                pea.l      [A5 + D0.w]
00002DF8  A817                     syscall    CopyMask
00002DFA  486D B8C6                pea.l      [A5 - 0x473A]
00002DFE  A87B                     syscall    ClipRect
00002E00  2F2D F8FA                move.l     -[A7], [A5 - 0x706]
00002E04  4EAD 005A                jsr        [A5 + 0x5A /* export_7, CODE:1 @ 000002B2 */]
00002E08  2F2D B8B2                move.l     -[A7], [A5 - 0x474E]
00002E0C  A873                     syscall    SetPort
00002E0E  6000 0090                bra        +0x92 /* 00002EA0 */
label00002E12:
00002E12  4A6C 001C                tst.w      [A4 + 0x1C]
00002E16  673A                     beq        +0x3C /* 00002E52 */
00002E18  486D B90C                pea.l      [A5 - 0x46F4]
00002E1C  486D B8E2                pea.l      [A5 - 0x471E]
00002E20  486D B8FE                pea.l      [A5 - 0x4702]
00002E24  302C 001C                move.w     D0, [A4 + 0x1C]
00002E28  E740                     asl        D0.w, 3
00002E2A  0640 FAF2                addi.w     D0, 0xFAF2
00002E2E  4875 0000                pea.l      [A5 + D0.w]
00002E32  302C 001C                move.w     D0, [A4 + 0x1C]
00002E36  E740                     asl        D0.w, 3
00002E38  0640 FAF2                addi.w     D0, 0xFAF2
00002E3C  4875 0000                pea.l      [A5 + D0.w]
00002E40  302C 0018                move.w     D0, [A4 + 0x18]
00002E44  E740                     asl        D0.w, 3
00002E46  0640 F8FE                addi.w     D0, 0xF8FE
00002E4A  4875 0000                pea.l      [A5 + D0.w]
00002E4E  A817                     syscall    CopyMask
00002E50  604E                     bra        +0x50 /* 00002EA0 */
label00002E52:
00002E52  486D B90C                pea.l      [A5 - 0x46F4]
00002E56  486D B8E2                pea.l      [A5 - 0x471E]
00002E5A  486D B8FE                pea.l      [A5 - 0x4702]
00002E5E  486D FD1A                pea.l      [A5 - 0x2E6]
00002E62  486D FD1A                pea.l      [A5 - 0x2E6]
00002E66  302C 0018                move.w     D0, [A4 + 0x18]
00002E6A  E740                     asl        D0.w, 3
00002E6C  0640 F8FE                addi.w     D0, 0xF8FE
00002E70  4875 0000                pea.l      [A5 + D0.w]
00002E74  A817                     syscall    CopyMask
00002E76  6028                     bra        +0x2A /* 00002EA0 */
label00002E78:
00002E78  0640 FFF5                addi.w     D0, 0xFFF5
00002E7C  6700 FE4C                beq        -0x1B2 /* 00002CCA */
00002E80  0640 FFF2                addi.w     D0, 0xFFF2
00002E84  6700 FE76                beq        -0x188 /* 00002CFC */
00002E88  5F40                     subq.w     D0, 7
00002E8A  6700 FEDE                beq        -0x120 /* 00002D6A */
00002E8E  5340                     subq.w     D0, 1
00002E90  6700 FF14                beq        -0xEA /* 00002DA6 */
00002E94  5340                     subq.w     D0, 1
00002E96  6700 FE96                beq        -0x168 /* 00002D2E */
00002E9A  5340                     subq.w     D0, 1
00002E9C  6700 FF74                beq        -0x8A /* 00002E12 */
label00002EA0:
00002EA0  41EC 0008                lea.l      A0, [A4 + 0x8]
00002EA4  43EC 0010                lea.l      A1, [A4 + 0x10]
00002EA8  22D8                     move.l     [A1]+, [A0]+
00002EAA  22D8                     move.l     [A1]+, [A0]+
00002EAC  5247                     addq.w     D7, 1
00002EAE  6908                     bvs        +0xA /* 00002EB8 */
label00002EB0:
00002EB0  BE6E FFDA                cmp.w      D7, [A6 - 0x26]
00002EB4  6F00 FDFE                ble        -0x200 /* 00002CB4 */
label00002EB8:
00002EB8  4A6D F48C                tst.w      [A5 - 0xB74]
00002EBC  6F3E                     ble        +0x40 /* 00002EFC */
00002EBE  3D6D F48C FFDA           move.w     [A6 - 0x26], [A5 - 0xB74]
00002EC4  7E01                     moveq.l    D7, 0x01
00002EC6  602E                     bra        +0x30 /* 00002EF6 */
label00002EC8:
00002EC8  3007                     move.w     D0, D7
00002ECA  C1FC 002A                muls.w     D0, 0x2A /* '*' */
00002ECE  0640 F464                addi.w     D0, 0xF464
00002ED2  49F5 0000                lea.l      A4, [A5 + D0.w]
00002ED6  486D B8FE                pea.l      [A5 - 0x4702]
00002EDA  206D B8B2                movea.l    A0, [A5 - 0x474E]
00002EDE  4868 0002                pea.l      [A0 + 0x2]
00002EE2  486C 0008                pea.l      [A4 + 0x8]
00002EE6  486C 0008                pea.l      [A4 + 0x8]
00002EEA  4267                     clr.w      -[A7]
00002EEC  2F2D B8DE                move.l     -[A7], [A5 - 0x4722]
00002EF0  A8EC                     syscall    CopyBits
00002EF2  5247                     addq.w     D7, 1
00002EF4  6906                     bvs        +0x8 /* 00002EFC */
label00002EF6:
00002EF6  BE6E FFDA                cmp.w      D7, [A6 - 0x26]
00002EFA  6FCC                     ble        -0x32 /* 00002EC8 */
label00002EFC:
00002EFC  4A2D F76A                tst.b      [A5 - 0x896]
00002F00  6720                     beq        +0x22 /* 00002F22 */
00002F02  486D B90C                pea.l      [A5 - 0x46F4]
00002F06  486D B8E2                pea.l      [A5 - 0x471E]
00002F0A  206D B8B2                movea.l    A0, [A5 - 0x474E]
00002F0E  4868 0002                pea.l      [A0 + 0x2]
00002F12  486D F860                pea.l      [A5 - 0x7A0]
00002F16  486D F860                pea.l      [A5 - 0x7A0]
00002F1A  486D F746                pea.l      [A5 - 0x8BA]
00002F1E  A817                     syscall    CopyMask
00002F20  601E                     bra        +0x20 /* 00002F40 */
label00002F22:
00002F22  486D B90C                pea.l      [A5 - 0x46F4]
00002F26  486D B8E2                pea.l      [A5 - 0x471E]
00002F2A  206D B8B2                movea.l    A0, [A5 - 0x474E]
00002F2E  4868 0002                pea.l      [A0 + 0x2]
00002F32  486D F868                pea.l      [A5 - 0x798]
00002F36  486D F868                pea.l      [A5 - 0x798]
00002F3A  486D F746                pea.l      [A5 - 0x8BA]
00002F3E  A817                     syscall    CopyMask
label00002F40:
00002F40  4A2D F776                tst.b      [A5 - 0x88A]
00002F44  6736                     beq        +0x38 /* 00002F7C */
00002F46  486D B90C                pea.l      [A5 - 0x46F4]
00002F4A  486D B8E2                pea.l      [A5 - 0x471E]
00002F4E  206D B8B2                movea.l    A0, [A5 - 0x474E]
00002F52  4868 0002                pea.l      [A0 + 0x2]
00002F56  302D F76C                move.w     D0, [A5 - 0x894]
00002F5A  E740                     asl        D0.w, 3
00002F5C  0640 F780                addi.w     D0, 0xF780
00002F60  4875 0000                pea.l      [A5 + D0.w]
00002F64  302D F76C                move.w     D0, [A5 - 0x894]
00002F68  E740                     asl        D0.w, 3
00002F6A  0640 F780                addi.w     D0, 0xF780
00002F6E  4875 0000                pea.l      [A5 + D0.w]
00002F72  486D F72E                pea.l      [A5 - 0x8D2]
00002F76  A817                     syscall    CopyMask
00002F78  6000 00FC                bra        +0xFE /* 00003076 */
label00002F7C:
00002F7C  302D F766                move.w     D0, [A5 - 0x89A]
00002F80  6000 00D4                bra        +0xD6 /* 00003056 */
00002F84  3C2D F766                move.w     D6, [A5 - 0x89A]
00002F88  CDFC 0022                muls.w     D6, 0x22 /* '\"' */
00002F8C  302D F768                move.w     D0, [A5 - 0x898]
00002F90  D040                     add.w      D0, D0
00002F92  D046                     add.w      D0, D6
00002F94  0640 F84E                addi.w     D0, 0xF84E
00002F98  3C35 0000                move.w     D6, [A5 + D0.w]
00002F9C  102D F76A                move.b     D0, [A5 - 0x896]
00002FA0  5300                     subq.b     D0, 1
00002FA2  6702                     beq        +0x4 /* 00002FA6 */
00002FA4  5E46                     addq.w     D6, 7
label00002FA6:
00002FA6  486D B90C                pea.l      [A5 - 0x46F4]
00002FAA  486D B8E2                pea.l      [A5 - 0x471E]
00002FAE  206D B8B2                movea.l    A0, [A5 - 0x474E]
00002FB2  4868 0002                pea.l      [A0 + 0x2]
00002FB6  302D F76C                move.w     D0, [A5 - 0x894]
00002FBA  E740                     asl        D0.w, 3
00002FBC  0640 F780                addi.w     D0, 0xF780
00002FC0  4875 0000                pea.l      [A5 + D0.w]
00002FC4  3006                     move.w     D0, D6
00002FC6  E740                     asl        D0.w, 3
00002FC8  0640 F780                addi.w     D0, 0xF780
00002FCC  4875 0000                pea.l      [A5 + D0.w]
00002FD0  486D F72E                pea.l      [A5 - 0x8D2]
00002FD4  A817                     syscall    CopyMask
00002FD6  6000 009E                bra        +0xA0 /* 00003076 */
00002FDA  3C2D F766                move.w     D6, [A5 - 0x89A]
00002FDE  CDFC 0022                muls.w     D6, 0x22 /* '\"' */
00002FE2  302D F768                move.w     D0, [A5 - 0x898]
00002FE6  D040                     add.w      D0, D0
00002FE8  D046                     add.w      D0, D6
00002FEA  0640 F84E                addi.w     D0, 0xF84E
00002FEE  3C35 0000                move.w     D6, [A5 + D0.w]
00002FF2  486D B90C                pea.l      [A5 - 0x46F4]
00002FF6  486D B8E2                pea.l      [A5 - 0x471E]
00002FFA  206D B8B2                movea.l    A0, [A5 - 0x474E]
00002FFE  4868 0002                pea.l      [A0 + 0x2]
00003002  3006                     move.w     D0, D6
00003004  E740                     asl        D0.w, 3
00003006  0640 F780                addi.w     D0, 0xF780
0000300A  4875 0000                pea.l      [A5 + D0.w]
0000300E  3006                     move.w     D0, D6
00003010  E740                     asl        D0.w, 3
00003012  0640 F780                addi.w     D0, 0xF780
00003016  4875 0000                pea.l      [A5 + D0.w]
0000301A  486D F72E                pea.l      [A5 - 0x8D2]
0000301E  A817                     syscall    CopyMask
00003020  6054                     bra        +0x56 /* 00003076 */
00003022  486D B90C                pea.l      [A5 - 0x46F4]
00003026  486D B8E2                pea.l      [A5 - 0x471E]
0000302A  206D B8B2                movea.l    A0, [A5 - 0x474E]
0000302E  4868 0002                pea.l      [A0 + 0x2]
00003032  302D F76C                move.w     D0, [A5 - 0x894]
00003036  E740                     asl        D0.w, 3
00003038  0640 F780                addi.w     D0, 0xF780
0000303C  4875 0000                pea.l      [A5 + D0.w]
00003040  302D F76C                move.w     D0, [A5 - 0x894]
00003044  E740                     asl        D0.w, 3
00003046  0640 F780                addi.w     D0, 0xF780
0000304A  4875 0000                pea.l      [A5 + D0.w]
0000304E  486D F72E                pea.l      [A5 - 0x8D2]
00003052  A817                     syscall    CopyMask
00003054  6020                     bra        +0x22 /* 00003076 */
label00003056:
00003056  5340                     subq.w     D0, 1
00003058  0C40 0007                cmpi.w     D0, 0x7
0000305C  6418                     bcc        +0x1A /* 00003076 */
0000305E  D040                     add.w      D0, D0
00003060  303B 0006                move.w     D0, [PC + D0.w + 0x6]
00003064  4EFB 0002                jmp        [PC + D0.w + 0x2]
00003068  FF1C                     .extension 0xF1C <<F/4-5/7>> // unimplemented
0000306A  FF1C                     .extension 0xF1C <<F/4-5/7>> // unimplemented
0000306C  FF72                     .extension 0xF72 <<F/4-5/7>> // unimplemented
0000306E  FF72                     .extension 0xF72 <<F/4-5/7>> // unimplemented
00003070  FFBA                     .invalid   <<F/6/7>>
00003072  FFBA                     .invalid   <<F/6/7>>
00003074  FFBA                     .invalid   <<F/6/7>>
label00003076:
00003076  4CDF 10C0                movem.l    D6,D7,A4, [A7]+
0000307A  4E5E                     unlink     A6
0000307C  4E75                     rts
fn0000307E:
0000307E  4E56 FFDA                link       A6, -0x0026
00003082  48E7 0308                movem.l    -[A7], D6,D7,A4
00003086  4A6D F48C                tst.w      [A5 - 0xB74]
0000308A  6F46                     ble        +0x48 /* 000030D2 */
0000308C  3D6D F48C FFDA           move.w     [A6 - 0x26], [A5 - 0xB74]
00003092  7E01                     moveq.l    D7, 0x01
00003094  6036                     bra        +0x38 /* 000030CC */
label00003096:
00003096  3007                     move.w     D0, D7
00003098  C1FC 002A                muls.w     D0, 0x2A /* '*' */
0000309C  0640 F464                addi.w     D0, 0xF464
000030A0  49F5 0000                lea.l      A4, [A5 + D0.w]
000030A4  206D BA7E                movea.l    A0, [A5 - 0x4582]
000030A8  2068 0002                movea.l    A0, [A0 + 0x2]
000030AC  2F10                     move.l     -[A7], [A0]
000030AE  206D BA82                movea.l    A0, [A5 - 0x457E]
000030B2  2068 0002                movea.l    A0, [A0 + 0x2]
000030B6  2F10                     move.l     -[A7], [A0]
000030B8  486C 0010                pea.l      [A4 + 0x10]
000030BC  486C 0010                pea.l      [A4 + 0x10]
000030C0  4267                     clr.w      -[A7]
000030C2  2F2D B8DE                move.l     -[A7], [A5 - 0x4722]
000030C6  A8EC                     syscall    CopyBits
000030C8  5247                     addq.w     D7, 1
000030CA  6906                     bvs        +0x8 /* 000030D2 */
label000030CC:
000030CC  BE6E FFDA                cmp.w      D7, [A6 - 0x26]
000030D0  6FC4                     ble        -0x3A /* 00003096 */
label000030D2:
000030D2  4A6D F48C                tst.w      [A5 - 0xB74]
000030D6  6F00 026A                ble        +0x26C /* 00003342 */
000030DA  3D6D F48C FFDA           move.w     [A6 - 0x26], [A5 - 0xB74]
000030E0  7E01                     moveq.l    D7, 0x01
000030E2  6000 0256                bra        +0x258 /* 0000333A */
label000030E6:
000030E6  3007                     move.w     D0, D7
000030E8  C1FC 002A                muls.w     D0, 0x2A /* '*' */
000030EC  0640 F464                addi.w     D0, 0xF464
000030F0  49F5 0000                lea.l      A4, [A5 + D0.w]
000030F4  302C 001A                move.w     D0, [A4 + 0x1A]
000030F8  6000 0204                bra        +0x206 /* 000032FE */
label000030FC:
000030FC  206D BA86                movea.l    A0, [A5 - 0x457A]
00003100  2068 0002                movea.l    A0, [A0 + 0x2]
00003104  2F10                     move.l     -[A7], [A0]
00003106  486D B8E2                pea.l      [A5 - 0x471E]
0000310A  206D BA82                movea.l    A0, [A5 - 0x457E]
0000310E  2068 0002                movea.l    A0, [A0 + 0x2]
00003112  2F10                     move.l     -[A7], [A0]
00003114  302C 0024                move.w     D0, [A4 + 0x24]
00003118  E740                     asl        D0.w, 3
0000311A  0640 FAF2                addi.w     D0, 0xFAF2
0000311E  4875 0000                pea.l      [A5 + D0.w]
00003122  302C 0024                move.w     D0, [A4 + 0x24]
00003126  E740                     asl        D0.w, 3
00003128  0640 FAF2                addi.w     D0, 0xFAF2
0000312C  4875 0000                pea.l      [A5 + D0.w]
00003130  486C 0008                pea.l      [A4 + 0x8]
00003134  A817                     syscall    CopyMask
00003136  6000 01F2                bra        +0x1F4 /* 0000332A */
label0000313A:
0000313A  206D BA86                movea.l    A0, [A5 - 0x457A]
0000313E  2068 0002                movea.l    A0, [A0 + 0x2]
00003142  2F10                     move.l     -[A7], [A0]
00003144  486D B8E2                pea.l      [A5 - 0x471E]
00003148  206D BA82                movea.l    A0, [A5 - 0x457E]
0000314C  2068 0002                movea.l    A0, [A0 + 0x2]
00003150  2F10                     move.l     -[A7], [A0]
00003152  302C 0026                move.w     D0, [A4 + 0x26]
00003156  E740                     asl        D0.w, 3
00003158  0640 FAF2                addi.w     D0, 0xFAF2
0000315C  4875 0000                pea.l      [A5 + D0.w]
00003160  302C 0026                move.w     D0, [A4 + 0x26]
00003164  E740                     asl        D0.w, 3
00003166  0640 FAF2                addi.w     D0, 0xFAF2
0000316A  4875 0000                pea.l      [A5 + D0.w]
0000316E  486C 0008                pea.l      [A4 + 0x8]
00003172  A817                     syscall    CopyMask
00003174  6000 01B4                bra        +0x1B6 /* 0000332A */
label00003178:
00003178  206D BA86                movea.l    A0, [A5 - 0x457A]
0000317C  2068 0002                movea.l    A0, [A0 + 0x2]
00003180  2F10                     move.l     -[A7], [A0]
00003182  486D B8E2                pea.l      [A5 - 0x471E]
00003186  206D BA82                movea.l    A0, [A5 - 0x457E]
0000318A  2068 0002                movea.l    A0, [A0 + 0x2]
0000318E  2F10                     move.l     -[A7], [A0]
00003190  302C 001A                move.w     D0, [A4 + 0x1A]
00003194  E740                     asl        D0.w, 3
00003196  0640 FAF2                addi.w     D0, 0xFAF2
0000319A  4875 0000                pea.l      [A5 + D0.w]
0000319E  302C 001A                move.w     D0, [A4 + 0x1A]
000031A2  E740                     asl        D0.w, 3
000031A4  0640 FAF2                addi.w     D0, 0xFAF2
000031A8  4875 0000                pea.l      [A5 + D0.w]
000031AC  302C 0018                move.w     D0, [A4 + 0x18]
000031B0  E740                     asl        D0.w, 3
000031B2  0640 F8FE                addi.w     D0, 0xF8FE
000031B6  4875 0000                pea.l      [A5 + D0.w]
000031BA  A817                     syscall    CopyMask
000031BC  6000 016C                bra        +0x16E /* 0000332A */
label000031C0:
000031C0  206D BA86                movea.l    A0, [A5 - 0x457A]
000031C4  2068 0002                movea.l    A0, [A0 + 0x2]
000031C8  2F10                     move.l     -[A7], [A0]
000031CA  486D B8E2                pea.l      [A5 - 0x471E]
000031CE  206D BA82                movea.l    A0, [A5 - 0x457E]
000031D2  2068 0002                movea.l    A0, [A0 + 0x2]
000031D6  2F10                     move.l     -[A7], [A0]
000031D8  302C 001C                move.w     D0, [A4 + 0x1C]
000031DC  E740                     asl        D0.w, 3
000031DE  0640 FAF2                addi.w     D0, 0xFAF2
000031E2  4875 0000                pea.l      [A5 + D0.w]
000031E6  302C 001C                move.w     D0, [A4 + 0x1C]
000031EA  E740                     asl        D0.w, 3
000031EC  0640 FAF2                addi.w     D0, 0xFAF2
000031F0  4875 0000                pea.l      [A5 + D0.w]
000031F4  302C 0018                move.w     D0, [A4 + 0x18]
000031F8  E740                     asl        D0.w, 3
000031FA  0640 F8FE                addi.w     D0, 0xF8FE
000031FE  4875 0000                pea.l      [A5 + D0.w]
00003202  A817                     syscall    CopyMask
00003204  6000 0124                bra        +0x126 /* 0000332A */
label00003208:
00003208  4A6C 001C                tst.w      [A4 + 0x1C]
0000320C  6700 011C                beq        +0x11E /* 0000332A */
00003210  2F2D BA82                move.l     -[A7], [A5 - 0x457E]
00003214  A873                     syscall    SetPort
00003216  2F2D F8FA                move.l     -[A7], [A5 - 0x706]
0000321A  4EAD 0052                jsr        [A5 + 0x52 /* export_6, CODE:1 @ 000002A8 */]
0000321E  2F2D F8FA                move.l     -[A7], [A5 - 0x706]
00003222  A879                     syscall    SetClip
00003224  206D BA86                movea.l    A0, [A5 - 0x457A]
00003228  2068 0002                movea.l    A0, [A0 + 0x2]
0000322C  2F10                     move.l     -[A7], [A0]
0000322E  486D B8E2                pea.l      [A5 - 0x471E]
00003232  206D BA82                movea.l    A0, [A5 - 0x457E]
00003236  2068 0002                movea.l    A0, [A0 + 0x2]
0000323A  2F10                     move.l     -[A7], [A0]
0000323C  302C 001C                move.w     D0, [A4 + 0x1C]
00003240  E740                     asl        D0.w, 3
00003242  0640 FAF2                addi.w     D0, 0xFAF2
00003246  4875 0000                pea.l      [A5 + D0.w]
0000324A  302C 001C                move.w     D0, [A4 + 0x1C]
0000324E  E740                     asl        D0.w, 3
00003250  0640 FAF2                addi.w     D0, 0xFAF2
00003254  4875 0000                pea.l      [A5 + D0.w]
00003258  302C 0018                move.w     D0, [A4 + 0x18]
0000325C  E740                     asl        D0.w, 3
0000325E  0640 F8FE                addi.w     D0, 0xF8FE
00003262  4875 0000                pea.l      [A5 + D0.w]
00003266  A817                     syscall    CopyMask
00003268  2F2D F8FA                move.l     -[A7], [A5 - 0x706]
0000326C  4EAD 005A                jsr        [A5 + 0x5A /* export_7, CODE:1 @ 000002B2 */]
00003270  486D B8C6                pea.l      [A5 - 0x473A]
00003274  A87B                     syscall    ClipRect
00003276  2F2D B8B2                move.l     -[A7], [A5 - 0x474E]
0000327A  A873                     syscall    SetPort
0000327C  6000 00AC                bra        +0xAE /* 0000332A */
label00003280:
00003280  4A6C 001C                tst.w      [A4 + 0x1C]
00003284  6746                     beq        +0x48 /* 000032CC */
00003286  206D BA86                movea.l    A0, [A5 - 0x457A]
0000328A  2068 0002                movea.l    A0, [A0 + 0x2]
0000328E  2F10                     move.l     -[A7], [A0]
00003290  486D B8E2                pea.l      [A5 - 0x471E]
00003294  206D BA82                movea.l    A0, [A5 - 0x457E]
00003298  2068 0002                movea.l    A0, [A0 + 0x2]
0000329C  2F10                     move.l     -[A7], [A0]
0000329E  302C 001C                move.w     D0, [A4 + 0x1C]
000032A2  E740                     asl        D0.w, 3
000032A4  0640 FAF2                addi.w     D0, 0xFAF2
000032A8  4875 0000                pea.l      [A5 + D0.w]
000032AC  302C 001C                move.w     D0, [A4 + 0x1C]
000032B0  E740                     asl        D0.w, 3
000032B2  0640 FAF2                addi.w     D0, 0xFAF2
000032B6  4875 0000                pea.l      [A5 + D0.w]
000032BA  302C 0018                move.w     D0, [A4 + 0x18]
000032BE  E740                     asl        D0.w, 3
000032C0  0640 F8FE                addi.w     D0, 0xF8FE
000032C4  4875 0000                pea.l      [A5 + D0.w]
000032C8  A817                     syscall    CopyMask
000032CA  605E                     bra        +0x60 /* 0000332A */
label000032CC:
000032CC  206D BA86                movea.l    A0, [A5 - 0x457A]
000032D0  2068 0002                movea.l    A0, [A0 + 0x2]
000032D4  2F10                     move.l     -[A7], [A0]
000032D6  486D B8E2                pea.l      [A5 - 0x471E]
000032DA  206D BA82                movea.l    A0, [A5 - 0x457E]
000032DE  2068 0002                movea.l    A0, [A0 + 0x2]
000032E2  2F10                     move.l     -[A7], [A0]
000032E4  486D FD1A                pea.l      [A5 - 0x2E6]
000032E8  486D FD1A                pea.l      [A5 - 0x2E6]
000032EC  302C 0018                move.w     D0, [A4 + 0x18]
000032F0  E740                     asl        D0.w, 3
000032F2  0640 F8FE                addi.w     D0, 0xF8FE
000032F6  4875 0000                pea.l      [A5 + D0.w]
000032FA  A817                     syscall    CopyMask
000032FC  602C                     bra        +0x2E /* 0000332A */
label000032FE:
000032FE  0640 FFF5                addi.w     D0, 0xFFF5
00003302  6700 FDF8                beq        -0x206 /* 000030FC */
00003306  5F40                     subq.w     D0, 7
00003308  6700 FE30                beq        -0x1CE /* 0000313A */
0000330C  5F40                     subq.w     D0, 7
0000330E  6700 FE2A                beq        -0x1D4 /* 0000313A */
00003312  5F40                     subq.w     D0, 7
00003314  6700 FEAA                beq        -0x154 /* 000031C0 */
00003318  5340                     subq.w     D0, 1
0000331A  6700 FEEC                beq        -0x112 /* 00003208 */
0000331E  5340                     subq.w     D0, 1
00003320  6700 FE56                beq        -0x1A8 /* 00003178 */
00003324  5340                     subq.w     D0, 1
00003326  6700 FF58                beq        -0xA6 /* 00003280 */
label0000332A:
0000332A  41EC 0008                lea.l      A0, [A4 + 0x8]
0000332E  43EC 0010                lea.l      A1, [A4 + 0x10]
00003332  22D8                     move.l     [A1]+, [A0]+
00003334  22D8                     move.l     [A1]+, [A0]+
00003336  5247                     addq.w     D7, 1
00003338  6908                     bvs        +0xA /* 00003342 */
label0000333A:
0000333A  BE6E FFDA                cmp.w      D7, [A6 - 0x26]
0000333E  6F00 FDA6                ble        -0x258 /* 000030E6 */
label00003342:
00003342  4A6D F48C                tst.w      [A5 - 0xB74]
00003346  6F00 00A4                ble        +0xA6 /* 000033EC */
0000334A  3D6D F48C FFDA           move.w     [A6 - 0x26], [A5 - 0xB74]
00003350  7E01                     moveq.l    D7, 0x01
00003352  6000 0090                bra        +0x92 /* 000033E4 */
label00003356:
00003356  3007                     move.w     D0, D7
00003358  C1FC 002A                muls.w     D0, 0x2A /* '*' */
0000335C  0640 F464                addi.w     D0, 0xF464
00003360  49F5 0000                lea.l      A4, [A5 + D0.w]
00003364  0C6C 0012 001A           cmpi.w     [A4 + 0x1A], 0x12
0000336A  6724                     beq        +0x26 /* 00003390 */
0000336C  206D BA82                movea.l    A0, [A5 - 0x457E]
00003370  2068 0002                movea.l    A0, [A0 + 0x2]
00003374  2F10                     move.l     -[A7], [A0]
00003376  206D B8B2                movea.l    A0, [A5 - 0x474E]
0000337A  4868 0002                pea.l      [A0 + 0x2]
0000337E  486C 0008                pea.l      [A4 + 0x8]
00003382  486C 0008                pea.l      [A4 + 0x8]
00003386  4267                     clr.w      -[A7]
00003388  2F2D B8DE                move.l     -[A7], [A5 - 0x4722]
0000338C  A8EC                     syscall    CopyBits
0000338E  6050                     bra        +0x52 /* 000033E0 */
label00003390:
00003390  206D BA82                movea.l    A0, [A5 - 0x457E]
00003394  2068 0002                movea.l    A0, [A0 + 0x2]
00003398  2F10                     move.l     -[A7], [A0]
0000339A  206D B8B2                movea.l    A0, [A5 - 0x474E]
0000339E  4868 0002                pea.l      [A0 + 0x2]
000033A2  486C 0008                pea.l      [A4 + 0x8]
000033A6  486C 0008                pea.l      [A4 + 0x8]
000033AA  4267                     clr.w      -[A7]
000033AC  2F2D B8DE                move.l     -[A7], [A5 - 0x4722]
000033B0  A8EC                     syscall    CopyBits
000033B2  2F2D B8B2                move.l     -[A7], [A5 - 0x474E]
000033B6  A873                     syscall    SetPort
000033B8  A89E                     syscall    PenNormal
000033BA  3F3C 0002                move.w     -[A7], 0x2
000033BE  3F3C 0002                move.w     -[A7], 0x2
000033C2  A89B                     syscall    PenSize
000033C4  3F2C 000E                move.w     -[A7], [A4 + 0xE]
000033C8  302C 000C                move.w     D0, [A4 + 0xC]
000033CC  5540                     subq.w     D0, 2
000033CE  3F00                     move.w     -[A7], D0
000033D0  A893                     syscall    MoveTo
000033D2  3F2C 0028                move.w     -[A7], [A4 + 0x28]
000033D6  302C 000C                move.w     D0, [A4 + 0xC]
000033DA  5540                     subq.w     D0, 2
000033DC  3F00                     move.w     -[A7], D0
000033DE  A891                     syscall    LineTo
label000033E0:
000033E0  5247                     addq.w     D7, 1
000033E2  6908                     bvs        +0xA /* 000033EC */
label000033E4:
000033E4  BE6E FFDA                cmp.w      D7, [A6 - 0x26]
000033E8  6F00 FF6C                ble        -0x92 /* 00003356 */
label000033EC:
000033EC  4A2D F776                tst.b      [A5 - 0x88A]
000033F0  673C                     beq        +0x3E /* 0000342E */
000033F2  206D BA86                movea.l    A0, [A5 - 0x457A]
000033F6  2068 0002                movea.l    A0, [A0 + 0x2]
000033FA  2F10                     move.l     -[A7], [A0]
000033FC  486D B8E2                pea.l      [A5 - 0x471E]
00003400  206D B8B2                movea.l    A0, [A5 - 0x474E]
00003404  4868 0002                pea.l      [A0 + 0x2]
00003408  302D F76C                move.w     D0, [A5 - 0x894]
0000340C  E740                     asl        D0.w, 3
0000340E  0640 F780                addi.w     D0, 0xF780
00003412  4875 0000                pea.l      [A5 + D0.w]
00003416  302D F76C                move.w     D0, [A5 - 0x894]
0000341A  E740                     asl        D0.w, 3
0000341C  0640 F780                addi.w     D0, 0xF780
00003420  4875 0000                pea.l      [A5 + D0.w]
00003424  486D F72E                pea.l      [A5 - 0x8D2]
00003428  A817                     syscall    CopyMask
0000342A  6000 015A                bra        +0x15C /* 00003586 */
label0000342E:
0000342E  302D F766                move.w     D0, [A5 - 0x89A]
00003432  6000 0130                bra        +0x132 /* 00003564 */
00003436  3C2D F766                move.w     D6, [A5 - 0x89A]
0000343A  CDFC 0022                muls.w     D6, 0x22 /* '\"' */
0000343E  302D F768                move.w     D0, [A5 - 0x898]
00003442  D040                     add.w      D0, D0
00003444  D046                     add.w      D0, D6
00003446  0640 F84E                addi.w     D0, 0xF84E
0000344A  3C35 0000                move.w     D6, [A5 + D0.w]
0000344E  102D F76A                move.b     D0, [A5 - 0x896]
00003452  5300                     subq.b     D0, 1
00003454  6702                     beq        +0x4 /* 00003458 */
00003456  5E46                     addq.w     D6, 7
label00003458:
00003458  206D BA86                movea.l    A0, [A5 - 0x457A]
0000345C  2068 0002                movea.l    A0, [A0 + 0x2]
00003460  2F10                     move.l     -[A7], [A0]
00003462  486D B8E2                pea.l      [A5 - 0x471E]
00003466  206D B8B2                movea.l    A0, [A5 - 0x474E]
0000346A  4868 0002                pea.l      [A0 + 0x2]
0000346E  302D F76C                move.w     D0, [A5 - 0x894]
00003472  E740                     asl        D0.w, 3
00003474  0640 F780                addi.w     D0, 0xF780
00003478  4875 0000                pea.l      [A5 + D0.w]
0000347C  3006                     move.w     D0, D6
0000347E  E740                     asl        D0.w, 3
00003480  0640 F780                addi.w     D0, 0xF780
00003484  4875 0000                pea.l      [A5 + D0.w]
00003488  486D F72E                pea.l      [A5 - 0x8D2]
0000348C  A817                     syscall    CopyMask
0000348E  6000 00F6                bra        +0xF8 /* 00003586 */
00003492  3C2D F766                move.w     D6, [A5 - 0x89A]
00003496  CDFC 0022                muls.w     D6, 0x22 /* '\"' */
0000349A  302D F768                move.w     D0, [A5 - 0x898]
0000349E  D040                     add.w      D0, D0
000034A0  D046                     add.w      D0, D6
000034A2  0640 F84E                addi.w     D0, 0xF84E
000034A6  3C35 0000                move.w     D6, [A5 + D0.w]
000034AA  206D BA86                movea.l    A0, [A5 - 0x457A]
000034AE  2068 0002                movea.l    A0, [A0 + 0x2]
000034B2  2F10                     move.l     -[A7], [A0]
000034B4  486D B8E2                pea.l      [A5 - 0x471E]
000034B8  206D B8B2                movea.l    A0, [A5 - 0x474E]
000034BC  4868 0002                pea.l      [A0 + 0x2]
000034C0  3006                     move.w     D0, D6
000034C2  E740                     asl        D0.w, 3
000034C4  0640 F780                addi.w     D0, 0xF780
000034C8  4875 0000                pea.l      [A5 + D0.w]
000034CC  3006                     move.w     D0, D6
000034CE  E740                     asl        D0.w, 3
000034D0  0640 F780                addi.w     D0, 0xF780
000034D4  4875 0000                pea.l      [A5 + D0.w]
000034D8  486D F72E                pea.l      [A5 - 0x8D2]
000034DC  A817                     syscall    CopyMask
000034DE  6000 00A6                bra        +0xA8 /* 00003586 */
000034E2  206D BA86                movea.l    A0, [A5 - 0x457A]
000034E6  2068 0002                movea.l    A0, [A0 + 0x2]
000034EA  2F10                     move.l     -[A7], [A0]
000034EC  486D B8E2                pea.l      [A5 - 0x471E]
000034F0  206D B8B2                movea.l    A0, [A5 - 0x474E]
000034F4  4868 0002                pea.l      [A0 + 0x2]
000034F8  302D F76C                move.w     D0, [A5 - 0x894]
000034FC  E740                     asl        D0.w, 3
000034FE  0640 F780                addi.w     D0, 0xF780
00003502  4875 0000                pea.l      [A5 + D0.w]
00003506  302D F76C                move.w     D0, [A5 - 0x894]
0000350A  E740                     asl        D0.w, 3
0000350C  0640 F780                addi.w     D0, 0xF780
00003510  4875 0000                pea.l      [A5 + D0.w]
00003514  486D F72E                pea.l      [A5 - 0x8D2]
00003518  A817                     syscall    CopyMask
0000351A  606A                     bra        +0x6C /* 00003586 */
0000351C  486E FFE4                pea.l      [A6 - 0x1C]
00003520  3F3C 0109                move.w     -[A7], 0x109
00003524  302D F732                move.w     D0, [A5 - 0x8CE]
00003528  906D F72E                sub.w      D0, [A5 - 0x8D2]
0000352C  323C 00D0                move.w     D1, 0xD0
00003530  9240                     sub.w      D1, D0
00003532  3F01                     move.w     -[A7], D1
00003534  3F3C 0139                move.w     -[A7], 0x139
00003538  3F3C 00D0                move.w     -[A7], 0xD0
0000353C  A8A7                     syscall    SetRect
0000353E  206D BA86                movea.l    A0, [A5 - 0x457A]
00003542  2068 0002                movea.l    A0, [A0 + 0x2]
00003546  2F10                     move.l     -[A7], [A0]
00003548  486D B8E2                pea.l      [A5 - 0x471E]
0000354C  206D B8B2                movea.l    A0, [A5 - 0x474E]
00003550  4868 0002                pea.l      [A0 + 0x2]
00003554  486E FFE4                pea.l      [A6 - 0x1C]
00003558  486E FFE4                pea.l      [A6 - 0x1C]
0000355C  486D F72E                pea.l      [A5 - 0x8D2]
00003560  A817                     syscall    CopyMask
00003562  6022                     bra        +0x24 /* 00003586 */
label00003564:
00003564  5340                     subq.w     D0, 1
00003566  0C40 0008                cmpi.w     D0, 0x8
0000356A  641A                     bcc        +0x1C /* 00003586 */
0000356C  D040                     add.w      D0, D0
0000356E  303B 0006                move.w     D0, [PC + D0.w + 0x6]
00003572  4EFB 0002                jmp        [PC + D0.w + 0x2]
00003576  FEC0 FEC0                .extension 0xEC0 <<F/2-3/7>> // unimplemented
0000357A  FF1C                     .extension 0xF1C <<F/4-5/7>> // unimplemented
0000357C  FF1C                     .extension 0xF1C <<F/4-5/7>> // unimplemented
0000357E  FF6C                     .extension 0xF6C <<F/4-5/7>> // unimplemented
00003580  FF6C                     .extension 0xF6C <<F/4-5/7>> // unimplemented
00003582  FF6C                     .extension 0xF6C <<F/4-5/7>> // unimplemented
00003584  FFA6                     .invalid   <<F/6/7>>
label00003586:
00003586  4CDF 10C0                movem.l    D6,D7,A4, [A7]+
0000358A  4E5E                     unlink     A6
0000358C  4E75                     rts
export_65:
0000358E  4E56 FFA2                link       A6, -0x005E
00003592  1F3C 0001                move.b     -[A7], 0x1
00003596  4EAD 01E2                jsr        [A5 + 0x1E2 /* export_56, CODE:2 @ 00003D62 */]
0000359A  302D BB3A                move.w     D0, [A5 - 0x44C6]
0000359E  C1FC 013A                muls.w     D0, 0x13A
000035A2  41ED F1F2                lea.l      A0, [A5 - 0xE0E]
000035A6  0640 BFA8                addi.w     D0, 0xBFA8
000035AA  43F5 0000                lea.l      A1, [A5 + D0.w]
000035AE  704D                     moveq.l    D0, 0x4D
label000035B0:
000035B0  22D8                     move.l     [A1]+, [A0]+
000035B2  51C8 FFFC                dbf        D0, -0x6 /* 000035B0 */
000035B6  32D8                     move.w     [A1]+, [A0]+
000035B8  41ED F1F2                lea.l      A0, [A5 - 0xE0E]
000035BC  43ED FDC0                lea.l      A1, [A5 - 0x240]
000035C0  704D                     moveq.l    D0, 0x4D
label000035C2:
000035C2  22D8                     move.l     [A1]+, [A0]+
000035C4  51C8 FFFC                dbf        D0, -0x6 /* 000035C2 */
000035C8  32D8                     move.w     [A1]+, [A0]+
000035CA  4A2D FD97                tst.b      [A5 - 0x269]
000035CE  6728                     beq        +0x2A /* 000035F8 */
000035D0  206D BA82                movea.l    A0, [A5 - 0x457E]
000035D4  2068 0002                movea.l    A0, [A0 + 0x2]
000035D8  2F10                     move.l     -[A7], [A0]
000035DA  206D B8B2                movea.l    A0, [A5 - 0x474E]
000035DE  4868 0002                pea.l      [A0 + 0x2]
000035E2  486D B8C6                pea.l      [A5 - 0x473A]
000035E6  486D B8C6                pea.l      [A5 - 0x473A]
000035EA  4267                     clr.w      -[A7]
000035EC  206D B8B2                movea.l    A0, [A5 - 0x474E]
000035F0  2F28 0018                move.l     -[A7], [A0 + 0x18]
000035F4  A8EC                     syscall    CopyBits
000035F6  6020                     bra        +0x22 /* 00003618 */
label000035F8:
000035F8  486D B8FE                pea.l      [A5 - 0x4702]
000035FC  206D B8B2                movea.l    A0, [A5 - 0x474E]
00003600  4868 0002                pea.l      [A0 + 0x2]
00003604  486D B8C6                pea.l      [A5 - 0x473A]
00003608  486D B8C6                pea.l      [A5 - 0x473A]
0000360C  4267                     clr.w      -[A7]
0000360E  206D B8B2                movea.l    A0, [A5 - 0x474E]
00003612  2F28 0018                move.l     -[A7], [A0 + 0x18]
00003616  A8EC                     syscall    CopyBits
label00003618:
00003618  2F2D B8B2                move.l     -[A7], [A5 - 0x474E]
0000361C  A873                     syscall    SetPort
0000361E  A89E                     syscall    PenNormal
00003620  4267                     clr.w      -[A7]
00003622  A887                     syscall    TextFont
00003624  3F3C 000C                move.w     -[A7], 0xC
00003628  A88A                     syscall    TextSize
0000362A  3F3C 0009                move.w     -[A7], 0x9 /* '\t' */
0000362E  A889                     syscall    TextMode
00003630  486D B8CE                pea.l      [A5 - 0x4732]
00003634  A87B                     syscall    ClipRect
00003636  486E FFE2                pea.l      [A6 - 0x1E]
0000363A  302D BB40                move.w     D0, [A5 - 0x44C0]
0000363E  4440                     neg.w      D0
00003640  3F00                     move.w     -[A7], D0
00003642  302D BB42                move.w     D0, [A5 - 0x44BE]
00003646  4440                     neg.w      D0
00003648  3F00                     move.w     -[A7], D0
0000364A  302D BB40                move.w     D0, [A5 - 0x44C0]
0000364E  D040                     add.w      D0, D0
00003650  0640 0200                addi.w     D0, 0x200
00003654  3F00                     move.w     -[A7], D0
00003656  4267                     clr.w      -[A7]
00003658  A8A7                     syscall    SetRect
0000365A  486E FFE2                pea.l      [A6 - 0x1E]
0000365E  486D FFBA                pea.l      [A5 - 0x46]
00003662  A8A5                     syscall    FillRect
00003664  486E FFE2                pea.l      [A6 - 0x1E]
00003668  302D BB40                move.w     D0, [A5 - 0x44C0]
0000366C  4440                     neg.w      D0
0000366E  3F00                     move.w     -[A7], D0
00003670  3F3C 0156                move.w     -[A7], 0x156
00003674  302D BB40                move.w     D0, [A5 - 0x44C0]
00003678  D040                     add.w      D0, D0
0000367A  0640 0200                addi.w     D0, 0x200
0000367E  3F00                     move.w     -[A7], D0
00003680  302D BB42                move.w     D0, [A5 - 0x44BE]
00003684  0640 0156                addi.w     D0, 0x156
00003688  3F00                     move.w     -[A7], D0
0000368A  A8A7                     syscall    SetRect
0000368C  486E FFE2                pea.l      [A6 - 0x1E]
00003690  486D FFBA                pea.l      [A5 - 0x46]
00003694  A8A5                     syscall    FillRect
00003696  486E FFE2                pea.l      [A6 - 0x1E]
0000369A  302D BB40                move.w     D0, [A5 - 0x44C0]
0000369E  4440                     neg.w      D0
000036A0  3F00                     move.w     -[A7], D0
000036A2  4267                     clr.w      -[A7]
000036A4  4267                     clr.w      -[A7]
000036A6  3F3C 0156                move.w     -[A7], 0x156
000036AA  A8A7                     syscall    SetRect
000036AC  486E FFE2                pea.l      [A6 - 0x1E]
000036B0  486D FFBA                pea.l      [A5 - 0x46]
000036B4  A8A5                     syscall    FillRect
000036B6  486E FFE2                pea.l      [A6 - 0x1E]
000036BA  3F3C 0200                move.w     -[A7], 0x200
000036BE  4267                     clr.w      -[A7]
000036C0  302D BB40                move.w     D0, [A5 - 0x44C0]
000036C4  0640 0200                addi.w     D0, 0x200
000036C8  3F00                     move.w     -[A7], D0
000036CA  3F3C 0156                move.w     -[A7], 0x156
000036CE  A8A7                     syscall    SetRect
000036D0  486E FFE2                pea.l      [A6 - 0x1E]
000036D4  486D FFBA                pea.l      [A5 - 0x46]
000036D8  A8A5                     syscall    FillRect
000036DA  486D B8C6                pea.l      [A5 - 0x473A]
000036DE  A87B                     syscall    ClipRect
000036E0  1B7C 0001 FD8F           move.b     [A5 - 0x271], 0x1
000036E6  422D FD90                clr.b      [A5 - 0x270]
000036EA  422D FD86                clr.b      [A5 - 0x27A]
000036EE  422D FD8D                clr.b      [A5 - 0x273]
000036F2  4EBA DDB6                jsr        [PC - 0x224A /* 000014AA */]
000036F6  4EBA C948                jsr        [PC - 0x36B8 /* 00000040 */]
000036FA  A852                     syscall    HideCursor
000036FC  6000 00CE                bra        +0xD0 /* 000037CC */
label00003700:
00003700  594F                     subq.w     A7, 4
00003702  A975                     syscall    TickCount
00003704  2B5F FDBC                move.l     [A5 - 0x244], [A7]+
00003708  3B7C 0002 F77A           move.w     [A5 - 0x886], 0x2
0000370E  302D F8F8                move.w     D0, [A5 - 0x708]
00003712  0A40 0001                xori.w     D0, 0x1
00003716  3B40 F8F8                move.w     [A5 - 0x708], D0
0000371A  4A2D F776                tst.b      [A5 - 0x88A]
0000371E  670E                     beq        +0x10 /* 0000372E */
00003720  4EBA E412                jsr        [PC - 0x1BEE /* 00001B34 */]
00003724  4EBA E4F6                jsr        [PC - 0x1B0A /* 00001C1C */]
00003728  4EBA EB1A                jsr        [PC - 0x14E6 /* 00002244 */]
0000372C  6004                     bra        +0x6 /* 00003732 */
label0000372E:
0000372E  4EBA F242                jsr        [PC - 0xDBE /* 00002972 */]
label00003732:
00003732  4A2D FD8F                tst.b      [A5 - 0x271]
00003736  6720                     beq        +0x22 /* 00003758 */
00003738  4A6D F48C                tst.w      [A5 - 0xB74]
0000373C  6F04                     ble        +0x6 /* 00003742 */
0000373E  4EBA EB98                jsr        [PC - 0x1468 /* 000022D8 */]
label00003742:
00003742  2F2D B8B2                move.l     -[A7], [A5 - 0x474E]
00003746  A873                     syscall    SetPort
00003748  4A2D FD97                tst.b      [A5 - 0x269]
0000374C  6706                     beq        +0x8 /* 00003754 */
0000374E  4EBA F92E                jsr        [PC - 0x6D2 /* 0000307E */]
00003752  6004                     bra        +0x6 /* 00003758 */
label00003754:
00003754  4EBA F502                jsr        [PC - 0xAFE /* 00002C58 */]
label00003758:
00003758  7030                     moveq.l    D0, 0x30
0000375A  3200                     move.w     D1, D0
0000375C  E649                     lsr        D1.w, 3
0000375E  0641 BAF8                addi.w     D1, 0xBAF8
00003762  0135 1000                btst       [A5 + D1.w], D0
00003766  6742                     beq        +0x44 /* 000037AA */
label00003768:
00003768  486D BAF8                pea.l      [A5 - 0x4508]
0000376C  A976                     syscall    GetKeys
0000376E  7030                     moveq.l    D0, 0x30
00003770  3200                     move.w     D1, D0
00003772  E649                     lsr        D1.w, 3
00003774  0641 BAF8                addi.w     D1, 0xBAF8
00003778  0135 1000                btst       [A5 + D1.w], D0
0000377C  66EA                     bne        -0x14 /* 00003768 */
label0000377E:
0000377E  486D BAF8                pea.l      [A5 - 0x4508]
00003782  A976                     syscall    GetKeys
00003784  7030                     moveq.l    D0, 0x30
00003786  3200                     move.w     D1, D0
00003788  E649                     lsr        D1.w, 3
0000378A  0641 BAF8                addi.w     D1, 0xBAF8
0000378E  0135 1000                btst       [A5 + D1.w], D0
00003792  67EA                     beq        -0x14 /* 0000377E */
label00003794:
00003794  486D BAF8                pea.l      [A5 - 0x4508]
00003798  A976                     syscall    GetKeys
0000379A  7030                     moveq.l    D0, 0x30
0000379C  3200                     move.w     D1, D0
0000379E  E649                     lsr        D1.w, 3
000037A0  0641 BAF8                addi.w     D1, 0xBAF8
000037A4  0135 1000                btst       [A5 + D1.w], D0
000037A8  66EA                     bne        -0x14 /* 00003794 */
label000037AA:
000037AA  7037                     moveq.l    D0, 0x37
000037AC  3200                     move.w     D1, D0
000037AE  E649                     lsr        D1.w, 3
000037B0  0641 BAF8                addi.w     D1, 0xBAF8
000037B4  0135 1000                btst       [A5 + D1.w], D0
000037B8  6704                     beq        +0x6 /* 000037BE */
000037BA  422D FD8F                clr.b      [A5 - 0x271]
label000037BE:
000037BE  594F                     subq.w     A7, 4
000037C0  A975                     syscall    TickCount
000037C2  202D FDBC                move.l     D0, [A5 - 0x244]
000037C6  5480                     addq.l     D0, 2
000037C8  B09F                     cmp.l      D0, [A7]+
000037CA  6EF2                     bgt        -0xC /* 000037BE */
label000037CC:
000037CC  102D FD90                move.b     D0, [A5 - 0x270]
000037D0  5300                     subq.b     D0, 1
000037D2  C02D FD8F                and.b      D0, [A5 - 0x271]
000037D6  6600 FF28                bne        -0xD6 /* 00003700 */
000037DA  4A2D FD86                tst.b      [A5 - 0x27A]
000037DE  670A                     beq        +0xC /* 000037EA */
000037E0  422D FD86                clr.b      [A5 - 0x27A]
000037E4  2F2D F8FA                move.l     -[A7], [A5 - 0x706]
000037E8  A8D9                     syscall    DisposRgn/DisposeRgn
label000037EA:
000037EA  422D FD82                clr.b      [A5 - 0x27E]
000037EE  422D FD83                clr.b      [A5 - 0x27D]
000037F2  3F2D F20E                move.w     -[A7], [A5 - 0xDF2]
000037F6  4EAD 017A                jsr        [A5 + 0x17A /* export_43, CODE:2 @ 00000150 */]
000037FA  4EAD 0182                jsr        [A5 + 0x182 /* export_44, CODE:2 @ 00001814 */]
000037FE  2F2D B8B2                move.l     -[A7], [A5 - 0x474E]
00003802  A873                     syscall    SetPort
00003804  A89E                     syscall    PenNormal
00003806  4267                     clr.w      -[A7]
00003808  A887                     syscall    TextFont
0000380A  3F3C 000C                move.w     -[A7], 0xC
0000380E  A88A                     syscall    TextSize
00003810  3F3C 0009                move.w     -[A7], 0x9 /* '\t' */
00003814  A889                     syscall    TextMode
00003816  486D B8CE                pea.l      [A5 - 0x4732]
0000381A  A87B                     syscall    ClipRect
0000381C  486E FFE2                pea.l      [A6 - 0x1E]
00003820  302D BB40                move.w     D0, [A5 - 0x44C0]
00003824  4440                     neg.w      D0
00003826  3F00                     move.w     -[A7], D0
00003828  302D BB42                move.w     D0, [A5 - 0x44BE]
0000382C  4440                     neg.w      D0
0000382E  3F00                     move.w     -[A7], D0
00003830  302D BB40                move.w     D0, [A5 - 0x44C0]
00003834  D040                     add.w      D0, D0
00003836  0640 0200                addi.w     D0, 0x200
0000383A  3F00                     move.w     -[A7], D0
0000383C  4267                     clr.w      -[A7]
0000383E  A8A7                     syscall    SetRect
00003840  486E FFE2                pea.l      [A6 - 0x1E]
00003844  486D FFBA                pea.l      [A5 - 0x46]
00003848  A8A5                     syscall    FillRect
0000384A  486E FFE2                pea.l      [A6 - 0x1E]
0000384E  302D BB40                move.w     D0, [A5 - 0x44C0]
00003852  4440                     neg.w      D0
00003854  3F00                     move.w     -[A7], D0
00003856  3F3C 0156                move.w     -[A7], 0x156
0000385A  302D BB40                move.w     D0, [A5 - 0x44C0]
0000385E  D040                     add.w      D0, D0
00003860  0640 0200                addi.w     D0, 0x200
00003864  3F00                     move.w     -[A7], D0
00003866  302D BB42                move.w     D0, [A5 - 0x44BE]
0000386A  0640 0156                addi.w     D0, 0x156
0000386E  3F00                     move.w     -[A7], D0
00003870  A8A7                     syscall    SetRect
00003872  486E FFE2                pea.l      [A6 - 0x1E]
00003876  486D FFBA                pea.l      [A5 - 0x46]
0000387A  A8A5                     syscall    FillRect
0000387C  486E FFE2                pea.l      [A6 - 0x1E]
00003880  302D BB40                move.w     D0, [A5 - 0x44C0]
00003884  4440                     neg.w      D0
00003886  3F00                     move.w     -[A7], D0
00003888  4267                     clr.w      -[A7]
0000388A  4267                     clr.w      -[A7]
0000388C  3F3C 0156                move.w     -[A7], 0x156
00003890  A8A7                     syscall    SetRect
00003892  486E FFE2                pea.l      [A6 - 0x1E]
00003896  486D FFBA                pea.l      [A5 - 0x46]
0000389A  A8A5                     syscall    FillRect
0000389C  486E FFE2                pea.l      [A6 - 0x1E]
000038A0  3F3C 0200                move.w     -[A7], 0x200
000038A4  4267                     clr.w      -[A7]
000038A6  302D BB40                move.w     D0, [A5 - 0x44C0]
000038AA  0640 0200                addi.w     D0, 0x200
000038AE  3F00                     move.w     -[A7], D0
000038B0  3F3C 0156                move.w     -[A7], 0x156
000038B4  A8A7                     syscall    SetRect
000038B6  486E FFE2                pea.l      [A6 - 0x1E]
000038BA  486D FFBA                pea.l      [A5 - 0x46]
000038BE  A8A5                     syscall    FillRect
000038C0  486D B8C6                pea.l      [A5 - 0x473A]
000038C4  A87B                     syscall    ClipRect
000038C6  3F3C FFFF                move.w     -[A7], 0xFFFF
000038CA  4267                     clr.w      -[A7]
000038CC  201F                     move.l     D0, [A7]+
000038CE  A032                     syscall    FlushEvents
000038D0  A850                     syscall    InitCursor
000038D2  4227                     clr.b      -[A7]
000038D4  4EAD 01E2                jsr        [A5 + 0x1E2 /* export_56, CODE:2 @ 00003D62 */]
000038D8  4E5E                     unlink     A6
000038DA  4E75                     rts
