# near model CODE resource
# jump table entries: 536-554 (19 of them)
export_67:
fn00000000:
00000000  4E56 FFEE                link       A6, -0x0012
00000004  48E7 0108                movem.l    -[A7], D7,A4
00000008  4AAD F488                tst.l      [A5 - 0xB78]
0000000C  6762                     beq        +0x64 /* 00000070 */
0000000E  554F                     subq.w     A7, 2
00000010  2F2D F488                move.l     -[A7], [A5 - 0xB78]
00000014  4EAD 00DA                jsr        [A5 + 0xDA /* export_23, CODE:1 @ 0000053A */]
00000018  1E1F                     move.b     D7, [A7]+
0000001A  2F2D F488                move.l     -[A7], [A5 - 0xB78]
0000001E  4EAD 0052                jsr        [A5 + 0x52 /* export_6, CODE:1 @ 000002A8 */]
00000022  206D F488                movea.l    A0, [A5 - 0xB78]
00000026  2850                     movea.l    A4, [A0]
00000028  70FF                     moveq.l    D0, 0xFFFFFFFF
0000002A  B094                     cmp.l      D0, [A4]
0000002C  6742                     beq        +0x44 /* 00000070 */
0000002E  700C                     moveq.l    D0, 0x0C
00000030  B094                     cmp.l      D0, [A4]
00000032  6E06                     bgt        +0x8 /* 0000003A */
00000034  7001                     moveq.l    D0, 0x01
00000036  2880                     move.l     [A4], D0
00000038  6006                     bra        +0x8 /* 00000040 */
label0000003A:
0000003A  2014                     move.l     D0, [A4]
0000003C  5280                     addq.l     D0, 1
0000003E  2880                     move.l     [A4], D0
label00000040:
00000040  4A2D FD9F                tst.b      [A5 - 0x261]
00000044  6712                     beq        +0x14 /* 00000058 */
00000046  302C 0002                move.w     D0, [A4 + 0x2]
0000004A  E540                     asl        D0.w, 2
0000004C  0640 BB04                addi.w     D0, 0xBB04
00000050  2F35 0000                move.l     -[A7], [A5 + D0.w]
00000054  AA1C                     syscall    SetCCursor
00000056  600E                     bra        +0x10 /* 00000066 */
label00000058:
00000058  302C 0002                move.w     D0, [A4 + 0x2]
0000005C  E540                     asl        D0.w, 2
0000005E  2074 0000                movea.l    A0, [A4 + D0.w]
00000062  2F10                     move.l     -[A7], [A0]
00000064  A851                     syscall    SetCursor
label00000066:
00000066  2F2D F488                move.l     -[A7], [A5 - 0xB78]
0000006A  1F07                     move.b     -[A7], D7
0000006C  4EAD 00E2                jsr        [A5 + 0xE2 /* export_24, CODE:1 @ 00000544 */]
label00000070:
00000070  4CDF 1080                movem.l    D7,A4, [A7]+
00000074  4E5E                     unlink     A6
00000076  4E75                     rts
export_68:
00000078  4E56 FFDA                link       A6, -0x0026
0000007C  2F0C                     move.l     -[A7], A4
0000007E  1D7C 0001 0008           move.b     [A6 + 0x8], 0x1
00000084  554F                     subq.w     A7, 2
00000086  3F3C 0001                move.w     -[A7], 0x1
0000008A  486E FFDE                pea.l      [A6 - 0x22]
0000008E  4EAD 00FA                jsr        [A5 + 0xFA /* export_27, CODE:1 @ 000005F8 */]
00000092  3D5F FFEE                move.w     [A6 - 0x12], [A7]+
00000096  4A2E FFE7                tst.b      [A6 - 0x19]
0000009A  674C                     beq        +0x4E /* 000000E8 */
0000009C  594F                     subq.w     A7, 4
0000009E  AA2A                     syscall    GetMainDevice
000000A0  285F                     movea.l    A4, [A7]+
000000A2  2F0C                     move.l     -[A7], A4
000000A4  4EAD 0052                jsr        [A5 + 0x52 /* export_6, CODE:1 @ 000002A8 */]
000000A8  2054                     movea.l    A0, [A4]
000000AA  2068 0016                movea.l    A0, [A0 + 0x16]
000000AE  2050                     movea.l    A0, [A0]
000000B0  0C68 0004 0020           cmpi.w     [A0 + 0x20], 0x4
000000B6  56C0                     sne        D0
000000B8  C02D FD97                and.b      D0, [A5 - 0x269]
000000BC  6706                     beq        +0x8 /* 000000C4 */
000000BE  422E 0008                clr.b      [A6 + 0x8]
000000C2  601E                     bra        +0x20 /* 000000E2 */
label000000C4:
000000C4  102D FD97                move.b     D0, [A5 - 0x269]
000000C8  5300                     subq.b     D0, 1
000000CA  2054                     movea.l    A0, [A4]
000000CC  2068 0016                movea.l    A0, [A0 + 0x16]
000000D0  2050                     movea.l    A0, [A0]
000000D2  0C68 0001 0020           cmpi.w     [A0 + 0x20], 0x1
000000D8  56C1                     sne        D1
000000DA  C001                     and.b      D0, D1
000000DC  6704                     beq        +0x6 /* 000000E2 */
000000DE  422E 0008                clr.b      [A6 + 0x8]
label000000E2:
000000E2  2F0C                     move.l     -[A7], A4
000000E4  4EAD 005A                jsr        [A5 + 0x5A /* export_7, CODE:1 @ 000002B2 */]
label000000E8:
000000E8  285F                     movea.l    A4, [A7]+
000000EA  4E5E                     unlink     A6
000000EC  4E75                     rts
export_69:
000000EE  4E56 FFEC                link       A6, -0x0014
000000F2  2F07                     move.l     -[A7], D7
000000F4  554F                     subq.w     A7, 2
000000F6  A861                     syscall    Random
000000F8  3E1F                     move.w     D7, [A7]+
000000FA  6A02                     bpl        +0x4 /* 000000FE */
000000FC  4447                     neg.w      D7
label000000FE:
000000FE  48C7                     ext.l      D7
00000100  302E 0008                move.w     D0, [A6 + 0x8]
00000104  48C0                     ext.l      D0
00000106  2F07                     move.l     -[A7], D7
00000108  2F00                     move.l     -[A7], D0
0000010A  4EAD 0152                jsr        [A5 + 0x152 /* export_38, CODE:1 @ 00000970 */]
0000010E  2F3C 0000 8000           move.l     -[A7], 0x8000
00000114  4EAD 014A                jsr        [A5 + 0x14A /* export_37, CODE:1 @ 00000946 */]
00000118  544F                     addq.w     A7, 2
0000011A  3D5F 000A                move.w     [A6 + 0xA], [A7]+
0000011E  2E1F                     move.l     D7, [A7]+
00000120  4E5E                     unlink     A6
00000122  205F                     movea.l    A0, [A7]+
00000124  544F                     addq.w     A7, 2
00000126  4ED0                     jmp        [A0]
export_70:
fn00000128:
00000128  4E56 0000                link       A6, 0
0000012C  302E 0008                move.w     D0, [A6 + 0x8]
00000130  6000 04C4                bra        +0x4C6 /* 000005F6 */
label00000134:
00000134  594F                     subq.w     A7, 4
00000136  3F3C 0082                move.w     -[A7], 0x82
0000013A  A9BF                     syscall    GetRMenu
0000013C  3F3C 0001                move.w     -[A7], 0x1
00000140  487A 0564                pea.l      [PC + 0x564 /* 000006A6, value 0xA437574 '\nCut', pstring "Cut Object" */]
00000144  A947                     syscall    SetMenuItemText/SetItem
00000146  594F                     subq.w     A7, 4
00000148  3F3C 0082                move.w     -[A7], 0x82
0000014C  A9BF                     syscall    GetRMenu
0000014E  3F3C 0002                move.w     -[A7], 0x2
00000152  487A 0546                pea.l      [PC + 0x546 /* 0000069A, value 0xB436F70, pstring "Copy Object" */]
00000156  A947                     syscall    SetMenuItemText/SetItem
00000158  594F                     subq.w     A7, 4
0000015A  3F3C 0082                move.w     -[A7], 0x82
0000015E  A9BF                     syscall    GetRMenu
00000160  3F3C 0003                move.w     -[A7], 0x3
00000164  487A 0526                pea.l      [PC + 0x526 /* 0000068C, value 0xC506173, pstring "Paste Object" */]
00000168  A947                     syscall    SetMenuItemText/SetItem
0000016A  594F                     subq.w     A7, 4
0000016C  3F3C 0082                move.w     -[A7], 0x82
00000170  A9BF                     syscall    GetRMenu
00000172  3F3C 0003                move.w     -[A7], 0x3
00000176  A93A                     syscall    DisableItem
00000178  594F                     subq.w     A7, 4
0000017A  3F3C 0082                move.w     -[A7], 0x82
0000017E  A9BF                     syscall    GetRMenu
00000180  3F3C 0004                move.w     -[A7], 0x4
00000184  487A 04F8                pea.l      [PC + 0x4F8 /* 0000067E, value 0xC436C65, pstring "Clear Object" */]
00000188  A947                     syscall    SetMenuItemText/SetItem
0000018A  422D FD88                clr.b      [A5 - 0x278]
0000018E  4A2D FD95                tst.b      [A5 - 0x26B]
00000192  6712                     beq        +0x14 /* 000001A6 */
00000194  594F                     subq.w     A7, 4
00000196  3F3C 0082                move.w     -[A7], 0x82
0000019A  A9BF                     syscall    GetRMenu
0000019C  3F3C 0003                move.w     -[A7], 0x3
000001A0  A939                     syscall    EnableItem
000001A2  6000 0470                bra        +0x472 /* 00000614 */
label000001A6:
000001A6  4A2D FD94                tst.b      [A5 - 0x26C]
000001AA  6700 0468                beq        +0x46A /* 00000614 */
000001AE  594F                     subq.w     A7, 4
000001B0  3F3C 0082                move.w     -[A7], 0x82
000001B4  A9BF                     syscall    GetRMenu
000001B6  3F3C 0003                move.w     -[A7], 0x3
000001BA  487A 04B6                pea.l      [PC + 0x4B6 /* 00000672, value 0xA506173 '\nPas', pstring "Paste Room" */]
000001BE  A947                     syscall    SetMenuItemText/SetItem
000001C0  594F                     subq.w     A7, 4
000001C2  3F3C 0082                move.w     -[A7], 0x82
000001C6  A9BF                     syscall    GetRMenu
000001C8  3F3C 0003                move.w     -[A7], 0x3
000001CC  A939                     syscall    EnableItem
000001CE  6000 0444                bra        +0x446 /* 00000614 */
label000001D2:
000001D2  594F                     subq.w     A7, 4
000001D4  3F3C 0082                move.w     -[A7], 0x82
000001D8  A9BF                     syscall    GetRMenu
000001DA  3F3C 0001                move.w     -[A7], 0x1
000001DE  487A 0488                pea.l      [PC + 0x488 /* 00000668, value 0x8437574, pstring "Cut Room" */]
000001E2  A947                     syscall    SetMenuItemText/SetItem
000001E4  594F                     subq.w     A7, 4
000001E6  3F3C 0082                move.w     -[A7], 0x82
000001EA  A9BF                     syscall    GetRMenu
000001EC  3F3C 0002                move.w     -[A7], 0x2
000001F0  487A 046C                pea.l      [PC + 0x46C /* 0000065E, value 0x9436F70 '\tCop', pstring "Copy Room" */]
000001F4  A947                     syscall    SetMenuItemText/SetItem
000001F6  594F                     subq.w     A7, 4
000001F8  3F3C 0082                move.w     -[A7], 0x82
000001FC  A9BF                     syscall    GetRMenu
000001FE  3F3C 0003                move.w     -[A7], 0x3
00000202  487A 044E                pea.l      [PC + 0x44E /* 00000652, value 0xA506173 '\nPas', pstring "Paste Room" */]
00000206  A947                     syscall    SetMenuItemText/SetItem
00000208  594F                     subq.w     A7, 4
0000020A  3F3C 0082                move.w     -[A7], 0x82
0000020E  A9BF                     syscall    GetRMenu
00000210  3F3C 0003                move.w     -[A7], 0x3
00000214  A93A                     syscall    DisableItem
00000216  594F                     subq.w     A7, 4
00000218  3F3C 0082                move.w     -[A7], 0x82
0000021C  A9BF                     syscall    GetRMenu
0000021E  3F3C 0004                move.w     -[A7], 0x4
00000222  487A 0422                pea.l      [PC + 0x422 /* 00000646, value 0xA436C65 '\nCle', pstring "Clear Room" */]
00000226  A947                     syscall    SetMenuItemText/SetItem
00000228  1B7C 0001 FD88           move.b     [A5 - 0x278], 0x1
0000022E  4A2D FD94                tst.b      [A5 - 0x26C]
00000232  6712                     beq        +0x14 /* 00000246 */
00000234  594F                     subq.w     A7, 4
00000236  3F3C 0082                move.w     -[A7], 0x82
0000023A  A9BF                     syscall    GetRMenu
0000023C  3F3C 0003                move.w     -[A7], 0x3
00000240  A939                     syscall    EnableItem
00000242  6000 03D0                bra        +0x3D2 /* 00000614 */
label00000246:
00000246  4A2D FD95                tst.b      [A5 - 0x26B]
0000024A  6700 03C8                beq        +0x3CA /* 00000614 */
0000024E  594F                     subq.w     A7, 4
00000250  3F3C 0082                move.w     -[A7], 0x82
00000254  A9BF                     syscall    GetRMenu
00000256  3F3C 0003                move.w     -[A7], 0x3
0000025A  487A 03DC                pea.l      [PC + 0x3DC /* 00000638, value 0xC506173, pstring "Paste Object" */]
0000025E  A947                     syscall    SetMenuItemText/SetItem
00000260  594F                     subq.w     A7, 4
00000262  3F3C 0082                move.w     -[A7], 0x82
00000266  A9BF                     syscall    GetRMenu
00000268  3F3C 0003                move.w     -[A7], 0x3
0000026C  A939                     syscall    EnableItem
0000026E  6000 03A4                bra        +0x3A6 /* 00000614 */
label00000272:
00000272  594F                     subq.w     A7, 4
00000274  3F3C 0081                move.w     -[A7], 0x81
00000278  A9BF                     syscall    GetRMenu
0000027A  3F3C 0001                move.w     -[A7], 0x1
0000027E  A93A                     syscall    DisableItem
00000280  594F                     subq.w     A7, 4
00000282  3F3C 0081                move.w     -[A7], 0x81
00000286  A9BF                     syscall    GetRMenu
00000288  3F3C 0002                move.w     -[A7], 0x2
0000028C  A93A                     syscall    DisableItem
0000028E  594F                     subq.w     A7, 4
00000290  3F3C 0081                move.w     -[A7], 0x81
00000294  A9BF                     syscall    GetRMenu
00000296  3F3C 0004                move.w     -[A7], 0x4
0000029A  A939                     syscall    EnableItem
0000029C  594F                     subq.w     A7, 4
0000029E  3F3C 0081                move.w     -[A7], 0x81
000002A2  A9BF                     syscall    GetRMenu
000002A4  3F3C 0005                move.w     -[A7], 0x5
000002A8  A939                     syscall    EnableItem
000002AA  594F                     subq.w     A7, 4
000002AC  3F3C 0081                move.w     -[A7], 0x81
000002B0  A9BF                     syscall    GetRMenu
000002B2  3F3C 0006                move.w     -[A7], 0x6
000002B6  A939                     syscall    EnableItem
000002B8  594F                     subq.w     A7, 4
000002BA  3F3C 0082                move.w     -[A7], 0x82
000002BE  A9BF                     syscall    GetRMenu
000002C0  3F3C 0001                move.w     -[A7], 0x1
000002C4  A939                     syscall    EnableItem
000002C6  594F                     subq.w     A7, 4
000002C8  3F3C 0082                move.w     -[A7], 0x82
000002CC  A9BF                     syscall    GetRMenu
000002CE  3F3C 0002                move.w     -[A7], 0x2
000002D2  A939                     syscall    EnableItem
000002D4  594F                     subq.w     A7, 4
000002D6  3F3C 0082                move.w     -[A7], 0x82
000002DA  A9BF                     syscall    GetRMenu
000002DC  3F3C 0004                move.w     -[A7], 0x4
000002E0  A939                     syscall    EnableItem
000002E2  4A2D FD94                tst.b      [A5 - 0x26C]
000002E6  6710                     beq        +0x12 /* 000002F8 */
000002E8  594F                     subq.w     A7, 4
000002EA  3F3C 0082                move.w     -[A7], 0x82
000002EE  A9BF                     syscall    GetRMenu
000002F0  3F3C 0003                move.w     -[A7], 0x3
000002F4  A939                     syscall    EnableItem
000002F6  6026                     bra        +0x28 /* 0000031E */
label000002F8:
000002F8  4A2D FD95                tst.b      [A5 - 0x26B]
000002FC  6720                     beq        +0x22 /* 0000031E */
000002FE  594F                     subq.w     A7, 4
00000300  3F3C 0082                move.w     -[A7], 0x82
00000304  A9BF                     syscall    GetRMenu
00000306  3F3C 0003                move.w     -[A7], 0x3
0000030A  487A 031E                pea.l      [PC + 0x31E /* 0000062A, value 0xC506173, pstring "Paste Object" */]
0000030E  A947                     syscall    SetMenuItemText/SetItem
00000310  594F                     subq.w     A7, 4
00000312  3F3C 0082                move.w     -[A7], 0x82
00000316  A9BF                     syscall    GetRMenu
00000318  3F3C 0003                move.w     -[A7], 0x3
0000031C  A939                     syscall    EnableItem
label0000031E:
0000031E  594F                     subq.w     A7, 4
00000320  3F3C 0083                move.w     -[A7], 0x83
00000324  A9BF                     syscall    GetRMenu
00000326  3F3C 0001                move.w     -[A7], 0x1
0000032A  A939                     syscall    EnableItem
0000032C  594F                     subq.w     A7, 4
0000032E  3F3C 0083                move.w     -[A7], 0x83
00000332  A9BF                     syscall    GetRMenu
00000334  3F3C 0005                move.w     -[A7], 0x5
00000338  A939                     syscall    EnableItem
0000033A  594F                     subq.w     A7, 4
0000033C  3F3C 0083                move.w     -[A7], 0x83
00000340  A9BF                     syscall    GetRMenu
00000342  3F3C 0006                move.w     -[A7], 0x6
00000346  A939                     syscall    EnableItem
00000348  594F                     subq.w     A7, 4
0000034A  3F3C 0083                move.w     -[A7], 0x83
0000034E  A9BF                     syscall    GetRMenu
00000350  3F3C 0007                move.w     -[A7], 0x7
00000354  A939                     syscall    EnableItem
00000356  594F                     subq.w     A7, 4
00000358  3F3C 0083                move.w     -[A7], 0x83
0000035C  A9BF                     syscall    GetRMenu
0000035E  3F3C 0009                move.w     -[A7], 0x9 /* '\t' */
00000362  A939                     syscall    EnableItem
00000364  594F                     subq.w     A7, 4
00000366  3F3C 0084                move.w     -[A7], 0x84
0000036A  A9BF                     syscall    GetRMenu
0000036C  3F3C 0001                move.w     -[A7], 0x1
00000370  A939                     syscall    EnableItem
00000372  594F                     subq.w     A7, 4
00000374  3F3C 0084                move.w     -[A7], 0x84
00000378  A9BF                     syscall    GetRMenu
0000037A  3F3C 0004                move.w     -[A7], 0x4
0000037E  A939                     syscall    EnableItem
00000380  594F                     subq.w     A7, 4
00000382  3F3C 0084                move.w     -[A7], 0x84
00000386  A9BF                     syscall    GetRMenu
00000388  3F3C 0005                move.w     -[A7], 0x5
0000038C  A939                     syscall    EnableItem
0000038E  594F                     subq.w     A7, 4
00000390  3F3C 0084                move.w     -[A7], 0x84
00000394  A9BF                     syscall    GetRMenu
00000396  3F3C 0006                move.w     -[A7], 0x6
0000039A  A939                     syscall    EnableItem
0000039C  594F                     subq.w     A7, 4
0000039E  3F3C 0084                move.w     -[A7], 0x84
000003A2  A9BF                     syscall    GetRMenu
000003A4  3F3C 0007                move.w     -[A7], 0x7
000003A8  A93A                     syscall    DisableItem
000003AA  6000 0268                bra        +0x26A /* 00000614 */
label000003AE:
000003AE  594F                     subq.w     A7, 4
000003B0  3F3C 0081                move.w     -[A7], 0x81
000003B4  A9BF                     syscall    GetRMenu
000003B6  3F3C 0001                move.w     -[A7], 0x1
000003BA  A93A                     syscall    DisableItem
000003BC  594F                     subq.w     A7, 4
000003BE  3F3C 0081                move.w     -[A7], 0x81
000003C2  A9BF                     syscall    GetRMenu
000003C4  3F3C 0002                move.w     -[A7], 0x2
000003C8  A93A                     syscall    DisableItem
000003CA  594F                     subq.w     A7, 4
000003CC  3F3C 0081                move.w     -[A7], 0x81
000003D0  A9BF                     syscall    GetRMenu
000003D2  3F3C 0004                move.w     -[A7], 0x4
000003D6  A939                     syscall    EnableItem
000003D8  594F                     subq.w     A7, 4
000003DA  3F3C 0081                move.w     -[A7], 0x81
000003DE  A9BF                     syscall    GetRMenu
000003E0  3F3C 0005                move.w     -[A7], 0x5
000003E4  A93A                     syscall    DisableItem
000003E6  594F                     subq.w     A7, 4
000003E8  3F3C 0081                move.w     -[A7], 0x81
000003EC  A9BF                     syscall    GetRMenu
000003EE  3F3C 0006                move.w     -[A7], 0x6
000003F2  A939                     syscall    EnableItem
000003F4  594F                     subq.w     A7, 4
000003F6  3F3C 0082                move.w     -[A7], 0x82
000003FA  A9BF                     syscall    GetRMenu
000003FC  3F3C 0001                move.w     -[A7], 0x1
00000400  A939                     syscall    EnableItem
00000402  594F                     subq.w     A7, 4
00000404  3F3C 0082                move.w     -[A7], 0x82
00000408  A9BF                     syscall    GetRMenu
0000040A  3F3C 0002                move.w     -[A7], 0x2
0000040E  A939                     syscall    EnableItem
00000410  594F                     subq.w     A7, 4
00000412  3F3C 0082                move.w     -[A7], 0x82
00000416  A9BF                     syscall    GetRMenu
00000418  3F3C 0004                move.w     -[A7], 0x4
0000041C  A939                     syscall    EnableItem
0000041E  4A2D FD94                tst.b      [A5 - 0x26C]
00000422  6710                     beq        +0x12 /* 00000434 */
00000424  594F                     subq.w     A7, 4
00000426  3F3C 0082                move.w     -[A7], 0x82
0000042A  A9BF                     syscall    GetRMenu
0000042C  3F3C 0003                move.w     -[A7], 0x3
00000430  A939                     syscall    EnableItem
00000432  6026                     bra        +0x28 /* 0000045A */
label00000434:
00000434  4A2D FD95                tst.b      [A5 - 0x26B]
00000438  6720                     beq        +0x22 /* 0000045A */
0000043A  594F                     subq.w     A7, 4
0000043C  3F3C 0082                move.w     -[A7], 0x82
00000440  A9BF                     syscall    GetRMenu
00000442  3F3C 0003                move.w     -[A7], 0x3
00000446  487A 01D4                pea.l      [PC + 0x1D4 /* 0000061C, value 0xC506173, pstring "Paste Object" */]
0000044A  A947                     syscall    SetMenuItemText/SetItem
0000044C  594F                     subq.w     A7, 4
0000044E  3F3C 0082                move.w     -[A7], 0x82
00000452  A9BF                     syscall    GetRMenu
00000454  3F3C 0003                move.w     -[A7], 0x3
00000458  A939                     syscall    EnableItem
label0000045A:
0000045A  594F                     subq.w     A7, 4
0000045C  3F3C 0083                move.w     -[A7], 0x83
00000460  A9BF                     syscall    GetRMenu
00000462  3F3C 0001                move.w     -[A7], 0x1
00000466  A939                     syscall    EnableItem
00000468  594F                     subq.w     A7, 4
0000046A  3F3C 0083                move.w     -[A7], 0x83
0000046E  A9BF                     syscall    GetRMenu
00000470  3F3C 0005                move.w     -[A7], 0x5
00000474  A939                     syscall    EnableItem
00000476  594F                     subq.w     A7, 4
00000478  3F3C 0083                move.w     -[A7], 0x83
0000047C  A9BF                     syscall    GetRMenu
0000047E  3F3C 0006                move.w     -[A7], 0x6
00000482  A939                     syscall    EnableItem
00000484  594F                     subq.w     A7, 4
00000486  3F3C 0083                move.w     -[A7], 0x83
0000048A  A9BF                     syscall    GetRMenu
0000048C  3F3C 0007                move.w     -[A7], 0x7
00000490  A939                     syscall    EnableItem
00000492  594F                     subq.w     A7, 4
00000494  3F3C 0083                move.w     -[A7], 0x83
00000498  A9BF                     syscall    GetRMenu
0000049A  3F3C 0009                move.w     -[A7], 0x9 /* '\t' */
0000049E  A939                     syscall    EnableItem
000004A0  594F                     subq.w     A7, 4
000004A2  3F3C 0084                move.w     -[A7], 0x84
000004A6  A9BF                     syscall    GetRMenu
000004A8  3F3C 0001                move.w     -[A7], 0x1
000004AC  A939                     syscall    EnableItem
000004AE  594F                     subq.w     A7, 4
000004B0  3F3C 0084                move.w     -[A7], 0x84
000004B4  A9BF                     syscall    GetRMenu
000004B6  3F3C 0004                move.w     -[A7], 0x4
000004BA  A939                     syscall    EnableItem
000004BC  594F                     subq.w     A7, 4
000004BE  3F3C 0084                move.w     -[A7], 0x84
000004C2  A9BF                     syscall    GetRMenu
000004C4  3F3C 0005                move.w     -[A7], 0x5
000004C8  A939                     syscall    EnableItem
000004CA  594F                     subq.w     A7, 4
000004CC  3F3C 0084                move.w     -[A7], 0x84
000004D0  A9BF                     syscall    GetRMenu
000004D2  3F3C 0006                move.w     -[A7], 0x6
000004D6  A939                     syscall    EnableItem
000004D8  594F                     subq.w     A7, 4
000004DA  3F3C 0084                move.w     -[A7], 0x84
000004DE  A9BF                     syscall    GetRMenu
000004E0  3F3C 0007                move.w     -[A7], 0x7
000004E4  A93A                     syscall    DisableItem
000004E6  6000 012C                bra        +0x12E /* 00000614 */
label000004EA:
000004EA  594F                     subq.w     A7, 4
000004EC  3F3C 0081                move.w     -[A7], 0x81
000004F0  A9BF                     syscall    GetRMenu
000004F2  3F3C 0001                move.w     -[A7], 0x1
000004F6  A939                     syscall    EnableItem
000004F8  594F                     subq.w     A7, 4
000004FA  3F3C 0081                move.w     -[A7], 0x81
000004FE  A9BF                     syscall    GetRMenu
00000500  3F3C 0002                move.w     -[A7], 0x2
00000504  A939                     syscall    EnableItem
00000506  594F                     subq.w     A7, 4
00000508  3F3C 0081                move.w     -[A7], 0x81
0000050C  A9BF                     syscall    GetRMenu
0000050E  3F3C 0004                move.w     -[A7], 0x4
00000512  A93A                     syscall    DisableItem
00000514  594F                     subq.w     A7, 4
00000516  3F3C 0081                move.w     -[A7], 0x81
0000051A  A9BF                     syscall    GetRMenu
0000051C  3F3C 0005                move.w     -[A7], 0x5
00000520  A93A                     syscall    DisableItem
00000522  594F                     subq.w     A7, 4
00000524  3F3C 0081                move.w     -[A7], 0x81
00000528  A9BF                     syscall    GetRMenu
0000052A  3F3C 0006                move.w     -[A7], 0x6
0000052E  A93A                     syscall    DisableItem
00000530  594F                     subq.w     A7, 4
00000532  3F3C 0082                move.w     -[A7], 0x82
00000536  A9BF                     syscall    GetRMenu
00000538  3F3C 0001                move.w     -[A7], 0x1
0000053C  A93A                     syscall    DisableItem
0000053E  594F                     subq.w     A7, 4
00000540  3F3C 0082                move.w     -[A7], 0x82
00000544  A9BF                     syscall    GetRMenu
00000546  3F3C 0002                move.w     -[A7], 0x2
0000054A  A93A                     syscall    DisableItem
0000054C  594F                     subq.w     A7, 4
0000054E  3F3C 0082                move.w     -[A7], 0x82
00000552  A9BF                     syscall    GetRMenu
00000554  3F3C 0003                move.w     -[A7], 0x3
00000558  A93A                     syscall    DisableItem
0000055A  594F                     subq.w     A7, 4
0000055C  3F3C 0082                move.w     -[A7], 0x82
00000560  A9BF                     syscall    GetRMenu
00000562  3F3C 0004                move.w     -[A7], 0x4
00000566  A93A                     syscall    DisableItem
00000568  594F                     subq.w     A7, 4
0000056A  3F3C 0083                move.w     -[A7], 0x83
0000056E  A9BF                     syscall    GetRMenu
00000570  3F3C 0001                move.w     -[A7], 0x1
00000574  A93A                     syscall    DisableItem
00000576  594F                     subq.w     A7, 4
00000578  3F3C 0083                move.w     -[A7], 0x83
0000057C  A9BF                     syscall    GetRMenu
0000057E  3F3C 0005                move.w     -[A7], 0x5
00000582  A93A                     syscall    DisableItem
00000584  594F                     subq.w     A7, 4
00000586  3F3C 0083                move.w     -[A7], 0x83
0000058A  A9BF                     syscall    GetRMenu
0000058C  3F3C 0006                move.w     -[A7], 0x6
00000590  A93A                     syscall    DisableItem
00000592  594F                     subq.w     A7, 4
00000594  3F3C 0083                move.w     -[A7], 0x83
00000598  A9BF                     syscall    GetRMenu
0000059A  3F3C 0007                move.w     -[A7], 0x7
0000059E  A93A                     syscall    DisableItem
000005A0  594F                     subq.w     A7, 4
000005A2  3F3C 0083                move.w     -[A7], 0x83
000005A6  A9BF                     syscall    GetRMenu
000005A8  3F3C 0009                move.w     -[A7], 0x9 /* '\t' */
000005AC  A93A                     syscall    DisableItem
000005AE  594F                     subq.w     A7, 4
000005B0  3F3C 0084                move.w     -[A7], 0x84
000005B4  A9BF                     syscall    GetRMenu
000005B6  3F3C 0001                move.w     -[A7], 0x1
000005BA  A93A                     syscall    DisableItem
000005BC  594F                     subq.w     A7, 4
000005BE  3F3C 0084                move.w     -[A7], 0x84
000005C2  A9BF                     syscall    GetRMenu
000005C4  3F3C 0004                move.w     -[A7], 0x4
000005C8  A93A                     syscall    DisableItem
000005CA  594F                     subq.w     A7, 4
000005CC  3F3C 0084                move.w     -[A7], 0x84
000005D0  A9BF                     syscall    GetRMenu
000005D2  3F3C 0005                move.w     -[A7], 0x5
000005D6  A93A                     syscall    DisableItem
000005D8  594F                     subq.w     A7, 4
000005DA  3F3C 0084                move.w     -[A7], 0x84
000005DE  A9BF                     syscall    GetRMenu
000005E0  3F3C 0006                move.w     -[A7], 0x6
000005E4  A93A                     syscall    DisableItem
000005E6  594F                     subq.w     A7, 4
000005E8  3F3C 0084                move.w     -[A7], 0x84
000005EC  A9BF                     syscall    GetRMenu
000005EE  3F3C 0007                move.w     -[A7], 0x7
000005F2  A93A                     syscall    DisableItem
000005F4  601E                     bra        +0x20 /* 00000614 */
label000005F6:
000005F6  5340                     subq.w     D0, 1
000005F8  6700 FB3A                beq        -0x4C4 /* 00000134 */
000005FC  5340                     subq.w     D0, 1
000005FE  6700 FBD2                beq        -0x42C /* 000001D2 */
00000602  5340                     subq.w     D0, 1
00000604  6700 FC6C                beq        -0x392 /* 00000272 */
00000608  5340                     subq.w     D0, 1
0000060A  6700 FDA2                beq        -0x25C /* 000003AE */
0000060E  5340                     subq.w     D0, 1
00000610  6700 FED8                beq        -0x126 /* 000004EA */
label00000614:
00000614  4E5E                     unlink     A6
00000616  205F                     movea.l    A0, [A7]+
00000618  544F                     addq.w     A7, 2
0000061A  4ED0                     jmp        [A0]
0000061C  0C50 6173                cmpi.w     [A0], 0x6173 /* 'as' */
00000620  7465                     moveq.l    D2, 0x65
00000622  204F                     movea.l    A0, A7
00000624  626A                     bhi        +0x6C /* 00000690 */
00000626  6563                     bcs        +0x65 /* 0000068B */
00000628  7416                     moveq.l    D2, 0x16
0000062A  0C50 6173                cmpi.w     [A0], 0x6173 /* 'as' */
0000062E  7465                     moveq.l    D2, 0x65
00000630  204F                     movea.l    A0, A7
00000632  626A                     bhi        +0x6C /* 0000069E */
00000634  6563                     bcs        +0x65 /* 00000699 */
00000636  7416                     moveq.l    D2, 0x16
00000638  0C50 6173                cmpi.w     [A0], 0x6173 /* 'as' */
0000063C  7465                     moveq.l    D2, 0x65
0000063E  204F                     movea.l    A0, A7
00000640  626A                     bhi        +0x6C /* 000006AC */
00000642  6563                     bcs        +0x65 /* 000006A7 */
00000644  7416                     moveq.l    D2, 0x16
00000646  0A43 6C65                xori.w     D3, 0x6C65 /* 'le' */
0000064A  6172                     bsr        +0x74 /* 000006BE */
0000064C  2052                     movea.l    A0, [A2]
0000064E  6F6F                     ble        +0x71 /* 000006BF */
00000650  6D16                     blt        +0x18 /* 00000668 */
00000652  0A50 6173                xori.w     [A0], 0x6173 /* 'as' */
00000656  7465                     moveq.l    D2, 0x65
00000658  2052                     movea.l    A0, [A2]
0000065A  6F6F                     ble        +0x71 /* 000006CB */
0000065C  6D16                     blt        +0x18 /* 00000674 */
0000065E  0943                     bchg       D3, D4
00000660  6F70                     ble        +0x72 /* 000006D2 */
00000662  7920                     moveq.l    D4, 0x20
00000664  526F 6F6D                addq.w     [A7 + 0x6F6D], 1
label00000668:
00000668  0843 7574                bchg.b     D3, 0x74 /* 't' */
0000066C  2052                     movea.l    A0, [A2]
0000066E  6F6F                     ble        +0x71 /* 000006DF */
00000670  6D16                     blt        +0x18 /* 00000688 */
00000672  0A50 6173                xori.w     [A0], 0x6173 /* 'as' */
// begin alternate branch 00000674-00000676
label00000674:
00000674  6173                     bsr        +0x75 /* 000006E9 */
// end alternate branch 00000674-00000676
label00000674: // (misaligned)
00000676  7465                     moveq.l    D2, 0x65
00000678  2052                     movea.l    A0, [A2]
0000067A  6F6F                     ble        +0x71 /* 000006EB */
0000067C  6D16                     blt        +0x18 /* 00000694 */
0000067E  0C43 6C65                cmpi.w     D3, 0x6C65 /* 'le' */
00000682  6172                     bsr        +0x74 /* 000006F6 */
00000684  204F                     movea.l    A0, A7
00000686  626A                     bhi        +0x6C /* 000006F2 */
label00000688:
00000688  6563                     bcs        +0x65 /* 000006ED */
0000068A  7416                     moveq.l    D2, 0x16
0000068C  0C50 6173                cmpi.w     [A0], 0x6173 /* 'as' */
label00000690:
00000690  7465                     moveq.l    D2, 0x65
00000692  204F                     movea.l    A0, A7
label00000694:
00000694  626A                     bhi        +0x6C /* 00000700 */
00000696  6563                     bcs        +0x65 /* 000006FB */
00000698  7416                     moveq.l    D2, 0x16
0000069A  0B43                     bchg       D3, D5
0000069C  6F70                     ble        +0x72 /* 0000070E */
label0000069E:
0000069E  7920                     moveq.l    D4, 0x20
000006A0  4F62                     chk.w      D7, -[A2]
000006A2  6A65                     bpl        +0x67 /* 00000709 */
000006A4  6374                     bls        +0x76 /* 0000071A */
000006A6  0A43 7574                xori.w     D3, 0x7574 /* 'ut' */
000006AA  204F                     movea.l    A0, A7
label000006AC:
000006AC  626A                     bhi        +0x6C /* 00000718 */
000006AE  6563                     bcs        +0x65 /* 00000713 */
000006B0  7416                     moveq.l    D2, 0x16
export_71:
000006B2  4E56 FFE0                link       A6, -0x0020
000006B6  2F0C                     move.l     -[A7], A4
000006B8  4A6D BB3E                tst.w      [A5 - 0x44C2]
000006BC  6612                     bne        +0x14 /* 000006D0 */
fn000006BE:
000006BE  594F                     subq.w     A7, 4
000006C0  3F3C 0084                move.w     -[A7], 0x84
000006C4  A9BF                     syscall    GetRMenu
000006C6  3F3C 0007                move.w     -[A7], 0x7
000006CA  A93A                     syscall    DisableItem
000006CC  6000 027A                bra        +0x27C /* 00000948 */
label000006D0:
000006D0  594F                     subq.w     A7, 4
label000006D2:
000006D2  3F3C 0084                move.w     -[A7], 0x84
000006D6  A9BF                     syscall    GetRMenu
000006D8  3F3C 0007                move.w     -[A7], 0x7
000006DC  A939                     syscall    EnableItem
000006DE  2F2D B8B2                move.l     -[A7], [A5 - 0x474E]
000006E2  A873                     syscall    SetPort
000006E4  486D B8C6                pea.l      [A5 - 0x473A]
000006E8  A87B                     syscall    ClipRect
000006EA  A89E                     syscall    PenNormal
000006EC  3F3C 000A                move.w     -[A7], 0xA /* '\n' */
000006F0  A89C                     syscall    PenMode
label000006F2:
000006F2  486D BAF0                pea.l      [A5 - 0x4510]
fn000006F6:
000006F6  A89D                     syscall    PenPat
000006F8  302D BB3E                move.w     D0, [A5 - 0x44C2]
000006FC  E940                     asl        D0.w, 4
000006FE  0640 F21E                addi.w     D0, 0xF21E
// begin alternate branch 00000700-00000708
label00000700:
00000700  F21E 4875                .invalid   fp0, (extended) [A6]+
00000704  0000 A8A1                ori.b      D0, 0xA1
// end alternate branch 00000700-00000708
label00000700: // (misaligned)
00000702  4875 0000                pea.l      [A5 + D0.w]
00000706  A8A1                     syscall    FrameRect
00000708  426D BB38                clr.w      [A5 - 0x44C8]
0000070C  1B7C 0001 FD89           move.b     [A5 - 0x277], 0x1
// begin alternate branch 0000070E-00000712
label0000070E:
0000070E  0001 FD89                ori.b      D1, 0x89
// end alternate branch 0000070E-00000712
label0000070E: // (misaligned)
00000712  302D BB3E                move.w     D0, [A5 - 0x44C2]
00000716  E940                     asl        D0.w, 4
label00000718:
00000718  0640 F21C                addi.w     D0, 0xF21C
// begin alternate branch 0000071A-00000722
label0000071A:
0000071A  F21C 49F5                .invalid   fp3, (extended) [A4]+
0000071E  0000 3014                ori.b      D0, 0x14
// end alternate branch 0000071A-00000722
label0000071A: // (misaligned)
0000071C  49F5 0000                lea.l      A4, [A5 + D0.w]
00000720  3014                     move.w     D0, [A4]
00000722  6000 0156                bra        +0x158 /* 0000087A */
00000726  486D BBDC                pea.l      [A5 - 0x4424]
0000072A  3F2C 0008                move.w     -[A7], [A4 + 0x8]
0000072E  302C 0002                move.w     D0, [A4 + 0x2]
00000732  D06C 0006                add.w      D0, [A4 + 0x6]
00000736  48C0                     ext.l      D0
00000738  81FC 0002                divs.w     D0, 0x2
0000073C  3F00                     move.w     -[A7], D0
0000073E  A880                     syscall    SetPt
00000740  486D BBE0                pea.l      [A5 - 0x4420]
00000744  302C 0008                move.w     D0, [A4 + 0x8]
00000748  5840                     addq.w     D0, 4
0000074A  3F00                     move.w     -[A7], D0
0000074C  302C 0002                move.w     D0, [A4 + 0x2]
00000750  D06C 0006                add.w      D0, [A4 + 0x6]
00000754  48C0                     ext.l      D0
00000756  81FC 0002                divs.w     D0, 0x2
0000075A  3F00                     move.w     -[A7], D0
0000075C  A880                     syscall    SetPt
0000075E  6000 019A                bra        +0x19C /* 000008FA */
00000762  486D BBDC                pea.l      [A5 - 0x4424]
00000766  3F2C 0008                move.w     -[A7], [A4 + 0x8]
0000076A  3F2C 0006                move.w     -[A7], [A4 + 0x6]
0000076E  A880                     syscall    SetPt
00000770  486D BBE0                pea.l      [A5 - 0x4420]
00000774  302C 0008                move.w     D0, [A4 + 0x8]
00000778  5840                     addq.w     D0, 4
0000077A  3F00                     move.w     -[A7], D0
0000077C  302C 0006                move.w     D0, [A4 + 0x6]
00000780  5840                     addq.w     D0, 4
00000782  3F00                     move.w     -[A7], D0
00000784  A880                     syscall    SetPt
00000786  6000 0172                bra        +0x174 /* 000008FA */
0000078A  486D BBDC                pea.l      [A5 - 0x4424]
0000078E  302C 0004                move.w     D0, [A4 + 0x4]
00000792  D06C 0008                add.w      D0, [A4 + 0x8]
00000796  48C0                     ext.l      D0
00000798  81FC 0002                divs.w     D0, 0x2
0000079C  3F00                     move.w     -[A7], D0
0000079E  302C 0002                move.w     D0, [A4 + 0x2]
000007A2  5340                     subq.w     D0, 1
000007A4  3F00                     move.w     -[A7], D0
000007A6  A880                     syscall    SetPt
000007A8  486D BBE0                pea.l      [A5 - 0x4420]
000007AC  302C 0004                move.w     D0, [A4 + 0x4]
000007B0  D06C 0008                add.w      D0, [A4 + 0x8]
000007B4  48C0                     ext.l      D0
000007B6  81FC 0002                divs.w     D0, 0x2
000007BA  3F00                     move.w     -[A7], D0
000007BC  3F2C 000A                move.w     -[A7], [A4 + 0xA]
000007C0  A880                     syscall    SetPt
000007C2  6000 0136                bra        +0x138 /* 000008FA */
000007C6  486D BBDC                pea.l      [A5 - 0x4424]
000007CA  302C 0004                move.w     D0, [A4 + 0x4]
000007CE  D06C 0008                add.w      D0, [A4 + 0x8]
000007D2  48C0                     ext.l      D0
000007D4  81FC 0002                divs.w     D0, 0x2
000007D8  3F00                     move.w     -[A7], D0
000007DA  302C 0006                move.w     D0, [A4 + 0x6]
000007DE  5240                     addq.w     D0, 1
000007E0  3F00                     move.w     -[A7], D0
000007E2  A880                     syscall    SetPt
000007E4  486D BBE0                pea.l      [A5 - 0x4420]
000007E8  302C 0004                move.w     D0, [A4 + 0x4]
000007EC  D06C 0008                add.w      D0, [A4 + 0x8]
000007F0  48C0                     ext.l      D0
000007F2  81FC 0002                divs.w     D0, 0x2
000007F6  3F00                     move.w     -[A7], D0
000007F8  3F2C 000A                move.w     -[A7], [A4 + 0xA]
000007FC  A880                     syscall    SetPt
000007FE  6000 00FA                bra        +0xFC /* 000008FA */
00000802  486D BBDC                pea.l      [A5 - 0x4424]
00000806  302C 0004                move.w     D0, [A4 + 0x4]
0000080A  5340                     subq.w     D0, 1
0000080C  3F00                     move.w     -[A7], D0
0000080E  302C 0002                move.w     D0, [A4 + 0x2]
00000812  D06C 0006                add.w      D0, [A4 + 0x6]
00000816  48C0                     ext.l      D0
00000818  81FC 0002                divs.w     D0, 0x2
0000081C  3F00                     move.w     -[A7], D0
0000081E  A880                     syscall    SetPt
00000820  486D BBE0                pea.l      [A5 - 0x4420]
00000824  3F2C 000A                move.w     -[A7], [A4 + 0xA]
00000828  302C 0002                move.w     D0, [A4 + 0x2]
0000082C  D06C 0006                add.w      D0, [A4 + 0x6]
00000830  48C0                     ext.l      D0
00000832  81FC 0002                divs.w     D0, 0x2
00000836  3F00                     move.w     -[A7], D0
00000838  A880                     syscall    SetPt
0000083A  6000 00BE                bra        +0xC0 /* 000008FA */
0000083E  486D BBDC                pea.l      [A5 - 0x4424]
00000842  302C 0008                move.w     D0, [A4 + 0x8]
00000846  5240                     addq.w     D0, 1
00000848  3F00                     move.w     -[A7], D0
0000084A  302C 0002                move.w     D0, [A4 + 0x2]
0000084E  D06C 0006                add.w      D0, [A4 + 0x6]
00000852  48C0                     ext.l      D0
00000854  81FC 0002                divs.w     D0, 0x2
00000858  3F00                     move.w     -[A7], D0
0000085A  A880                     syscall    SetPt
0000085C  486D BBE0                pea.l      [A5 - 0x4420]
00000860  3F2C 000A                move.w     -[A7], [A4 + 0xA]
00000864  302C 0002                move.w     D0, [A4 + 0x2]
00000868  D06C 0006                add.w      D0, [A4 + 0x6]
0000086C  48C0                     ext.l      D0
0000086E  81FC 0002                divs.w     D0, 0x2
00000872  3F00                     move.w     -[A7], D0
00000874  A880                     syscall    SetPt
00000876  6000 0082                bra        +0x84 /* 000008FA */
label0000087A:
0000087A  5340                     subq.w     D0, 1
0000087C  0C40 0029                cmpi.w     D0, 0x29 /* ')' */
00000880  645C                     bcc        +0x5E /* 000008DE */
00000882  D040                     add.w      D0, D0
00000884  303B 0006                move.w     D0, [PC + D0.w + 0x6]
00000888  4EFB 0002                jmp        [PC + D0.w + 0x2]
0000088C  FE9A FE9A                .extension 0xE9A <<F/2-3/7>> // unimplemented
00000890  0052 FED6                ori.w      [A2], 0xFED6
00000894  FED6 FED6                .extension 0xED6 <<F/2-3/7>> // unimplemented
00000898  0052 FEFE                ori.w      [A2], 0xFEFE
0000089C  FF3A                     .extension 0xF3A <<F/4-5/7>> // unimplemented
0000089E  FF3A                     .extension 0xF3A <<F/4-5/7>> // unimplemented
000008A0  FEFE FF76                .extension 0xEFE <<F/2-3/7>> // unimplemented
000008A4  FFB2                     .invalid   <<F/6/7>>
000008A6  0052 0052                ori.w      [A2], 0x52 /* 'R' */
000008AA  0052 0052                ori.w      [A2], 0x52 /* 'R' */
000008AE  FFB2                     .invalid   <<F/6/7>>
000008B0  FED6 0052                .extension 0xED6 <<F/2-3/7>> // unimplemented
000008B4  0052 0052                ori.w      [A2], 0x52 /* 'R' */
000008B8  0052 0052                ori.w      [A2], 0x52 /* 'R' */
000008BC  0052 0052                ori.w      [A2], 0x52 /* 'R' */
000008C0  0052 0052                ori.w      [A2], 0x52 /* 'R' */
000008C4  0052 0052                ori.w      [A2], 0x52 /* 'R' */
000008C8  0052 FF3A                ori.w      [A2], 0xFF3A
000008CC  FEFE FEFE                .extension 0xEFE <<F/2-3/7>> // unimplemented
000008D0  FEFE 0052                .extension 0xEFE <<F/2-3/7>> // unimplemented
000008D4  FED6 0052                .extension 0xED6 <<F/2-3/7>> // unimplemented
000008D8  0052 0052                ori.w      [A2], 0x52 /* 'R' */
000008DC  FED6 486D                .extension 0xED6 <<F/2-3/7>> // unimplemented
// begin alternate branch 000008DE-000008E2
label000008DE:
000008DE  486D BBDC                pea.l      [A5 - 0x4424]
// end alternate branch 000008DE-000008E2
label000008DE: // (misaligned)
000008E0  BBDC                     cmpa.l     A5, [A4]+
000008E2  3F3C FE0C                move.w     -[A7], 0xFE0C
000008E6  3F3C FE0C                move.w     -[A7], 0xFE0C
000008EA  A880                     syscall    SetPt
000008EC  486D BBE0                pea.l      [A5 - 0x4420]
000008F0  3F3C FE0D                move.w     -[A7], 0xFE0D
000008F4  3F3C FE0D                move.w     -[A7], 0xFE0D
000008F8  A880                     syscall    SetPt
label000008FA:
000008FA  486D BBE4                pea.l      [A5 - 0x441C]
000008FE  302D BBE2                move.w     D0, [A5 - 0x441E]
00000902  5740                     subq.w     D0, 3
00000904  3F00                     move.w     -[A7], D0
00000906  302D BBE0                move.w     D0, [A5 - 0x4420]
0000090A  5740                     subq.w     D0, 3
0000090C  3F00                     move.w     -[A7], D0
0000090E  302D BBE2                move.w     D0, [A5 - 0x441E]
00000912  5640                     addq.w     D0, 3
00000914  3F00                     move.w     -[A7], D0
00000916  302D BBE0                move.w     D0, [A5 - 0x4420]
0000091A  5640                     addq.w     D0, 3
0000091C  3F00                     move.w     -[A7], D0
0000091E  A8A7                     syscall    SetRect
00000920  3F2D BBDE                move.w     -[A7], [A5 - 0x4422]
00000924  3F2D BBDC                move.w     -[A7], [A5 - 0x4424]
00000928  A893                     syscall    MoveTo
0000092A  3F2D BBE2                move.w     -[A7], [A5 - 0x441E]
0000092E  3F2D BBE0                move.w     -[A7], [A5 - 0x4420]
00000932  A891                     syscall    LineTo
00000934  486D BBE4                pea.l      [A5 - 0x441C]
00000938  A8A2                     syscall    PaintRect
0000093A  A89E                     syscall    PenNormal
0000093C  4AAD B8B6                tst.l      [A5 - 0x474A]
00000940  6706                     beq        +0x8 /* 00000948 */
00000942  2F2D B8B6                move.l     -[A7], [A5 - 0x474A]
00000946  A873                     syscall    SetPort
label00000948:
00000948  285F                     movea.l    A4, [A7]+
0000094A  4E5E                     unlink     A6
0000094C  4E75                     rts
export_72:
fn0000094E:
0000094E  4E56 FFE0                link       A6, -0x0020
00000952  594F                     subq.w     A7, 4
00000954  3F3C 0084                move.w     -[A7], 0x84
00000958  A9BF                     syscall    GetRMenu
0000095A  3F3C 0007                move.w     -[A7], 0x7
0000095E  A93A                     syscall    DisableItem
00000960  4A6D BB3E                tst.w      [A5 - 0x44C2]
00000964  6768                     beq        +0x6A /* 000009CE */
label00000966:
00000966  4EBA 006A                jsr        [PC + 0x6A /* 000009D2 */]
0000096A  4A6D BB38                tst.w      [A5 - 0x44C8]
0000096E  66F6                     bne        -0x8 /* 00000966 */
00000970  2F2D B8B2                move.l     -[A7], [A5 - 0x474E]
00000974  A873                     syscall    SetPort
00000976  3F3C 000A                move.w     -[A7], 0xA /* '\n' */
0000097A  A89C                     syscall    PenMode
0000097C  486D BAF0                pea.l      [A5 - 0x4510]
00000980  A89D                     syscall    PenPat
00000982  302D BB3E                move.w     D0, [A5 - 0x44C2]
00000986  E940                     asl        D0.w, 4
00000988  0640 F21E                addi.w     D0, 0xF21E
0000098C  4875 0000                pea.l      [A5 + D0.w]
00000990  A8A1                     syscall    FrameRect
00000992  3F2D BBDE                move.w     -[A7], [A5 - 0x4422]
00000996  3F2D BBDC                move.w     -[A7], [A5 - 0x4424]
0000099A  A893                     syscall    MoveTo
0000099C  3F2D BBE2                move.w     -[A7], [A5 - 0x441E]
000009A0  3F2D BBE0                move.w     -[A7], [A5 - 0x4420]
000009A4  A891                     syscall    LineTo
000009A6  486D BBE4                pea.l      [A5 - 0x441C]
000009AA  A8A2                     syscall    PaintRect
000009AC  A89E                     syscall    PenNormal
000009AE  426D BB3E                clr.w      [A5 - 0x44C2]
000009B2  41ED B8D6                lea.l      A0, [A5 - 0x472A]
000009B6  43ED BBE4                lea.l      A1, [A5 - 0x441C]
000009BA  22D8                     move.l     [A1]+, [A0]+
000009BC  22D8                     move.l     [A1]+, [A0]+
000009BE  4AAD B8B6                tst.l      [A5 - 0x474A]
000009C2  6706                     beq        +0x8 /* 000009CA */
000009C4  2F2D B8B6                move.l     -[A7], [A5 - 0x474A]
000009C8  A873                     syscall    SetPort
label000009CA:
000009CA  422D FD89                clr.b      [A5 - 0x277]
label000009CE:
000009CE  4E5E                     unlink     A6
000009D0  4E75                     rts
export_73:
fn000009D2:
000009D2  4E56 FFDC                link       A6, -0x0024
000009D6  7002                     moveq.l    D0, 0x02
000009D8  2F00                     move.l     -[A7], D0
000009DA  486E FFEC                pea.l      [A6 - 0x14]
000009DE  4EAD 008A                jsr        [A5 + 0x8A /* export_13, CODE:1 @ 00000308 */]
000009E2  2F2D B8B2                move.l     -[A7], [A5 - 0x474E]
000009E6  A873                     syscall    SetPort
000009E8  A89E                     syscall    PenNormal
000009EA  3F3C 000A                move.w     -[A7], 0xA /* '\n' */
000009EE  A89C                     syscall    PenMode
000009F0  302D BB38                move.w     D0, [A5 - 0x44C8]
000009F4  E740                     asl        D0.w, 3
000009F6  0640 BAD0                addi.w     D0, 0xBAD0
000009FA  4875 0000                pea.l      [A5 + D0.w]
000009FE  A89D                     syscall    PenPat
00000A00  302D BB3E                move.w     D0, [A5 - 0x44C2]
00000A04  E940                     asl        D0.w, 4
00000A06  0640 F21E                addi.w     D0, 0xF21E
00000A0A  4875 0000                pea.l      [A5 + D0.w]
00000A0E  A8A1                     syscall    FrameRect
00000A10  3F2D BBDE                move.w     -[A7], [A5 - 0x4422]
00000A14  3F2D BBDC                move.w     -[A7], [A5 - 0x4424]
00000A18  A893                     syscall    MoveTo
00000A1A  3F2D BBE2                move.w     -[A7], [A5 - 0x441E]
00000A1E  3F2D BBE0                move.w     -[A7], [A5 - 0x4420]
00000A22  A891                     syscall    LineTo
00000A24  486D BBE4                pea.l      [A5 - 0x441C]
00000A28  A8A2                     syscall    PaintRect
00000A2A  302D BB38                move.w     D0, [A5 - 0x44C8]
00000A2E  5240                     addq.w     D0, 1
00000A30  3B40 BB38                move.w     [A5 - 0x44C8], D0
00000A34  0C6D 0003 BB38           cmpi.w     [A5 - 0x44C8], 0x3
00000A3A  6F04                     ble        +0x6 /* 00000A40 */
00000A3C  426D BB38                clr.w      [A5 - 0x44C8]
label00000A40:
00000A40  4AAD B8B6                tst.l      [A5 - 0x474A]
00000A44  6706                     beq        +0x8 /* 00000A4C */
00000A46  2F2D B8B6                move.l     -[A7], [A5 - 0x474A]
00000A4A  A873                     syscall    SetPort
label00000A4C:
00000A4C  4E5E                     unlink     A6
00000A4E  4E75                     rts
export_74:
fn00000A50:
00000A50  4E56 FCE2                link       A6, -0x031E
00000A54  48E7 0308                movem.l    -[A7], D6,D7,A4
00000A58  3C2E 0008                move.w     D6, [A6 + 0x8]
00000A5C  3F2D BB4C                move.w     -[A7], [A5 - 0x44B4]
00000A60  A998                     syscall    UseResFile
00000A62  A850                     syscall    InitCursor
00000A64  4A46                     tst.w      D6
00000A66  6F14                     ble        +0x16 /* 00000A7C */
00000A68  486E FEEE                pea.l      [A6 - 0x112]
00000A6C  3F3C 0080                move.w     -[A7], 0x80
00000A70  3F06                     move.w     -[A7], D6
00000A72  4EAD 00EA                jsr        [A5 + 0xEA /* export_25, CODE:1 @ 00000576 */]
00000A76  422E FDEE                clr.b      [A6 - 0x212]
00000A7A  6044                     bra        +0x46 /* 00000AC0 */
label00000A7C:
00000A7C  486E FEEE                pea.l      [A6 - 0x112]
00000A80  3F3C 0080                move.w     -[A7], 0x80
00000A84  3F3C 0001                move.w     -[A7], 0x1
00000A88  4EAD 00EA                jsr        [A5 + 0xEA /* export_25, CODE:1 @ 00000576 */]
00000A8C  3006                     move.w     D0, D6
00000A8E  48C0                     ext.l      D0
00000A90  2F00                     move.l     -[A7], D0
00000A92  486E FDEE                pea.l      [A6 - 0x212]
00000A96  4EAD 0122                jsr        [A5 + 0x122 /* export_32, CODE:1 @ 0000079C */]
00000A9A  486E FCE2                pea.l      [A6 - 0x31E]
00000A9E  487A 00C8                pea.l      [PC + 0xC8 /* 00000B68, value 0x8457272, pstring "Error = " */]
00000AA2  486E FDEE                pea.l      [A6 - 0x212]
00000AA6  3F3C 0002                move.w     -[A7], 0x2
00000AAA  4EAD 0132                jsr        [A5 + 0x132 /* export_34, CODE:1 @ 000007AE */]
00000AAE  584F                     addq.w     A7, 4
00000AB0  3F3C 00FF                move.w     -[A7], 0xFF
00000AB4  486E FCE2                pea.l      [A6 - 0x31E]
00000AB8  486E FDEE                pea.l      [A6 - 0x212]
00000ABC  4EAD 015A                jsr        [A5 + 0x15A /* export_39, CODE:1 @ 00000A28 */]
label00000AC0:
00000AC0  486E FEEE                pea.l      [A6 - 0x112]
00000AC4  486E FDEE                pea.l      [A6 - 0x212]
00000AC8  487A 009C                pea.l      [PC + 0x9C /* 00000B66, value 0x120845, cstring "" */]
00000ACC  487A 0096                pea.l      [PC + 0x96 /* 00000B64, value 0x160012, cstring "" */]
00000AD0  A98B                     syscall    ParamText
00000AD2  594F                     subq.w     A7, 4
00000AD4  2F3C 414C 5254           move.l     -[A7], 0x414C5254 /* 'ALRT' */
00000ADA  3F3C 0080                move.w     -[A7], 0x80
00000ADE  A81F                     syscall    Get1Resource
00000AE0  285F                     movea.l    A4, [A7]+
00000AE2  200C                     move.l     D0, A4
00000AE4  6766                     beq        +0x68 /* 00000B4C */
00000AE6  2F0C                     move.l     -[A7], A4
00000AE8  4EAD 006A                jsr        [A5 + 0x6A /* export_9, CODE:1 @ 000002C6 */]
00000AEC  2054                     movea.l    A0, [A4]
00000AEE  43EE FDE2                lea.l      A1, [A6 - 0x21E]
00000AF2  22D8                     move.l     [A1]+, [A0]+
00000AF4  22D8                     move.l     [A1]+, [A0]+
00000AF6  486E FDE2                pea.l      [A6 - 0x21E]
00000AFA  302E FDE4                move.w     D0, [A6 - 0x21C]
00000AFE  4440                     neg.w      D0
00000B00  3F00                     move.w     -[A7], D0
00000B02  302E FDE2                move.w     D0, [A6 - 0x21E]
00000B06  4440                     neg.w      D0
00000B08  3F00                     move.w     -[A7], D0
00000B0A  A8A8                     syscall    OffsetRect
00000B0C  3E2D FF5C                move.w     D7, [A5 - 0xA4]
00000B10  9E6E FDE8                sub.w      D7, [A6 - 0x218]
00000B14  48C7                     ext.l      D7
00000B16  8FFC 0002                divs.w     D7, 0x2
00000B1A  486E FDE2                pea.l      [A6 - 0x21E]
00000B1E  3F07                     move.w     -[A7], D7
00000B20  4267                     clr.w      -[A7]
00000B22  A8A8                     syscall    OffsetRect
00000B24  3E2D FF5A                move.w     D7, [A5 - 0xA6]
00000B28  9E6E FDE6                sub.w      D7, [A6 - 0x21A]
00000B2C  48C7                     ext.l      D7
00000B2E  8FFC 0003                divs.w     D7, 0x3
00000B32  486E FDE2                pea.l      [A6 - 0x21E]
00000B36  4267                     clr.w      -[A7]
00000B38  3F07                     move.w     -[A7], D7
00000B3A  A8A8                     syscall    OffsetRect
00000B3C  2054                     movea.l    A0, [A4]
00000B3E  43EE FDE2                lea.l      A1, [A6 - 0x21E]
00000B42  20D9                     move.l     [A0]+, [A1]+
00000B44  20D9                     move.l     [A0]+, [A1]+
00000B46  2F0C                     move.l     -[A7], A4
00000B48  4EAD 0062                jsr        [A5 + 0x62 /* export_8, CODE:1 @ 000002BC */]
label00000B4C:
00000B4C  554F                     subq.w     A7, 2
00000B4E  3F3C 0080                move.w     -[A7], 0x80
00000B52  42A7                     clr.l      -[A7]
00000B54  A985                     syscall    Alert
00000B56  3E1F                     move.w     D7, [A7]+
00000B58  4CDF 10C0                movem.l    D6,D7,A4, [A7]+
00000B5C  4E5E                     unlink     A6
00000B5E  205F                     movea.l    A0, [A7]+
00000B60  544F                     addq.w     A7, 2
00000B62  4ED0                     jmp        [A0]
00000B64  0016 0012                ori.b      [A6], 0x12
00000B68  0845 7272                bchg.b     D5, 0x72 /* 'r' */
00000B6C  6F72                     ble        +0x74 /* 00000BE0 */
00000B6E  203D                     move.l     D0, <<invalid special address>>
00000B70  2012                     move.l     D0, [A2]
fn00000B72:
00000B72  4E56 0000                link       A6, 0
00000B76  48E7 0118                movem.l    -[A7], D7,A3,A4
00000B7A  286E 0012                movea.l    A4, [A6 + 0x12]
00000B7E  266E 0016                movea.l    A3, [A6 + 0x16]
00000B82  3E2E 0010                move.w     D7, [A6 + 0x10]
00000B86  302E 000E                move.w     D0, [A6 + 0xE]
00000B8A  6012                     bra        +0x14 /* 00000B9E */
label00000B8C:
00000B8C  4A2E 000C                tst.b      [A6 + 0xC]
00000B90  6738                     beq        +0x3A /* 00000BCA */
00000B92  3007                     move.w     D0, D7
00000B94  9053                     sub.w      D0, [A3]
00000B96  D054                     add.w      D0, [A4]
00000B98  3880                     move.w     [A4], D0
00000B9A  602E                     bra        +0x30 /* 00000BCA */
00000B9C  602C                     bra        +0x2E /* 00000BCA */
label00000B9E:
00000B9E  5340                     subq.w     D0, 1
00000BA0  67EA                     beq        -0x14 /* 00000B8C */
00000BA2  5340                     subq.w     D0, 1
00000BA4  67E6                     beq        -0x18 /* 00000B8C */
00000BA6  5540                     subq.w     D0, 2
00000BA8  6720                     beq        +0x22 /* 00000BCA */
00000BAA  5340                     subq.w     D0, 1
00000BAC  671C                     beq        +0x1E /* 00000BCA */
00000BAE  5340                     subq.w     D0, 1
00000BB0  6718                     beq        +0x1A /* 00000BCA */
00000BB2  0640 FFF3                addi.w     D0, 0xFFF3
00000BB6  6712                     beq        +0x14 /* 00000BCA */
00000BB8  0640 FFEE                addi.w     D0, 0xFFEE
00000BBC  670C                     beq        +0xE /* 00000BCA */
00000BBE  5940                     subq.w     D0, 4
00000BC0  6708                     beq        +0xA /* 00000BCA */
00000BC2  3007                     move.w     D0, D7
00000BC4  9053                     sub.w      D0, [A3]
00000BC6  D054                     add.w      D0, [A4]
00000BC8  3880                     move.w     [A4], D0
label00000BCA:
00000BCA  3687                     move.w     [A3], D7
00000BCC  4CDF 1880                movem.l    D7,A3,A4, [A7]+
00000BD0  4E5E                     unlink     A6
00000BD2  205F                     movea.l    A0, [A7]+
00000BD4  4FEF 0012                lea.l      A7, [A7 + 0x12]
00000BD8  4ED0                     jmp        [A0]
export_75:
00000BDA  4E56 FFEE                link       A6, -0x0012
00000BDE  48E7 0138                movem.l    -[A7], D7,A2,A3,A4
// begin alternate branch 00000BE0-00000BE8
label00000BE0:
00000BE0  0138 246E                btst       [0x0000246E], D0
00000BE4  0008 4207                ori.b      A0, 0x7
// end alternate branch 00000BE0-00000BE8
label00000BE0: // (misaligned)
00000BE2  246E 0008                movea.l    A2, [A6 + 0x8]
00000BE6  4207                     clr.b      D7
00000BE8  4252                     clr.w      [A2]
00000BEA  206E 000C                movea.l    A0, [A6 + 0xC]
00000BEE  2848                     movea.l    A4, A0
00000BF0  3014                     move.w     D0, [A4]
00000BF2  6004                     bra        +0x6 /* 00000BF8 */
00000BF4  6038                     bra        +0x3A /* 00000C2E */
00000BF6  6036                     bra        +0x38 /* 00000C2E */
label00000BF8:
00000BF8  6B2C                     bmi        +0x2E /* 00000C26 */
00000BFA  5D40                     subq.w     D0, 6
00000BFC  6F30                     ble        +0x32 /* 00000C2E */
00000BFE  5540                     subq.w     D0, 2
00000C00  6B24                     bmi        +0x26 /* 00000C26 */
00000C02  5B40                     subq.w     D0, 5
00000C04  6F28                     ble        +0x2A /* 00000C2E */
00000C06  5740                     subq.w     D0, 3
00000C08  6B1C                     bmi        +0x1E /* 00000C26 */
00000C0A  5B40                     subq.w     D0, 5
00000C0C  6F20                     ble        +0x22 /* 00000C2E */
00000C0E  5740                     subq.w     D0, 3
00000C10  6B14                     bmi        +0x16 /* 00000C26 */
00000C12  5B40                     subq.w     D0, 5
00000C14  6F18                     ble        +0x1A /* 00000C2E */
00000C16  5740                     subq.w     D0, 3
00000C18  6B0C                     bmi        +0xE /* 00000C26 */
00000C1A  5B40                     subq.w     D0, 5
00000C1C  6F10                     ble        +0x12 /* 00000C2E */
00000C1E  5740                     subq.w     D0, 3
00000C20  6B04                     bmi        +0x6 /* 00000C26 */
00000C22  5B40                     subq.w     D0, 5
00000C24  6F08                     ble        +0xA /* 00000C2E */
label00000C26:
00000C26  4254                     clr.w      [A4]
00000C28  7E01                     moveq.l    D7, 0x01
00000C2A  34BC 0001                move.w     [A2], 0x1
label00000C2E:
00000C2E  4A6C 0004                tst.w      [A4 + 0x4]
00000C32  6C1A                     bge        +0x1C /* 00000C4E */
00000C34  486C 0004                pea.l      [A4 + 0x4]
00000C38  486C 0008                pea.l      [A4 + 0x8]
00000C3C  4267                     clr.w      -[A7]
00000C3E  3F14                     move.w     -[A7], [A4]
00000C40  4227                     clr.b      -[A7]
00000C42  2F0E                     move.l     -[A7], A6
00000C44  4EBA FF2C                jsr        [PC - 0xD4 /* 00000B72 */]
00000C48  7E01                     moveq.l    D7, 0x01
00000C4A  34BC 0002                move.w     [A2], 0x2
label00000C4E:
00000C4E  0C6C 01F0 0004           cmpi.w     [A4 + 0x4], 0x1F0
00000C54  6F1C                     ble        +0x1E /* 00000C72 */
00000C56  486C 0004                pea.l      [A4 + 0x4]
00000C5A  486C 0008                pea.l      [A4 + 0x8]
00000C5E  3F3C 01F0                move.w     -[A7], 0x1F0
00000C62  3F14                     move.w     -[A7], [A4]
00000C64  4227                     clr.b      -[A7]
00000C66  2F0E                     move.l     -[A7], A6
00000C68  4EBA FF08                jsr        [PC - 0xF8 /* 00000B72 */]
00000C6C  7E01                     moveq.l    D7, 0x01
00000C6E  34BC 0002                move.w     [A2], 0x2
label00000C72:
00000C72  0C6C 0200 0008           cmpi.w     [A4 + 0x8], 0x200
00000C78  6F1C                     ble        +0x1E /* 00000C96 */
00000C7A  486C 0008                pea.l      [A4 + 0x8]
00000C7E  486C 0004                pea.l      [A4 + 0x4]
00000C82  3F3C 0200                move.w     -[A7], 0x200
00000C86  3F14                     move.w     -[A7], [A4]
00000C88  4227                     clr.b      -[A7]
00000C8A  2F0E                     move.l     -[A7], A6
00000C8C  4EBA FEE4                jsr        [PC - 0x11C /* 00000B72 */]
00000C90  7E01                     moveq.l    D7, 0x01
00000C92  34BC 0002                move.w     [A2], 0x2
label00000C96:
00000C96  0C6C 0010 0008           cmpi.w     [A4 + 0x8], 0x10
00000C9C  6C1C                     bge        +0x1E /* 00000CBA */
00000C9E  486C 0008                pea.l      [A4 + 0x8]
00000CA2  486C 0004                pea.l      [A4 + 0x4]
00000CA6  3F3C 0010                move.w     -[A7], 0x10
00000CAA  3F14                     move.w     -[A7], [A4]
00000CAC  4227                     clr.b      -[A7]
00000CAE  2F0E                     move.l     -[A7], A6
00000CB0  4EBA FEC0                jsr        [PC - 0x140 /* 00000B72 */]
00000CB4  7E01                     moveq.l    D7, 0x01
00000CB6  34BC 0002                move.w     [A2], 0x2
label00000CBA:
00000CBA  4A6C 0002                tst.w      [A4 + 0x2]
00000CBE  6C1C                     bge        +0x1E /* 00000CDC */
00000CC0  486C 0002                pea.l      [A4 + 0x2]
00000CC4  486C 0006                pea.l      [A4 + 0x6]
00000CC8  4267                     clr.w      -[A7]
00000CCA  3F14                     move.w     -[A7], [A4]
00000CCC  1F3C 0001                move.b     -[A7], 0x1
00000CD0  2F0E                     move.l     -[A7], A6
00000CD2  4EBA FE9E                jsr        [PC - 0x162 /* 00000B72 */]
00000CD6  7E01                     moveq.l    D7, 0x01
00000CD8  34BC 0002                move.w     [A2], 0x2
label00000CDC:
00000CDC  0C6C 0146 0002           cmpi.w     [A4 + 0x2], 0x146
00000CE2  6F1E                     ble        +0x20 /* 00000D02 */
00000CE4  486C 0002                pea.l      [A4 + 0x2]
00000CE8  486C 0006                pea.l      [A4 + 0x6]
00000CEC  3F3C 0146                move.w     -[A7], 0x146
00000CF0  3F14                     move.w     -[A7], [A4]
00000CF2  1F3C 0001                move.b     -[A7], 0x1
00000CF6  2F0E                     move.l     -[A7], A6
00000CF8  4EBA FE78                jsr        [PC - 0x188 /* 00000B72 */]
00000CFC  7E01                     moveq.l    D7, 0x01
00000CFE  34BC 0002                move.w     [A2], 0x2
label00000D02:
00000D02  0C6C 0156 0006           cmpi.w     [A4 + 0x6], 0x156
00000D08  6F1E                     ble        +0x20 /* 00000D28 */
00000D0A  486C 0006                pea.l      [A4 + 0x6]
00000D0E  486C 0002                pea.l      [A4 + 0x2]
00000D12  3F3C 0156                move.w     -[A7], 0x156
00000D16  3F14                     move.w     -[A7], [A4]
00000D18  1F3C 0001                move.b     -[A7], 0x1
00000D1C  2F0E                     move.l     -[A7], A6
00000D1E  4EBA FE52                jsr        [PC - 0x1AE /* 00000B72 */]
00000D22  7E01                     moveq.l    D7, 0x01
00000D24  34BC 0002                move.w     [A2], 0x2
label00000D28:
00000D28  0C6C 0010 0006           cmpi.w     [A4 + 0x6], 0x10
00000D2E  6C1E                     bge        +0x20 /* 00000D4E */
00000D30  486C 0006                pea.l      [A4 + 0x6]
00000D34  486C 0002                pea.l      [A4 + 0x2]
00000D38  3F3C 0010                move.w     -[A7], 0x10
00000D3C  3F14                     move.w     -[A7], [A4]
00000D3E  1F3C 0001                move.b     -[A7], 0x1
00000D42  2F0E                     move.l     -[A7], A6
00000D44  4EBA FE2C                jsr        [PC - 0x1D4 /* 00000B72 */]
00000D48  7E01                     moveq.l    D7, 0x01
00000D4A  34BC 0002                move.w     [A2], 0x2
label00000D4E:
00000D4E  3014                     move.w     D0, [A4]
00000D50  6000 014E                bra        +0x150 /* 00000EA0 */
00000D54  0C6C 0001 000A           cmpi.w     [A4 + 0xA], 0x1
00000D5A  5DC0                     slt        D0
00000D5C  0C6C 0050 000A           cmpi.w     [A4 + 0xA], 0x50 /* 'P' */
00000D62  5EC1                     sgt        D1
00000D64  8001                     or.b       D0, D1
00000D66  6700 019C                beq        +0x19E /* 00000F04 */
00000D6A  396D BB3A 000A           move.w     [A4 + 0xA], [A5 - 0x44C6]
00000D70  7E01                     moveq.l    D7, 0x01
00000D72  34BC 0003                move.w     [A2], 0x3
00000D76  6000 018C                bra        +0x18E /* 00000F04 */
00000D7A  4A6C 000A                tst.w      [A4 + 0xA]
00000D7E  5DC0                     slt        D0
00000D80  0C6C 0010 000A           cmpi.w     [A4 + 0xA], 0x10
00000D86  5EC1                     sgt        D1
00000D88  8001                     or.b       D0, D1
00000D8A  6700 0178                beq        +0x17A /* 00000F04 */
00000D8E  426C 000A                clr.w      [A4 + 0xA]
00000D92  7E01                     moveq.l    D7, 0x01
00000D94  34BC 0003                move.w     [A2], 0x3
00000D98  6000 016A                bra        +0x16C /* 00000F04 */
00000D9C  0C6C 0022 000A           cmpi.w     [A4 + 0xA], 0x22 /* '\"' */
00000DA2  5DC0                     slt        D0
00000DA4  322C 000A                move.w     D1, [A4 + 0xA]
00000DA8  B26C 0002                cmp.w      D1, [A4 + 0x2]
00000DAC  5EC1                     sgt        D1
00000DAE  8001                     or.b       D0, D1
00000DB0  6700 0152                beq        +0x154 /* 00000F04 */
00000DB4  397C 0022 000A           move.w     [A4 + 0xA], 0x22 /* '\"' */
00000DBA  7E01                     moveq.l    D7, 0x01
00000DBC  34BC 0003                move.w     [A2], 0x3
00000DC0  6000 0142                bra        +0x144 /* 00000F04 */
00000DC4  302C 000A                move.w     D0, [A4 + 0xA]
00000DC8  B06C 0006                cmp.w      D0, [A4 + 0x6]
00000DCC  5DC0                     slt        D0
00000DCE  0C6C 0145 000A           cmpi.w     [A4 + 0xA], 0x145
00000DD4  5EC1                     sgt        D1
00000DD6  8001                     or.b       D0, D1
00000DD8  6700 012A                beq        +0x12C /* 00000F04 */
00000DDC  397C 0145 000A           move.w     [A4 + 0xA], 0x145
00000DE2  7E01                     moveq.l    D7, 0x01
00000DE4  34BC 0003                move.w     [A2], 0x3
00000DE8  6000 011A                bra        +0x11C /* 00000F04 */
00000DEC  4A6C 000A                tst.w      [A4 + 0xA]
00000DF0  5DC0                     slt        D0
00000DF2  322C 000A                move.w     D1, [A4 + 0xA]
00000DF6  B26C 0004                cmp.w      D1, [A4 + 0x4]
00000DFA  5EC1                     sgt        D1
00000DFC  8001                     or.b       D0, D1
00000DFE  6700 0104                beq        +0x106 /* 00000F04 */
00000E02  426C 000A                clr.w      [A4 + 0xA]
00000E06  7E01                     moveq.l    D7, 0x01
00000E08  34BC 0003                move.w     [A2], 0x3
00000E0C  6000 00F6                bra        +0xF8 /* 00000F04 */
00000E10  302C 000A                move.w     D0, [A4 + 0xA]
00000E14  B06C 0008                cmp.w      D0, [A4 + 0x8]
00000E18  5DC0                     slt        D0
00000E1A  0C6C 0200 000A           cmpi.w     [A4 + 0xA], 0x200
00000E20  5EC1                     sgt        D1
00000E22  8001                     or.b       D0, D1
00000E24  6700 00DE                beq        +0xE0 /* 00000F04 */
00000E28  397C 0200 000A           move.w     [A4 + 0xA], 0x200
00000E2E  7E01                     moveq.l    D7, 0x01
00000E30  34BC 0003                move.w     [A2], 0x3
00000E34  6000 00CE                bra        +0xD0 /* 00000F04 */
00000E38  4A6C 000A                tst.w      [A4 + 0xA]
00000E3C  5DC0                     slt        D0
00000E3E  0C6C 2710 000A           cmpi.w     [A4 + 0xA], 0x2710
00000E44  5EC1                     sgt        D1
00000E46  8001                     or.b       D0, D1
00000E48  6700 00BA                beq        +0xBC /* 00000F04 */
00000E4C  397C 03E8 000A           move.w     [A4 + 0xA], 0x3E8
00000E52  7E01                     moveq.l    D7, 0x01
00000E54  34BC 0003                move.w     [A2], 0x3
00000E58  6000 00AA                bra        +0xAC /* 00000F04 */
00000E5C  4A6C 000A                tst.w      [A4 + 0xA]
00000E60  5DC0                     slt        D0
00000E62  0C6C 0064 000A           cmpi.w     [A4 + 0xA], 0x64 /* 'd' */
00000E68  5EC1                     sgt        D1
00000E6A  8001                     or.b       D0, D1
00000E6C  6700 0096                beq        +0x98 /* 00000F04 */
00000E70  397C 0014 000A           move.w     [A4 + 0xA], 0x14
00000E76  7E01                     moveq.l    D7, 0x01
00000E78  34BC 0003                move.w     [A2], 0x3
00000E7C  6000 0086                bra        +0x88 /* 00000F04 */
00000E80  4A6C 000A                tst.w      [A4 + 0xA]
00000E84  5DC0                     slt        D0
00000E86  0C6C 0258 000A           cmpi.w     [A4 + 0xA], 0x258
00000E8C  5EC1                     sgt        D1
00000E8E  8001                     or.b       D0, D1
00000E90  6772                     beq        +0x74 /* 00000F04 */
00000E92  397C 001E 000A           move.w     [A4 + 0xA], 0x1E
00000E98  7E01                     moveq.l    D7, 0x01
00000E9A  34BC 0003                move.w     [A2], 0x3
00000E9E  6064                     bra        +0x66 /* 00000F04 */
label00000EA0:
00000EA0  5B40                     subq.w     D0, 5
00000EA2  0C40 0029                cmpi.w     D0, 0x29 /* ')' */
00000EA6  645C                     bcc        +0x5E /* 00000F04 */
00000EA8  D040                     add.w      D0, D0
00000EAA  303B 0006                move.w     D0, [PC + D0.w + 0x6]
00000EAE  4EFB 0002                jmp        [PC + D0.w + 0x2]
00000EB2  FEA2 0052                .extension 0xEA2 <<F/2-3/7>> // unimplemented
00000EB6  0052 FEEA                ori.w      [A2], 0xFEEA
00000EBA  FF12                     .extension 0xF12 <<F/4-5/7>> // unimplemented
00000EBC  FF12                     .extension 0xF12 <<F/4-5/7>> // unimplemented
00000EBE  FEEA FF3A                .extension 0xEEA <<F/2-3/7>> // unimplemented
00000EC2  FF5E                     .extension 0xF5E <<F/4-5/7>> // unimplemented
00000EC4  0052 0052                ori.w      [A2], 0x52 /* 'R' */
00000EC8  FF86                     .invalid   <<F/6/7>>
00000ECA  FF86                     .invalid   <<F/6/7>>
00000ECC  FF5E                     .extension 0xF5E <<F/4-5/7>> // unimplemented
00000ECE  FF86                     .invalid   <<F/6/7>>
00000ED0  FFAA                     .invalid   <<F/6/7>>
00000ED2  FFAA                     .invalid   <<F/6/7>>
00000ED4  0052 0052                ori.w      [A2], 0x52 /* 'R' */
00000ED8  0052 FFCE                ori.w      [A2], 0xFFCE
00000EDC  0052 0052                ori.w      [A2], 0x52 /* 'R' */
00000EE0  FEC8 0052                .extension 0xEC8 <<F/2-3/7>> // unimplemented
00000EE4  0052 0052                ori.w      [A2], 0x52 /* 'R' */
00000EE8  FF12                     .extension 0xF12 <<F/4-5/7>> // unimplemented
00000EEA  FEEA FEEA                .extension 0xEEA <<F/2-3/7>> // unimplemented
00000EEE  FEEA FFCE                .extension 0xEEA <<F/2-3/7>> // unimplemented
00000EF2  0052 0052                ori.w      [A2], 0x52 /* 'R' */
00000EF6  0052 0052                ori.w      [A2], 0x52 /* 'R' */
00000EFA  0052 0052                ori.w      [A2], 0x52 /* 'R' */
00000EFE  0052 FEA2                ori.w      [A2], 0xFEA2
00000F02  FEA2 3014                .extension 0xEA2 <<F/2-3/7>> // unimplemented
// begin alternate branch 00000F04-00000F06
label00000F04:
00000F04  3014                     move.w     D0, [A4]
// end alternate branch 00000F04-00000F06
label00000F04: // (misaligned)
00000F06  6042                     bra        +0x44 /* 00000F4A */
label00000F08:
00000F08  0C6C 0001 000C           cmpi.w     [A4 + 0xC], 0x1
00000F0E  5DC0                     slt        D0
00000F10  0C6C 0050 000C           cmpi.w     [A4 + 0xC], 0x50 /* 'P' */
00000F16  5EC1                     sgt        D1
00000F18  8001                     or.b       D0, D1
00000F1A  673E                     beq        +0x40 /* 00000F5A */
00000F1C  396D BB3A 000C           move.w     [A4 + 0xC], [A5 - 0x44C6]
00000F22  7E01                     moveq.l    D7, 0x01
00000F24  34BC 0004                move.w     [A2], 0x4
00000F28  6030                     bra        +0x32 /* 00000F5A */
label00000F2A:
00000F2A  4A6C 000C                tst.w      [A4 + 0xC]
00000F2E  5DC0                     slt        D0
00000F30  0C6C 0258 000C           cmpi.w     [A4 + 0xC], 0x258
00000F36  5EC1                     sgt        D1
00000F38  8001                     or.b       D0, D1
00000F3A  671E                     beq        +0x20 /* 00000F5A */
00000F3C  397C 001E 000C           move.w     [A4 + 0xC], 0x1E
00000F42  7E01                     moveq.l    D7, 0x01
00000F44  34BC 0004                move.w     [A2], 0x4
00000F48  6010                     bra        +0x12 /* 00000F5A */
label00000F4A:
00000F4A  0640 FFF6                addi.w     D0, 0xFFF6
00000F4E  67B8                     beq        -0x46 /* 00000F08 */
00000F50  0640 FFEA                addi.w     D0, 0xFFEA
00000F54  67D4                     beq        -0x2A /* 00000F2A */
00000F56  5740                     subq.w     D0, 3
00000F58  67D0                     beq        -0x2E /* 00000F2A */
label00000F5A:
00000F5A  1D47 0010                move.b     [A6 + 0x10], D7
00000F5E  4CDF 1C80                movem.l    D7,A2,A3,A4, [A7]+
00000F62  4E5E                     unlink     A6
00000F64  205F                     movea.l    A0, [A7]+
00000F66  504F                     addq.w     A7, 8
00000F68  4ED0                     jmp        [A0]
fn00000F6A:
00000F6A  4E56 FFE8                link       A6, -0x0018
00000F6E  2F0C                     move.l     -[A7], A4
00000F70  286E 0008                movea.l    A4, [A6 + 0x8]
00000F74  2F2C FEC6                move.l     -[A7], [A4 - 0x13A]
00000F78  A873                     syscall    SetPort
00000F7A  2F2C FEC6                move.l     -[A7], [A4 - 0x13A]
00000F7E  3F3C 0001                move.w     -[A7], 0x1
00000F82  486C FFEA                pea.l      [A4 - 0x16]
00000F86  486C FECE                pea.l      [A4 - 0x132]
00000F8A  486C FEBE                pea.l      [A4 - 0x142]
00000F8E  A98D                     syscall    GetDialogItem/GetDItem
00000F90  3F3C 0003                move.w     -[A7], 0x3
00000F94  3F3C 0003                move.w     -[A7], 0x3
00000F98  A89B                     syscall    PenSize
00000F9A  486C FEBE                pea.l      [A4 - 0x142]
00000F9E  3F3C FFFC                move.w     -[A7], 0xFFFC
00000FA2  3F3C FFFC                move.w     -[A7], 0xFFFC
00000FA6  A8A9                     syscall    InsetRect
00000FA8  486C FEBE                pea.l      [A4 - 0x142]
00000FAC  3F3C 0010                move.w     -[A7], 0x10
00000FB0  3F3C 0010                move.w     -[A7], 0x10
00000FB4  A8B0                     syscall    FrameRoundRect
00000FB6  A89E                     syscall    PenNormal
00000FB8  285F                     movea.l    A4, [A7]+
00000FBA  4E5E                     unlink     A6
00000FBC  2E9F                     move.l     [A7], [A7]+
00000FBE  4E75                     rts
fn00000FC0:
00000FC0  4E56 FEFE                link       A6, -0x0102
00000FC4  48E7 0308                movem.l    -[A7], D6,D7,A4
00000FC8  286E 0008                movea.l    A4, [A6 + 0x8]
00000FCC  3E2E 000C                move.w     D7, [A6 + 0xC]
00000FD0  3C2E 000E                move.w     D6, [A6 + 0xE]
00000FD4  0C47 0021                cmpi.w     D7, 0x21 /* '!' */
00000FD8  5CC0                     sge        D0
00000FDA  0C47 007A                cmpi.w     D7, 0x7A /* 'z' */
00000FDE  5FC1                     sle        D1
00000FE0  C001                     and.b      D0, D1
00000FE2  6700 007A                beq        +0x7C /* 0000105E */
00000FE6  0C46 0041                cmpi.w     D6, 0x41 /* 'A' */
00000FEA  5CC0                     sge        D0
00000FEC  0C46 005C                cmpi.w     D6, 0x5C /* '\\' */
00000FF0  5FC1                     sle        D1
00000FF2  C001                     and.b      D0, D1
00000FF4  6734                     beq        +0x36 /* 0000102A */
00000FF6  486E FF00                pea.l      [A6 - 0x100]
00000FFA  303C 0100                move.w     D0, 0x100
00000FFE  1007                     move.b     D0, D7
00001000  3D40 FEFE                move.w     [A6 - 0x102], D0
00001004  486E FEFE                pea.l      [A6 - 0x102]
00001008  487A 0476                pea.l      [PC + 0x476 /* 00001480, value 0x7206B65, pstring " keypad" */]
0000100C  3F3C 0002                move.w     -[A7], 0x2
00001010  4EAD 0132                jsr        [A5 + 0x132 /* export_34, CODE:1 @ 000007AE */]
00001014  584F                     addq.w     A7, 4
00001016  3F3C 00FF                move.w     -[A7], 0xFF
0000101A  486E FF00                pea.l      [A6 - 0x100]
0000101E  486C FED2                pea.l      [A4 - 0x12E]
00001022  4EAD 015A                jsr        [A5 + 0x15A /* export_39, CODE:1 @ 00000A28 */]
00001026  6000 0330                bra        +0x332 /* 00001358 */
label0000102A:
0000102A  486E FF00                pea.l      [A6 - 0x100]
0000102E  303C 0100                move.w     D0, 0x100
00001032  1007                     move.b     D0, D7
00001034  3D40 FEFE                move.w     [A6 - 0x102], D0
00001038  486E FEFE                pea.l      [A6 - 0x102]
0000103C  487A 043C                pea.l      [PC + 0x43C /* 0000147A, value 0x4206B65, pstring " key" */]
00001040  3F3C 0002                move.w     -[A7], 0x2
00001044  4EAD 0132                jsr        [A5 + 0x132 /* export_34, CODE:1 @ 000007AE */]
00001048  584F                     addq.w     A7, 4
0000104A  3F3C 00FF                move.w     -[A7], 0xFF
0000104E  486E FF00                pea.l      [A6 - 0x100]
00001052  486C FED2                pea.l      [A4 - 0x12E]
00001056  4EAD 015A                jsr        [A5 + 0x15A /* export_39, CODE:1 @ 00000A28 */]
0000105A  6000 02FC                bra        +0x2FE /* 00001358 */
label0000105E:
0000105E  3007                     move.w     D0, D7
00001060  6000 027C                bra        +0x27E /* 000012DE */
label00001064:
00001064  41FA 040E                lea.l      A0, [PC + 0x40E /* 00001474, value 0x4686F6D, pstring "home" */]
00001068  43EC FED2                lea.l      A1, [A4 - 0x12E]
0000106C  22D8                     move.l     [A1]+, [A0]+
0000106E  22D8                     move.l     [A1]+, [A0]+
00001070  6000 02E6                bra        +0x2E8 /* 00001358 */
label00001074:
00001074  41FA 03F8                lea.l      A0, [PC + 0x3F8 /* 0000146E, value 0x5656E74, pstring "enter" */]
00001078  43EC FED2                lea.l      A1, [A4 - 0x12E]
0000107C  22D8                     move.l     [A1]+, [A0]+
0000107E  22D8                     move.l     [A1]+, [A0]+
00001080  6000 02D6                bra        +0x2D8 /* 00001358 */
label00001084:
00001084  297C 0365 6E64 FED2      move.l     [A4 - 0x12E], 0x3656E64
0000108C  6000 02CA                bra        +0x2CC /* 00001358 */
label00001090:
00001090  41FA 03D6                lea.l      A0, [PC + 0x3D6 /* 00001468, value 0x468656C, pstring "help" */]
00001094  43EC FED2                lea.l      A1, [A4 - 0x12E]
00001098  22D8                     move.l     [A1]+, [A0]+
0000109A  22D8                     move.l     [A1]+, [A0]+
0000109C  6000 02BA                bra        +0x2BC /* 00001358 */
label000010A0:
000010A0  41FA 03BE                lea.l      A0, [PC + 0x3BE /* 00001460, value 0x664656C, pstring "delete" */]
000010A4  43EC FED2                lea.l      A1, [A4 - 0x12E]
000010A8  22D8                     move.l     [A1]+, [A0]+
000010AA  22D8                     move.l     [A1]+, [A0]+
000010AC  6000 02AA                bra        +0x2AC /* 00001358 */
label000010B0:
000010B0  297C 0374 6162 FED2      move.l     [A4 - 0x12E], 0x3746162
000010B8  6000 029E                bra        +0x2A0 /* 00001358 */
label000010BC:
000010BC  41FA 039A                lea.l      A0, [PC + 0x39A /* 00001458, value 0x7706167, pstring "page up" */]
000010C0  43EC FED2                lea.l      A1, [A4 - 0x12E]
000010C4  22D8                     move.l     [A1]+, [A0]+
000010C6  22D8                     move.l     [A1]+, [A0]+
000010C8  6000 028E                bra        +0x290 /* 00001358 */
label000010CC:
000010CC  41FA 0380                lea.l      A0, [PC + 0x380 /* 0000144E, value 0x9706167 '\tpag', pstring "page down" */]
000010D0  43EC FED2                lea.l      A1, [A4 - 0x12E]
000010D4  22D8                     move.l     [A1]+, [A0]+
000010D6  22D8                     move.l     [A1]+, [A0]+
000010D8  22D8                     move.l     [A1]+, [A0]+
000010DA  6000 027C                bra        +0x27E /* 00001358 */
label000010DE:
000010DE  41FA 0366                lea.l      A0, [PC + 0x366 /* 00001446, value 0x6726574, pstring "return" */]
000010E2  43EC FED2                lea.l      A1, [A4 - 0x12E]
000010E6  22D8                     move.l     [A1]+, [A0]+
000010E8  22D8                     move.l     [A1]+, [A0]+
000010EA  6000 026C                bra        +0x26E /* 00001358 */
label000010EE:
000010EE  3006                     move.w     D0, D6
000010F0  6000 00F2                bra        +0xF4 /* 000011E4 */
000010F4  41FA 0348                lea.l      A0, [PC + 0x348 /* 0000143E, value 0x6463520, pstring "F5 key" */]
000010F8  43EC FED2                lea.l      A1, [A4 - 0x12E]
000010FC  22D8                     move.l     [A1]+, [A0]+
000010FE  22D8                     move.l     [A1]+, [A0]+
00001100  6000 0256                bra        +0x258 /* 00001358 */
00001104  41FA 0330                lea.l      A0, [PC + 0x330 /* 00001436, value 0x6463620, pstring "F6 key" */]
00001108  43EC FED2                lea.l      A1, [A4 - 0x12E]
0000110C  22D8                     move.l     [A1]+, [A0]+
0000110E  22D8                     move.l     [A1]+, [A0]+
00001110  6000 0246                bra        +0x248 /* 00001358 */
00001114  41FA 0318                lea.l      A0, [PC + 0x318 /* 0000142E, value 0x6463720, pstring "F7 key" */]
00001118  43EC FED2                lea.l      A1, [A4 - 0x12E]
0000111C  22D8                     move.l     [A1]+, [A0]+
0000111E  22D8                     move.l     [A1]+, [A0]+
00001120  6000 0236                bra        +0x238 /* 00001358 */
00001124  41FA 0300                lea.l      A0, [PC + 0x300 /* 00001426, value 0x6463320, pstring "F3 key" */]
00001128  43EC FED2                lea.l      A1, [A4 - 0x12E]
0000112C  22D8                     move.l     [A1]+, [A0]+
0000112E  22D8                     move.l     [A1]+, [A0]+
00001130  6000 0226                bra        +0x228 /* 00001358 */
00001134  41FA 02E8                lea.l      A0, [PC + 0x2E8 /* 0000141E, value 0x6463820, pstring "F8 key" */]
00001138  43EC FED2                lea.l      A1, [A4 - 0x12E]
0000113C  22D8                     move.l     [A1]+, [A0]+
0000113E  22D8                     move.l     [A1]+, [A0]+
00001140  6000 0216                bra        +0x218 /* 00001358 */
00001144  41FA 02D0                lea.l      A0, [PC + 0x2D0 /* 00001416, value 0x6463920, pstring "F9 key" */]
00001148  43EC FED2                lea.l      A1, [A4 - 0x12E]
0000114C  22D8                     move.l     [A1]+, [A0]+
0000114E  22D8                     move.l     [A1]+, [A0]+
00001150  6000 0206                bra        +0x208 /* 00001358 */
00001154  41FA 02B8                lea.l      A0, [PC + 0x2B8 /* 0000140E, value 0x7463131, pstring "F11 key" */]
00001158  43EC FED2                lea.l      A1, [A4 - 0x12E]
0000115C  22D8                     move.l     [A1]+, [A0]+
0000115E  22D8                     move.l     [A1]+, [A0]+
00001160  6000 01F6                bra        +0x1F8 /* 00001358 */
00001164  41FA 02A0                lea.l      A0, [PC + 0x2A0 /* 00001406, value 0x7463133, pstring "F13 key" */]
00001168  43EC FED2                lea.l      A1, [A4 - 0x12E]
0000116C  22D8                     move.l     [A1]+, [A0]+
0000116E  22D8                     move.l     [A1]+, [A0]+
00001170  6000 01E6                bra        +0x1E8 /* 00001358 */
00001174  41FA 0288                lea.l      A0, [PC + 0x288 /* 000013FE, value 0x7463134, pstring "F14 key" */]
00001178  43EC FED2                lea.l      A1, [A4 - 0x12E]
0000117C  22D8                     move.l     [A1]+, [A0]+
0000117E  22D8                     move.l     [A1]+, [A0]+
00001180  6000 01D6                bra        +0x1D8 /* 00001358 */
00001184  41FA 0270                lea.l      A0, [PC + 0x270 /* 000013F6, value 0x7463130, pstring "F10 key" */]
00001188  43EC FED2                lea.l      A1, [A4 - 0x12E]
0000118C  22D8                     move.l     [A1]+, [A0]+
0000118E  22D8                     move.l     [A1]+, [A0]+
00001190  6000 01C6                bra        +0x1C8 /* 00001358 */
00001194  41FA 0258                lea.l      A0, [PC + 0x258 /* 000013EE, value 0x7463132, pstring "F12 key" */]
00001198  43EC FED2                lea.l      A1, [A4 - 0x12E]
0000119C  22D8                     move.l     [A1]+, [A0]+
0000119E  22D8                     move.l     [A1]+, [A0]+
000011A0  6000 01B6                bra        +0x1B8 /* 00001358 */
000011A4  41FA 0240                lea.l      A0, [PC + 0x240 /* 000013E6, value 0x7463135, pstring "F15 key" */]
000011A8  43EC FED2                lea.l      A1, [A4 - 0x12E]
000011AC  22D8                     move.l     [A1]+, [A0]+
000011AE  22D8                     move.l     [A1]+, [A0]+
000011B0  6000 01A6                bra        +0x1A8 /* 00001358 */
000011B4  41FA 0228                lea.l      A0, [PC + 0x228 /* 000013DE, value 0x6463420, pstring "F4 key" */]
000011B8  43EC FED2                lea.l      A1, [A4 - 0x12E]
000011BC  22D8                     move.l     [A1]+, [A0]+
000011BE  22D8                     move.l     [A1]+, [A0]+
000011C0  6000 0196                bra        +0x198 /* 00001358 */
000011C4  41FA 0210                lea.l      A0, [PC + 0x210 /* 000013D6, value 0x6463220, pstring "F2 key" */]
000011C8  43EC FED2                lea.l      A1, [A4 - 0x12E]
000011CC  22D8                     move.l     [A1]+, [A0]+
000011CE  22D8                     move.l     [A1]+, [A0]+
000011D0  6000 0186                bra        +0x188 /* 00001358 */
000011D4  41FA 01F8                lea.l      A0, [PC + 0x1F8 /* 000013CE, value 0x6463120, pstring "F1 key" */]
000011D8  43EC FED2                lea.l      A1, [A4 - 0x12E]
000011DC  22D8                     move.l     [A1]+, [A0]+
000011DE  22D8                     move.l     [A1]+, [A0]+
000011E0  6000 0176                bra        +0x178 /* 00001358 */
label000011E4:
000011E4  0640 FFA0                addi.w     D0, 0xFFA0
000011E8  0C40 001B                cmpi.w     D0, 0x1B
000011EC  6440                     bcc        +0x42 /* 0000122E */
000011EE  D040                     add.w      D0, D0
000011F0  303B 0006                move.w     D0, [PC + D0.w + 0x6]
000011F4  4EFB 0002                jmp        [PC + D0.w + 0x2]
000011F8  FEFC FF0C                .extension 0xEFC <<F/2-3/7>> // unimplemented
000011FC  FF1C                     .extension 0xF1C <<F/4-5/7>> // unimplemented
000011FE  FF2C                     .extension 0xF2C <<F/4-5/7>> // unimplemented
00001200  FF3C                     .extension 0xF3C <<F/4-5/7>> // unimplemented
00001202  FF4C                     .extension 0xF4C <<F/4-5/7>> // unimplemented
00001204  0036 FF5C 0036           ori.b      [A6 + D0.w + 0x36], 0x5C /* '\\' */
0000120A  FF6C                     .extension 0xF6C <<F/4-5/7>> // unimplemented
0000120C  0036 FF7C 0036           ori.b      [A6 + D0.w + 0x36], 0x7C /* '|' */
00001212  FF8C                     .invalid   <<F/6/7>>
00001214  0036 FF9C 0036           ori.b      [A6 + D0.w + 0x36], 0x9C
0000121A  FFAC                     .invalid   <<F/6/7>>
0000121C  0036 0036 0036           ori.b      [A6 + D0.w + 0x36], 0x36 /* '6' */
00001222  0036 FFBC 0036           ori.b      [A6 + D0.w + 0x36], 0xBC
00001228  FFCC                     .invalid   <<F/7/7>>
0000122A  0036 FFDC 3006           ori.b      [A6 + D3.w + 0x6], 0xDC
// begin alternate branch 0000122E-00001230
label0000122E:
0000122E  3006                     move.w     D0, D6
// end alternate branch 0000122E-00001230
label0000122E: // (misaligned)
00001230  48C0                     ext.l      D0
00001232  2F00                     move.l     -[A7], D0
00001234  486C FED2                pea.l      [A4 - 0x12E]
00001238  4EAD 0122                jsr        [A5 + 0x122 /* export_32, CODE:1 @ 0000079C */]
0000123C  6000 011A                bra        +0x11C /* 00001358 */
label00001240:
00001240  41FA 0186                lea.l      A0, [PC + 0x186 /* 000013C8, value 0x5636C65, pstring "clear" */]
00001244  43EC FED2                lea.l      A1, [A4 - 0x12E]
00001248  22D8                     move.l     [A1]+, [A0]+
0000124A  22D8                     move.l     [A1]+, [A0]+
0000124C  6000 010A                bra        +0x10C /* 00001358 */
label00001250:
00001250  0C46 0047                cmpi.w     D6, 0x47 /* 'G' */
00001254  6610                     bne        +0x12 /* 00001266 */
00001256  41FA 016A                lea.l      A0, [PC + 0x16A /* 000013C2, value 0x5636C65, pstring "clear" */]
0000125A  43EC FED2                lea.l      A1, [A4 - 0x12E]
0000125E  22D8                     move.l     [A1]+, [A0]+
00001260  22D8                     move.l     [A1]+, [A0]+
00001262  6000 00F4                bra        +0xF6 /* 00001358 */
label00001266:
00001266  41FA 0152                lea.l      A0, [PC + 0x152 /* 000013BA, value 0x6657363, pstring "escape" */]
0000126A  43EC FED2                lea.l      A1, [A4 - 0x12E]
0000126E  22D8                     move.l     [A1]+, [A0]+
00001270  22D8                     move.l     [A1]+, [A0]+
00001272  6000 00E4                bra        +0xE6 /* 00001358 */
label00001276:
00001276  41FA 0136                lea.l      A0, [PC + 0x136 /* 000013AE, value 0xA6C6566 '\nlef', pstring "left arrow" */]
0000127A  43EC FED2                lea.l      A1, [A4 - 0x12E]
0000127E  22D8                     move.l     [A1]+, [A0]+
00001280  22D8                     move.l     [A1]+, [A0]+
00001282  22D8                     move.l     [A1]+, [A0]+
00001284  6000 00D2                bra        +0xD4 /* 00001358 */
label00001288:
00001288  41FA 0118                lea.l      A0, [PC + 0x118 /* 000013A2, value 0xB726967, pstring "right arrow" */]
0000128C  43EC FED2                lea.l      A1, [A4 - 0x12E]
00001290  22D8                     move.l     [A1]+, [A0]+
00001292  22D8                     move.l     [A1]+, [A0]+
00001294  22D8                     move.l     [A1]+, [A0]+
00001296  6000 00C0                bra        +0xC2 /* 00001358 */
label0000129A:
0000129A  41FA 00FC                lea.l      A0, [PC + 0xFC /* 00001398, value 0x8757020, pstring "up arrow" */]
0000129E  43EC FED2                lea.l      A1, [A4 - 0x12E]
000012A2  22D8                     move.l     [A1]+, [A0]+
000012A4  22D8                     move.l     [A1]+, [A0]+
000012A6  22D8                     move.l     [A1]+, [A0]+
000012A8  6000 00AE                bra        +0xB0 /* 00001358 */
label000012AC:
000012AC  41FA 00DE                lea.l      A0, [PC + 0xDE /* 0000138C, value 0xA646F77 '\ndow', pstring "down arrow" */]
000012B0  43EC FED2                lea.l      A1, [A4 - 0x12E]
000012B4  22D8                     move.l     [A1]+, [A0]+
000012B6  22D8                     move.l     [A1]+, [A0]+
000012B8  22D8                     move.l     [A1]+, [A0]+
000012BA  6000 009C                bra        +0x9E /* 00001358 */
label000012BE:
000012BE  41FA 00C6                lea.l      A0, [PC + 0xC6 /* 00001386, value 0x5737061, pstring "space" */]
000012C2  43EC FED2                lea.l      A1, [A4 - 0x12E]
000012C6  22D8                     move.l     [A1]+, [A0]+
000012C8  22D8                     move.l     [A1]+, [A0]+
000012CA  6000 008C                bra        +0x8E /* 00001358 */
label000012CE:
000012CE  41FA 00AE                lea.l      A0, [PC + 0xAE /* 0000137E, value 0x764656C, pstring "del key" */]
000012D2  43EC FED2                lea.l      A1, [A4 - 0x12E]
000012D6  22D8                     move.l     [A1]+, [A0]+
000012D8  22D8                     move.l     [A1]+, [A0]+
000012DA  6000 007C                bra        +0x7E /* 00001358 */
label000012DE:
000012DE  5340                     subq.w     D0, 1
000012E0  6700 FD82                beq        -0x27C /* 00001064 */
000012E4  5540                     subq.w     D0, 2
000012E6  6700 FD8C                beq        -0x272 /* 00001074 */
000012EA  5340                     subq.w     D0, 1
000012EC  6700 FD96                beq        -0x268 /* 00001084 */
000012F0  5340                     subq.w     D0, 1
000012F2  6700 FD9C                beq        -0x262 /* 00001090 */
000012F6  5740                     subq.w     D0, 3
000012F8  6700 FDA6                beq        -0x258 /* 000010A0 */
000012FC  5340                     subq.w     D0, 1
000012FE  6700 FDB0                beq        -0x24E /* 000010B0 */
00001302  5540                     subq.w     D0, 2
00001304  6700 FDB6                beq        -0x248 /* 000010BC */
00001308  5340                     subq.w     D0, 1
0000130A  6700 FDC0                beq        -0x23E /* 000010CC */
0000130E  5340                     subq.w     D0, 1
00001310  6700 FDCC                beq        -0x232 /* 000010DE */
00001314  5740                     subq.w     D0, 3
00001316  6700 FDD6                beq        -0x228 /* 000010EE */
0000131A  0640 FFF6                addi.w     D0, 0xFFF6
0000131E  6700 FF20                beq        -0xDE /* 00001240 */
00001322  5340                     subq.w     D0, 1
00001324  6700 FF2A                beq        -0xD4 /* 00001250 */
00001328  5340                     subq.w     D0, 1
0000132A  6700 FF4A                beq        -0xB4 /* 00001276 */
0000132E  5340                     subq.w     D0, 1
00001330  6700 FF56                beq        -0xA8 /* 00001288 */
00001334  5340                     subq.w     D0, 1
00001336  6700 FF62                beq        -0x9C /* 0000129A */
0000133A  5340                     subq.w     D0, 1
0000133C  6700 FF6E                beq        -0x90 /* 000012AC */
00001340  5340                     subq.w     D0, 1
00001342  6700 FF7A                beq        -0x84 /* 000012BE */
00001346  0640 FFA1                addi.w     D0, 0xFFA1
0000134A  6782                     beq        -0x7C /* 000012CE */
0000134C  41FA 0028                lea.l      A0, [PC + 0x28 /* 00001376, value 0x7756E6B, pstring "unknown" */]
00001350  43EC FED2                lea.l      A1, [A4 - 0x12E]
00001354  22D8                     move.l     [A1]+, [A0]+
00001356  22D8                     move.l     [A1]+, [A0]+
label00001358:
00001358  206E 0010                movea.l    A0, [A6 + 0x10]
0000135C  3F3C 000C                move.w     -[A7], 0xC
00001360  486C FED2                pea.l      [A4 - 0x12E]
00001364  2F08                     move.l     -[A7], A0
00001366  4EAD 015A                jsr        [A5 + 0x15A /* export_39, CODE:1 @ 00000A28 */]
0000136A  4CDF 10C0                movem.l    D6,D7,A4, [A7]+
0000136E  4E5E                     unlink     A6
00001370  205F                     movea.l    A0, [A7]+
00001372  504F                     addq.w     A7, 8
00001374  4ED0                     jmp        [A0]
00001376  0775 6E6B                bchg       [A5 + D6 * 8 + 0x6B], D3
0000137A  6E6F                     bgt        +0x71 /* 000013EB */
0000137C  776E                     moveq.l    D3, 0x6E
0000137E  0764                     bchg       -[A4], D3
00001380  656C                     bcs        +0x6E /* 000013EE */
00001382  206B 6579                movea.l    A0, [A3 + 0x6579]
00001386  0573 7061                bchg       [A3 + D7.w + 0x61], D2
0000138A  6365                     bls        +0x67 /* 000013F1 */
0000138C  0A64 6F77                xori.w     -[A4], 0x6F77 /* 'ow' */
00001390  6E20                     bgt        +0x22 /* 000013B2 */
00001392  6172                     bsr        +0x74 /* 00001406 */
00001394  726F                     moveq.l    D1, 0x6F
00001396  7708                     moveq.l    D3, 0x08
00001398  0875 7020 6172 726F 7... bchg.b     [[A5 + 0x726F7708] + 0xB72], 0x20 /* ' ' */
000013A4  6967                     bvs        +0x69 /* 0000140D */
000013A6  6874                     bvc        +0x76 /* 0000141C */
000013A8  2061                     movea.l    A0, -[A1]
000013AA  7272                     moveq.l    D1, 0x72
000013AC  6F77                     ble        +0x79 /* 00001425 */
000013AE  0A6C 6566 7420           xori.w     [A4 + 0x7420], 0x6566 /* 'ef' */
// begin alternate branch 000013B2-000013B4
label000013B2:
000013B2  7420                     moveq.l    D2, 0x20
// end alternate branch 000013B2-000013B4
label000013B2: // (misaligned)
000013B4  6172                     bsr        +0x74 /* 00001428 */
000013B6  726F                     moveq.l    D1, 0x6F
000013B8  7708                     moveq.l    D3, 0x08
000013BA  0665 7363                addi.w     -[A5], 0x7363 /* 'sc' */
000013BE  6170                     bsr        +0x72 /* 00001430 */
000013C0  6508                     bcs        +0xA /* 000013CA */
000013C2  0563                     bchg       -[A3], D2
000013C4  6C65                     bge        +0x67 /* 0000142B */
000013C6  6172                     bsr        +0x74 /* 0000143A */
000013C8  0563                     bchg       -[A3], D2
label000013CA:
000013CA  6C65                     bge        +0x67 /* 00001431 */
000013CC  6172                     bsr        +0x74 /* 00001440 */
000013CE  0646 3120                addi.w     D6, 0x3120 /* '1 ' */
000013D2  6B65                     bmi        +0x67 /* 00001439 */
000013D4  7908                     moveq.l    D4, 0x08
000013D6  0646 3220                addi.w     D6, 0x3220 /* '2 ' */
000013DA  6B65                     bmi        +0x67 /* 00001441 */
000013DC  7908                     moveq.l    D4, 0x08
000013DE  0646 3420                addi.w     D6, 0x3420 /* '4 ' */
000013E2  6B65                     bmi        +0x67 /* 00001449 */
000013E4  7908                     moveq.l    D4, 0x08
000013E6  0746                     bchg       D6, D3
000013E8  3135 206B                move.w     -[A0], [A5 + D2.w + 0x6B]
000013EC  6579                     bcs        +0x7B /* 00001467 */
label000013EE:
000013EE  0746                     bchg       D6, D3
000013F0  3132 206B                move.w     -[A0], [A2 + D2.w + 0x6B]
000013F4  6579                     bcs        +0x7B /* 0000146F */
000013F6  0746                     bchg       D6, D3
000013F8  3130 206B                move.w     -[A0], [A0 + D2.w + 0x6B]
000013FC  6579                     bcs        +0x7B /* 00001477 */
000013FE  0746                     bchg       D6, D3
00001400  3134 206B                move.w     -[A0], [A4 + D2.w + 0x6B]
00001404  6579                     bcs        +0x7B /* 0000147F */
fn00001406:
00001406  0746                     bchg       D6, D3
00001408  3133 206B                move.w     -[A0], [A3 + D2.w + 0x6B]
0000140C  6579                     bcs        +0x7B /* 00001487 */
0000140E  0746                     bchg       D6, D3
00001410  3131 206B                move.w     -[A0], [A1 + D2.w + 0x6B]
00001414  6579                     bcs        +0x7B /* 0000148F */
00001416  0646 3920                addi.w     D6, 0x3920 /* '9 ' */
0000141A  6B65                     bmi        +0x67 /* 00001481 */
label0000141C:
0000141C  7908                     moveq.l    D4, 0x08
0000141E  0646 3820                addi.w     D6, 0x3820 /* '8 ' */
00001422  6B65                     bmi        +0x67 /* 00001489 */
00001424  7908                     moveq.l    D4, 0x08
00001426  0646 3320                addi.w     D6, 0x3320 /* '3 ' */
// begin alternate branch 00001428-0000142A
fn00001428:
00001428  3320                     move.w     -[A1], -[A0]
// end alternate branch 00001428-0000142A
fn00001428: // (misaligned)
0000142A  6B65                     bmi        +0x67 /* 00001491 */
0000142C  7908                     moveq.l    D4, 0x08
0000142E  0646 3720                addi.w     D6, 0x3720 /* '7 ' */
// begin alternate branch 00001430-00001432
fn00001430:
00001430  3720                     move.w     -[A3], -[A0]
// end alternate branch 00001430-00001432
fn00001430: // (misaligned)
00001432  6B65                     bmi        +0x67 /* 00001499 */
00001434  7908                     moveq.l    D4, 0x08
00001436  0646 3620                addi.w     D6, 0x3620 /* '6 ' */
fn0000143A:
0000143A  6B65                     bmi        +0x67 /* 000014A1 */
0000143C  7908                     moveq.l    D4, 0x08
0000143E  0646 3520                addi.w     D6, 0x3520 /* '5 ' */
// begin alternate branch 00001440-00001442
fn00001440:
00001440  3520                     move.w     -[A2], -[A0]
// end alternate branch 00001440-00001442
fn00001440: // (misaligned)
00001442  6B65                     bmi        +0x67 /* 000014A9 */
00001444  7908                     moveq.l    D4, 0x08
00001446  0672 6574 7572 6E08 0... addi.w     [[A2 + 0x6E080970] + 0x6167], 0x6574 /* 'et' */
00001452  6520                     bcs        +0x22 /* 00001474 */
00001454  646F                     bcc        +0x71 /* 000014C5 */
00001456  776E                     moveq.l    D3, 0x6E
00001458  0770 6167                bchg       <<invalid full ext with IS == 1 and I/IS == 7>>, D3
0000145C  6520                     bcs        +0x22 /* 0000147E */
0000145E  7570                     moveq.l    D2, 0x70
00001460  0664 656C                addi.w     -[A4], 0x656C /* 'el' */
00001464  6574                     bcs        +0x76 /* 000014DA */
00001466  6508                     bcs        +0xA /* 00001470 */
00001468  0468 656C 7008           subi.w     [A0 + 0x7008], 0x656C /* 'el' */
0000146E  0565                     bchg       -[A5], D2
label00001470:
00001470  6E74                     bgt        +0x76 /* 000014E6 */
00001472  6572                     bcs        +0x74 /* 000014E6 */
label00001474:
00001474  0468 6F6D 6508           subi.w     [A0 + 0x6508], 0x6F6D /* 'om' */
0000147A  0420 6B65                subi.b     -[A0], 0x65 /* 'e' */
label0000147E:
0000147E  7916                     moveq.l    D4, 0x16
00001480  0720                     btst       -[A0], D3
00001482  6B65                     bmi        +0x67 /* 000014E9 */
00001484  7970                     moveq.l    D4, 0x70
00001486  6164                     bsr        +0x66 /* 000014EC */
fn00001488:
00001488  4E56 FD64                link       A6, -0x029C
0000148C  48E7 1F00                movem.l    -[A7], D3,D4,D5,D6,D7
00001490  3F3C FFFF                move.w     -[A7], 0xFFFF
00001494  4267                     clr.w      -[A7]
00001496  201F                     move.l     D0, [A7]+
00001498  A032                     syscall    FlushEvents
0000149A  486E FFEC                pea.l      [A6 - 0x14]
0000149E  A874                     syscall    GetPort
000014A0  3F2D BB4C                move.w     -[A7], [A5 - 0x44B4]
000014A4  A998                     syscall    UseResFile
000014A6  594F                     subq.w     A7, 4
000014A8  3F3C 0089                move.w     -[A7], 0x89
000014AC  42A7                     clr.l      -[A7]
000014AE  70FF                     moveq.l    D0, 0xFFFFFFFF
000014B0  2F00                     move.l     -[A7], D0
000014B2  A97C                     syscall    GetNewDialog
000014B4  2D5F FEC6                move.l     [A6 - 0x13A], [A7]+
000014B8  206E FEC6                movea.l    A0, [A6 - 0x13A]
000014BC  41E8 0010                lea.l      A0, [A0 + 0x10]
000014C0  43EE FEBE                lea.l      A1, [A6 - 0x142]
000014C4  22D8                     move.l     [A1]+, [A0]+
000014C6  22D8                     move.l     [A1]+, [A0]+
000014C8  302D FF5A                move.w     D0, [A5 - 0xA6]
000014CC  906D FF56                sub.w      D0, [A5 - 0xAA]
000014D0  322E FEC2                move.w     D1, [A6 - 0x13E]
000014D4  926E FEBE                sub.w      D1, [A6 - 0x142]
000014D8  9041                     sub.w      D0, D1
label000014DA:
000014DA  48C0                     ext.l      D0
000014DC  81FC 0002                divs.w     D0, 0x2
000014E0  3D40 FEBE                move.w     [A6 - 0x142], D0
000014E4  302D FF5C                move.w     D0, [A5 - 0xA4]
// begin alternate branch 000014E6-000014E8
label000014E6:
000014E6  FF5C                     .extension 0xF5C <<F/4-5/7>> // unimplemented
// end alternate branch 000014E6-000014E8
label000014E6: // (misaligned)
000014E8  906D FF58                sub.w      D0, [A5 - 0xA8]
fn000014EC:
000014EC  322E FEC4                move.w     D1, [A6 - 0x13C]
000014F0  926E FEC0                sub.w      D1, [A6 - 0x140]
000014F4  9041                     sub.w      D0, D1
000014F6  48C0                     ext.l      D0
000014F8  81FC 0002                divs.w     D0, 0x2
000014FC  3D40 FEC0                move.w     [A6 - 0x140], D0
00001500  2F2E FEC6                move.l     -[A7], [A6 - 0x13A]
00001504  3F2E FEC0                move.w     -[A7], [A6 - 0x140]
00001508  3F2E FEBE                move.w     -[A7], [A6 - 0x142]
0000150C  1F3C 0001                move.b     -[A7], 0x1
00001510  A91B                     syscall    MoveWindow
00001512  2F2E FEC6                move.l     -[A7], [A6 - 0x13A]
00001516  A915                     syscall    ShowWindow
00001518  2F2E FEC6                move.l     -[A7], [A6 - 0x13A]
0000151C  A91F                     syscall    SelectWindow
0000151E  2F2E FEC6                move.l     -[A7], [A6 - 0x13A]
00001522  A873                     syscall    SetPort
00001524  382D BB56                move.w     D4, [A5 - 0x44AA]
00001528  3A2D BB58                move.w     D5, [A5 - 0x44A8]
0000152C  3C2D BB5A                move.w     D6, [A5 - 0x44A6]
00001530  362D BB5C                move.w     D3, [A5 - 0x44A4]
00001534  1D6D FD9C FE84           move.b     [A6 - 0x17C], [A5 - 0x264]
0000153A  3F3C 000C                move.w     -[A7], 0xC
0000153E  486D BB60                pea.l      [A5 - 0x44A0]
00001542  486E FEB0                pea.l      [A6 - 0x150]
00001546  4EAD 015A                jsr        [A5 + 0x15A /* export_39, CODE:1 @ 00000A28 */]
0000154A  3F3C 000C                move.w     -[A7], 0xC
0000154E  486D BB6E                pea.l      [A5 - 0x4492]
00001552  486E FEA2                pea.l      [A6 - 0x15E]
00001556  4EAD 015A                jsr        [A5 + 0x15A /* export_39, CODE:1 @ 00000A28 */]
0000155A  3F3C 000C                move.w     -[A7], 0xC
0000155E  486D BB7C                pea.l      [A5 - 0x4484]
00001562  486E FE94                pea.l      [A6 - 0x16C]
00001566  4EAD 015A                jsr        [A5 + 0x15A /* export_39, CODE:1 @ 00000A28 */]
0000156A  3F3C 000C                move.w     -[A7], 0xC
0000156E  486D BB8A                pea.l      [A5 - 0x4476]
00001572  486E FE86                pea.l      [A6 - 0x17A]
00001576  4EAD 015A                jsr        [A5 + 0x15A /* export_39, CODE:1 @ 00000A28 */]
0000157A  2F2E FEC6                move.l     -[A7], [A6 - 0x13A]
0000157E  3F3C 0007                move.w     -[A7], 0x7
00001582  486E FFEA                pea.l      [A6 - 0x16]
00001586  486E FECE                pea.l      [A6 - 0x132]
0000158A  486E FEBE                pea.l      [A6 - 0x142]
0000158E  A98D                     syscall    GetDialogItem/GetDItem
00001590  2F2E FECE                move.l     -[A7], [A6 - 0x132]
00001594  486E FEB0                pea.l      [A6 - 0x150]
00001598  A98F                     syscall    SetDialogItemText/SetIText
0000159A  2F2E FEC6                move.l     -[A7], [A6 - 0x13A]
0000159E  3F3C 0008                move.w     -[A7], 0x8
000015A2  486E FFEA                pea.l      [A6 - 0x16]
000015A6  486E FECE                pea.l      [A6 - 0x132]
000015AA  486E FEBE                pea.l      [A6 - 0x142]
000015AE  A98D                     syscall    GetDialogItem/GetDItem
000015B0  2F2E FECE                move.l     -[A7], [A6 - 0x132]
000015B4  486E FEA2                pea.l      [A6 - 0x15E]
000015B8  A98F                     syscall    SetDialogItemText/SetIText
000015BA  2F2E FEC6                move.l     -[A7], [A6 - 0x13A]
000015BE  3F3C 0009                move.w     -[A7], 0x9 /* '\t' */
000015C2  486E FFEA                pea.l      [A6 - 0x16]
000015C6  486E FECE                pea.l      [A6 - 0x132]
000015CA  486E FEBE                pea.l      [A6 - 0x142]
000015CE  A98D                     syscall    GetDialogItem/GetDItem
000015D0  2F2E FECE                move.l     -[A7], [A6 - 0x132]
000015D4  486E FE94                pea.l      [A6 - 0x16C]
000015D8  A98F                     syscall    SetDialogItemText/SetIText
000015DA  2F2E FEC6                move.l     -[A7], [A6 - 0x13A]
000015DE  3F3C 000A                move.w     -[A7], 0xA /* '\n' */
000015E2  486E FFEA                pea.l      [A6 - 0x16]
000015E6  486E FECE                pea.l      [A6 - 0x132]
000015EA  486E FEBE                pea.l      [A6 - 0x142]
000015EE  A98D                     syscall    GetDialogItem/GetDItem
000015F0  2F2E FECE                move.l     -[A7], [A6 - 0x132]
000015F4  486E FE86                pea.l      [A6 - 0x17A]
000015F8  A98F                     syscall    SetDialogItemText/SetIText
000015FA  4A2E FE84                tst.b      [A6 - 0x17C]
000015FE  6718                     beq        +0x1A /* 00001618 */
00001600  2F2E FEC6                move.l     -[A7], [A6 - 0x13A]
00001604  3F3C 000D                move.w     -[A7], 0xD /* '\r' */
00001608  486E FFEA                pea.l      [A6 - 0x16]
0000160C  486E FECE                pea.l      [A6 - 0x132]
00001610  486E FEBE                pea.l      [A6 - 0x142]
00001614  A98D                     syscall    GetDialogItem/GetDItem
00001616  6016                     bra        +0x18 /* 0000162E */
label00001618:
00001618  2F2E FEC6                move.l     -[A7], [A6 - 0x13A]
0000161C  3F3C 000C                move.w     -[A7], 0xC
00001620  486E FFEA                pea.l      [A6 - 0x16]
00001624  486E FECE                pea.l      [A6 - 0x132]
00001628  486E FEBE                pea.l      [A6 - 0x142]
0000162C  A98D                     syscall    GetDialogItem/GetDItem
label0000162E:
0000162E  2F2E FECE                move.l     -[A7], [A6 - 0x132]
00001632  3F3C 0001                move.w     -[A7], 0x1
00001636  A963                     syscall    SetControlValue/SetCtlValue
00001638  2F0E                     move.l     -[A7], A6
0000163A  4EBA F92E                jsr        [PC - 0x6D2 /* 00000F6A */]
0000163E  4207                     clr.b      D7
label00001640:
00001640  42A7                     clr.l      -[A7]
00001642  486E FFE8                pea.l      [A6 - 0x18]
00001646  A991                     syscall    ModalDialog
00001648  2F2E FEC6                move.l     -[A7], [A6 - 0x13A]
0000164C  3F2E FFE8                move.w     -[A7], [A6 - 0x18]
00001650  486E FFEA                pea.l      [A6 - 0x16]
00001654  486E FECE                pea.l      [A6 - 0x132]
00001658  486E FEBE                pea.l      [A6 - 0x142]
0000165C  A98D                     syscall    GetDialogItem/GetDItem
0000165E  0C6E 0003 FFE8           cmpi.w     [A6 - 0x18], 0x3
00001664  5CC0                     sge        D0
00001666  0C6E 0006 FFE8           cmpi.w     [A6 - 0x18], 0x6
0000166C  5FC1                     sle        D1
0000166E  C001                     and.b      D0, D1
00001670  6700 02AC                beq        +0x2AE /* 0000191E */
00001674  2F2E FEC6                move.l     -[A7], [A6 - 0x13A]
00001678  3F2E FFE8                move.w     -[A7], [A6 - 0x18]
0000167C  486E FFEA                pea.l      [A6 - 0x16]
00001680  486E FECE                pea.l      [A6 - 0x132]
00001684  486E FEBE                pea.l      [A6 - 0x142]
00001688  A98D                     syscall    GetDialogItem/GetDItem
0000168A  486E FEBE                pea.l      [A6 - 0x142]
0000168E  A8A4                     syscall    InvertRect
00001690  2F2E FEC6                move.l     -[A7], [A6 - 0x13A]
00001694  3F3C 000B                move.w     -[A7], 0xB
00001698  486E FFEA                pea.l      [A6 - 0x16]
0000169C  486E FECE                pea.l      [A6 - 0x132]
000016A0  486E FEBE                pea.l      [A6 - 0x142]
000016A4  A98D                     syscall    GetDialogItem/GetDItem
000016A6  2F2E FECE                move.l     -[A7], [A6 - 0x132]
000016AA  487A 06EA                pea.l      [PC + 0x6EA /* 00001D96, value 0x33546865 '3The', pstring "The next key you strike will control this function." */]
000016AE  A98F                     syscall    SetDialogItemText/SetIText
000016B0  486E FEBE                pea.l      [A6 - 0x142]
000016B4  A8A4                     syscall    InvertRect
label000016B6:
000016B6  554F                     subq.w     A7, 2
000016B8  A974                     syscall    Button
000016BA  101F                     move.b     D0, [A7]+
000016BC  5300                     subq.b     D0, 1
000016BE  67F6                     beq        -0x8 /* 000016B6 */
000016C0  3F3C FFFF                move.w     -[A7], 0xFFFF
000016C4  4267                     clr.w      -[A7]
000016C6  201F                     move.l     D0, [A7]+
000016C8  A032                     syscall    FlushEvents
label000016CA:
000016CA  554F                     subq.w     A7, 2
000016CC  3F3C 0008                move.w     -[A7], 0x8
000016D0  486D B8A2                pea.l      [A5 - 0x475E]
000016D4  A970                     syscall    GetNextEvent
000016D6  4A1F                     tst.b      [A7]+
000016D8  67F0                     beq        -0xE /* 000016CA */
000016DA  202D B8A4                move.l     D0, [A5 - 0x475C]
000016DE  0280 0000 FF00           andi.l     D0, 0xFF00
000016E4  2F00                     move.l     -[A7], D0
000016E6  2F3C 0000 00FF           move.l     -[A7], 0xFF
000016EC  4EAD 014A                jsr        [A5 + 0x14A /* export_37, CODE:1 @ 00000946 */]
000016F0  544F                     addq.w     A7, 2
000016F2  3D5F FFE4                move.w     [A6 - 0x1C], [A7]+
000016F6  202D B8A4                move.l     D0, [A5 - 0x475C]
000016FA  0280 0000 00FF           andi.l     D0, 0xFF
00001700  3D40 FFE2                move.w     [A6 - 0x1E], D0
00001704  3F3C FFFF                move.w     -[A7], 0xFFFF
00001708  4267                     clr.w      -[A7]
0000170A  201F                     move.l     D0, [A7]+
0000170C  A032                     syscall    FlushEvents
0000170E  486E FEBE                pea.l      [A6 - 0x142]
00001712  A8A4                     syscall    InvertRect
00001714  2F2E FEC6                move.l     -[A7], [A6 - 0x13A]
00001718  3F2E FFE8                move.w     -[A7], [A6 - 0x18]
0000171C  486E FFEA                pea.l      [A6 - 0x16]
00001720  486E FECE                pea.l      [A6 - 0x132]
00001724  486E FEBE                pea.l      [A6 - 0x142]
00001728  A98D                     syscall    GetDialogItem/GetDItem
0000172A  486E FEBE                pea.l      [A6 - 0x142]
0000172E  A8A4                     syscall    InvertRect
00001730  486E FE56                pea.l      [A6 - 0x1AA]
00001734  3F2E FFE4                move.w     -[A7], [A6 - 0x1C]
00001738  3F2E FFE2                move.w     -[A7], [A6 - 0x1E]
0000173C  2F0E                     move.l     -[A7], A6
0000173E  4EBA F880                jsr        [PC - 0x780 /* 00000FC0 */]
00001742  584F                     addq.w     A7, 4
00001744  3F3C 00FF                move.w     -[A7], 0xFF
00001748  486E FE56                pea.l      [A6 - 0x1AA]
0000174C  486E FED2                pea.l      [A6 - 0x12E]
00001750  4EAD 015A                jsr        [A5 + 0x15A /* export_39, CODE:1 @ 00000A28 */]
00001754  2F2E FEC6                move.l     -[A7], [A6 - 0x13A]
00001758  302E FFE8                move.w     D0, [A6 - 0x18]
0000175C  5840                     addq.w     D0, 4
0000175E  3F00                     move.w     -[A7], D0
00001760  486E FFEA                pea.l      [A6 - 0x16]
00001764  486E FECE                pea.l      [A6 - 0x132]
00001768  486E FEBE                pea.l      [A6 - 0x142]
0000176C  A98D                     syscall    GetDialogItem/GetDItem
0000176E  2F2E FECE                move.l     -[A7], [A6 - 0x132]
00001772  486E FED2                pea.l      [A6 - 0x12E]
00001776  A98F                     syscall    SetDialogItemText/SetIText
00001778  0CAE 0374 6162 FED2      cmpi.l     [A6 - 0x12E], 0x3746162
00001780  6600 00B6                bne        +0xB8 /* 00001838 */
00001784  3F3C 0003                move.w     -[A7], 0x3
00001788  A9C8                     syscall    SysBeep
0000178A  2F2E FEC6                move.l     -[A7], [A6 - 0x13A]
0000178E  3F3C 000B                move.w     -[A7], 0xB
00001792  486E FFEA                pea.l      [A6 - 0x16]
00001796  486E FECE                pea.l      [A6 - 0x132]
0000179A  486E FEBE                pea.l      [A6 - 0x142]
0000179E  A98D                     syscall    GetDialogItem/GetDItem
000017A0  2F2E FECE                move.l     -[A7], [A6 - 0x132]
000017A4  487A 05C4                pea.l      [PC + 0x5C4 /* 00001D6A, value 0x2B546865 '+The', pstring "The TAB key is reserved for pausing Glider." */]
000017A8  A98F                     syscall    SetDialogItemText/SetIText
000017AA  2F3C 0000 00B4           move.l     -[A7], 0xB4
000017B0  486E FFD2                pea.l      [A6 - 0x2E]
000017B4  4EAD 008A                jsr        [A5 + 0x8A /* export_13, CODE:1 @ 00000308 */]
000017B8  302E FFE8                move.w     D0, [A6 - 0x18]
000017BC  6036                     bra        +0x38 /* 000017F4 */
label000017BE:
000017BE  3F3C 00FF                move.w     -[A7], 0xFF
000017C2  486E FEB0                pea.l      [A6 - 0x150]
000017C6  486E FED2                pea.l      [A6 - 0x12E]
000017CA  4EAD 015A                jsr        [A5 + 0x15A /* export_39, CODE:1 @ 00000A28 */]
000017CE  6040                     bra        +0x42 /* 00001810 */
label000017D0:
000017D0  3F3C 00FF                move.w     -[A7], 0xFF
000017D4  486E FEA2                pea.l      [A6 - 0x15E]
000017D8  486E FED2                pea.l      [A6 - 0x12E]
000017DC  4EAD 015A                jsr        [A5 + 0x15A /* export_39, CODE:1 @ 00000A28 */]
000017E0  602E                     bra        +0x30 /* 00001810 */
label000017E2:
000017E2  3F3C 00FF                move.w     -[A7], 0xFF
000017E6  486E FE94                pea.l      [A6 - 0x16C]
000017EA  486E FED2                pea.l      [A6 - 0x12E]
000017EE  4EAD 015A                jsr        [A5 + 0x15A /* export_39, CODE:1 @ 00000A28 */]
000017F2  601C                     bra        +0x1E /* 00001810 */
label000017F4:
000017F4  5740                     subq.w     D0, 3
000017F6  67C6                     beq        -0x38 /* 000017BE */
000017F8  5340                     subq.w     D0, 1
000017FA  67D4                     beq        -0x2A /* 000017D0 */
000017FC  5340                     subq.w     D0, 1
000017FE  67E2                     beq        -0x1C /* 000017E2 */
00001800  3F3C 00FF                move.w     -[A7], 0xFF
00001804  486E FE86                pea.l      [A6 - 0x17A]
00001808  486E FED2                pea.l      [A6 - 0x12E]
0000180C  4EAD 015A                jsr        [A5 + 0x15A /* export_39, CODE:1 @ 00000A28 */]
label00001810:
00001810  2F2E FEC6                move.l     -[A7], [A6 - 0x13A]
00001814  302E FFE8                move.w     D0, [A6 - 0x18]
00001818  5840                     addq.w     D0, 4
0000181A  3F00                     move.w     -[A7], D0
0000181C  486E FFEA                pea.l      [A6 - 0x16]
00001820  486E FECE                pea.l      [A6 - 0x132]
00001824  486E FEBE                pea.l      [A6 - 0x142]
00001828  A98D                     syscall    GetDialogItem/GetDItem
0000182A  2F2E FECE                move.l     -[A7], [A6 - 0x132]
0000182E  486E FED2                pea.l      [A6 - 0x12E]
00001832  A98F                     syscall    SetDialogItemText/SetIText
00001834  6000 00C8                bra        +0xCA /* 000018FE */
label00001838:
00001838  302E FFE8                move.w     D0, [A6 - 0x18]
0000183C  6000 0088                bra        +0x8A /* 000018C6 */
label00001840:
00001840  382E FFE4                move.w     D4, [A6 - 0x1C]
00001844  486E FD64                pea.l      [A6 - 0x29C]
00001848  486E FED2                pea.l      [A6 - 0x12E]
0000184C  3F3C 0001                move.w     -[A7], 0x1
00001850  3F3C 000C                move.w     -[A7], 0xC
00001854  4EAD 013A                jsr        [A5 + 0x13A /* export_35, CODE:1 @ 000007F6 */]
00001858  584F                     addq.w     A7, 4
0000185A  3F3C 000C                move.w     -[A7], 0xC
0000185E  486E FD64                pea.l      [A6 - 0x29C]
00001862  486E FEB0                pea.l      [A6 - 0x150]
00001866  4EAD 015A                jsr        [A5 + 0x15A /* export_39, CODE:1 @ 00000A28 */]
0000186A  6000 0092                bra        +0x94 /* 000018FE */
label0000186E:
0000186E  3A2E FFE4                move.w     D5, [A6 - 0x1C]
00001872  486E FD64                pea.l      [A6 - 0x29C]
00001876  486E FED2                pea.l      [A6 - 0x12E]
0000187A  3F3C 0001                move.w     -[A7], 0x1
0000187E  3F3C 000C                move.w     -[A7], 0xC
00001882  4EAD 013A                jsr        [A5 + 0x13A /* export_35, CODE:1 @ 000007F6 */]
00001886  584F                     addq.w     A7, 4
00001888  3F3C 000C                move.w     -[A7], 0xC
0000188C  486E FD64                pea.l      [A6 - 0x29C]
00001890  486E FEA2                pea.l      [A6 - 0x15E]
00001894  4EAD 015A                jsr        [A5 + 0x15A /* export_39, CODE:1 @ 00000A28 */]
00001898  6064                     bra        +0x66 /* 000018FE */
label0000189A:
0000189A  3C2E FFE4                move.w     D6, [A6 - 0x1C]
0000189E  486E FD64                pea.l      [A6 - 0x29C]
000018A2  486E FED2                pea.l      [A6 - 0x12E]
000018A6  3F3C 0001                move.w     -[A7], 0x1
000018AA  3F3C 000C                move.w     -[A7], 0xC
000018AE  4EAD 013A                jsr        [A5 + 0x13A /* export_35, CODE:1 @ 000007F6 */]
000018B2  584F                     addq.w     A7, 4
000018B4  3F3C 000C                move.w     -[A7], 0xC
000018B8  486E FD64                pea.l      [A6 - 0x29C]
000018BC  486E FE94                pea.l      [A6 - 0x16C]
000018C0  4EAD 015A                jsr        [A5 + 0x15A /* export_39, CODE:1 @ 00000A28 */]
000018C4  6038                     bra        +0x3A /* 000018FE */
label000018C6:
000018C6  5740                     subq.w     D0, 3
000018C8  6700 FF76                beq        -0x88 /* 00001840 */
000018CC  5340                     subq.w     D0, 1
000018CE  679E                     beq        -0x60 /* 0000186E */
000018D0  5340                     subq.w     D0, 1
000018D2  67C6                     beq        -0x38 /* 0000189A */
000018D4  362E FFE4                move.w     D3, [A6 - 0x1C]
000018D8  486E FD64                pea.l      [A6 - 0x29C]
000018DC  486E FED2                pea.l      [A6 - 0x12E]
000018E0  3F3C 0001                move.w     -[A7], 0x1
000018E4  3F3C 000C                move.w     -[A7], 0xC
000018E8  4EAD 013A                jsr        [A5 + 0x13A /* export_35, CODE:1 @ 000007F6 */]
000018EC  584F                     addq.w     A7, 4
000018EE  3F3C 000C                move.w     -[A7], 0xC
000018F2  486E FD64                pea.l      [A6 - 0x29C]
000018F6  486E FE86                pea.l      [A6 - 0x17A]
000018FA  4EAD 015A                jsr        [A5 + 0x15A /* export_39, CODE:1 @ 00000A28 */]
label000018FE:
000018FE  2F2E FEC6                move.l     -[A7], [A6 - 0x13A]
00001902  3F3C 000B                move.w     -[A7], 0xB
00001906  486E FFEA                pea.l      [A6 - 0x16]
0000190A  486E FECE                pea.l      [A6 - 0x132]
0000190E  486E FEBE                pea.l      [A6 - 0x142]
00001912  A98D                     syscall    GetDialogItem/GetDItem
00001914  2F2E FECE                move.l     -[A7], [A6 - 0x132]
00001918  487A 0420                pea.l      [PC + 0x420 /* 00001D3A, value 0x2F436C69 '/Cli', pstring "Click on an icon to change its controlling key." */]
0000191C  A98F                     syscall    SetDialogItemText/SetIText
label0000191E:
0000191E  0C6E 000C FFE8           cmpi.w     [A6 - 0x18], 0xC
00001924  6642                     bne        +0x44 /* 00001968 */
00001926  422E FE84                clr.b      [A6 - 0x17C]
0000192A  2F2E FEC6                move.l     -[A7], [A6 - 0x13A]
0000192E  3F3C 000C                move.w     -[A7], 0xC
00001932  486E FFEA                pea.l      [A6 - 0x16]
00001936  486E FECE                pea.l      [A6 - 0x132]
0000193A  486E FEBE                pea.l      [A6 - 0x142]
0000193E  A98D                     syscall    GetDialogItem/GetDItem
00001940  2F2E FECE                move.l     -[A7], [A6 - 0x132]
00001944  3F3C 0001                move.w     -[A7], 0x1
00001948  A963                     syscall    SetControlValue/SetCtlValue
0000194A  2F2E FEC6                move.l     -[A7], [A6 - 0x13A]
0000194E  3F3C 000D                move.w     -[A7], 0xD /* '\r' */
00001952  486E FFEA                pea.l      [A6 - 0x16]
00001956  486E FECE                pea.l      [A6 - 0x132]
0000195A  486E FEBE                pea.l      [A6 - 0x142]
0000195E  A98D                     syscall    GetDialogItem/GetDItem
00001960  2F2E FECE                move.l     -[A7], [A6 - 0x132]
00001964  4267                     clr.w      -[A7]
00001966  A963                     syscall    SetControlValue/SetCtlValue
label00001968:
00001968  0C6E 000D FFE8           cmpi.w     [A6 - 0x18], 0xD /* '\r' */
0000196E  6644                     bne        +0x46 /* 000019B4 */
00001970  1D7C 0001 FE84           move.b     [A6 - 0x17C], 0x1
00001976  2F2E FEC6                move.l     -[A7], [A6 - 0x13A]
0000197A  3F3C 000D                move.w     -[A7], 0xD /* '\r' */
0000197E  486E FFEA                pea.l      [A6 - 0x16]
00001982  486E FECE                pea.l      [A6 - 0x132]
00001986  486E FEBE                pea.l      [A6 - 0x142]
0000198A  A98D                     syscall    GetDialogItem/GetDItem
0000198C  2F2E FECE                move.l     -[A7], [A6 - 0x132]
00001990  3F3C 0001                move.w     -[A7], 0x1
00001994  A963                     syscall    SetControlValue/SetCtlValue
00001996  2F2E FEC6                move.l     -[A7], [A6 - 0x13A]
0000199A  3F3C 000C                move.w     -[A7], 0xC
0000199E  486E FFEA                pea.l      [A6 - 0x16]
000019A2  486E FECE                pea.l      [A6 - 0x132]
000019A6  486E FEBE                pea.l      [A6 - 0x142]
000019AA  A98D                     syscall    GetDialogItem/GetDItem
000019AC  2F2E FECE                move.l     -[A7], [A6 - 0x132]
000019B0  4267                     clr.w      -[A7]
000019B2  A963                     syscall    SetControlValue/SetCtlValue
label000019B4:
000019B4  0C6E 0001 FFE8           cmpi.w     [A6 - 0x18], 0x1
000019BA  6600 0224                bne        +0x226 /* 00001BE0 */
000019BE  7E01                     moveq.l    D7, 0x01
000019C0  B845                     cmp.w      D4, D5
000019C2  57C0                     seq        D0
000019C4  B846                     cmp.w      D4, D6
000019C6  57C1                     seq        D1
000019C8  8001                     or.b       D0, D1
000019CA  B843                     cmp.w      D4, D3
000019CC  57C1                     seq        D1
000019CE  8001                     or.b       D0, D1
000019D0  6700 008C                beq        +0x8E /* 00001A5E */
000019D4  3F3C 0003                move.w     -[A7], 0x3
000019D8  A9C8                     syscall    SysBeep
000019DA  382D BB56                move.w     D4, [A5 - 0x44AA]
000019DE  3F3C 000C                move.w     -[A7], 0xC
000019E2  486D BB60                pea.l      [A5 - 0x44A0]
000019E6  486E FEB0                pea.l      [A6 - 0x150]
000019EA  4EAD 015A                jsr        [A5 + 0x15A /* export_39, CODE:1 @ 00000A28 */]
000019EE  2F2E FEC6                move.l     -[A7], [A6 - 0x13A]
000019F2  3F3C 0007                move.w     -[A7], 0x7
000019F6  486E FFEA                pea.l      [A6 - 0x16]
000019FA  486E FECE                pea.l      [A6 - 0x132]
000019FE  486E FEBE                pea.l      [A6 - 0x142]
00001A02  A98D                     syscall    GetDialogItem/GetDItem
00001A04  2F2E FECE                move.l     -[A7], [A6 - 0x132]
00001A08  486E FEB0                pea.l      [A6 - 0x150]
00001A0C  A98F                     syscall    SetDialogItemText/SetIText
00001A0E  2F2E FEC6                move.l     -[A7], [A6 - 0x13A]
00001A12  3F3C 000B                move.w     -[A7], 0xB
00001A16  486E FFEA                pea.l      [A6 - 0x16]
00001A1A  486E FECE                pea.l      [A6 - 0x132]
00001A1E  486E FEBE                pea.l      [A6 - 0x142]
00001A22  A98D                     syscall    GetDialogItem/GetDItem
00001A24  2F2E FECE                move.l     -[A7], [A6 - 0x132]
00001A28  487A 02DA                pea.l      [PC + 0x2DA /* 00001D04, value 0x34596F75 '4You', pstring "Your Left Key has been assigned to another function." */]
00001A2C  A98F                     syscall    SetDialogItemText/SetIText
00001A2E  2F3C 0000 00B4           move.l     -[A7], 0xB4
00001A34  486E FFD2                pea.l      [A6 - 0x2E]
00001A38  4EAD 008A                jsr        [A5 + 0x8A /* export_13, CODE:1 @ 00000308 */]
00001A3C  2F2E FEC6                move.l     -[A7], [A6 - 0x13A]
00001A40  3F3C 000B                move.w     -[A7], 0xB
00001A44  486E FFEA                pea.l      [A6 - 0x16]
00001A48  486E FECE                pea.l      [A6 - 0x132]
00001A4C  486E FEBE                pea.l      [A6 - 0x142]
00001A50  A98D                     syscall    GetDialogItem/GetDItem
00001A52  2F2E FECE                move.l     -[A7], [A6 - 0x132]
00001A56  487A 027C                pea.l      [PC + 0x27C /* 00001CD4, value 0x2F436C69 '/Cli', pstring "Click on an icon to change its controlling key." */]
00001A5A  A98F                     syscall    SetDialogItemText/SetIText
00001A5C  4207                     clr.b      D7
label00001A5E:
00001A5E  BA46                     cmp.w      D5, D6
00001A60  57C0                     seq        D0
00001A62  BA43                     cmp.w      D5, D3
00001A64  57C1                     seq        D1
00001A66  8001                     or.b       D0, D1
00001A68  6700 008C                beq        +0x8E /* 00001AF6 */
00001A6C  3F3C 0003                move.w     -[A7], 0x3
00001A70  A9C8                     syscall    SysBeep
00001A72  3A2D BB58                move.w     D5, [A5 - 0x44A8]
00001A76  3F3C 000C                move.w     -[A7], 0xC
00001A7A  486D BB6E                pea.l      [A5 - 0x4492]
00001A7E  486E FEA2                pea.l      [A6 - 0x15E]
00001A82  4EAD 015A                jsr        [A5 + 0x15A /* export_39, CODE:1 @ 00000A28 */]
00001A86  2F2E FEC6                move.l     -[A7], [A6 - 0x13A]
00001A8A  3F3C 0008                move.w     -[A7], 0x8
00001A8E  486E FFEA                pea.l      [A6 - 0x16]
00001A92  486E FECE                pea.l      [A6 - 0x132]
00001A96  486E FEBE                pea.l      [A6 - 0x142]
00001A9A  A98D                     syscall    GetDialogItem/GetDItem
00001A9C  2F2E FECE                move.l     -[A7], [A6 - 0x132]
00001AA0  486E FEA2                pea.l      [A6 - 0x15E]
00001AA4  A98F                     syscall    SetDialogItemText/SetIText
00001AA6  2F2E FEC6                move.l     -[A7], [A6 - 0x13A]
00001AAA  3F3C 000B                move.w     -[A7], 0xB
00001AAE  486E FFEA                pea.l      [A6 - 0x16]
00001AB2  486E FECE                pea.l      [A6 - 0x132]
00001AB6  486E FEBE                pea.l      [A6 - 0x142]
00001ABA  A98D                     syscall    GetDialogItem/GetDItem
00001ABC  2F2E FECE                move.l     -[A7], [A6 - 0x132]
00001AC0  487A 01DC                pea.l      [PC + 0x1DC /* 00001C9E, value 0x35596F75 '5You', pstring "Your Right Key has been assigned to another function." */]
00001AC4  A98F                     syscall    SetDialogItemText/SetIText
00001AC6  2F3C 0000 00B4           move.l     -[A7], 0xB4
00001ACC  486E FFD2                pea.l      [A6 - 0x2E]
00001AD0  4EAD 008A                jsr        [A5 + 0x8A /* export_13, CODE:1 @ 00000308 */]
00001AD4  2F2E FEC6                move.l     -[A7], [A6 - 0x13A]
00001AD8  3F3C 000B                move.w     -[A7], 0xB
00001ADC  486E FFEA                pea.l      [A6 - 0x16]
00001AE0  486E FECE                pea.l      [A6 - 0x132]
00001AE4  486E FEBE                pea.l      [A6 - 0x142]
00001AE8  A98D                     syscall    GetDialogItem/GetDItem
00001AEA  2F2E FECE                move.l     -[A7], [A6 - 0x132]
00001AEE  487A 017E                pea.l      [PC + 0x17E /* 00001C6E, value 0x2F436C69 '/Cli', pstring "Click on an icon to change its controlling key." */]
00001AF2  A98F                     syscall    SetDialogItemText/SetIText
00001AF4  4207                     clr.b      D7
label00001AF6:
00001AF6  BC43                     cmp.w      D6, D3
00001AF8  6600 008C                bne        +0x8E /* 00001B86 */
00001AFC  3F3C 0003                move.w     -[A7], 0x3
00001B00  A9C8                     syscall    SysBeep
00001B02  3C2D BB5A                move.w     D6, [A5 - 0x44A6]
00001B06  3F3C 000C                move.w     -[A7], 0xC
00001B0A  486D BB7C                pea.l      [A5 - 0x4484]
00001B0E  486E FE94                pea.l      [A6 - 0x16C]
00001B12  4EAD 015A                jsr        [A5 + 0x15A /* export_39, CODE:1 @ 00000A28 */]
00001B16  2F2E FEC6                move.l     -[A7], [A6 - 0x13A]
00001B1A  3F3C 0009                move.w     -[A7], 0x9 /* '\t' */
00001B1E  486E FFEA                pea.l      [A6 - 0x16]
00001B22  486E FECE                pea.l      [A6 - 0x132]
00001B26  486E FEBE                pea.l      [A6 - 0x142]
00001B2A  A98D                     syscall    GetDialogItem/GetDItem
00001B2C  2F2E FECE                move.l     -[A7], [A6 - 0x132]
00001B30  486E FE94                pea.l      [A6 - 0x16C]
00001B34  A98F                     syscall    SetDialogItemText/SetIText
00001B36  2F2E FEC6                move.l     -[A7], [A6 - 0x13A]
00001B3A  3F3C 000B                move.w     -[A7], 0xB
00001B3E  486E FFEA                pea.l      [A6 - 0x16]
00001B42  486E FECE                pea.l      [A6 - 0x132]
00001B46  486E FEBE                pea.l      [A6 - 0x142]
00001B4A  A98D                     syscall    GetDialogItem/GetDItem
00001B4C  2F2E FECE                move.l     -[A7], [A6 - 0x132]
00001B50  487A 00E2                pea.l      [PC + 0xE2 /* 00001C34, value 0x38596F75 '8You', pstring "Your Energize Key has been assigned to another function." */]
00001B54  A98F                     syscall    SetDialogItemText/SetIText
00001B56  2F3C 0000 00B4           move.l     -[A7], 0xB4
00001B5C  486E FFD2                pea.l      [A6 - 0x2E]
00001B60  4EAD 008A                jsr        [A5 + 0x8A /* export_13, CODE:1 @ 00000308 */]
00001B64  2F2E FEC6                move.l     -[A7], [A6 - 0x13A]
00001B68  3F3C 000B                move.w     -[A7], 0xB
00001B6C  486E FFEA                pea.l      [A6 - 0x16]
00001B70  486E FECE                pea.l      [A6 - 0x132]
00001B74  486E FEBE                pea.l      [A6 - 0x142]
00001B78  A98D                     syscall    GetDialogItem/GetDItem
00001B7A  2F2E FECE                move.l     -[A7], [A6 - 0x132]
00001B7E  487A 0084                pea.l      [PC + 0x84 /* 00001C04, value 0x2F436C69 '/Cli', pstring "Click on an icon to change its controlling key." */]
00001B82  A98F                     syscall    SetDialogItemText/SetIText
00001B84  4207                     clr.b      D7
label00001B86:
00001B86  4A07                     tst.b      D7
00001B88  6756                     beq        +0x58 /* 00001BE0 */
00001B8A  3B44 BB56                move.w     [A5 - 0x44AA], D4
00001B8E  3B45 BB58                move.w     [A5 - 0x44A8], D5
00001B92  3B46 BB5A                move.w     [A5 - 0x44A6], D6
00001B96  3B43 BB5C                move.w     [A5 - 0x44A4], D3
00001B9A  1B6E FE84 FD9C           move.b     [A5 - 0x264], [A6 - 0x17C]
00001BA0  3F3C 000C                move.w     -[A7], 0xC
00001BA4  486E FEB0                pea.l      [A6 - 0x150]
00001BA8  486D BB60                pea.l      [A5 - 0x44A0]
00001BAC  4EAD 015A                jsr        [A5 + 0x15A /* export_39, CODE:1 @ 00000A28 */]
00001BB0  3F3C 000C                move.w     -[A7], 0xC
00001BB4  486E FEA2                pea.l      [A6 - 0x15E]
00001BB8  486D BB6E                pea.l      [A5 - 0x4492]
00001BBC  4EAD 015A                jsr        [A5 + 0x15A /* export_39, CODE:1 @ 00000A28 */]
00001BC0  3F3C 000C                move.w     -[A7], 0xC
00001BC4  486E FE94                pea.l      [A6 - 0x16C]
00001BC8  486D BB7C                pea.l      [A5 - 0x4484]
00001BCC  4EAD 015A                jsr        [A5 + 0x15A /* export_39, CODE:1 @ 00000A28 */]
00001BD0  3F3C 000C                move.w     -[A7], 0xC
00001BD4  486E FE86                pea.l      [A6 - 0x17A]
00001BD8  486D BB8A                pea.l      [A5 - 0x4476]
00001BDC  4EAD 015A                jsr        [A5 + 0x15A /* export_39, CODE:1 @ 00000A28 */]
label00001BE0:
00001BE0  0C6E 0002 FFE8           cmpi.w     [A6 - 0x18], 0x2
00001BE6  6602                     bne        +0x4 /* 00001BEA */
00001BE8  7E01                     moveq.l    D7, 0x01
label00001BEA:
00001BEA  4A07                     tst.b      D7
00001BEC  6700 FA52                beq        -0x5AC /* 00001640 */
00001BF0  2F2E FFEC                move.l     -[A7], [A6 - 0x14]
00001BF4  A873                     syscall    SetPort
00001BF6  2F2E FEC6                move.l     -[A7], [A6 - 0x13A]
00001BFA  A983                     syscall    DisposeDialog
00001BFC  4CDF 00F8                movem.l    D3,D4,D5,D6,D7, [A7]+
00001C00  4E5E                     unlink     A6
00001C02  4E75                     rts
00001C04  2F43 6C69                move.l     [A7 + 0x6C69], D3
00001C08  636B                     bls        +0x6D /* 00001C75 */
00001C0A  206F 6E20                movea.l    A0, [A7 + 0x6E20]
00001C0E  616E                     bsr        +0x70 /* 00001C7E */
00001C10  2069 636F                movea.l    A0, [A1 + 0x636F]
00001C14  6E20                     bgt        +0x22 /* 00001C36 */
00001C16  746F                     moveq.l    D2, 0x6F
00001C18  2063                     movea.l    A0, -[A3]
00001C1A  6861                     bvc        +0x63 /* 00001C7D */
00001C1C  6E67                     bgt        +0x69 /* 00001C85 */
00001C1E  6520                     bcs        +0x22 /* 00001C40 */
00001C20  6974                     bvs        +0x76 /* 00001C96 */
00001C22  7320                     moveq.l    D1, 0x20
00001C24  636F                     bls        +0x71 /* 00001C95 */
00001C26  6E74                     bgt        +0x76 /* 00001C9C */
00001C28  726F                     moveq.l    D1, 0x6F
00001C2A  6C6C                     bge        +0x6E /* 00001C98 */
00001C2C  696E                     bvs        +0x70 /* 00001C9C */
00001C2E  6720                     beq        +0x22 /* 00001C50 */
00001C30  6B65                     bmi        +0x67 /* 00001C97 */
00001C32  792E                     moveq.l    D4, 0x2E
00001C34  3859                     movea.w    A4, [A1]+
label00001C36:
00001C36  6F75                     ble        +0x77 /* 00001CAD */
00001C38  7220                     moveq.l    D1, 0x20
00001C3A  456E 6572                chk.w      D2, [A6 + 0x6572]
00001C3E  6769                     beq        +0x6B /* 00001CA9 */
label00001C40:
00001C40  7A65                     moveq.l    D5, 0x65
00001C42  204B                     movea.l    A0, A3
00001C44  6579                     bcs        +0x7B /* 00001CBF */
00001C46  2068 6173                movea.l    A0, [A0 + 0x6173]
00001C4A  2062                     movea.l    A0, -[A2]
00001C4C  6565                     bcs        +0x67 /* 00001CB3 */
00001C4E  6E20                     bgt        +0x22 /* 00001C70 */
label00001C50:
00001C50  6173                     bsr        +0x75 /* 00001CC5 */
00001C52  7369                     moveq.l    D1, 0x69
00001C54  676E                     beq        +0x70 /* 00001CC4 */
00001C56  6564                     bcs        +0x66 /* 00001CBC */
00001C58  2074 6F20 616E           movea.l    A0, [A4 + 0x616E + D6 * 8]
00001C5E  6F74                     ble        +0x76 /* 00001CD4 */
00001C60  6865                     bvc        +0x67 /* 00001CC7 */
00001C62  7220                     moveq.l    D1, 0x20
00001C64  6675                     bne        +0x77 /* 00001CDB */
00001C66  6E63                     bgt        +0x65 /* 00001CCB */
00001C68  7469                     moveq.l    D2, 0x69
00001C6A  6F6E                     ble        +0x70 /* 00001CDA */
00001C6C  2E16                     move.l     D7, [A6]
00001C6E  2F43 6C69                move.l     [A7 + 0x6C69], D3
// begin alternate branch 00001C70-00001C72
label00001C70:
00001C70  6C69                     bge        +0x6B /* 00001CDB */
// end alternate branch 00001C70-00001C72
label00001C70: // (misaligned)
00001C72  636B                     bls        +0x6D /* 00001CDF */
00001C74  206F 6E20                movea.l    A0, [A7 + 0x6E20]
00001C78  616E                     bsr        +0x70 /* 00001CE8 */
00001C7A  2069 636F                movea.l    A0, [A1 + 0x636F]
fn00001C7E:
00001C7E  6E20                     bgt        +0x22 /* 00001CA0 */
00001C80  746F                     moveq.l    D2, 0x6F
00001C82  2063                     movea.l    A0, -[A3]
00001C84  6861                     bvc        +0x63 /* 00001CE7 */
00001C86  6E67                     bgt        +0x69 /* 00001CEF */
00001C88  6520                     bcs        +0x22 /* 00001CAA */
00001C8A  6974                     bvs        +0x76 /* 00001D00 */
00001C8C  7320                     moveq.l    D1, 0x20
00001C8E  636F                     bls        +0x71 /* 00001CFF */
00001C90  6E74                     bgt        +0x76 /* 00001D06 */
00001C92  726F                     moveq.l    D1, 0x6F
00001C94  6C6C                     bge        +0x6E /* 00001D02 */
label00001C96:
00001C96  696E                     bvs        +0x70 /* 00001D06 */
label00001C98:
00001C98  6720                     beq        +0x22 /* 00001CBA */
00001C9A  6B65                     bmi        +0x67 /* 00001D01 */
label00001C9C:
00001C9C  792E                     moveq.l    D4, 0x2E
00001C9E  3559 6F75                move.w     [A2 + 0x6F75], [A1]+
// begin alternate branch 00001CA0-00001CA2
label00001CA0:
00001CA0  6F75                     ble        +0x77 /* 00001D17 */
// end alternate branch 00001CA0-00001CA2
label00001CA0: // (misaligned)
00001CA2  7220                     moveq.l    D1, 0x20
00001CA4  5269 6768                addq.w     [A1 + 0x6768], 1
00001CA8  7420                     moveq.l    D2, 0x20
label00001CAA:
00001CAA  4B65                     chk.w      D5, -[A5]
00001CAC  7920                     moveq.l    D4, 0x20
00001CAE  6861                     bvc        +0x63 /* 00001D11 */
00001CB0  7320                     moveq.l    D1, 0x20
00001CB2  6265                     bhi        +0x67 /* 00001D19 */
00001CB4  656E                     bcs        +0x70 /* 00001D24 */
00001CB6  2061                     movea.l    A0, -[A1]
00001CB8  7373                     moveq.l    D1, 0x73
label00001CBA:
00001CBA  6967                     bvs        +0x69 /* 00001D23 */
label00001CBC:
00001CBC  6E65                     bgt        +0x67 /* 00001D23 */
00001CBE  6420                     bcc        +0x22 /* 00001CE0 */
00001CC0  746F                     moveq.l    D2, 0x6F
00001CC2  2061                     movea.l    A0, -[A1]
label00001CC4:
00001CC4  6E6F                     bgt        +0x71 /* 00001D35 */
00001CC6  7468                     moveq.l    D2, 0x68
00001CC8  6572                     bcs        +0x74 /* 00001D3C */
00001CCA  2066                     movea.l    A0, -[A6]
00001CCC  756E                     moveq.l    D2, 0x6E
00001CCE  6374                     bls        +0x76 /* 00001D44 */
00001CD0  696F                     bvs        +0x71 /* 00001D41 */
00001CD2  6E2E                     bgt        +0x30 /* 00001D02 */
label00001CD4:
00001CD4  2F43 6C69                move.l     [A7 + 0x6C69], D3
00001CD8  636B                     bls        +0x6D /* 00001D45 */
label00001CDA:
00001CDA  206F 6E20                movea.l    A0, [A7 + 0x6E20]
00001CDE  616E                     bsr        +0x70 /* 00001D4E */
label00001CE0:
00001CE0  2069 636F                movea.l    A0, [A1 + 0x636F]
00001CE4  6E20                     bgt        +0x22 /* 00001D06 */
00001CE6  746F                     moveq.l    D2, 0x6F
fn00001CE8:
00001CE8  2063                     movea.l    A0, -[A3]
00001CEA  6861                     bvc        +0x63 /* 00001D4D */
00001CEC  6E67                     bgt        +0x69 /* 00001D55 */
00001CEE  6520                     bcs        +0x22 /* 00001D10 */
00001CF0  6974                     bvs        +0x76 /* 00001D66 */
00001CF2  7320                     moveq.l    D1, 0x20
00001CF4  636F                     bls        +0x71 /* 00001D65 */
00001CF6  6E74                     bgt        +0x76 /* 00001D6C */
00001CF8  726F                     moveq.l    D1, 0x6F
00001CFA  6C6C                     bge        +0x6E /* 00001D68 */
00001CFC  696E                     bvs        +0x70 /* 00001D6C */
00001CFE  6720                     beq        +0x22 /* 00001D20 */
label00001D00:
00001D00  6B65                     bmi        +0x67 /* 00001D67 */
label00001D02:
00001D02  792E                     moveq.l    D4, 0x2E
00001D04  3459                     movea.w    A2, [A1]+
label00001D06:
00001D06  6F75                     ble        +0x77 /* 00001D7D */
00001D08  7220                     moveq.l    D1, 0x20
00001D0A  4C65 6674                divul.l    D4:D6, -[A5]
00001D0E  204B                     movea.l    A0, A3
label00001D10:
00001D10  6579                     bcs        +0x7B /* 00001D8B */
00001D12  2068 6173                movea.l    A0, [A0 + 0x6173]
00001D16  2062                     movea.l    A0, -[A2]
00001D18  6565                     bcs        +0x67 /* 00001D7F */
00001D1A  6E20                     bgt        +0x22 /* 00001D3C */
00001D1C  6173                     bsr        +0x75 /* 00001D91 */
00001D1E  7369                     moveq.l    D1, 0x69
label00001D20:
00001D20  676E                     beq        +0x70 /* 00001D90 */
00001D22  6564                     bcs        +0x66 /* 00001D88 */
label00001D24:
00001D24  2074 6F20 616E           movea.l    A0, [A4 + 0x616E + D6 * 8]
00001D2A  6F74                     ble        +0x76 /* 00001DA0 */
00001D2C  6865                     bvc        +0x67 /* 00001D93 */
00001D2E  7220                     moveq.l    D1, 0x20
00001D30  6675                     bne        +0x77 /* 00001DA7 */
00001D32  6E63                     bgt        +0x65 /* 00001D97 */
00001D34  7469                     moveq.l    D2, 0x69
00001D36  6F6E                     ble        +0x70 /* 00001DA6 */
00001D38  2E16                     move.l     D7, [A6]
00001D3A  2F43 6C69                move.l     [A7 + 0x6C69], D3
// begin alternate branch 00001D3C-00001D3E
label00001D3C:
00001D3C  6C69                     bge        +0x6B /* 00001DA7 */
// end alternate branch 00001D3C-00001D3E
label00001D3C: // (misaligned)
00001D3E  636B                     bls        +0x6D /* 00001DAB */
00001D40  206F 6E20                movea.l    A0, [A7 + 0x6E20]
label00001D44:
00001D44  616E                     bsr        +0x70 /* 00001DB4 */
00001D46  2069 636F                movea.l    A0, [A1 + 0x636F]
00001D4A  6E20                     bgt        +0x22 /* 00001D6C */
00001D4C  746F                     moveq.l    D2, 0x6F
fn00001D4E:
00001D4E  2063                     movea.l    A0, -[A3]
00001D50  6861                     bvc        +0x63 /* 00001DB3 */
00001D52  6E67                     bgt        +0x69 /* 00001DBB */
00001D54  6520                     bcs        +0x22 /* 00001D76 */
00001D56  6974                     bvs        +0x76 /* 00001DCC */
00001D58  7320                     moveq.l    D1, 0x20
00001D5A  636F                     bls        +0x71 /* 00001DCB */
00001D5C  6E74                     bgt        +0x76 /* 00001DD2 */
00001D5E  726F                     moveq.l    D1, 0x6F
00001D60  6C6C                     bge        +0x6E /* 00001DCE */
00001D62  696E                     bvs        +0x70 /* 00001DD2 */
00001D64  6720                     beq        +0x22 /* 00001D86 */
label00001D66:
00001D66  6B65                     bmi        +0x67 /* 00001DCD */
label00001D68:
00001D68  792E                     moveq.l    D4, 0x2E
00001D6A  2B54 6865                move.l     [A5 + 0x6865], [A4]
// begin alternate branch 00001D6C-00001D6E
label00001D6C:
00001D6C  6865                     bvc        +0x67 /* 00001DD3 */
// end alternate branch 00001D6C-00001D6E
label00001D6C: // (misaligned)
00001D6E  2054                     movea.l    A0, [A4]
00001D70  4142                     chk.w      D0, D2
00001D72  206B 6579                movea.l    A0, [A3 + 0x6579]
label00001D76:
00001D76  2069 7320                movea.l    A0, [A1 + 0x7320]
00001D7A  7265                     moveq.l    D1, 0x65
00001D7C  7365                     moveq.l    D1, 0x65
00001D7E  7276                     moveq.l    D1, 0x76
00001D80  6564                     bcs        +0x66 /* 00001DE6 */
00001D82  2066                     movea.l    A0, -[A6]
00001D84  6F72                     ble        +0x74 /* 00001DF8 */
label00001D86:
00001D86  2070 6175                movea.l    A0, <<invalid full ext with IS == 1 and I/IS == 5>>
// begin alternate branch 00001D88-00001D8A
label00001D88:
00001D88  6175                     bsr        +0x77 /* 00001DFF */
// end alternate branch 00001D88-00001D8A
label00001D88: // (misaligned)
00001D8A  7369                     moveq.l    D1, 0x69
00001D8C  6E67                     bgt        +0x69 /* 00001DF5 */
00001D8E  2047                     movea.l    A0, D7
label00001D90:
00001D90  6C69                     bge        +0x6B /* 00001DFB */
00001D92  6465                     bcc        +0x67 /* 00001DF9 */
00001D94  722E                     moveq.l    D1, 0x2E
00001D96  3354 6865                move.w     [A1 + 0x6865], [A4]
00001D9A  206E 6578                movea.l    A0, [A6 + 0x6578]
00001D9E  7420                     moveq.l    D2, 0x20
label00001DA0:
00001DA0  6B65                     bmi        +0x67 /* 00001E07 */
00001DA2  7920                     moveq.l    D4, 0x20
00001DA4  796F                     moveq.l    D4, 0x6F
label00001DA6:
00001DA6  7520                     moveq.l    D2, 0x20
00001DA8  7374                     moveq.l    D1, 0x74
00001DAA  7269                     moveq.l    D1, 0x69
00001DAC  6B65                     bmi        +0x67 /* 00001E13 */
00001DAE  2077 696C                movea.l    A0, <<invalid full ext with I/IS == 4>>
00001DB2  6C20                     bge        +0x22 /* 00001DD4 */
fn00001DB4:
00001DB4  636F                     bls        +0x71 /* 00001E25 */
00001DB6  6E74                     bgt        +0x76 /* 00001E2C */
00001DB8  726F                     moveq.l    D1, 0x6F
00001DBA  6C20                     bge        +0x22 /* 00001DDC */
00001DBC  7468                     moveq.l    D2, 0x68
00001DBE  6973                     bvs        +0x75 /* 00001E33 */
00001DC0  2066                     movea.l    A0, -[A6]
00001DC2  756E                     moveq.l    D2, 0x6E
00001DC4  6374                     bls        +0x76 /* 00001E3A */
00001DC6  696F                     bvs        +0x71 /* 00001E37 */
00001DC8  6E2E                     bgt        +0x30 /* 00001DF8 */
export_76:
00001DCA  4E56 FFD4                link       A6, -0x002C
// begin alternate branch 00001DCC-00001DCE
label00001DCC:
00001DCC  FFD4                     .invalid   <<F/7/7>>
// end alternate branch 00001DCC-00001DCE
label00001DCC: // (misaligned)
label00001DCE:
00001DCE  48E7 0138                movem.l    -[A7], D7,A2,A3,A4
label00001DD2:
00001DD2  266E 000C                movea.l    A3, [A6 + 0xC]
// begin alternate branch 00001DD4-00001DE0
label00001DD4:
00001DD4  000C 422E                ori.b      A4, 0x2E /* '.' */
00001DD8  0014 0C53                ori.b      [A4], 0x53 /* 'S' */
label00001DDC:
00001DDC  0003 57C0                ori.b      D3, 0xC0
// end alternate branch 00001DD4-00001DE0
label00001DD4: // (misaligned)
00001DD6  422E 0014                clr.b      [A6 + 0x14]
00001DDA  0C53 0003                cmpi.w     [A3], 0x3
label00001DDC: // (misaligned)
00001DDE  57C0                     seq        D0
00001DE0  222B 0002                move.l     D1, [A3 + 0x2]
00001DE4  0281 0000 00FF           andi.l     D1, 0xFF
// begin alternate branch 00001DE6-00001DEA
label00001DE6:
00001DE6  0000 00FF                ori.b      D0, 0xFF
// end alternate branch 00001DE6-00001DEA
label00001DE6: // (misaligned)
00001DEA  740D                     moveq.l    D2, 0x0D
00001DEC  B282                     cmp.l      D1, D2
00001DEE  57C1                     seq        D1
00001DF0  C001                     and.b      D0, D1
00001DF2  670E                     beq        +0x10 /* 00001E02 */
00001DF4  206E 0008                movea.l    A0, [A6 + 0x8]
label00001DF8:
00001DF8  30BC 0001                move.w     [A0], 0x1
00001DFC  1D7C 0001 0014           move.b     [A6 + 0x14], 0x1
label00001E02:
00001E02  594F                     subq.w     A7, 4
00001E04  A975                     syscall    TickCount
00001E06  2D5F FFE8                move.l     [A6 - 0x18], [A7]+
00001E0A  705A                     moveq.l    D0, 0x5A
00001E0C  D0AD FDA4                add.l      D0, [A5 - 0x25C]
00001E10  B0AE FFE8                cmp.l      D0, [A6 - 0x18]
00001E14  6C00 009E                bge        +0xA0 /* 00001EB4 */
00001E18  594F                     subq.w     A7, 4
00001E1A  A975                     syscall    TickCount
00001E1C  2B5F FDA4                move.l     [A5 - 0x25C], [A7]+
00001E20  302D FDA2                move.w     D0, [A5 - 0x25E]
00001E24  5240                     addq.w     D0, 1
00001E26  3B40 FDA2                move.w     [A5 - 0x25E], D0
00001E2A  0C6D 0003 FDA2           cmpi.w     [A5 - 0x25E], 0x3
// begin alternate branch 00001E2C-00001E30
label00001E2C:
00001E2C  0003 FDA2                ori.b      D3, 0xA2
// end alternate branch 00001E2C-00001E30
label00001E2C: // (misaligned)
00001E30  6F04                     ble        +0x6 /* 00001E36 */
00001E32  426D FDA2                clr.w      [A5 - 0x25E]
label00001E36:
00001E36  7E02                     moveq.l    D7, 0x02
label00001E38:
00001E38  7002                     moveq.l    D0, 0x02
label00001E3A:
00001E3A  2F00                     move.l     -[A7], D0
00001E3C  486E FFE8                pea.l      [A6 - 0x18]
00001E40  4EAD 008A                jsr        [A5 + 0x8A /* export_13, CODE:1 @ 00000308 */]
00001E44  2F2E 0010                move.l     -[A7], [A6 + 0x10]
00001E48  3F07                     move.w     -[A7], D7
00001E4A  486E FFEC                pea.l      [A6 - 0x14]
00001E4E  486E FFDC                pea.l      [A6 - 0x24]
00001E52  486E FFE0                pea.l      [A6 - 0x20]
00001E56  A98D                     syscall    GetDialogItem/GetDItem
00001E58  4A2D FD97                tst.b      [A5 - 0x269]
00001E5C  672A                     beq        +0x2C /* 00001E88 */
00001E5E  594F                     subq.w     A7, 4
00001E60  3007                     move.w     D0, D7
00001E62  0640 04CA                addi.w     D0, 0x4CA
00001E66  322D FDA2                move.w     D1, [A5 - 0x25E]
00001E6A  C3FC 0009                muls.w     D1, 0x9 /* '\t' */
00001E6E  D041                     add.w      D0, D1
00001E70  3F00                     move.w     -[A7], D0
00001E72  AA1E                     syscall    GetCIcon
00001E74  285F                     movea.l    A4, [A7]+
00001E76  200C                     move.l     D0, A4
00001E78  6732                     beq        +0x34 /* 00001EAC */
00001E7A  486E FFE0                pea.l      [A6 - 0x20]
00001E7E  2F0C                     move.l     -[A7], A4
00001E80  AA1F                     syscall    PlotCIcon
00001E82  2F0C                     move.l     -[A7], A4
00001E84  AA25                     syscall    DisposeCIcon/DisposCIcon
00001E86  6024                     bra        +0x26 /* 00001EAC */
label00001E88:
00001E88  594F                     subq.w     A7, 4
00001E8A  3007                     move.w     D0, D7
00001E8C  0640 04CA                addi.w     D0, 0x4CA
00001E90  322D FDA2                move.w     D1, [A5 - 0x25E]
00001E94  C3FC 0009                muls.w     D1, 0x9 /* '\t' */
00001E98  D041                     add.w      D0, D1
00001E9A  3F00                     move.w     -[A7], D0
00001E9C  A9BB                     syscall    GetIcon
00001E9E  245F                     movea.l    A2, [A7]+
00001EA0  200A                     move.l     D0, A2
00001EA2  6708                     beq        +0xA /* 00001EAC */
00001EA4  486E FFE0                pea.l      [A6 - 0x20]
00001EA8  2F0A                     move.l     -[A7], A2
00001EAA  A94B                     syscall    PlotIcon
label00001EAC:
00001EAC  5247                     addq.w     D7, 1
00001EAE  0C47 000A                cmpi.w     D7, 0xA /* '\n' */
00001EB2  6F84                     ble        -0x7A /* 00001E38 */
label00001EB4:
00001EB4  4CDF 1C80                movem.l    D7,A2,A3,A4, [A7]+
00001EB8  4E5E                     unlink     A6
00001EBA  205F                     movea.l    A0, [A7]+
00001EBC  4FEF 000C                lea.l      A7, [A7 + 0xC]
00001EC0  4ED0                     jmp        [A0]
fn00001EC2:
00001EC2  4E56 FFE0                link       A6, -0x0020
00001EC6  2F0C                     move.l     -[A7], A4
00001EC8  286E 0008                movea.l    A4, [A6 + 0x8]
00001ECC  2F2C FFC8                move.l     -[A7], [A4 - 0x38]
00001ED0  A873                     syscall    SetPort
00001ED2  2F2C FFC8                move.l     -[A7], [A4 - 0x38]
00001ED6  3F3C 0001                move.w     -[A7], 0x1
00001EDA  486C FFE6                pea.l      [A4 - 0x1A]
00001EDE  486C FFD8                pea.l      [A4 - 0x28]
00001EE2  486C FFBC                pea.l      [A4 - 0x44]
00001EE6  A98D                     syscall    GetDialogItem/GetDItem
00001EE8  3F3C 0003                move.w     -[A7], 0x3
00001EEC  3F3C 0003                move.w     -[A7], 0x3
00001EF0  A89B                     syscall    PenSize
00001EF2  486C FFBC                pea.l      [A4 - 0x44]
00001EF6  3F3C FFFC                move.w     -[A7], 0xFFFC
00001EFA  3F3C FFFC                move.w     -[A7], 0xFFFC
00001EFE  A8A9                     syscall    InsetRect
00001F00  486C FFBC                pea.l      [A4 - 0x44]
00001F04  3F3C 0010                move.w     -[A7], 0x10
00001F08  3F3C 0010                move.w     -[A7], 0x10
00001F0C  A8B0                     syscall    FrameRoundRect
00001F0E  3F3C 0001                move.w     -[A7], 0x1
00001F12  3F3C 0001                move.w     -[A7], 0x1
00001F16  A89B                     syscall    PenSize
00001F18  285F                     movea.l    A4, [A7]+
00001F1A  4E5E                     unlink     A6
00001F1C  2E9F                     move.l     [A7], [A7]+
00001F1E  4E75                     rts
fn00001F20:
00001F20  4E56 FFBC                link       A6, -0x0044
00001F24  2F07                     move.l     -[A7], D7
00001F26  486E FFEC                pea.l      [A6 - 0x14]
00001F2A  A874                     syscall    GetPort
00001F2C  594F                     subq.w     A7, 4
00001F2E  3F3C 00E4                move.w     -[A7], 0xE4
00001F32  42A7                     clr.l      -[A7]
00001F34  70FF                     moveq.l    D0, 0xFFFFFFFF
00001F36  2F00                     move.l     -[A7], D0
00001F38  A97C                     syscall    GetNewDialog
00001F3A  2D5F FFC8                move.l     [A6 - 0x38], [A7]+
00001F3E  206E FFC8                movea.l    A0, [A6 - 0x38]
00001F42  41E8 0010                lea.l      A0, [A0 + 0x10]
00001F46  43EE FFBC                lea.l      A1, [A6 - 0x44]
00001F4A  22D8                     move.l     [A1]+, [A0]+
00001F4C  22D8                     move.l     [A1]+, [A0]+
00001F4E  302D FF5A                move.w     D0, [A5 - 0xA6]
00001F52  906D FF56                sub.w      D0, [A5 - 0xAA]
00001F56  322E FFC0                move.w     D1, [A6 - 0x40]
00001F5A  926E FFBC                sub.w      D1, [A6 - 0x44]
00001F5E  9041                     sub.w      D0, D1
00001F60  48C0                     ext.l      D0
00001F62  81FC 0002                divs.w     D0, 0x2
00001F66  3D40 FFBC                move.w     [A6 - 0x44], D0
00001F6A  302D FF5C                move.w     D0, [A5 - 0xA4]
00001F6E  906D FF58                sub.w      D0, [A5 - 0xA8]
00001F72  322E FFC2                move.w     D1, [A6 - 0x3E]
00001F76  926E FFBE                sub.w      D1, [A6 - 0x42]
00001F7A  9041                     sub.w      D0, D1
00001F7C  48C0                     ext.l      D0
00001F7E  81FC 0002                divs.w     D0, 0x2
00001F82  3D40 FFBE                move.w     [A6 - 0x42], D0
00001F86  2F2E FFC8                move.l     -[A7], [A6 - 0x38]
00001F8A  3F2E FFBE                move.w     -[A7], [A6 - 0x42]
00001F8E  3F2E FFBC                move.w     -[A7], [A6 - 0x44]
00001F92  1F3C 0001                move.b     -[A7], 0x1
00001F96  A91B                     syscall    MoveWindow
00001F98  2F2E FFC8                move.l     -[A7], [A6 - 0x38]
00001F9C  A915                     syscall    ShowWindow
00001F9E  2F2E FFC8                move.l     -[A7], [A6 - 0x38]
00001FA2  A91F                     syscall    SelectWindow
00001FA4  2F2E FFC8                move.l     -[A7], [A6 - 0x38]
00001FA8  A873                     syscall    SetPort
00001FAA  2F0E                     move.l     -[A7], A6
00001FAC  4EBA FF14                jsr        [PC - 0xEC /* 00001EC2 */]
00001FB0  594F                     subq.w     A7, 4
00001FB2  A975                     syscall    TickCount
00001FB4  2B5F FDA4                move.l     [A5 - 0x25C], [A7]+
00001FB8  426D FDA2                clr.w      [A5 - 0x25E]
00001FBC  4207                     clr.b      D7
label00001FBE:
00001FBE  486D 0282                pea.l      [A5 + 0x282 /* export_76, CODE:5 @ 00001DCA */]
00001FC2  486E FFE2                pea.l      [A6 - 0x1E]
00001FC6  A991                     syscall    ModalDialog
00001FC8  2F2E FFC8                move.l     -[A7], [A6 - 0x38]
00001FCC  3F2E FFE2                move.w     -[A7], [A6 - 0x1E]
00001FD0  486E FFE6                pea.l      [A6 - 0x1A]
00001FD4  486E FFD8                pea.l      [A6 - 0x28]
00001FD8  486E FFBC                pea.l      [A6 - 0x44]
00001FDC  A98D                     syscall    GetDialogItem/GetDItem
00001FDE  2D6E FFD8 FFD0           move.l     [A6 - 0x30], [A6 - 0x28]
00001FE4  0C6E 0001 FFE2           cmpi.w     [A6 - 0x1E], 0x1
00001FEA  6602                     bne        +0x4 /* 00001FEE */
00001FEC  7E01                     moveq.l    D7, 0x01
label00001FEE:
00001FEE  4A07                     tst.b      D7
00001FF0  67CC                     beq        -0x32 /* 00001FBE */
00001FF2  2F2E FFEC                move.l     -[A7], [A6 - 0x14]
00001FF6  A873                     syscall    SetPort
00001FF8  2F2E FFC8                move.l     -[A7], [A6 - 0x38]
00001FFC  A983                     syscall    DisposeDialog
00001FFE  2E1F                     move.l     D7, [A7]+
00002000  4E5E                     unlink     A6
00002002  4E75                     rts
fn00002004:
00002004  4E56 FCE2                link       A6, -0x031E
00002008  48E7 0308                movem.l    -[A7], D6,D7,A4
0000200C  3C2E 0008                move.w     D6, [A6 + 0x8]
00002010  3F2D BB4C                move.w     -[A7], [A5 - 0x44B4]
00002014  A998                     syscall    UseResFile
00002016  4A46                     tst.w      D6
00002018  6700 0192                beq        +0x194 /* 000021AC */
0000201C  A850                     syscall    InitCursor
0000201E  3006                     move.w     D0, D6
00002020  6000 0088                bra        +0x8A /* 000020AA */
label00002024:
00002024  486E FEEE                pea.l      [A6 - 0x112]
00002028  3F3C 0081                move.w     -[A7], 0x81
0000202C  3F3C 0001                move.w     -[A7], 0x1
00002030  4EAD 00EA                jsr        [A5 + 0xEA /* export_25, CODE:1 @ 00000576 */]
00002034  6000 00AA                bra        +0xAC /* 000020E0 */
label00002038:
00002038  486E FEEE                pea.l      [A6 - 0x112]
0000203C  3F3C 0081                move.w     -[A7], 0x81
00002040  3F3C 0002                move.w     -[A7], 0x2
00002044  4EAD 00EA                jsr        [A5 + 0xEA /* export_25, CODE:1 @ 00000576 */]
00002048  6000 0096                bra        +0x98 /* 000020E0 */
label0000204C:
0000204C  486E FEEE                pea.l      [A6 - 0x112]
00002050  3F3C 0081                move.w     -[A7], 0x81
00002054  3F3C 0003                move.w     -[A7], 0x3
00002058  4EAD 00EA                jsr        [A5 + 0xEA /* export_25, CODE:1 @ 00000576 */]
0000205C  6000 0082                bra        +0x84 /* 000020E0 */
label00002060:
00002060  486E FEEE                pea.l      [A6 - 0x112]
00002064  3F3C 0081                move.w     -[A7], 0x81
00002068  3F3C 0004                move.w     -[A7], 0x4
0000206C  4EAD 00EA                jsr        [A5 + 0xEA /* export_25, CODE:1 @ 00000576 */]
00002070  6000 006E                bra        +0x70 /* 000020E0 */
label00002074:
00002074  486E FEEE                pea.l      [A6 - 0x112]
00002078  3F3C 0081                move.w     -[A7], 0x81
0000207C  3F3C 0005                move.w     -[A7], 0x5
00002080  4EAD 00EA                jsr        [A5 + 0xEA /* export_25, CODE:1 @ 00000576 */]
00002084  605A                     bra        +0x5C /* 000020E0 */
label00002086:
00002086  486E FEEE                pea.l      [A6 - 0x112]
0000208A  3F3C 0081                move.w     -[A7], 0x81
0000208E  3F3C 0006                move.w     -[A7], 0x6
00002092  4EAD 00EA                jsr        [A5 + 0xEA /* export_25, CODE:1 @ 00000576 */]
00002096  6048                     bra        +0x4A /* 000020E0 */
label00002098:
00002098  486E FEEE                pea.l      [A6 - 0x112]
0000209C  3F3C 0081                move.w     -[A7], 0x81
000020A0  3F3C 0007                move.w     -[A7], 0x7
000020A4  4EAD 00EA                jsr        [A5 + 0xEA /* export_25, CODE:1 @ 00000576 */]
000020A8  6036                     bra        +0x38 /* 000020E0 */
label000020AA:
000020AA  0640 0031                addi.w     D0, 0x31 /* '1' */
000020AE  67D6                     beq        -0x28 /* 00002086 */
000020B0  5540                     subq.w     D0, 2
000020B2  67D2                     beq        -0x2C /* 00002086 */
000020B4  5340                     subq.w     D0, 1
000020B6  67BC                     beq        -0x42 /* 00002074 */
000020B8  5340                     subq.w     D0, 1
000020BA  67A4                     beq        -0x5A /* 00002060 */
000020BC  5340                     subq.w     D0, 1
000020BE  678C                     beq        -0x72 /* 0000204C */
000020C0  5340                     subq.w     D0, 1
000020C2  6700 FF74                beq        -0x8A /* 00002038 */
000020C6  5940                     subq.w     D0, 4
000020C8  67CE                     beq        -0x30 /* 00002098 */
000020CA  5B40                     subq.w     D0, 5
000020CC  6700 FF56                beq        -0xA8 /* 00002024 */
000020D0  486E FEEE                pea.l      [A6 - 0x112]
000020D4  3F3C 0081                move.w     -[A7], 0x81
000020D8  3F3C 000A                move.w     -[A7], 0xA /* '\n' */
000020DC  4EAD 00EA                jsr        [A5 + 0xEA /* export_25, CODE:1 @ 00000576 */]
label000020E0:
000020E0  3006                     move.w     D0, D6
000020E2  48C0                     ext.l      D0
000020E4  2F00                     move.l     -[A7], D0
000020E6  486E FDEE                pea.l      [A6 - 0x212]
000020EA  4EAD 0122                jsr        [A5 + 0x122 /* export_32, CODE:1 @ 0000079C */]
000020EE  486E FCE2                pea.l      [A6 - 0x31E]
000020F2  487A 00CC                pea.l      [PC + 0xCC /* 000021C0, value 0xD457272 '\rErr', pstring "Error code = " */]
000020F6  486E FDEE                pea.l      [A6 - 0x212]
000020FA  3F3C 0002                move.w     -[A7], 0x2
000020FE  4EAD 0132                jsr        [A5 + 0x132 /* export_34, CODE:1 @ 000007AE */]
00002102  584F                     addq.w     A7, 4
00002104  3F3C 00FF                move.w     -[A7], 0xFF
00002108  486E FCE2                pea.l      [A6 - 0x31E]
0000210C  486E FDEE                pea.l      [A6 - 0x212]
00002110  4EAD 015A                jsr        [A5 + 0x15A /* export_39, CODE:1 @ 00000A28 */]
00002114  486E FEEE                pea.l      [A6 - 0x112]
00002118  486E FDEE                pea.l      [A6 - 0x212]
0000211C  487A 00A0                pea.l      [PC + 0xA0 /* 000021BE, value 0x120D45, cstring "" */]
00002120  487A 009A                pea.l      [PC + 0x9A /* 000021BC, value 0x160012, cstring "" */]
00002124  A98B                     syscall    ParamText
00002126  594F                     subq.w     A7, 4
00002128  2F3C 414C 5254           move.l     -[A7], 0x414C5254 /* 'ALRT' */
0000212E  3F3C 0081                move.w     -[A7], 0x81
00002132  A81F                     syscall    Get1Resource
00002134  285F                     movea.l    A4, [A7]+
00002136  200C                     move.l     D0, A4
00002138  6766                     beq        +0x68 /* 000021A0 */
0000213A  2F0C                     move.l     -[A7], A4
0000213C  4EAD 006A                jsr        [A5 + 0x6A /* export_9, CODE:1 @ 000002C6 */]
00002140  2054                     movea.l    A0, [A4]
00002142  43EE FDE2                lea.l      A1, [A6 - 0x21E]
00002146  22D8                     move.l     [A1]+, [A0]+
00002148  22D8                     move.l     [A1]+, [A0]+
0000214A  486E FDE2                pea.l      [A6 - 0x21E]
0000214E  302E FDE4                move.w     D0, [A6 - 0x21C]
00002152  4440                     neg.w      D0
00002154  3F00                     move.w     -[A7], D0
00002156  302E FDE2                move.w     D0, [A6 - 0x21E]
0000215A  4440                     neg.w      D0
0000215C  3F00                     move.w     -[A7], D0
0000215E  A8A8                     syscall    OffsetRect
00002160  3E2D FF5C                move.w     D7, [A5 - 0xA4]
00002164  9E6E FDE8                sub.w      D7, [A6 - 0x218]
00002168  48C7                     ext.l      D7
0000216A  8FFC 0002                divs.w     D7, 0x2
0000216E  486E FDE2                pea.l      [A6 - 0x21E]
00002172  3F07                     move.w     -[A7], D7
00002174  4267                     clr.w      -[A7]
00002176  A8A8                     syscall    OffsetRect
00002178  3E2D FF5A                move.w     D7, [A5 - 0xA6]
0000217C  9E6E FDE6                sub.w      D7, [A6 - 0x21A]
00002180  48C7                     ext.l      D7
00002182  8FFC 0003                divs.w     D7, 0x3
00002186  486E FDE2                pea.l      [A6 - 0x21E]
0000218A  4267                     clr.w      -[A7]
0000218C  3F07                     move.w     -[A7], D7
0000218E  A8A8                     syscall    OffsetRect
00002190  2054                     movea.l    A0, [A4]
00002192  43EE FDE2                lea.l      A1, [A6 - 0x21E]
00002196  20D9                     move.l     [A0]+, [A1]+
00002198  20D9                     move.l     [A0]+, [A1]+
0000219A  2F0C                     move.l     -[A7], A4
0000219C  4EAD 0062                jsr        [A5 + 0x62 /* export_8, CODE:1 @ 000002BC */]
label000021A0:
000021A0  554F                     subq.w     A7, 2
000021A2  3F3C 0081                move.w     -[A7], 0x81
000021A6  42A7                     clr.l      -[A7]
000021A8  A985                     syscall    Alert
000021AA  3E1F                     move.w     D7, [A7]+
label000021AC:
000021AC  3D46 000A                move.w     [A6 + 0xA], D6
000021B0  4CDF 10C0                movem.l    D6,D7,A4, [A7]+
000021B4  4E5E                     unlink     A6
000021B6  205F                     movea.l    A0, [A7]+
000021B8  544F                     addq.w     A7, 2
000021BA  4ED0                     jmp        [A0]
000021BC  0016 0012                ori.b      [A6], 0x12
000021C0  0D45                     bchg       D5, D6
000021C2  7272                     moveq.l    D1, 0x72
000021C4  6F72                     ble        +0x74 /* 00002238 */
000021C6  2063                     movea.l    A0, -[A3]
000021C8  6F64                     ble        +0x66 /* 0000222E */
000021CA  6520                     bcs        +0x22 /* 000021EC */
000021CC  3D20                     move.w     -[A6], -[A0]
export_77:
fn000021CE:
000021CE  4E56 FEE8                link       A6, -0x0118
000021D2  48E7 0700                movem.l    -[A7], D5,D6,D7
000021D6  3A2E 0008                move.w     D5, [A6 + 0x8]
000021DA  206E 000A                movea.l    A0, [A6 + 0xA]
000021DE  43EE FEF0                lea.l      A1, [A6 - 0x110]
000021E2  703F                     moveq.l    D0, 0x3F
label000021E4:
000021E4  22D8                     move.l     [A1]+, [A0]+
000021E6  51C8 FFFC                dbf        D0, -0x6 /* 000021E4 */
000021EA  4EBA DE14                jsr        [PC - 0x21EC /* 00000000 */]
// begin alternate branch 000021EC-000021EE
label000021EC:
000021EC  DE14                     add.b      D7, [A4]
// end alternate branch 000021EC-000021EE
label000021EC: // (misaligned)
000021EE  422E 000E                clr.b      [A6 + 0xE]
000021F2  554F                     subq.w     A7, 2
000021F4  486E FEF0                pea.l      [A6 - 0x110]
000021F8  3F05                     move.w     -[A7], D5
000021FA  486D BB48                pea.l      [A5 - 0x44B8]
000021FE  4EAD 0092                jsr        [A5 + 0x92 /* export_14, CODE:1 @ 00000316 */]
00002202  3E1F                     move.w     D7, [A7]+
00002204  554F                     subq.w     A7, 2
00002206  3F07                     move.w     -[A7], D7
00002208  4EBA FDFA                jsr        [PC - 0x206 /* 00002004 */]
0000220C  4A5F                     tst.w      [A7]+
0000220E  6600 00B0                bne        +0xB2 /* 000022C0 */
00002212  4EBA DDEC                jsr        [PC - 0x2214 /* 00000000 */]
00002216  554F                     subq.w     A7, 2
00002218  3F2D BB48                move.w     -[A7], [A5 - 0x44B8]
0000221C  3F3C 0001                move.w     -[A7], 0x1
00002220  42A7                     clr.l      -[A7]
00002222  4EAD 00D2                jsr        [A5 + 0xD2 /* export_22, CODE:1 @ 00000470 */]
00002226  3E1F                     move.w     D7, [A7]+
00002228  554F                     subq.w     A7, 2
0000222A  3F07                     move.w     -[A7], D7
0000222C  4EBA FDD6                jsr        [PC - 0x22A /* 00002004 */]
// begin alternate branch 0000222E-00002230
label0000222E:
0000222E  FDD6                     .invalid   <<F/7/6>>
// end alternate branch 0000222E-00002230
label0000222E: // (misaligned)
00002230  4A5F                     tst.w      [A7]+
00002232  6712                     beq        +0x14 /* 00002246 */
00002234  1B7C 0001 FD8B           move.b     [A5 - 0x275], 0x1
// begin alternate branch 00002238-0000223A
label00002238:
00002238  FD8B                     .invalid   <<F/6/6>>
// end alternate branch 00002238-0000223A
label00002238: // (misaligned)
0000223A  554F                     subq.w     A7, 2
0000223C  4EBA 03E6                jsr        [PC + 0x3E6 /* 00002624 */]
00002240  1C1F                     move.b     D6, [A7]+
00002242  6000 007C                bra        +0x7E /* 000022C0 */
label00002246:
00002246  4EBA DDB8                jsr        [PC - 0x2248 /* 00000000 */]
0000224A  2D7C 0000 3606 FEEC      move.l     [A6 - 0x114], 0x3606
00002252  554F                     subq.w     A7, 2
00002254  3F2D BB48                move.w     -[A7], [A5 - 0x44B8]
00002258  486E FEEC                pea.l      [A6 - 0x114]
0000225C  486D BBEC                pea.l      [A5 - 0x4414]
00002260  4EAD 00A2                jsr        [A5 + 0xA2 /* export_16, CODE:1 @ 0000036A */]
00002264  3E1F                     move.w     D7, [A7]+
00002266  554F                     subq.w     A7, 2
00002268  3F07                     move.w     -[A7], D7
0000226A  4EBA FD98                jsr        [PC - 0x268 /* 00002004 */]
0000226E  4A5F                     tst.w      [A7]+
00002270  6710                     beq        +0x12 /* 00002282 */
00002272  1B7C 0001 FD8B           move.b     [A5 - 0x275], 0x1
00002278  554F                     subq.w     A7, 2
0000227A  4EBA 03A8                jsr        [PC + 0x3A8 /* 00002624 */]
0000227E  1C1F                     move.b     D6, [A7]+
00002280  603E                     bra        +0x40 /* 000022C0 */
label00002282:
00002282  4EBA DD7C                jsr        [PC - 0x2284 /* 00000000 */]
00002286  4AAD BBF0                tst.l      [A5 - 0x4410]
0000228A  6E1C                     bgt        +0x1E /* 000022A8 */
0000228C  3F3C 0018                move.w     -[A7], 0x18
00002290  4EBA E7BE                jsr        [PC - 0x1842 /* 00000A50 */]
00002294  1B7C 0001 FD8B           move.b     [A5 - 0x275], 0x1
0000229A  3B45 BB4A                move.w     [A5 - 0x44B6], D5
0000229E  554F                     subq.w     A7, 2
000022A0  4EBA 0382                jsr        [PC + 0x382 /* 00002624 */]
000022A4  1C1F                     move.b     D6, [A7]+
000022A6  6018                     bra        +0x1A /* 000022C0 */
label000022A8:
000022A8  4EBA DD56                jsr        [PC - 0x22AA /* 00000000 */]
000022AC  1B7C 0001 FD8B           move.b     [A5 - 0x275], 0x1
000022B2  1D7C 0001 000E           move.b     [A6 + 0xE], 0x1
000022B8  422D FDA0                clr.b      [A5 - 0x260]
000022BC  3B45 BB4A                move.w     [A5 - 0x44B6], D5
label000022C0:
000022C0  4CDF 00E0                movem.l    D5,D6,D7, [A7]+
000022C4  4E5E                     unlink     A6
000022C6  205F                     movea.l    A0, [A7]+
000022C8  5C4F                     addq.w     A7, 6
000022CA  4ED0                     jmp        [A0]
export_78:
000022CC  4E56 0000                link       A6, 0
000022D0  2F0C                     move.l     -[A7], A4
000022D2  1D7C 0001 000C           move.b     [A6 + 0xC], 0x1
000022D8  206E 0008                movea.l    A0, [A6 + 0x8]
000022DC  49E8 0020                lea.l      A4, [A0 + 0x20]
000022E0  0C94 474C 6873           cmpi.l     [A4], 0x474C6873 /* 'GLhs' */
000022E6  6604                     bne        +0x6 /* 000022EC */
000022E8  422E 000C                clr.b      [A6 + 0xC]
label000022EC:
000022EC  285F                     movea.l    A4, [A7]+
000022EE  4E5E                     unlink     A6
000022F0  2E9F                     move.l     [A7], [A7]+
000022F2  4E75                     rts
fn000022F4:
000022F4  4E56 FF92                link       A6, -0x006E
000022F8  422E 0008                clr.b      [A6 + 0x8]
000022FC  486E FFEC                pea.l      [A6 - 0x14]
00002300  302D BB40                move.w     D0, [A5 - 0x44C0]
00002304  0640 0055                addi.w     D0, 0x55 /* 'U' */
00002308  3F00                     move.w     -[A7], D0
0000230A  302D BB42                move.w     D0, [A5 - 0x44BE]
0000230E  0640 0032                addi.w     D0, 0x32 /* '2' */
00002312  3F00                     move.w     -[A7], D0
00002314  A880                     syscall    SetPt
00002316  2D7C 474C 6873 FFDC      move.l     [A6 - 0x24], 0x474C6873 /* 'GLhs' */
0000231E  2F2E FFEC                move.l     -[A7], [A6 - 0x14]
00002322  487A 0052                pea.l      [PC + 0x52 /* 00002376, value 0x124E56, cstring "" */]
00002326  486D 0292                pea.l      [A5 + 0x292 /* export_78, CODE:5 @ 000022CC */]
0000232A  3F3C FFFF                move.w     -[A7], 0xFFFF
0000232E  486E FFDC                pea.l      [A6 - 0x24]
00002332  42A7                     clr.l      -[A7]
00002334  486E FF92                pea.l      [A6 - 0x6E]
00002338  3F3C 0100                move.w     -[A7], 0x100
0000233C  42A7                     clr.l      -[A7]
0000233E  4EAD 0112                jsr        [A5 + 0x112 /* export_30, CODE:1 @ 00000772 */]
00002342  4A2E FF92                tst.b      [A6 - 0x6E]
00002346  6726                     beq        +0x28 /* 0000236E */
00002348  3F3C 0020                move.w     -[A7], 0x20 /* ' ' */
0000234C  486E FF9C                pea.l      [A6 - 0x64]
00002350  486D BB98                pea.l      [A5 - 0x4468]
00002354  4EAD 015A                jsr        [A5 + 0x15A /* export_39, CODE:1 @ 00000A28 */]
00002358  554F                     subq.w     A7, 2
0000235A  486E FF9C                pea.l      [A6 - 0x64]
0000235E  3F2E FF98                move.w     -[A7], [A6 - 0x68]
00002362  4EBA FE6A                jsr        [PC - 0x196 /* 000021CE */]
00002366  1D5F 0008                move.b     [A6 + 0x8], [A7]+
0000236A  A850                     syscall    InitCursor
0000236C  6004                     bra        +0x6 /* 00002372 */
label0000236E:
0000236E  422E 0008                clr.b      [A6 + 0x8]
label00002372:
00002372  4E5E                     unlink     A6
00002374  4E75                     rts
00002376  0012 4E56                ori.b      [A2], 0x56 /* 'V' */
// begin alternate branch 00002378-0000237C
fn00002378:
00002378  4E56 FFE6                link       A6, -0x001A
// end alternate branch 00002378-0000237C
fn00002378: // (misaligned)
0000237A  FFE6                     .invalid   <<F/7/7>>
0000237C  2F07                     move.l     -[A7], D7
0000237E  4EBA DC80                jsr        [PC - 0x2380 /* 00000000 */]
00002382  422E 000C                clr.b      [A6 + 0xC]
00002386  2D7C 0000 3606 FFE8      move.l     [A6 - 0x18], 0x3606
0000238E  4EBA DC70                jsr        [PC - 0x2390 /* 00000000 */]
00002392  554F                     subq.w     A7, 2
00002394  3F2E 000A                move.w     -[A7], [A6 + 0xA]
00002398  3F3C 0001                move.w     -[A7], 0x1
0000239C  42A7                     clr.l      -[A7]
0000239E  4EAD 00D2                jsr        [A5 + 0xD2 /* export_22, CODE:1 @ 00000470 */]
000023A2  3E1F                     move.w     D7, [A7]+
000023A4  554F                     subq.w     A7, 2
000023A6  3F07                     move.w     -[A7], D7
000023A8  4EBA FC5A                jsr        [PC - 0x3A6 /* 00002004 */]
000023AC  4A5F                     tst.w      [A7]+
000023AE  6600 0072                bne        +0x74 /* 00002422 */
000023B2  4EBA DC4C                jsr        [PC - 0x23B4 /* 00000000 */]
000023B6  554F                     subq.w     A7, 2
000023B8  3F2E 000A                move.w     -[A7], [A6 + 0xA]
000023BC  486E FFE8                pea.l      [A6 - 0x18]
000023C0  486D BBEC                pea.l      [A5 - 0x4414]
000023C4  4EAD 00AA                jsr        [A5 + 0xAA /* export_17, CODE:1 @ 0000036E */]
000023C8  3E1F                     move.w     D7, [A7]+
000023CA  554F                     subq.w     A7, 2
000023CC  3F07                     move.w     -[A7], D7
000023CE  4EBA FC34                jsr        [PC - 0x3CC /* 00002004 */]
000023D2  4A5F                     tst.w      [A7]+
000023D4  664C                     bne        +0x4E /* 00002422 */
000023D6  4EBA DC28                jsr        [PC - 0x23D8 /* 00000000 */]
000023DA  554F                     subq.w     A7, 2
000023DC  3F2E 000A                move.w     -[A7], [A6 + 0xA]
000023E0  2F2E FFE8                move.l     -[A7], [A6 - 0x18]
000023E4  4EAD 00CA                jsr        [A5 + 0xCA /* export_21, CODE:1 @ 0000044E */]
000023E8  3E1F                     move.w     D7, [A7]+
000023EA  554F                     subq.w     A7, 2
000023EC  3F07                     move.w     -[A7], D7
000023EE  4EBA FC14                jsr        [PC - 0x3EC /* 00002004 */]
000023F2  4A5F                     tst.w      [A7]+
000023F4  662C                     bne        +0x2E /* 00002422 */
000023F6  4EBA DC08                jsr        [PC - 0x23F8 /* 00000000 */]
000023FA  554F                     subq.w     A7, 2
000023FC  42A7                     clr.l      -[A7]
000023FE  3F2E 0008                move.w     -[A7], [A6 + 0x8]
00002402  4EAD 00BA                jsr        [A5 + 0xBA /* export_19, CODE:1 @ 000003EC */]
00002406  3E1F                     move.w     D7, [A7]+
00002408  554F                     subq.w     A7, 2
0000240A  3F07                     move.w     -[A7], D7
0000240C  4EBA FBF6                jsr        [PC - 0x40A /* 00002004 */]
00002410  4A5F                     tst.w      [A7]+
00002412  660E                     bne        +0x10 /* 00002422 */
00002414  4EBA DBEA                jsr        [PC - 0x2416 /* 00000000 */]
00002418  422D FD96                clr.b      [A5 - 0x26A]
0000241C  1D7C 0001 000C           move.b     [A6 + 0xC], 0x1
label00002422:
00002422  2E1F                     move.l     D7, [A7]+
00002424  4E5E                     unlink     A6
00002426  2E9F                     move.l     [A7], [A7]+
00002428  4E75                     rts
fn0000242A:
0000242A  4E56 FF90                link       A6, -0x0070
0000242E  2F07                     move.l     -[A7], D7
00002430  422E 0008                clr.b      [A6 + 0x8]
00002434  4A2D FD8B                tst.b      [A5 - 0x275]
00002438  670E                     beq        +0x10 /* 00002448 */
0000243A  554F                     subq.w     A7, 2
0000243C  4EBA 01E6                jsr        [PC + 0x1E6 /* 00002624 */]
00002440  101F                     move.b     D0, [A7]+
00002442  5300                     subq.b     D0, 1
00002444  6600 0150                bne        +0x152 /* 00002596 */
label00002448:
00002448  486E FFEC                pea.l      [A6 - 0x14]
0000244C  302D BB40                move.w     D0, [A5 - 0x44C0]
00002450  0640 0055                addi.w     D0, 0x55 /* 'U' */
00002454  0640 0014                addi.w     D0, 0x14
00002458  3F00                     move.w     -[A7], D0
0000245A  302D BB42                move.w     D0, [A5 - 0x44BE]
0000245E  0640 0032                addi.w     D0, 0x32 /* '2' */
00002462  3F00                     move.w     -[A7], D0
00002464  A880                     syscall    SetPt
00002466  2F2E FFEC                move.l     -[A7], [A6 - 0x14]
0000246A  487A 0132                pea.l      [PC + 0x132 /* 0000259E, value 0xF4E616D, pstring "Name for house:" */]
0000246E  487A 012C                pea.l      [PC + 0x12C /* 0000259C, value 0x120F4E, cstring "" */]
00002472  42A7                     clr.l      -[A7]
00002474  486E FFA2                pea.l      [A6 - 0x5E]
00002478  4EAD 0102                jsr        [A5 + 0x102 /* export_28, CODE:1 @ 00000762 */]
0000247C  102E FFA2                move.b     D0, [A6 - 0x5E]
00002480  5300                     subq.b     D0, 1
00002482  6600 0112                bne        +0x114 /* 00002596 */
00002486  3B6E FFA8 BB4A           move.w     [A5 - 0x44B6], [A6 - 0x58]
0000248C  554F                     subq.w     A7, 2
0000248E  486E FFAC                pea.l      [A6 - 0x54]
00002492  3F2E FFA8                move.w     -[A7], [A6 - 0x58]
00002496  486E FF90                pea.l      [A6 - 0x70]
0000249A  4EAD 00B2                jsr        [A5 + 0xB2 /* export_18, CODE:1 @ 000003B4 */]
0000249E  3E1F                     move.w     D7, [A7]+
000024A0  3007                     move.w     D0, D7
000024A2  6044                     bra        +0x46 /* 000024E8 */
label000024A4:
000024A4  0CAE 474C 6873 FF90      cmpi.l     [A6 - 0x70], 0x474C6873 /* 'GLhs' */
000024AC  6750                     beq        +0x52 /* 000024FE */
000024AE  3F3C 000D                move.w     -[A7], 0xD /* '\r' */
000024B2  4EBA E59C                jsr        [PC - 0x1A64 /* 00000A50 */]
000024B6  6000 00DE                bra        +0xE0 /* 00002596 */
000024BA  6042                     bra        +0x44 /* 000024FE */
label000024BC:
000024BC  554F                     subq.w     A7, 2
000024BE  486E FFAC                pea.l      [A6 - 0x54]
000024C2  3F2E FFA8                move.w     -[A7], [A6 - 0x58]
000024C6  2F3C 474C 6564           move.l     -[A7], 0x474C6564 /* 'GLed' */
000024CC  2F3C 474C 6873           move.l     -[A7], 0x474C6873 /* 'GLhs' */
000024D2  4EAD 00C2                jsr        [A5 + 0xC2 /* export_20, CODE:1 @ 0000040E */]
000024D6  3E1F                     move.w     D7, [A7]+
000024D8  554F                     subq.w     A7, 2
000024DA  3F07                     move.w     -[A7], D7
000024DC  4EBA FB26                jsr        [PC - 0x4DA /* 00002004 */]
000024E0  4A5F                     tst.w      [A7]+
000024E2  6600 00B2                bne        +0xB4 /* 00002596 */
000024E6  6016                     bra        +0x18 /* 000024FE */
label000024E8:
000024E8  0640 002B                addi.w     D0, 0x2B /* '+' */
000024EC  67CE                     beq        -0x30 /* 000024BC */
000024EE  0640 FFD5                addi.w     D0, 0xFFD5
000024F2  67B0                     beq        -0x4E /* 000024A4 */
000024F4  3F07                     move.w     -[A7], D7
000024F6  4EBA E558                jsr        [PC - 0x1AA8 /* 00000A50 */]
000024FA  6000 009A                bra        +0x9C /* 00002596 */
label000024FE:
000024FE  3F3C 0020                move.w     -[A7], 0x20 /* ' ' */
00002502  486E FFAC                pea.l      [A6 - 0x54]
00002506  486D BB98                pea.l      [A5 - 0x4468]
0000250A  4EAD 015A                jsr        [A5 + 0x15A /* export_39, CODE:1 @ 00000A28 */]
0000250E  4A2D C0C0                tst.b      [A5 - 0x3F40]
00002512  6610                     bne        +0x12 /* 00002524 */
00002514  3F3C 0020                move.w     -[A7], 0x20 /* ' ' */
00002518  486D BB98                pea.l      [A5 - 0x4468]
0000251C  486D C0C0                pea.l      [A5 - 0x3F40]
00002520  4EAD 015A                jsr        [A5 + 0x15A /* export_39, CODE:1 @ 00000A28 */]
label00002524:
00002524  486D BBF0                pea.l      [A5 - 0x4410]
00002528  4EAD 0082                jsr        [A5 + 0x82 /* export_12, CODE:1 @ 000002FE */]
0000252C  102D FDA0                move.b     D0, [A5 - 0x260]
00002530  5300                     subq.b     D0, 1
00002532  670A                     beq        +0xC /* 0000253E */
00002534  202D BBF0                move.l     D0, [A5 - 0x4410]
00002538  4480                     neg.l      D0
0000253A  2B40 BBF0                move.l     [A5 - 0x4410], D0
label0000253E:
0000253E  4EBA DAC0                jsr        [PC - 0x2540 /* 00000000 */]
00002542  554F                     subq.w     A7, 2
00002544  486E FFAC                pea.l      [A6 - 0x54]
00002548  3F2E FFA8                move.w     -[A7], [A6 - 0x58]
0000254C  486D BB48                pea.l      [A5 - 0x44B8]
00002550  4EAD 0092                jsr        [A5 + 0x92 /* export_14, CODE:1 @ 00000316 */]
00002554  3E1F                     move.w     D7, [A7]+
00002556  554F                     subq.w     A7, 2
00002558  3F07                     move.w     -[A7], D7
0000255A  4EBA FAA8                jsr        [PC - 0x558 /* 00002004 */]
0000255E  4A5F                     tst.w      [A7]+
00002560  6634                     bne        +0x36 /* 00002596 */
00002562  554F                     subq.w     A7, 2
00002564  3F2D BB48                move.w     -[A7], [A5 - 0x44B8]
00002568  3F2E FFA8                move.w     -[A7], [A6 - 0x58]
0000256C  4EBA FE0A                jsr        [PC - 0x1F6 /* 00002378 */]
00002570  101F                     move.b     D0, [A7]+
00002572  5300                     subq.b     D0, 1
00002574  6704                     beq        +0x6 /* 0000257A */
00002576  A850                     syscall    InitCursor
00002578  601C                     bra        +0x1E /* 00002596 */
label0000257A:
0000257A  A850                     syscall    InitCursor
0000257C  1B7C 0001 FD8B           move.b     [A5 - 0x275], 0x1
00002582  594F                     subq.w     A7, 4
00002584  3F3C 0081                move.w     -[A7], 0x81
00002588  A9BF                     syscall    GetRMenu
0000258A  3F3C 0005                move.w     -[A7], 0x5
0000258E  A939                     syscall    EnableItem
00002590  1D7C 0001 0008           move.b     [A6 + 0x8], 0x1
label00002596:
00002596  2E1F                     move.l     D7, [A7]+
00002598  4E5E                     unlink     A6
0000259A  4E75                     rts
0000259C  0012 0F4E                ori.b      [A2], 0x4E /* 'N' */
000025A0  616D                     bsr        +0x6F /* 0000260F */
000025A2  6520                     bcs        +0x22 /* 000025C4 */
000025A4  666F                     bne        +0x71 /* 00002615 */
000025A6  7220                     moveq.l    D1, 0x20
000025A8  686F                     bvc        +0x71 /* 00002619 */
000025AA  7573                     moveq.l    D2, 0x73
000025AC  653A                     bcs        +0x3C /* 000025E8 */
fn000025AE:
000025AE  4E56 FFEE                link       A6, -0x0012
000025B2  422E 0008                clr.b      [A6 + 0x8]
000025B6  487A 0062                pea.l      [PC + 0x62 /* 0000261A, value 0x8756E74, pstring "untitled" */]
000025BA  486D BB98                pea.l      [A5 - 0x4468]
000025BE  4EAD 0142                jsr        [A5 + 0x142 /* export_36, CODE:1 @ 00000910 */]
000025C2  57C0                     seq        D0
label000025C4:
000025C4  122D FD8B                move.b     D1, [A5 - 0x275]
000025C8  5301                     subq.b     D1, 1
000025CA  C001                     and.b      D0, D1
000025CC  670E                     beq        +0x10 /* 000025DC */
000025CE  554F                     subq.w     A7, 2
000025D0  4EBA FE58                jsr        [PC - 0x1A8 /* 0000242A */]
000025D4  101F                     move.b     D0, [A7]+
000025D6  5300                     subq.b     D0, 1
000025D8  663C                     bne        +0x3E /* 00002616 */
000025DA  6034                     bra        +0x36 /* 00002610 */
label000025DC:
000025DC  486D BBF0                pea.l      [A5 - 0x4410]
000025E0  4EAD 0082                jsr        [A5 + 0x82 /* export_12, CODE:1 @ 000002FE */]
000025E4  102D FDA0                move.b     D0, [A5 - 0x260]
label000025E8:
000025E8  5300                     subq.b     D0, 1
000025EA  670A                     beq        +0xC /* 000025F6 */
000025EC  202D BBF0                move.l     D0, [A5 - 0x4410]
000025F0  4480                     neg.l      D0
000025F2  2B40 BBF0                move.l     [A5 - 0x4410], D0
label000025F6:
000025F6  554F                     subq.w     A7, 2
000025F8  3F2D BB48                move.w     -[A7], [A5 - 0x44B8]
000025FC  3F2D BB4A                move.w     -[A7], [A5 - 0x44B6]
00002600  4EBA FD76                jsr        [PC - 0x28A /* 00002378 */]
00002604  101F                     move.b     D0, [A7]+
00002606  5300                     subq.b     D0, 1
00002608  6704                     beq        +0x6 /* 0000260E */
0000260A  A850                     syscall    InitCursor
0000260C  6008                     bra        +0xA /* 00002616 */
label0000260E:
0000260E  A850                     syscall    InitCursor
label00002610:
00002610  1D7C 0001 0008           move.b     [A6 + 0x8], 0x1
label00002616:
00002616  4E5E                     unlink     A6
00002618  4E75                     rts
0000261A  0875 6E74 6974           bchg.b     <<invalid full ext with I/IS == 4>>, 0x74 /* 't' */
00002620  6C65                     bge        +0x67 /* 00002687 */
00002622  6416                     bcc        +0x18 /* 0000263A */
fn00002624:
00002624  4E56 FFEE                link       A6, -0x0012
00002628  2F07                     move.l     -[A7], D7
0000262A  422E 0008                clr.b      [A6 + 0x8]
0000262E  4A2D FD8B                tst.b      [A5 - 0x275]
00002632  6700 008A                beq        +0x8C /* 000026BE */
00002636  554F                     subq.w     A7, 2
00002638  3F2D BB48                move.w     -[A7], [A5 - 0x44B8]
// begin alternate branch 0000263A-0000263C
label0000263A:
0000263A  BB48                     cmpm.w     [A5]+, [A0]+
// end alternate branch 0000263A-0000263C
label0000263A: // (misaligned)
0000263C  4EAD 009A                jsr        [A5 + 0x9A /* export_15, CODE:1 @ 0000034E */]
00002640  3E1F                     move.w     D7, [A7]+
00002642  554F                     subq.w     A7, 2
00002644  3F07                     move.w     -[A7], D7
00002646  4EBA F9BC                jsr        [PC - 0x644 /* 00002004 */]
0000264A  4A5F                     tst.w      [A7]+
0000264C  6600 0088                bne        +0x8A /* 000026D6 */
00002650  554F                     subq.w     A7, 2
00002652  42A7                     clr.l      -[A7]
00002654  3F2D BB4A                move.w     -[A7], [A5 - 0x44B6]
00002658  4EAD 00BA                jsr        [A5 + 0xBA /* export_19, CODE:1 @ 000003EC */]
0000265C  3E1F                     move.w     D7, [A7]+
0000265E  554F                     subq.w     A7, 2
00002660  3F07                     move.w     -[A7], D7
00002662  4EBA F9A0                jsr        [PC - 0x660 /* 00002004 */]
00002666  4A5F                     tst.w      [A7]+
00002668  666C                     bne        +0x6E /* 000026D6 */
0000266A  594F                     subq.w     A7, 4
0000266C  3F3C 0081                move.w     -[A7], 0x81
00002670  A9BF                     syscall    GetRMenu
00002672  3F3C 0001                move.w     -[A7], 0x1
00002676  A939                     syscall    EnableItem
00002678  594F                     subq.w     A7, 4
0000267A  3F3C 0081                move.w     -[A7], 0x81
label0000267E:
0000267E  A9BF                     syscall    GetRMenu
00002680  3F3C 0002                move.w     -[A7], 0x2
00002684  A939                     syscall    EnableItem
00002686  594F                     subq.w     A7, 4
00002688  3F3C 0081                move.w     -[A7], 0x81
0000268C  A9BF                     syscall    GetRMenu
0000268E  3F3C 0004                move.w     -[A7], 0x4
00002692  A93A                     syscall    DisableItem
00002694  594F                     subq.w     A7, 4
00002696  3F3C 0081                move.w     -[A7], 0x81
0000269A  A9BF                     syscall    GetRMenu
0000269C  3F3C 0005                move.w     -[A7], 0x5
000026A0  A93A                     syscall    DisableItem
000026A2  594F                     subq.w     A7, 4
000026A4  3F3C 0081                move.w     -[A7], 0x81
000026A8  A9BF                     syscall    GetRMenu
000026AA  3F3C 0006                move.w     -[A7], 0x6
000026AE  A93A                     syscall    DisableItem
000026B0  594F                     subq.w     A7, 4
000026B2  3F3C 0081                move.w     -[A7], 0x81
000026B6  A9BF                     syscall    GetRMenu
000026B8  3F3C 0007                move.w     -[A7], 0x7
000026BC  A93A                     syscall    DisableItem
label000026BE:
000026BE  422D FD8B                clr.b      [A5 - 0x275]
000026C2  41FA 0018                lea.l      A0, [PC + 0x18 /* 000026DC, value 0x8756E74, pstring "untitled" */]
000026C6  43ED BB98                lea.l      A1, [A5 - 0x4468]
000026CA  22D8                     move.l     [A1]+, [A0]+
000026CC  22D8                     move.l     [A1]+, [A0]+
000026CE  22D8                     move.l     [A1]+, [A0]+
000026D0  1D7C 0001 0008           move.b     [A6 + 0x8], 0x1
label000026D6:
000026D6  2E1F                     move.l     D7, [A7]+
000026D8  4E5E                     unlink     A6
000026DA  4E75                     rts
000026DC  0875 6E74 6974           bchg.b     <<invalid full ext with I/IS == 4>>, 0x74 /* 't' */
000026E2  6C65                     bge        +0x67 /* 00002749 */
000026E4  6498                     bcc        -0x66 /* 0000267E */
fn000026E6:
000026E6  4E56 FFE6                link       A6, -0x001A
000026EA  2F0C                     move.l     -[A7], A4
000026EC  286E 0008                movea.l    A4, [A6 + 0x8]
000026F0  2F2C FFEA                move.l     -[A7], [A4 - 0x16]
000026F4  A873                     syscall    SetPort
000026F6  2F2C FFEA                move.l     -[A7], [A4 - 0x16]
000026FA  3F3C 0001                move.w     -[A7], 0x1
000026FE  486C FFDC                pea.l      [A4 - 0x24]
00002702  486C FFCE                pea.l      [A4 - 0x32]
00002706  486C FFDE                pea.l      [A4 - 0x22]
0000270A  A98D                     syscall    GetDialogItem/GetDItem
0000270C  3F3C 0003                move.w     -[A7], 0x3
00002710  3F3C 0003                move.w     -[A7], 0x3
00002714  A89B                     syscall    PenSize
00002716  486C FFDE                pea.l      [A4 - 0x22]
0000271A  3F3C FFFC                move.w     -[A7], 0xFFFC
0000271E  3F3C FFFC                move.w     -[A7], 0xFFFC
00002722  A8A9                     syscall    InsetRect
00002724  486C FFDE                pea.l      [A4 - 0x22]
00002728  3F3C 0010                move.w     -[A7], 0x10
0000272C  3F3C 0010                move.w     -[A7], 0x10
00002730  A8B0                     syscall    FrameRoundRect
00002732  A89E                     syscall    PenNormal
00002734  285F                     movea.l    A4, [A7]+
00002736  4E5E                     unlink     A6
00002738  2E9F                     move.l     [A7], [A7]+
0000273A  4E75                     rts
fn0000273C:
0000273C  4E56 FFCE                link       A6, -0x0032
00002740  48E7 0708                movem.l    -[A7], D5,D6,D7,A4
00002744  486E FFE6                pea.l      [A6 - 0x1A]
00002748  A874                     syscall    GetPort
0000274A  594F                     subq.w     A7, 4
0000274C  3F3C 0085                move.w     -[A7], 0x85
00002750  42A7                     clr.l      -[A7]
00002752  70FF                     moveq.l    D0, 0xFFFFFFFF
00002754  2F00                     move.l     -[A7], D0
00002756  A97C                     syscall    GetNewDialog
00002758  2D5F FFEA                move.l     [A6 - 0x16], [A7]+
0000275C  206E FFEA                movea.l    A0, [A6 - 0x16]
00002760  49E8 0002                lea.l      A4, [A0 + 0x2]
00002764  3A2D BB40                move.w     D5, [A5 - 0x44C0]
00002768  9A6C 0008                sub.w      D5, [A4 + 0x8]
0000276C  3C2D BB42                move.w     D6, [A5 - 0x44BE]
00002770  9C6C 0006                sub.w      D6, [A4 + 0x6]
00002774  2F2E FFEA                move.l     -[A7], [A6 - 0x16]
00002778  3F05                     move.w     -[A7], D5
0000277A  3F06                     move.w     -[A7], D6
0000277C  4227                     clr.b      -[A7]
0000277E  A91B                     syscall    MoveWindow
00002780  2F2E FFEA                move.l     -[A7], [A6 - 0x16]
00002784  A915                     syscall    ShowWindow
00002786  2F2E FFEA                move.l     -[A7], [A6 - 0x16]
0000278A  A91F                     syscall    SelectWindow
0000278C  2F2E FFEA                move.l     -[A7], [A6 - 0x16]
00002790  A873                     syscall    SetPort
00002792  2F0E                     move.l     -[A7], A6
00002794  4EBA FF50                jsr        [PC - 0xB0 /* 000026E6 */]
00002798  4207                     clr.b      D7
label0000279A:
0000279A  42A7                     clr.l      -[A7]
0000279C  486E FFD8                pea.l      [A6 - 0x28]
000027A0  A991                     syscall    ModalDialog
000027A2  2F2E FFEA                move.l     -[A7], [A6 - 0x16]
000027A6  3F2E FFD8                move.w     -[A7], [A6 - 0x28]
000027AA  486E FFDC                pea.l      [A6 - 0x24]
000027AE  486E FFCE                pea.l      [A6 - 0x32]
000027B2  486E FFDE                pea.l      [A6 - 0x22]
000027B6  A98D                     syscall    GetDialogItem/GetDItem
000027B8  0C6E 0001 FFD8           cmpi.w     [A6 - 0x28], 0x1
000027BE  57C0                     seq        D0
000027C0  0C6E 0002 FFD8           cmpi.w     [A6 - 0x28], 0x2
000027C6  57C1                     seq        D1
000027C8  8001                     or.b       D0, D1
000027CA  0C6E 0006 FFD8           cmpi.w     [A6 - 0x28], 0x6
000027D0  57C1                     seq        D1
000027D2  8001                     or.b       D0, D1
000027D4  6708                     beq        +0xA /* 000027DE */
000027D6  3D6E FFD8 0008           move.w     [A6 + 0x8], [A6 - 0x28]
000027DC  7E01                     moveq.l    D7, 0x01
label000027DE:
000027DE  4A07                     tst.b      D7
000027E0  67B8                     beq        -0x46 /* 0000279A */
000027E2  2F2E FFEA                move.l     -[A7], [A6 - 0x16]
000027E6  A983                     syscall    DisposeDialog
000027E8  4AAD B8B6                tst.l      [A5 - 0x474A]
000027EC  6708                     beq        +0xA /* 000027F6 */
000027EE  2F2D B8B6                move.l     -[A7], [A5 - 0x474A]
000027F2  A873                     syscall    SetPort
000027F4  6006                     bra        +0x8 /* 000027FC */
label000027F6:
000027F6  2F2E FFE6                move.l     -[A7], [A6 - 0x1A]
000027FA  A873                     syscall    SetPort
label000027FC:
000027FC  4CDF 10E0                movem.l    D5,D6,D7,A4, [A7]+
00002800  4E5E                     unlink     A6
00002802  4E75                     rts
fn00002804:
00002804  4E56 FFE6                link       A6, -0x001A
00002808  2F0C                     move.l     -[A7], A4
0000280A  286E 0008                movea.l    A4, [A6 + 0x8]
0000280E  2F2C FFEA                move.l     -[A7], [A4 - 0x16]
00002812  A873                     syscall    SetPort
00002814  2F2C FFEA                move.l     -[A7], [A4 - 0x16]
00002818  3F3C 0001                move.w     -[A7], 0x1
0000281C  486C FFDC                pea.l      [A4 - 0x24]
00002820  486C FFCE                pea.l      [A4 - 0x32]
00002824  486C FFDE                pea.l      [A4 - 0x22]
00002828  A98D                     syscall    GetDialogItem/GetDItem
0000282A  3F3C 0003                move.w     -[A7], 0x3
0000282E  3F3C 0003                move.w     -[A7], 0x3
00002832  A89B                     syscall    PenSize
00002834  486C FFDE                pea.l      [A4 - 0x22]
00002838  3F3C FFFC                move.w     -[A7], 0xFFFC
0000283C  3F3C FFFC                move.w     -[A7], 0xFFFC
00002840  A8A9                     syscall    InsetRect
00002842  486C FFDE                pea.l      [A4 - 0x22]
00002846  3F3C 0010                move.w     -[A7], 0x10
0000284A  3F3C 0010                move.w     -[A7], 0x10
0000284E  A8B0                     syscall    FrameRoundRect
00002850  A89E                     syscall    PenNormal
00002852  285F                     movea.l    A4, [A7]+
00002854  4E5E                     unlink     A6
00002856  2E9F                     move.l     [A7], [A7]+
00002858  4E75                     rts
fn0000285A:
0000285A  4E56 FFCE                link       A6, -0x0032
0000285E  48E7 0708                movem.l    -[A7], D5,D6,D7,A4
00002862  486E FFE6                pea.l      [A6 - 0x1A]
00002866  A874                     syscall    GetPort
00002868  594F                     subq.w     A7, 4
0000286A  3F3C 0084                move.w     -[A7], 0x84
0000286E  42A7                     clr.l      -[A7]
00002870  70FF                     moveq.l    D0, 0xFFFFFFFF
00002872  2F00                     move.l     -[A7], D0
00002874  A97C                     syscall    GetNewDialog
00002876  2D5F FFEA                move.l     [A6 - 0x16], [A7]+
0000287A  206E FFEA                movea.l    A0, [A6 - 0x16]
0000287E  49E8 0002                lea.l      A4, [A0 + 0x2]
00002882  3A2D BB40                move.w     D5, [A5 - 0x44C0]
00002886  9A6C 0008                sub.w      D5, [A4 + 0x8]
0000288A  3C2D BB42                move.w     D6, [A5 - 0x44BE]
0000288E  9C6C 0006                sub.w      D6, [A4 + 0x6]
00002892  2F2E FFEA                move.l     -[A7], [A6 - 0x16]
00002896  3F05                     move.w     -[A7], D5
00002898  3F06                     move.w     -[A7], D6
0000289A  4227                     clr.b      -[A7]
0000289C  A91B                     syscall    MoveWindow
0000289E  2F2E FFEA                move.l     -[A7], [A6 - 0x16]
000028A2  A915                     syscall    ShowWindow
000028A4  2F2E FFEA                move.l     -[A7], [A6 - 0x16]
000028A8  A91F                     syscall    SelectWindow
000028AA  2F2E FFEA                move.l     -[A7], [A6 - 0x16]
000028AE  A873                     syscall    SetPort
000028B0  2F0E                     move.l     -[A7], A6
000028B2  4EBA FF50                jsr        [PC - 0xB0 /* 00002804 */]
000028B6  4207                     clr.b      D7
label000028B8:
000028B8  42A7                     clr.l      -[A7]
000028BA  486E FFD8                pea.l      [A6 - 0x28]
000028BE  A991                     syscall    ModalDialog
000028C0  2F2E FFEA                move.l     -[A7], [A6 - 0x16]
000028C4  3F2E FFD8                move.w     -[A7], [A6 - 0x28]
000028C8  486E FFDC                pea.l      [A6 - 0x24]
000028CC  486E FFCE                pea.l      [A6 - 0x32]
000028D0  486E FFDE                pea.l      [A6 - 0x22]
000028D4  A98D                     syscall    GetDialogItem/GetDItem
000028D6  0C6E 0001 FFD8           cmpi.w     [A6 - 0x28], 0x1
000028DC  57C0                     seq        D0
000028DE  0C6E 0002 FFD8           cmpi.w     [A6 - 0x28], 0x2
000028E4  57C1                     seq        D1
000028E6  8001                     or.b       D0, D1
000028E8  0C6E 0006 FFD8           cmpi.w     [A6 - 0x28], 0x6
000028EE  57C1                     seq        D1
000028F0  8001                     or.b       D0, D1
000028F2  6708                     beq        +0xA /* 000028FC */
000028F4  3D6E FFD8 0008           move.w     [A6 + 0x8], [A6 - 0x28]
000028FA  7E01                     moveq.l    D7, 0x01
label000028FC:
000028FC  4A07                     tst.b      D7
000028FE  67B8                     beq        -0x46 /* 000028B8 */
00002900  2F2E FFEA                move.l     -[A7], [A6 - 0x16]
00002904  A983                     syscall    DisposeDialog
00002906  4AAD B8B6                tst.l      [A5 - 0x474A]
0000290A  6708                     beq        +0xA /* 00002914 */
0000290C  2F2D B8B6                move.l     -[A7], [A5 - 0x474A]
00002910  A873                     syscall    SetPort
00002912  6006                     bra        +0x8 /* 0000291A */
label00002914:
00002914  2F2E FFE6                move.l     -[A7], [A6 - 0x1A]
00002918  A873                     syscall    SetPort
label0000291A:
0000291A  4CDF 10E0                movem.l    D5,D6,D7,A4, [A7]+
0000291E  4E5E                     unlink     A6
00002920  4E75                     rts
export_79:
00002922  4E56 FEEA                link       A6, -0x0116
00002926  48E7 0018                movem.l    -[A7], A3,A4
0000292A  3F2D BB4C                move.w     -[A7], [A5 - 0x44B4]
0000292E  A998                     syscall    UseResFile
00002930  594F                     subq.w     A7, 4
00002932  7068                     moveq.l    D0, 0x68
00002934  2F00                     move.l     -[A7], D0
00002936  4EAD 004A                jsr        [A5 + 0x4A /* export_5, CODE:1 @ 00000288 */]
0000293A  265F                     movea.l    A3, [A7]+
0000293C  200B                     move.l     D0, A3
0000293E  6708                     beq        +0xA /* 00002948 */
00002940  2F0B                     move.l     -[A7], A3
00002942  4EAD 0052                jsr        [A5 + 0x52 /* export_6, CODE:1 @ 000002A8 */]
00002946  600C                     bra        +0xE /* 00002954 */
label00002948:
00002948  3F3C 0019                move.w     -[A7], 0x19
0000294C  4EBA E102                jsr        [PC - 0x1EFE /* 00000A50 */]
00002950  6000 010C                bra        +0x10E /* 00002A5E */
label00002954:
00002954  594F                     subq.w     A7, 4
00002956  2F3C 4770 7266           move.l     -[A7], 0x47707266 /* 'Gprf' */
0000295C  3F3C 0080                move.w     -[A7], 0x80
00002960  A9A0                     syscall    GetResource
00002962  265F                     movea.l    A3, [A7]+
00002964  554F                     subq.w     A7, 2
00002966  A9AF                     syscall    ResError
00002968  4A5F                     tst.w      [A7]+
0000296A  57C0                     seq        D0
0000296C  220B                     move.l     D1, A3
0000296E  56C1                     sne        D1
00002970  C001                     and.b      D0, D1
00002972  6700 0084                beq        +0x86 /* 000029F8 */
00002976  2853                     movea.l    A4, [A3]
00002978  3F3C 0020                move.w     -[A7], 0x20 /* ' ' */
0000297C  486D BBBA                pea.l      [A5 - 0x4446]
00002980  2F0C                     move.l     -[A7], A4
00002982  4EAD 015A                jsr        [A5 + 0x15A /* export_39, CODE:1 @ 00000A28 */]
00002986  396D BB54 0022           move.w     [A4 + 0x22], [A5 - 0x44AC]
0000298C  396D BB56 0024           move.w     [A4 + 0x24], [A5 - 0x44AA]
00002992  396D BB58 0026           move.w     [A4 + 0x26], [A5 - 0x44A8]
00002998  396D BB5A 0028           move.w     [A4 + 0x28], [A5 - 0x44A6]
0000299E  396D BB5C 002A           move.w     [A4 + 0x2A], [A5 - 0x44A4]
000029A4  196D FD9C 002C           move.b     [A4 + 0x2C], [A5 - 0x264]
000029AA  196D FD93 002D           move.b     [A4 + 0x2D], [A5 - 0x26D]
000029B0  3F3C 000C                move.w     -[A7], 0xC
000029B4  486D BB60                pea.l      [A5 - 0x44A0]
000029B8  486C 002E                pea.l      [A4 + 0x2E]
000029BC  4EAD 015A                jsr        [A5 + 0x15A /* export_39, CODE:1 @ 00000A28 */]
000029C0  3F3C 000C                move.w     -[A7], 0xC
000029C4  486D BB6E                pea.l      [A5 - 0x4492]
000029C8  486C 003C                pea.l      [A4 + 0x3C]
000029CC  4EAD 015A                jsr        [A5 + 0x15A /* export_39, CODE:1 @ 00000A28 */]
000029D0  3F3C 000C                move.w     -[A7], 0xC
000029D4  486D BB7C                pea.l      [A5 - 0x4484]
000029D8  486C 004A                pea.l      [A4 + 0x4A]
000029DC  4EAD 015A                jsr        [A5 + 0x15A /* export_39, CODE:1 @ 00000A28 */]
000029E0  3F3C 000C                move.w     -[A7], 0xC
000029E4  486D BB8A                pea.l      [A5 - 0x4476]
000029E8  486C 0058                pea.l      [A4 + 0x58]
000029EC  4EAD 015A                jsr        [A5 + 0x15A /* export_39, CODE:1 @ 00000A28 */]
000029F0  396D BB46 0066           move.w     [A4 + 0x66], [A5 - 0x44BA]
000029F6  600A                     bra        +0xC /* 00002A02 */
label000029F8:
000029F8  3F3C 0019                move.w     -[A7], 0x19
000029FC  4EBA E052                jsr        [PC - 0x1FAE /* 00000A50 */]
00002A00  605C                     bra        +0x5E /* 00002A5E */
label00002A02:
00002A02  2F0B                     move.l     -[A7], A3
00002A04  A9AA                     syscall    ChangedResource
00002A06  2F0B                     move.l     -[A7], A3
00002A08  A9B0                     syscall    WriteResource
00002A0A  554F                     subq.w     A7, 2
00002A0C  A9AF                     syscall    ResError
00002A0E  4A5F                     tst.w      [A7]+
00002A10  6742                     beq        +0x44 /* 00002A54 */
00002A12  554F                     subq.w     A7, 2
00002A14  A9AF                     syscall    ResError
00002A16  0C5F FFD3                cmpi.w     [A7]+, 0xFFD3
00002A1A  57C0                     seq        D0
00002A1C  2F00                     move.l     -[A7], D0
00002A1E  554F                     subq.w     A7, 2
00002A20  A9AF                     syscall    ResError
00002A22  321F                     move.w     D1, [A7]+
00002A24  201F                     move.l     D0, [A7]+
00002A26  0C41 FFD2                cmpi.w     D1, 0xFFD2
00002A2A  57C1                     seq        D1
00002A2C  8001                     or.b       D0, D1
00002A2E  2F00                     move.l     -[A7], D0
00002A30  554F                     subq.w     A7, 2
00002A32  A9AF                     syscall    ResError
00002A34  321F                     move.w     D1, [A7]+
00002A36  201F                     move.l     D0, [A7]+
00002A38  0C41 FFD4                cmpi.w     D1, 0xFFD4
00002A3C  57C1                     seq        D1
00002A3E  8001                     or.b       D0, D1
00002A40  670A                     beq        +0xC /* 00002A4C */
00002A42  3F3C 0019                move.w     -[A7], 0x19
00002A46  4EBA E008                jsr        [PC - 0x1FF8 /* 00000A50 */]
00002A4A  6008                     bra        +0xA /* 00002A54 */
label00002A4C:
00002A4C  554F                     subq.w     A7, 2
00002A4E  A9AF                     syscall    ResError
00002A50  4EBA DFFE                jsr        [PC - 0x2002 /* 00000A50 */]
label00002A54:
00002A54  2F0B                     move.l     -[A7], A3
00002A56  4EAD 005A                jsr        [A5 + 0x5A /* export_7, CODE:1 @ 000002B2 */]
00002A5A  2F0B                     move.l     -[A7], A3
00002A5C  A9A3                     syscall    ReleaseResource
label00002A5E:
00002A5E  4CDF 1800                movem.l    A3,A4, [A7]+
00002A62  4E5E                     unlink     A6
00002A64  4E75                     rts
export_80:
fn00002A66:
00002A66  4E56 FFEE                link       A6, -0x0012
00002A6A  554F                     subq.w     A7, 2
00002A6C  4EBA F886                jsr        [PC - 0x77A /* 000022F4 */]
00002A70  101F                     move.b     D0, [A7]+
00002A72  5300                     subq.b     D0, 1
00002A74  6706                     beq        +0x8 /* 00002A7C */
00002A76  4EBA 0084                jsr        [PC + 0x84 /* 00002AFC */]
00002A7A  607C                     bra        +0x7E /* 00002AF8 */
label00002A7C:
00002A7C  4EAD 01A2                jsr        [A5 + 0x1A2 /* export_48, CODE:2 @ 0000258A */]
00002A80  422D FD96                clr.b      [A5 - 0x26A]
00002A84  3B7C 0001 BB3A           move.w     [A5 - 0x44C6], 0x1
00002A8A  302D BB3A                move.w     D0, [A5 - 0x44C6]
00002A8E  C1FC 013A                muls.w     D0, 0x13A
00002A92  0640 BFA8                addi.w     D0, 0xBFA8
00002A96  41F5 0000                lea.l      A0, [A5 + D0.w]
00002A9A  43ED F1F2                lea.l      A1, [A5 - 0xE0E]
00002A9E  704D                     moveq.l    D0, 0x4D
label00002AA0:
00002AA0  22D8                     move.l     [A1]+, [A0]+
00002AA2  51C8 FFFC                dbf        D0, -0x6 /* 00002AA0 */
00002AA6  32D8                     move.w     [A1]+, [A0]+
00002AA8  594F                     subq.w     A7, 4
00002AAA  3F3C 0081                move.w     -[A7], 0x81
00002AAE  A9BF                     syscall    GetRMenu
00002AB0  3F3C 0005                move.w     -[A7], 0x5
00002AB4  A939                     syscall    EnableItem
00002AB6  594F                     subq.w     A7, 4
00002AB8  3F3C 0081                move.w     -[A7], 0x81
00002ABC  A9BF                     syscall    GetRMenu
00002ABE  3F3C 0006                move.w     -[A7], 0x6
00002AC2  A939                     syscall    EnableItem
00002AC4  426D BB3E                clr.w      [A5 - 0x44C2]
00002AC8  41ED B8D6                lea.l      A0, [A5 - 0x472A]
00002ACC  43ED BBE4                lea.l      A1, [A5 - 0x441C]
00002AD0  22D8                     move.l     [A1]+, [A0]+
00002AD2  22D8                     move.l     [A1]+, [A0]+
00002AD4  3F2D F20E                move.w     -[A7], [A5 - 0xDF2]
00002AD8  4EAD 017A                jsr        [A5 + 0x17A /* export_43, CODE:2 @ 00000150 */]
00002ADC  3F3C 0003                move.w     -[A7], 0x3
00002AE0  4EBA D646                jsr        [PC - 0x29BA /* 00000128 */]
00002AE4  3F3C 0002                move.w     -[A7], 0x2
00002AE8  4EBA D63E                jsr        [PC - 0x29C2 /* 00000128 */]
00002AEC  4EAD 0182                jsr        [A5 + 0x182 /* export_44, CODE:2 @ 00001814 */]
00002AF0  4EAD 0172                jsr        [A5 + 0x172 /* export_42, CODE:2 @ 00000000 */]
00002AF4  4EAD 020A                jsr        [A5 + 0x20A /* export_61, CODE:2 @ 00004AA6 */]
label00002AF8:
00002AF8  4E5E                     unlink     A6
00002AFA  4E75                     rts
export_81:
fn00002AFC:
00002AFC  4E56 FFEC                link       A6, -0x0014
00002B00  2F07                     move.l     -[A7], D7
00002B02  3B7C 0001 BB3A           move.w     [A5 - 0x44C6], 0x1
00002B08  486D F1F2                pea.l      [A5 - 0xE0E]
00002B0C  4EAD 01BA                jsr        [A5 + 0x1BA /* export_51, CODE:2 @ 00002B0C */]
00002B10  3B7C 0100 BBEC           move.w     [A5 - 0x4414], 0x100
00002B16  426D BBEE                clr.w      [A5 - 0x4412]
00002B1A  4247                     clr.w      D7
label00002B1C:
00002B1C  3007                     move.w     D0, D7
00002B1E  E540                     asl        D0.w, 2
00002B20  0640 BBF4                addi.w     D0, 0xBBF4
00002B24  42B5 0000                clr.l      [A5 + D0.w]
00002B28  3007                     move.w     D0, D7
00002B2A  D040                     add.w      D0, D0
00002B2C  0640 BC44                addi.w     D0, 0xBC44
00002B30  4275 0000                clr.w      [A5 + D0.w]
00002B34  3007                     move.w     D0, D7
00002B36  C1FC 001A                muls.w     D0, 0x1A
00002B3A  41FA 00BA                lea.l      A0, [PC + 0xBA /* 00002BF6, value 0x96E6F20 '\tno ', pstring "no one..." */]
00002B3E  0640 BC6C                addi.w     D0, 0xBC6C
00002B42  43F5 0000                lea.l      A1, [A5 + D0.w]
00002B46  22D8                     move.l     [A1]+, [A0]+
00002B48  22D8                     move.l     [A1]+, [A0]+
00002B4A  22D8                     move.l     [A1]+, [A0]+
00002B4C  3007                     move.w     D0, D7
00002B4E  C1FC 001A                muls.w     D0, 0x1A
00002B52  41FA 0096                lea.l      A0, [PC + 0x96 /* 00002BEA, value 0xA6E6F20 '\nno ', pstring "no room..." */]
00002B56  0640 BE74                addi.w     D0, 0xBE74
00002B5A  43F5 0000                lea.l      A1, [A5 + D0.w]
00002B5E  22D8                     move.l     [A1]+, [A0]+
00002B60  22D8                     move.l     [A1]+, [A0]+
00002B62  22D8                     move.l     [A1]+, [A0]+
00002B64  5247                     addq.w     D7, 1
00002B66  0C47 0013                cmpi.w     D7, 0x13
00002B6A  6FB0                     ble        -0x4E /* 00002B1C */
00002B6C  3F3C 0020                move.w     -[A7], 0x20 /* ' ' */
00002B70  486D BBBA                pea.l      [A5 - 0x4446]
00002B74  486D C07C                pea.l      [A5 - 0x3F84]
00002B78  4EAD 015A                jsr        [A5 + 0x15A /* export_39, CODE:1 @ 00000A28 */]
00002B7C  422D C09E                clr.b      [A5 - 0x3F62]
00002B80  422D C0C0                clr.b      [A5 - 0x3F40]
00002B84  302D BB3A                move.w     D0, [A5 - 0x44C6]
00002B88  C1FC 013A                muls.w     D0, 0x13A
00002B8C  41ED F1F2                lea.l      A0, [A5 - 0xE0E]
00002B90  0640 BFA8                addi.w     D0, 0xBFA8
00002B94  43F5 0000                lea.l      A1, [A5 + D0.w]
00002B98  704D                     moveq.l    D0, 0x4D
label00002B9A:
00002B9A  22D8                     move.l     [A1]+, [A0]+
00002B9C  51C8 FFFC                dbf        D0, -0x6 /* 00002B9A */
00002BA0  32D8                     move.w     [A1]+, [A0]+
00002BA2  422D FD96                clr.b      [A5 - 0x26A]
00002BA6  426D BB3E                clr.w      [A5 - 0x44C2]
00002BAA  41ED B8D6                lea.l      A0, [A5 - 0x472A]
00002BAE  43ED BBE4                lea.l      A1, [A5 - 0x441C]
00002BB2  22D8                     move.l     [A1]+, [A0]+
00002BB4  22D8                     move.l     [A1]+, [A0]+
00002BB6  3B7C 0001 BBEE           move.w     [A5 - 0x4412], 0x1
00002BBC  422E FFEF                clr.b      [A6 - 0x11]
00002BC0  486E FFEF                pea.l      [A6 - 0x11]
00002BC4  4EAD 01D2                jsr        [A5 + 0x1D2 /* export_54, CODE:2 @ 0000338C */]
00002BC8  3F2D F20E                move.w     -[A7], [A5 - 0xDF2]
00002BCC  4EAD 017A                jsr        [A5 + 0x17A /* export_43, CODE:2 @ 00000150 */]
00002BD0  3F3C 0004                move.w     -[A7], 0x4
00002BD4  4EBA D552                jsr        [PC - 0x2AAE /* 00000128 */]
00002BD8  3F3C 0002                move.w     -[A7], 0x2
00002BDC  4EBA D54A                jsr        [PC - 0x2AB6 /* 00000128 */]
00002BE0  4EAD 020A                jsr        [A5 + 0x20A /* export_61, CODE:2 @ 00004AA6 */]
00002BE4  2E1F                     move.l     D7, [A7]+
00002BE6  4E5E                     unlink     A6
00002BE8  4E75                     rts
00002BEA  0A6E 6F20 726F           xori.w     [A6 + 0x726F], 0x6F20 /* 'o ' */
00002BF0  6F6D                     ble        +0x6F /* 00002C5F */
00002BF2  2E2E 2E08                move.l     D7, [A6 + 0x2E08]
00002BF6  096E 6F20                bchg       [A6 + 0x6F20], D4
00002BFA  6F6E                     ble        +0x70 /* 00002C6A */
00002BFC  652E                     bcs        +0x30 /* 00002C2C */
00002BFE  2E2E 4E56                move.l     D7, [A6 + 0x4E56]
// begin alternate branch 00002C00-00002C04
fn00002C00:
00002C00  4E56 FFD4                link       A6, -0x002C
// end alternate branch 00002C00-00002C04
fn00002C00: // (misaligned)
00002C02  FFD4                     .invalid   <<F/7/7>>
00002C04  48E7 0300                movem.l    -[A7], D6,D7
00002C08  4EBA DD44                jsr        [PC - 0x22BC /* 0000094E */]
00002C0C  4A2D FD96                tst.b      [A5 - 0x26A]
00002C10  6700 007C                beq        +0x7E /* 00002C8E */
00002C14  554F                     subq.w     A7, 2
00002C16  4EBA FB24                jsr        [PC - 0x4DC /* 0000273C */]
00002C1A  3C1F                     move.w     D6, [A7]+
00002C1C  0C46 0001                cmpi.w     D6, 0x1
00002C20  6656                     bne        +0x58 /* 00002C78 */
00002C22  302D BB3A                move.w     D0, [A5 - 0x44C6]
00002C26  C1FC 013A                muls.w     D0, 0x13A
00002C2A  41ED F1F2                lea.l      A0, [A5 - 0xE0E]
// begin alternate branch 00002C2C-00002C2E
label00002C2C:
00002C2C  F1F2                     .invalid   <<F/7/0>>
// end alternate branch 00002C2C-00002C2E
label00002C2C: // (misaligned)
00002C2E  0640 BFA8                addi.w     D0, 0xBFA8
00002C32  43F5 0000                lea.l      A1, [A5 + D0.w]
00002C36  704D                     moveq.l    D0, 0x4D
label00002C38:
00002C38  22D8                     move.l     [A1]+, [A0]+
00002C3A  51C8 FFFC                dbf        D0, -0x6 /* 00002C38 */
00002C3E  32D8                     move.w     [A1]+, [A0]+
00002C40  4A2D FD8B                tst.b      [A5 - 0x275]
00002C44  6722                     beq        +0x24 /* 00002C68 */
00002C46  554F                     subq.w     A7, 2
00002C48  4EBA 0266                jsr        [PC + 0x266 /* 00002EB0 */]
00002C4C  101F                     move.b     D0, [A7]+
00002C4E  5300                     subq.b     D0, 1
00002C50  670C                     beq        +0xE /* 00002C5E */
00002C52  554F                     subq.w     A7, 2
00002C54  4EBA F9CE                jsr        [PC - 0x632 /* 00002624 */]
00002C58  1E1F                     move.b     D7, [A7]+
00002C5A  6000 0096                bra        +0x98 /* 00002CF2 */
label00002C5E:
00002C5E  554F                     subq.w     A7, 2
00002C60  4EBA F9C2                jsr        [PC - 0x63E /* 00002624 */]
00002C64  1E1F                     move.b     D7, [A7]+
00002C66  602E                     bra        +0x30 /* 00002C96 */
label00002C68:
00002C68  554F                     subq.w     A7, 2
label00002C6A:
00002C6A  4EBA 027E                jsr        [PC + 0x27E /* 00002EEA */]
00002C6E  101F                     move.b     D0, [A7]+
00002C70  5300                     subq.b     D0, 1
00002C72  6600 007E                bne        +0x80 /* 00002CF2 */
00002C76  601E                     bra        +0x20 /* 00002C96 */
label00002C78:
00002C78  0C46 0006                cmpi.w     D6, 0x6
00002C7C  6606                     bne        +0x8 /* 00002C84 */
00002C7E  6000 0072                bra        +0x74 /* 00002CF2 */
00002C82  6012                     bra        +0x14 /* 00002C96 */
label00002C84:
00002C84  554F                     subq.w     A7, 2
00002C86  4EBA F99C                jsr        [PC - 0x664 /* 00002624 */]
00002C8A  1E1F                     move.b     D7, [A7]+
00002C8C  6008                     bra        +0xA /* 00002C96 */
label00002C8E:
00002C8E  554F                     subq.w     A7, 2
00002C90  4EBA F992                jsr        [PC - 0x66E /* 00002624 */]
00002C94  1E1F                     move.b     D7, [A7]+
label00002C96:
00002C96  486D F1F2                pea.l      [A5 - 0xE0E]
00002C9A  4EAD 01BA                jsr        [A5 + 0x1BA /* export_51, CODE:2 @ 00002B0C */]
00002C9E  426D BB3A                clr.w      [A5 - 0x44C6]
00002CA2  422D FD96                clr.b      [A5 - 0x26A]
00002CA6  2F2D B8B2                move.l     -[A7], [A5 - 0x474E]
00002CAA  A873                     syscall    SetPort
00002CAC  486D B8C6                pea.l      [A5 - 0x473A]
00002CB0  A8A3                     syscall    EraseRect
00002CB2  4A2D FD97                tst.b      [A5 - 0x269]
00002CB6  6708                     beq        +0xA /* 00002CC0 */
00002CB8  2F2D BA82                move.l     -[A7], [A5 - 0x457E]
00002CBC  A873                     syscall    SetPort
00002CBE  6006                     bra        +0x8 /* 00002CC6 */
label00002CC0:
00002CC0  2F2D B922                move.l     -[A7], [A5 - 0x46DE]
00002CC4  A873                     syscall    SetPort
label00002CC6:
00002CC6  486D B8C6                pea.l      [A5 - 0x473A]
00002CCA  A8A3                     syscall    EraseRect
00002CCC  4A2D FD97                tst.b      [A5 - 0x269]
00002CD0  6708                     beq        +0xA /* 00002CDA */
00002CD2  2F2D BA7E                move.l     -[A7], [A5 - 0x4582]
00002CD6  A873                     syscall    SetPort
00002CD8  6006                     bra        +0x8 /* 00002CE0 */
label00002CDA:
00002CDA  2F2D B91E                move.l     -[A7], [A5 - 0x46E2]
00002CDE  A873                     syscall    SetPort
label00002CE0:
00002CE0  486D B8C6                pea.l      [A5 - 0x473A]
00002CE4  A8A3                     syscall    EraseRect
00002CE6  4EAD 01FA                jsr        [A5 + 0x1FA /* export_59, CODE:2 @ 000048E6 */]
00002CEA  3F3C 0005                move.w     -[A7], 0x5
00002CEE  4EBA D438                jsr        [PC - 0x2BC8 /* 00000128 */]
label00002CF2:
00002CF2  4CDF 00C0                movem.l    D6,D7, [A7]+
00002CF6  4E5E                     unlink     A6
00002CF8  4E75                     rts
fn00002CFA:
00002CFA  4E56 FFEE                link       A6, -0x0012
00002CFE  2F07                     move.l     -[A7], D7
00002D00  302D BB3A                move.w     D0, [A5 - 0x44C6]
00002D04  C1FC 013A                muls.w     D0, 0x13A
00002D08  41ED F1F2                lea.l      A0, [A5 - 0xE0E]
00002D0C  0640 BFA8                addi.w     D0, 0xBFA8
00002D10  43F5 0000                lea.l      A1, [A5 + D0.w]
00002D14  704D                     moveq.l    D0, 0x4D
label00002D16:
00002D16  22D8                     move.l     [A1]+, [A0]+
00002D18  51C8 FFFC                dbf        D0, -0x6 /* 00002D16 */
00002D1C  32D8                     move.w     [A1]+, [A0]+
00002D1E  3E2D BB3A                move.w     D7, [A5 - 0x44C6]
00002D22  4EAD 01C2                jsr        [A5 + 0x1C2 /* export_52, CODE:2 @ 00002C2C */]
00002D26  BE6D BB3A                cmp.w      D7, [A5 - 0x44C6]
00002D2A  673A                     beq        +0x3C /* 00002D66 */
00002D2C  302D BB3A                move.w     D0, [A5 - 0x44C6]
00002D30  C1FC 013A                muls.w     D0, 0x13A
00002D34  0640 BFA8                addi.w     D0, 0xBFA8
00002D38  41F5 0000                lea.l      A0, [A5 + D0.w]
00002D3C  43ED F1F2                lea.l      A1, [A5 - 0xE0E]
00002D40  704D                     moveq.l    D0, 0x4D
label00002D42:
00002D42  22D8                     move.l     [A1]+, [A0]+
00002D44  51C8 FFFC                dbf        D0, -0x6 /* 00002D42 */
00002D48  32D8                     move.w     [A1]+, [A0]+
00002D4A  4EBA DC02                jsr        [PC - 0x23FE /* 0000094E */]
00002D4E  3F2D F20E                move.w     -[A7], [A5 - 0xDF2]
00002D52  4EAD 017A                jsr        [A5 + 0x17A /* export_43, CODE:2 @ 00000150 */]
00002D56  4EAD 0182                jsr        [A5 + 0x182 /* export_44, CODE:2 @ 00001814 */]
00002D5A  4EAD 0172                jsr        [A5 + 0x172 /* export_42, CODE:2 @ 00000000 */]
00002D5E  3F3C 0002                move.w     -[A7], 0x2
00002D62  4EBA D3C4                jsr        [PC - 0x2C3C /* 00000128 */]
label00002D66:
00002D66  2E1F                     move.l     D7, [A7]+
00002D68  4E5E                     unlink     A6
00002D6A  4E75                     rts
export_82:
fn00002D6C:
00002D6C  302D BB3A                move.w     D0, [A5 - 0x44C6]
00002D70  C1FC 013A                muls.w     D0, 0x13A
00002D74  41ED F1F2                lea.l      A0, [A5 - 0xE0E]
00002D78  0640 BFA8                addi.w     D0, 0xBFA8
00002D7C  43F5 0000                lea.l      A1, [A5 + D0.w]
00002D80  704D                     moveq.l    D0, 0x4D
label00002D82:
00002D82  22D8                     move.l     [A1]+, [A0]+
00002D84  51C8 FFFC                dbf        D0, -0x6 /* 00002D82 */
00002D88  32D8                     move.w     [A1]+, [A0]+
00002D8A  302D BB3A                move.w     D0, [A5 - 0x44C6]
00002D8E  5340                     subq.w     D0, 1
00002D90  3B40 BB3A                move.w     [A5 - 0x44C6], D0
00002D94  0C6D 0001 BB3A           cmpi.w     [A5 - 0x44C6], 0x1
00002D9A  6C06                     bge        +0x8 /* 00002DA2 */
00002D9C  3B6D BBEE BB3A           move.w     [A5 - 0x44C6], [A5 - 0x4412]
label00002DA2:
00002DA2  302D BB3A                move.w     D0, [A5 - 0x44C6]
00002DA6  C1FC 013A                muls.w     D0, 0x13A
00002DAA  0640 BFA8                addi.w     D0, 0xBFA8
00002DAE  41F5 0000                lea.l      A0, [A5 + D0.w]
00002DB2  43ED F1F2                lea.l      A1, [A5 - 0xE0E]
00002DB6  704D                     moveq.l    D0, 0x4D
label00002DB8:
00002DB8  22D8                     move.l     [A1]+, [A0]+
00002DBA  51C8 FFFC                dbf        D0, -0x6 /* 00002DB8 */
00002DBE  32D8                     move.w     [A1]+, [A0]+
00002DC0  4EBA DB8C                jsr        [PC - 0x2474 /* 0000094E */]
00002DC4  3F2D F20E                move.w     -[A7], [A5 - 0xDF2]
00002DC8  4EAD 017A                jsr        [A5 + 0x17A /* export_43, CODE:2 @ 00000150 */]
00002DCC  4EAD 0182                jsr        [A5 + 0x182 /* export_44, CODE:2 @ 00001814 */]
00002DD0  4EAD 0172                jsr        [A5 + 0x172 /* export_42, CODE:2 @ 00000000 */]
00002DD4  3F3C 0002                move.w     -[A7], 0x2
00002DD8  4EBA D34E                jsr        [PC - 0x2CB2 /* 00000128 */]
00002DDC  4E75                     rts
export_83:
fn00002DDE:
00002DDE  302D BB3A                move.w     D0, [A5 - 0x44C6]
00002DE2  C1FC 013A                muls.w     D0, 0x13A
00002DE6  41ED F1F2                lea.l      A0, [A5 - 0xE0E]
00002DEA  0640 BFA8                addi.w     D0, 0xBFA8
00002DEE  43F5 0000                lea.l      A1, [A5 + D0.w]
00002DF2  704D                     moveq.l    D0, 0x4D
label00002DF4:
00002DF4  22D8                     move.l     [A1]+, [A0]+
00002DF6  51C8 FFFC                dbf        D0, -0x6 /* 00002DF4 */
00002DFA  32D8                     move.w     [A1]+, [A0]+
00002DFC  302D BB3A                move.w     D0, [A5 - 0x44C6]
00002E00  5240                     addq.w     D0, 1
00002E02  3B40 BB3A                move.w     [A5 - 0x44C6], D0
00002E06  302D BB3A                move.w     D0, [A5 - 0x44C6]
00002E0A  B06D BBEE                cmp.w      D0, [A5 - 0x4412]
00002E0E  6F06                     ble        +0x8 /* 00002E16 */
00002E10  3B7C 0001 BB3A           move.w     [A5 - 0x44C6], 0x1
label00002E16:
00002E16  302D BB3A                move.w     D0, [A5 - 0x44C6]
00002E1A  C1FC 013A                muls.w     D0, 0x13A
00002E1E  0640 BFA8                addi.w     D0, 0xBFA8
00002E22  41F5 0000                lea.l      A0, [A5 + D0.w]
00002E26  43ED F1F2                lea.l      A1, [A5 - 0xE0E]
00002E2A  704D                     moveq.l    D0, 0x4D
label00002E2C:
00002E2C  22D8                     move.l     [A1]+, [A0]+
00002E2E  51C8 FFFC                dbf        D0, -0x6 /* 00002E2C */
00002E32  32D8                     move.w     [A1]+, [A0]+
00002E34  4EBA DB18                jsr        [PC - 0x24E8 /* 0000094E */]
00002E38  3F2D F20E                move.w     -[A7], [A5 - 0xDF2]
00002E3C  4EAD 017A                jsr        [A5 + 0x17A /* export_43, CODE:2 @ 00000150 */]
00002E40  4EAD 0182                jsr        [A5 + 0x182 /* export_44, CODE:2 @ 00001814 */]
00002E44  4EAD 0172                jsr        [A5 + 0x172 /* export_42, CODE:2 @ 00000000 */]
00002E48  3F3C 0002                move.w     -[A7], 0x2
00002E4C  4EBA D2DA                jsr        [PC - 0x2D26 /* 00000128 */]
00002E50  4E75                     rts
fn00002E52:
00002E52  4E56 FFEE                link       A6, -0x0012
00002E56  302D BB3A                move.w     D0, [A5 - 0x44C6]
00002E5A  C1FC 013A                muls.w     D0, 0x13A
00002E5E  41ED F1F2                lea.l      A0, [A5 - 0xE0E]
00002E62  0640 BFA8                addi.w     D0, 0xBFA8
00002E66  43F5 0000                lea.l      A1, [A5 + D0.w]
00002E6A  704D                     moveq.l    D0, 0x4D
label00002E6C:
00002E6C  22D8                     move.l     [A1]+, [A0]+
00002E6E  51C8 FFFC                dbf        D0, -0x6 /* 00002E6C */
00002E72  32D8                     move.w     [A1]+, [A0]+
00002E74  554F                     subq.w     A7, 2
00002E76  4EAD 01B2                jsr        [A5 + 0x1B2 /* export_50, CODE:2 @ 00002A3E */]
00002E7A  101F                     move.b     D0, [A7]+
00002E7C  5300                     subq.b     D0, 1
00002E7E  662C                     bne        +0x2E /* 00002EAC */
00002E80  1D7C 0001 FFEF           move.b     [A6 - 0x11], 0x1
00002E86  1B7C 0001 FD96           move.b     [A5 - 0x26A], 0x1
00002E8C  486E FFEF                pea.l      [A6 - 0x11]
00002E90  4EAD 01D2                jsr        [A5 + 0x1D2 /* export_54, CODE:2 @ 0000338C */]
00002E94  3F2D F20E                move.w     -[A7], [A5 - 0xDF2]
00002E98  4EAD 017A                jsr        [A5 + 0x17A /* export_43, CODE:2 @ 00000150 */]
00002E9C  4EAD 0172                jsr        [A5 + 0x172 /* export_42, CODE:2 @ 00000000 */]
00002EA0  426D BB3E                clr.w      [A5 - 0x44C2]
00002EA4  3F3C 0002                move.w     -[A7], 0x2
00002EA8  4EBA D27E                jsr        [PC - 0x2D82 /* 00000128 */]
label00002EAC:
00002EAC  4E5E                     unlink     A6
00002EAE  4E75                     rts
fn00002EB0:
00002EB0  4E56 FFEE                link       A6, -0x0012
00002EB4  2F07                     move.l     -[A7], D7
00002EB6  302D BB3A                move.w     D0, [A5 - 0x44C6]
00002EBA  C1FC 013A                muls.w     D0, 0x13A
00002EBE  41ED F1F2                lea.l      A0, [A5 - 0xE0E]
00002EC2  0640 BFA8                addi.w     D0, 0xBFA8
00002EC6  43F5 0000                lea.l      A1, [A5 + D0.w]
00002ECA  704D                     moveq.l    D0, 0x4D
label00002ECC:
00002ECC  22D8                     move.l     [A1]+, [A0]+
00002ECE  51C8 FFFC                dbf        D0, -0x6 /* 00002ECC */
00002ED2  32D8                     move.w     [A1]+, [A0]+
00002ED4  4EAD 01A2                jsr        [A5 + 0x1A2 /* export_48, CODE:2 @ 0000258A */]
00002ED8  554F                     subq.w     A7, 2
00002EDA  4EBA F6D2                jsr        [PC - 0x92E /* 000025AE */]
00002EDE  1E1F                     move.b     D7, [A7]+
00002EE0  1D47 0008                move.b     [A6 + 0x8], D7
00002EE4  2E1F                     move.l     D7, [A7]+
00002EE6  4E5E                     unlink     A6
00002EE8  4E75                     rts
fn00002EEA:
00002EEA  4E56 FFEE                link       A6, -0x0012
00002EEE  2F07                     move.l     -[A7], D7
00002EF0  302D BB3A                move.w     D0, [A5 - 0x44C6]
00002EF4  C1FC 013A                muls.w     D0, 0x13A
00002EF8  41ED F1F2                lea.l      A0, [A5 - 0xE0E]
00002EFC  0640 BFA8                addi.w     D0, 0xBFA8
00002F00  43F5 0000                lea.l      A1, [A5 + D0.w]
00002F04  704D                     moveq.l    D0, 0x4D
label00002F06:
00002F06  22D8                     move.l     [A1]+, [A0]+
00002F08  51C8 FFFC                dbf        D0, -0x6 /* 00002F06 */
00002F0C  32D8                     move.w     [A1]+, [A0]+
00002F0E  4EAD 01A2                jsr        [A5 + 0x1A2 /* export_48, CODE:2 @ 0000258A */]
00002F12  554F                     subq.w     A7, 2
00002F14  4EBA F514                jsr        [PC - 0xAEC /* 0000242A */]
00002F18  1E1F                     move.b     D7, [A7]+
00002F1A  1D47 0008                move.b     [A6 + 0x8], D7
00002F1E  2E1F                     move.l     D7, [A7]+
00002F20  4E5E                     unlink     A6
00002F22  4E75                     rts
fn00002F24:
00002F24  4E56 FFEC                link       A6, -0x0014
00002F28  48E7 0300                movem.l    -[A7], D6,D7
00002F2C  4A2D FD96                tst.b      [A5 - 0x26A]
00002F30  6700 007E                beq        +0x80 /* 00002FB0 */
00002F34  554F                     subq.w     A7, 2
00002F36  4EBA F922                jsr        [PC - 0x6DE /* 0000285A */]
00002F3A  3E1F                     move.w     D7, [A7]+
00002F3C  0C47 0001                cmpi.w     D7, 0x1
00002F40  664A                     bne        +0x4C /* 00002F8C */
00002F42  4A2D FD8B                tst.b      [A5 - 0x275]
00002F46  6726                     beq        +0x28 /* 00002F6E */
00002F48  554F                     subq.w     A7, 2
00002F4A  4EBA FF64                jsr        [PC - 0x9C /* 00002EB0 */]
00002F4E  4A1F                     tst.b      [A7]+
00002F50  6700 0072                beq        +0x74 /* 00002FC4 */
00002F54  1B7C 0001 FD92           move.b     [A5 - 0x26E], 0x1
00002F5A  554F                     subq.w     A7, 2
00002F5C  4EBA F6C6                jsr        [PC - 0x93A /* 00002624 */]
00002F60  1C1F                     move.b     D6, [A7]+
00002F62  6000 0060                bra        +0x62 /* 00002FC4 */
00002F66  6000 005C                bra        +0x5E /* 00002FC4 */
00002F6A  6000 0058                bra        +0x5A /* 00002FC4 */
label00002F6E:
00002F6E  554F                     subq.w     A7, 2
00002F70  4EBA FF78                jsr        [PC - 0x88 /* 00002EEA */]
00002F74  4A1F                     tst.b      [A7]+
00002F76  674C                     beq        +0x4E /* 00002FC4 */
00002F78  1B7C 0001 FD92           move.b     [A5 - 0x26E], 0x1
00002F7E  554F                     subq.w     A7, 2
00002F80  4EBA F6A2                jsr        [PC - 0x95E /* 00002624 */]
00002F84  1C1F                     move.b     D6, [A7]+
00002F86  603C                     bra        +0x3E /* 00002FC4 */
00002F88  603A                     bra        +0x3C /* 00002FC4 */
00002F8A  6038                     bra        +0x3A /* 00002FC4 */
label00002F8C:
00002F8C  0C47 0002                cmpi.w     D7, 0x2
00002F90  6616                     bne        +0x18 /* 00002FA8 */
00002F92  4A2D FD8B                tst.b      [A5 - 0x275]
00002F96  6708                     beq        +0xA /* 00002FA0 */
00002F98  554F                     subq.w     A7, 2
00002F9A  4EBA F688                jsr        [PC - 0x978 /* 00002624 */]
00002F9E  1C1F                     move.b     D6, [A7]+
label00002FA0:
00002FA0  1B7C 0001 FD92           move.b     [A5 - 0x26E], 0x1
00002FA6  601C                     bra        +0x1E /* 00002FC4 */
label00002FA8:
00002FA8  0C47 0006                cmpi.w     D7, 0x6
00002FAC  6716                     beq        +0x18 /* 00002FC4 */
00002FAE  6014                     bra        +0x16 /* 00002FC4 */
label00002FB0:
00002FB0  4A2D FD8B                tst.b      [A5 - 0x275]
00002FB4  6708                     beq        +0xA /* 00002FBE */
00002FB6  554F                     subq.w     A7, 2
00002FB8  4EBA F66A                jsr        [PC - 0x996 /* 00002624 */]
00002FBC  1C1F                     move.b     D6, [A7]+
label00002FBE:
00002FBE  1B7C 0001 FD92           move.b     [A5 - 0x26E], 0x1
label00002FC4:
00002FC4  4CDF 00C0                movem.l    D6,D7, [A7]+
00002FC8  4E5E                     unlink     A6
00002FCA  4E75                     rts
fn00002FCC:
00002FCC  4E56 FECA                link       A6, -0x0136
00002FD0  486E FECA                pea.l      [A6 - 0x136]
00002FD4  A874                     syscall    GetPort
00002FD6  2F2D B8B2                move.l     -[A7], [A5 - 0x474E]
00002FDA  A873                     syscall    SetPort
00002FDC  426E FED6                clr.w      [A6 - 0x12A]
00002FE0  426E FED8                clr.w      [A6 - 0x128]
00002FE4  422E FEDA                clr.b      [A6 - 0x126]
00002FE8  3D7C 00CD FEDC           move.w     [A6 - 0x124], 0xCD
00002FEE  3D7C 0001 FEDE           move.w     [A6 - 0x122], 0x1
00002FF4  3D7C 0009 FEE0           move.w     [A6 - 0x120], 0x9 /* '\t' */
00002FFA  422E FEE2                clr.b      [A6 - 0x11E]
00002FFE  3D7C 0199 FEE4           move.w     [A6 - 0x11C], 0x199
00003004  1D7C 0001 FEE6           move.b     [A6 - 0x11A], 0x1
0000300A  1D7C 0001 FEE7           move.b     [A6 - 0x119], 0x1
00003010  422E FEE8                clr.b      [A6 - 0x118]
00003014  1D7C 0001 FEE9           move.b     [A6 - 0x117], 0x1
0000301A  3D7C 0001 FEEA           move.w     [A6 - 0x116], 0x1
00003020  3D7C 0080 FEEC           move.w     [A6 - 0x114], 0x80
00003026  3D7C 0081 FEEE           move.w     [A6 - 0x112], 0x81
0000302C  41FA 0084                lea.l      A0, [PC + 0x84 /* 000030B2, value 0x2D627920 '-by ' */]
00003030  43EE FEF0                lea.l      A1, [A6 - 0x110]
00003034  700B                     moveq.l    D0, 0x0B
label00003036:
00003036  22D8                     move.l     [A1]+, [A0]+
00003038  51C8 FFFC                dbf        D0, -0x6 /* 00003036 */
0000303C  486E FECE                pea.l      [A6 - 0x132]
00003040  3F3C 000C                move.w     -[A7], 0xC
00003044  3F3C 001E                move.w     -[A7], 0x1E
00003048  3F3C 01F4                move.w     -[A7], 0x1F4
0000304C  3F3C 014C                move.w     -[A7], 0x14C
00003050  A8A7                     syscall    SetRect
00003052  486E FECE                pea.l      [A6 - 0x132]
00003056  3F2D BB40                move.w     -[A7], [A5 - 0x44C0]
0000305A  3F2D BB42                move.w     -[A7], [A5 - 0x44BE]
0000305E  A8A8                     syscall    OffsetRect
00003060  486E FECE                pea.l      [A6 - 0x132]
00003064  3F3C 0001                move.w     -[A7], 0x1
00003068  3F3C 0080                move.w     -[A7], 0x80
0000306C  487A 0038                pea.l      [PC + 0x38 /* 000030A6, value 0xB456469, pstring "Editor Help" */]
00003070  487A 0014                pea.l      [PC + 0x14 /* 00003086, value 0x1E526F6F, pstring "Room Editor 1.0 - General Help" */]
00003074  486E FED6                pea.l      [A6 - 0x12A]
00003078  4EAD 016A                jsr        [A5 + 0x16A /* export_41, CODE:1 @ 0000217C */]
0000307C  2F2E FECA                move.l     -[A7], [A6 - 0x136]
00003080  A873                     syscall    SetPort
00003082  4E5E                     unlink     A6
00003084  4E75                     rts
00003086  1E52                     movea.b    A7, [A2]
00003088  6F6F                     ble        +0x71 /* 000030F9 */
0000308A  6D20                     blt        +0x22 /* 000030AC */
0000308C  4564                     chk.w      D2, -[A4]
0000308E  6974                     bvs        +0x76 /* 00003104 */
00003090  6F72                     ble        +0x74 /* 00003104 */
00003092  2031 2E30                move.l     D0, [A1 + D2 * 8 + 0x30]
00003096  202D 2047                move.l     D0, [A5 + 0x2047]
0000309A  656E                     bcs        +0x70 /* 0000310A */
0000309C  6572                     bcs        +0x74 /* 00003110 */
0000309E  616C                     bsr        +0x6E /* 0000310C */
000030A0  2048                     movea.l    A0, A0
000030A2  656C                     bcs        +0x6E /* 00003110 */
000030A4  7012                     moveq.l    D0, 0x12
000030A6  0B45                     bchg       D5, D5
000030A8  6469                     bcc        +0x6B /* 00003113 */
000030AA  746F                     moveq.l    D2, 0x6F
label000030AC:
000030AC  7220                     moveq.l    D1, 0x20
000030AE  4865                     pea.l      -[A5]
000030B0  6C70                     bge        +0x72 /* 00003122 */
000030B2  2D62 7920                move.l     [A6 + 0x7920], -[A2]
000030B6  6A6F                     bpl        +0x71 /* 00003127 */
000030B8  686E                     bvc        +0x70 /* 00003128 */
000030BA  2063                     movea.l    A0, -[A3]
000030BC  616C                     bsr        +0x6E /* 0000312A */
000030BE  686F                     bvc        +0x71 /* 0000312F */
000030C0  756E                     moveq.l    D2, 0x6E
000030C2  2020                     move.l     D0, -[A0]
000030C4  A920                     syscall    BringToFront
000030C6  3139 3931 2043           move.w     -[A0], [0x39312043]
000030CC  6173                     bsr        +0x75 /* 00003141 */
000030CE  6164                     bsr        +0x66 /* 00003134 */
000030D0  7920                     moveq.l    D4, 0x20
000030D2  2620                     move.l     D3, -[A0]
000030D4  4772 6565                chk.w      D3, <<invalid full ext with IS == 1 and I/IS == 5>>
000030D8  6E65                     bgt        +0x67 /* 0000313F */
000030DA  2C20                     move.l     D6, -[A0]
000030DC  496E 632E                chk.w      D4, [A6 + 0x632E]
fn000030E0:
000030E0  4E56 FFEE                link       A6, -0x0012
000030E4  4A2D FD88                tst.b      [A5 - 0x278]
000030E8  6700 00B8                beq        +0xBA /* 000031A2 */
000030EC  554F                     subq.w     A7, 2
000030EE  4EAD 018A                jsr        [A5 + 0x18A /* export_45, CODE:2 @ 00002024 */]
000030F2  101F                     move.b     D0, [A7]+
000030F4  5300                     subq.b     D0, 1
000030F6  6728                     beq        +0x2A /* 00003120 */
000030F8  41ED F1F2                lea.l      A0, [A5 - 0xE0E]
000030FC  43ED F32C                lea.l      A1, [A5 - 0xCD4]
00003100  704D                     moveq.l    D0, 0x4D
label00003102:
00003102  22D8                     move.l     [A1]+, [A0]+
label00003104:
00003104  51C8 FFFC                dbf        D0, -0x6 /* 00003102 */
00003108  32D8                     move.w     [A1]+, [A0]+
label0000310A:
0000310A  486D F1F2                pea.l      [A5 - 0xE0E]
// begin alternate branch 0000310C-0000310E
fn0000310C:
0000310C  F1F2                     .invalid   <<F/7/0>>
// end alternate branch 0000310C-0000310E
fn0000310C: // (misaligned)
0000310E  4EAD 01BA                jsr        [A5 + 0x1BA /* export_51, CODE:2 @ 00002B0C */]
// begin alternate branch 00003110-00003116
label00003110:
00003110  01BA 422E                bclr       [PC + 0x422E /* 00007340 */], D0
00003114  FFEF                     .invalid   <<F/7/7>>
// end alternate branch 00003110-00003116
label00003110: // (misaligned)
00003112  422E FFEF                clr.b      [A6 - 0x11]
00003116  486E FFEF                pea.l      [A6 - 0x11]
0000311A  4EAD 01D2                jsr        [A5 + 0x1D2 /* export_54, CODE:2 @ 0000338C */]
0000311E  605A                     bra        +0x5C /* 0000317A */
label00003120:
00003120  1B7C 0001 FD94           move.b     [A5 - 0x26C], 0x1
// begin alternate branch 00003122-00003126
label00003122:
00003122  0001 FD94                ori.b      D1, 0x94
// end alternate branch 00003122-00003126
label00003122: // (misaligned)
00003126  422D FD95                clr.b      [A5 - 0x26B]
// begin alternate branch 00003128-0000312A
label00003128:
00003128  FD95                     .invalid   <<F/6/6>>
// end alternate branch 00003128-0000312A
label00003128: // (misaligned)
fn0000312A:
0000312A  594F                     subq.w     A7, 4
0000312C  3F3C 0082                move.w     -[A7], 0x82
00003130  A9BF                     syscall    GetRMenu
00003132  3F3C 0003                move.w     -[A7], 0x3
// begin alternate branch 00003134-0000313A
fn00003134:
00003134  0003 487A                ori.b      D3, 0x7A /* 'z' */
00003138  00E0                     .incomplete
// end alternate branch 00003134-0000313A
fn00003134: // (misaligned)
00003136  487A 00E0                pea.l      [PC + 0xE0 /* 00003218, value 0xA506173 '\nPas', pstring "Paste Room" */]
0000313A  A947                     syscall    SetMenuItemText/SetItem
0000313C  594F                     subq.w     A7, 4
0000313E  3F3C 0082                move.w     -[A7], 0x82
00003142  A9BF                     syscall    GetRMenu
00003144  3F3C 0003                move.w     -[A7], 0x3
00003148  A939                     syscall    EnableItem
0000314A  41ED F1F2                lea.l      A0, [A5 - 0xE0E]
0000314E  43ED F32C                lea.l      A1, [A5 - 0xCD4]
00003152  704D                     moveq.l    D0, 0x4D
label00003154:
00003154  22D8                     move.l     [A1]+, [A0]+
00003156  51C8 FFFC                dbf        D0, -0x6 /* 00003154 */
0000315A  32D8                     move.w     [A1]+, [A0]+
0000315C  302D BB3A                move.w     D0, [A5 - 0x44C6]
00003160  C1FC 013A                muls.w     D0, 0x13A
00003164  0640 BFA8                addi.w     D0, 0xBFA8
00003168  41F5 0000                lea.l      A0, [A5 + D0.w]
0000316C  43ED F1F2                lea.l      A1, [A5 - 0xE0E]
00003170  704D                     moveq.l    D0, 0x4D
label00003172:
00003172  22D8                     move.l     [A1]+, [A0]+
00003174  51C8 FFFC                dbf        D0, -0x6 /* 00003172 */
00003178  32D8                     move.w     [A1]+, [A0]+
label0000317A:
0000317A  3F2D F20E                move.w     -[A7], [A5 - 0xDF2]
0000317E  4EAD 017A                jsr        [A5 + 0x17A /* export_43, CODE:2 @ 00000150 */]
00003182  426D BB3E                clr.w      [A5 - 0x44C2]
00003186  41ED B8D6                lea.l      A0, [A5 - 0x472A]
0000318A  43ED BBE4                lea.l      A1, [A5 - 0x441C]
0000318E  22D8                     move.l     [A1]+, [A0]+
00003190  22D8                     move.l     [A1]+, [A0]+
00003192  4EAD 0182                jsr        [A5 + 0x182 /* export_44, CODE:2 @ 00001814 */]
00003196  4EAD 0172                jsr        [A5 + 0x172 /* export_42, CODE:2 @ 00000000 */]
0000319A  1B7C 0001 FD96           move.b     [A5 - 0x26A], 0x1
000031A0  6064                     bra        +0x66 /* 00003206 */
label000031A2:
000031A2  1B7C 0001 FD95           move.b     [A5 - 0x26B], 0x1
000031A8  422D FD94                clr.b      [A5 - 0x26C]
000031AC  594F                     subq.w     A7, 4
000031AE  3F3C 0082                move.w     -[A7], 0x82
000031B2  A9BF                     syscall    GetRMenu
000031B4  3F3C 0003                move.w     -[A7], 0x3
000031B8  487A 0050                pea.l      [PC + 0x50 /* 0000320A, value 0xC506173, pstring "Paste Object" */]
000031BC  A947                     syscall    SetMenuItemText/SetItem
000031BE  594F                     subq.w     A7, 4
000031C0  3F3C 0082                move.w     -[A7], 0x82
000031C4  A9BF                     syscall    GetRMenu
000031C6  3F3C 0003                move.w     -[A7], 0x3
000031CA  A939                     syscall    EnableItem
000031CC  302D BB3E                move.w     D0, [A5 - 0x44C2]
000031D0  E940                     asl        D0.w, 4
000031D2  0640 F21C                addi.w     D0, 0xF21C
000031D6  41F5 0000                lea.l      A0, [A5 + D0.w]
000031DA  43ED F466                lea.l      A1, [A5 - 0xB9A]
000031DE  22D8                     move.l     [A1]+, [A0]+
000031E0  22D8                     move.l     [A1]+, [A0]+
000031E2  22D8                     move.l     [A1]+, [A0]+
000031E4  22D8                     move.l     [A1]+, [A0]+
000031E6  302D BB3E                move.w     D0, [A5 - 0x44C2]
000031EA  E940                     asl        D0.w, 4
000031EC  0640 F21C                addi.w     D0, 0xF21C
000031F0  4275 0000                clr.w      [A5 + D0.w]
000031F4  4EBA D758                jsr        [PC - 0x28A8 /* 0000094E */]
000031F8  4EAD 01AA                jsr        [A5 + 0x1AA /* export_49, CODE:2 @ 000028B4 */]
000031FC  4EAD 0182                jsr        [A5 + 0x182 /* export_44, CODE:2 @ 00001814 */]
00003200  1B7C 0001 FD96           move.b     [A5 - 0x26A], 0x1
label00003206:
00003206  4E5E                     unlink     A6
00003208  4E75                     rts
0000320A  0C50 6173                cmpi.w     [A0], 0x6173 /* 'as' */
0000320E  7465                     moveq.l    D2, 0x65
00003210  204F                     movea.l    A0, A7
00003212  626A                     bhi        +0x6C /* 0000327E */
00003214  6563                     bcs        +0x65 /* 00003279 */
00003216  7416                     moveq.l    D2, 0x16
00003218  0A50 6173                xori.w     [A0], 0x6173 /* 'as' */
0000321C  7465                     moveq.l    D2, 0x65
0000321E  2052                     movea.l    A0, [A2]
00003220  6F6F                     ble        +0x71 /* 00003291 */
00003222  6D16                     blt        +0x18 /* 0000323A */
fn00003224:
00003224  4A2D FD88                tst.b      [A5 - 0x278]
00003228  673E                     beq        +0x40 /* 00003268 */
0000322A  41ED F1F2                lea.l      A0, [A5 - 0xE0E]
0000322E  43ED F32C                lea.l      A1, [A5 - 0xCD4]
00003232  704D                     moveq.l    D0, 0x4D
label00003234:
00003234  22D8                     move.l     [A1]+, [A0]+
00003236  51C8 FFFC                dbf        D0, -0x6 /* 00003234 */
label0000323A:
0000323A  32D8                     move.w     [A1]+, [A0]+
0000323C  1B7C 0001 FD94           move.b     [A5 - 0x26C], 0x1
00003242  422D FD95                clr.b      [A5 - 0x26B]
00003246  594F                     subq.w     A7, 4
00003248  3F3C 0082                move.w     -[A7], 0x82
0000324C  A9BF                     syscall    GetRMenu
0000324E  3F3C 0003                move.w     -[A7], 0x3
00003252  487A 0068                pea.l      [PC + 0x68 /* 000032BC, value 0xA506173 '\nPas', pstring "Paste Room" */]
00003256  A947                     syscall    SetMenuItemText/SetItem
00003258  594F                     subq.w     A7, 4
0000325A  3F3C 0082                move.w     -[A7], 0x82
0000325E  A9BF                     syscall    GetRMenu
00003260  3F3C 0003                move.w     -[A7], 0x3
00003264  A939                     syscall    EnableItem
00003266  6044                     bra        +0x46 /* 000032AC */
label00003268:
00003268  302D BB3E                move.w     D0, [A5 - 0x44C2]
0000326C  E940                     asl        D0.w, 4
0000326E  0640 F21C                addi.w     D0, 0xF21C
00003272  41F5 0000                lea.l      A0, [A5 + D0.w]
00003276  43ED F466                lea.l      A1, [A5 - 0xB9A]
0000327A  22D8                     move.l     [A1]+, [A0]+
0000327C  22D8                     move.l     [A1]+, [A0]+
label0000327E:
0000327E  22D8                     move.l     [A1]+, [A0]+
00003280  22D8                     move.l     [A1]+, [A0]+
00003282  1B7C 0001 FD95           move.b     [A5 - 0x26B], 0x1
00003288  422D FD94                clr.b      [A5 - 0x26C]
0000328C  594F                     subq.w     A7, 4
0000328E  3F3C 0082                move.w     -[A7], 0x82
00003292  A9BF                     syscall    GetRMenu
00003294  3F3C 0003                move.w     -[A7], 0x3
00003298  487A 0014                pea.l      [PC + 0x14 /* 000032AE, value 0xC506173, pstring "Paste Object" */]
0000329C  A947                     syscall    SetMenuItemText/SetItem
0000329E  594F                     subq.w     A7, 4
000032A0  3F3C 0082                move.w     -[A7], 0x82
000032A4  A9BF                     syscall    GetRMenu
000032A6  3F3C 0003                move.w     -[A7], 0x3
000032AA  A939                     syscall    EnableItem
label000032AC:
000032AC  4E75                     rts
000032AE  0C50 6173                cmpi.w     [A0], 0x6173 /* 'as' */
000032B2  7465                     moveq.l    D2, 0x65
000032B4  204F                     movea.l    A0, A7
000032B6  626A                     bhi        +0x6C /* 00003322 */
000032B8  6563                     bcs        +0x65 /* 0000331D */
000032BA  7416                     moveq.l    D2, 0x16
000032BC  0A50 6173                xori.w     [A0], 0x6173 /* 'as' */
000032C0  7465                     moveq.l    D2, 0x65
000032C2  2052                     movea.l    A0, [A2]
000032C4  6F6F                     ble        +0x71 /* 00003335 */
000032C6  6D16                     blt        +0x18 /* 000032DE */
fn000032C8:
000032C8  4A2D FD94                tst.b      [A5 - 0x26C]
000032CC  6734                     beq        +0x36 /* 00003302 */
000032CE  554F                     subq.w     A7, 2
000032D0  4EAD 0192                jsr        [A5 + 0x192 /* export_46, CODE:2 @ 000020B6 */]
000032D4  101F                     move.b     D0, [A7]+
000032D6  5300                     subq.b     D0, 1
000032D8  6642                     bne        +0x44 /* 0000331C */
000032DA  3F2D F20E                move.w     -[A7], [A5 - 0xDF2]
label000032DE:
000032DE  4EAD 017A                jsr        [A5 + 0x17A /* export_43, CODE:2 @ 00000150 */]
000032E2  426D BB3E                clr.w      [A5 - 0x44C2]
000032E6  41ED B8D6                lea.l      A0, [A5 - 0x472A]
000032EA  43ED BBE4                lea.l      A1, [A5 - 0x441C]
000032EE  22D8                     move.l     [A1]+, [A0]+
000032F0  22D8                     move.l     [A1]+, [A0]+
000032F2  4EAD 0182                jsr        [A5 + 0x182 /* export_44, CODE:2 @ 00001814 */]
000032F6  4EAD 0172                jsr        [A5 + 0x172 /* export_42, CODE:2 @ 00000000 */]
000032FA  1B7C 0001 FD96           move.b     [A5 - 0x26A], 0x1
00003300  601A                     bra        +0x1C /* 0000331C */
label00003302:
00003302  554F                     subq.w     A7, 2
00003304  4EAD 0222                jsr        [A5 + 0x222 /* export_64, CODE:2 @ 00005B64 */]
00003308  4A1F                     tst.b      [A7]+
0000330A  6710                     beq        +0x12 /* 0000331C */
0000330C  4EAD 01AA                jsr        [A5 + 0x1AA /* export_49, CODE:2 @ 000028B4 */]
00003310  4EAD 0182                jsr        [A5 + 0x182 /* export_44, CODE:2 @ 00001814 */]
00003314  1B7C 0001 FD96           move.b     [A5 - 0x26A], 0x1
0000331A  4E71                     nop
label0000331C:
0000331C  4E75                     rts
export_84:
fn0000331E:
0000331E  4E56 FFEE                link       A6, -0x0012
label00003322:
00003322  4A2D FD88                tst.b      [A5 - 0x278]
00003326  6768                     beq        +0x6A /* 00003390 */
00003328  554F                     subq.w     A7, 2
0000332A  4EAD 018A                jsr        [A5 + 0x18A /* export_45, CODE:2 @ 00002024 */]
0000332E  101F                     move.b     D0, [A7]+
00003330  5300                     subq.b     D0, 1
00003332  6716                     beq        +0x18 /* 0000334A */
00003334  486D F1F2                pea.l      [A5 - 0xE0E]
00003338  4EAD 01BA                jsr        [A5 + 0x1BA /* export_51, CODE:2 @ 00002B0C */]
0000333C  422E FFEF                clr.b      [A6 - 0x11]
00003340  486E FFEF                pea.l      [A6 - 0x11]
00003344  4EAD 01D2                jsr        [A5 + 0x1D2 /* export_54, CODE:2 @ 0000338C */]
00003348  601E                     bra        +0x20 /* 00003368 */
label0000334A:
0000334A  302D BB3A                move.w     D0, [A5 - 0x44C6]
0000334E  C1FC 013A                muls.w     D0, 0x13A
00003352  0640 BFA8                addi.w     D0, 0xBFA8
00003356  41F5 0000                lea.l      A0, [A5 + D0.w]
0000335A  43ED F1F2                lea.l      A1, [A5 - 0xE0E]
0000335E  704D                     moveq.l    D0, 0x4D
label00003360:
00003360  22D8                     move.l     [A1]+, [A0]+
00003362  51C8 FFFC                dbf        D0, -0x6 /* 00003360 */
00003366  32D8                     move.w     [A1]+, [A0]+
label00003368:
00003368  3F2D F20E                move.w     -[A7], [A5 - 0xDF2]
0000336C  4EAD 017A                jsr        [A5 + 0x17A /* export_43, CODE:2 @ 00000150 */]
00003370  426D BB3E                clr.w      [A5 - 0x44C2]
00003374  41ED B8D6                lea.l      A0, [A5 - 0x472A]
00003378  43ED BBE4                lea.l      A1, [A5 - 0x441C]
0000337C  22D8                     move.l     [A1]+, [A0]+
0000337E  22D8                     move.l     [A1]+, [A0]+
00003380  4EAD 0182                jsr        [A5 + 0x182 /* export_44, CODE:2 @ 00001814 */]
00003384  4EAD 0172                jsr        [A5 + 0x172 /* export_42, CODE:2 @ 00000000 */]
00003388  1B7C 0001 FD96           move.b     [A5 - 0x26A], 0x1
0000338E  6020                     bra        +0x22 /* 000033B0 */
label00003390:
00003390  302D BB3E                move.w     D0, [A5 - 0x44C2]
00003394  E940                     asl        D0.w, 4
00003396  0640 F21C                addi.w     D0, 0xF21C
0000339A  4275 0000                clr.w      [A5 + D0.w]
0000339E  4EBA D5AE                jsr        [PC - 0x2A52 /* 0000094E */]
000033A2  4EAD 01AA                jsr        [A5 + 0x1AA /* export_49, CODE:2 @ 000028B4 */]
000033A6  4EAD 0182                jsr        [A5 + 0x182 /* export_44, CODE:2 @ 00001814 */]
000033AA  1B7C 0001 FD96           move.b     [A5 - 0x26A], 0x1
label000033B0:
000033B0  4E5E                     unlink     A6
000033B2  4E75                     rts
export_85:
000033B4  4E56 FEE4                link       A6, -0x011C
000033B8  48E7 0700                movem.l    -[A7], D5,D6,D7
000033BC  3E2E 0008                move.w     D7, [A6 + 0x8]
000033C0  302E 000A                move.w     D0, [A6 + 0xA]
000033C4  6000 0280                bra        +0x282 /* 00003646 */
label000033C8:
000033C8  3007                     move.w     D0, D7
000033CA  600C                     bra        +0xE /* 000033D8 */
000033CC  6000 02A2                bra        +0x2A4 /* 00003670 */
label000033D0:
000033D0  4EBA EB4E                jsr        [PC - 0x14B2 /* 00001F20 */]
000033D4  6000 029A                bra        +0x29C /* 00003670 */
label000033D8:
000033D8  6700 0296                beq        +0x298 /* 00003670 */
000033DC  5340                     subq.w     D0, 1
000033DE  67F0                     beq        -0xE /* 000033D0 */
000033E0  486E FEE6                pea.l      [A6 - 0x11A]
000033E4  A874                     syscall    GetPort
000033E6  594F                     subq.w     A7, 4
000033E8  3F3C 0080                move.w     -[A7], 0x80
000033EC  A9BF                     syscall    GetRMenu
000033EE  3F07                     move.w     -[A7], D7
000033F0  486E FEEA                pea.l      [A6 - 0x116]
000033F4  A946                     syscall    GetMenuItemText/GetItem
000033F6  554F                     subq.w     A7, 2
000033F8  486E FEEA                pea.l      [A6 - 0x116]
000033FC  A9B6                     syscall    OpenDeskAcc
000033FE  3A1F                     move.w     D5, [A7]+
00003400  2F2E FEE6                move.l     -[A7], [A6 - 0x11A]
00003404  A873                     syscall    SetPort
00003406  6000 0268                bra        +0x26A /* 00003670 */
label0000340A:
0000340A  3007                     move.w     D0, D7
0000340C  603C                     bra        +0x3E /* 0000344A */
label0000340E:
0000340E  4EBA F6EC                jsr        [PC - 0x914 /* 00002AFC */]
00003412  6000 025C                bra        +0x25E /* 00003670 */
label00003416:
00003416  4EBA F64E                jsr        [PC - 0x9B2 /* 00002A66 */]
0000341A  6000 0254                bra        +0x256 /* 00003670 */
label0000341E:
0000341E  4EBA F7E0                jsr        [PC - 0x820 /* 00002C00 */]
00003422  6000 024C                bra        +0x24E /* 00003670 */
label00003426:
00003426  554F                     subq.w     A7, 2
00003428  4EBA FA86                jsr        [PC - 0x57A /* 00002EB0 */]
0000342C  1D5F FEE4                move.b     [A6 - 0x11C], [A7]+
00003430  6000 023E                bra        +0x240 /* 00003670 */
label00003434:
00003434  554F                     subq.w     A7, 2
00003436  4EBA FAB2                jsr        [PC - 0x54E /* 00002EEA */]
0000343A  1D5F FEE4                move.b     [A6 - 0x11C], [A7]+
0000343E  6000 0230                bra        +0x232 /* 00003670 */
label00003442:
00003442  4EBA FAE0                jsr        [PC - 0x520 /* 00002F24 */]
00003446  6000 0228                bra        +0x22A /* 00003670 */
label0000344A:
0000344A  5340                     subq.w     D0, 1
0000344C  67C0                     beq        -0x3E /* 0000340E */
0000344E  5340                     subq.w     D0, 1
00003450  67C4                     beq        -0x3A /* 00003416 */
00003452  5540                     subq.w     D0, 2
00003454  67C8                     beq        -0x36 /* 0000341E */
00003456  5340                     subq.w     D0, 1
00003458  67CC                     beq        -0x32 /* 00003426 */
0000345A  5340                     subq.w     D0, 1
0000345C  67D6                     beq        -0x28 /* 00003434 */
0000345E  5540                     subq.w     D0, 2
00003460  67E0                     beq        -0x1E /* 00003442 */
00003462  6000 020C                bra        +0x20E /* 00003670 */
label00003466:
00003466  3007                     move.w     D0, D7
00003468  6020                     bra        +0x22 /* 0000348A */
label0000346A:
0000346A  4EBA FC74                jsr        [PC - 0x38C /* 000030E0 */]
0000346E  6000 0200                bra        +0x202 /* 00003670 */
label00003472:
00003472  4EBA FDB0                jsr        [PC - 0x250 /* 00003224 */]
00003476  6000 01F8                bra        +0x1FA /* 00003670 */
label0000347A:
0000347A  4EBA FE4C                jsr        [PC - 0x1B4 /* 000032C8 */]
0000347E  6000 01F0                bra        +0x1F2 /* 00003670 */
label00003482:
00003482  4EBA FE9A                jsr        [PC - 0x166 /* 0000331E */]
00003486  6000 01E8                bra        +0x1EA /* 00003670 */
label0000348A:
0000348A  5340                     subq.w     D0, 1
0000348C  67DC                     beq        -0x22 /* 0000346A */
0000348E  5340                     subq.w     D0, 1
00003490  67E0                     beq        -0x1E /* 00003472 */
00003492  5340                     subq.w     D0, 1
00003494  67E4                     beq        -0x1A /* 0000347A */
00003496  5340                     subq.w     D0, 1
00003498  67E8                     beq        -0x16 /* 00003482 */
0000349A  6000 01D4                bra        +0x1D6 /* 00003670 */
label0000349E:
0000349E  3007                     move.w     D0, D7
000034A0  606A                     bra        +0x6C /* 0000350C */
000034A2  4EAD 022A                jsr        [A5 + 0x22A /* export_65, CODE:3 @ 0000358E */]
000034A6  6000 01C8                bra        +0x1CA /* 00003670 */
000034AA  6000 01C4                bra        +0x1C6 /* 00003670 */
000034AE  102D FD93                move.b     D0, [A5 - 0x26D]
000034B2  5300                     subq.b     D0, 1
000034B4  4400                     neg.b      D0
000034B6  1B40 FD93                move.b     [A5 - 0x26D], D0
000034BA  4A2D FD93                tst.b      [A5 - 0x26D]
000034BE  6716                     beq        +0x18 /* 000034D6 */
000034C0  594F                     subq.w     A7, 4
000034C2  3F3C 0083                move.w     -[A7], 0x83
000034C6  A9BF                     syscall    GetRMenu
000034C8  3F3C 0003                move.w     -[A7], 0x3
000034CC  487A 01F4                pea.l      [PC + 0x1F4 /* 000036C2, value 0x13446570, pstring "Depth Restore is On" */]
000034D0  A947                     syscall    SetMenuItemText/SetItem
000034D2  6000 019C                bra        +0x19E /* 00003670 */
label000034D6:
000034D6  594F                     subq.w     A7, 4
000034D8  3F3C 0083                move.w     -[A7], 0x83
000034DC  A9BF                     syscall    GetRMenu
000034DE  3F3C 0003                move.w     -[A7], 0x3
000034E2  487A 01C8                pea.l      [PC + 0x1C8 /* 000036AC, value 0x14446570, pstring "Depth Restore is Off" */]
000034E6  A947                     syscall    SetMenuItemText/SetItem
000034E8  6000 0186                bra        +0x188 /* 00003670 */
000034EC  4EBA F80C                jsr        [PC - 0x7F4 /* 00002CFA */]
000034F0  6000 017E                bra        +0x180 /* 00003670 */
000034F4  4EBA F8E8                jsr        [PC - 0x718 /* 00002DDE */]
000034F8  6000 0176                bra        +0x178 /* 00003670 */
000034FC  4EBA F86E                jsr        [PC - 0x792 /* 00002D6C */]
00003500  6000 016E                bra        +0x170 /* 00003670 */
00003504  4EBA F94C                jsr        [PC - 0x6B4 /* 00002E52 */]
00003508  6000 0166                bra        +0x168 /* 00003670 */
label0000350C:
0000350C  5340                     subq.w     D0, 1
0000350E  0C40 0009                cmpi.w     D0, 0x9 /* '\t' */
00003512  641C                     bcc        +0x1E /* 00003530 */
00003514  D040                     add.w      D0, D0
00003516  303B 0006                move.w     D0, [PC + D0.w + 0x6]
0000351A  4EFB 0002                jmp        [PC + D0.w + 0x2]
0000351E  FF84                     .invalid   <<F/6/7>>
00003520  FF8C                     .invalid   <<F/6/7>>
00003522  FF90                     .invalid   <<F/6/7>>
00003524  0012 FFCE                ori.b      [A2], 0xCE
00003528  FFDE                     .invalid   <<F/7/7>>
0000352A  FFD6                     .invalid   <<F/7/7>>
0000352C  0012 FFE6                ori.b      [A2], 0xE6
label00003530:
00003530  6000 013E                bra        +0x140 /* 00003670 */
label00003534:
00003534  3007                     move.w     D0, D7
00003536  6000 0094                bra        +0x96 /* 000035CC */
0000353A  4EAD 020A                jsr        [A5 + 0x20A /* export_61, CODE:2 @ 00004AA6 */]
0000353E  6000 0130                bra        +0x132 /* 00003670 */
00003542  102D FD99                move.b     D0, [A5 - 0x267]
00003546  5300                     subq.b     D0, 1
00003548  4400                     neg.b      D0
0000354A  1B40 FD99                move.b     [A5 - 0x267], D0
0000354E  4A2D FD99                tst.b      [A5 - 0x267]
00003552  6716                     beq        +0x18 /* 0000356A */
00003554  594F                     subq.w     A7, 4
00003556  3F3C 0084                move.w     -[A7], 0x84
0000355A  A9BF                     syscall    GetRMenu
0000355C  3F3C 0002                move.w     -[A7], 0x2
00003560  487A 0134                pea.l      [PC + 0x134 /* 00003696, value 0x15417574, pstring "Auto-Hide Tools is On" */]
00003564  A947                     syscall    SetMenuItemText/SetItem
00003566  6000 0108                bra        +0x10A /* 00003670 */
label0000356A:
0000356A  594F                     subq.w     A7, 4
0000356C  3F3C 0084                move.w     -[A7], 0x84
00003570  A9BF                     syscall    GetRMenu
00003572  3F3C 0002                move.w     -[A7], 0x2
00003576  487A 0106                pea.l      [PC + 0x106 /* 0000367E, value 0x16417574, pstring "Auto-Hide Tools is Off" */]
0000357A  A947                     syscall    SetMenuItemText/SetItem
0000357C  6000 00F2                bra        +0xF4 /* 00003670 */
00003580  4EAD 019A                jsr        [A5 + 0x19A /* export_47, CODE:2 @ 000022D2 */]
00003584  6000 00EA                bra        +0xEC /* 00003670 */
00003588  1D7C 0001 FEE4           move.b     [A6 - 0x11C], 0x1
0000358E  486E FEE4                pea.l      [A6 - 0x11C]
00003592  4EAD 01D2                jsr        [A5 + 0x1D2 /* export_54, CODE:2 @ 0000338C */]
00003596  3F2D F20E                move.w     -[A7], [A5 - 0xDF2]
0000359A  4EAD 017A                jsr        [A5 + 0x17A /* export_43, CODE:2 @ 00000150 */]
0000359E  4EAD 0182                jsr        [A5 + 0x182 /* export_44, CODE:2 @ 00001814 */]
000035A2  6000 00CC                bra        +0xCE /* 00003670 */
000035A6  1D7C 0001 FEE4           move.b     [A6 - 0x11C], 0x1
000035AC  486E FEE4                pea.l      [A6 - 0x11C]
000035B0  4EAD 01DA                jsr        [A5 + 0x1DA /* export_55, CODE:2 @ 0000386C */]
000035B4  4EAD 0182                jsr        [A5 + 0x182 /* export_44, CODE:2 @ 00001814 */]
000035B8  6000 00B6                bra        +0xB8 /* 00003670 */
000035BC  4EAD 021A                jsr        [A5 + 0x21A /* export_63, CODE:2 @ 00004D68 */]
000035C0  6000 00AE                bra        +0xB0 /* 00003670 */
000035C4  4EBA FA06                jsr        [PC - 0x5FA /* 00002FCC */]
000035C8  6000 00A6                bra        +0xA8 /* 00003670 */
label000035CC:
000035CC  5340                     subq.w     D0, 1
000035CE  0C40 0009                cmpi.w     D0, 0x9 /* '\t' */
000035D2  641C                     bcc        +0x1E /* 000035F0 */
000035D4  D040                     add.w      D0, D0
000035D6  303B 0006                move.w     D0, [PC + D0.w + 0x6]
000035DA  4EFB 0002                jmp        [PC + D0.w + 0x2]
000035DE  FF5C                     .extension 0xF5C <<F/4-5/7>> // unimplemented
000035E0  FF64                     .extension 0xF64 <<F/4-5/7>> // unimplemented
000035E2  0012 FFA2                ori.b      [A2], 0xA2
000035E6  FFAA                     .invalid   <<F/6/7>>
000035E8  FFC8                     .invalid   <<F/7/7>>
000035EA  FFDE                     .invalid   <<F/7/7>>
000035EC  0012 FFE6                ori.b      [A2], 0xE6
label000035F0:
000035F0  6000 007E                bra        +0x80 /* 00003670 */
label000035F4:
000035F4  3007                     move.w     D0, D7
000035F6  6034                     bra        +0x36 /* 0000362C */
label000035F8:
000035F8  7C01                     moveq.l    D6, 0x01
label000035FA:
000035FA  594F                     subq.w     A7, 4
000035FC  3F3C 0085                move.w     -[A7], 0x85
00003600  A9BF                     syscall    GetRMenu
00003602  3F06                     move.w     -[A7], D6
00003604  4227                     clr.b      -[A7]
00003606  A945                     syscall    CheckItem
00003608  5246                     addq.w     D6, 1
0000360A  0C46 0004                cmpi.w     D6, 0x4
0000360E  6FEA                     ble        -0x14 /* 000035FA */
00003610  594F                     subq.w     A7, 4
00003612  3F3C 0085                move.w     -[A7], 0x85
00003616  A9BF                     syscall    GetRMenu
00003618  3F07                     move.w     -[A7], D7
0000361A  1F3C 0001                move.b     -[A7], 0x1
0000361E  A945                     syscall    CheckItem
00003620  3B47 BB54                move.w     [A5 - 0x44AC], D7
00003624  604A                     bra        +0x4C /* 00003670 */
label00003626:
00003626  4EBA DE60                jsr        [PC - 0x21A0 /* 00001488 */]
0000362A  6044                     bra        +0x46 /* 00003670 */
label0000362C:
0000362C  5340                     subq.w     D0, 1
0000362E  6B40                     bmi        +0x42 /* 00003670 */
00003630  5740                     subq.w     D0, 3
00003632  6FC4                     ble        -0x3A /* 000035F8 */
00003634  5540                     subq.w     D0, 2
00003636  67EE                     beq        -0x10 /* 00003626 */
00003638  6036                     bra        +0x38 /* 00003670 */
label0000363A:
0000363A  BE6D BB5E                cmp.w      D7, [A5 - 0x44A2]
0000363E  6630                     bne        +0x32 /* 00003670 */
00003640  4EBA F98A                jsr        [PC - 0x676 /* 00002FCC */]
00003644  602A                     bra        +0x2C /* 00003670 */
label00003646:
00003646  0640 406A                addi.w     D0, 0x406A /* '@j' */
0000364A  67EE                     beq        -0x10 /* 0000363A */
0000364C  0640 BF16                addi.w     D0, 0xBF16
00003650  6700 FD76                beq        -0x288 /* 000033C8 */
00003654  5340                     subq.w     D0, 1
00003656  6700 FDB2                beq        -0x24C /* 0000340A */
0000365A  5340                     subq.w     D0, 1
0000365C  6700 FE08                beq        -0x1F6 /* 00003466 */
00003660  5340                     subq.w     D0, 1
00003662  6700 FE3A                beq        -0x1C4 /* 0000349E */
00003666  5340                     subq.w     D0, 1
00003668  6700 FECA                beq        -0x134 /* 00003534 */
0000366C  5340                     subq.w     D0, 1
0000366E  6784                     beq        -0x7A /* 000035F4 */
label00003670:
00003670  4267                     clr.w      -[A7]
00003672  A938                     syscall    HiliteMenu
00003674  4CDF 00E0                movem.l    D5,D6,D7, [A7]+
00003678  4E5E                     unlink     A6
0000367A  2E9F                     move.l     [A7], [A7]+
0000367C  4E75                     rts
0000367E  1641                     movea.b    A3, D1
00003680  7574                     moveq.l    D2, 0x74
00003682  6F2D                     ble        +0x2F /* 000036B1 */
00003684  4869 6465                pea.l      [A1 + 0x6465]
00003688  2054                     movea.l    A0, [A4]
0000368A  6F6F                     ble        +0x71 /* 000036FB */
0000368C  6C73                     bge        +0x75 /* 00003701 */
0000368E  2069 7320                movea.l    A0, [A1 + 0x7320]
00003692  4F66                     chk.w      D7, -[A6]
00003694  6616                     bne        +0x18 /* 000036AC */
00003696  1541 7574                move.b     [A2 + 0x7574], D1
0000369A  6F2D                     ble        +0x2F /* 000036C9 */
0000369C  4869 6465                pea.l      [A1 + 0x6465]
000036A0  2054                     movea.l    A0, [A4]
000036A2  6F6F                     ble        +0x71 /* 00003713 */
000036A4  6C73                     bge        +0x75 /* 00003719 */
000036A6  2069 7320                movea.l    A0, [A1 + 0x7320]
000036AA  4F6E 1444                chk.w      D7, [A6 + 0x1444]
// begin alternate branch 000036AC-000036AE
label000036AC:
000036AC  1444                     movea.b    A2, D4
// end alternate branch 000036AC-000036AE
label000036AC: // (misaligned)
000036AE  6570                     bcs        +0x72 /* 00003720 */
000036B0  7468                     moveq.l    D2, 0x68
000036B2  2052                     movea.l    A0, [A2]
000036B4  6573                     bcs        +0x75 /* 00003729 */
000036B6  746F                     moveq.l    D2, 0x6F
000036B8  7265                     moveq.l    D1, 0x65
000036BA  2069 7320                movea.l    A0, [A1 + 0x7320]
000036BE  4F66                     chk.w      D7, -[A6]
000036C0  6616                     bne        +0x18 /* 000036D8 */
000036C2  1344 6570                move.b     [A1 + 0x6570], D4
000036C6  7468                     moveq.l    D2, 0x68
000036C8  2052                     movea.l    A0, [A2]
000036CA  6573                     bcs        +0x75 /* 0000373F */
000036CC  746F                     moveq.l    D2, 0x6F
000036CE  7265                     moveq.l    D1, 0x65
000036D0  2069 7320                movea.l    A0, [A1 + 0x7320]
000036D4  4F6E                     .incomplete
