# near model CODE resource
# jump table entries: 336-358 (23 of them)
export_42:
fn00000000:
00000000  4E56 FDF0                link       A6, -0x0210
00000004  302D BB3A                move.w     D0, [A5 - 0x44C6]
00000008  48C0                     ext.l      D0
0000000A  2F00                     move.l     -[A7], D0
0000000C  486E FEF0                pea.l      [A6 - 0x110]
00000010  4EAD 0122                jsr        [A5 + 0x122 /* export_32, CODE:1 @ 0000079C */]
00000014  486E FDF0                pea.l      [A6 - 0x210]
00000018  486D F1F2                pea.l      [A5 - 0xE0E]
0000001C  487A 0034                pea.l      [PC + 0x34 /* 00000052, value 0x2205B12, pstring " [" */]
00000020  486E FEF0                pea.l      [A6 - 0x110]
00000024  487A 002A                pea.l      [PC + 0x2A /* 00000050, value 0x15D0220 */]
00000028  3F3C 0004                move.w     -[A7], 0x4
0000002C  4EAD 0132                jsr        [A5 + 0x132 /* export_34, CODE:1 @ 000007AE */]
00000030  584F                     addq.w     A7, 4
00000032  3F3C 00FF                move.w     -[A7], 0xFF
00000036  486E FDF0                pea.l      [A6 - 0x210]
0000003A  486E FEF0                pea.l      [A6 - 0x110]
0000003E  4EAD 015A                jsr        [A5 + 0x15A /* export_39, CODE:1 @ 00000A28 */]
00000042  2F2D B8B2                move.l     -[A7], [A5 - 0x474E]
00000046  486E FEF0                pea.l      [A6 - 0x110]
0000004A  A91A                     syscall    SetWTitle
0000004C  4E5E                     unlink     A6
0000004E  4E75                     rts
00000050  015D                     bchg       [A5]+, D0
00000052  0220 5B12                andi.b     -[A0], 0x12
fn00000056:
00000056  4E56 FFD8                link       A6, -0x0028
0000005A  48E7 0108                movem.l    -[A7], D7,A4
0000005E  286E 0008                movea.l    A4, [A6 + 0x8]
00000062  206E 000C                movea.l    A0, [A6 + 0xC]
00000066  43EE FFE8                lea.l      A1, [A6 - 0x18]
0000006A  22D8                     move.l     [A1]+, [A0]+
0000006C  22D8                     move.l     [A1]+, [A0]+
0000006E  554F                     subq.w     A7, 2
00000070  2F0C                     move.l     -[A7], A4
00000072  4EAD 00DA                jsr        [A5 + 0xDA /* export_23, CODE:1 @ 0000053A */]
00000076  1E1F                     move.b     D7, [A7]+
00000078  2F0C                     move.l     -[A7], A4
0000007A  4EAD 0052                jsr        [A5 + 0x52 /* export_6, CODE:1 @ 000002A8 */]
0000007E  2054                     movea.l    A0, [A4]
00000080  2D48 FFD8                move.l     [A6 - 0x28], A0
00000084  3D7C 0002 FFDC           move.w     [A6 - 0x24], 0x2
0000008A  486E FFDE                pea.l      [A6 - 0x22]
0000008E  4267                     clr.w      -[A7]
00000090  4267                     clr.w      -[A7]
00000092  3F3C 0010                move.w     -[A7], 0x10
00000096  3F3C 0010                move.w     -[A7], 0x10
0000009A  A8A7                     syscall    SetRect
0000009C  486E FFD8                pea.l      [A6 - 0x28]
000000A0  206D B8B6                movea.l    A0, [A5 - 0x474A]
000000A4  4868 0002                pea.l      [A0 + 0x2]
000000A8  486E FFDE                pea.l      [A6 - 0x22]
000000AC  486E FFE8                pea.l      [A6 - 0x18]
000000B0  4267                     clr.w      -[A7]
000000B2  42A7                     clr.l      -[A7]
000000B4  A8EC                     syscall    CopyBits
000000B6  2F0C                     move.l     -[A7], A4
000000B8  1F07                     move.b     -[A7], D7
000000BA  4EAD 00E2                jsr        [A5 + 0xE2 /* export_24, CODE:1 @ 00000544 */]
000000BE  4CDF 1080                movem.l    D7,A4, [A7]+
000000C2  4E5E                     unlink     A6
000000C4  205F                     movea.l    A0, [A7]+
000000C6  504F                     addq.w     A7, 8
000000C8  4ED0                     jmp        [A0]
fn000000CA:
000000CA  4E56 FFEC                link       A6, -0x0014
000000CE  48E7 0300                movem.l    -[A7], D6,D7
000000D2  4247                     clr.w      D7
label000000D4:
000000D4  3C07                     move.w     D6, D7
000000D6  DC46                     add.w      D6, D6
000000D8  41ED F210                lea.l      A0, [A5 - 0xDF0]
000000DC  3C30 6000                move.w     D6, [A0 + D6.w]
000000E0  4A2D FD97                tst.b      [A5 - 0x269]
000000E4  6734                     beq        +0x36 /* 0000011A */
000000E6  206D BA82                movea.l    A0, [A5 - 0x457E]
000000EA  2068 0002                movea.l    A0, [A0 + 0x2]
000000EE  2F10                     move.l     -[A7], [A0]
000000F0  206D BA7E                movea.l    A0, [A5 - 0x4582]
000000F4  2068 0002                movea.l    A0, [A0 + 0x2]
000000F8  2F10                     move.l     -[A7], [A0]
000000FA  3006                     move.w     D0, D6
000000FC  E740                     asl        D0.w, 3
000000FE  0640 FA52                addi.w     D0, 0xFA52
00000102  4875 0000                pea.l      [A5 + D0.w]
00000106  3007                     move.w     D0, D7
00000108  E740                     asl        D0.w, 3
0000010A  0640 FA52                addi.w     D0, 0xFA52
0000010E  4875 0000                pea.l      [A5 + D0.w]
00000112  4267                     clr.w      -[A7]
00000114  42A7                     clr.l      -[A7]
00000116  A8EC                     syscall    CopyBits
00000118  6026                     bra        +0x28 /* 00000140 */
label0000011A:
0000011A  486D B8FE                pea.l      [A5 - 0x4702]
0000011E  486D B8F0                pea.l      [A5 - 0x4710]
00000122  3006                     move.w     D0, D6
00000124  E740                     asl        D0.w, 3
00000126  0640 FA52                addi.w     D0, 0xFA52
0000012A  4875 0000                pea.l      [A5 + D0.w]
0000012E  3007                     move.w     D0, D7
00000130  E740                     asl        D0.w, 3
00000132  0640 FA52                addi.w     D0, 0xFA52
00000136  4875 0000                pea.l      [A5 + D0.w]
0000013A  4267                     clr.w      -[A7]
0000013C  42A7                     clr.l      -[A7]
0000013E  A8EC                     syscall    CopyBits
label00000140:
00000140  5247                     addq.w     D7, 1
00000142  0C47 0007                cmpi.w     D7, 0x7
00000146  6F8C                     ble        -0x72 /* 000000D4 */
00000148  4CDF 00C0                movem.l    D6,D7, [A7]+
0000014C  4E5E                     unlink     A6
0000014E  4E75                     rts
export_43:
00000150  4E56 FFE8                link       A6, -0x0018
00000154  48E7 0708                movem.l    -[A7], D5,D6,D7,A4
00000158  3A2E 0008                move.w     D5, [A6 + 0x8]
0000015C  4A2D FD97                tst.b      [A5 - 0x269]
00000160  6708                     beq        +0xA /* 0000016A */
00000162  2F2D BA82                move.l     -[A7], [A5 - 0x457E]
00000166  A873                     syscall    SetPort
00000168  6006                     bra        +0x8 /* 00000170 */
label0000016A:
0000016A  2F2D B922                move.l     -[A7], [A5 - 0x46DE]
0000016E  A873                     syscall    SetPort
label00000170:
00000170  554F                     subq.w     A7, 2
00000172  486D BBBA                pea.l      [A5 - 0x4446]
00000176  A997                     syscall    OpenResFile
00000178  3C1F                     move.w     D6, [A7]+
0000017A  0C46 FFFF                cmpi.w     D6, 0xFFFF
0000017E  6616                     bne        +0x18 /* 00000196 */
00000180  3F06                     move.w     -[A7], D6
00000182  A99A                     syscall    CloseResFile
00000184  3F2D BB4C                move.w     -[A7], [A5 - 0x44B4]
00000188  A998                     syscall    UseResFile
0000018A  3F3C 0008                move.w     -[A7], 0x8
0000018E  4EAD 0272                jsr        [A5 + 0x272 /* export_74, CODE:5 @ 00000A50 */]
00000192  6000 0172                bra        +0x174 /* 00000306 */
label00000196:
00000196  594F                     subq.w     A7, 4
00000198  3F05                     move.w     -[A7], D5
0000019A  A9BC                     syscall    GetPicture
0000019C  285F                     movea.l    A4, [A7]+
0000019E  200C                     move.l     D0, A4
000001A0  6724                     beq        +0x26 /* 000001C6 */
000001A2  554F                     subq.w     A7, 2
000001A4  2F0C                     move.l     -[A7], A4
000001A6  4EAD 00DA                jsr        [A5 + 0xDA /* export_23, CODE:1 @ 0000053A */]
000001AA  1E1F                     move.b     D7, [A7]+
000001AC  2F0C                     move.l     -[A7], A4
000001AE  4EAD 0052                jsr        [A5 + 0x52 /* export_6, CODE:1 @ 000002A8 */]
000001B2  2F0C                     move.l     -[A7], A4
000001B4  486D B8C6                pea.l      [A5 - 0x473A]
000001B8  A8F6                     syscall    DrawPicture
000001BA  2F0C                     move.l     -[A7], A4
000001BC  1F07                     move.b     -[A7], D7
000001BE  4EAD 00E2                jsr        [A5 + 0xE2 /* export_24, CODE:1 @ 00000544 */]
000001C2  6000 009E                bra        +0xA0 /* 00000262 */
label000001C6:
000001C6  3005                     move.w     D0, D5
000001C8  603C                     bra        +0x3E /* 00000206 */
label000001CA:
000001CA  594F                     subq.w     A7, 4
000001CC  3F3C 00C9                move.w     -[A7], 0xC9
000001D0  A9BC                     syscall    GetPicture
000001D2  285F                     movea.l    A4, [A7]+
000001D4  6052                     bra        +0x54 /* 00000228 */
label000001D6:
000001D6  594F                     subq.w     A7, 4
000001D8  3F3C 00CC                move.w     -[A7], 0xCC
000001DC  A9BC                     syscall    GetPicture
000001DE  285F                     movea.l    A4, [A7]+
000001E0  6046                     bra        +0x48 /* 00000228 */
label000001E2:
000001E2  594F                     subq.w     A7, 4
000001E4  3F3C 00C8                move.w     -[A7], 0xC8
000001E8  A9BC                     syscall    GetPicture
000001EA  285F                     movea.l    A4, [A7]+
000001EC  603A                     bra        +0x3C /* 00000228 */
label000001EE:
000001EE  594F                     subq.w     A7, 4
000001F0  3F3C 00CB                move.w     -[A7], 0xCB
000001F4  A9BC                     syscall    GetPicture
000001F6  285F                     movea.l    A4, [A7]+
000001F8  602E                     bra        +0x30 /* 00000228 */
label000001FA:
000001FA  594F                     subq.w     A7, 4
000001FC  3F3C 00C8                move.w     -[A7], 0xC8
00000200  A9BC                     syscall    GetPicture
00000202  285F                     movea.l    A4, [A7]+
00000204  6022                     bra        +0x24 /* 00000228 */
label00000206:
00000206  0640 FF33                addi.w     D0, 0xFF33
0000020A  67BE                     beq        -0x40 /* 000001CA */
0000020C  5340                     subq.w     D0, 1
0000020E  67C6                     beq        -0x38 /* 000001D6 */
00000210  5340                     subq.w     D0, 1
00000212  67CE                     beq        -0x30 /* 000001E2 */
00000214  5340                     subq.w     D0, 1
00000216  67D6                     beq        -0x28 /* 000001EE */
00000218  5340                     subq.w     D0, 1
0000021A  67DE                     beq        -0x20 /* 000001FA */
0000021C  3F3C 0009                move.w     -[A7], 0x9 /* '\t' */
00000220  4EAD 0272                jsr        [A5 + 0x272 /* export_74, CODE:5 @ 00000A50 */]
00000224  6000 00E0                bra        +0xE2 /* 00000306 */
label00000228:
00000228  200C                     move.l     D0, A4
0000022A  6722                     beq        +0x24 /* 0000024E */
0000022C  554F                     subq.w     A7, 2
0000022E  2F0C                     move.l     -[A7], A4
00000230  4EAD 00DA                jsr        [A5 + 0xDA /* export_23, CODE:1 @ 0000053A */]
00000234  1E1F                     move.b     D7, [A7]+
00000236  2F0C                     move.l     -[A7], A4
00000238  4EAD 0052                jsr        [A5 + 0x52 /* export_6, CODE:1 @ 000002A8 */]
0000023C  2F0C                     move.l     -[A7], A4
0000023E  486D B8C6                pea.l      [A5 - 0x473A]
00000242  A8F6                     syscall    DrawPicture
00000244  2F0C                     move.l     -[A7], A4
00000246  1F07                     move.b     -[A7], D7
00000248  4EAD 00E2                jsr        [A5 + 0xE2 /* export_24, CODE:1 @ 00000544 */]
0000024C  600C                     bra        +0xE /* 0000025A */
label0000024E:
0000024E  3F3C 0009                move.w     -[A7], 0x9 /* '\t' */
00000252  4EAD 0272                jsr        [A5 + 0x272 /* export_74, CODE:5 @ 00000A50 */]
00000256  6000 00AE                bra        +0xB0 /* 00000306 */
label0000025A:
0000025A  3F3C 0009                move.w     -[A7], 0x9 /* '\t' */
0000025E  4EAD 0272                jsr        [A5 + 0x272 /* export_74, CODE:5 @ 00000A50 */]
label00000262:
00000262  2F0C                     move.l     -[A7], A4
00000264  A9A3                     syscall    ReleaseResource
00000266  3F06                     move.w     -[A7], D6
00000268  A99A                     syscall    CloseResFile
0000026A  3F2D BB4C                move.w     -[A7], [A5 - 0x44B4]
0000026E  A998                     syscall    UseResFile
00000270  4AAD B8B6                tst.l      [A5 - 0x474A]
00000274  6706                     beq        +0x8 /* 0000027C */
00000276  2F2D B8B6                move.l     -[A7], [A5 - 0x474A]
0000027A  A873                     syscall    SetPort
label0000027C:
0000027C  4EBA FE4C                jsr        [PC - 0x1B4 /* 000000CA */]
00000280  4A2D FD97                tst.b      [A5 - 0x269]
00000284  674A                     beq        +0x4C /* 000002D0 */
00000286  206D BA7E                movea.l    A0, [A5 - 0x4582]
0000028A  2068 0002                movea.l    A0, [A0 + 0x2]
0000028E  2F10                     move.l     -[A7], [A0]
00000290  206D BA82                movea.l    A0, [A5 - 0x457E]
00000294  2068 0002                movea.l    A0, [A0 + 0x2]
00000298  2F10                     move.l     -[A7], [A0]
0000029A  486D B8C6                pea.l      [A5 - 0x473A]
0000029E  486D B8C6                pea.l      [A5 - 0x473A]
000002A2  4267                     clr.w      -[A7]
000002A4  42A7                     clr.l      -[A7]
000002A6  A8EC                     syscall    CopyBits
000002A8  206D BA7E                movea.l    A0, [A5 - 0x4582]
000002AC  2068 0002                movea.l    A0, [A0 + 0x2]
000002B0  2F10                     move.l     -[A7], [A0]
000002B2  206D B8B2                movea.l    A0, [A5 - 0x474E]
000002B6  4868 0002                pea.l      [A0 + 0x2]
000002BA  486D B8C6                pea.l      [A5 - 0x473A]
000002BE  486D B8C6                pea.l      [A5 - 0x473A]
000002C2  4267                     clr.w      -[A7]
000002C4  206D B8B2                movea.l    A0, [A5 - 0x474E]
000002C8  2F28 0018                move.l     -[A7], [A0 + 0x18]
000002CC  A8EC                     syscall    CopyBits
000002CE  6036                     bra        +0x38 /* 00000306 */
label000002D0:
000002D0  486D B8F0                pea.l      [A5 - 0x4710]
000002D4  486D B8FE                pea.l      [A5 - 0x4702]
000002D8  486D B8C6                pea.l      [A5 - 0x473A]
000002DC  486D B8C6                pea.l      [A5 - 0x473A]
000002E0  4267                     clr.w      -[A7]
000002E2  42A7                     clr.l      -[A7]
000002E4  A8EC                     syscall    CopyBits
000002E6  486D B8F0                pea.l      [A5 - 0x4710]
000002EA  206D B8B2                movea.l    A0, [A5 - 0x474E]
000002EE  4868 0002                pea.l      [A0 + 0x2]
000002F2  486D B8C6                pea.l      [A5 - 0x473A]
000002F6  486D B8C6                pea.l      [A5 - 0x473A]
000002FA  4267                     clr.w      -[A7]
000002FC  206D B8B2                movea.l    A0, [A5 - 0x474E]
00000300  2F28 0018                move.l     -[A7], [A0 + 0x18]
00000304  A8EC                     syscall    CopyBits
label00000306:
00000306  4CDF 10E0                movem.l    D5,D6,D7,A4, [A7]+
0000030A  4E5E                     unlink     A6
0000030C  205F                     movea.l    A0, [A7]+
0000030E  544F                     addq.w     A7, 2
00000310  4ED0                     jmp        [A0]
fn00000312:
00000312  4E56 FFD2                link       A6, -0x002E
00000316  206E 000C                movea.l    A0, [A6 + 0xC]
0000031A  43EE FFE2                lea.l      A1, [A6 - 0x1E]
0000031E  22D8                     move.l     [A1]+, [A0]+
00000320  32D8                     move.w     [A1]+, [A0]+
00000322  206E 0008                movea.l    A0, [A6 + 0x8]
00000326  43EE FFE8                lea.l      A1, [A6 - 0x18]
0000032A  22D8                     move.l     [A1]+, [A0]+
0000032C  22D8                     move.l     [A1]+, [A0]+
0000032E  486E FFE2                pea.l      [A6 - 0x1E]
00000332  AA14                     syscall    RGBForeColor
00000334  486E FFE8                pea.l      [A6 - 0x18]
00000338  A8A2                     syscall    PaintRect
0000033A  486D BA96                pea.l      [A5 - 0x456A]
0000033E  AA14                     syscall    RGBForeColor
00000340  486E FFE8                pea.l      [A6 - 0x18]
00000344  A8A1                     syscall    FrameRect
00000346  4E5E                     unlink     A6
00000348  205F                     movea.l    A0, [A7]+
0000034A  504F                     addq.w     A7, 8
0000034C  4ED0                     jmp        [A0]
fn0000034E:
0000034E  4E56 FFD8                link       A6, -0x0028
00000352  206E 0008                movea.l    A0, [A6 + 0x8]
00000356  43EE FFE8                lea.l      A1, [A6 - 0x18]
0000035A  22D8                     move.l     [A1]+, [A0]+
0000035C  22D8                     move.l     [A1]+, [A0]+
0000035E  486E FFE8                pea.l      [A6 - 0x18]
00000362  486D FFB2                pea.l      [A5 - 0x4E]
00000366  A8A5                     syscall    FillRect
00000368  486E FFE8                pea.l      [A6 - 0x18]
0000036C  A8A1                     syscall    FrameRect
0000036E  4E5E                     unlink     A6
00000370  2E9F                     move.l     [A7], [A7]+
00000372  4E75                     rts
fn00000374:
00000374  4E56 FFE2                link       A6, -0x001E
00000378  206E 000C                movea.l    A0, [A6 + 0xC]
0000037C  43EE FFE2                lea.l      A1, [A6 - 0x1E]
00000380  22D8                     move.l     [A1]+, [A0]+
00000382  32D8                     move.w     [A1]+, [A0]+
00000384  206E 0008                movea.l    A0, [A6 + 0x8]
00000388  43EE FFE8                lea.l      A1, [A6 - 0x18]
0000038C  22D8                     move.l     [A1]+, [A0]+
0000038E  22D8                     move.l     [A1]+, [A0]+
00000390  486E FFE2                pea.l      [A6 - 0x1E]
00000394  AA14                     syscall    RGBForeColor
00000396  302E FFEA                move.w     D0, [A6 - 0x16]
0000039A  5240                     addq.w     D0, 1
0000039C  3F00                     move.w     -[A7], D0
0000039E  302E FFE8                move.w     D0, [A6 - 0x18]
000003A2  5240                     addq.w     D0, 1
000003A4  3F00                     move.w     -[A7], D0
000003A6  A893                     syscall    MoveTo
000003A8  302E FFEE                move.w     D0, [A6 - 0x12]
000003AC  5540                     subq.w     D0, 2
000003AE  3F00                     move.w     -[A7], D0
000003B0  302E FFE8                move.w     D0, [A6 - 0x18]
000003B4  5240                     addq.w     D0, 1
000003B6  3F00                     move.w     -[A7], D0
000003B8  A891                     syscall    LineTo
000003BA  302E FFEE                move.w     D0, [A6 - 0x12]
000003BE  5540                     subq.w     D0, 2
000003C0  3F00                     move.w     -[A7], D0
000003C2  302E FFEC                move.w     D0, [A6 - 0x14]
000003C6  5540                     subq.w     D0, 2
000003C8  3F00                     move.w     -[A7], D0
000003CA  A891                     syscall    LineTo
000003CC  486D BA96                pea.l      [A5 - 0x456A]
000003D0  AA14                     syscall    RGBForeColor
000003D2  4E5E                     unlink     A6
000003D4  205F                     movea.l    A0, [A7]+
000003D6  504F                     addq.w     A7, 8
000003D8  4ED0                     jmp        [A0]
fn000003DA:
000003DA  4E56 FFE8                link       A6, -0x0018
000003DE  206E 0008                movea.l    A0, [A6 + 0x8]
000003E2  43EE FFE8                lea.l      A1, [A6 - 0x18]
000003E6  22D8                     move.l     [A1]+, [A0]+
000003E8  22D8                     move.l     [A1]+, [A0]+
000003EA  486D FFC2                pea.l      [A5 - 0x3E]
000003EE  A89D                     syscall    PenPat
000003F0  302E FFEA                move.w     D0, [A6 - 0x16]
000003F4  5240                     addq.w     D0, 1
000003F6  3F00                     move.w     -[A7], D0
000003F8  302E FFE8                move.w     D0, [A6 - 0x18]
000003FC  5240                     addq.w     D0, 1
000003FE  3F00                     move.w     -[A7], D0
00000400  A893                     syscall    MoveTo
00000402  302E FFEE                move.w     D0, [A6 - 0x12]
00000406  5540                     subq.w     D0, 2
00000408  3F00                     move.w     -[A7], D0
0000040A  302E FFE8                move.w     D0, [A6 - 0x18]
0000040E  5240                     addq.w     D0, 1
00000410  3F00                     move.w     -[A7], D0
00000412  A891                     syscall    LineTo
00000414  302E FFEE                move.w     D0, [A6 - 0x12]
00000418  5540                     subq.w     D0, 2
0000041A  3F00                     move.w     -[A7], D0
0000041C  302E FFEC                move.w     D0, [A6 - 0x14]
00000420  5540                     subq.w     D0, 2
00000422  3F00                     move.w     -[A7], D0
00000424  A891                     syscall    LineTo
00000426  A89E                     syscall    PenNormal
00000428  302E FFEA                move.w     D0, [A6 - 0x16]
0000042C  5240                     addq.w     D0, 1
0000042E  3F00                     move.w     -[A7], D0
00000430  302E FFE8                move.w     D0, [A6 - 0x18]
00000434  5240                     addq.w     D0, 1
00000436  3F00                     move.w     -[A7], D0
00000438  A893                     syscall    MoveTo
0000043A  302E FFEA                move.w     D0, [A6 - 0x16]
0000043E  5240                     addq.w     D0, 1
00000440  3F00                     move.w     -[A7], D0
00000442  302E FFEC                move.w     D0, [A6 - 0x14]
00000446  5540                     subq.w     D0, 2
00000448  3F00                     move.w     -[A7], D0
0000044A  A891                     syscall    LineTo
0000044C  302E FFEE                move.w     D0, [A6 - 0x12]
00000450  5540                     subq.w     D0, 2
00000452  3F00                     move.w     -[A7], D0
00000454  302E FFEC                move.w     D0, [A6 - 0x14]
00000458  5540                     subq.w     D0, 2
0000045A  3F00                     move.w     -[A7], D0
0000045C  A891                     syscall    LineTo
0000045E  4E5E                     unlink     A6
00000460  2E9F                     move.l     [A7], [A7]+
00000462  4E75                     rts
fn00000464:
00000464  4E56 FFE8                link       A6, -0x0018
00000468  206E 0008                movea.l    A0, [A6 + 0x8]
0000046C  43EE FFE8                lea.l      A1, [A6 - 0x18]
00000470  22D8                     move.l     [A1]+, [A0]+
00000472  22D8                     move.l     [A1]+, [A0]+
00000474  486D BAC6                pea.l      [A5 - 0x453A]
00000478  AA14                     syscall    RGBForeColor
0000047A  302E FFEA                move.w     D0, [A6 - 0x16]
0000047E  5340                     subq.w     D0, 1
00000480  3F00                     move.w     -[A7], D0
00000482  3F2E FFE8                move.w     -[A7], [A6 - 0x18]
00000486  A893                     syscall    MoveTo
00000488  302E FFEA                move.w     D0, [A6 - 0x16]
0000048C  5340                     subq.w     D0, 1
0000048E  3F00                     move.w     -[A7], D0
00000490  3F2E FFEC                move.w     -[A7], [A6 - 0x14]
00000494  A891                     syscall    LineTo
00000496  302E FFEE                move.w     D0, [A6 - 0x12]
0000049A  5340                     subq.w     D0, 1
0000049C  3F00                     move.w     -[A7], D0
0000049E  3F2E FFEC                move.w     -[A7], [A6 - 0x14]
000004A2  A891                     syscall    LineTo
000004A4  486D BAAE                pea.l      [A5 - 0x4552]
000004A8  AA14                     syscall    RGBForeColor
000004AA  3F2E FFEA                move.w     -[A7], [A6 - 0x16]
000004AE  302E FFE8                move.w     D0, [A6 - 0x18]
000004B2  5340                     subq.w     D0, 1
000004B4  3F00                     move.w     -[A7], D0
000004B6  A893                     syscall    MoveTo
000004B8  3F2E FFEE                move.w     -[A7], [A6 - 0x12]
000004BC  302E FFE8                move.w     D0, [A6 - 0x18]
000004C0  5340                     subq.w     D0, 1
000004C2  3F00                     move.w     -[A7], D0
000004C4  A891                     syscall    LineTo
000004C6  3F2E FFEE                move.w     -[A7], [A6 - 0x12]
000004CA  3F2E FFEC                move.w     -[A7], [A6 - 0x14]
000004CE  A891                     syscall    LineTo
000004D0  486D BA96                pea.l      [A5 - 0x456A]
000004D4  AA14                     syscall    RGBForeColor
000004D6  4E5E                     unlink     A6
000004D8  2E9F                     move.l     [A7], [A7]+
000004DA  4E75                     rts
fn000004DC:
000004DC  4E56 FFE8                link       A6, -0x0018
000004E0  206E 0008                movea.l    A0, [A6 + 0x8]
000004E4  43EE FFE8                lea.l      A1, [A6 - 0x18]
000004E8  22D8                     move.l     [A1]+, [A0]+
000004EA  22D8                     move.l     [A1]+, [A0]+
000004EC  486D FFC2                pea.l      [A5 - 0x3E]
000004F0  A89D                     syscall    PenPat
000004F2  302E FFEA                move.w     D0, [A6 - 0x16]
000004F6  5340                     subq.w     D0, 1
000004F8  3F00                     move.w     -[A7], D0
000004FA  3F2E FFE8                move.w     -[A7], [A6 - 0x18]
000004FE  A893                     syscall    MoveTo
00000500  302E FFEA                move.w     D0, [A6 - 0x16]
00000504  5340                     subq.w     D0, 1
00000506  3F00                     move.w     -[A7], D0
00000508  3F2E FFEC                move.w     -[A7], [A6 - 0x14]
0000050C  A891                     syscall    LineTo
0000050E  302E FFEE                move.w     D0, [A6 - 0x12]
00000512  5340                     subq.w     D0, 1
00000514  3F00                     move.w     -[A7], D0
00000516  3F2E FFEC                move.w     -[A7], [A6 - 0x14]
0000051A  A891                     syscall    LineTo
0000051C  A89E                     syscall    PenNormal
0000051E  3F2E FFEA                move.w     -[A7], [A6 - 0x16]
00000522  302E FFE8                move.w     D0, [A6 - 0x18]
00000526  5340                     subq.w     D0, 1
00000528  3F00                     move.w     -[A7], D0
0000052A  A893                     syscall    MoveTo
0000052C  3F2E FFEE                move.w     -[A7], [A6 - 0x12]
00000530  302E FFE8                move.w     D0, [A6 - 0x18]
00000534  5340                     subq.w     D0, 1
00000536  3F00                     move.w     -[A7], D0
00000538  A891                     syscall    LineTo
0000053A  3F2E FFEE                move.w     -[A7], [A6 - 0x12]
0000053E  3F2E FFEC                move.w     -[A7], [A6 - 0x14]
00000542  A891                     syscall    LineTo
00000544  4E5E                     unlink     A6
00000546  2E9F                     move.l     [A7], [A7]+
00000548  4E75                     rts
fn0000054A:
0000054A  4E56 FFCE                link       A6, -0x0032
0000054E  48E7 0108                movem.l    -[A7], D7,A4
00000552  4A2D FD97                tst.b      [A5 - 0x269]
00000556  6708                     beq        +0xA /* 00000560 */
00000558  2F2D BA82                move.l     -[A7], [A5 - 0x457E]
0000055C  A873                     syscall    SetPort
0000055E  6006                     bra        +0x8 /* 00000566 */
label00000560:
00000560  2F2D B922                move.l     -[A7], [A5 - 0x46DE]
00000564  A873                     syscall    SetPort
label00000566:
00000566  A89E                     syscall    PenNormal
00000568  302E 0008                move.w     D0, [A6 + 0x8]
0000056C  E940                     asl        D0.w, 4
0000056E  0640 F21C                addi.w     D0, 0xF21C
00000572  49F5 0000                lea.l      A4, [A5 + D0.w]
00000576  3E14                     move.w     D7, [A4]
00000578  41EC 0002                lea.l      A0, [A4 + 0x2]
0000057C  43EE FFE6                lea.l      A1, [A6 - 0x1A]
00000580  22D8                     move.l     [A1]+, [A0]+
00000582  22D8                     move.l     [A1]+, [A0]+
00000584  4A2D FD97                tst.b      [A5 - 0x269]
00000588  673E                     beq        +0x40 /* 000005C8 */
0000058A  486D BAC0                pea.l      [A5 - 0x4540]
0000058E  486E FFE6                pea.l      [A6 - 0x1A]
00000592  4EBA FD7E                jsr        [PC - 0x282 /* 00000312 */]
00000596  302E FFE8                move.w     D0, [A6 - 0x18]
0000059A  5240                     addq.w     D0, 1
0000059C  3F00                     move.w     -[A7], D0
0000059E  302E FFEA                move.w     D0, [A6 - 0x16]
000005A2  5540                     subq.w     D0, 2
000005A4  3F00                     move.w     -[A7], D0
000005A6  A893                     syscall    MoveTo
000005A8  302E FFEC                move.w     D0, [A6 - 0x14]
000005AC  5340                     subq.w     D0, 1
000005AE  3F00                     move.w     -[A7], D0
000005B0  302E FFEA                move.w     D0, [A6 - 0x16]
000005B4  5540                     subq.w     D0, 2
000005B6  3F00                     move.w     -[A7], D0
000005B8  A891                     syscall    LineTo
000005BA  486D BAC6                pea.l      [A5 - 0x453A]
000005BE  486E FFE6                pea.l      [A6 - 0x1A]
000005C2  4EBA FDB0                jsr        [PC - 0x250 /* 00000374 */]
000005C6  6010                     bra        +0x12 /* 000005D8 */
label000005C8:
000005C8  486E FFE6                pea.l      [A6 - 0x1A]
000005CC  4EBA FD80                jsr        [PC - 0x280 /* 0000034E */]
000005D0  486E FFE6                pea.l      [A6 - 0x1A]
000005D4  4EBA FE04                jsr        [PC - 0x1FC /* 000003DA */]
label000005D8:
000005D8  A89E                     syscall    PenNormal
000005DA  486E FFDE                pea.l      [A6 - 0x22]
000005DE  3F2E FFE8                move.w     -[A7], [A6 - 0x18]
000005E2  3F3C 0145                move.w     -[A7], 0x145
000005E6  3F2E FFEC                move.w     -[A7], [A6 - 0x14]
000005EA  3F3C 0159                move.w     -[A7], 0x159
000005EE  A8A7                     syscall    SetRect
000005F0  486E FFDE                pea.l      [A6 - 0x22]
000005F4  302E FFE6                move.w     D0, [A6 - 0x1A]
000005F8  0640 FEBB                addi.w     D0, 0xFEBB
000005FC  48C0                     ext.l      D0
000005FE  81FC 0005                divs.w     D0, 0x5
00000602  3F00                     move.w     -[A7], D0
00000604  4267                     clr.w      -[A7]
00000606  A8A8                     syscall    OffsetRect
00000608  4A2D FD97                tst.b      [A5 - 0x269]
0000060C  6714                     beq        +0x16 /* 00000622 */
0000060E  3F3C 002C                move.w     -[A7], 0x2C /* ',' */
00000612  A89C                     syscall    PenMode
00000614  486D FFB2                pea.l      [A5 - 0x4E]
00000618  A89D                     syscall    PenPat
0000061A  486E FFDE                pea.l      [A6 - 0x22]
0000061E  A8B8                     syscall    PaintOval
00000620  6012                     bra        +0x14 /* 00000634 */
label00000622:
00000622  3F3C 0009                move.w     -[A7], 0x9 /* '\t' */
00000626  A89C                     syscall    PenMode
00000628  486D FFB2                pea.l      [A5 - 0x4E]
0000062C  A89D                     syscall    PenPat
0000062E  486E FFDE                pea.l      [A6 - 0x22]
00000632  A8B8                     syscall    PaintOval
label00000634:
00000634  A89E                     syscall    PenNormal
00000636  4A2D FD97                tst.b      [A5 - 0x269]
0000063A  6700 00DE                beq        +0xE0 /* 0000071A */
0000063E  486D BA96                pea.l      [A5 - 0x456A]
00000642  AA14                     syscall    RGBForeColor
00000644  3F3C 0005                move.w     -[A7], 0x5
00000648  3F3C 0001                move.w     -[A7], 0x1
0000064C  A89B                     syscall    PenSize
0000064E  302E FFE8                move.w     D0, [A6 - 0x18]
00000652  D06E FFEC                add.w      D0, [A6 - 0x14]
00000656  48C0                     ext.l      D0
00000658  81FC 0002                divs.w     D0, 0x2
0000065C  5540                     subq.w     D0, 2
0000065E  3F00                     move.w     -[A7], D0
00000660  3F2E FFEA                move.w     -[A7], [A6 - 0x16]
00000664  A893                     syscall    MoveTo
00000666  302E FFE8                move.w     D0, [A6 - 0x18]
0000066A  D06E FFEC                add.w      D0, [A6 - 0x14]
0000066E  48C0                     ext.l      D0
00000670  81FC 0002                divs.w     D0, 0x2
00000674  5540                     subq.w     D0, 2
00000676  3F00                     move.w     -[A7], D0
00000678  3F3C 013E                move.w     -[A7], 0x13E
0000067C  A891                     syscall    LineTo
0000067E  486D BA9C                pea.l      [A5 - 0x4564]
00000682  AA14                     syscall    RGBForeColor
00000684  3F3C 0001                move.w     -[A7], 0x1
00000688  3F3C 0001                move.w     -[A7], 0x1
0000068C  A89B                     syscall    PenSize
0000068E  302E FFE8                move.w     D0, [A6 - 0x18]
00000692  D06E FFEC                add.w      D0, [A6 - 0x14]
00000696  48C0                     ext.l      D0
00000698  81FC 0002                divs.w     D0, 0x2
0000069C  5240                     addq.w     D0, 1
0000069E  3F00                     move.w     -[A7], D0
000006A0  302E FFEC                move.w     D0, [A6 - 0x14]
000006A4  906E FFE8                sub.w      D0, [A6 - 0x18]
000006A8  48C0                     ext.l      D0
000006AA  81FC 0008                divs.w     D0, 0x8
000006AE  D06E FFEA                add.w      D0, [A6 - 0x16]
000006B2  3F00                     move.w     -[A7], D0
000006B4  A893                     syscall    MoveTo
000006B6  302E FFE8                move.w     D0, [A6 - 0x18]
000006BA  D06E FFEC                add.w      D0, [A6 - 0x14]
000006BE  48C0                     ext.l      D0
000006C0  81FC 0002                divs.w     D0, 0x2
000006C4  5240                     addq.w     D0, 1
000006C6  3F00                     move.w     -[A7], D0
000006C8  3F3C 013E                move.w     -[A7], 0x13E
000006CC  A891                     syscall    LineTo
000006CE  486D BAC6                pea.l      [A5 - 0x453A]
000006D2  AA14                     syscall    RGBForeColor
000006D4  302E FFE8                move.w     D0, [A6 - 0x18]
000006D8  D06E FFEC                add.w      D0, [A6 - 0x14]
000006DC  48C0                     ext.l      D0
000006DE  81FC 0002                divs.w     D0, 0x2
000006E2  3F00                     move.w     -[A7], D0
000006E4  302E FFEC                move.w     D0, [A6 - 0x14]
000006E8  906E FFE8                sub.w      D0, [A6 - 0x18]
000006EC  48C0                     ext.l      D0
000006EE  81FC 0008                divs.w     D0, 0x8
000006F2  D06E FFEA                add.w      D0, [A6 - 0x16]
000006F6  3F00                     move.w     -[A7], D0
000006F8  A893                     syscall    MoveTo
000006FA  302E FFE8                move.w     D0, [A6 - 0x18]
000006FE  D06E FFEC                add.w      D0, [A6 - 0x14]
00000702  48C0                     ext.l      D0
00000704  81FC 0002                divs.w     D0, 0x2
00000708  3F00                     move.w     -[A7], D0
0000070A  3F3C 013E                move.w     -[A7], 0x13E
0000070E  A891                     syscall    LineTo
00000710  486D BA96                pea.l      [A5 - 0x456A]
00000714  AA14                     syscall    RGBForeColor
00000716  6000 00CE                bra        +0xD0 /* 000007E6 */
label0000071A:
0000071A  3F3C 0005                move.w     -[A7], 0x5
0000071E  3F3C 0001                move.w     -[A7], 0x1
00000722  A89B                     syscall    PenSize
00000724  302E FFE8                move.w     D0, [A6 - 0x18]
00000728  D06E FFEC                add.w      D0, [A6 - 0x14]
0000072C  48C0                     ext.l      D0
0000072E  81FC 0002                divs.w     D0, 0x2
00000732  5540                     subq.w     D0, 2
00000734  3F00                     move.w     -[A7], D0
00000736  3F2E FFEA                move.w     -[A7], [A6 - 0x16]
0000073A  A893                     syscall    MoveTo
0000073C  302E FFE8                move.w     D0, [A6 - 0x18]
00000740  D06E FFEC                add.w      D0, [A6 - 0x14]
00000744  48C0                     ext.l      D0
00000746  81FC 0002                divs.w     D0, 0x2
0000074A  5540                     subq.w     D0, 2
0000074C  3F00                     move.w     -[A7], D0
0000074E  3F3C 013E                move.w     -[A7], 0x13E
00000752  A891                     syscall    LineTo
00000754  486D FFC2                pea.l      [A5 - 0x3E]
00000758  A89D                     syscall    PenPat
0000075A  3F3C 0001                move.w     -[A7], 0x1
0000075E  3F3C 0001                move.w     -[A7], 0x1
00000762  A89B                     syscall    PenSize
00000764  302E FFE8                move.w     D0, [A6 - 0x18]
00000768  D06E FFEC                add.w      D0, [A6 - 0x14]
0000076C  48C0                     ext.l      D0
0000076E  81FC 0002                divs.w     D0, 0x2
00000772  5240                     addq.w     D0, 1
00000774  3F00                     move.w     -[A7], D0
00000776  302E FFEC                move.w     D0, [A6 - 0x14]
0000077A  906E FFE8                sub.w      D0, [A6 - 0x18]
0000077E  48C0                     ext.l      D0
00000780  81FC 0008                divs.w     D0, 0x8
00000784  D06E FFEA                add.w      D0, [A6 - 0x16]
00000788  3F00                     move.w     -[A7], D0
0000078A  A893                     syscall    MoveTo
0000078C  302E FFE8                move.w     D0, [A6 - 0x18]
00000790  D06E FFEC                add.w      D0, [A6 - 0x14]
00000794  48C0                     ext.l      D0
00000796  81FC 0002                divs.w     D0, 0x2
0000079A  5240                     addq.w     D0, 1
0000079C  3F00                     move.w     -[A7], D0
0000079E  3F3C 013E                move.w     -[A7], 0x13E
000007A2  A891                     syscall    LineTo
000007A4  486D FFB2                pea.l      [A5 - 0x4E]
000007A8  A89D                     syscall    PenPat
000007AA  302E FFE8                move.w     D0, [A6 - 0x18]
000007AE  D06E FFEC                add.w      D0, [A6 - 0x14]
000007B2  48C0                     ext.l      D0
000007B4  81FC 0002                divs.w     D0, 0x2
000007B8  3F00                     move.w     -[A7], D0
000007BA  302E FFEC                move.w     D0, [A6 - 0x14]
000007BE  906E FFE8                sub.w      D0, [A6 - 0x18]
000007C2  48C0                     ext.l      D0
000007C4  81FC 0008                divs.w     D0, 0x8
000007C8  D06E FFEA                add.w      D0, [A6 - 0x16]
000007CC  3F00                     move.w     -[A7], D0
000007CE  A893                     syscall    MoveTo
000007D0  302E FFE8                move.w     D0, [A6 - 0x18]
000007D4  D06E FFEC                add.w      D0, [A6 - 0x14]
000007D8  48C0                     ext.l      D0
000007DA  81FC 0002                divs.w     D0, 0x2
000007DE  3F00                     move.w     -[A7], D0
000007E0  3F3C 013E                move.w     -[A7], 0x13E
000007E4  A891                     syscall    LineTo
label000007E6:
000007E6  A89E                     syscall    PenNormal
000007E8  3007                     move.w     D0, D7
000007EA  E740                     asl        D0.w, 3
000007EC  0640 FAF2                addi.w     D0, 0xFAF2
000007F0  41F5 0000                lea.l      A0, [A5 + D0.w]
000007F4  43EE FFDE                lea.l      A1, [A6 - 0x22]
000007F8  22D8                     move.l     [A1]+, [A0]+
000007FA  22D8                     move.l     [A1]+, [A0]+
000007FC  486E FFDE                pea.l      [A6 - 0x22]
00000800  302E FFE0                move.w     D0, [A6 - 0x20]
00000804  4440                     neg.w      D0
00000806  3F00                     move.w     -[A7], D0
00000808  302E FFDE                move.w     D0, [A6 - 0x22]
0000080C  4440                     neg.w      D0
0000080E  3F00                     move.w     -[A7], D0
00000810  A8A8                     syscall    OffsetRect
00000812  486E FFDE                pea.l      [A6 - 0x22]
00000816  302E FFE8                move.w     D0, [A6 - 0x18]
0000081A  D06E FFEC                add.w      D0, [A6 - 0x14]
0000081E  48C0                     ext.l      D0
00000820  81FC 0002                divs.w     D0, 0x2
00000824  0640 FFE1                addi.w     D0, 0xFFE1
00000828  3F00                     move.w     -[A7], D0
0000082A  3F3C 013E                move.w     -[A7], 0x13E
0000082E  A8A8                     syscall    OffsetRect
00000830  4A2D FD97                tst.b      [A5 - 0x269]
00000834  6738                     beq        +0x3A /* 0000086E */
00000836  206D BA86                movea.l    A0, [A5 - 0x457A]
0000083A  2068 0002                movea.l    A0, [A0 + 0x2]
0000083E  2F10                     move.l     -[A7], [A0]
00000840  486D B8E2                pea.l      [A5 - 0x471E]
00000844  206D BA82                movea.l    A0, [A5 - 0x457E]
00000848  2068 0002                movea.l    A0, [A0 + 0x2]
0000084C  2F10                     move.l     -[A7], [A0]
0000084E  3007                     move.w     D0, D7
00000850  E740                     asl        D0.w, 3
00000852  0640 FAF2                addi.w     D0, 0xFAF2
00000856  4875 0000                pea.l      [A5 + D0.w]
0000085A  3007                     move.w     D0, D7
0000085C  E740                     asl        D0.w, 3
0000085E  0640 FAF2                addi.w     D0, 0xFAF2
00000862  4875 0000                pea.l      [A5 + D0.w]
00000866  486E FFDE                pea.l      [A6 - 0x22]
0000086A  A817                     syscall    CopyMask
0000086C  602A                     bra        +0x2C /* 00000898 */
label0000086E:
0000086E  486D B90C                pea.l      [A5 - 0x46F4]
00000872  486D B8E2                pea.l      [A5 - 0x471E]
00000876  486D B8FE                pea.l      [A5 - 0x4702]
0000087A  3007                     move.w     D0, D7
0000087C  E740                     asl        D0.w, 3
0000087E  0640 FAF2                addi.w     D0, 0xFAF2
00000882  4875 0000                pea.l      [A5 + D0.w]
00000886  3007                     move.w     D0, D7
00000888  E740                     asl        D0.w, 3
0000088A  0640 FAF2                addi.w     D0, 0xFAF2
0000088E  4875 0000                pea.l      [A5 + D0.w]
00000892  486E FFDE                pea.l      [A6 - 0x22]
00000896  A817                     syscall    CopyMask
label00000898:
00000898  4CDF 1080                movem.l    D7,A4, [A7]+
0000089C  4E5E                     unlink     A6
0000089E  205F                     movea.l    A0, [A7]+
000008A0  544F                     addq.w     A7, 2
000008A2  4ED0                     jmp        [A0]
fn000008A4:
000008A4  4E56 FFCA                link       A6, -0x0036
000008A8  48E7 0118                movem.l    -[A7], D7,A3,A4
000008AC  4A2D FD97                tst.b      [A5 - 0x269]
000008B0  6708                     beq        +0xA /* 000008BA */
000008B2  2F2D BA82                move.l     -[A7], [A5 - 0x457E]
000008B6  A873                     syscall    SetPort
000008B8  6006                     bra        +0x8 /* 000008C0 */
label000008BA:
000008BA  2F2D B922                move.l     -[A7], [A5 - 0x46DE]
000008BE  A873                     syscall    SetPort
label000008C0:
000008C0  A89E                     syscall    PenNormal
000008C2  302E 0008                move.w     D0, [A6 + 0x8]
000008C6  E940                     asl        D0.w, 4
000008C8  0640 F21C                addi.w     D0, 0xF21C
000008CC  47F5 0000                lea.l      A3, [A5 + D0.w]
000008D0  3E13                     move.w     D7, [A3]
000008D2  41EB 0002                lea.l      A0, [A3 + 0x2]
000008D6  43EE FFE6                lea.l      A1, [A6 - 0x1A]
000008DA  22D8                     move.l     [A1]+, [A0]+
000008DC  22D8                     move.l     [A1]+, [A0]+
000008DE  4A2D FD97                tst.b      [A5 - 0x269]
000008E2  6762                     beq        +0x64 /* 00000946 */
000008E4  486D BAC6                pea.l      [A5 - 0x453A]
000008E8  AA14                     syscall    RGBForeColor
000008EA  486E FFE6                pea.l      [A6 - 0x1A]
000008EE  A8A2                     syscall    PaintRect
000008F0  486E FFE6                pea.l      [A6 - 0x1A]
000008F4  A8A1                     syscall    FrameRect
000008F6  302E FFE8                move.w     D0, [A6 - 0x18]
000008FA  5240                     addq.w     D0, 1
000008FC  3F00                     move.w     -[A7], D0
000008FE  302E FFEA                move.w     D0, [A6 - 0x16]
00000902  5540                     subq.w     D0, 2
00000904  3F00                     move.w     -[A7], D0
00000906  A893                     syscall    MoveTo
00000908  302E FFEC                move.w     D0, [A6 - 0x14]
0000090C  5340                     subq.w     D0, 1
0000090E  3F00                     move.w     -[A7], D0
00000910  302E FFEA                move.w     D0, [A6 - 0x16]
00000914  5540                     subq.w     D0, 2
00000916  3F00                     move.w     -[A7], D0
00000918  A891                     syscall    LineTo
0000091A  486D BA9C                pea.l      [A5 - 0x4564]
0000091E  AA14                     syscall    RGBForeColor
00000920  302E FFE8                move.w     D0, [A6 - 0x18]
00000924  5240                     addq.w     D0, 1
00000926  3F00                     move.w     -[A7], D0
00000928  302E FFE6                move.w     D0, [A6 - 0x1A]
0000092C  5240                     addq.w     D0, 1
0000092E  3F00                     move.w     -[A7], D0
00000930  A893                     syscall    MoveTo
00000932  302E FFEC                move.w     D0, [A6 - 0x14]
00000936  5540                     subq.w     D0, 2
00000938  3F00                     move.w     -[A7], D0
0000093A  302E FFE6                move.w     D0, [A6 - 0x1A]
0000093E  5240                     addq.w     D0, 1
00000940  3F00                     move.w     -[A7], D0
00000942  A891                     syscall    LineTo
00000944  6010                     bra        +0x12 /* 00000956 */
label00000946:
00000946  486E FFE6                pea.l      [A6 - 0x1A]
0000094A  4EBA FA02                jsr        [PC - 0x5FE /* 0000034E */]
0000094E  486E FFE6                pea.l      [A6 - 0x1A]
00000952  4EBA FA86                jsr        [PC - 0x57A /* 000003DA */]
label00000956:
00000956  A89E                     syscall    PenNormal
00000958  594F                     subq.w     A7, 4
0000095A  A8D8                     syscall    NewRgn
0000095C  285F                     movea.l    A4, [A7]+
0000095E  3F2E FFEC                move.w     -[A7], [A6 - 0x14]
00000962  302E FFEA                move.w     D0, [A6 - 0x16]
00000966  5340                     subq.w     D0, 1
00000968  3F00                     move.w     -[A7], D0
0000096A  A893                     syscall    MoveTo
0000096C  A8DA                     syscall    OpenRgn
0000096E  3F3C FFF1                move.w     -[A7], 0xFFF1
00000972  3F3C 000F                move.w     -[A7], 0xF
00000976  A892                     syscall    Line
00000978  302E FFE8                move.w     D0, [A6 - 0x18]
0000097C  0640 FFF1                addi.w     D0, 0xFFF1
00000980  3F00                     move.w     -[A7], D0
00000982  302E FFEA                move.w     D0, [A6 - 0x16]
00000986  0640 000E                addi.w     D0, 0xE
0000098A  3F00                     move.w     -[A7], D0
0000098C  A891                     syscall    LineTo
0000098E  4267                     clr.w      -[A7]
00000990  3F3C FFFB                move.w     -[A7], 0xFFFB
00000994  A892                     syscall    Line
00000996  3F3C 000F                move.w     -[A7], 0xF
0000099A  3F3C FFF1                move.w     -[A7], 0xFFF1
0000099E  A892                     syscall    Line
000009A0  4267                     clr.w      -[A7]
000009A2  3F3C 0005                move.w     -[A7], 0x5
000009A6  A892                     syscall    Line
000009A8  3F2E FFEC                move.w     -[A7], [A6 - 0x14]
000009AC  302E FFEA                move.w     D0, [A6 - 0x16]
000009B0  5340                     subq.w     D0, 1
000009B2  3F00                     move.w     -[A7], D0
000009B4  A891                     syscall    LineTo
000009B6  2F0C                     move.l     -[A7], A4
000009B8  A8DB                     syscall    CloseRgn
000009BA  486D FFB2                pea.l      [A5 - 0x4E]
000009BE  A89D                     syscall    PenPat
000009C0  4A2D FD97                tst.b      [A5 - 0x269]
000009C4  6718                     beq        +0x1A /* 000009DE */
000009C6  486D BA96                pea.l      [A5 - 0x456A]
000009CA  AA14                     syscall    RGBForeColor
000009CC  3F3C 002C                move.w     -[A7], 0x2C /* ',' */
000009D0  A89C                     syscall    PenMode
000009D2  486D FFB2                pea.l      [A5 - 0x4E]
000009D6  A89D                     syscall    PenPat
000009D8  2F0C                     move.l     -[A7], A4
000009DA  A8D3                     syscall    PaintRgn
000009DC  600A                     bra        +0xC /* 000009E8 */
label000009DE:
000009DE  3F3C 0009                move.w     -[A7], 0x9 /* '\t' */
000009E2  A89C                     syscall    PenMode
000009E4  2F0C                     move.l     -[A7], A4
000009E6  A8D3                     syscall    PaintRgn
label000009E8:
000009E8  2F0C                     move.l     -[A7], A4
000009EA  A8D9                     syscall    DisposRgn/DisposeRgn
000009EC  A89E                     syscall    PenNormal
000009EE  3007                     move.w     D0, D7
000009F0  E740                     asl        D0.w, 3
000009F2  0640 FAF2                addi.w     D0, 0xFAF2
000009F6  41F5 0000                lea.l      A0, [A5 + D0.w]
000009FA  43EE FFDE                lea.l      A1, [A6 - 0x22]
000009FE  22D8                     move.l     [A1]+, [A0]+
00000A00  22D8                     move.l     [A1]+, [A0]+
00000A02  486E FFDE                pea.l      [A6 - 0x22]
00000A06  302E FFE0                move.w     D0, [A6 - 0x20]
00000A0A  4440                     neg.w      D0
00000A0C  3F00                     move.w     -[A7], D0
00000A0E  302E FFDE                move.w     D0, [A6 - 0x22]
00000A12  4440                     neg.w      D0
00000A14  3F00                     move.w     -[A7], D0
00000A16  A8A8                     syscall    OffsetRect
00000A18  486E FFDE                pea.l      [A6 - 0x22]
00000A1C  302E FFE8                move.w     D0, [A6 - 0x18]
00000A20  0640 000F                addi.w     D0, 0xF
00000A24  3F00                     move.w     -[A7], D0
00000A26  302E FFEA                move.w     D0, [A6 - 0x16]
00000A2A  5540                     subq.w     D0, 2
00000A2C  3F00                     move.w     -[A7], D0
00000A2E  A8A8                     syscall    OffsetRect
00000A30  4A2D FD97                tst.b      [A5 - 0x269]
00000A34  6738                     beq        +0x3A /* 00000A6E */
00000A36  206D BA86                movea.l    A0, [A5 - 0x457A]
00000A3A  2068 0002                movea.l    A0, [A0 + 0x2]
00000A3E  2F10                     move.l     -[A7], [A0]
00000A40  486D B8E2                pea.l      [A5 - 0x471E]
00000A44  206D BA82                movea.l    A0, [A5 - 0x457E]
00000A48  2068 0002                movea.l    A0, [A0 + 0x2]
00000A4C  2F10                     move.l     -[A7], [A0]
00000A4E  3007                     move.w     D0, D7
00000A50  E740                     asl        D0.w, 3
00000A52  0640 FAF2                addi.w     D0, 0xFAF2
00000A56  4875 0000                pea.l      [A5 + D0.w]
00000A5A  3007                     move.w     D0, D7
00000A5C  E740                     asl        D0.w, 3
00000A5E  0640 FAF2                addi.w     D0, 0xFAF2
00000A62  4875 0000                pea.l      [A5 + D0.w]
00000A66  486E FFDE                pea.l      [A6 - 0x22]
00000A6A  A817                     syscall    CopyMask
00000A6C  602A                     bra        +0x2C /* 00000A98 */
label00000A6E:
00000A6E  486D B90C                pea.l      [A5 - 0x46F4]
00000A72  486D B8E2                pea.l      [A5 - 0x471E]
00000A76  486D B8FE                pea.l      [A5 - 0x4702]
00000A7A  3007                     move.w     D0, D7
00000A7C  E740                     asl        D0.w, 3
00000A7E  0640 FAF2                addi.w     D0, 0xFAF2
00000A82  4875 0000                pea.l      [A5 + D0.w]
00000A86  3007                     move.w     D0, D7
00000A88  E740                     asl        D0.w, 3
00000A8A  0640 FAF2                addi.w     D0, 0xFAF2
00000A8E  4875 0000                pea.l      [A5 + D0.w]
00000A92  486E FFDE                pea.l      [A6 - 0x22]
00000A96  A817                     syscall    CopyMask
label00000A98:
00000A98  3007                     move.w     D0, D7
00000A9A  E740                     asl        D0.w, 3
00000A9C  0640 FAF2                addi.w     D0, 0xFAF2
00000AA0  41F5 0000                lea.l      A0, [A5 + D0.w]
00000AA4  43EE FFDE                lea.l      A1, [A6 - 0x22]
00000AA8  22D8                     move.l     [A1]+, [A0]+
00000AAA  22D8                     move.l     [A1]+, [A0]+
00000AAC  486E FFDE                pea.l      [A6 - 0x22]
00000AB0  302E FFE0                move.w     D0, [A6 - 0x20]
00000AB4  4440                     neg.w      D0
00000AB6  3F00                     move.w     -[A7], D0
00000AB8  302E FFDE                move.w     D0, [A6 - 0x22]
00000ABC  4440                     neg.w      D0
00000ABE  3F00                     move.w     -[A7], D0
00000AC0  A8A8                     syscall    OffsetRect
00000AC2  486E FFDE                pea.l      [A6 - 0x22]
00000AC6  302E FFEC                move.w     D0, [A6 - 0x14]
00000ACA  0640 FFE7                addi.w     D0, 0xFFE7
00000ACE  3F00                     move.w     -[A7], D0
00000AD0  302E FFEA                move.w     D0, [A6 - 0x16]
00000AD4  5540                     subq.w     D0, 2
00000AD6  3F00                     move.w     -[A7], D0
00000AD8  A8A8                     syscall    OffsetRect
00000ADA  4A2D FD97                tst.b      [A5 - 0x269]
00000ADE  6738                     beq        +0x3A /* 00000B18 */
00000AE0  206D BA86                movea.l    A0, [A5 - 0x457A]
00000AE4  2068 0002                movea.l    A0, [A0 + 0x2]
00000AE8  2F10                     move.l     -[A7], [A0]
00000AEA  486D B8E2                pea.l      [A5 - 0x471E]
00000AEE  206D BA82                movea.l    A0, [A5 - 0x457E]
00000AF2  2068 0002                movea.l    A0, [A0 + 0x2]
00000AF6  2F10                     move.l     -[A7], [A0]
00000AF8  3007                     move.w     D0, D7
00000AFA  E740                     asl        D0.w, 3
00000AFC  0640 FAF2                addi.w     D0, 0xFAF2
00000B00  4875 0000                pea.l      [A5 + D0.w]
00000B04  3007                     move.w     D0, D7
00000B06  E740                     asl        D0.w, 3
00000B08  0640 FAF2                addi.w     D0, 0xFAF2
00000B0C  4875 0000                pea.l      [A5 + D0.w]
00000B10  486E FFDE                pea.l      [A6 - 0x22]
00000B14  A817                     syscall    CopyMask
00000B16  602A                     bra        +0x2C /* 00000B42 */
label00000B18:
00000B18  486D B90C                pea.l      [A5 - 0x46F4]
00000B1C  486D B8E2                pea.l      [A5 - 0x471E]
00000B20  486D B8FE                pea.l      [A5 - 0x4702]
00000B24  3007                     move.w     D0, D7
00000B26  E740                     asl        D0.w, 3
00000B28  0640 FAF2                addi.w     D0, 0xFAF2
00000B2C  4875 0000                pea.l      [A5 + D0.w]
00000B30  3007                     move.w     D0, D7
00000B32  E740                     asl        D0.w, 3
00000B34  0640 FAF2                addi.w     D0, 0xFAF2
00000B38  4875 0000                pea.l      [A5 + D0.w]
00000B3C  486E FFDE                pea.l      [A6 - 0x22]
00000B40  A817                     syscall    CopyMask
label00000B42:
00000B42  4CDF 1880                movem.l    D7,A3,A4, [A7]+
00000B46  4E5E                     unlink     A6
00000B48  205F                     movea.l    A0, [A7]+
00000B4A  544F                     addq.w     A7, 2
00000B4C  4ED0                     jmp        [A0]
fn00000B4E:
00000B4E  4E56 FFD8                link       A6, -0x0028
00000B52  2F0C                     move.l     -[A7], A4
00000B54  4A2D FD97                tst.b      [A5 - 0x269]
00000B58  6708                     beq        +0xA /* 00000B62 */
00000B5A  2F2D BA82                move.l     -[A7], [A5 - 0x457E]
00000B5E  A873                     syscall    SetPort
00000B60  6006                     bra        +0x8 /* 00000B68 */
label00000B62:
00000B62  2F2D B922                move.l     -[A7], [A5 - 0x46DE]
00000B66  A873                     syscall    SetPort
label00000B68:
00000B68  A89E                     syscall    PenNormal
00000B6A  302E 0008                move.w     D0, [A6 + 0x8]
00000B6E  E940                     asl        D0.w, 4
00000B70  0640 F21C                addi.w     D0, 0xF21C
00000B74  49F5 0000                lea.l      A4, [A5 + D0.w]
00000B78  41EC 0002                lea.l      A0, [A4 + 0x2]
00000B7C  43EE FFE8                lea.l      A1, [A6 - 0x18]
00000B80  22D8                     move.l     [A1]+, [A0]+
00000B82  22D8                     move.l     [A1]+, [A0]+
00000B84  4A2D FD97                tst.b      [A5 - 0x269]
00000B88  671A                     beq        +0x1C /* 00000BA4 */
00000B8A  486D BAC0                pea.l      [A5 - 0x4540]
00000B8E  486E FFE8                pea.l      [A6 - 0x18]
00000B92  4EBA F77E                jsr        [PC - 0x882 /* 00000312 */]
00000B96  486D BAC6                pea.l      [A5 - 0x453A]
00000B9A  486E FFE8                pea.l      [A6 - 0x18]
00000B9E  4EBA F7D4                jsr        [PC - 0x82C /* 00000374 */]
00000BA2  6010                     bra        +0x12 /* 00000BB4 */
label00000BA4:
00000BA4  486E FFE8                pea.l      [A6 - 0x18]
00000BA8  4EBA F7A4                jsr        [PC - 0x85C /* 0000034E */]
00000BAC  486E FFE8                pea.l      [A6 - 0x18]
00000BB0  4EBA F828                jsr        [PC - 0x7D8 /* 000003DA */]
label00000BB4:
00000BB4  486E FFE8                pea.l      [A6 - 0x18]
00000BB8  3F3C 0003                move.w     -[A7], 0x3
00000BBC  3F3C 0003                move.w     -[A7], 0x3
00000BC0  A8A9                     syscall    InsetRect
00000BC2  486E FFE8                pea.l      [A6 - 0x18]
00000BC6  486D FFC2                pea.l      [A5 - 0x3E]
00000BCA  A8A5                     syscall    FillRect
00000BCC  486E FFE8                pea.l      [A6 - 0x18]
00000BD0  A8A1                     syscall    FrameRect
00000BD2  A89E                     syscall    PenNormal
00000BD4  285F                     movea.l    A4, [A7]+
00000BD6  4E5E                     unlink     A6
00000BD8  205F                     movea.l    A0, [A7]+
00000BDA  544F                     addq.w     A7, 2
00000BDC  4ED0                     jmp        [A0]
fn00000BDE:
00000BDE  4E56 FFA2                link       A6, -0x005E
00000BE2  48E7 0F18                movem.l    -[A7], D4,D5,D6,D7,A3,A4
00000BE6  4A2D FD97                tst.b      [A5 - 0x269]
00000BEA  6708                     beq        +0xA /* 00000BF4 */
00000BEC  2F2D BA82                move.l     -[A7], [A5 - 0x457E]
00000BF0  A873                     syscall    SetPort
00000BF2  6006                     bra        +0x8 /* 00000BFA */
label00000BF4:
00000BF4  2F2D B922                move.l     -[A7], [A5 - 0x46DE]
00000BF8  A873                     syscall    SetPort
label00000BFA:
00000BFA  A89E                     syscall    PenNormal
00000BFC  302E 0008                move.w     D0, [A6 + 0x8]
00000C00  E940                     asl        D0.w, 4
00000C02  0640 F21C                addi.w     D0, 0xF21C
00000C06  47F5 0000                lea.l      A3, [A5 + D0.w]
00000C0A  41EB 0002                lea.l      A0, [A3 + 0x2]
00000C0E  43EE FFE0                lea.l      A1, [A6 - 0x20]
00000C12  22D8                     move.l     [A1]+, [A0]+
00000C14  22D8                     move.l     [A1]+, [A0]+
00000C16  41EE FFE0                lea.l      A0, [A6 - 0x20]
00000C1A  43EE FFD8                lea.l      A1, [A6 - 0x28]
00000C1E  22D8                     move.l     [A1]+, [A0]+
00000C20  22D8                     move.l     [A1]+, [A0]+
00000C22  0C6E 0118 FFE4           cmpi.w     [A6 - 0x1C], 0x118
00000C28  6F00 0168                ble        +0x16A /* 00000D92 */
00000C2C  302E FFDC                move.w     D0, [A6 - 0x24]
00000C30  5B40                     subq.w     D0, 5
00000C32  3D40 FFDC                move.w     [A6 - 0x24], D0
00000C36  4A2D FD97                tst.b      [A5 - 0x269]
00000C3A  670E                     beq        +0x10 /* 00000C4A */
00000C3C  486D BAC0                pea.l      [A5 - 0x4540]
00000C40  486E FFD8                pea.l      [A6 - 0x28]
00000C44  4EBA F6CC                jsr        [PC - 0x934 /* 00000312 */]
00000C48  6008                     bra        +0xA /* 00000C52 */
label00000C4A:
00000C4A  486E FFD8                pea.l      [A6 - 0x28]
00000C4E  4EBA F6FE                jsr        [PC - 0x902 /* 0000034E */]
label00000C52:
00000C52  41EE FFE0                lea.l      A0, [A6 - 0x20]
00000C56  43EE FFD8                lea.l      A1, [A6 - 0x28]
00000C5A  22D8                     move.l     [A1]+, [A0]+
00000C5C  22D8                     move.l     [A1]+, [A0]+
00000C5E  486E FFD8                pea.l      [A6 - 0x28]
00000C62  3F3C 0002                move.w     -[A7], 0x2
00000C66  4267                     clr.w      -[A7]
00000C68  A8A9                     syscall    InsetRect
00000C6A  302E FFDC                move.w     D0, [A6 - 0x24]
00000C6E  5B40                     subq.w     D0, 5
00000C70  3D40 FFD8                move.w     [A6 - 0x28], D0
00000C74  4A2D FD97                tst.b      [A5 - 0x269]
00000C78  670E                     beq        +0x10 /* 00000C88 */
00000C7A  486D BAAE                pea.l      [A5 - 0x4552]
00000C7E  486E FFD8                pea.l      [A6 - 0x28]
00000C82  4EBA F68E                jsr        [PC - 0x972 /* 00000312 */]
00000C86  6010                     bra        +0x12 /* 00000C98 */
label00000C88:
00000C88  486E FFD8                pea.l      [A6 - 0x28]
00000C8C  486D FFA2                pea.l      [A5 - 0x5E]
00000C90  A8A5                     syscall    FillRect
00000C92  486E FFD8                pea.l      [A6 - 0x28]
00000C96  A8A1                     syscall    FrameRect
label00000C98:
00000C98  486E FFD8                pea.l      [A6 - 0x28]
00000C9C  302E FFE2                move.w     D0, [A6 - 0x1E]
00000CA0  5540                     subq.w     D0, 2
00000CA2  3F00                     move.w     -[A7], D0
00000CA4  3F2E FFE0                move.w     -[A7], [A6 - 0x20]
00000CA8  302E FFE6                move.w     D0, [A6 - 0x1A]
00000CAC  5440                     addq.w     D0, 2
00000CAE  3F00                     move.w     -[A7], D0
00000CB0  302E FFE0                move.w     D0, [A6 - 0x20]
00000CB4  5E40                     addq.w     D0, 7
00000CB6  3F00                     move.w     -[A7], D0
00000CB8  A8A7                     syscall    SetRect
00000CBA  4A2D FD97                tst.b      [A5 - 0x269]
00000CBE  670E                     beq        +0x10 /* 00000CCE */
00000CC0  486D BAC6                pea.l      [A5 - 0x453A]
00000CC4  486E FFD8                pea.l      [A6 - 0x28]
00000CC8  4EBA F648                jsr        [PC - 0x9B8 /* 00000312 */]
00000CCC  6010                     bra        +0x12 /* 00000CDE */
label00000CCE:
00000CCE  486E FFD8                pea.l      [A6 - 0x28]
00000CD2  486D FFAA                pea.l      [A5 - 0x56]
00000CD6  A8A5                     syscall    FillRect
00000CD8  486E FFD8                pea.l      [A6 - 0x28]
00000CDC  A8A1                     syscall    FrameRect
label00000CDE:
00000CDE  302E FFDA                move.w     D0, [A6 - 0x26]
00000CE2  5440                     addq.w     D0, 2
00000CE4  3F00                     move.w     -[A7], D0
00000CE6  3F2E FFDC                move.w     -[A7], [A6 - 0x24]
00000CEA  A893                     syscall    MoveTo
00000CEC  302E FFDE                move.w     D0, [A6 - 0x22]
00000CF0  5740                     subq.w     D0, 3
00000CF2  3F00                     move.w     -[A7], D0
00000CF4  3F2E FFDC                move.w     -[A7], [A6 - 0x24]
00000CF8  A891                     syscall    LineTo
00000CFA  594F                     subq.w     A7, 4
00000CFC  A8D8                     syscall    NewRgn
00000CFE  285F                     movea.l    A4, [A7]+
00000D00  3F2E FFE2                move.w     -[A7], [A6 - 0x1E]
00000D04  302E FFE0                move.w     D0, [A6 - 0x20]
00000D08  5A40                     addq.w     D0, 5
00000D0A  3F00                     move.w     -[A7], D0
00000D0C  A893                     syscall    MoveTo
00000D0E  A8DA                     syscall    OpenRgn
00000D10  3F3C FFF1                move.w     -[A7], 0xFFF1
00000D14  3F3C 000F                move.w     -[A7], 0xF
00000D18  A892                     syscall    Line
00000D1A  302E FFE2                move.w     D0, [A6 - 0x1E]
00000D1E  0640 FFF1                addi.w     D0, 0xFFF1
00000D22  3F00                     move.w     -[A7], D0
00000D24  302E FFE4                move.w     D0, [A6 - 0x1C]
00000D28  0640 FFF6                addi.w     D0, 0xFFF6
00000D2C  3F00                     move.w     -[A7], D0
00000D2E  A891                     syscall    LineTo
00000D30  3F2E FFE2                move.w     -[A7], [A6 - 0x1E]
00000D34  3F2E FFE4                move.w     -[A7], [A6 - 0x1C]
00000D38  A891                     syscall    LineTo
00000D3A  3F2E FFE2                move.w     -[A7], [A6 - 0x1E]
00000D3E  302E FFE0                move.w     D0, [A6 - 0x20]
00000D42  5A40                     addq.w     D0, 5
00000D44  3F00                     move.w     -[A7], D0
00000D46  A891                     syscall    LineTo
00000D48  2F0C                     move.l     -[A7], A4
00000D4A  A8DB                     syscall    CloseRgn
00000D4C  2F0C                     move.l     -[A7], A4
00000D4E  4EAD 0052                jsr        [A5 + 0x52 /* export_6, CODE:1 @ 000002A8 */]
00000D52  4A2D FD97                tst.b      [A5 - 0x269]
00000D56  6718                     beq        +0x1A /* 00000D70 */
00000D58  486D BA96                pea.l      [A5 - 0x456A]
00000D5C  AA14                     syscall    RGBForeColor
00000D5E  3F3C 002C                move.w     -[A7], 0x2C /* ',' */
00000D62  A89C                     syscall    PenMode
00000D64  486D FFB2                pea.l      [A5 - 0x4E]
00000D68  A89D                     syscall    PenPat
00000D6A  2F0C                     move.l     -[A7], A4
00000D6C  A8D3                     syscall    PaintRgn
00000D6E  6010                     bra        +0x12 /* 00000D80 */
label00000D70:
00000D70  3F3C 0009                move.w     -[A7], 0x9 /* '\t' */
00000D74  A89C                     syscall    PenMode
00000D76  486D FFB2                pea.l      [A5 - 0x4E]
00000D7A  A89D                     syscall    PenPat
00000D7C  2F0C                     move.l     -[A7], A4
00000D7E  A8D3                     syscall    PaintRgn
label00000D80:
00000D80  2F0C                     move.l     -[A7], A4
00000D82  4EAD 005A                jsr        [A5 + 0x5A /* export_7, CODE:1 @ 000002B2 */]
00000D86  2F0C                     move.l     -[A7], A4
00000D88  A8D9                     syscall    DisposRgn/DisposeRgn
00000D8A  A89E                     syscall    PenNormal
00000D8C  7E05                     moveq.l    D7, 0x05
00000D8E  6000 00C4                bra        +0xC6 /* 00000E54 */
label00000D92:
00000D92  4A2D FD97                tst.b      [A5 - 0x269]
00000D96  670E                     beq        +0x10 /* 00000DA6 */
00000D98  486D BAC0                pea.l      [A5 - 0x4540]
00000D9C  486E FFE0                pea.l      [A6 - 0x20]
00000DA0  4EBA F570                jsr        [PC - 0xA90 /* 00000312 */]
00000DA4  6008                     bra        +0xA /* 00000DAE */
label00000DA6:
00000DA6  486E FFE0                pea.l      [A6 - 0x20]
00000DAA  4EBA F5A2                jsr        [PC - 0xA5E /* 0000034E */]
label00000DAE:
00000DAE  594F                     subq.w     A7, 4
00000DB0  A8D8                     syscall    NewRgn
00000DB2  285F                     movea.l    A4, [A7]+
00000DB4  3F2E FFE2                move.w     -[A7], [A6 - 0x1E]
00000DB8  3F2E FFE0                move.w     -[A7], [A6 - 0x20]
00000DBC  A893                     syscall    MoveTo
00000DBE  A8DA                     syscall    OpenRgn
00000DC0  3F3C FFF1                move.w     -[A7], 0xFFF1
00000DC4  3F3C 000F                move.w     -[A7], 0xF
00000DC8  A892                     syscall    Line
00000DCA  302E FFE2                move.w     D0, [A6 - 0x1E]
00000DCE  0640 FFF1                addi.w     D0, 0xFFF1
00000DD2  3F00                     move.w     -[A7], D0
00000DD4  302E FFE4                move.w     D0, [A6 - 0x1C]
00000DD8  0640 000F                addi.w     D0, 0xF
00000DDC  3F00                     move.w     -[A7], D0
00000DDE  A891                     syscall    LineTo
00000DE0  302E FFE6                move.w     D0, [A6 - 0x1A]
00000DE4  0640 FFF1                addi.w     D0, 0xFFF1
00000DE8  3F00                     move.w     -[A7], D0
00000DEA  302E FFE4                move.w     D0, [A6 - 0x1C]
00000DEE  0640 000F                addi.w     D0, 0xF
00000DF2  3F00                     move.w     -[A7], D0
00000DF4  A891                     syscall    LineTo
00000DF6  3F3C 000F                move.w     -[A7], 0xF
00000DFA  3F3C FFF1                move.w     -[A7], 0xFFF1
00000DFE  A892                     syscall    Line
00000E00  3F2E FFE2                move.w     -[A7], [A6 - 0x1E]
00000E04  3F2E FFE4                move.w     -[A7], [A6 - 0x1C]
00000E08  A891                     syscall    LineTo
00000E0A  3F2E FFE2                move.w     -[A7], [A6 - 0x1E]
00000E0E  3F2E FFE0                move.w     -[A7], [A6 - 0x20]
00000E12  A891                     syscall    LineTo
00000E14  2F0C                     move.l     -[A7], A4
00000E16  A8DB                     syscall    CloseRgn
00000E18  2F0C                     move.l     -[A7], A4
00000E1A  4EAD 0052                jsr        [A5 + 0x52 /* export_6, CODE:1 @ 000002A8 */]
00000E1E  4A2D FD97                tst.b      [A5 - 0x269]
00000E22  6712                     beq        +0x14 /* 00000E36 */
00000E24  3F3C 0024                move.w     -[A7], 0x24 /* '$' */
00000E28  A89C                     syscall    PenMode
00000E2A  486D FFB2                pea.l      [A5 - 0x4E]
00000E2E  A89D                     syscall    PenPat
00000E30  2F0C                     move.l     -[A7], A4
00000E32  A8D3                     syscall    PaintRgn
00000E34  6010                     bra        +0x12 /* 00000E46 */
label00000E36:
00000E36  3F3C 0009                move.w     -[A7], 0x9 /* '\t' */
00000E3A  A89C                     syscall    PenMode
00000E3C  486D FFB2                pea.l      [A5 - 0x4E]
00000E40  A89D                     syscall    PenPat
00000E42  2F0C                     move.l     -[A7], A4
00000E44  A8D3                     syscall    PaintRgn
label00000E46:
00000E46  2F0C                     move.l     -[A7], A4
00000E48  4EAD 005A                jsr        [A5 + 0x5A /* export_7, CODE:1 @ 000002B2 */]
00000E4C  2F0C                     move.l     -[A7], A4
00000E4E  A8D9                     syscall    DisposRgn/DisposeRgn
00000E50  A89E                     syscall    PenNormal
00000E52  4247                     clr.w      D7
label00000E54:
00000E54  3C2E FFE6                move.w     D6, [A6 - 0x1A]
00000E58  9C6E FFE2                sub.w      D6, [A6 - 0x1E]
00000E5C  48C6                     ext.l      D6
00000E5E  8DFC 0030                divs.w     D6, 0x30 /* '0' */
00000E62  4A46                     tst.w      D6
00000E64  6600 00FE                bne        +0x100 /* 00000F64 */
00000E68  41EE FFE0                lea.l      A0, [A6 - 0x20]
00000E6C  43EE FFD8                lea.l      A1, [A6 - 0x28]
00000E70  22D8                     move.l     [A1]+, [A0]+
00000E72  22D8                     move.l     [A1]+, [A0]+
00000E74  486E FFD8                pea.l      [A6 - 0x28]
00000E78  3F3C 0005                move.w     -[A7], 0x5
00000E7C  3007                     move.w     D0, D7
00000E7E  5A40                     addq.w     D0, 5
00000E80  3F00                     move.w     -[A7], D0
00000E82  A8A9                     syscall    InsetRect
00000E84  486E FFD8                pea.l      [A6 - 0x28]
00000E88  A8A1                     syscall    FrameRect
00000E8A  4A2D FD97                tst.b      [A5 - 0x269]
00000E8E  676A                     beq        +0x6C /* 00000EFA */
00000E90  486D BAC6                pea.l      [A5 - 0x453A]
00000E94  AA14                     syscall    RGBForeColor
00000E96  302E FFDA                move.w     D0, [A6 - 0x26]
00000E9A  5640                     addq.w     D0, 3
00000E9C  3F00                     move.w     -[A7], D0
00000E9E  302E FFD8                move.w     D0, [A6 - 0x28]
00000EA2  5640                     addq.w     D0, 3
00000EA4  3F00                     move.w     -[A7], D0
00000EA6  A893                     syscall    MoveTo
00000EA8  302E FFDA                move.w     D0, [A6 - 0x26]
00000EAC  5640                     addq.w     D0, 3
00000EAE  3F00                     move.w     -[A7], D0
00000EB0  302E FFDC                move.w     D0, [A6 - 0x24]
00000EB4  5940                     subq.w     D0, 4
00000EB6  3F00                     move.w     -[A7], D0
00000EB8  A891                     syscall    LineTo
00000EBA  302E FFDE                move.w     D0, [A6 - 0x22]
00000EBE  5940                     subq.w     D0, 4
00000EC0  3F00                     move.w     -[A7], D0
00000EC2  302E FFDC                move.w     D0, [A6 - 0x24]
00000EC6  5940                     subq.w     D0, 4
00000EC8  3F00                     move.w     -[A7], D0
00000ECA  A891                     syscall    LineTo
00000ECC  486D BA96                pea.l      [A5 - 0x456A]
00000ED0  AA14                     syscall    RGBForeColor
00000ED2  302E FFDE                move.w     D0, [A6 - 0x22]
00000ED6  5940                     subq.w     D0, 4
00000ED8  3F00                     move.w     -[A7], D0
00000EDA  302E FFD8                move.w     D0, [A6 - 0x28]
00000EDE  5640                     addq.w     D0, 3
00000EE0  3F00                     move.w     -[A7], D0
00000EE2  A891                     syscall    LineTo
00000EE4  302E FFDA                move.w     D0, [A6 - 0x26]
00000EE8  5640                     addq.w     D0, 3
00000EEA  3F00                     move.w     -[A7], D0
00000EEC  302E FFD8                move.w     D0, [A6 - 0x28]
00000EF0  5640                     addq.w     D0, 3
00000EF2  3F00                     move.w     -[A7], D0
00000EF4  A891                     syscall    LineTo
00000EF6  6000 01AC                bra        +0x1AE /* 000010A4 */
label00000EFA:
00000EFA  486D FFC2                pea.l      [A5 - 0x3E]
00000EFE  A89D                     syscall    PenPat
00000F00  302E FFDA                move.w     D0, [A6 - 0x26]
00000F04  5640                     addq.w     D0, 3
00000F06  3F00                     move.w     -[A7], D0
00000F08  302E FFD8                move.w     D0, [A6 - 0x28]
00000F0C  5640                     addq.w     D0, 3
00000F0E  3F00                     move.w     -[A7], D0
00000F10  A893                     syscall    MoveTo
00000F12  302E FFDA                move.w     D0, [A6 - 0x26]
00000F16  5640                     addq.w     D0, 3
00000F18  3F00                     move.w     -[A7], D0
00000F1A  302E FFDC                move.w     D0, [A6 - 0x24]
00000F1E  5940                     subq.w     D0, 4
00000F20  3F00                     move.w     -[A7], D0
00000F22  A891                     syscall    LineTo
00000F24  302E FFDE                move.w     D0, [A6 - 0x22]
00000F28  5940                     subq.w     D0, 4
00000F2A  3F00                     move.w     -[A7], D0
00000F2C  302E FFDC                move.w     D0, [A6 - 0x24]
00000F30  5940                     subq.w     D0, 4
00000F32  3F00                     move.w     -[A7], D0
00000F34  A891                     syscall    LineTo
00000F36  486D FFBA                pea.l      [A5 - 0x46]
00000F3A  A89D                     syscall    PenPat
00000F3C  302E FFDE                move.w     D0, [A6 - 0x22]
00000F40  5940                     subq.w     D0, 4
00000F42  3F00                     move.w     -[A7], D0
00000F44  302E FFD8                move.w     D0, [A6 - 0x28]
00000F48  5640                     addq.w     D0, 3
00000F4A  3F00                     move.w     -[A7], D0
00000F4C  A891                     syscall    LineTo
00000F4E  302E FFDA                move.w     D0, [A6 - 0x26]
00000F52  5640                     addq.w     D0, 3
00000F54  3F00                     move.w     -[A7], D0
00000F56  302E FFD8                move.w     D0, [A6 - 0x28]
00000F5A  5640                     addq.w     D0, 3
00000F5C  3F00                     move.w     -[A7], D0
00000F5E  A891                     syscall    LineTo
00000F60  6000 0142                bra        +0x144 /* 000010A4 */
label00000F64:
00000F64  382E FFE6                move.w     D4, [A6 - 0x1A]
00000F68  986E FFE2                sub.w      D4, [A6 - 0x1E]
00000F6C  3006                     move.w     D0, D6
00000F6E  5240                     addq.w     D0, 1
00000F70  C1FC 0005                muls.w     D0, 0x5
00000F74  9840                     sub.w      D4, D0
00000F76  48C4                     ext.l      D4
00000F78  89C6                     divs.w     D4, D6
00000F7A  486E FFD8                pea.l      [A6 - 0x28]
00000F7E  302E FFE2                move.w     D0, [A6 - 0x1E]
00000F82  5A40                     addq.w     D0, 5
00000F84  3F00                     move.w     -[A7], D0
00000F86  302E FFE0                move.w     D0, [A6 - 0x20]
00000F8A  5A40                     addq.w     D0, 5
00000F8C  D047                     add.w      D0, D7
00000F8E  3F00                     move.w     -[A7], D0
00000F90  302E FFE2                move.w     D0, [A6 - 0x1E]
00000F94  5A40                     addq.w     D0, 5
00000F96  D044                     add.w      D0, D4
00000F98  3F00                     move.w     -[A7], D0
00000F9A  302E FFE4                move.w     D0, [A6 - 0x1C]
00000F9E  5B40                     subq.w     D0, 5
00000FA0  9047                     sub.w      D0, D7
00000FA2  3F00                     move.w     -[A7], D0
00000FA4  A8A7                     syscall    SetRect
00000FA6  3D46 FFA2                move.w     [A6 - 0x5E], D6
00000FAA  7A01                     moveq.l    D5, 0x01
00000FAC  6000 00EE                bra        +0xF0 /* 0000109C */
label00000FB0:
00000FB0  4A2D FD97                tst.b      [A5 - 0x269]
00000FB4  6768                     beq        +0x6A /* 0000101E */
00000FB6  486D BAC6                pea.l      [A5 - 0x453A]
00000FBA  AA14                     syscall    RGBForeColor
00000FBC  302E FFDA                move.w     D0, [A6 - 0x26]
00000FC0  5640                     addq.w     D0, 3
00000FC2  3F00                     move.w     -[A7], D0
00000FC4  302E FFD8                move.w     D0, [A6 - 0x28]
00000FC8  5640                     addq.w     D0, 3
00000FCA  3F00                     move.w     -[A7], D0
00000FCC  A893                     syscall    MoveTo
00000FCE  302E FFDA                move.w     D0, [A6 - 0x26]
00000FD2  5640                     addq.w     D0, 3
00000FD4  3F00                     move.w     -[A7], D0
00000FD6  302E FFDC                move.w     D0, [A6 - 0x24]
00000FDA  5940                     subq.w     D0, 4
00000FDC  3F00                     move.w     -[A7], D0
00000FDE  A891                     syscall    LineTo
00000FE0  302E FFDE                move.w     D0, [A6 - 0x22]
00000FE4  5940                     subq.w     D0, 4
00000FE6  3F00                     move.w     -[A7], D0
00000FE8  302E FFDC                move.w     D0, [A6 - 0x24]
00000FEC  5940                     subq.w     D0, 4
00000FEE  3F00                     move.w     -[A7], D0
00000FF0  A891                     syscall    LineTo
00000FF2  486D BA96                pea.l      [A5 - 0x456A]
00000FF6  AA14                     syscall    RGBForeColor
00000FF8  302E FFDE                move.w     D0, [A6 - 0x22]
00000FFC  5940                     subq.w     D0, 4
00000FFE  3F00                     move.w     -[A7], D0
00001000  302E FFD8                move.w     D0, [A6 - 0x28]
00001004  5640                     addq.w     D0, 3
00001006  3F00                     move.w     -[A7], D0
00001008  A891                     syscall    LineTo
0000100A  302E FFDA                move.w     D0, [A6 - 0x26]
0000100E  5640                     addq.w     D0, 3
00001010  3F00                     move.w     -[A7], D0
00001012  302E FFD8                move.w     D0, [A6 - 0x28]
00001016  5640                     addq.w     D0, 3
00001018  3F00                     move.w     -[A7], D0
0000101A  A891                     syscall    LineTo
0000101C  606C                     bra        +0x6E /* 0000108A */
label0000101E:
0000101E  486E FFD8                pea.l      [A6 - 0x28]
00001022  A8A1                     syscall    FrameRect
00001024  486D FFC2                pea.l      [A5 - 0x3E]
00001028  A89D                     syscall    PenPat
0000102A  302E FFDA                move.w     D0, [A6 - 0x26]
0000102E  5640                     addq.w     D0, 3
00001030  3F00                     move.w     -[A7], D0
00001032  302E FFD8                move.w     D0, [A6 - 0x28]
00001036  5640                     addq.w     D0, 3
00001038  3F00                     move.w     -[A7], D0
0000103A  A893                     syscall    MoveTo
0000103C  302E FFDA                move.w     D0, [A6 - 0x26]
00001040  5640                     addq.w     D0, 3
00001042  3F00                     move.w     -[A7], D0
00001044  302E FFDC                move.w     D0, [A6 - 0x24]
00001048  5940                     subq.w     D0, 4
0000104A  3F00                     move.w     -[A7], D0
0000104C  A891                     syscall    LineTo
0000104E  302E FFDE                move.w     D0, [A6 - 0x22]
00001052  5940                     subq.w     D0, 4
00001054  3F00                     move.w     -[A7], D0
00001056  302E FFDC                move.w     D0, [A6 - 0x24]
0000105A  5940                     subq.w     D0, 4
0000105C  3F00                     move.w     -[A7], D0
0000105E  A891                     syscall    LineTo
00001060  486D FFBA                pea.l      [A5 - 0x46]
00001064  A89D                     syscall    PenPat
00001066  302E FFDE                move.w     D0, [A6 - 0x22]
0000106A  5940                     subq.w     D0, 4
0000106C  3F00                     move.w     -[A7], D0
0000106E  302E FFD8                move.w     D0, [A6 - 0x28]
00001072  5640                     addq.w     D0, 3
00001074  3F00                     move.w     -[A7], D0
00001076  A891                     syscall    LineTo
00001078  302E FFDA                move.w     D0, [A6 - 0x26]
0000107C  5640                     addq.w     D0, 3
0000107E  3F00                     move.w     -[A7], D0
00001080  302E FFD8                move.w     D0, [A6 - 0x28]
00001084  5640                     addq.w     D0, 3
00001086  3F00                     move.w     -[A7], D0
00001088  A891                     syscall    LineTo
label0000108A:
0000108A  486E FFD8                pea.l      [A6 - 0x28]
0000108E  3004                     move.w     D0, D4
00001090  5A40                     addq.w     D0, 5
00001092  3F00                     move.w     -[A7], D0
00001094  4267                     clr.w      -[A7]
00001096  A8A8                     syscall    OffsetRect
00001098  5245                     addq.w     D5, 1
0000109A  6908                     bvs        +0xA /* 000010A4 */
label0000109C:
0000109C  BA6E FFA2                cmp.w      D5, [A6 - 0x5E]
000010A0  6F00 FF0E                ble        -0xF0 /* 00000FB0 */
label000010A4:
000010A4  A89E                     syscall    PenNormal
000010A6  4CDF 18F0                movem.l    D4,D5,D6,D7,A3,A4, [A7]+
000010AA  4E5E                     unlink     A6
000010AC  205F                     movea.l    A0, [A7]+
000010AE  544F                     addq.w     A7, 2
000010B0  4ED0                     jmp        [A0]
fn000010B2:
000010B2  4E56 FEDE                link       A6, -0x0122
000010B6  48E7 0108                movem.l    -[A7], D7,A4
000010BA  4A2D FD97                tst.b      [A5 - 0x269]
000010BE  6708                     beq        +0xA /* 000010C8 */
000010C0  2F2D BA82                move.l     -[A7], [A5 - 0x457E]
000010C4  A873                     syscall    SetPort
000010C6  6006                     bra        +0x8 /* 000010CE */
label000010C8:
000010C8  2F2D B922                move.l     -[A7], [A5 - 0x46DE]
000010CC  A873                     syscall    SetPort
label000010CE:
000010CE  A89E                     syscall    PenNormal
000010D0  302E 000A                move.w     D0, [A6 + 0xA]
000010D4  E940                     asl        D0.w, 4
000010D6  0640 F21C                addi.w     D0, 0xF21C
000010DA  49F5 0000                lea.l      A4, [A5 + D0.w]
000010DE  3E2C 000A                move.w     D7, [A4 + 0xA]
000010E2  41EC 0002                lea.l      A0, [A4 + 0x2]
000010E6  43EE FEE8                lea.l      A1, [A6 - 0x118]
000010EA  22D8                     move.l     [A1]+, [A0]+
000010EC  22D8                     move.l     [A1]+, [A0]+
000010EE  486D FFB2                pea.l      [A5 - 0x4E]
000010F2  A89D                     syscall    PenPat
000010F4  486E FEE8                pea.l      [A6 - 0x118]
000010F8  A8A1                     syscall    FrameRect
000010FA  A89E                     syscall    PenNormal
000010FC  4A2E 0008                tst.b      [A6 + 0x8]
00001100  672E                     beq        +0x30 /* 00001130 */
00001102  3F3C 0001                move.w     -[A7], 0x1
00001106  A89C                     syscall    PenMode
00001108  302E FEEA                move.w     D0, [A6 - 0x116]
0000110C  5440                     addq.w     D0, 2
0000110E  3F00                     move.w     -[A7], D0
00001110  302E FEEC                move.w     D0, [A6 - 0x114]
00001114  5540                     subq.w     D0, 2
00001116  3F00                     move.w     -[A7], D0
00001118  A893                     syscall    MoveTo
0000111A  3007                     move.w     D0, D7
0000111C  48C0                     ext.l      D0
0000111E  2F00                     move.l     -[A7], D0
00001120  486E FEF0                pea.l      [A6 - 0x110]
00001124  4EAD 0122                jsr        [A5 + 0x122 /* export_32, CODE:1 @ 0000079C */]
00001128  486E FEF0                pea.l      [A6 - 0x110]
0000112C  A884                     syscall    DrawString
0000112E  A89E                     syscall    PenNormal
label00001130:
00001130  4CDF 1080                movem.l    D7,A4, [A7]+
00001134  4E5E                     unlink     A6
00001136  2E9F                     move.l     [A7], [A7]+
00001138  4E75                     rts
fn0000113A:
0000113A  4E56 FFB8                link       A6, -0x0048
0000113E  48E7 0318                movem.l    -[A7], D6,D7,A3,A4
00001142  4A2D FD97                tst.b      [A5 - 0x269]
00001146  6708                     beq        +0xA /* 00001150 */
00001148  2F2D BA82                move.l     -[A7], [A5 - 0x457E]
0000114C  A873                     syscall    SetPort
0000114E  6006                     bra        +0x8 /* 00001156 */
label00001150:
00001150  2F2D B922                move.l     -[A7], [A5 - 0x46DE]
00001154  A873                     syscall    SetPort
label00001156:
00001156  A89E                     syscall    PenNormal
00001158  302E 0008                move.w     D0, [A6 + 0x8]
0000115C  E940                     asl        D0.w, 4
0000115E  0640 F21C                addi.w     D0, 0xF21C
00001162  49F5 0000                lea.l      A4, [A5 + D0.w]
00001166  3C14                     move.w     D6, [A4]
00001168  41EC 0002                lea.l      A0, [A4 + 0x2]
0000116C  43EE FFE8                lea.l      A1, [A6 - 0x18]
00001170  22D8                     move.l     [A1]+, [A0]+
00001172  22D8                     move.l     [A1]+, [A0]+
00001174  1E2C 000E                move.b     D7, [A4 + 0xE]
00001178  594F                     subq.w     A7, 4
0000117A  A8D8                     syscall    NewRgn
0000117C  265F                     movea.l    A3, [A7]+
0000117E  3F2E FFEA                move.w     -[A7], [A6 - 0x16]
00001182  3F2E FFE8                move.w     -[A7], [A6 - 0x18]
00001186  A893                     syscall    MoveTo
00001188  A8DA                     syscall    OpenRgn
0000118A  3F3C FFF6                move.w     -[A7], 0xFFF6
0000118E  3F3C 000A                move.w     -[A7], 0xA /* '\n' */
00001192  A892                     syscall    Line
00001194  4267                     clr.w      -[A7]
00001196  3F3C 0005                move.w     -[A7], 0x5
0000119A  A892                     syscall    Line
0000119C  3F3C 0005                move.w     -[A7], 0x5
000011A0  3F3C 0005                move.w     -[A7], 0x5
000011A4  A892                     syscall    Line
000011A6  302E FFEA                move.w     D0, [A6 - 0x16]
000011AA  5B40                     subq.w     D0, 5
000011AC  3F00                     move.w     -[A7], D0
000011AE  302E FFEC                move.w     D0, [A6 - 0x14]
000011B2  0640 FFF6                addi.w     D0, 0xFFF6
000011B6  3F00                     move.w     -[A7], D0
000011B8  A891                     syscall    LineTo
000011BA  3F3C FFFB                move.w     -[A7], 0xFFFB
000011BE  3F3C 0005                move.w     -[A7], 0x5
000011C2  A892                     syscall    Line
000011C4  4267                     clr.w      -[A7]
000011C6  3F3C 0005                move.w     -[A7], 0x5
000011CA  A892                     syscall    Line
000011CC  3F3C 0005                move.w     -[A7], 0x5
000011D0  3F3C 0005                move.w     -[A7], 0x5
000011D4  A892                     syscall    Line
000011D6  302E FFEE                move.w     D0, [A6 - 0x12]
000011DA  5B40                     subq.w     D0, 5
000011DC  3F00                     move.w     -[A7], D0
000011DE  302E FFEC                move.w     D0, [A6 - 0x14]
000011E2  5A40                     addq.w     D0, 5
000011E4  3F00                     move.w     -[A7], D0
000011E6  A891                     syscall    LineTo
000011E8  3F2E FFEE                move.w     -[A7], [A6 - 0x12]
000011EC  3F2E FFEC                move.w     -[A7], [A6 - 0x14]
000011F0  A891                     syscall    LineTo
000011F2  3F2E FFEA                move.w     -[A7], [A6 - 0x16]
000011F6  3F2E FFEC                move.w     -[A7], [A6 - 0x14]
000011FA  A891                     syscall    LineTo
000011FC  3F2E FFEA                move.w     -[A7], [A6 - 0x16]
00001200  3F2E FFE8                move.w     -[A7], [A6 - 0x18]
00001204  A891                     syscall    LineTo
00001206  2F0B                     move.l     -[A7], A3
00001208  A8DB                     syscall    CloseRgn
0000120A  486D FFB2                pea.l      [A5 - 0x4E]
0000120E  A89D                     syscall    PenPat
00001210  4A2D FD97                tst.b      [A5 - 0x269]
00001214  6718                     beq        +0x1A /* 0000122E */
00001216  486D BA96                pea.l      [A5 - 0x456A]
0000121A  AA14                     syscall    RGBForeColor
0000121C  3F3C 002C                move.w     -[A7], 0x2C /* ',' */
00001220  A89C                     syscall    PenMode
00001222  486D FFB2                pea.l      [A5 - 0x4E]
00001226  A89D                     syscall    PenPat
00001228  2F0B                     move.l     -[A7], A3
0000122A  A8D3                     syscall    PaintRgn
0000122C  600A                     bra        +0xC /* 00001238 */
label0000122E:
0000122E  3F3C 0009                move.w     -[A7], 0x9 /* '\t' */
00001232  A89C                     syscall    PenMode
00001234  2F0B                     move.l     -[A7], A3
00001236  A8D3                     syscall    PaintRgn
label00001238:
00001238  2F0B                     move.l     -[A7], A3
0000123A  A8D9                     syscall    DisposRgn/DisposeRgn
0000123C  A89E                     syscall    PenNormal
0000123E  4A2D FD97                tst.b      [A5 - 0x269]
00001242  6700 02A2                beq        +0x2A4 /* 000014E6 */
00001246  486D BAC0                pea.l      [A5 - 0x4540]
0000124A  486E FFE8                pea.l      [A6 - 0x18]
0000124E  4EBA F0C2                jsr        [PC - 0xF3E /* 00000312 */]
00001252  486D BAC6                pea.l      [A5 - 0x453A]
00001256  486E FFE8                pea.l      [A6 - 0x18]
0000125A  4EBA F118                jsr        [PC - 0xEE8 /* 00000374 */]
0000125E  486E FFE0                pea.l      [A6 - 0x20]
00001262  302E FFEA                move.w     D0, [A6 - 0x16]
00001266  5940                     subq.w     D0, 4
00001268  3F00                     move.w     -[A7], D0
0000126A  3F2E FFE8                move.w     -[A7], [A6 - 0x18]
0000126E  302E FFEE                move.w     D0, [A6 - 0x12]
00001272  5840                     addq.w     D0, 4
00001274  3F00                     move.w     -[A7], D0
00001276  302E FFE8                move.w     D0, [A6 - 0x18]
0000127A  5C40                     addq.w     D0, 6
0000127C  3F00                     move.w     -[A7], D0
0000127E  A8A7                     syscall    SetRect
00001280  486D BAC0                pea.l      [A5 - 0x4540]
00001284  486E FFE0                pea.l      [A6 - 0x20]
00001288  4EBA F088                jsr        [PC - 0xF78 /* 00000312 */]
0000128C  486D BAC6                pea.l      [A5 - 0x453A]
00001290  486E FFE0                pea.l      [A6 - 0x20]
00001294  4EBA F0DE                jsr        [PC - 0xF22 /* 00000374 */]
00001298  486E FFE0                pea.l      [A6 - 0x20]
0000129C  302E FFEA                move.w     D0, [A6 - 0x16]
000012A0  5540                     subq.w     D0, 2
000012A2  3F00                     move.w     -[A7], D0
000012A4  302E FFE8                move.w     D0, [A6 - 0x18]
000012A8  5C40                     addq.w     D0, 6
000012AA  3F00                     move.w     -[A7], D0
000012AC  302E FFEE                move.w     D0, [A6 - 0x12]
000012B0  5440                     addq.w     D0, 2
000012B2  3F00                     move.w     -[A7], D0
000012B4  302E FFE8                move.w     D0, [A6 - 0x18]
000012B8  0640 000A                addi.w     D0, 0xA /* '\n' */
000012BC  3F00                     move.w     -[A7], D0
000012BE  A8A7                     syscall    SetRect
000012C0  486D BAC0                pea.l      [A5 - 0x4540]
000012C4  486E FFE0                pea.l      [A6 - 0x20]
000012C8  4EBA F048                jsr        [PC - 0xFB8 /* 00000312 */]
000012CC  486E FFE0                pea.l      [A6 - 0x20]
000012D0  302E FFEA                move.w     D0, [A6 - 0x16]
000012D4  5940                     subq.w     D0, 4
000012D6  3F00                     move.w     -[A7], D0
000012D8  302E FFEC                move.w     D0, [A6 - 0x14]
000012DC  5D40                     subq.w     D0, 6
000012DE  3F00                     move.w     -[A7], D0
000012E0  302E FFEE                move.w     D0, [A6 - 0x12]
000012E4  5840                     addq.w     D0, 4
000012E6  3F00                     move.w     -[A7], D0
000012E8  3F2E FFEC                move.w     -[A7], [A6 - 0x14]
000012EC  A8A7                     syscall    SetRect
000012EE  486D BAC0                pea.l      [A5 - 0x4540]
000012F2  486E FFE0                pea.l      [A6 - 0x20]
000012F6  4EBA F01A                jsr        [PC - 0xFE6 /* 00000312 */]
000012FA  486D BAC6                pea.l      [A5 - 0x453A]
000012FE  486E FFE0                pea.l      [A6 - 0x20]
00001302  4EBA F070                jsr        [PC - 0xF90 /* 00000374 */]
00001306  486E FFE0                pea.l      [A6 - 0x20]
0000130A  302E FFEA                move.w     D0, [A6 - 0x16]
0000130E  5540                     subq.w     D0, 2
00001310  3F00                     move.w     -[A7], D0
00001312  302E FFEC                move.w     D0, [A6 - 0x14]
00001316  0640 FFF6                addi.w     D0, 0xFFF6
0000131A  3F00                     move.w     -[A7], D0
0000131C  302E FFEE                move.w     D0, [A6 - 0x12]
00001320  5440                     addq.w     D0, 2
00001322  3F00                     move.w     -[A7], D0
00001324  302E FFEC                move.w     D0, [A6 - 0x14]
00001328  5B40                     subq.w     D0, 5
0000132A  3F00                     move.w     -[A7], D0
0000132C  A8A7                     syscall    SetRect
0000132E  486D BAC0                pea.l      [A5 - 0x4540]
00001332  486E FFE0                pea.l      [A6 - 0x20]
00001336  4EBA EFDA                jsr        [PC - 0x1026 /* 00000312 */]
0000133A  486D BAC6                pea.l      [A5 - 0x453A]
0000133E  486E FFE0                pea.l      [A6 - 0x20]
00001342  4EBA F030                jsr        [PC - 0xFD0 /* 00000374 */]
00001346  41EE FFE8                lea.l      A0, [A6 - 0x18]
0000134A  43EE FFE0                lea.l      A1, [A6 - 0x20]
0000134E  22D8                     move.l     [A1]+, [A0]+
00001350  22D8                     move.l     [A1]+, [A0]+
00001352  486E FFE0                pea.l      [A6 - 0x20]
00001356  3F3C 0008                move.w     -[A7], 0x8
0000135A  3F3C 0010                move.w     -[A7], 0x10
0000135E  A8A9                     syscall    InsetRect
00001360  486D BAC0                pea.l      [A5 - 0x4540]
00001364  486E FFE0                pea.l      [A6 - 0x20]
00001368  4EBA EFA8                jsr        [PC - 0x1058 /* 00000312 */]
0000136C  486E FFE0                pea.l      [A6 - 0x20]
00001370  4EBA F0F2                jsr        [PC - 0xF0E /* 00000464 */]
00001374  41EE FFE8                lea.l      A0, [A6 - 0x18]
00001378  43EE FFE0                lea.l      A1, [A6 - 0x20]
0000137C  22D8                     move.l     [A1]+, [A0]+
0000137E  22D8                     move.l     [A1]+, [A0]+
00001380  486E FFE0                pea.l      [A6 - 0x20]
00001384  3F3C 0008                move.w     -[A7], 0x8
00001388  3F3C 0010                move.w     -[A7], 0x10
0000138C  A8A9                     syscall    InsetRect
0000138E  302E FFEC                move.w     D0, [A6 - 0x14]
00001392  D06E FFE8                add.w      D0, [A6 - 0x18]
00001396  48C0                     ext.l      D0
00001398  81FC 0002                divs.w     D0, 0x2
0000139C  5440                     addq.w     D0, 2
0000139E  3D40 FFE4                move.w     [A6 - 0x1C], D0
000013A2  486D BAC0                pea.l      [A5 - 0x4540]
000013A6  486E FFE0                pea.l      [A6 - 0x20]
000013AA  4EBA EF66                jsr        [PC - 0x109A /* 00000312 */]
000013AE  486E FFE0                pea.l      [A6 - 0x20]
000013B2  3F3C 0006                move.w     -[A7], 0x6
000013B6  3F3C 0006                move.w     -[A7], 0x6
000013BA  A8A9                     syscall    InsetRect
000013BC  486E FFE0                pea.l      [A6 - 0x20]
000013C0  4EBA F0A2                jsr        [PC - 0xF5E /* 00000464 */]
000013C4  486E FFE0                pea.l      [A6 - 0x20]
000013C8  3F3C 0002                move.w     -[A7], 0x2
000013CC  3F3C 0002                move.w     -[A7], 0x2
000013D0  A8A9                     syscall    InsetRect
000013D2  486E FFE0                pea.l      [A6 - 0x20]
000013D6  4EBA F08C                jsr        [PC - 0xF74 /* 00000464 */]
000013DA  486E FFE0                pea.l      [A6 - 0x20]
000013DE  3F3C 0002                move.w     -[A7], 0x2
000013E2  3F3C 0002                move.w     -[A7], 0x2
000013E6  A8A9                     syscall    InsetRect
000013E8  486D BA96                pea.l      [A5 - 0x456A]
000013EC  486E FFE0                pea.l      [A6 - 0x20]
000013F0  4EBA EF20                jsr        [PC - 0x10E0 /* 00000312 */]
000013F4  486E FFE0                pea.l      [A6 - 0x20]
000013F8  4EBA F06A                jsr        [PC - 0xF96 /* 00000464 */]
000013FC  41EE FFE8                lea.l      A0, [A6 - 0x18]
00001400  43EE FFE0                lea.l      A1, [A6 - 0x20]
00001404  22D8                     move.l     [A1]+, [A0]+
00001406  22D8                     move.l     [A1]+, [A0]+
00001408  486E FFE0                pea.l      [A6 - 0x20]
0000140C  3F3C 0008                move.w     -[A7], 0x8
00001410  3F3C 0010                move.w     -[A7], 0x10
00001414  A8A9                     syscall    InsetRect
00001416  302E FFEC                move.w     D0, [A6 - 0x14]
0000141A  D06E FFE8                add.w      D0, [A6 - 0x18]
0000141E  48C0                     ext.l      D0
00001420  81FC 0002                divs.w     D0, 0x2
00001424  5440                     addq.w     D0, 2
00001426  3D40 FFE0                move.w     [A6 - 0x20], D0
0000142A  486E FFE0                pea.l      [A6 - 0x20]
0000142E  486D FFBA                pea.l      [A5 - 0x46]
00001432  A8A5                     syscall    FillRect
00001434  41EE FFE8                lea.l      A0, [A6 - 0x18]
00001438  43EE FFE0                lea.l      A1, [A6 - 0x20]
0000143C  22D8                     move.l     [A1]+, [A0]+
0000143E  22D8                     move.l     [A1]+, [A0]+
00001440  486E FFE0                pea.l      [A6 - 0x20]
00001444  3F3C 0008                move.w     -[A7], 0x8
00001448  3F3C 0010                move.w     -[A7], 0x10
0000144C  A8A9                     syscall    InsetRect
0000144E  302E FFEC                move.w     D0, [A6 - 0x14]
00001452  D06E FFE8                add.w      D0, [A6 - 0x18]
00001456  48C0                     ext.l      D0
00001458  81FC 0002                divs.w     D0, 0x2
0000145C  5540                     subq.w     D0, 2
0000145E  3D40 FFE0                move.w     [A6 - 0x20], D0
00001462  4A07                     tst.b      D7
00001464  671C                     beq        +0x1E /* 00001482 */
00001466  486E FFE0                pea.l      [A6 - 0x20]
0000146A  4267                     clr.w      -[A7]
0000146C  302E FFEC                move.w     D0, [A6 - 0x14]
00001470  906E FFE8                sub.w      D0, [A6 - 0x18]
00001474  48C0                     ext.l      D0
00001476  81FC 0002                divs.w     D0, 0x2
0000147A  721A                     moveq.l    D1, 0x1A
0000147C  9240                     sub.w      D1, D0
0000147E  3F01                     move.w     -[A7], D1
00001480  A8A8                     syscall    OffsetRect
label00001482:
00001482  486D BAC0                pea.l      [A5 - 0x4540]
00001486  486E FFE0                pea.l      [A6 - 0x20]
0000148A  4EBA EE86                jsr        [PC - 0x117A /* 00000312 */]
0000148E  486E FFE0                pea.l      [A6 - 0x20]
00001492  3F3C 0006                move.w     -[A7], 0x6
00001496  3F3C 0006                move.w     -[A7], 0x6
0000149A  A8A9                     syscall    InsetRect
0000149C  486E FFE0                pea.l      [A6 - 0x20]
000014A0  4EBA EFC2                jsr        [PC - 0x103E /* 00000464 */]
000014A4  486E FFE0                pea.l      [A6 - 0x20]
000014A8  3F3C 0002                move.w     -[A7], 0x2
000014AC  3F3C 0002                move.w     -[A7], 0x2
000014B0  A8A9                     syscall    InsetRect
000014B2  486E FFE0                pea.l      [A6 - 0x20]
000014B6  4EBA EFAC                jsr        [PC - 0x1054 /* 00000464 */]
000014BA  486E FFE0                pea.l      [A6 - 0x20]
000014BE  3F3C 0002                move.w     -[A7], 0x2
000014C2  3F3C 0002                move.w     -[A7], 0x2
000014C6  A8A9                     syscall    InsetRect
000014C8  486D BA96                pea.l      [A5 - 0x456A]
000014CC  486E FFE0                pea.l      [A6 - 0x20]
000014D0  4EBA EE40                jsr        [PC - 0x11C0 /* 00000312 */]
000014D4  486E FFE0                pea.l      [A6 - 0x20]
000014D8  4EBA EF8A                jsr        [PC - 0x1076 /* 00000464 */]
000014DC  486D BA96                pea.l      [A5 - 0x456A]
000014E0  AA14                     syscall    RGBForeColor
000014E2  6000 0264                bra        +0x266 /* 00001748 */
label000014E6:
000014E6  486E FFE8                pea.l      [A6 - 0x18]
000014EA  4EBA EE62                jsr        [PC - 0x119E /* 0000034E */]
000014EE  486E FFE8                pea.l      [A6 - 0x18]
000014F2  4EBA EEE6                jsr        [PC - 0x111A /* 000003DA */]
000014F6  486E FFE0                pea.l      [A6 - 0x20]
000014FA  302E FFEA                move.w     D0, [A6 - 0x16]
000014FE  5940                     subq.w     D0, 4
00001500  3F00                     move.w     -[A7], D0
00001502  3F2E FFE8                move.w     -[A7], [A6 - 0x18]
00001506  302E FFEE                move.w     D0, [A6 - 0x12]
0000150A  5840                     addq.w     D0, 4
0000150C  3F00                     move.w     -[A7], D0
0000150E  302E FFE8                move.w     D0, [A6 - 0x18]
00001512  5C40                     addq.w     D0, 6
00001514  3F00                     move.w     -[A7], D0
00001516  A8A7                     syscall    SetRect
00001518  486E FFE0                pea.l      [A6 - 0x20]
0000151C  4EBA EE30                jsr        [PC - 0x11D0 /* 0000034E */]
00001520  486E FFE0                pea.l      [A6 - 0x20]
00001524  4EBA EEB4                jsr        [PC - 0x114C /* 000003DA */]
00001528  486E FFE0                pea.l      [A6 - 0x20]
0000152C  302E FFEA                move.w     D0, [A6 - 0x16]
00001530  5540                     subq.w     D0, 2
00001532  3F00                     move.w     -[A7], D0
00001534  302E FFE8                move.w     D0, [A6 - 0x18]
00001538  5C40                     addq.w     D0, 6
0000153A  3F00                     move.w     -[A7], D0
0000153C  302E FFEE                move.w     D0, [A6 - 0x12]
00001540  5440                     addq.w     D0, 2
00001542  3F00                     move.w     -[A7], D0
00001544  302E FFE8                move.w     D0, [A6 - 0x18]
00001548  0640 000A                addi.w     D0, 0xA /* '\n' */
0000154C  3F00                     move.w     -[A7], D0
0000154E  A8A7                     syscall    SetRect
00001550  486E FFE0                pea.l      [A6 - 0x20]
00001554  4EBA EDF8                jsr        [PC - 0x1208 /* 0000034E */]
00001558  486E FFE0                pea.l      [A6 - 0x20]
0000155C  302E FFEA                move.w     D0, [A6 - 0x16]
00001560  5940                     subq.w     D0, 4
00001562  3F00                     move.w     -[A7], D0
00001564  302E FFEC                move.w     D0, [A6 - 0x14]
00001568  5D40                     subq.w     D0, 6
0000156A  3F00                     move.w     -[A7], D0
0000156C  302E FFEE                move.w     D0, [A6 - 0x12]
00001570  5840                     addq.w     D0, 4
00001572  3F00                     move.w     -[A7], D0
00001574  3F2E FFEC                move.w     -[A7], [A6 - 0x14]
00001578  A8A7                     syscall    SetRect
0000157A  486E FFE0                pea.l      [A6 - 0x20]
0000157E  4EBA EDCE                jsr        [PC - 0x1232 /* 0000034E */]
00001582  486E FFE0                pea.l      [A6 - 0x20]
00001586  4EBA EE52                jsr        [PC - 0x11AE /* 000003DA */]
0000158A  486E FFE0                pea.l      [A6 - 0x20]
0000158E  302E FFEA                move.w     D0, [A6 - 0x16]
00001592  5540                     subq.w     D0, 2
00001594  3F00                     move.w     -[A7], D0
00001596  302E FFEC                move.w     D0, [A6 - 0x14]
0000159A  0640 FFF6                addi.w     D0, 0xFFF6
0000159E  3F00                     move.w     -[A7], D0
000015A0  302E FFEE                move.w     D0, [A6 - 0x12]
000015A4  5440                     addq.w     D0, 2
000015A6  3F00                     move.w     -[A7], D0
000015A8  302E FFEC                move.w     D0, [A6 - 0x14]
000015AC  5B40                     subq.w     D0, 5
000015AE  3F00                     move.w     -[A7], D0
000015B0  A8A7                     syscall    SetRect
000015B2  486E FFE0                pea.l      [A6 - 0x20]
000015B6  4EBA ED96                jsr        [PC - 0x126A /* 0000034E */]
000015BA  486E FFE0                pea.l      [A6 - 0x20]
000015BE  4EBA EE1A                jsr        [PC - 0x11E6 /* 000003DA */]
000015C2  41EE FFE8                lea.l      A0, [A6 - 0x18]
000015C6  43EE FFE0                lea.l      A1, [A6 - 0x20]
000015CA  22D8                     move.l     [A1]+, [A0]+
000015CC  22D8                     move.l     [A1]+, [A0]+
000015CE  486E FFE0                pea.l      [A6 - 0x20]
000015D2  3F3C 0008                move.w     -[A7], 0x8
000015D6  3F3C 0010                move.w     -[A7], 0x10
000015DA  A8A9                     syscall    InsetRect
000015DC  486E FFE0                pea.l      [A6 - 0x20]
000015E0  4EBA ED6C                jsr        [PC - 0x1294 /* 0000034E */]
000015E4  486E FFE0                pea.l      [A6 - 0x20]
000015E8  4EBA EEF2                jsr        [PC - 0x110E /* 000004DC */]
000015EC  41EE FFE8                lea.l      A0, [A6 - 0x18]
000015F0  43EE FFE0                lea.l      A1, [A6 - 0x20]
000015F4  22D8                     move.l     [A1]+, [A0]+
000015F6  22D8                     move.l     [A1]+, [A0]+
000015F8  486E FFE0                pea.l      [A6 - 0x20]
000015FC  3F3C 0008                move.w     -[A7], 0x8
00001600  3F3C 0010                move.w     -[A7], 0x10
00001604  A8A9                     syscall    InsetRect
00001606  302E FFEC                move.w     D0, [A6 - 0x14]
0000160A  D06E FFE8                add.w      D0, [A6 - 0x18]
0000160E  48C0                     ext.l      D0
00001610  81FC 0002                divs.w     D0, 0x2
00001614  5440                     addq.w     D0, 2
00001616  3D40 FFE4                move.w     [A6 - 0x1C], D0
0000161A  486E FFE0                pea.l      [A6 - 0x20]
0000161E  4EBA ED2E                jsr        [PC - 0x12D2 /* 0000034E */]
00001622  486E FFE0                pea.l      [A6 - 0x20]
00001626  3F3C 0006                move.w     -[A7], 0x6
0000162A  3F3C 0006                move.w     -[A7], 0x6
0000162E  A8A9                     syscall    InsetRect
00001630  486E FFE0                pea.l      [A6 - 0x20]
00001634  4EBA EEA6                jsr        [PC - 0x115A /* 000004DC */]
00001638  486E FFE0                pea.l      [A6 - 0x20]
0000163C  3F3C 0002                move.w     -[A7], 0x2
00001640  3F3C 0002                move.w     -[A7], 0x2
00001644  A8A9                     syscall    InsetRect
00001646  486E FFE0                pea.l      [A6 - 0x20]
0000164A  4EBA EE90                jsr        [PC - 0x1170 /* 000004DC */]
0000164E  486E FFE0                pea.l      [A6 - 0x20]
00001652  3F3C 0002                move.w     -[A7], 0x2
00001656  3F3C 0002                move.w     -[A7], 0x2
0000165A  A8A9                     syscall    InsetRect
0000165C  486E FFE0                pea.l      [A6 - 0x20]
00001660  486D FFBA                pea.l      [A5 - 0x46]
00001664  A8A5                     syscall    FillRect
00001666  486E FFE0                pea.l      [A6 - 0x20]
0000166A  4EBA EE70                jsr        [PC - 0x1190 /* 000004DC */]
0000166E  41EE FFE8                lea.l      A0, [A6 - 0x18]
00001672  43EE FFE0                lea.l      A1, [A6 - 0x20]
00001676  22D8                     move.l     [A1]+, [A0]+
00001678  22D8                     move.l     [A1]+, [A0]+
0000167A  486E FFE0                pea.l      [A6 - 0x20]
0000167E  3F3C 0008                move.w     -[A7], 0x8
00001682  3F3C 0010                move.w     -[A7], 0x10
00001686  A8A9                     syscall    InsetRect
00001688  302E FFEC                move.w     D0, [A6 - 0x14]
0000168C  D06E FFE8                add.w      D0, [A6 - 0x18]
00001690  48C0                     ext.l      D0
00001692  81FC 0002                divs.w     D0, 0x2
00001696  5440                     addq.w     D0, 2
00001698  3D40 FFE0                move.w     [A6 - 0x20], D0
0000169C  486E FFE0                pea.l      [A6 - 0x20]
000016A0  486D FFBA                pea.l      [A5 - 0x46]
000016A4  A8A5                     syscall    FillRect
000016A6  41EE FFE8                lea.l      A0, [A6 - 0x18]
000016AA  43EE FFE0                lea.l      A1, [A6 - 0x20]
000016AE  22D8                     move.l     [A1]+, [A0]+
000016B0  22D8                     move.l     [A1]+, [A0]+
000016B2  486E FFE0                pea.l      [A6 - 0x20]
000016B6  3F3C 0008                move.w     -[A7], 0x8
000016BA  3F3C 0010                move.w     -[A7], 0x10
000016BE  A8A9                     syscall    InsetRect
000016C0  302E FFEC                move.w     D0, [A6 - 0x14]
000016C4  D06E FFE8                add.w      D0, [A6 - 0x18]
000016C8  48C0                     ext.l      D0
000016CA  81FC 0002                divs.w     D0, 0x2
000016CE  5540                     subq.w     D0, 2
000016D0  3D40 FFE0                move.w     [A6 - 0x20], D0
000016D4  4A07                     tst.b      D7
000016D6  671C                     beq        +0x1E /* 000016F4 */
000016D8  486E FFE0                pea.l      [A6 - 0x20]
000016DC  4267                     clr.w      -[A7]
000016DE  302E FFEC                move.w     D0, [A6 - 0x14]
000016E2  906E FFE8                sub.w      D0, [A6 - 0x18]
000016E6  48C0                     ext.l      D0
000016E8  81FC 0002                divs.w     D0, 0x2
000016EC  721A                     moveq.l    D1, 0x1A
000016EE  9240                     sub.w      D1, D0
000016F0  3F01                     move.w     -[A7], D1
000016F2  A8A8                     syscall    OffsetRect
label000016F4:
000016F4  486E FFE0                pea.l      [A6 - 0x20]
000016F8  4EBA EC54                jsr        [PC - 0x13AC /* 0000034E */]
000016FC  486E FFE0                pea.l      [A6 - 0x20]
00001700  3F3C 0006                move.w     -[A7], 0x6
00001704  3F3C 0006                move.w     -[A7], 0x6
00001708  A8A9                     syscall    InsetRect
0000170A  486E FFE0                pea.l      [A6 - 0x20]
0000170E  4EBA EDCC                jsr        [PC - 0x1234 /* 000004DC */]
00001712  486E FFE0                pea.l      [A6 - 0x20]
00001716  3F3C 0002                move.w     -[A7], 0x2
0000171A  3F3C 0002                move.w     -[A7], 0x2
0000171E  A8A9                     syscall    InsetRect
00001720  486E FFE0                pea.l      [A6 - 0x20]
00001724  4EBA EDB6                jsr        [PC - 0x124A /* 000004DC */]
00001728  486E FFE0                pea.l      [A6 - 0x20]
0000172C  3F3C 0002                move.w     -[A7], 0x2
00001730  3F3C 0002                move.w     -[A7], 0x2
00001734  A8A9                     syscall    InsetRect
00001736  486E FFE0                pea.l      [A6 - 0x20]
0000173A  486D FFBA                pea.l      [A5 - 0x46]
0000173E  A8A5                     syscall    FillRect
00001740  486E FFE0                pea.l      [A6 - 0x20]
00001744  4EBA ED96                jsr        [PC - 0x126A /* 000004DC */]
label00001748:
00001748  4CDF 18C0                movem.l    D6,D7,A3,A4, [A7]+
0000174C  4E5E                     unlink     A6
0000174E  205F                     movea.l    A0, [A7]+
00001750  544F                     addq.w     A7, 2
00001752  4ED0                     jmp        [A0]
fn00001754:
00001754  4E56 FFDE                link       A6, -0x0022
00001758  48E7 0718                movem.l    -[A7], D5,D6,D7,A3,A4
0000175C  4A2D FD97                tst.b      [A5 - 0x269]
00001760  6708                     beq        +0xA /* 0000176A */
00001762  2F2D BA82                move.l     -[A7], [A5 - 0x457E]
00001766  A873                     syscall    SetPort
00001768  6006                     bra        +0x8 /* 00001770 */
label0000176A:
0000176A  2F2D B922                move.l     -[A7], [A5 - 0x46DE]
0000176E  A873                     syscall    SetPort
label00001770:
00001770  302E 0008                move.w     D0, [A6 + 0x8]
00001774  E940                     asl        D0.w, 4
00001776  0640 F21C                addi.w     D0, 0xF21C
0000177A  47F5 0000                lea.l      A3, [A5 + D0.w]
0000177E  3C13                     move.w     D6, [A3]
00001780  41EB 0002                lea.l      A0, [A3 + 0x2]
00001784  43EE FFE2                lea.l      A1, [A6 - 0x1E]
00001788  22D8                     move.l     [A1]+, [A0]+
0000178A  22D8                     move.l     [A1]+, [A0]+
0000178C  554F                     subq.w     A7, 2
0000178E  486D BBBA                pea.l      [A5 - 0x4446]
00001792  A997                     syscall    OpenResFile
00001794  3E1F                     move.w     D7, [A7]+
00001796  0C47 FFFF                cmpi.w     D7, 0xFFFF
0000179A  6614                     bne        +0x16 /* 000017B0 */
0000179C  3F07                     move.w     -[A7], D7
0000179E  A99A                     syscall    CloseResFile
000017A0  3F2D BB4C                move.w     -[A7], [A5 - 0x44B4]
000017A4  A998                     syscall    UseResFile
000017A6  3F3C 0008                move.w     -[A7], 0x8
000017AA  4EAD 0272                jsr        [A5 + 0x272 /* export_74, CODE:5 @ 00000A50 */]
000017AE  6058                     bra        +0x5A /* 00001808 */
label000017B0:
000017B0  0C46 002C                cmpi.w     D6, 0x2C /* ',' */
000017B4  660C                     bne        +0xE /* 000017C2 */
000017B6  594F                     subq.w     A7, 4
000017B8  3F3C 00C6                move.w     -[A7], 0xC6
000017BC  A9BC                     syscall    GetPicture
000017BE  285F                     movea.l    A4, [A7]+
000017C0  600A                     bra        +0xC /* 000017CC */
label000017C2:
000017C2  594F                     subq.w     A7, 4
000017C4  3F3C 00C7                move.w     -[A7], 0xC7
000017C8  A9BC                     syscall    GetPicture
000017CA  285F                     movea.l    A4, [A7]+
label000017CC:
000017CC  200C                     move.l     D0, A4
000017CE  6722                     beq        +0x24 /* 000017F2 */
000017D0  554F                     subq.w     A7, 2
000017D2  2F0C                     move.l     -[A7], A4
000017D4  4EAD 00DA                jsr        [A5 + 0xDA /* export_23, CODE:1 @ 0000053A */]
000017D8  1A1F                     move.b     D5, [A7]+
000017DA  2F0C                     move.l     -[A7], A4
000017DC  4EAD 0052                jsr        [A5 + 0x52 /* export_6, CODE:1 @ 000002A8 */]
000017E0  2F0C                     move.l     -[A7], A4
000017E2  486E FFE2                pea.l      [A6 - 0x1E]
000017E6  A8F6                     syscall    DrawPicture
000017E8  2F0C                     move.l     -[A7], A4
000017EA  1F05                     move.b     -[A7], D5
000017EC  4EAD 00E2                jsr        [A5 + 0xE2 /* export_24, CODE:1 @ 00000544 */]
000017F0  6008                     bra        +0xA /* 000017FA */
label000017F2:
000017F2  3F3C 0009                move.w     -[A7], 0x9 /* '\t' */
000017F6  4EAD 0272                jsr        [A5 + 0x272 /* export_74, CODE:5 @ 00000A50 */]
label000017FA:
000017FA  2F0C                     move.l     -[A7], A4
000017FC  A9A3                     syscall    ReleaseResource
000017FE  3F07                     move.w     -[A7], D7
00001800  A99A                     syscall    CloseResFile
00001802  3F2D BB4C                move.w     -[A7], [A5 - 0x44B4]
00001806  A998                     syscall    UseResFile
label00001808:
00001808  4CDF 18E0                movem.l    D5,D6,D7,A3,A4, [A7]+
0000180C  4E5E                     unlink     A6
0000180E  205F                     movea.l    A0, [A7]+
00001810  544F                     addq.w     A7, 2
00001812  4ED0                     jmp        [A0]
export_44:
fn00001814:
00001814  4E56 FFCC                link       A6, -0x0034
00001818  48E7 0708                movem.l    -[A7], D5,D6,D7,A4
0000181C  486E FFEC                pea.l      [A6 - 0x14]
00001820  A874                     syscall    GetPort
00001822  3A2D F20C                move.w     D5, [A5 - 0xDF4]
00001826  4A45                     tst.w      D5
00001828  6654                     bne        +0x56 /* 0000187E */
0000182A  4A2D FD97                tst.b      [A5 - 0x269]
0000182E  672A                     beq        +0x2C /* 0000185A */
00001830  206D BA7E                movea.l    A0, [A5 - 0x4582]
00001834  2068 0002                movea.l    A0, [A0 + 0x2]
00001838  2F10                     move.l     -[A7], [A0]
0000183A  206D B8B2                movea.l    A0, [A5 - 0x474E]
0000183E  4868 0002                pea.l      [A0 + 0x2]
00001842  486D B8C6                pea.l      [A5 - 0x473A]
00001846  486D B8C6                pea.l      [A5 - 0x473A]
0000184A  4267                     clr.w      -[A7]
0000184C  206D B8B2                movea.l    A0, [A5 - 0x474E]
00001850  2F28 0018                move.l     -[A7], [A0 + 0x18]
00001854  A8EC                     syscall    CopyBits
00001856  6000 07C4                bra        +0x7C6 /* 0000201C */
label0000185A:
0000185A  486D B8F0                pea.l      [A5 - 0x4710]
0000185E  206D B8B2                movea.l    A0, [A5 - 0x474E]
00001862  4868 0002                pea.l      [A0 + 0x2]
00001866  486D B8C6                pea.l      [A5 - 0x473A]
0000186A  486D B8C6                pea.l      [A5 - 0x473A]
0000186E  4267                     clr.w      -[A7]
00001870  206D B8B2                movea.l    A0, [A5 - 0x474E]
00001874  2F28 0018                move.l     -[A7], [A0 + 0x18]
00001878  A8EC                     syscall    CopyBits
0000187A  6000 07A0                bra        +0x7A2 /* 0000201C */
label0000187E:
0000187E  4A2D FD82                tst.b      [A5 - 0x27E]
00001882  6700 0104                beq        +0x106 /* 00001988 */
00001886  4A2D FD97                tst.b      [A5 - 0x269]
0000188A  6708                     beq        +0xA /* 00001894 */
0000188C  2F2D BA82                move.l     -[A7], [A5 - 0x457E]
00001890  A873                     syscall    SetPort
00001892  6006                     bra        +0x8 /* 0000189A */
label00001894:
00001894  2F2D B922                move.l     -[A7], [A5 - 0x46DE]
00001898  A873                     syscall    SetPort
label0000189A:
0000189A  A89E                     syscall    PenNormal
0000189C  486D B8C6                pea.l      [A5 - 0x473A]
000018A0  A8A2                     syscall    PaintRect
000018A2  3D6D F20C FFCC           move.w     [A6 - 0x34], [A5 - 0xDF4]
000018A8  7E01                     moveq.l    D7, 0x01
000018AA  6000 0080                bra        +0x82 /* 0000192C */
label000018AE:
000018AE  3007                     move.w     D0, D7
000018B0  E940                     asl        D0.w, 4
000018B2  0640 F21C                addi.w     D0, 0xF21C
000018B6  49F5 0000                lea.l      A4, [A5 + D0.w]
000018BA  0C54 0018                cmpi.w     [A4], 0x18
000018BE  6668                     bne        +0x6A /* 00001928 */
000018C0  3014                     move.w     D0, [A4]
000018C2  E740                     asl        D0.w, 3
000018C4  0640 FAF2                addi.w     D0, 0xFAF2
000018C8  41F5 0000                lea.l      A0, [A5 + D0.w]
000018CC  43EE FFDE                lea.l      A1, [A6 - 0x22]
000018D0  22D8                     move.l     [A1]+, [A0]+
000018D2  22D8                     move.l     [A1]+, [A0]+
000018D4  41EC 0002                lea.l      A0, [A4 + 0x2]
000018D8  43EE FFD6                lea.l      A1, [A6 - 0x2A]
000018DC  22D8                     move.l     [A1]+, [A0]+
000018DE  22D8                     move.l     [A1]+, [A0]+
000018E0  4A2D FD97                tst.b      [A5 - 0x269]
000018E4  6728                     beq        +0x2A /* 0000190E */
000018E6  206D BA86                movea.l    A0, [A5 - 0x457A]
000018EA  2068 0002                movea.l    A0, [A0 + 0x2]
000018EE  2F10                     move.l     -[A7], [A0]
000018F0  486D B8E2                pea.l      [A5 - 0x471E]
000018F4  206D BA82                movea.l    A0, [A5 - 0x457E]
000018F8  2068 0002                movea.l    A0, [A0 + 0x2]
000018FC  2F10                     move.l     -[A7], [A0]
000018FE  486E FFDE                pea.l      [A6 - 0x22]
00001902  486E FFDE                pea.l      [A6 - 0x22]
00001906  486E FFD6                pea.l      [A6 - 0x2A]
0000190A  A817                     syscall    CopyMask
0000190C  601A                     bra        +0x1C /* 00001928 */
label0000190E:
0000190E  486D B90C                pea.l      [A5 - 0x46F4]
00001912  486D B8E2                pea.l      [A5 - 0x471E]
00001916  486D B8FE                pea.l      [A5 - 0x4702]
0000191A  486E FFDE                pea.l      [A6 - 0x22]
0000191E  486E FFDE                pea.l      [A6 - 0x22]
00001922  486E FFD6                pea.l      [A6 - 0x2A]
00001926  A817                     syscall    CopyMask
label00001928:
00001928  5247                     addq.w     D7, 1
0000192A  6908                     bvs        +0xA /* 00001934 */
label0000192C:
0000192C  BE6E FFCC                cmp.w      D7, [A6 - 0x34]
00001930  6F00 FF7C                ble        -0x82 /* 000018AE */
label00001934:
00001934  4A2D FD97                tst.b      [A5 - 0x269]
00001938  672A                     beq        +0x2C /* 00001964 */
0000193A  206D BA82                movea.l    A0, [A5 - 0x457E]
0000193E  2068 0002                movea.l    A0, [A0 + 0x2]
00001942  2F10                     move.l     -[A7], [A0]
00001944  206D B8B2                movea.l    A0, [A5 - 0x474E]
00001948  4868 0002                pea.l      [A0 + 0x2]
0000194C  486D B8C6                pea.l      [A5 - 0x473A]
00001950  486D B8C6                pea.l      [A5 - 0x473A]
00001954  4267                     clr.w      -[A7]
00001956  206D B8B2                movea.l    A0, [A5 - 0x474E]
0000195A  2F28 0018                move.l     -[A7], [A0 + 0x18]
0000195E  A8EC                     syscall    CopyBits
00001960  6000 06BA                bra        +0x6BC /* 0000201C */
label00001964:
00001964  486D B8FE                pea.l      [A5 - 0x4702]
00001968  206D B8B2                movea.l    A0, [A5 - 0x474E]
0000196C  4868 0002                pea.l      [A0 + 0x2]
00001970  486D B8C6                pea.l      [A5 - 0x473A]
00001974  486D B8C6                pea.l      [A5 - 0x473A]
00001978  4267                     clr.w      -[A7]
0000197A  206D B8B2                movea.l    A0, [A5 - 0x474E]
0000197E  2F28 0018                move.l     -[A7], [A0 + 0x18]
00001982  A8EC                     syscall    CopyBits
00001984  6000 0696                bra        +0x698 /* 0000201C */
label00001988:
00001988  3C2D BB3E                move.w     D6, [A5 - 0x44C2]
0000198C  4A46                     tst.w      D6
0000198E  6704                     beq        +0x6 /* 00001994 */
00001990  4EAD 0262                jsr        [A5 + 0x262 /* export_72, CODE:5 @ 0000094E */]
label00001994:
00001994  4A2D FD97                tst.b      [A5 - 0x269]
00001998  6726                     beq        +0x28 /* 000019C0 */
0000199A  206D BA7E                movea.l    A0, [A5 - 0x4582]
0000199E  2068 0002                movea.l    A0, [A0 + 0x2]
000019A2  2F10                     move.l     -[A7], [A0]
000019A4  206D BA82                movea.l    A0, [A5 - 0x457E]
000019A8  2068 0002                movea.l    A0, [A0 + 0x2]
000019AC  2F10                     move.l     -[A7], [A0]
000019AE  486D B8C6                pea.l      [A5 - 0x473A]
000019B2  486D B8C6                pea.l      [A5 - 0x473A]
000019B6  4267                     clr.w      -[A7]
000019B8  2F2D B8DE                move.l     -[A7], [A5 - 0x4722]
000019BC  A8EC                     syscall    CopyBits
000019BE  6018                     bra        +0x1A /* 000019D8 */
label000019C0:
000019C0  486D B8F0                pea.l      [A5 - 0x4710]
000019C4  486D B8FE                pea.l      [A5 - 0x4702]
000019C8  486D B8C6                pea.l      [A5 - 0x473A]
000019CC  486D B8C6                pea.l      [A5 - 0x473A]
000019D0  4267                     clr.w      -[A7]
000019D2  2F2D B8DE                move.l     -[A7], [A5 - 0x4722]
000019D6  A8EC                     syscall    CopyBits
label000019D8:
000019D8  3D6D F20C FFCC           move.w     [A6 - 0x34], [A5 - 0xDF4]
000019DE  7E01                     moveq.l    D7, 0x01
000019E0  6000 05C4                bra        +0x5C6 /* 00001FA6 */
label000019E4:
000019E4  3007                     move.w     D0, D7
000019E6  E940                     asl        D0.w, 4
000019E8  0640 F21C                addi.w     D0, 0xF21C
000019EC  49F5 0000                lea.l      A4, [A5 + D0.w]
000019F0  3014                     move.w     D0, [A4]
000019F2  6000 0542                bra        +0x544 /* 00001F36 */
000019F6  3F07                     move.w     -[A7], D7
000019F8  4EBA EB50                jsr        [PC - 0x14B0 /* 0000054A */]
000019FC  6000 05A4                bra        +0x5A6 /* 00001FA2 */
00001A00  3F07                     move.w     -[A7], D7
00001A02  4EBA EEA0                jsr        [PC - 0x1160 /* 000008A4 */]
00001A06  6000 059A                bra        +0x59C /* 00001FA2 */
00001A0A  3F07                     move.w     -[A7], D7
00001A0C  4EBA F1D0                jsr        [PC - 0xE30 /* 00000BDE */]
00001A10  6000 0590                bra        +0x592 /* 00001FA2 */
00001A14  3014                     move.w     D0, [A4]
00001A16  E740                     asl        D0.w, 3
00001A18  0640 FAF2                addi.w     D0, 0xFAF2
00001A1C  41F5 0000                lea.l      A0, [A5 + D0.w]
00001A20  43EE FFDE                lea.l      A1, [A6 - 0x22]
00001A24  22D8                     move.l     [A1]+, [A0]+
00001A26  22D8                     move.l     [A1]+, [A0]+
00001A28  41EC 0002                lea.l      A0, [A4 + 0x2]
00001A2C  43EE FFD6                lea.l      A1, [A6 - 0x2A]
00001A30  22D8                     move.l     [A1]+, [A0]+
00001A32  22D8                     move.l     [A1]+, [A0]+
00001A34  4A2D FD97                tst.b      [A5 - 0x269]
00001A38  672A                     beq        +0x2C /* 00001A64 */
00001A3A  206D BA86                movea.l    A0, [A5 - 0x457A]
00001A3E  2068 0002                movea.l    A0, [A0 + 0x2]
00001A42  2F10                     move.l     -[A7], [A0]
00001A44  486D B8E2                pea.l      [A5 - 0x471E]
00001A48  206D BA82                movea.l    A0, [A5 - 0x457E]
00001A4C  2068 0002                movea.l    A0, [A0 + 0x2]
00001A50  2F10                     move.l     -[A7], [A0]
00001A52  486E FFDE                pea.l      [A6 - 0x22]
00001A56  486E FFDE                pea.l      [A6 - 0x22]
00001A5A  486E FFD6                pea.l      [A6 - 0x2A]
00001A5E  A817                     syscall    CopyMask
00001A60  6000 0540                bra        +0x542 /* 00001FA2 */
label00001A64:
00001A64  486D B90C                pea.l      [A5 - 0x46F4]
00001A68  486D B8E2                pea.l      [A5 - 0x471E]
00001A6C  486D B8FE                pea.l      [A5 - 0x4702]
00001A70  486E FFDE                pea.l      [A6 - 0x22]
00001A74  486E FFDE                pea.l      [A6 - 0x22]
00001A78  486E FFD6                pea.l      [A6 - 0x2A]
00001A7C  A817                     syscall    CopyMask
00001A7E  6000 0522                bra        +0x524 /* 00001FA2 */
00001A82  3F07                     move.w     -[A7], D7
00001A84  1F3C 0001                move.b     -[A7], 0x1
00001A88  4EBA F628                jsr        [PC - 0x9D8 /* 000010B2 */]
00001A8C  6000 0514                bra        +0x516 /* 00001FA2 */
00001A90  3F07                     move.w     -[A7], D7
00001A92  4227                     clr.b      -[A7]
00001A94  4EBA F61C                jsr        [PC - 0x9E4 /* 000010B2 */]
00001A98  6000 0508                bra        +0x50A /* 00001FA2 */
00001A9C  3014                     move.w     D0, [A4]
00001A9E  E740                     asl        D0.w, 3
00001AA0  0640 FAF2                addi.w     D0, 0xFAF2
00001AA4  41F5 0000                lea.l      A0, [A5 + D0.w]
00001AA8  43EE FFDE                lea.l      A1, [A6 - 0x22]
00001AAC  22D8                     move.l     [A1]+, [A0]+
00001AAE  22D8                     move.l     [A1]+, [A0]+
00001AB0  41EC 0002                lea.l      A0, [A4 + 0x2]
00001AB4  43EE FFD6                lea.l      A1, [A6 - 0x2A]
00001AB8  22D8                     move.l     [A1]+, [A0]+
00001ABA  22D8                     move.l     [A1]+, [A0]+
00001ABC  4A2D FD97                tst.b      [A5 - 0x269]
00001AC0  672A                     beq        +0x2C /* 00001AEC */
00001AC2  206D BA86                movea.l    A0, [A5 - 0x457A]
00001AC6  2068 0002                movea.l    A0, [A0 + 0x2]
00001ACA  2F10                     move.l     -[A7], [A0]
00001ACC  486D B8E2                pea.l      [A5 - 0x471E]
00001AD0  206D BA82                movea.l    A0, [A5 - 0x457E]
00001AD4  2068 0002                movea.l    A0, [A0 + 0x2]
00001AD8  2F10                     move.l     -[A7], [A0]
00001ADA  486E FFDE                pea.l      [A6 - 0x22]
00001ADE  486E FFDE                pea.l      [A6 - 0x22]
00001AE2  486E FFD6                pea.l      [A6 - 0x2A]
00001AE6  A817                     syscall    CopyMask
00001AE8  6000 04B8                bra        +0x4BA /* 00001FA2 */
label00001AEC:
00001AEC  486D B90C                pea.l      [A5 - 0x46F4]
00001AF0  486D B8E2                pea.l      [A5 - 0x471E]
00001AF4  486D B8FE                pea.l      [A5 - 0x4702]
00001AF8  486E FFDE                pea.l      [A6 - 0x22]
00001AFC  486E FFDE                pea.l      [A6 - 0x22]
00001B00  486E FFD6                pea.l      [A6 - 0x2A]
00001B04  A817                     syscall    CopyMask
00001B06  6000 049A                bra        +0x49C /* 00001FA2 */
00001B0A  3014                     move.w     D0, [A4]
00001B0C  E740                     asl        D0.w, 3
00001B0E  0640 FAF2                addi.w     D0, 0xFAF2
00001B12  41F5 0000                lea.l      A0, [A5 + D0.w]
00001B16  43EE FFDE                lea.l      A1, [A6 - 0x22]
00001B1A  22D8                     move.l     [A1]+, [A0]+
00001B1C  22D8                     move.l     [A1]+, [A0]+
00001B1E  41EC 0002                lea.l      A0, [A4 + 0x2]
00001B22  43EE FFD6                lea.l      A1, [A6 - 0x2A]
00001B26  22D8                     move.l     [A1]+, [A0]+
00001B28  22D8                     move.l     [A1]+, [A0]+
00001B2A  4A2D FD97                tst.b      [A5 - 0x269]
00001B2E  672A                     beq        +0x2C /* 00001B5A */
00001B30  206D BA86                movea.l    A0, [A5 - 0x457A]
00001B34  2068 0002                movea.l    A0, [A0 + 0x2]
00001B38  2F10                     move.l     -[A7], [A0]
00001B3A  486D B8E2                pea.l      [A5 - 0x471E]
00001B3E  206D BA82                movea.l    A0, [A5 - 0x457E]
00001B42  2068 0002                movea.l    A0, [A0 + 0x2]
00001B46  2F10                     move.l     -[A7], [A0]
00001B48  486E FFDE                pea.l      [A6 - 0x22]
00001B4C  486E FFDE                pea.l      [A6 - 0x22]
00001B50  486E FFD6                pea.l      [A6 - 0x2A]
00001B54  A817                     syscall    CopyMask
00001B56  6000 044A                bra        +0x44C /* 00001FA2 */
label00001B5A:
00001B5A  486D B90C                pea.l      [A5 - 0x46F4]
00001B5E  486D B8E2                pea.l      [A5 - 0x471E]
00001B62  486D B8FE                pea.l      [A5 - 0x4702]
00001B66  486E FFDE                pea.l      [A6 - 0x22]
00001B6A  486E FFDE                pea.l      [A6 - 0x22]
00001B6E  486E FFD6                pea.l      [A6 - 0x2A]
00001B72  A817                     syscall    CopyMask
00001B74  6000 042C                bra        +0x42E /* 00001FA2 */
00001B78  4A2C 000E                tst.b      [A4 + 0xE]
00001B7C  6716                     beq        +0x18 /* 00001B94 */
00001B7E  3014                     move.w     D0, [A4]
00001B80  E740                     asl        D0.w, 3
00001B82  0640 FAF2                addi.w     D0, 0xFAF2
00001B86  41F5 0000                lea.l      A0, [A5 + D0.w]
00001B8A  43EE FFDE                lea.l      A1, [A6 - 0x22]
00001B8E  22D8                     move.l     [A1]+, [A0]+
00001B90  22D8                     move.l     [A1]+, [A0]+
00001B92  600C                     bra        +0xE /* 00001BA0 */
label00001B94:
00001B94  41ED FCCA                lea.l      A0, [A5 - 0x336]
00001B98  43EE FFDE                lea.l      A1, [A6 - 0x22]
00001B9C  22D8                     move.l     [A1]+, [A0]+
00001B9E  22D8                     move.l     [A1]+, [A0]+
label00001BA0:
00001BA0  41EC 0002                lea.l      A0, [A4 + 0x2]
00001BA4  43EE FFD6                lea.l      A1, [A6 - 0x2A]
00001BA8  22D8                     move.l     [A1]+, [A0]+
00001BAA  22D8                     move.l     [A1]+, [A0]+
00001BAC  4A2D FD97                tst.b      [A5 - 0x269]
00001BB0  672A                     beq        +0x2C /* 00001BDC */
00001BB2  206D BA86                movea.l    A0, [A5 - 0x457A]
00001BB6  2068 0002                movea.l    A0, [A0 + 0x2]
00001BBA  2F10                     move.l     -[A7], [A0]
00001BBC  486D B8E2                pea.l      [A5 - 0x471E]
00001BC0  206D BA82                movea.l    A0, [A5 - 0x457E]
00001BC4  2068 0002                movea.l    A0, [A0 + 0x2]
00001BC8  2F10                     move.l     -[A7], [A0]
00001BCA  486E FFDE                pea.l      [A6 - 0x22]
00001BCE  486E FFDE                pea.l      [A6 - 0x22]
00001BD2  486E FFD6                pea.l      [A6 - 0x2A]
00001BD6  A817                     syscall    CopyMask
00001BD8  6000 03C8                bra        +0x3CA /* 00001FA2 */
label00001BDC:
00001BDC  486D B90C                pea.l      [A5 - 0x46F4]
00001BE0  486D B8E2                pea.l      [A5 - 0x471E]
00001BE4  486D B8FE                pea.l      [A5 - 0x4702]
00001BE8  486E FFDE                pea.l      [A6 - 0x22]
00001BEC  486E FFDE                pea.l      [A6 - 0x22]
00001BF0  486E FFD6                pea.l      [A6 - 0x2A]
00001BF4  A817                     syscall    CopyMask
00001BF6  6000 03AA                bra        +0x3AC /* 00001FA2 */
00001BFA  3014                     move.w     D0, [A4]
00001BFC  E740                     asl        D0.w, 3
00001BFE  0640 FAF2                addi.w     D0, 0xFAF2
00001C02  41F5 0000                lea.l      A0, [A5 + D0.w]
00001C06  43EE FFDE                lea.l      A1, [A6 - 0x22]
00001C0A  22D8                     move.l     [A1]+, [A0]+
00001C0C  22D8                     move.l     [A1]+, [A0]+
00001C0E  41EC 0002                lea.l      A0, [A4 + 0x2]
00001C12  43EE FFD6                lea.l      A1, [A6 - 0x2A]
00001C16  22D8                     move.l     [A1]+, [A0]+
00001C18  22D8                     move.l     [A1]+, [A0]+
00001C1A  4A2D FD97                tst.b      [A5 - 0x269]
00001C1E  672A                     beq        +0x2C /* 00001C4A */
00001C20  206D BA86                movea.l    A0, [A5 - 0x457A]
00001C24  2068 0002                movea.l    A0, [A0 + 0x2]
00001C28  2F10                     move.l     -[A7], [A0]
00001C2A  486D B8E2                pea.l      [A5 - 0x471E]
00001C2E  206D BA82                movea.l    A0, [A5 - 0x457E]
00001C32  2068 0002                movea.l    A0, [A0 + 0x2]
00001C36  2F10                     move.l     -[A7], [A0]
00001C38  486E FFDE                pea.l      [A6 - 0x22]
00001C3C  486E FFDE                pea.l      [A6 - 0x22]
00001C40  486E FFD6                pea.l      [A6 - 0x2A]
00001C44  A817                     syscall    CopyMask
00001C46  6000 035A                bra        +0x35C /* 00001FA2 */
label00001C4A:
00001C4A  486D B90C                pea.l      [A5 - 0x46F4]
00001C4E  486D B8E2                pea.l      [A5 - 0x471E]
00001C52  486D B8FE                pea.l      [A5 - 0x4702]
00001C56  486E FFDE                pea.l      [A6 - 0x22]
00001C5A  486E FFDE                pea.l      [A6 - 0x22]
00001C5E  486E FFD6                pea.l      [A6 - 0x2A]
00001C62  A817                     syscall    CopyMask
00001C64  6000 033C                bra        +0x33E /* 00001FA2 */
00001C68  3014                     move.w     D0, [A4]
00001C6A  E740                     asl        D0.w, 3
00001C6C  0640 FAF2                addi.w     D0, 0xFAF2
00001C70  41F5 0000                lea.l      A0, [A5 + D0.w]
00001C74  43EE FFDE                lea.l      A1, [A6 - 0x22]
00001C78  22D8                     move.l     [A1]+, [A0]+
00001C7A  22D8                     move.l     [A1]+, [A0]+
00001C7C  41EC 0002                lea.l      A0, [A4 + 0x2]
00001C80  43EE FFD6                lea.l      A1, [A6 - 0x2A]
00001C84  22D8                     move.l     [A1]+, [A0]+
00001C86  22D8                     move.l     [A1]+, [A0]+
00001C88  302E FFDC                move.w     D0, [A6 - 0x24]
00001C8C  906E FFD8                sub.w      D0, [A6 - 0x28]
00001C90  0C40 0010                cmpi.w     D0, 0x10
00001C94  6718                     beq        +0x1A /* 00001CAE */
00001C96  302C 0004                move.w     D0, [A4 + 0x4]
00001C9A  0640 0010                addi.w     D0, 0x10
00001C9E  3940 0008                move.w     [A4 + 0x8], D0
00001CA2  41EC 0002                lea.l      A0, [A4 + 0x2]
00001CA6  43EE FFD6                lea.l      A1, [A6 - 0x2A]
00001CAA  22D8                     move.l     [A1]+, [A0]+
00001CAC  22D8                     move.l     [A1]+, [A0]+
label00001CAE:
00001CAE  4A2D FD97                tst.b      [A5 - 0x269]
00001CB2  672A                     beq        +0x2C /* 00001CDE */
00001CB4  206D BA86                movea.l    A0, [A5 - 0x457A]
00001CB8  2068 0002                movea.l    A0, [A0 + 0x2]
00001CBC  2F10                     move.l     -[A7], [A0]
00001CBE  486D B8E2                pea.l      [A5 - 0x471E]
00001CC2  206D BA82                movea.l    A0, [A5 - 0x457E]
00001CC6  2068 0002                movea.l    A0, [A0 + 0x2]
00001CCA  2F10                     move.l     -[A7], [A0]
00001CCC  486E FFDE                pea.l      [A6 - 0x22]
00001CD0  486E FFDE                pea.l      [A6 - 0x22]
00001CD4  486E FFD6                pea.l      [A6 - 0x2A]
00001CD8  A817                     syscall    CopyMask
00001CDA  6000 02C6                bra        +0x2C8 /* 00001FA2 */
label00001CDE:
00001CDE  486D B90C                pea.l      [A5 - 0x46F4]
00001CE2  486D B8E2                pea.l      [A5 - 0x471E]
00001CE6  486D B8FE                pea.l      [A5 - 0x4702]
00001CEA  486E FFDE                pea.l      [A6 - 0x22]
00001CEE  486E FFDE                pea.l      [A6 - 0x22]
00001CF2  486E FFD6                pea.l      [A6 - 0x2A]
00001CF6  A817                     syscall    CopyMask
00001CF8  6000 02A8                bra        +0x2AA /* 00001FA2 */
00001CFC  3014                     move.w     D0, [A4]
00001CFE  E740                     asl        D0.w, 3
00001D00  0640 FAF2                addi.w     D0, 0xFAF2
00001D04  41F5 0000                lea.l      A0, [A5 + D0.w]
00001D08  43EE FFDE                lea.l      A1, [A6 - 0x22]
00001D0C  22D8                     move.l     [A1]+, [A0]+
00001D0E  22D8                     move.l     [A1]+, [A0]+
00001D10  41EC 0002                lea.l      A0, [A4 + 0x2]
00001D14  43EE FFD6                lea.l      A1, [A6 - 0x2A]
00001D18  22D8                     move.l     [A1]+, [A0]+
00001D1A  22D8                     move.l     [A1]+, [A0]+
00001D1C  4A2D FD97                tst.b      [A5 - 0x269]
00001D20  672A                     beq        +0x2C /* 00001D4C */
00001D22  206D BA86                movea.l    A0, [A5 - 0x457A]
00001D26  2068 0002                movea.l    A0, [A0 + 0x2]
00001D2A  2F10                     move.l     -[A7], [A0]
00001D2C  486D B8E2                pea.l      [A5 - 0x471E]
00001D30  206D BA82                movea.l    A0, [A5 - 0x457E]
00001D34  2068 0002                movea.l    A0, [A0 + 0x2]
00001D38  2F10                     move.l     -[A7], [A0]
00001D3A  486E FFDE                pea.l      [A6 - 0x22]
00001D3E  486E FFDE                pea.l      [A6 - 0x22]
00001D42  486E FFD6                pea.l      [A6 - 0x2A]
00001D46  A817                     syscall    CopyMask
00001D48  6000 0258                bra        +0x25A /* 00001FA2 */
label00001D4C:
00001D4C  486D B90C                pea.l      [A5 - 0x46F4]
00001D50  486D B8E2                pea.l      [A5 - 0x471E]
00001D54  486D B8FE                pea.l      [A5 - 0x4702]
00001D58  486E FFDE                pea.l      [A6 - 0x22]
00001D5C  486E FFDE                pea.l      [A6 - 0x22]
00001D60  486E FFD6                pea.l      [A6 - 0x2A]
00001D64  A817                     syscall    CopyMask
00001D66  6000 023A                bra        +0x23C /* 00001FA2 */
00001D6A  3014                     move.w     D0, [A4]
00001D6C  E740                     asl        D0.w, 3
00001D6E  0640 FAF2                addi.w     D0, 0xFAF2
00001D72  41F5 0000                lea.l      A0, [A5 + D0.w]
00001D76  43EE FFDE                lea.l      A1, [A6 - 0x22]
00001D7A  22D8                     move.l     [A1]+, [A0]+
00001D7C  22D8                     move.l     [A1]+, [A0]+
00001D7E  41EC 0002                lea.l      A0, [A4 + 0x2]
00001D82  43EE FFD6                lea.l      A1, [A6 - 0x2A]
00001D86  22D8                     move.l     [A1]+, [A0]+
00001D88  22D8                     move.l     [A1]+, [A0]+
00001D8A  4A2D FD97                tst.b      [A5 - 0x269]
00001D8E  672A                     beq        +0x2C /* 00001DBA */
00001D90  206D BA86                movea.l    A0, [A5 - 0x457A]
00001D94  2068 0002                movea.l    A0, [A0 + 0x2]
00001D98  2F10                     move.l     -[A7], [A0]
00001D9A  486D B8E2                pea.l      [A5 - 0x471E]
00001D9E  206D BA82                movea.l    A0, [A5 - 0x457E]
00001DA2  2068 0002                movea.l    A0, [A0 + 0x2]
00001DA6  2F10                     move.l     -[A7], [A0]
00001DA8  486E FFDE                pea.l      [A6 - 0x22]
00001DAC  486E FFDE                pea.l      [A6 - 0x22]
00001DB0  486E FFD6                pea.l      [A6 - 0x2A]
00001DB4  A817                     syscall    CopyMask
00001DB6  6000 01EA                bra        +0x1EC /* 00001FA2 */
label00001DBA:
00001DBA  486D B90C                pea.l      [A5 - 0x46F4]
00001DBE  486D B8E2                pea.l      [A5 - 0x471E]
00001DC2  486D B8FE                pea.l      [A5 - 0x4702]
00001DC6  486E FFDE                pea.l      [A6 - 0x22]
00001DCA  486E FFDE                pea.l      [A6 - 0x22]
00001DCE  486E FFD6                pea.l      [A6 - 0x2A]
00001DD2  A817                     syscall    CopyMask
00001DD4  6000 01CC                bra        +0x1CE /* 00001FA2 */
00001DD8  3014                     move.w     D0, [A4]
00001DDA  E740                     asl        D0.w, 3
00001DDC  0640 FAF2                addi.w     D0, 0xFAF2
00001DE0  41F5 0000                lea.l      A0, [A5 + D0.w]
00001DE4  43EE FFDE                lea.l      A1, [A6 - 0x22]
00001DE8  22D8                     move.l     [A1]+, [A0]+
00001DEA  22D8                     move.l     [A1]+, [A0]+
00001DEC  41EC 0002                lea.l      A0, [A4 + 0x2]
00001DF0  43EE FFD6                lea.l      A1, [A6 - 0x2A]
00001DF4  22D8                     move.l     [A1]+, [A0]+
00001DF6  22D8                     move.l     [A1]+, [A0]+
00001DF8  4A2D FD97                tst.b      [A5 - 0x269]
00001DFC  672A                     beq        +0x2C /* 00001E28 */
00001DFE  206D BA86                movea.l    A0, [A5 - 0x457A]
00001E02  2068 0002                movea.l    A0, [A0 + 0x2]
00001E06  2F10                     move.l     -[A7], [A0]
00001E08  486D B8E2                pea.l      [A5 - 0x471E]
00001E0C  206D BA82                movea.l    A0, [A5 - 0x457E]
00001E10  2068 0002                movea.l    A0, [A0 + 0x2]
00001E14  2F10                     move.l     -[A7], [A0]
00001E16  486E FFDE                pea.l      [A6 - 0x22]
00001E1A  486E FFDE                pea.l      [A6 - 0x22]
00001E1E  486E FFD6                pea.l      [A6 - 0x2A]
00001E22  A817                     syscall    CopyMask
00001E24  6000 017C                bra        +0x17E /* 00001FA2 */
label00001E28:
00001E28  486D B90C                pea.l      [A5 - 0x46F4]
00001E2C  486D B8E2                pea.l      [A5 - 0x471E]
00001E30  486D B8FE                pea.l      [A5 - 0x4702]
00001E34  486E FFDE                pea.l      [A6 - 0x22]
00001E38  486E FFDE                pea.l      [A6 - 0x22]
00001E3C  486E FFD6                pea.l      [A6 - 0x2A]
00001E40  A817                     syscall    CopyMask
00001E42  6000 015E                bra        +0x160 /* 00001FA2 */
00001E46  3F07                     move.w     -[A7], D7
00001E48  4EBA F2F0                jsr        [PC - 0xD10 /* 0000113A */]
00001E4C  6000 0154                bra        +0x156 /* 00001FA2 */
00001E50  3F07                     move.w     -[A7], D7
00001E52  4EBA ECFA                jsr        [PC - 0x1306 /* 00000B4E */]
00001E56  6000 014A                bra        +0x14C /* 00001FA2 */
00001E5A  3014                     move.w     D0, [A4]
00001E5C  E740                     asl        D0.w, 3
00001E5E  0640 FAF2                addi.w     D0, 0xFAF2
00001E62  41F5 0000                lea.l      A0, [A5 + D0.w]
00001E66  43EE FFDE                lea.l      A1, [A6 - 0x22]
00001E6A  22D8                     move.l     [A1]+, [A0]+
00001E6C  22D8                     move.l     [A1]+, [A0]+
00001E6E  41EC 0002                lea.l      A0, [A4 + 0x2]
00001E72  43EE FFD6                lea.l      A1, [A6 - 0x2A]
00001E76  22D8                     move.l     [A1]+, [A0]+
00001E78  22D8                     move.l     [A1]+, [A0]+
00001E7A  4A2D FD97                tst.b      [A5 - 0x269]
00001E7E  6726                     beq        +0x28 /* 00001EA6 */
00001E80  206D BA86                movea.l    A0, [A5 - 0x457A]
00001E84  2068 0002                movea.l    A0, [A0 + 0x2]
00001E88  2F10                     move.l     -[A7], [A0]
00001E8A  206D BA82                movea.l    A0, [A5 - 0x457E]
00001E8E  2068 0002                movea.l    A0, [A0 + 0x2]
00001E92  2F10                     move.l     -[A7], [A0]
00001E94  486E FFDE                pea.l      [A6 - 0x22]
00001E98  486E FFD6                pea.l      [A6 - 0x2A]
00001E9C  4267                     clr.w      -[A7]
00001E9E  42A7                     clr.l      -[A7]
00001EA0  A8EC                     syscall    CopyBits
00001EA2  6000 00FE                bra        +0x100 /* 00001FA2 */
label00001EA6:
00001EA6  486D B90C                pea.l      [A5 - 0x46F4]
00001EAA  486D B8FE                pea.l      [A5 - 0x4702]
00001EAE  486E FFDE                pea.l      [A6 - 0x22]
00001EB2  486E FFD6                pea.l      [A6 - 0x2A]
00001EB6  4267                     clr.w      -[A7]
00001EB8  42A7                     clr.l      -[A7]
00001EBA  A8EC                     syscall    CopyBits
00001EBC  6000 00E4                bra        +0xE6 /* 00001FA2 */
00001EC0  3014                     move.w     D0, [A4]
00001EC2  E740                     asl        D0.w, 3
00001EC4  0640 FAF2                addi.w     D0, 0xFAF2
00001EC8  41F5 0000                lea.l      A0, [A5 + D0.w]
00001ECC  43EE FFDE                lea.l      A1, [A6 - 0x22]
00001ED0  22D8                     move.l     [A1]+, [A0]+
00001ED2  22D8                     move.l     [A1]+, [A0]+
00001ED4  41EC 0002                lea.l      A0, [A4 + 0x2]
00001ED8  43EE FFD6                lea.l      A1, [A6 - 0x2A]
00001EDC  22D8                     move.l     [A1]+, [A0]+
00001EDE  22D8                     move.l     [A1]+, [A0]+
00001EE0  4A2D FD97                tst.b      [A5 - 0x269]
00001EE4  672A                     beq        +0x2C /* 00001F10 */
00001EE6  206D BA86                movea.l    A0, [A5 - 0x457A]
00001EEA  2068 0002                movea.l    A0, [A0 + 0x2]
00001EEE  2F10                     move.l     -[A7], [A0]
00001EF0  486D B8E2                pea.l      [A5 - 0x471E]
00001EF4  206D BA82                movea.l    A0, [A5 - 0x457E]
00001EF8  2068 0002                movea.l    A0, [A0 + 0x2]
00001EFC  2F10                     move.l     -[A7], [A0]
00001EFE  486E FFDE                pea.l      [A6 - 0x22]
00001F02  486E FFDE                pea.l      [A6 - 0x22]
00001F06  486E FFD6                pea.l      [A6 - 0x2A]
00001F0A  A817                     syscall    CopyMask
00001F0C  6000 0094                bra        +0x96 /* 00001FA2 */
label00001F10:
00001F10  486D B90C                pea.l      [A5 - 0x46F4]
00001F14  486D B8E2                pea.l      [A5 - 0x471E]
00001F18  486D B8FE                pea.l      [A5 - 0x4702]
00001F1C  486E FFDE                pea.l      [A6 - 0x22]
00001F20  486E FFDE                pea.l      [A6 - 0x22]
00001F24  486E FFD6                pea.l      [A6 - 0x2A]
00001F28  A817                     syscall    CopyMask
00001F2A  6000 0076                bra        +0x78 /* 00001FA2 */
00001F2E  3F07                     move.w     -[A7], D7
00001F30  4EBA F822                jsr        [PC - 0x7DE /* 00001754 */]
00001F34  606C                     bra        +0x6E /* 00001FA2 */
label00001F36:
00001F36  5340                     subq.w     D0, 1
00001F38  0C40 002D                cmpi.w     D0, 0x2D /* '-' */
00001F3C  6464                     bcc        +0x66 /* 00001FA2 */
00001F3E  D040                     add.w      D0, D0
00001F40  303B 0006                move.w     D0, [PC + D0.w + 0x6]
00001F44  4EFB 0002                jmp        [PC + D0.w + 0x2]
00001F48  FAAE FAB8                .extension 0xAAE <<F/2-3/5>> // unimplemented
00001F4C  FACC FAC2                .extension 0xACC <<F/2-3/5>> // unimplemented
00001F50  FB3A                     .extension 0xB3A <<F/4-5/5>> // unimplemented
00001F52  FB48                     .extension 0xB48 <<F/4-5/5>> // unimplemented
00001F54  005A FB54                ori.w      [A2]+, 0xFB54
00001F58  FB54                     .extension 0xB54 <<F/4-5/5>> // unimplemented
00001F5A  FB54                     .extension 0xB54 <<F/4-5/5>> // unimplemented
00001F5C  FB54                     .extension 0xB54 <<F/4-5/5>> // unimplemented
00001F5E  FBC2                     .invalid   <<F/7/5>>
00001F60  FBC2                     .invalid   <<F/7/5>>
00001F62  005A 005A                ori.w      [A2]+, 0x5A /* 'Z' */
00001F66  FCB2 FCB2                .extension 0xCB2 <<F/2-3/6>> // unimplemented
00001F6A  FC30 FB3A                .unknown   0xFC30 0xFB3A (W = 6)
00001F6E  FCB2 FCB2                .extension 0xCB2 <<F/2-3/6>> // unimplemented
00001F72  005A 005A                ori.w      [A2]+, 0x5A /* 'Z' */
00001F76  FD20                     .extension 0xD20 <<F/4-5/6>> // unimplemented
00001F78  FDB4                     .invalid   <<F/6/6>>
00001F7A  FD20                     .extension 0xD20 <<F/4-5/6>> // unimplemented
00001F7C  FDB4                     .invalid   <<F/6/6>>
00001F7E  FD20                     .extension 0xD20 <<F/4-5/6>> // unimplemented
00001F80  FDB4                     .invalid   <<F/6/6>>
00001F82  005A 005A                ori.w      [A2]+, 0x5A /* 'Z' */
00001F86  FE90 FE22                .extension 0xE90 <<F/2-3/7>> // unimplemented
00001F8A  FE22 FE22                .unknown   0xFE22 0xFE22 (W = 7)
00001F8E  FE22 FEFE                .unknown   0xFE22 0xFEFE (W = 7)
00001F92  005A 005A                ori.w      [A2]+, 0x5A /* 'Z' */
00001F96  FF12                     .extension 0xF12 <<F/4-5/7>> // unimplemented
00001F98  FF08                     .extension 0xF08 <<F/4-5/7>> // unimplemented
00001F9A  FF78                     .extension 0xF78 <<F/4-5/7>> // unimplemented
00001F9C  FF78                     .extension 0xF78 <<F/4-5/7>> // unimplemented
00001F9E  FFE6                     .invalid   <<F/7/7>>
00001FA0  FFE6                     .invalid   <<F/7/7>>
label00001FA2:
00001FA2  5247                     addq.w     D7, 1
00001FA4  6908                     bvs        +0xA /* 00001FAE */
label00001FA6:
00001FA6  BE6E FFCC                cmp.w      D7, [A6 - 0x34]
00001FAA  6F00 FA38                ble        -0x5C6 /* 000019E4 */
label00001FAE:
00001FAE  4A2D FD97                tst.b      [A5 - 0x269]
00001FB2  6728                     beq        +0x2A /* 00001FDC */
00001FB4  206D BA82                movea.l    A0, [A5 - 0x457E]
00001FB8  2068 0002                movea.l    A0, [A0 + 0x2]
00001FBC  2F10                     move.l     -[A7], [A0]
00001FBE  206D B8B2                movea.l    A0, [A5 - 0x474E]
00001FC2  4868 0002                pea.l      [A0 + 0x2]
00001FC6  486D B8C6                pea.l      [A5 - 0x473A]
00001FCA  486D B8C6                pea.l      [A5 - 0x473A]
00001FCE  4267                     clr.w      -[A7]
00001FD0  206D B8B2                movea.l    A0, [A5 - 0x474E]
00001FD4  2F28 0018                move.l     -[A7], [A0 + 0x18]
00001FD8  A8EC                     syscall    CopyBits
00001FDA  6020                     bra        +0x22 /* 00001FFC */
label00001FDC:
00001FDC  486D B8FE                pea.l      [A5 - 0x4702]
00001FE0  206D B8B2                movea.l    A0, [A5 - 0x474E]
00001FE4  4868 0002                pea.l      [A0 + 0x2]
00001FE8  486D B8C6                pea.l      [A5 - 0x473A]
00001FEC  486D B8C6                pea.l      [A5 - 0x473A]
00001FF0  4267                     clr.w      -[A7]
00001FF2  206D B8B2                movea.l    A0, [A5 - 0x474E]
00001FF6  2F28 0018                move.l     -[A7], [A0 + 0x18]
00001FFA  A8EC                     syscall    CopyBits
label00001FFC:
00001FFC  4A46                     tst.w      D6
00001FFE  6708                     beq        +0xA /* 00002008 */
00002000  3B46 BB3E                move.w     [A5 - 0x44C2], D6
00002004  4EAD 025A                jsr        [A5 + 0x25A /* export_71, CODE:5 @ 000006B2 */]
label00002008:
00002008  4AAD B8B6                tst.l      [A5 - 0x474A]
0000200C  6708                     beq        +0xA /* 00002016 */
0000200E  2F2D B8B6                move.l     -[A7], [A5 - 0x474A]
00002012  A873                     syscall    SetPort
00002014  6006                     bra        +0x8 /* 0000201C */
label00002016:
00002016  2F2E FFEC                move.l     -[A7], [A6 - 0x14]
0000201A  A873                     syscall    SetPort
label0000201C:
0000201C  4CDF 10E0                movem.l    D5,D6,D7,A4, [A7]+
00002020  4E5E                     unlink     A6
00002022  4E75                     rts
export_45:
00002024  4E56 FFEC                link       A6, -0x0014
00002028  2F07                     move.l     -[A7], D7
0000202A  422E 0008                clr.b      [A6 + 0x8]
0000202E  302D BB3A                move.w     D0, [A5 - 0x44C6]
00002032  B06D BBEE                cmp.w      D0, [A5 - 0x4412]
00002036  6C3E                     bge        +0x40 /* 00002076 */
00002038  3D6D BBEE FFEC           move.w     [A6 - 0x14], [A5 - 0x4412]
0000203E  3E2D BB3A                move.w     D7, [A5 - 0x44C6]
00002042  602C                     bra        +0x2E /* 00002070 */
label00002044:
00002044  3007                     move.w     D0, D7
00002046  5240                     addq.w     D0, 1
00002048  C1FC 013A                muls.w     D0, 0x13A
0000204C  3207                     move.w     D1, D7
0000204E  C3FC 013A                muls.w     D1, 0x13A
00002052  0640 BFA8                addi.w     D0, 0xBFA8
00002056  41F5 0000                lea.l      A0, [A5 + D0.w]
0000205A  0641 BFA8                addi.w     D1, 0xBFA8
0000205E  43F5 1000                lea.l      A1, [A5 + D1.w]
00002062  704D                     moveq.l    D0, 0x4D
label00002064:
00002064  22D8                     move.l     [A1]+, [A0]+
00002066  51C8 FFFC                dbf        D0, -0x6 /* 00002064 */
0000206A  32D8                     move.w     [A1]+, [A0]+
0000206C  5247                     addq.w     D7, 1
0000206E  6906                     bvs        +0x8 /* 00002076 */
label00002070:
00002070  BE6E FFEC                cmp.w      D7, [A6 - 0x14]
00002074  6FCE                     ble        -0x30 /* 00002044 */
label00002076:
00002076  302D BBEE                move.w     D0, [A5 - 0x4412]
0000207A  5340                     subq.w     D0, 1
0000207C  3B40 BBEE                move.w     [A5 - 0x4412], D0
00002080  0C6D 0001 BB3A           cmpi.w     [A5 - 0x44C6], 0x1
00002086  6F0C                     ble        +0xE /* 00002094 */
00002088  302D BB3A                move.w     D0, [A5 - 0x44C6]
0000208C  5340                     subq.w     D0, 1
0000208E  3B40 BB3A                move.w     [A5 - 0x44C6], D0
00002092  6016                     bra        +0x18 /* 000020AA */
label00002094:
00002094  3B7C 0001 BB3A           move.w     [A5 - 0x44C6], 0x1
0000209A  0C6D 0001 BBEE           cmpi.w     [A5 - 0x4412], 0x1
000020A0  6E08                     bgt        +0xA /* 000020AA */
000020A2  3B7C 0001 BBEE           move.w     [A5 - 0x4412], 0x1
000020A8  6006                     bra        +0x8 /* 000020B0 */
label000020AA:
000020AA  1D7C 0001 0008           move.b     [A6 + 0x8], 0x1
label000020B0:
000020B0  2E1F                     move.l     D7, [A7]+
000020B2  4E5E                     unlink     A6
000020B4  4E75                     rts
export_46:
000020B6  4E56 FFEC                link       A6, -0x0014
000020BA  2F07                     move.l     -[A7], D7
000020BC  422E 0008                clr.b      [A6 + 0x8]
000020C0  0C6D 0028 BBEE           cmpi.w     [A5 - 0x4412], 0x28 /* '(' */
000020C6  6D0C                     blt        +0xE /* 000020D4 */
000020C8  3F3C 000A                move.w     -[A7], 0xA /* '\n' */
000020CC  4EAD 0272                jsr        [A5 + 0x272 /* export_74, CODE:5 @ 00000A50 */]
000020D0  6000 00C2                bra        +0xC4 /* 00002194 */
label000020D4:
000020D4  302D BB3A                move.w     D0, [A5 - 0x44C6]
000020D8  C1FC 013A                muls.w     D0, 0x13A
000020DC  41ED F1F2                lea.l      A0, [A5 - 0xE0E]
000020E0  0640 BFA8                addi.w     D0, 0xBFA8
000020E4  43F5 0000                lea.l      A1, [A5 + D0.w]
000020E8  704D                     moveq.l    D0, 0x4D
label000020EA:
000020EA  22D8                     move.l     [A1]+, [A0]+
000020EC  51C8 FFFC                dbf        D0, -0x6 /* 000020EA */
000020F0  32D8                     move.w     [A1]+, [A0]+
000020F2  302D BB3A                move.w     D0, [A5 - 0x44C6]
000020F6  B06D BBEE                cmp.w      D0, [A5 - 0x4412]
000020FA  6C42                     bge        +0x44 /* 0000213E */
000020FC  302D BB3A                move.w     D0, [A5 - 0x44C6]
00002100  5240                     addq.w     D0, 1
00002102  3D40 FFEC                move.w     [A6 - 0x14], D0
00002106  3E2D BBEE                move.w     D7, [A5 - 0x4412]
0000210A  602C                     bra        +0x2E /* 00002138 */
label0000210C:
0000210C  3007                     move.w     D0, D7
0000210E  C1FC 013A                muls.w     D0, 0x13A
00002112  3207                     move.w     D1, D7
00002114  5241                     addq.w     D1, 1
00002116  C3FC 013A                muls.w     D1, 0x13A
0000211A  0640 BFA8                addi.w     D0, 0xBFA8
0000211E  41F5 0000                lea.l      A0, [A5 + D0.w]
00002122  0641 BFA8                addi.w     D1, 0xBFA8
00002126  43F5 1000                lea.l      A1, [A5 + D1.w]
0000212A  704D                     moveq.l    D0, 0x4D
label0000212C:
0000212C  22D8                     move.l     [A1]+, [A0]+
0000212E  51C8 FFFC                dbf        D0, -0x6 /* 0000212C */
00002132  32D8                     move.w     [A1]+, [A0]+
00002134  5347                     subq.w     D7, 1
00002136  6906                     bvs        +0x8 /* 0000213E */
label00002138:
00002138  BE6E FFEC                cmp.w      D7, [A6 - 0x14]
0000213C  6CCE                     bge        -0x30 /* 0000210C */
label0000213E:
0000213E  302D BB3A                move.w     D0, [A5 - 0x44C6]
00002142  5240                     addq.w     D0, 1
00002144  3B40 BB3A                move.w     [A5 - 0x44C6], D0
00002148  302D BB3A                move.w     D0, [A5 - 0x44C6]
0000214C  C1FC 013A                muls.w     D0, 0x13A
00002150  41ED F32C                lea.l      A0, [A5 - 0xCD4]
00002154  0640 BFA8                addi.w     D0, 0xBFA8
00002158  43F5 0000                lea.l      A1, [A5 + D0.w]
0000215C  704D                     moveq.l    D0, 0x4D
label0000215E:
0000215E  22D8                     move.l     [A1]+, [A0]+
00002160  51C8 FFFC                dbf        D0, -0x6 /* 0000215E */
00002164  32D8                     move.w     [A1]+, [A0]+
00002166  302D BB3A                move.w     D0, [A5 - 0x44C6]
0000216A  C1FC 013A                muls.w     D0, 0x13A
0000216E  0640 BFA8                addi.w     D0, 0xBFA8
00002172  41F5 0000                lea.l      A0, [A5 + D0.w]
00002176  43ED F1F2                lea.l      A1, [A5 - 0xE0E]
0000217A  704D                     moveq.l    D0, 0x4D
label0000217C:
0000217C  22D8                     move.l     [A1]+, [A0]+
0000217E  51C8 FFFC                dbf        D0, -0x6 /* 0000217C */
00002182  32D8                     move.w     [A1]+, [A0]+
00002184  302D BBEE                move.w     D0, [A5 - 0x4412]
00002188  5240                     addq.w     D0, 1
0000218A  3B40 BBEE                move.w     [A5 - 0x4412], D0
0000218E  1D7C 0001 0008           move.b     [A6 + 0x8], 0x1
label00002194:
00002194  2E1F                     move.l     D7, [A7]+
00002196  4E5E                     unlink     A6
00002198  4E75                     rts
fn0000219A:
0000219A  4E56 FFEE                link       A6, -0x0012
0000219E  2F07                     move.l     -[A7], D7
000021A0  4247                     clr.w      D7
label000021A2:
000021A2  3007                     move.w     D0, D7
000021A4  E540                     asl        D0.w, 2
000021A6  0640 BBF4                addi.w     D0, 0xBBF4
000021AA  42B5 0000                clr.l      [A5 + D0.w]
000021AE  3007                     move.w     D0, D7
000021B0  D040                     add.w      D0, D0
000021B2  0640 BC44                addi.w     D0, 0xBC44
000021B6  4275 0000                clr.w      [A5 + D0.w]
000021BA  3007                     move.w     D0, D7
000021BC  C1FC 001A                muls.w     D0, 0x1A
000021C0  41FA 0042                lea.l      A0, [PC + 0x42 /* 00002204, value 0x96E6F20 '\tno ', pstring "no one..." */]
000021C4  0640 BC6C                addi.w     D0, 0xBC6C
000021C8  43F5 0000                lea.l      A1, [A5 + D0.w]
000021CC  22D8                     move.l     [A1]+, [A0]+
000021CE  22D8                     move.l     [A1]+, [A0]+
000021D0  22D8                     move.l     [A1]+, [A0]+
000021D2  3007                     move.w     D0, D7
000021D4  C1FC 001A                muls.w     D0, 0x1A
000021D8  41FA 001E                lea.l      A0, [PC + 0x1E /* 000021F8, value 0xA6E6F20 '\nno ', pstring "no room..." */]
000021DC  0640 BE74                addi.w     D0, 0xBE74
000021E0  43F5 0000                lea.l      A1, [A5 + D0.w]
000021E4  22D8                     move.l     [A1]+, [A0]+
000021E6  22D8                     move.l     [A1]+, [A0]+
000021E8  22D8                     move.l     [A1]+, [A0]+
000021EA  5247                     addq.w     D7, 1
000021EC  0C47 0013                cmpi.w     D7, 0x13
000021F0  6FB0                     ble        -0x4E /* 000021A2 */
000021F2  2E1F                     move.l     D7, [A7]+
000021F4  4E5E                     unlink     A6
000021F6  4E75                     rts
000021F8  0A6E 6F20 726F           xori.w     [A6 + 0x726F], 0x6F20 /* 'o ' */
000021FE  6F6D                     ble        +0x6F /* 0000226D */
00002200  2E2E 2E08                move.l     D7, [A6 + 0x2E08]
00002204  096E 6F20                bchg       [A6 + 0x6F20], D4
00002208  6F6E                     ble        +0x70 /* 00002278 */
0000220A  652E                     bcs        +0x30 /* 0000223A */
0000220C  2E2E 4E56                move.l     D7, [A6 + 0x4E56]
// begin alternate branch 0000220E-00002212
fn0000220E:
0000220E  4E56 FFE6                link       A6, -0x001A
// end alternate branch 0000220E-00002212
fn0000220E: // (misaligned)
00002210  FFE6                     .invalid   <<F/7/7>>
00002212  48E7 0118                movem.l    -[A7], D7,A3,A4
00002216  286E 0008                movea.l    A4, [A6 + 0x8]
0000221A  2F2C FFEA                move.l     -[A7], [A4 - 0x16]
0000221E  A873                     syscall    SetPort
00002220  2F2C FFEA                move.l     -[A7], [A4 - 0x16]
00002224  3F3C 0001                move.w     -[A7], 0x1
00002228  486C FFDC                pea.l      [A4 - 0x24]
0000222C  486C FFCE                pea.l      [A4 - 0x32]
00002230  486C FFDE                pea.l      [A4 - 0x22]
00002234  A98D                     syscall    GetDialogItem/GetDItem
00002236  3F3C 0003                move.w     -[A7], 0x3
label0000223A:
0000223A  3F3C 0003                move.w     -[A7], 0x3
0000223E  A89B                     syscall    PenSize
00002240  486C FFDE                pea.l      [A4 - 0x22]
00002244  3F3C FFFC                move.w     -[A7], 0xFFFC
00002248  3F3C FFFC                move.w     -[A7], 0xFFFC
0000224C  A8A9                     syscall    InsetRect
0000224E  486C FFDE                pea.l      [A4 - 0x22]
00002252  3F3C 0010                move.w     -[A7], 0x10
00002256  3F3C 0010                move.w     -[A7], 0x10
0000225A  A8B0                     syscall    FrameRoundRect
0000225C  A89E                     syscall    PenNormal
0000225E  206C FFEA                movea.l    A0, [A4 - 0x16]
00002262  47E8 0010                lea.l      A3, [A0 + 0x10]
00002266  3E2B 0006                move.w     D7, [A3 + 0x6]
0000226A  9E6B 0002                sub.w      D7, [A3 + 0x2]
0000226E  3F3C 0004                move.w     -[A7], 0x4
00002272  3F3C 0026                move.w     -[A7], 0x26 /* '&' */
00002276  A893                     syscall    MoveTo
label00002278:
00002278  3007                     move.w     D0, D7
0000227A  5140                     subq.w     D0, 8
0000227C  3F00                     move.w     -[A7], D0
0000227E  4267                     clr.w      -[A7]
00002280  A892                     syscall    Line
00002282  3F3C 0004                move.w     -[A7], 0x4
00002286  3F3C 0028                move.w     -[A7], 0x28 /* '(' */
0000228A  A893                     syscall    MoveTo
0000228C  3007                     move.w     D0, D7
0000228E  5140                     subq.w     D0, 8
00002290  3F00                     move.w     -[A7], D0
00002292  4267                     clr.w      -[A7]
00002294  A892                     syscall    Line
00002296  486D BAF8                pea.l      [A5 - 0x4508]
0000229A  A976                     syscall    GetKeys
0000229C  7037                     moveq.l    D0, 0x37
0000229E  3200                     move.w     D1, D0
000022A0  E649                     lsr        D1.w, 3
000022A2  0641 BAF8                addi.w     D1, 0xBAF8
000022A6  0135 1000                btst       [A5 + D1.w], D0
000022AA  671C                     beq        +0x1E /* 000022C8 */
000022AC  3F3C 0005                move.w     -[A7], 0x5
000022B0  3F3C 0025                move.w     -[A7], 0x25 /* '%' */
000022B4  A893                     syscall    MoveTo
000022B6  2F2D BBF0                move.l     -[A7], [A5 - 0x4410]
000022BA  486C FEC6                pea.l      [A4 - 0x13A]
000022BE  4EAD 0122                jsr        [A5 + 0x122 /* export_32, CODE:1 @ 0000079C */]
000022C2  486C FEC6                pea.l      [A4 - 0x13A]
000022C6  A884                     syscall    DrawString
label000022C8:
000022C8  4CDF 1880                movem.l    D7,A3,A4, [A7]+
000022CC  4E5E                     unlink     A6
000022CE  2E9F                     move.l     [A7], [A7]+
000022D0  4E75                     rts
export_47:
000022D2  4E56 FCC6                link       A6, -0x033A
000022D6  48E7 1F08                movem.l    -[A7], D3,D4,D5,D6,D7,A4
000022DA  486E FFE6                pea.l      [A6 - 0x1A]
000022DE  A874                     syscall    GetPort
000022E0  594F                     subq.w     A7, 4
000022E2  3F3C 0086                move.w     -[A7], 0x86
000022E6  42A7                     clr.l      -[A7]
000022E8  70FF                     moveq.l    D0, 0xFFFFFFFF
000022EA  2F00                     move.l     -[A7], D0
000022EC  A97C                     syscall    GetNewDialog
000022EE  2D5F FFEA                move.l     [A6 - 0x16], [A7]+
000022F2  206E FFEA                movea.l    A0, [A6 - 0x16]
000022F6  49E8 0002                lea.l      A4, [A0 + 0x2]
000022FA  362D BB40                move.w     D3, [A5 - 0x44C0]
000022FE  966C 0008                sub.w      D3, [A4 + 0x8]
00002302  382D BB42                move.w     D4, [A5 - 0x44BE]
00002306  986C 0006                sub.w      D4, [A4 + 0x6]
0000230A  2F2E FFEA                move.l     -[A7], [A6 - 0x16]
0000230E  3F03                     move.w     -[A7], D3
00002310  3F04                     move.w     -[A7], D4
00002312  4227                     clr.b      -[A7]
00002314  A91B                     syscall    MoveWindow
00002316  2F2E FFEA                move.l     -[A7], [A6 - 0x16]
0000231A  A915                     syscall    ShowWindow
0000231C  2F2E FFEA                move.l     -[A7], [A6 - 0x16]
00002320  A91F                     syscall    SelectWindow
00002322  2F2E FFEA                move.l     -[A7], [A6 - 0x16]
00002326  A873                     syscall    SetPort
00002328  2F2E FFEA                move.l     -[A7], [A6 - 0x16]
0000232C  3F3C 0002                move.w     -[A7], 0x2
00002330  486E FFDC                pea.l      [A6 - 0x24]
00002334  486E FFCE                pea.l      [A6 - 0x32]
00002338  486E FFDE                pea.l      [A6 - 0x22]
0000233C  A98D                     syscall    GetDialogItem/GetDItem
0000233E  2F2E FFCE                move.l     -[A7], [A6 - 0x32]
00002342  486D BB98                pea.l      [A5 - 0x4468]
00002346  A98F                     syscall    SetDialogItemText/SetIText
00002348  302D BBEE                move.w     D0, [A5 - 0x4412]
0000234C  48C0                     ext.l      D0
0000234E  2F00                     move.l     -[A7], D0
00002350  486E FEC6                pea.l      [A6 - 0x13A]
00002354  4EAD 0122                jsr        [A5 + 0x122 /* export_32, CODE:1 @ 0000079C */]
00002358  2F2E FFEA                move.l     -[A7], [A6 - 0x16]
0000235C  3F3C 0003                move.w     -[A7], 0x3
00002360  486E FFDC                pea.l      [A6 - 0x24]
00002364  486E FFCE                pea.l      [A6 - 0x32]
00002368  486E FFDE                pea.l      [A6 - 0x22]
0000236C  A98D                     syscall    GetDialogItem/GetDItem
0000236E  2F2E FFCE                move.l     -[A7], [A6 - 0x32]
00002372  486E FEC6                pea.l      [A6 - 0x13A]
00002376  A98F                     syscall    SetDialogItemText/SetIText
00002378  3C2D BBEC                move.w     D6, [A5 - 0x4414]
0000237C  48C6                     ext.l      D6
0000237E  8DFC 0100                divs.w     D6, 0x100
00002382  3006                     move.w     D0, D6
00002384  48C0                     ext.l      D0
00002386  2F00                     move.l     -[A7], D0
00002388  486E FEC6                pea.l      [A6 - 0x13A]
0000238C  4EAD 0122                jsr        [A5 + 0x122 /* export_32, CODE:1 @ 0000079C */]
00002390  3C2D BBEC                move.w     D6, [A5 - 0x4414]
00002394  48C6                     ext.l      D6
00002396  8DFC 0100                divs.w     D6, 0x100
0000239A  4846                     swap.w     D6
0000239C  3006                     move.w     D0, D6
0000239E  48C0                     ext.l      D0
000023A0  2F00                     move.l     -[A7], D0
000023A2  486E FDC6                pea.l      [A6 - 0x23A]
000023A6  4EAD 0122                jsr        [A5 + 0x122 /* export_32, CODE:1 @ 0000079C */]
000023AA  486E FCC6                pea.l      [A6 - 0x33A]
000023AE  486E FEC6                pea.l      [A6 - 0x13A]
000023B2  487A 01D4                pea.l      [PC + 0x1D4 /* 00002588, value 0x12E4E56 */]
000023B6  486E FDC6                pea.l      [A6 - 0x23A]
000023BA  3F3C 0003                move.w     -[A7], 0x3
000023BE  4EAD 0132                jsr        [A5 + 0x132 /* export_34, CODE:1 @ 000007AE */]
000023C2  584F                     addq.w     A7, 4
000023C4  3F3C 00FF                move.w     -[A7], 0xFF
000023C8  486E FCC6                pea.l      [A6 - 0x33A]
000023CC  486E FEC6                pea.l      [A6 - 0x13A]
000023D0  4EAD 015A                jsr        [A5 + 0x15A /* export_39, CODE:1 @ 00000A28 */]
000023D4  2F2E FFEA                move.l     -[A7], [A6 - 0x16]
000023D8  3F3C 0004                move.w     -[A7], 0x4
000023DC  486E FFDC                pea.l      [A6 - 0x24]
000023E0  486E FFCE                pea.l      [A6 - 0x32]
000023E4  486E FFDE                pea.l      [A6 - 0x22]
000023E8  A98D                     syscall    GetDialogItem/GetDItem
000023EA  2F2E FFCE                move.l     -[A7], [A6 - 0x32]
000023EE  486E FEC6                pea.l      [A6 - 0x13A]
000023F2  A98F                     syscall    SetDialogItemText/SetIText
000023F4  2F2E FFEA                move.l     -[A7], [A6 - 0x16]
000023F8  3F3C 0005                move.w     -[A7], 0x5
000023FC  486E FFDC                pea.l      [A6 - 0x24]
00002400  486E FFCE                pea.l      [A6 - 0x32]
00002404  486E FFDE                pea.l      [A6 - 0x22]
00002408  A98D                     syscall    GetDialogItem/GetDItem
0000240A  2F2E FFCE                move.l     -[A7], [A6 - 0x32]
0000240E  486D C07C                pea.l      [A5 - 0x3F84]
00002412  A98F                     syscall    SetDialogItemText/SetIText
00002414  2F2E FFEA                move.l     -[A7], [A6 - 0x16]
00002418  3F3C 0006                move.w     -[A7], 0x6
0000241C  486E FFDC                pea.l      [A6 - 0x24]
00002420  486E FFCE                pea.l      [A6 - 0x32]
00002424  486E FFDE                pea.l      [A6 - 0x22]
00002428  A98D                     syscall    GetDialogItem/GetDItem
0000242A  2F2E FFCE                move.l     -[A7], [A6 - 0x32]
0000242E  486D C0C0                pea.l      [A5 - 0x3F40]
00002432  A98F                     syscall    SetDialogItemText/SetIText
00002434  2F2E FFEA                move.l     -[A7], [A6 - 0x16]
00002438  3F3C 0007                move.w     -[A7], 0x7
0000243C  486E FFDC                pea.l      [A6 - 0x24]
00002440  486E FFCE                pea.l      [A6 - 0x32]
00002444  486E FFDE                pea.l      [A6 - 0x22]
00002448  A98D                     syscall    GetDialogItem/GetDItem
0000244A  2F2E FFCE                move.l     -[A7], [A6 - 0x32]
0000244E  486D C09E                pea.l      [A5 - 0x3F62]
00002452  A98F                     syscall    SetDialogItemText/SetIText
00002454  1A2D FDA0                move.b     D5, [A5 - 0x260]
00002458  2F0E                     move.l     -[A7], A6
0000245A  4EBA FDB2                jsr        [PC - 0x24E /* 0000220E */]
0000245E  4207                     clr.b      D7
00002460  2F2E FFEA                move.l     -[A7], [A6 - 0x16]
00002464  3F3C 0007                move.w     -[A7], 0x7
00002468  4267                     clr.w      -[A7]
0000246A  3F3C 0020                move.w     -[A7], 0x20 /* ' ' */
0000246E  A97E                     syscall    SelectDialogItemText/SelIText
label00002470:
00002470  42A7                     clr.l      -[A7]
00002472  486E FFD8                pea.l      [A6 - 0x28]
00002476  A991                     syscall    ModalDialog
00002478  2F2E FFEA                move.l     -[A7], [A6 - 0x16]
0000247C  3F2E FFD8                move.w     -[A7], [A6 - 0x28]
00002480  486E FFDC                pea.l      [A6 - 0x24]
00002484  486E FFCE                pea.l      [A6 - 0x32]
00002488  486E FFDE                pea.l      [A6 - 0x22]
0000248C  A98D                     syscall    GetDialogItem/GetDItem
0000248E  0C6E 0001 FFD8           cmpi.w     [A6 - 0x28], 0x1
00002494  6600 009A                bne        +0x9C /* 00002530 */
00002498  7E01                     moveq.l    D7, 0x01
0000249A  2F2E FFEA                move.l     -[A7], [A6 - 0x16]
0000249E  3F3C 0006                move.w     -[A7], 0x6
000024A2  486E FFDC                pea.l      [A6 - 0x24]
000024A6  486E FFCE                pea.l      [A6 - 0x32]
000024AA  486E FFDE                pea.l      [A6 - 0x22]
000024AE  A98D                     syscall    GetDialogItem/GetDItem
000024B0  2F2E FFCE                move.l     -[A7], [A6 - 0x32]
000024B4  486E FEC6                pea.l      [A6 - 0x13A]
000024B8  A990                     syscall    GetDialogItemText/GetIText
000024BA  486E FCC6                pea.l      [A6 - 0x33A]
000024BE  486E FEC6                pea.l      [A6 - 0x13A]
000024C2  3F3C 0001                move.w     -[A7], 0x1
000024C6  3F3C 0020                move.w     -[A7], 0x20 /* ' ' */
000024CA  4EAD 013A                jsr        [A5 + 0x13A /* export_35, CODE:1 @ 000007F6 */]
000024CE  584F                     addq.w     A7, 4
000024D0  3F3C 0020                move.w     -[A7], 0x20 /* ' ' */
000024D4  486E FCC6                pea.l      [A6 - 0x33A]
000024D8  486D C0C0                pea.l      [A5 - 0x3F40]
000024DC  4EAD 015A                jsr        [A5 + 0x15A /* export_39, CODE:1 @ 00000A28 */]
000024E0  2F2E FFEA                move.l     -[A7], [A6 - 0x16]
000024E4  3F3C 0007                move.w     -[A7], 0x7
000024E8  486E FFDC                pea.l      [A6 - 0x24]
000024EC  486E FFCE                pea.l      [A6 - 0x32]
000024F0  486E FFDE                pea.l      [A6 - 0x22]
000024F4  A98D                     syscall    GetDialogItem/GetDItem
000024F6  2F2E FFCE                move.l     -[A7], [A6 - 0x32]
000024FA  486E FEC6                pea.l      [A6 - 0x13A]
000024FE  A990                     syscall    GetDialogItemText/GetIText
00002500  486E FCC6                pea.l      [A6 - 0x33A]
00002504  486E FEC6                pea.l      [A6 - 0x13A]
00002508  3F3C 0001                move.w     -[A7], 0x1
0000250C  3F3C 0020                move.w     -[A7], 0x20 /* ' ' */
00002510  4EAD 013A                jsr        [A5 + 0x13A /* export_35, CODE:1 @ 000007F6 */]
00002514  584F                     addq.w     A7, 4
00002516  3F3C 0020                move.w     -[A7], 0x20 /* ' ' */
0000251A  486E FCC6                pea.l      [A6 - 0x33A]
0000251E  486D C09E                pea.l      [A5 - 0x3F62]
00002522  4EAD 015A                jsr        [A5 + 0x15A /* export_39, CODE:1 @ 00000A28 */]
00002526  1B45 FDA0                move.b     [A5 - 0x260], D5
0000252A  1B7C 0001 FD96           move.b     [A5 - 0x26A], 0x1
label00002530:
00002530  0C6E 0012 FFD8           cmpi.w     [A6 - 0x28], 0x12
00002536  6602                     bne        +0x4 /* 0000253A */
00002538  7E01                     moveq.l    D7, 0x01
label0000253A:
0000253A  0C6E 0011 FFD8           cmpi.w     [A6 - 0x28], 0x11
00002540  6612                     bne        +0x14 /* 00002554 */
00002542  554F                     subq.w     A7, 2
00002544  3F3C 008A                move.w     -[A7], 0x8A
00002548  42A7                     clr.l      -[A7]
0000254A  A985                     syscall    Alert
0000254C  0C5F 0001                cmpi.w     [A7]+, 0x1
00002550  6602                     bne        +0x4 /* 00002554 */
00002552  7A01                     moveq.l    D5, 0x01
label00002554:
00002554  0C6E 0008 FFD8           cmpi.w     [A6 - 0x28], 0x8
0000255A  6604                     bne        +0x6 /* 00002560 */
0000255C  4EBA FC3C                jsr        [PC - 0x3C4 /* 0000219A */]
label00002560:
00002560  4A07                     tst.b      D7
00002562  6700 FF0C                beq        -0xF2 /* 00002470 */
00002566  2F2E FFEA                move.l     -[A7], [A6 - 0x16]
0000256A  A983                     syscall    DisposeDialog
0000256C  4AAD B8B6                tst.l      [A5 - 0x474A]
00002570  6708                     beq        +0xA /* 0000257A */
00002572  2F2D B8B6                move.l     -[A7], [A5 - 0x474A]
00002576  A873                     syscall    SetPort
00002578  6006                     bra        +0x8 /* 00002580 */
label0000257A:
0000257A  2F2E FFE6                move.l     -[A7], [A6 - 0x1A]
0000257E  A873                     syscall    SetPort
label00002580:
00002580  4CDF 10F8                movem.l    D3,D4,D5,D6,D7,A4, [A7]+
00002584  4E5E                     unlink     A6
00002586  4E75                     rts
00002588  012E 4E56                btst       [A6 + 0x4E56], D0
// begin alternate branch 0000258A-00002592
export_48:
0000258A  4E56 FE7A                link       A6, -0x0186
0000258E  48E7 0318                movem.l    -[A7], D6,D7,A3,A4
// end alternate branch 0000258A-00002592
export_48: // at 0000258A (misaligned)
0000258C  FE7A 48E7                .extension 0xE7A <<F/1/7>>, 0x48E7 // unimplemented
00002590  0318                     btst       [A0]+, D1
00002592  2F2D B8B2                move.l     -[A7], [A5 - 0x474E]
00002596  A873                     syscall    SetPort
00002598  A89E                     syscall    PenNormal
0000259A  4267                     clr.w      -[A7]
0000259C  A887                     syscall    TextFont
0000259E  3F3C 000C                move.w     -[A7], 0xC
000025A2  A88A                     syscall    TextSize
000025A4  3F3C 0002                move.w     -[A7], 0x2
000025A8  3F3C 0002                move.w     -[A7], 0x2
000025AC  A89B                     syscall    PenSize
000025AE  486E FFE2                pea.l      [A6 - 0x1E]
000025B2  3F3C 009C                move.w     -[A7], 0x9C
000025B6  3F3C 0064                move.w     -[A7], 0x64 /* 'd' */
000025BA  3F3C 0164                move.w     -[A7], 0x164
000025BE  3F3C 0082                move.w     -[A7], 0x82
000025C2  A8A7                     syscall    SetRect
000025C4  486E FFE2                pea.l      [A6 - 0x1E]
000025C8  A8A3                     syscall    EraseRect
000025CA  486E FFE2                pea.l      [A6 - 0x1E]
000025CE  A8A1                     syscall    FrameRect
000025D0  302E FFE4                move.w     D0, [A6 - 0x1C]
000025D4  0640 0014                addi.w     D0, 0x14
000025D8  3F00                     move.w     -[A7], D0
000025DA  302E FFE6                move.w     D0, [A6 - 0x1A]
000025DE  0640 FFF6                addi.w     D0, 0xFFF6
000025E2  3F00                     move.w     -[A7], D0
000025E4  A893                     syscall    MoveTo
000025E6  487A 02BC                pea.l      [PC + 0x2BC /* 000028A4, value 0xF436865 */]
000025EA  A884                     syscall    DrawString
000025EC  4EAD 023A                jsr        [A5 + 0x23A /* export_67, CODE:5 @ 00000000 */]
000025F0  0C6D 01FF BBEC           cmpi.w     [A5 - 0x4414], 0x1FF
000025F6  6F30                     ble        +0x32 /* 00002628 */
000025F8  3F3C 0011                move.w     -[A7], 0x11
000025FC  4EAD 0272                jsr        [A5 + 0x272 /* export_74, CODE:5 @ 00000A50 */]
00002600  486E FFE2                pea.l      [A6 - 0x1E]
00002604  A8A3                     syscall    EraseRect
00002606  486E FFE2                pea.l      [A6 - 0x1E]
0000260A  A8A1                     syscall    FrameRect
0000260C  302E FFE4                move.w     D0, [A6 - 0x1C]
00002610  0640 0014                addi.w     D0, 0x14
00002614  3F00                     move.w     -[A7], D0
00002616  302E FFE6                move.w     D0, [A6 - 0x1A]
0000261A  0640 FFF6                addi.w     D0, 0xFFF6
0000261E  3F00                     move.w     -[A7], D0
00002620  A893                     syscall    MoveTo
00002622  487A 0270                pea.l      [PC + 0x270 /* 00002894, value 0xF436865 */]
00002626  A884                     syscall    DrawString
label00002628:
00002628  4EAD 023A                jsr        [A5 + 0x23A /* export_67, CODE:5 @ 00000000 */]
0000262C  0C6D 0001 BBEE           cmpi.w     [A5 - 0x4412], 0x1
00002632  5DC0                     slt        D0
00002634  0C6D 0028 BBEE           cmpi.w     [A5 - 0x4412], 0x28 /* '(' */
0000263A  5EC1                     sgt        D1
0000263C  8001                     or.b       D0, D1
0000263E  6730                     beq        +0x32 /* 00002670 */
00002640  3F3C 0012                move.w     -[A7], 0x12
00002644  4EAD 0272                jsr        [A5 + 0x272 /* export_74, CODE:5 @ 00000A50 */]
00002648  486E FFE2                pea.l      [A6 - 0x1E]
0000264C  A8A3                     syscall    EraseRect
0000264E  486E FFE2                pea.l      [A6 - 0x1E]
00002652  A8A1                     syscall    FrameRect
00002654  302E FFE4                move.w     D0, [A6 - 0x1C]
00002658  0640 0014                addi.w     D0, 0x14
0000265C  3F00                     move.w     -[A7], D0
0000265E  302E FFE6                move.w     D0, [A6 - 0x1A]
00002662  0640 FFF6                addi.w     D0, 0xFFF6
00002666  3F00                     move.w     -[A7], D0
00002668  A893                     syscall    MoveTo
0000266A  487A 0218                pea.l      [PC + 0x218 /* 00002884, value 0xF436865 */]
0000266E  A884                     syscall    DrawString
label00002670:
00002670  486E FFE2                pea.l      [A6 - 0x1E]
00002674  A8A3                     syscall    EraseRect
00002676  486E FFE2                pea.l      [A6 - 0x1E]
0000267A  A8A1                     syscall    FrameRect
0000267C  302E FFE4                move.w     D0, [A6 - 0x1C]
00002680  0640 0014                addi.w     D0, 0x14
00002684  3F00                     move.w     -[A7], D0
00002686  302E FFE6                move.w     D0, [A6 - 0x1A]
0000268A  0640 FFF6                addi.w     D0, 0xFFF6
0000268E  3F00                     move.w     -[A7], D0
00002690  A893                     syscall    MoveTo
00002692  487A 01E0                pea.l      [PC + 0x1E0 /* 00002874, value 0xF436865 */]
00002696  A884                     syscall    DrawString
00002698  7E01                     moveq.l    D7, 0x01
label0000269A:
0000269A  3007                     move.w     D0, D7
0000269C  C1FC 002A                muls.w     D0, 0x2A /* '*' */
000026A0  0640 FE92                addi.w     D0, 0xFE92
000026A4  47F6 0000                lea.l      A3, [A6 + D0.w]
000026A8  4253                     clr.w      [A3]
000026AA  7C01                     moveq.l    D6, 0x01
label000026AC:
000026AC  4233 6001                clr.b      [A3 + D6.w + 0x1]
000026B0  5246                     addq.w     D6, 1
000026B2  0C46 0028                cmpi.w     D6, 0x28 /* '(' */
000026B6  6FF4                     ble        -0xA /* 000026AC */
000026B8  5247                     addq.w     D7, 1
000026BA  0C47 0007                cmpi.w     D7, 0x7
000026BE  6FDA                     ble        -0x24 /* 0000269A */
000026C0  3D6D BBEE FE7A           move.w     [A6 - 0x186], [A5 - 0x4412]
000026C6  7E01                     moveq.l    D7, 0x01
000026C8  6000 011A                bra        +0x11C /* 000027E4 */
label000026CC:
000026CC  3007                     move.w     D0, D7
000026CE  C1FC 013A                muls.w     D0, 0x13A
000026D2  0640 BFA8                addi.w     D0, 0xBFA8
000026D6  47F5 0000                lea.l      A3, [A5 + D0.w]
000026DA  4EAD 023A                jsr        [A5 + 0x23A /* export_67, CODE:5 @ 00000000 */]
000026DE  4A13                     tst.b      [A3]
000026E0  6614                     bne        +0x16 /* 000026F6 */
000026E2  302E FEBC                move.w     D0, [A6 - 0x144]
000026E6  5240                     addq.w     D0, 1
000026E8  3D40 FEBC                move.w     [A6 - 0x144], D0
000026EC  41EE FEBD                lea.l      A0, [A6 - 0x143]
000026F0  11BC 0001 7000           move.b     [A0 + D7.w], 0x1
label000026F6:
000026F6  4EAD 023A                jsr        [A5 + 0x23A /* export_67, CODE:5 @ 00000000 */]
000026FA  4A6B 001A                tst.w      [A3 + 0x1A]
000026FE  5DC0                     slt        D0
00002700  0C6B 0010 001A           cmpi.w     [A3 + 0x1A], 0x10
00002706  5EC1                     sgt        D1
00002708  8001                     or.b       D0, D1
0000270A  6714                     beq        +0x16 /* 00002720 */
0000270C  302E FEE6                move.w     D0, [A6 - 0x11A]
00002710  5240                     addq.w     D0, 1
00002712  3D40 FEE6                move.w     [A6 - 0x11A], D0
00002716  41EE FEE7                lea.l      A0, [A6 - 0x119]
0000271A  11BC 0001 7000           move.b     [A0 + D7.w], 0x1
label00002720:
00002720  4EAD 023A                jsr        [A5 + 0x23A /* export_67, CODE:5 @ 00000000 */]
00002724  0C6B 00C8 001C           cmpi.w     [A3 + 0x1C], 0xC8
0000272A  5DC0                     slt        D0
0000272C  0C6B 00D1 001C           cmpi.w     [A3 + 0x1C], 0xD1
00002732  5EC1                     sgt        D1
00002734  8001                     or.b       D0, D1
00002736  6714                     beq        +0x16 /* 0000274C */
00002738  302E FF10                move.w     D0, [A6 - 0xF0]
0000273C  5240                     addq.w     D0, 1
0000273E  3D40 FF10                move.w     [A6 - 0xF0], D0
00002742  41EE FF11                lea.l      A0, [A6 - 0xEF]
00002746  11BC 0001 7000           move.b     [A0 + D7.w], 0x1
label0000274C:
0000274C  4EAD 023A                jsr        [A5 + 0x23A /* export_67, CODE:5 @ 00000000 */]
00002750  4A6B 0030                tst.w      [A3 + 0x30]
00002754  5DC0                     slt        D0
00002756  0C6B 0003 0030           cmpi.w     [A3 + 0x30], 0x3
0000275C  5EC1                     sgt        D1
0000275E  8001                     or.b       D0, D1
00002760  6714                     beq        +0x16 /* 00002776 */
00002762  302E FF3A                move.w     D0, [A6 - 0xC6]
00002766  5240                     addq.w     D0, 1
00002768  3D40 FF3A                move.w     [A6 - 0xC6], D0
0000276C  41EE FF3B                lea.l      A0, [A6 - 0xC5]
00002770  11BC 0001 7000           move.b     [A0 + D7.w], 0x1
label00002776:
00002776  4EAD 023A                jsr        [A5 + 0x23A /* export_67, CODE:5 @ 00000000 */]
0000277A  4A6B 0032                tst.w      [A3 + 0x32]
0000277E  5DC0                     slt        D0
00002780  0C6B 0010 0032           cmpi.w     [A3 + 0x32], 0x10
00002786  5EC1                     sgt        D1
00002788  8001                     or.b       D0, D1
0000278A  6714                     beq        +0x16 /* 000027A0 */
0000278C  302E FF64                move.w     D0, [A6 - 0x9C]
00002790  5240                     addq.w     D0, 1
00002792  3D40 FF64                move.w     [A6 - 0x9C], D0
00002796  41EE FF65                lea.l      A0, [A6 - 0x9B]
0000279A  11BC 0001 7000           move.b     [A0 + D7.w], 0x1
label000027A0:
000027A0  4EAD 023A                jsr        [A5 + 0x23A /* export_67, CODE:5 @ 00000000 */]
000027A4  4AAB 0034                tst.l      [A3 + 0x34]
000027A8  6C10                     bge        +0x12 /* 000027BA */
000027AA  302E FF8E                move.w     D0, [A6 - 0x72]
000027AE  5240                     addq.w     D0, 1
000027B0  3D40 FF8E                move.w     [A6 - 0x72], D0
000027B4  1DBC 0001 708F           move.b     [A6 + D7.w - 0x71], 0x1
label000027BA:
000027BA  4EAD 023A                jsr        [A5 + 0x23A /* export_67, CODE:5 @ 00000000 */]
000027BE  4A6B 0038                tst.w      [A3 + 0x38]
000027C2  5DC0                     slt        D0
000027C4  0C6B 0002 0038           cmpi.w     [A3 + 0x38], 0x2
000027CA  5EC1                     sgt        D1
000027CC  8001                     or.b       D0, D1
000027CE  6710                     beq        +0x12 /* 000027E0 */
000027D0  302E FFB8                move.w     D0, [A6 - 0x48]
000027D4  5240                     addq.w     D0, 1
000027D6  3D40 FFB8                move.w     [A6 - 0x48], D0
000027DA  1DBC 0001 70B9           move.b     [A6 + D7.w - 0x47], 0x1
label000027E0:
000027E0  5247                     addq.w     D7, 1
000027E2  6908                     bvs        +0xA /* 000027EC */
label000027E4:
000027E4  BE6E FE7A                cmp.w      D7, [A6 - 0x186]
000027E8  6F00 FEE2                ble        -0x11C /* 000026CC */
label000027EC:
000027EC  A850                     syscall    InitCursor
000027EE  7E01                     moveq.l    D7, 0x01
label000027F0:
000027F0  3007                     move.w     D0, D7
000027F2  C1FC 002A                muls.w     D0, 0x2A /* '*' */
000027F6  0640 FE92                addi.w     D0, 0xFE92
000027FA  4A76 0000                tst.w      [A6 + D0.w]
000027FE  670A                     beq        +0xC /* 0000280A */
00002800  3F3C 0013                move.w     -[A7], 0x13
00002804  4EAD 0272                jsr        [A5 + 0x272 /* export_74, CODE:5 @ 00000A50 */]
00002808  6008                     bra        +0xA /* 00002812 */
label0000280A:
0000280A  5247                     addq.w     D7, 1
0000280C  0C47 0007                cmpi.w     D7, 0x7
00002810  6FDE                     ble        -0x20 /* 000027F0 */
label00002812:
00002812  4A2D FD97                tst.b      [A5 - 0x269]
00002816  6728                     beq        +0x2A /* 00002840 */
00002818  206D BA82                movea.l    A0, [A5 - 0x457E]
0000281C  2068 0002                movea.l    A0, [A0 + 0x2]
00002820  2F10                     move.l     -[A7], [A0]
00002822  206D B8B2                movea.l    A0, [A5 - 0x474E]
00002826  4868 0002                pea.l      [A0 + 0x2]
0000282A  486E FFE2                pea.l      [A6 - 0x1E]
0000282E  486E FFE2                pea.l      [A6 - 0x1E]
00002832  4267                     clr.w      -[A7]
00002834  206D B8B2                movea.l    A0, [A5 - 0x474E]
00002838  2F28 0018                move.l     -[A7], [A0 + 0x18]
0000283C  A8EC                     syscall    CopyBits
0000283E  6020                     bra        +0x22 /* 00002860 */
label00002840:
00002840  486D B8FE                pea.l      [A5 - 0x4702]
00002844  206D B8B2                movea.l    A0, [A5 - 0x474E]
00002848  4868 0002                pea.l      [A0 + 0x2]
0000284C  486E FFE2                pea.l      [A6 - 0x1E]
00002850  486E FFE2                pea.l      [A6 - 0x1E]
00002854  4267                     clr.w      -[A7]
00002856  206D B8B2                movea.l    A0, [A5 - 0x474E]
0000285A  2F28 0018                move.l     -[A7], [A0 + 0x18]
0000285E  A8EC                     syscall    CopyBits
label00002860:
00002860  4AAD B8B6                tst.l      [A5 - 0x474A]
00002864  6706                     beq        +0x8 /* 0000286C */
00002866  2F2D B8B6                move.l     -[A7], [A5 - 0x474A]
0000286A  A873                     syscall    SetPort
label0000286C:
0000286C  4CDF 18C0                movem.l    D6,D7,A3,A4, [A7]+
00002870  4E5E                     unlink     A6
00002872  4E75                     rts
00002874  0F43                     bchg       D3, D7
00002876  6865                     bvc        +0x67 /* 000028DD */
00002878  636B                     bls        +0x6D /* 000028E5 */
0000287A  696E                     bvs        +0x70 /* 000028EA */
0000287C  6720                     beq        +0x22 /* 0000289E */
0000287E  526F 6F6D                addq.w     [A7 + 0x6F6D], 1
00002882  73C9                     moveq.l    D1, 0xFFFFFFC9
00002884  0F43                     bchg       D3, D7
00002886  6865                     bvc        +0x67 /* 000028ED */
00002888  636B                     bls        +0x6D /* 000028F5 */
0000288A  696E                     bvs        +0x70 /* 000028FA */
0000288C  6720                     beq        +0x22 /* 000028AE */
0000288E  486F 7573                pea.l      [A7 + 0x7573]
00002892  65C9                     bcs        -0x35 /* 0000285D */
00002894  0F43                     bchg       D3, D7
00002896  6865                     bvc        +0x67 /* 000028FD */
00002898  636B                     bls        +0x6D /* 00002905 */
0000289A  696E                     bvs        +0x70 /* 0000290A */
0000289C  6720                     beq        +0x22 /* 000028BE */
label0000289E:
0000289E  486F 7573                pea.l      [A7 + 0x7573]
000028A2  65C9                     bcs        -0x35 /* 0000286D */
000028A4  0F43                     bchg       D3, D7
000028A6  6865                     bvc        +0x67 /* 0000290D */
000028A8  636B                     bls        +0x6D /* 00002915 */
000028AA  696E                     bvs        +0x70 /* 0000291A */
000028AC  6720                     beq        +0x22 /* 000028CE */
label000028AE:
000028AE  486F 7573                pea.l      [A7 + 0x7573]
000028B2  65C9                     bcs        -0x35 /* 0000287D */
export_49:
fn000028B4:
000028B4  4E56 FEAC                link       A6, -0x0154
000028B8  48E7 0F00                movem.l    -[A7], D4,D5,D6,D7
000028BC  486E FEAE                pea.l      [A6 - 0x152]
// begin alternate branch 000028BE-000028C6
label000028BE:
000028BE  FEAE 4EBA                .extension 0xEAE <<F/2-3/7>> // unimplemented
000028C2  024A 4246                andi.w     A2, 0x4246 /* 'BF' */
// end alternate branch 000028BE-000028C6
label000028BE: // (misaligned)
000028C0  4EBA 024A                jsr        [PC + 0x24A /* 00002B0C */]
000028C4  4246                     clr.w      D6
000028C6  382D BB3E                move.w     D4, [A5 - 0x44C2]
000028CA  7E01                     moveq.l    D7, 0x01
label000028CC:
000028CC  3A07                     move.w     D5, D7
label000028CE:
000028CE  E945                     asl        D5.w, 4
000028D0  41ED F21C                lea.l      A0, [A5 - 0xDE4]
000028D4  3A30 5000                move.w     D5, [A0 + D5.w]
000028D8  0C45 0028                cmpi.w     D5, 0x28 /* '(' */
000028DC  56C0                     sne        D0
000028DE  0C45 0029                cmpi.w     D5, 0x29 /* ')' */
000028E2  56C1                     sne        D1
000028E4  C001                     and.b      D0, D1
000028E6  0C45 0025                cmpi.w     D5, 0x25 /* '%' */
label000028EA:
000028EA  56C1                     sne        D1
000028EC  C001                     and.b      D0, D1
000028EE  4A45                     tst.w      D5
000028F0  56C1                     sne        D1
000028F2  C001                     and.b      D0, D1
000028F4  6736                     beq        +0x38 /* 0000292C */
000028F6  5246                     addq.w     D6, 1
000028F8  BE6D BB3E                cmp.w      D7, [A5 - 0x44C2]
// begin alternate branch 000028FA-000028FC
label000028FA:
000028FA  BB3E                     xor.b      <<invalid special address>>, D5
// end alternate branch 000028FA-000028FC
label000028FA: // (misaligned)
000028FC  6602                     bne        +0x4 /* 00002900 */
000028FE  3806                     move.w     D4, D6
label00002900:
00002900  3007                     move.w     D0, D7
00002902  E940                     asl        D0.w, 4
00002904  3206                     move.w     D1, D6
00002906  E941                     asl        D1.w, 4
00002908  0640 F21C                addi.w     D0, 0xF21C
// begin alternate branch 0000290A-00002918
label0000290A:
0000290A  F21C 41F5                .invalid   fp3, (int32_t) [A4]+
0000290E  0000 0641                ori.b      D0, 0x41 /* 'A' */
00002912  FED8 43F6                .extension 0xED8 <<F/2-3/7>> // unimplemented
00002916  1000                     move.b     D0, D0
// end alternate branch 0000290A-00002918
label0000290A: // (misaligned)
0000290C  41F5 0000                lea.l      A0, [A5 + D0.w]
00002910  0641 FED8                addi.w     D1, 0xFED8
00002914  43F6 1000                lea.l      A1, [A6 + D1.w]
00002918  22D8                     move.l     [A1]+, [A0]+
label0000291A:
0000291A  22D8                     move.l     [A1]+, [A0]+
0000291C  22D8                     move.l     [A1]+, [A0]+
0000291E  22D8                     move.l     [A1]+, [A0]+
00002920  3007                     move.w     D0, D7
00002922  E940                     asl        D0.w, 4
00002924  0640 F21C                addi.w     D0, 0xF21C
00002928  4275 0000                clr.w      [A5 + D0.w]
label0000292C:
0000292C  5247                     addq.w     D7, 1
0000292E  0C47 0010                cmpi.w     D7, 0x10
00002932  6F98                     ble        -0x66 /* 000028CC */
00002934  7E01                     moveq.l    D7, 0x01
label00002936:
00002936  3A07                     move.w     D5, D7
00002938  E945                     asl        D5.w, 4
0000293A  41ED F21C                lea.l      A0, [A5 - 0xDE4]
0000293E  3A30 5000                move.w     D5, [A0 + D5.w]
00002942  4A45                     tst.w      D5
00002944  672A                     beq        +0x2C /* 00002970 */
00002946  5246                     addq.w     D6, 1
00002948  BE6D BB3E                cmp.w      D7, [A5 - 0x44C2]
0000294C  6602                     bne        +0x4 /* 00002950 */
0000294E  3806                     move.w     D4, D6
label00002950:
00002950  3007                     move.w     D0, D7
00002952  E940                     asl        D0.w, 4
00002954  3206                     move.w     D1, D6
00002956  E941                     asl        D1.w, 4
00002958  0640 F21C                addi.w     D0, 0xF21C
0000295C  41F5 0000                lea.l      A0, [A5 + D0.w]
00002960  0641 FED8                addi.w     D1, 0xFED8
00002964  43F6 1000                lea.l      A1, [A6 + D1.w]
00002968  22D8                     move.l     [A1]+, [A0]+
0000296A  22D8                     move.l     [A1]+, [A0]+
0000296C  22D8                     move.l     [A1]+, [A0]+
0000296E  22D8                     move.l     [A1]+, [A0]+
label00002970:
00002970  5247                     addq.w     D7, 1
00002972  0C47 0010                cmpi.w     D7, 0x10
00002976  6FBE                     ble        -0x40 /* 00002936 */
00002978  3D6D F20C FEAC           move.w     [A6 - 0x154], [A5 - 0xDF4]
0000297E  7E01                     moveq.l    D7, 0x01
00002980  6024                     bra        +0x26 /* 000029A6 */
label00002982:
00002982  3007                     move.w     D0, D7
00002984  E940                     asl        D0.w, 4
00002986  3207                     move.w     D1, D7
00002988  E941                     asl        D1.w, 4
0000298A  0640 FED8                addi.w     D0, 0xFED8
0000298E  41F6 0000                lea.l      A0, [A6 + D0.w]
00002992  0641 F21C                addi.w     D1, 0xF21C
00002996  43F5 1000                lea.l      A1, [A5 + D1.w]
0000299A  22D8                     move.l     [A1]+, [A0]+
0000299C  22D8                     move.l     [A1]+, [A0]+
0000299E  22D8                     move.l     [A1]+, [A0]+
000029A0  22D8                     move.l     [A1]+, [A0]+
000029A2  5247                     addq.w     D7, 1
000029A4  6906                     bvs        +0x8 /* 000029AC */
label000029A6:
000029A6  BE6E FEAC                cmp.w      D7, [A6 - 0x154]
000029AA  6FD6                     ble        -0x28 /* 00002982 */
label000029AC:
000029AC  BC6D F20C                cmp.w      D6, [A5 - 0xDF4]
000029B0  6700 0080                beq        +0x82 /* 00002A32 */
000029B4  4246                     clr.w      D6
000029B6  7E01                     moveq.l    D7, 0x01
label000029B8:
000029B8  3007                     move.w     D0, D7
000029BA  E940                     asl        D0.w, 4
000029BC  0640 F21C                addi.w     D0, 0xF21C
000029C0  4A75 0000                tst.w      [A5 + D0.w]
000029C4  6702                     beq        +0x4 /* 000029C8 */
000029C6  5246                     addq.w     D6, 1
label000029C8:
000029C8  5247                     addq.w     D7, 1
000029CA  0C47 0010                cmpi.w     D7, 0x10
000029CE  6FE8                     ble        -0x16 /* 000029B8 */
000029D0  3B46 F20C                move.w     [A5 - 0xDF4], D6
000029D4  0C6D 0010 F20C           cmpi.w     [A5 - 0xDF4], 0x10
000029DA  6C56                     bge        +0x58 /* 00002A32 */
000029DC  302D F20C                move.w     D0, [A5 - 0xDF4]
000029E0  5240                     addq.w     D0, 1
000029E2  3E00                     move.w     D7, D0
000029E4  6046                     bra        +0x48 /* 00002A2C */
label000029E6:
000029E6  3007                     move.w     D0, D7
000029E8  E940                     asl        D0.w, 4
000029EA  0640 F21C                addi.w     D0, 0xF21C
000029EE  4275 0000                clr.w      [A5 + D0.w]
000029F2  3007                     move.w     D0, D7
000029F4  E940                     asl        D0.w, 4
000029F6  41ED B8D6                lea.l      A0, [A5 - 0x472A]
000029FA  0640 F21E                addi.w     D0, 0xF21E
000029FE  43F5 0000                lea.l      A1, [A5 + D0.w]
00002A02  22D8                     move.l     [A1]+, [A0]+
00002A04  22D8                     move.l     [A1]+, [A0]+
00002A06  3007                     move.w     D0, D7
00002A08  E940                     asl        D0.w, 4
00002A0A  0640 F226                addi.w     D0, 0xF226
00002A0E  4275 0000                clr.w      [A5 + D0.w]
00002A12  3007                     move.w     D0, D7
00002A14  E940                     asl        D0.w, 4
00002A16  0640 F228                addi.w     D0, 0xF228
00002A1A  4275 0000                clr.w      [A5 + D0.w]
00002A1E  3007                     move.w     D0, D7
00002A20  E940                     asl        D0.w, 4
00002A22  0640 F22A                addi.w     D0, 0xF22A
00002A26  4235 0000                clr.b      [A5 + D0.w]
00002A2A  5247                     addq.w     D7, 1
label00002A2C:
00002A2C  0C47 0010                cmpi.w     D7, 0x10
00002A30  6FB4                     ble        -0x4A /* 000029E6 */
label00002A32:
00002A32  3B44 BB3E                move.w     [A5 - 0x44C2], D4
00002A36  4CDF 00F0                movem.l    D4,D5,D6,D7, [A7]+
00002A3A  4E5E                     unlink     A6
00002A3C  4E75                     rts
export_50:
00002A3E  4E56 FFEC                link       A6, -0x0014
00002A42  2F07                     move.l     -[A7], D7
00002A44  422E 0008                clr.b      [A6 + 0x8]
00002A48  0C6D 0028 BBEE           cmpi.w     [A5 - 0x4412], 0x28 /* '(' */
00002A4E  6D0C                     blt        +0xE /* 00002A5C */
00002A50  3F3C 000A                move.w     -[A7], 0xA /* '\n' */
00002A54  4EAD 0272                jsr        [A5 + 0x272 /* export_74, CODE:5 @ 00000A50 */]
00002A58  6000 00AC                bra        +0xAE /* 00002B06 */
label00002A5C:
00002A5C  302D BB3A                move.w     D0, [A5 - 0x44C6]
00002A60  C1FC 013A                muls.w     D0, 0x13A
00002A64  41ED F1F2                lea.l      A0, [A5 - 0xE0E]
00002A68  0640 BFA8                addi.w     D0, 0xBFA8
00002A6C  43F5 0000                lea.l      A1, [A5 + D0.w]
00002A70  704D                     moveq.l    D0, 0x4D
label00002A72:
00002A72  22D8                     move.l     [A1]+, [A0]+
00002A74  51C8 FFFC                dbf        D0, -0x6 /* 00002A72 */
00002A78  32D8                     move.w     [A1]+, [A0]+
00002A7A  302D BB3A                move.w     D0, [A5 - 0x44C6]
00002A7E  B06D BBEE                cmp.w      D0, [A5 - 0x4412]
00002A82  6C42                     bge        +0x44 /* 00002AC6 */
00002A84  302D BB3A                move.w     D0, [A5 - 0x44C6]
00002A88  5240                     addq.w     D0, 1
00002A8A  3D40 FFEC                move.w     [A6 - 0x14], D0
00002A8E  3E2D BBEE                move.w     D7, [A5 - 0x4412]
00002A92  602C                     bra        +0x2E /* 00002AC0 */
label00002A94:
00002A94  3007                     move.w     D0, D7
00002A96  C1FC 013A                muls.w     D0, 0x13A
00002A9A  3207                     move.w     D1, D7
00002A9C  5241                     addq.w     D1, 1
00002A9E  C3FC 013A                muls.w     D1, 0x13A
00002AA2  0640 BFA8                addi.w     D0, 0xBFA8
00002AA6  41F5 0000                lea.l      A0, [A5 + D0.w]
00002AAA  0641 BFA8                addi.w     D1, 0xBFA8
00002AAE  43F5 1000                lea.l      A1, [A5 + D1.w]
00002AB2  704D                     moveq.l    D0, 0x4D
label00002AB4:
00002AB4  22D8                     move.l     [A1]+, [A0]+
00002AB6  51C8 FFFC                dbf        D0, -0x6 /* 00002AB4 */
00002ABA  32D8                     move.w     [A1]+, [A0]+
00002ABC  5347                     subq.w     D7, 1
00002ABE  6906                     bvs        +0x8 /* 00002AC6 */
label00002AC0:
00002AC0  BE6E FFEC                cmp.w      D7, [A6 - 0x14]
00002AC4  6CCE                     bge        -0x30 /* 00002A94 */
label00002AC6:
00002AC6  302D BB3A                move.w     D0, [A5 - 0x44C6]
00002ACA  5240                     addq.w     D0, 1
00002ACC  3B40 BB3A                move.w     [A5 - 0x44C6], D0
00002AD0  486D F1F2                pea.l      [A5 - 0xE0E]
00002AD4  4EBA 0036                jsr        [PC + 0x36 /* 00002B0C */]
00002AD8  302D BB3A                move.w     D0, [A5 - 0x44C6]
00002ADC  C1FC 013A                muls.w     D0, 0x13A
00002AE0  41ED F1F2                lea.l      A0, [A5 - 0xE0E]
00002AE4  0640 BFA8                addi.w     D0, 0xBFA8
00002AE8  43F5 0000                lea.l      A1, [A5 + D0.w]
00002AEC  704D                     moveq.l    D0, 0x4D
label00002AEE:
00002AEE  22D8                     move.l     [A1]+, [A0]+
00002AF0  51C8 FFFC                dbf        D0, -0x6 /* 00002AEE */
00002AF4  32D8                     move.w     [A1]+, [A0]+
00002AF6  302D BBEE                move.w     D0, [A5 - 0x4412]
00002AFA  5240                     addq.w     D0, 1
00002AFC  3B40 BBEE                move.w     [A5 - 0x4412], D0
00002B00  1D7C 0001 0008           move.b     [A6 + 0x8], 0x1
label00002B06:
00002B06  2E1F                     move.l     D7, [A7]+
00002B08  4E5E                     unlink     A6
00002B0A  4E75                     rts
export_51:
fn00002B0C:
00002B0C  4E56 FDEE                link       A6, -0x0212
00002B10  48E7 0108                movem.l    -[A7], D7,A4
00002B14  302D BB3A                move.w     D0, [A5 - 0x44C6]
00002B18  48C0                     ext.l      D0
00002B1A  2F00                     move.l     -[A7], D0
00002B1C  486E FEEE                pea.l      [A6 - 0x112]
00002B20  4EAD 0122                jsr        [A5 + 0x122 /* export_32, CODE:1 @ 0000079C */]
00002B24  486E FDEE                pea.l      [A6 - 0x212]
00002B28  487A 00A4                pea.l      [PC + 0xA4 /* 00002BCE, value 0x7526F6F, pstring "Room # " */]
00002B2C  486E FEEE                pea.l      [A6 - 0x112]
00002B30  3F3C 0002                move.w     -[A7], 0x2
00002B34  4EAD 0132                jsr        [A5 + 0x132 /* export_34, CODE:1 @ 000007AE */]
00002B38  584F                     addq.w     A7, 4
00002B3A  3F3C 00FF                move.w     -[A7], 0xFF
00002B3E  486E FDEE                pea.l      [A6 - 0x212]
00002B42  486E FEEE                pea.l      [A6 - 0x112]
00002B46  4EAD 015A                jsr        [A5 + 0x15A /* export_39, CODE:1 @ 00000A28 */]
00002B4A  206E 0008                movea.l    A0, [A6 + 0x8]
00002B4E  2848                     movea.l    A4, A0
00002B50  3F3C 0018                move.w     -[A7], 0x18
00002B54  486E FEEE                pea.l      [A6 - 0x112]
00002B58  2F0C                     move.l     -[A7], A4
00002B5A  4EAD 015A                jsr        [A5 + 0x15A /* export_39, CODE:1 @ 00000A28 */]
00002B5E  426C 001A                clr.w      [A4 + 0x1A]
00002B62  397C 00C8 001C           move.w     [A4 + 0x1C], 0xC8
00002B68  4247                     clr.w      D7
label00002B6A:
00002B6A  3007                     move.w     D0, D7
00002B6C  D040                     add.w      D0, D0
00002B6E  4274 001E                clr.w      [A4 + D0.w + 0x1E]
00002B72  5247                     addq.w     D7, 1
00002B74  0C47 0007                cmpi.w     D7, 0x7
00002B78  6FF0                     ble        -0xE /* 00002B6A */
00002B7A  426C 0030                clr.w      [A4 + 0x30]
00002B7E  426C 0032                clr.w      [A4 + 0x32]
00002B82  42AC 0034                clr.l      [A4 + 0x34]
00002B86  426C 0038                clr.w      [A4 + 0x38]
00002B8A  7E01                     moveq.l    D7, 0x01
label00002B8C:
00002B8C  3007                     move.w     D0, D7
00002B8E  E940                     asl        D0.w, 4
00002B90  4274 002A                clr.w      [A4 + D0.w + 0x2A]
00002B94  3007                     move.w     D0, D7
00002B96  E940                     asl        D0.w, 4
00002B98  41ED B8D6                lea.l      A0, [A5 - 0x472A]
00002B9C  43F4 002C                lea.l      A1, [A4 + D0.w + 0x2C]
00002BA0  22D8                     move.l     [A1]+, [A0]+
00002BA2  22D8                     move.l     [A1]+, [A0]+
00002BA4  3007                     move.w     D0, D7
00002BA6  E940                     asl        D0.w, 4
00002BA8  4274 0034                clr.w      [A4 + D0.w + 0x34]
00002BAC  3007                     move.w     D0, D7
00002BAE  E940                     asl        D0.w, 4
00002BB0  4274 0036                clr.w      [A4 + D0.w + 0x36]
00002BB4  3007                     move.w     D0, D7
00002BB6  E940                     asl        D0.w, 4
00002BB8  4234 0038                clr.b      [A4 + D0.w + 0x38]
00002BBC  5247                     addq.w     D7, 1
00002BBE  0C47 0010                cmpi.w     D7, 0x10
00002BC2  6FC8                     ble        -0x36 /* 00002B8C */
00002BC4  4CDF 1080                movem.l    D7,A4, [A7]+
00002BC8  4E5E                     unlink     A6
00002BCA  2E9F                     move.l     [A7], [A7]+
00002BCC  4E75                     rts
00002BCE  0752                     bchg       [A2], D3
00002BD0  6F6F                     ble        +0x71 /* 00002C41 */
00002BD2  6D20                     blt        +0x22 /* 00002BF4 */
00002BD4  2320                     move.l     -[A1], -[A0]
fn00002BD6:
00002BD6  4E56 FFE6                link       A6, -0x001A
00002BDA  2F0C                     move.l     -[A7], A4
00002BDC  286E 0008                movea.l    A4, [A6 + 0x8]
00002BE0  2F2C FFE6                move.l     -[A7], [A4 - 0x1A]
00002BE4  A873                     syscall    SetPort
00002BE6  2F2C FFE6                move.l     -[A7], [A4 - 0x1A]
00002BEA  3F3C 0001                move.w     -[A7], 0x1
00002BEE  486C FFDC                pea.l      [A4 - 0x24]
00002BF2  486C FFCE                pea.l      [A4 - 0x32]
// begin alternate branch 00002BF4-00002BF6
label00002BF4:
00002BF4  FFCE                     .invalid   <<F/7/7>>
// end alternate branch 00002BF4-00002BF6
label00002BF4: // (misaligned)
00002BF6  486C FFDE                pea.l      [A4 - 0x22]
00002BFA  A98D                     syscall    GetDialogItem/GetDItem
00002BFC  3F3C 0003                move.w     -[A7], 0x3
00002C00  3F3C 0003                move.w     -[A7], 0x3
00002C04  A89B                     syscall    PenSize
00002C06  486C FFDE                pea.l      [A4 - 0x22]
00002C0A  3F3C FFFC                move.w     -[A7], 0xFFFC
00002C0E  3F3C FFFC                move.w     -[A7], 0xFFFC
00002C12  A8A9                     syscall    InsetRect
00002C14  486C FFDE                pea.l      [A4 - 0x22]
00002C18  3F3C 0010                move.w     -[A7], 0x10
00002C1C  3F3C 0010                move.w     -[A7], 0x10
00002C20  A8B0                     syscall    FrameRoundRect
00002C22  A89E                     syscall    PenNormal
00002C24  285F                     movea.l    A4, [A7]+
00002C26  4E5E                     unlink     A6
00002C28  2E9F                     move.l     [A7], [A7]+
00002C2A  4E75                     rts
export_52:
00002C2C  4E56 FEC6                link       A6, -0x013A
00002C30  48E7 0708                movem.l    -[A7], D5,D6,D7,A4
00002C34  594F                     subq.w     A7, 4
00002C36  3F3C 0105                move.w     -[A7], 0x105
00002C3A  42A7                     clr.l      -[A7]
00002C3C  70FF                     moveq.l    D0, 0xFFFFFFFF
00002C3E  2F00                     move.l     -[A7], D0
00002C40  A97C                     syscall    GetNewDialog
00002C42  2D5F FFE6                move.l     [A6 - 0x1A], [A7]+
00002C46  206E FFE6                movea.l    A0, [A6 - 0x1A]
00002C4A  49E8 0002                lea.l      A4, [A0 + 0x2]
00002C4E  3A2D BB40                move.w     D5, [A5 - 0x44C0]
00002C52  9A6C 0008                sub.w      D5, [A4 + 0x8]
00002C56  3C2D BB42                move.w     D6, [A5 - 0x44BE]
00002C5A  9C6C 0006                sub.w      D6, [A4 + 0x6]
00002C5E  2F2E FFE6                move.l     -[A7], [A6 - 0x1A]
00002C62  3F05                     move.w     -[A7], D5
00002C64  3F06                     move.w     -[A7], D6
00002C66  4227                     clr.b      -[A7]
00002C68  A91B                     syscall    MoveWindow
00002C6A  2F2E FFE6                move.l     -[A7], [A6 - 0x1A]
00002C6E  A915                     syscall    ShowWindow
00002C70  2F2E FFE6                move.l     -[A7], [A6 - 0x1A]
00002C74  A91F                     syscall    SelectWindow
00002C76  2F2E FFE6                move.l     -[A7], [A6 - 0x1A]
00002C7A  A873                     syscall    SetPort
00002C7C  302D BBEE                move.w     D0, [A5 - 0x4412]
00002C80  48C0                     ext.l      D0
00002C82  2F00                     move.l     -[A7], D0
00002C84  486E FEC6                pea.l      [A6 - 0x13A]
00002C88  4EAD 0122                jsr        [A5 + 0x122 /* export_32, CODE:1 @ 0000079C */]
00002C8C  2F2E FFE6                move.l     -[A7], [A6 - 0x1A]
00002C90  3F3C 0004                move.w     -[A7], 0x4
00002C94  486E FFDC                pea.l      [A6 - 0x24]
00002C98  486E FFCE                pea.l      [A6 - 0x32]
00002C9C  486E FFDE                pea.l      [A6 - 0x22]
00002CA0  A98D                     syscall    GetDialogItem/GetDItem
00002CA2  2F2E FFCE                move.l     -[A7], [A6 - 0x32]
00002CA6  486E FEC6                pea.l      [A6 - 0x13A]
00002CAA  A98F                     syscall    SetDialogItemText/SetIText
00002CAC  302D BB3A                move.w     D0, [A5 - 0x44C6]
00002CB0  48C0                     ext.l      D0
00002CB2  2F00                     move.l     -[A7], D0
00002CB4  486E FEC6                pea.l      [A6 - 0x13A]
00002CB8  4EAD 0122                jsr        [A5 + 0x122 /* export_32, CODE:1 @ 0000079C */]
00002CBC  2F2E FFE6                move.l     -[A7], [A6 - 0x1A]
00002CC0  3F3C 0005                move.w     -[A7], 0x5
00002CC4  486E FFDC                pea.l      [A6 - 0x24]
00002CC8  486E FFCE                pea.l      [A6 - 0x32]
00002CCC  486E FFDE                pea.l      [A6 - 0x22]
00002CD0  A98D                     syscall    GetDialogItem/GetDItem
00002CD2  2F2E FFCE                move.l     -[A7], [A6 - 0x32]
00002CD6  486E FEC6                pea.l      [A6 - 0x13A]
00002CDA  A98F                     syscall    SetDialogItemText/SetIText
00002CDC  302D BB3A                move.w     D0, [A5 - 0x44C6]
00002CE0  48C0                     ext.l      D0
00002CE2  2F00                     move.l     -[A7], D0
00002CE4  486E FEC6                pea.l      [A6 - 0x13A]
00002CE8  4EAD 0122                jsr        [A5 + 0x122 /* export_32, CODE:1 @ 0000079C */]
00002CEC  2F2E FFE6                move.l     -[A7], [A6 - 0x1A]
00002CF0  3F3C 0003                move.w     -[A7], 0x3
00002CF4  486E FFDC                pea.l      [A6 - 0x24]
00002CF8  486E FFCE                pea.l      [A6 - 0x32]
00002CFC  486E FFDE                pea.l      [A6 - 0x22]
00002D00  A98D                     syscall    GetDialogItem/GetDItem
00002D02  2F2E FFCE                move.l     -[A7], [A6 - 0x32]
00002D06  486E FEC6                pea.l      [A6 - 0x13A]
00002D0A  A98F                     syscall    SetDialogItemText/SetIText
00002D0C  2F2E FFE6                move.l     -[A7], [A6 - 0x1A]
00002D10  3F3C 0003                move.w     -[A7], 0x3
00002D14  4267                     clr.w      -[A7]
00002D16  3F3C 0003                move.w     -[A7], 0x3
00002D1A  A97E                     syscall    SelectDialogItemText/SelIText
00002D1C  2F0E                     move.l     -[A7], A6
00002D1E  4EBA FEB6                jsr        [PC - 0x14A /* 00002BD6 */]
00002D22  4207                     clr.b      D7
label00002D24:
00002D24  42A7                     clr.l      -[A7]
00002D26  486E FFD8                pea.l      [A6 - 0x28]
00002D2A  A991                     syscall    ModalDialog
00002D2C  2F2E FFE6                move.l     -[A7], [A6 - 0x1A]
00002D30  3F2E FFD8                move.w     -[A7], [A6 - 0x28]
00002D34  486E FFDC                pea.l      [A6 - 0x24]
00002D38  486E FFCE                pea.l      [A6 - 0x32]
00002D3C  486E FFDE                pea.l      [A6 - 0x22]
00002D40  A98D                     syscall    GetDialogItem/GetDItem
00002D42  0C6E 0001 FFD8           cmpi.w     [A6 - 0x28], 0x1
00002D48  6600 0094                bne        +0x96 /* 00002DDE */
00002D4C  2F2E FFE6                move.l     -[A7], [A6 - 0x1A]
00002D50  3F3C 0003                move.w     -[A7], 0x3
00002D54  486E FFDC                pea.l      [A6 - 0x24]
00002D58  486E FFCE                pea.l      [A6 - 0x32]
00002D5C  486E FFDE                pea.l      [A6 - 0x22]
00002D60  A98D                     syscall    GetDialogItem/GetDItem
00002D62  2F2E FFCE                move.l     -[A7], [A6 - 0x32]
00002D66  486E FEC6                pea.l      [A6 - 0x13A]
00002D6A  A990                     syscall    GetDialogItemText/GetIText
00002D6C  486E FEC6                pea.l      [A6 - 0x13A]
00002D70  486E FFEA                pea.l      [A6 - 0x16]
00002D74  4EAD 011A                jsr        [A5 + 0x11A /* export_31, CODE:1 @ 00000788 */]
00002D78  4A6E FFEC                tst.w      [A6 - 0x14]
00002D7C  5EC0                     sgt        D0
00002D7E  322D BBEE                move.w     D1, [A5 - 0x4412]
00002D82  5241                     addq.w     D1, 1
00002D84  B26E FFEC                cmp.w      D1, [A6 - 0x14]
00002D88  5EC1                     sgt        D1
00002D8A  C001                     and.b      D0, D1
00002D8C  670A                     beq        +0xC /* 00002D98 */
00002D8E  7E01                     moveq.l    D7, 0x01
00002D90  3B6E FFEC BB3A           move.w     [A5 - 0x44C6], [A6 - 0x14]
00002D96  6046                     bra        +0x48 /* 00002DDE */
label00002D98:
00002D98  3F3C 0001                move.w     -[A7], 0x1
00002D9C  A9C8                     syscall    SysBeep
00002D9E  302D BB3A                move.w     D0, [A5 - 0x44C6]
00002DA2  48C0                     ext.l      D0
00002DA4  2F00                     move.l     -[A7], D0
00002DA6  486E FEC6                pea.l      [A6 - 0x13A]
00002DAA  4EAD 0122                jsr        [A5 + 0x122 /* export_32, CODE:1 @ 0000079C */]
00002DAE  2F2E FFE6                move.l     -[A7], [A6 - 0x1A]
00002DB2  3F3C 0003                move.w     -[A7], 0x3
00002DB6  486E FFDC                pea.l      [A6 - 0x24]
00002DBA  486E FFCE                pea.l      [A6 - 0x32]
00002DBE  486E FFDE                pea.l      [A6 - 0x22]
00002DC2  A98D                     syscall    GetDialogItem/GetDItem
00002DC4  2F2E FFCE                move.l     -[A7], [A6 - 0x32]
00002DC8  486E FEC6                pea.l      [A6 - 0x13A]
00002DCC  A98F                     syscall    SetDialogItemText/SetIText
00002DCE  2F2E FFE6                move.l     -[A7], [A6 - 0x1A]
00002DD2  3F3C 0003                move.w     -[A7], 0x3
00002DD6  4267                     clr.w      -[A7]
00002DD8  3F3C 0003                move.w     -[A7], 0x3
00002DDC  A97E                     syscall    SelectDialogItemText/SelIText
label00002DDE:
00002DDE  0C6E 0002 FFD8           cmpi.w     [A6 - 0x28], 0x2
00002DE4  6602                     bne        +0x4 /* 00002DE8 */
00002DE6  7E01                     moveq.l    D7, 0x01
label00002DE8:
00002DE8  4A07                     tst.b      D7
00002DEA  6700 FF38                beq        -0xC6 /* 00002D24 */
00002DEE  2F2E FFE6                move.l     -[A7], [A6 - 0x1A]
00002DF2  A983                     syscall    DisposeDialog
00002DF4  4AAD B8B6                tst.l      [A5 - 0x474A]
00002DF8  6708                     beq        +0xA /* 00002E02 */
00002DFA  2F2D B8B6                move.l     -[A7], [A5 - 0x474A]
00002DFE  A873                     syscall    SetPort
00002E00  6006                     bra        +0x8 /* 00002E08 */
label00002E02:
00002E02  2F2D B8B2                move.l     -[A7], [A5 - 0x474E]
00002E06  A873                     syscall    SetPort
label00002E08:
00002E08  4CDF 10E0                movem.l    D5,D6,D7,A4, [A7]+
00002E0C  4E5E                     unlink     A6
00002E0E  4E75                     rts
fn00002E10:
00002E10  4E56 FFCE                link       A6, -0x0032
00002E14  48E7 0108                movem.l    -[A7], D7,A4
00002E18  286E 0008                movea.l    A4, [A6 + 0x8]
00002E1C  302C FFE6                move.w     D0, [A4 - 0x1A]
00002E20  0640 FFEF                addi.w     D0, 0xFFEF
00002E24  48C0                     ext.l      D0
00002E26  81FC 0008                divs.w     D0, 0x8
00002E2A  3940 FFEA                move.w     [A4 - 0x16], D0
00002E2E  486C FFD0                pea.l      [A4 - 0x30]
00002E32  4267                     clr.w      -[A7]
00002E34  4267                     clr.w      -[A7]
00002E36  3F3C 0008                move.w     -[A7], 0x8
00002E3A  3F3C 0031                move.w     -[A7], 0x31 /* '1' */
00002E3E  A8A7                     syscall    SetRect
00002E40  486C FFD0                pea.l      [A4 - 0x30]
00002E44  302C FFEA                move.w     D0, [A4 - 0x16]
00002E48  E740                     asl        D0.w, 3
00002E4A  0640 0011                addi.w     D0, 0x11
00002E4E  3F00                     move.w     -[A7], D0
00002E50  3F3C 0053                move.w     -[A7], 0x53 /* 'S' */
00002E54  A8A8                     syscall    OffsetRect
00002E56  486C FFE4                pea.l      [A4 - 0x1C]
00002E5A  A972                     syscall    GetMouse
00002E5C  296C FFE4 FFE0           move.l     [A4 - 0x20], [A4 - 0x1C]
00002E62  486D FFB2                pea.l      [A5 - 0x4E]
00002E66  A89D                     syscall    PenPat
00002E68  3F3C 000A                move.w     -[A7], 0xA /* '\n' */
00002E6C  A89C                     syscall    PenMode
00002E6E  486C FFD0                pea.l      [A4 - 0x30]
00002E72  A8A1                     syscall    FrameRect
00002E74  6034                     bra        +0x36 /* 00002EAA */
label00002E76:
00002E76  486C FFE0                pea.l      [A4 - 0x20]
00002E7A  A972                     syscall    GetMouse
00002E7C  302C FFE2                move.w     D0, [A4 - 0x1E]
00002E80  B06C FFE6                cmp.w      D0, [A4 - 0x1A]
00002E84  6724                     beq        +0x26 /* 00002EAA */
00002E86  486C FFD0                pea.l      [A4 - 0x30]
00002E8A  A8A1                     syscall    FrameRect
00002E8C  486C FFD0                pea.l      [A4 - 0x30]
00002E90  302C FFE2                move.w     D0, [A4 - 0x1E]
00002E94  906C FFE6                sub.w      D0, [A4 - 0x1A]
00002E98  3F00                     move.w     -[A7], D0
00002E9A  4267                     clr.w      -[A7]
00002E9C  A8A8                     syscall    OffsetRect
00002E9E  486C FFD0                pea.l      [A4 - 0x30]
00002EA2  A8A1                     syscall    FrameRect
00002EA4  296C FFE0 FFE4           move.l     [A4 - 0x1C], [A4 - 0x20]
label00002EAA:
00002EAA  554F                     subq.w     A7, 2
00002EAC  A977                     syscall    WaitMouseUp
00002EAE  4A1F                     tst.b      [A7]+
00002EB0  66C4                     bne        -0x3A /* 00002E76 */
00002EB2  486C FFD0                pea.l      [A4 - 0x30]
00002EB6  A8A1                     syscall    FrameRect
00002EB8  A89E                     syscall    PenNormal
00002EBA  486C FFC0                pea.l      [A4 - 0x40]
00002EBE  3F3C 006F                move.w     -[A7], 0x6F /* 'o' */
00002EC2  3F3C 0053                move.w     -[A7], 0x53 /* 'S' */
00002EC6  3F3C 00AF                move.w     -[A7], 0xAF
00002ECA  3F3C 0084                move.w     -[A7], 0x84
00002ECE  A8A7                     syscall    SetRect
00002ED0  554F                     subq.w     A7, 2
00002ED2  2F2C FFE0                move.l     -[A7], [A4 - 0x20]
00002ED6  486C FFC0                pea.l      [A4 - 0x40]
00002EDA  A8AD                     syscall    PtInRect
00002EDC  4A1F                     tst.b      [A7]+
00002EDE  673E                     beq        +0x40 /* 00002F1E */
00002EE0  302C FFE2                move.w     D0, [A4 - 0x1E]
00002EE4  0640 FF91                addi.w     D0, 0xFF91
00002EE8  48C0                     ext.l      D0
00002EEA  81FC 0008                divs.w     D0, 0x8
00002EEE  3940 FFE8                move.w     [A4 - 0x18], D0
00002EF2  0C6C FFFF FFE8           cmpi.w     [A4 - 0x18], 0xFFFF
00002EF8  5EC0                     sgt        D0
00002EFA  0C6C 0008 FFE8           cmpi.w     [A4 - 0x18], 0x8
00002F00  5DC1                     slt        D1
00002F02  C001                     and.b      D0, D1
00002F04  6712                     beq        +0x14 /* 00002F18 */
00002F06  302C FFE8                move.w     D0, [A4 - 0x18]
00002F0A  D040                     add.w      D0, D0
00002F0C  0640 FDA8                addi.w     D0, 0xFDA8
00002F10  3BAC FFEA 0000           move.w     [A5 + D0.w], [A4 - 0x16]
00002F16  6006                     bra        +0x8 /* 00002F1E */
label00002F18:
00002F18  3F3C 0001                move.w     -[A7], 0x1
00002F1C  A9C8                     syscall    SysBeep
label00002F1E:
00002F1E  4247                     clr.w      D7
label00002F20:
00002F20  486C FFD0                pea.l      [A4 - 0x30]
00002F24  4267                     clr.w      -[A7]
00002F26  4267                     clr.w      -[A7]
00002F28  3F3C 0008                move.w     -[A7], 0x8
00002F2C  3F3C 0031                move.w     -[A7], 0x31 /* '1' */
00002F30  A8A7                     syscall    SetRect
00002F32  486C FFD0                pea.l      [A4 - 0x30]
00002F36  3007                     move.w     D0, D7
00002F38  E740                     asl        D0.w, 3
00002F3A  0640 006F                addi.w     D0, 0x6F /* 'o' */
00002F3E  3F00                     move.w     -[A7], D0
00002F40  3F3C 0053                move.w     -[A7], 0x53 /* 'S' */
00002F44  A8A8                     syscall    OffsetRect
00002F46  594F                     subq.w     A7, 4
00002F48  3007                     move.w     D0, D7
00002F4A  D040                     add.w      D0, D0
00002F4C  0640 FDA8                addi.w     D0, 0xFDA8
00002F50  3035 0000                move.w     D0, [A5 + D0.w]
00002F54  0640 012C                addi.w     D0, 0x12C
00002F58  322D FDB8                move.w     D1, [A5 - 0x248]
00002F5C  E741                     asl        D1.w, 3
00002F5E  D041                     add.w      D0, D1
00002F60  3F00                     move.w     -[A7], D0
00002F62  A9BC                     syscall    GetPicture
00002F64  295F FFD8                move.l     [A4 - 0x28], [A7]+
00002F68  4AAC FFD8                tst.l      [A4 - 0x28]
00002F6C  672E                     beq        +0x30 /* 00002F9C */
00002F6E  554F                     subq.w     A7, 2
00002F70  2F2C FFD8                move.l     -[A7], [A4 - 0x28]
00002F74  4EAD 00DA                jsr        [A5 + 0xDA /* export_23, CODE:1 @ 0000053A */]
00002F78  195F FFB7                move.b     [A4 - 0x49], [A7]+
00002F7C  2F2C FFD8                move.l     -[A7], [A4 - 0x28]
00002F80  4EAD 0052                jsr        [A5 + 0x52 /* export_6, CODE:1 @ 000002A8 */]
00002F84  2F2C FFD8                move.l     -[A7], [A4 - 0x28]
00002F88  486C FFD0                pea.l      [A4 - 0x30]
00002F8C  A8F6                     syscall    DrawPicture
00002F8E  2F2C FFD8                move.l     -[A7], [A4 - 0x28]
00002F92  1F2C FFB7                move.b     -[A7], [A4 - 0x49]
00002F96  4EAD 00E2                jsr        [A5 + 0xE2 /* export_24, CODE:1 @ 00000544 */]
00002F9A  6008                     bra        +0xA /* 00002FA4 */
label00002F9C:
00002F9C  3F3C 0009                move.w     -[A7], 0x9 /* '\t' */
00002FA0  4EAD 0272                jsr        [A5 + 0x272 /* export_74, CODE:5 @ 00000A50 */]
label00002FA4:
00002FA4  2F2C FFD8                move.l     -[A7], [A4 - 0x28]
00002FA8  A9A3                     syscall    ReleaseResource
00002FAA  5247                     addq.w     D7, 1
00002FAC  0C47 0007                cmpi.w     D7, 0x7
00002FB0  6F00 FF6E                ble        -0x90 /* 00002F20 */
00002FB4  4CDF 1080                movem.l    D7,A4, [A7]+
00002FB8  4E5E                     unlink     A6
00002FBA  2E9F                     move.l     [A7], [A7]+
00002FBC  4E75                     rts
export_53:
00002FBE  4E56 FF96                link       A6, -0x006A
00002FC2  2F0C                     move.l     -[A7], A4
00002FC4  286E 000C                movea.l    A4, [A6 + 0xC]
00002FC8  422E 0014                clr.b      [A6 + 0x14]
00002FCC  0C54 0003                cmpi.w     [A4], 0x3
00002FD0  57C0                     seq        D0
00002FD2  222C 0002                move.l     D1, [A4 + 0x2]
00002FD6  0281 0000 00FF           andi.l     D1, 0xFF
00002FDC  740D                     moveq.l    D2, 0x0D
00002FDE  B282                     cmp.l      D1, D2
00002FE0  57C1                     seq        D1
00002FE2  C001                     and.b      D0, D1
00002FE4  670E                     beq        +0x10 /* 00002FF4 */
00002FE6  206E 0008                movea.l    A0, [A6 + 0x8]
00002FEA  30BC 0001                move.w     [A0], 0x1
00002FEE  1D7C 0001 0014           move.b     [A6 + 0x14], 0x1
label00002FF4:
00002FF4  0C54 0001                cmpi.w     [A4], 0x1
00002FF8  6632                     bne        +0x34 /* 0000302C */
00002FFA  486E FFE4                pea.l      [A6 - 0x1C]
00002FFE  A972                     syscall    GetMouse
00003000  486E FFD0                pea.l      [A6 - 0x30]
00003004  3F3C 0011                move.w     -[A7], 0x11
00003008  3F3C 0053                move.w     -[A7], 0x53 /* 'S' */
0000300C  3F3C 0051                move.w     -[A7], 0x51 /* 'Q' */
00003010  3F3C 0084                move.w     -[A7], 0x84
00003014  A8A7                     syscall    SetRect
00003016  554F                     subq.w     A7, 2
00003018  2F2E FFE4                move.l     -[A7], [A6 - 0x1C]
0000301C  486E FFD0                pea.l      [A6 - 0x30]
00003020  A8AD                     syscall    PtInRect
00003022  4A1F                     tst.b      [A7]+
00003024  6706                     beq        +0x8 /* 0000302C */
00003026  2F0E                     move.l     -[A7], A6
00003028  4EBA FDE6                jsr        [PC - 0x21A /* 00002E10 */]
label0000302C:
0000302C  486E FFB8                pea.l      [A6 - 0x48]
00003030  3F3C 0011                move.w     -[A7], 0x11
00003034  3F3C 004E                move.w     -[A7], 0x4E /* 'N' */
00003038  3F3C 0051                move.w     -[A7], 0x51 /* 'Q' */
0000303C  3F3C 0051                move.w     -[A7], 0x51 /* 'Q' */
00003040  A8A7                     syscall    SetRect
00003042  486E FFB8                pea.l      [A6 - 0x48]
00003046  A8A3                     syscall    EraseRect
00003048  486E FFB8                pea.l      [A6 - 0x48]
0000304C  3F3C 0011                move.w     -[A7], 0x11
00003050  3F3C 0086                move.w     -[A7], 0x86
00003054  3F3C 0051                move.w     -[A7], 0x51 /* 'Q' */
00003058  3F3C 0089                move.w     -[A7], 0x89
0000305C  A8A7                     syscall    SetRect
0000305E  486E FFB8                pea.l      [A6 - 0x48]
00003062  A8A3                     syscall    EraseRect
00003064  486E FFE4                pea.l      [A6 - 0x1C]
00003068  A972                     syscall    GetMouse
0000306A  486E FFD0                pea.l      [A6 - 0x30]
0000306E  3F3C 0011                move.w     -[A7], 0x11
00003072  3F3C 0053                move.w     -[A7], 0x53 /* 'S' */
00003076  3F3C 0051                move.w     -[A7], 0x51 /* 'Q' */
0000307A  3F3C 0084                move.w     -[A7], 0x84
0000307E  A8A7                     syscall    SetRect
00003080  554F                     subq.w     A7, 2
00003082  2F2E FFE4                move.l     -[A7], [A6 - 0x1C]
00003086  486E FFD0                pea.l      [A6 - 0x30]
0000308A  A8AD                     syscall    PtInRect
0000308C  4A1F                     tst.b      [A7]+
0000308E  6700 00A4                beq        +0xA6 /* 00003134 */
00003092  302E FFE6                move.w     D0, [A6 - 0x1A]
00003096  0640 FFEF                addi.w     D0, 0xFFEF
0000309A  48C0                     ext.l      D0
0000309C  81FC 0008                divs.w     D0, 0x8
000030A0  3D40 FFEA                move.w     [A6 - 0x16], D0
000030A4  486E FFD0                pea.l      [A6 - 0x30]
000030A8  4267                     clr.w      -[A7]
000030AA  4267                     clr.w      -[A7]
000030AC  3F3C 0008                move.w     -[A7], 0x8
000030B0  3F3C 0031                move.w     -[A7], 0x31 /* '1' */
000030B4  A8A7                     syscall    SetRect
000030B6  486E FFD0                pea.l      [A6 - 0x30]
000030BA  302E FFEA                move.w     D0, [A6 - 0x16]
000030BE  E740                     asl        D0.w, 3
000030C0  0640 0011                addi.w     D0, 0x11
000030C4  3F00                     move.w     -[A7], D0
000030C6  3F3C 0053                move.w     -[A7], 0x53 /* 'S' */
000030CA  A8A8                     syscall    OffsetRect
000030CC  41EE FFD0                lea.l      A0, [A6 - 0x30]
000030D0  43EE FFB8                lea.l      A1, [A6 - 0x48]
000030D4  22D8                     move.l     [A1]+, [A0]+
000030D6  22D8                     move.l     [A1]+, [A0]+
000030D8  302E FFB8                move.w     D0, [A6 - 0x48]
000030DC  5B40                     subq.w     D0, 5
000030DE  3D40 FFB8                move.w     [A6 - 0x48], D0
000030E2  302E FFB8                move.w     D0, [A6 - 0x48]
000030E6  5640                     addq.w     D0, 3
000030E8  3D40 FFBC                move.w     [A6 - 0x44], D0
000030EC  2F3C 0000 00CD           move.l     -[A7], 0xCD
000030F2  A862                     syscall    ForeColor
000030F4  486E FFB8                pea.l      [A6 - 0x48]
000030F8  A8A2                     syscall    PaintRect
000030FA  7021                     moveq.l    D0, 0x21
000030FC  2F00                     move.l     -[A7], D0
000030FE  A862                     syscall    ForeColor
00003100  41EE FFD0                lea.l      A0, [A6 - 0x30]
00003104  43EE FFB8                lea.l      A1, [A6 - 0x48]
00003108  22D8                     move.l     [A1]+, [A0]+
0000310A  22D8                     move.l     [A1]+, [A0]+
0000310C  302E FFBC                move.w     D0, [A6 - 0x44]
00003110  5A40                     addq.w     D0, 5
00003112  3D40 FFBC                move.w     [A6 - 0x44], D0
00003116  302E FFBC                move.w     D0, [A6 - 0x44]
0000311A  5740                     subq.w     D0, 3
0000311C  3D40 FFB8                move.w     [A6 - 0x48], D0
00003120  2F3C 0000 00CD           move.l     -[A7], 0xCD
00003126  A862                     syscall    ForeColor
00003128  486E FFB8                pea.l      [A6 - 0x48]
0000312C  A8A2                     syscall    PaintRect
0000312E  7021                     moveq.l    D0, 0x21
00003130  2F00                     move.l     -[A7], D0
00003132  A862                     syscall    ForeColor
label00003134:
00003134  285F                     movea.l    A4, [A7]+
00003136  4E5E                     unlink     A6
00003138  205F                     movea.l    A0, [A7]+
0000313A  4FEF 000C                lea.l      A7, [A7 + 0xC]
0000313E  4ED0                     jmp        [A0]
fn00003140:
00003140  4E56 FFCA                link       A6, -0x0036
00003144  48E7 0718                movem.l    -[A7], D5,D6,D7,A3,A4
00003148  286E 0008                movea.l    A4, [A6 + 0x8]
0000314C  2F2C FFE6                move.l     -[A7], [A4 - 0x1A]
00003150  A873                     syscall    SetPort
00003152  2F2C FFE6                move.l     -[A7], [A4 - 0x1A]
00003156  3F3C 0001                move.w     -[A7], 0x1
0000315A  486C FFD4                pea.l      [A4 - 0x2C]
0000315E  486C FFC4                pea.l      [A4 - 0x3C]
00003162  486C FFDE                pea.l      [A4 - 0x22]
00003166  A98D                     syscall    GetDialogItem/GetDItem
00003168  3F3C 0003                move.w     -[A7], 0x3
0000316C  3F3C 0003                move.w     -[A7], 0x3
00003170  A89B                     syscall    PenSize
00003172  486C FFDE                pea.l      [A4 - 0x22]
00003176  3F3C FFFC                move.w     -[A7], 0xFFFC
0000317A  3F3C FFFC                move.w     -[A7], 0xFFFC
0000317E  A8A9                     syscall    InsetRect
00003180  486C FFDE                pea.l      [A4 - 0x22]
00003184  3F3C 0010                move.w     -[A7], 0x10
00003188  3F3C 0010                move.w     -[A7], 0x10
0000318C  A8B0                     syscall    FrameRoundRect
0000318E  2F2C FFE6                move.l     -[A7], [A4 - 0x1A]
00003192  302D FDB8                move.w     D0, [A5 - 0x248]
00003196  5640                     addq.w     D0, 3
00003198  3F00                     move.w     -[A7], D0
0000319A  486C FFD4                pea.l      [A4 - 0x2C]
0000319E  486C FFC4                pea.l      [A4 - 0x3C]
000031A2  486C FFDE                pea.l      [A4 - 0x22]
000031A6  A98D                     syscall    GetDialogItem/GetDItem
000031A8  3F3C 0002                move.w     -[A7], 0x2
000031AC  3F3C 0002                move.w     -[A7], 0x2
000031B0  A89B                     syscall    PenSize
000031B2  486C FFDE                pea.l      [A4 - 0x22]
000031B6  3F3C FFFE                move.w     -[A7], 0xFFFE
000031BA  3F3C FFFE                move.w     -[A7], 0xFFFE
000031BE  A8A9                     syscall    InsetRect
000031C0  2F3C 0000 00CD           move.l     -[A7], 0xCD
000031C6  A862                     syscall    ForeColor
000031C8  486C FFDE                pea.l      [A4 - 0x22]
000031CC  A8A1                     syscall    FrameRect
000031CE  7021                     moveq.l    D0, 0x21
000031D0  2F00                     move.l     -[A7], D0
000031D2  A862                     syscall    ForeColor
000031D4  41EC FFDE                lea.l      A0, [A4 - 0x22]
000031D8  43EC FFD6                lea.l      A1, [A4 - 0x2A]
000031DC  22D8                     move.l     [A1]+, [A0]+
000031DE  22D8                     move.l     [A1]+, [A0]+
000031E0  A89E                     syscall    PenNormal
000031E2  206C FFE6                movea.l    A0, [A4 - 0x1A]
000031E6  47E8 0010                lea.l      A3, [A0 + 0x10]
000031EA  3A2B 0006                move.w     D5, [A3 + 0x6]
000031EE  9A6B 0002                sub.w      D5, [A3 + 0x2]
000031F2  3F3C 0004                move.w     -[A7], 0x4
000031F6  3F3C 0026                move.w     -[A7], 0x26 /* '&' */
000031FA  A893                     syscall    MoveTo
000031FC  3005                     move.w     D0, D5
000031FE  5140                     subq.w     D0, 8
00003200  3F00                     move.w     -[A7], D0
00003202  4267                     clr.w      -[A7]
00003204  A892                     syscall    Line
00003206  3F3C 0004                move.w     -[A7], 0x4
0000320A  3F3C 0028                move.w     -[A7], 0x28 /* '(' */
0000320E  A893                     syscall    MoveTo
00003210  3005                     move.w     D0, D5
00003212  5140                     subq.w     D0, 8
00003214  3F00                     move.w     -[A7], D0
00003216  4267                     clr.w      -[A7]
00003218  A892                     syscall    Line
0000321A  4247                     clr.w      D7
label0000321C:
0000321C  486C FFDE                pea.l      [A4 - 0x22]
00003220  4267                     clr.w      -[A7]
00003222  4267                     clr.w      -[A7]
00003224  3F3C 0008                move.w     -[A7], 0x8
00003228  3F3C 0031                move.w     -[A7], 0x31 /* '1' */
0000322C  A8A7                     syscall    SetRect
0000322E  486C FFDE                pea.l      [A4 - 0x22]
00003232  3007                     move.w     D0, D7
00003234  E740                     asl        D0.w, 3
00003236  0640 006F                addi.w     D0, 0x6F /* 'o' */
0000323A  3F00                     move.w     -[A7], D0
0000323C  3F3C 0053                move.w     -[A7], 0x53 /* 'S' */
00003240  A8A8                     syscall    OffsetRect
00003242  594F                     subq.w     A7, 4
00003244  3007                     move.w     D0, D7
00003246  D040                     add.w      D0, D0
00003248  0640 FDA8                addi.w     D0, 0xFDA8
0000324C  3035 0000                move.w     D0, [A5 + D0.w]
00003250  0640 012C                addi.w     D0, 0x12C
00003254  322D FDB8                move.w     D1, [A5 - 0x248]
00003258  E741                     asl        D1.w, 3
0000325A  D041                     add.w      D0, D1
0000325C  3F00                     move.w     -[A7], D0
0000325E  A9BC                     syscall    GetPicture
00003260  295F FDF8                move.l     [A4 - 0x208], [A7]+
00003264  4AAC FDF8                tst.l      [A4 - 0x208]
00003268  672A                     beq        +0x2C /* 00003294 */
0000326A  554F                     subq.w     A7, 2
0000326C  2F2C FDF8                move.l     -[A7], [A4 - 0x208]
00003270  4EAD 00DA                jsr        [A5 + 0xDA /* export_23, CODE:1 @ 0000053A */]
00003274  1C1F                     move.b     D6, [A7]+
00003276  2F2C FDF8                move.l     -[A7], [A4 - 0x208]
0000327A  4EAD 0052                jsr        [A5 + 0x52 /* export_6, CODE:1 @ 000002A8 */]
0000327E  2F2C FDF8                move.l     -[A7], [A4 - 0x208]
00003282  486C FFDE                pea.l      [A4 - 0x22]
00003286  A8F6                     syscall    DrawPicture
00003288  2F2C FDF8                move.l     -[A7], [A4 - 0x208]
0000328C  1F06                     move.b     -[A7], D6
0000328E  4EAD 00E2                jsr        [A5 + 0xE2 /* export_24, CODE:1 @ 00000544 */]
00003292  6008                     bra        +0xA /* 0000329C */
label00003294:
00003294  3F3C 0009                move.w     -[A7], 0x9 /* '\t' */
00003298  4EAD 0272                jsr        [A5 + 0x272 /* export_74, CODE:5 @ 00000A50 */]
label0000329C:
0000329C  2F2C FDF8                move.l     -[A7], [A4 - 0x208]
000032A0  A9A3                     syscall    ReleaseResource
000032A2  5247                     addq.w     D7, 1
000032A4  0C47 0007                cmpi.w     D7, 0x7
000032A8  6F00 FF72                ble        -0x8C /* 0000321C */
000032AC  4247                     clr.w      D7
label000032AE:
000032AE  486C FFDE                pea.l      [A4 - 0x22]
000032B2  4267                     clr.w      -[A7]
000032B4  4267                     clr.w      -[A7]
000032B6  3F3C 0008                move.w     -[A7], 0x8
000032BA  3F3C 0031                move.w     -[A7], 0x31 /* '1' */
000032BE  A8A7                     syscall    SetRect
000032C0  486C FFDE                pea.l      [A4 - 0x22]
000032C4  3007                     move.w     D0, D7
000032C6  E740                     asl        D0.w, 3
000032C8  0640 0011                addi.w     D0, 0x11
000032CC  3F00                     move.w     -[A7], D0
000032CE  3F3C 0053                move.w     -[A7], 0x53 /* 'S' */
000032D2  A8A8                     syscall    OffsetRect
000032D4  594F                     subq.w     A7, 4
000032D6  3007                     move.w     D0, D7
000032D8  0640 012C                addi.w     D0, 0x12C
000032DC  322D FDB8                move.w     D1, [A5 - 0x248]
000032E0  E741                     asl        D1.w, 3
000032E2  D041                     add.w      D0, D1
000032E4  3F00                     move.w     -[A7], D0
000032E6  A9BC                     syscall    GetPicture
000032E8  295F FDF8                move.l     [A4 - 0x208], [A7]+
000032EC  4AAC FDF8                tst.l      [A4 - 0x208]
000032F0  672A                     beq        +0x2C /* 0000331C */
000032F2  554F                     subq.w     A7, 2
000032F4  2F2C FDF8                move.l     -[A7], [A4 - 0x208]
000032F8  4EAD 00DA                jsr        [A5 + 0xDA /* export_23, CODE:1 @ 0000053A */]
000032FC  1C1F                     move.b     D6, [A7]+
000032FE  2F2C FDF8                move.l     -[A7], [A4 - 0x208]
00003302  4EAD 0052                jsr        [A5 + 0x52 /* export_6, CODE:1 @ 000002A8 */]
00003306  2F2C FDF8                move.l     -[A7], [A4 - 0x208]
0000330A  486C FFDE                pea.l      [A4 - 0x22]
0000330E  A8F6                     syscall    DrawPicture
00003310  2F2C FDF8                move.l     -[A7], [A4 - 0x208]
00003314  1F06                     move.b     -[A7], D6
00003316  4EAD 00E2                jsr        [A5 + 0xE2 /* export_24, CODE:1 @ 00000544 */]
0000331A  6008                     bra        +0xA /* 00003324 */
label0000331C:
0000331C  3F3C 0009                move.w     -[A7], 0x9 /* '\t' */
00003320  4EAD 0272                jsr        [A5 + 0x272 /* export_74, CODE:5 @ 00000A50 */]
label00003324:
00003324  2F2C FDF8                move.l     -[A7], [A4 - 0x208]
00003328  A9A3                     syscall    ReleaseResource
0000332A  5247                     addq.w     D7, 1
0000332C  0C47 0007                cmpi.w     D7, 0x7
00003330  6F00 FF7C                ble        -0x82 /* 000032AE */
00003334  2F3C 0000 00CD           move.l     -[A7], 0xCD
0000333A  A862                     syscall    ForeColor
0000333C  486C FFDE                pea.l      [A4 - 0x22]
00003340  3F3C 000F                move.w     -[A7], 0xF
00003344  3F3C 0051                move.w     -[A7], 0x51 /* 'Q' */
00003348  3F3C 0053                move.w     -[A7], 0x53 /* 'S' */
0000334C  3F3C 0086                move.w     -[A7], 0x86
00003350  A8A7                     syscall    SetRect
00003352  486C FFDE                pea.l      [A4 - 0x22]
00003356  A8A1                     syscall    FrameRect
00003358  2F3C 0000 0199           move.l     -[A7], 0x199
0000335E  A862                     syscall    ForeColor
00003360  486C FFDE                pea.l      [A4 - 0x22]
00003364  3F3C 006D                move.w     -[A7], 0x6D /* 'm' */
00003368  3F3C 0051                move.w     -[A7], 0x51 /* 'Q' */
0000336C  3F3C 00B1                move.w     -[A7], 0xB1
00003370  3F3C 0086                move.w     -[A7], 0x86
00003374  A8A7                     syscall    SetRect
00003376  486C FFDE                pea.l      [A4 - 0x22]
0000337A  A8A1                     syscall    FrameRect
0000337C  7021                     moveq.l    D0, 0x21
0000337E  2F00                     move.l     -[A7], D0
00003380  A862                     syscall    ForeColor
00003382  4CDF 18E0                movem.l    D5,D6,D7,A3,A4, [A7]+
00003386  4E5E                     unlink     A6
00003388  2E9F                     move.l     [A7], [A7]+
0000338A  4E75                     rts
export_54:
0000338C  4E56 FCAE                link       A6, -0x0352
00003390  48E7 1F18                movem.l    -[A7], D3,D4,D5,D6,D7,A3,A4
00003394  286E 0008                movea.l    A4, [A6 + 0x8]
00003398  486E FFEC                pea.l      [A6 - 0x14]
0000339C  A874                     syscall    GetPort
0000339E  594F                     subq.w     A7, 4
000033A0  3F3C 0082                move.w     -[A7], 0x82
000033A4  42A7                     clr.l      -[A7]
000033A6  70FF                     moveq.l    D0, 0xFFFFFFFF
000033A8  2F00                     move.l     -[A7], D0
000033AA  A97C                     syscall    GetNewDialog
000033AC  2D5F FFE6                move.l     [A6 - 0x1A], [A7]+
000033B0  4AAE FFE6                tst.l      [A6 - 0x1A]
000033B4  660C                     bne        +0xE /* 000033C2 */
000033B6  3F3C 000C                move.w     -[A7], 0xC
000033BA  4EAD 0272                jsr        [A5 + 0x272 /* export_74, CODE:5 @ 00000A50 */]
000033BE  6000 0392                bra        +0x394 /* 00003752 */
label000033C2:
000033C2  206E FFE6                movea.l    A0, [A6 - 0x1A]
000033C6  47E8 0002                lea.l      A3, [A0 + 0x2]
000033CA  362D BB40                move.w     D3, [A5 - 0x44C0]
000033CE  966B 0008                sub.w      D3, [A3 + 0x8]
000033D2  382D BB42                move.w     D4, [A5 - 0x44BE]
000033D6  986B 0006                sub.w      D4, [A3 + 0x6]
000033DA  2F2E FFE6                move.l     -[A7], [A6 - 0x1A]
000033DE  3F03                     move.w     -[A7], D3
000033E0  3F04                     move.w     -[A7], D4
000033E2  4227                     clr.b      -[A7]
000033E4  A91B                     syscall    MoveWindow
000033E6  2F2E FFE6                move.l     -[A7], [A6 - 0x1A]
000033EA  A915                     syscall    ShowWindow
000033EC  2F2E FFE6                move.l     -[A7], [A6 - 0x1A]
000033F0  A91F                     syscall    SelectWindow
000033F2  2F2E FFE6                move.l     -[A7], [A6 - 0x1A]
000033F6  A873                     syscall    SetPort
000033F8  41FA 03D4                lea.l      A0, [PC + 0x3D4 /* 000037CE, value 0xA506C61 '\nPla', pstring "Plain Room" */]
000033FC  43EE FDFC                lea.l      A1, [A6 - 0x204]
00003400  22D8                     move.l     [A1]+, [A0]+
00003402  22D8                     move.l     [A1]+, [A0]+
00003404  22D8                     move.l     [A1]+, [A0]+
00003406  41FA 03B8                lea.l      A0, [PC + 0x3B8 /* 000037C0, value 0xC50616E, pstring "Paneled Room" */]
0000340A  43EE FE10                lea.l      A1, [A6 - 0x1F0]
0000340E  22D8                     move.l     [A1]+, [A0]+
00003410  22D8                     move.l     [A1]+, [A0]+
00003412  22D8                     move.l     [A1]+, [A0]+
00003414  22D8                     move.l     [A1]+, [A0]+
00003416  41FA 039E                lea.l      A0, [PC + 0x39E /* 000037B6, value 0x8426173, pstring "Basement" */]
0000341A  43EE FE24                lea.l      A1, [A6 - 0x1DC]
0000341E  22D8                     move.l     [A1]+, [A0]+
00003420  22D8                     move.l     [A1]+, [A0]+
00003422  22D8                     move.l     [A1]+, [A0]+
00003424  41FA 0382                lea.l      A0, [PC + 0x382 /* 000037A8, value 0xD4A6170 '\rJap', pstring "Japanese Room" */]
00003428  43EE FE38                lea.l      A1, [A6 - 0x1C8]
0000342C  22D8                     move.l     [A1]+, [A0]+
0000342E  22D8                     move.l     [A1]+, [A0]+
00003430  22D8                     move.l     [A1]+, [A0]+
00003432  22D8                     move.l     [A1]+, [A0]+
00003434  41FA 0364                lea.l      A0, [PC + 0x364 /* 0000379A, value 0xC436869 */]
00003438  43EE FE4C                lea.l      A1, [A6 - 0x1B4]
0000343C  22D8                     move.l     [A1]+, [A0]+
0000343E  22D8                     move.l     [A1]+, [A0]+
00003440  22D8                     move.l     [A1]+, [A0]+
00003442  22D8                     move.l     [A1]+, [A0]+
00003444  41FA 0344                lea.l      A0, [PC + 0x344 /* 0000378A, value 0xF556E66, pstring "Unfinished Room" */]
00003448  43EE FE60                lea.l      A1, [A6 - 0x1A0]
0000344C  22D8                     move.l     [A1]+, [A0]+
0000344E  22D8                     move.l     [A1]+, [A0]+
00003450  22D8                     move.l     [A1]+, [A0]+
00003452  22D8                     move.l     [A1]+, [A0]+
00003454  41FA 0326                lea.l      A0, [PC + 0x326 /* 0000377C, value 0xD486970 '\rHip', pstring "Hip Wallpaper" */]
00003458  43EE FE74                lea.l      A1, [A6 - 0x18C]
0000345C  22D8                     move.l     [A1]+, [A0]+
0000345E  22D8                     move.l     [A1]+, [A0]+
00003460  22D8                     move.l     [A1]+, [A0]+
00003462  22D8                     move.l     [A1]+, [A0]+
00003464  41FA 0308                lea.l      A0, [PC + 0x308 /* 0000376E, value 0xD456E74 '\rEnt', pstring "Entertainment" */]
00003468  43EE FE88                lea.l      A1, [A6 - 0x178]
0000346C  22D8                     move.l     [A1]+, [A0]+
0000346E  22D8                     move.l     [A1]+, [A0]+
00003470  22D8                     move.l     [A1]+, [A0]+
00003472  22D8                     move.l     [A1]+, [A0]+
00003474  41FA 02EE                lea.l      A0, [PC + 0x2EE /* 00003764, value 0x8426174, pstring "Bathroom" */]
00003478  43EE FE9C                lea.l      A1, [A6 - 0x164]
0000347C  22D8                     move.l     [A1]+, [A0]+
0000347E  22D8                     move.l     [A1]+, [A0]+
00003480  22D8                     move.l     [A1]+, [A0]+
00003482  41FA 02D8                lea.l      A0, [PC + 0x2D8 /* 0000375C, value 0x74B6974, pstring "Kitchen" */]
00003486  43EE FEB0                lea.l      A1, [A6 - 0x150]
0000348A  22D8                     move.l     [A1]+, [A0]+
0000348C  22D8                     move.l     [A1]+, [A0]+
0000348E  41ED F1F2                lea.l      A0, [A5 - 0xE0E]
00003492  43EE FCBE                lea.l      A1, [A6 - 0x342]
00003496  704D                     moveq.l    D0, 0x4D
label00003498:
00003498  22D8                     move.l     [A1]+, [A0]+
0000349A  51C8 FFFC                dbf        D0, -0x6 /* 00003498 */
0000349E  32D8                     move.w     [A1]+, [A0]+
000034A0  302E FCDA                move.w     D0, [A6 - 0x326]
000034A4  0640 FF38                addi.w     D0, 0xFF38
000034A8  3B40 FDB8                move.w     [A5 - 0x248], D0
000034AC  4247                     clr.w      D7
label000034AE:
000034AE  3007                     move.w     D0, D7
000034B0  D040                     add.w      D0, D0
000034B2  3207                     move.w     D1, D7
000034B4  D241                     add.w      D1, D1
000034B6  0640 FCDC                addi.w     D0, 0xFCDC
000034BA  0641 FDA8                addi.w     D1, 0xFDA8
000034BE  3BB6 0000 1000           move.w     [A5 + D1.w], [A6 + D0.w]
000034C4  5247                     addq.w     D7, 1
000034C6  0C47 0007                cmpi.w     D7, 0x7
000034CA  6FE2                     ble        -0x1C /* 000034AE */
000034CC  2F2E FFE6                move.l     -[A7], [A6 - 0x1A]
000034D0  3F3C 000D                move.w     -[A7], 0xD /* '\r' */
000034D4  486E FFD4                pea.l      [A6 - 0x2C]
000034D8  486E FFC4                pea.l      [A6 - 0x3C]
000034DC  486E FFDE                pea.l      [A6 - 0x22]
000034E0  A98D                     syscall    GetDialogItem/GetDItem
000034E2  2F2E FFC4                move.l     -[A7], [A6 - 0x3C]
000034E6  302D FDB8                move.w     D0, [A5 - 0x248]
000034EA  C1FC 0014                muls.w     D0, 0x14
000034EE  0640 FDFC                addi.w     D0, 0xFDFC
000034F2  4876 0000                pea.l      [A6 + D0.w]
000034F6  A98F                     syscall    SetDialogItemText/SetIText
000034F8  1014                     move.b     D0, [A4]
000034FA  5300                     subq.b     D0, 1
000034FC  670A                     beq        +0xC /* 00003508 */
000034FE  2F2E FFE6                move.l     -[A7], [A6 - 0x1A]
00003502  3F3C 0002                move.w     -[A7], 0x2
00003506  A827                     syscall    HideDialogItem/HideDItem
label00003508:
00003508  2F0E                     move.l     -[A7], A6
0000350A  4EBA FC34                jsr        [PC - 0x3CC /* 00003140 */]
0000350E  4205                     clr.b      D5
00003510  4214                     clr.b      [A4]
label00003512:
00003512  486D 01CA                pea.l      [A5 + 0x1CA /* export_53, CODE:2 @ 00002FBE */]
00003516  486E FFCE                pea.l      [A6 - 0x32]
0000351A  A991                     syscall    ModalDialog
0000351C  2F2E FFE6                move.l     -[A7], [A6 - 0x1A]
00003520  3F2E FFCE                move.w     -[A7], [A6 - 0x32]
00003524  486E FFD4                pea.l      [A6 - 0x2C]
00003528  486E FFC4                pea.l      [A6 - 0x3C]
0000352C  486E FFDE                pea.l      [A6 - 0x22]
00003530  A98D                     syscall    GetDialogItem/GetDItem
00003532  7E03                     moveq.l    D7, 0x03
label00003534:
00003534  BE6E FFCE                cmp.w      D7, [A6 - 0x32]
00003538  6600 00DC                bne        +0xDE /* 00003616 */
0000353C  3F3C 0002                move.w     -[A7], 0x2
00003540  3F3C 0002                move.w     -[A7], 0x2
00003544  A89B                     syscall    PenSize
00003546  486D FFC2                pea.l      [A5 - 0x3E]
0000354A  A89D                     syscall    PenPat
0000354C  486E FFD6                pea.l      [A6 - 0x2A]
00003550  A8A1                     syscall    FrameRect
00003552  2F2E FFE6                move.l     -[A7], [A6 - 0x1A]
00003556  3F07                     move.w     -[A7], D7
00003558  486E FFD4                pea.l      [A6 - 0x2C]
0000355C  486E FFC4                pea.l      [A6 - 0x3C]
00003560  486E FFDE                pea.l      [A6 - 0x22]
00003564  A98D                     syscall    GetDialogItem/GetDItem
00003566  486E FFDE                pea.l      [A6 - 0x22]
0000356A  3F3C FFFE                move.w     -[A7], 0xFFFE
0000356E  3F3C FFFE                move.w     -[A7], 0xFFFE
00003572  A8A9                     syscall    InsetRect
00003574  486D FFBA                pea.l      [A5 - 0x46]
00003578  A89D                     syscall    PenPat
0000357A  2F3C 0000 00CD           move.l     -[A7], 0xCD
00003580  A862                     syscall    ForeColor
00003582  486E FFDE                pea.l      [A6 - 0x22]
00003586  A8A1                     syscall    FrameRect
00003588  7021                     moveq.l    D0, 0x21
0000358A  2F00                     move.l     -[A7], D0
0000358C  A862                     syscall    ForeColor
0000358E  41EE FFDE                lea.l      A0, [A6 - 0x22]
00003592  43EE FFD6                lea.l      A1, [A6 - 0x2A]
00003596  22D8                     move.l     [A1]+, [A0]+
00003598  22D8                     move.l     [A1]+, [A0]+
0000359A  A89E                     syscall    PenNormal
0000359C  3007                     move.w     D0, D7
0000359E  5740                     subq.w     D0, 3
000035A0  3B40 FDB8                move.w     [A5 - 0x248], D0
000035A4  2F2E FFE6                move.l     -[A7], [A6 - 0x1A]
000035A8  3F3C 000D                move.w     -[A7], 0xD /* '\r' */
000035AC  486E FFD4                pea.l      [A6 - 0x2C]
000035B0  486E FFC4                pea.l      [A6 - 0x3C]
000035B4  486E FFDE                pea.l      [A6 - 0x22]
000035B8  A98D                     syscall    GetDialogItem/GetDItem
000035BA  2F2E FFC4                move.l     -[A7], [A6 - 0x3C]
000035BE  302D FDB8                move.w     D0, [A5 - 0x248]
000035C2  C1FC 0014                muls.w     D0, 0x14
000035C6  0640 FDFC                addi.w     D0, 0xFDFC
000035CA  4876 0000                pea.l      [A6 + D0.w]
000035CE  A98F                     syscall    SetDialogItemText/SetIText
000035D0  302D FDB8                move.w     D0, [A5 - 0x248]
000035D4  0640 00C8                addi.w     D0, 0xC8
000035D8  3D40 FCDA                move.w     [A6 - 0x326], D0
000035DC  4246                     clr.w      D6
label000035DE:
000035DE  302D FDB8                move.w     D0, [A5 - 0x248]
000035E2  600E                     bra        +0x10 /* 000035F2 */
label000035E4:
000035E4  3006                     move.w     D0, D6
000035E6  D040                     add.w      D0, D0
000035E8  0640 FDA8                addi.w     D0, 0xFDA8
000035EC  4275 0000                clr.w      [A5 + D0.w]
000035F0  6016                     bra        +0x18 /* 00003608 */
label000035F2:
000035F2  6B08                     bmi        +0xA /* 000035FC */
000035F4  5740                     subq.w     D0, 3
000035F6  6FEC                     ble        -0x12 /* 000035E4 */
000035F8  5540                     subq.w     D0, 2
000035FA  67E8                     beq        -0x16 /* 000035E4 */
label000035FC:
000035FC  3006                     move.w     D0, D6
000035FE  D040                     add.w      D0, D0
00003600  0640 FDA8                addi.w     D0, 0xFDA8
00003604  3B86 0000                move.w     [A5 + D0.w], D6
label00003608:
00003608  5246                     addq.w     D6, 1
0000360A  0C46 0007                cmpi.w     D6, 0x7
0000360E  6FCE                     ble        -0x30 /* 000035DE */
00003610  2F0E                     move.l     -[A7], A6
00003612  4EBA FB2C                jsr        [PC - 0x4D4 /* 00003140 */]
label00003616:
00003616  5247                     addq.w     D7, 1
00003618  0C47 000C                cmpi.w     D7, 0xC
0000361C  6F00 FF16                ble        -0xE8 /* 00003534 */
00003620  0C6E 0001 FFCE           cmpi.w     [A6 - 0x32], 0x1
00003626  6600 00F4                bne        +0xF6 /* 0000371C */
0000362A  7A01                     moveq.l    D5, 0x01
0000362C  1B7C 0001 FD96           move.b     [A5 - 0x26A], 0x1
00003632  4247                     clr.w      D7
label00003634:
00003634  3007                     move.w     D0, D7
00003636  D040                     add.w      D0, D0
00003638  3207                     move.w     D1, D7
0000363A  D241                     add.w      D1, D1
0000363C  0640 FDA8                addi.w     D0, 0xFDA8
00003640  0641 FCDC                addi.w     D1, 0xFCDC
00003644  3DB5 0000 1000           move.w     [A6 + D1.w], [A5 + D0.w]
0000364A  5247                     addq.w     D7, 1
0000364C  0C47 0007                cmpi.w     D7, 0x7
00003650  6FE2                     ble        -0x1C /* 00003634 */
00003652  302E FCDA                move.w     D0, [A6 - 0x326]
00003656  6000 0084                bra        +0x86 /* 000036DC */
label0000365A:
0000365A  0C6E 0006 FCDC           cmpi.w     [A6 - 0x324], 0x6
00003660  6604                     bne        +0x6 /* 00003666 */
00003662  426E FCDC                clr.w      [A6 - 0x324]
label00003666:
00003666  0C6E 0007 FCEA           cmpi.w     [A6 - 0x316], 0x7
0000366C  6604                     bne        +0x6 /* 00003672 */
0000366E  426E FCEA                clr.w      [A6 - 0x316]
label00003672:
00003672  0C6E 0007 FCDC           cmpi.w     [A6 - 0x324], 0x7
00003678  6606                     bne        +0x8 /* 00003680 */
0000367A  422E FCEC                clr.b      [A6 - 0x314]
0000367E  6006                     bra        +0x8 /* 00003686 */
label00003680:
00003680  1D7C 0001 FCEC           move.b     [A6 - 0x314], 0x1
label00003686:
00003686  0C6E 0006 FCEA           cmpi.w     [A6 - 0x316], 0x6
0000368C  6606                     bne        +0x8 /* 00003694 */
0000368E  422E FCED                clr.b      [A6 - 0x313]
00003692  6006                     bra        +0x8 /* 0000369A */
label00003694:
00003694  1D7C 0001 FCED           move.b     [A6 - 0x313], 0x1
label0000369A:
0000369A  7E01                     moveq.l    D7, 0x01
label0000369C:
0000369C  3007                     move.w     D0, D7
0000369E  D040                     add.w      D0, D0
000036A0  0640 FCDC                addi.w     D0, 0xFCDC
000036A4  0C76 0006 0000           cmpi.w     [A6 + D0.w], 0x6
000036AA  57C0                     seq        D0
000036AC  3207                     move.w     D1, D7
000036AE  D241                     add.w      D1, D1
000036B0  0641 FCDC                addi.w     D1, 0xFCDC
000036B4  0C76 0007 1000           cmpi.w     [A6 + D1.w], 0x7
000036BA  57C1                     seq        D1
000036BC  8001                     or.b       D0, D1
000036BE  6712                     beq        +0x14 /* 000036D2 */
000036C0  3F3C 0001                move.w     -[A7], 0x1
000036C4  A9C8                     syscall    SysBeep
000036C6  3007                     move.w     D0, D7
000036C8  D040                     add.w      D0, D0
000036CA  0640 FCDC                addi.w     D0, 0xFCDC
000036CE  4276 0000                clr.w      [A6 + D0.w]
label000036D2:
000036D2  5247                     addq.w     D7, 1
000036D4  0C47 0006                cmpi.w     D7, 0x6
000036D8  6FC2                     ble        -0x3C /* 0000369C */
000036DA  601E                     bra        +0x20 /* 000036FA */
label000036DC:
000036DC  0640 FF38                addi.w     D0, 0xFF38
000036E0  6B0C                     bmi        +0xE /* 000036EE */
000036E2  5740                     subq.w     D0, 3
000036E4  6F00 FF74                ble        -0x8A /* 0000365A */
000036E8  5540                     subq.w     D0, 2
000036EA  6700 FF6E                beq        -0x90 /* 0000365A */
label000036EE:
000036EE  1D7C 0001 FCEC           move.b     [A6 - 0x314], 0x1
000036F4  1D7C 0001 FCED           move.b     [A6 - 0x313], 0x1
label000036FA:
000036FA  0C6D 0001 BB3A           cmpi.w     [A5 - 0x44C6], 0x1
00003700  6604                     bne        +0x6 /* 00003706 */
00003702  422E FCEC                clr.b      [A6 - 0x314]
label00003706:
00003706  4A05                     tst.b      D5
00003708  6712                     beq        +0x14 /* 0000371C */
0000370A  41EE FCBE                lea.l      A0, [A6 - 0x342]
0000370E  43ED F1F2                lea.l      A1, [A5 - 0xE0E]
00003712  704D                     moveq.l    D0, 0x4D
label00003714:
00003714  22D8                     move.l     [A1]+, [A0]+
00003716  51C8 FFFC                dbf        D0, -0x6 /* 00003714 */
0000371A  32D8                     move.w     [A1]+, [A0]+
label0000371C:
0000371C  0C6E 0002 FFCE           cmpi.w     [A6 - 0x32], 0x2
00003722  660E                     bne        +0x10 /* 00003732 */
00003724  0C6D 0001 BBEE           cmpi.w     [A5 - 0x4412], 0x1
0000372A  6C04                     bge        +0x6 /* 00003730 */
0000372C  18BC 0001                move.b     [A4], 0x1
label00003730:
00003730  7A01                     moveq.l    D5, 0x01
label00003732:
00003732  4A05                     tst.b      D5
00003734  6700 FDDC                beq        -0x222 /* 00003512 */
00003738  2F2E FFE6                move.l     -[A7], [A6 - 0x1A]
0000373C  A983                     syscall    DisposeDialog
0000373E  4AAD B8B6                tst.l      [A5 - 0x474A]
00003742  6708                     beq        +0xA /* 0000374C */
00003744  2F2D B8B6                move.l     -[A7], [A5 - 0x474A]
00003748  A873                     syscall    SetPort
0000374A  6006                     bra        +0x8 /* 00003752 */
label0000374C:
0000374C  2F2E FFEC                move.l     -[A7], [A6 - 0x14]
00003750  A873                     syscall    SetPort
label00003752:
00003752  4CDF 18F8                movem.l    D3,D4,D5,D6,D7,A3,A4, [A7]+
00003756  4E5E                     unlink     A6
00003758  2E9F                     move.l     [A7], [A7]+
0000375A  4E75                     rts
0000375C  074B                     bchg       A3, D3
0000375E  6974                     bvs        +0x76 /* 000037D4 */
00003760  6368                     bls        +0x6A /* 000037CA */
00003762  656E                     bcs        +0x70 /* 000037D2 */
00003764  0842 6174                bchg.b     D2, 0x74 /* 't' */
00003768  6872                     bvc        +0x74 /* 000037DC */
0000376A  6F6F                     ble        +0x71 /* 000037DB */
0000376C  6D08                     blt        +0xA /* 00003776 */
0000376E  0D45                     bchg       D5, D6
00003770  6E74                     bgt        +0x76 /* 000037E6 */
00003772  6572                     bcs        +0x74 /* 000037E6 */
00003774  7461                     moveq.l    D2, 0x61
label00003776:
00003776  696E                     bvs        +0x70 /* 000037E6 */
00003778  6D65                     blt        +0x67 /* 000037DF */
0000377A  6E74                     bgt        +0x76 /* 000037F0 */
0000377C  0D48                     bchg       A0, D6
0000377E  6970                     bvs        +0x72 /* 000037F0 */
00003780  2057                     movea.l    A0, [A7]
00003782  616C                     bsr        +0x6E /* 000037F0 */
00003784  6C70                     bge        +0x72 /* 000037F6 */
00003786  6170                     bsr        +0x72 /* 000037F8 */
00003788  6572                     bcs        +0x74 /* 000037FC */
0000378A  0F55                     bchg       [A5], D7
0000378C  6E66                     bgt        +0x68 /* 000037F4 */
0000378E  696E                     bvs        +0x70 /* 000037FE */
00003790  6973                     bvs        +0x75 /* 00003805 */
00003792  6865                     bvc        +0x67 /* 000037F9 */
00003794  6420                     bcc        +0x22 /* 000037B6 */
00003796  526F 6F6D                addq.w     [A7 + 0x6F6D], 1
0000379A  0C43 6869                cmpi.w     D3, 0x6869 /* 'hi' */
0000379E  6C64                     bge        +0x66 /* 00003804 */
000037A0  D573 2052                add.w      [A3 + D2.w + 0x52], D2
000037A4  6F6F                     ble        +0x71 /* 00003815 */
000037A6  6D08                     blt        +0xA /* 000037B0 */
000037A8  0D4A                     bchg       A2, D6
000037AA  6170                     bsr        +0x72 /* 0000381C */
000037AC  616E                     bsr        +0x70 /* 0000381C */
000037AE  6573                     bcs        +0x75 /* 00003823 */
label000037B0:
000037B0  6520                     bcs        +0x22 /* 000037D2 */
000037B2  526F 6F6D                addq.w     [A7 + 0x6F6D], 1
label000037B6:
000037B6  0842 6173                bchg.b     D2, 0x73 /* 's' */
000037BA  656D                     bcs        +0x6F /* 00003829 */
000037BC  656E                     bcs        +0x70 /* 0000382C */
000037BE  7408                     moveq.l    D2, 0x08
000037C0  0C50 616E                cmpi.w     [A0], 0x616E /* 'an' */
000037C4  656C                     bcs        +0x6E /* 00003832 */
000037C6  6564                     bcs        +0x66 /* 0000382C */
000037C8  2052                     movea.l    A0, [A2]
label000037CA:
000037CA  6F6F                     ble        +0x71 /* 0000383B */
000037CC  6D08                     blt        +0xA /* 000037D6 */
000037CE  0A50 6C61                xori.w     [A0], 0x6C61 /* 'la' */
label000037D2:
000037D2  696E                     bvs        +0x70 /* 00003842 */
label000037D4:
000037D4  2052                     movea.l    A0, [A2]
label000037D6:
000037D6  6F6F                     ble        +0x71 /* 00003847 */
000037D8  6D08                     blt        +0xA /* 000037E2 */
fn000037DA:
000037DA  4E56 FFE6                link       A6, -0x001A
// begin alternate branch 000037DC-000037DE
label000037DC:
000037DC  FFE6                     .invalid   <<F/7/7>>
// end alternate branch 000037DC-000037DE
label000037DC: // (misaligned)
000037DE  48E7 0118                movem.l    -[A7], D7,A3,A4
label000037E2:
000037E2  286E 0008                movea.l    A4, [A6 + 0x8]
label000037E6:
000037E6  2F2C FFEA                move.l     -[A7], [A4 - 0x16]
000037EA  A873                     syscall    SetPort
000037EC  2F2C FFEA                move.l     -[A7], [A4 - 0x16]
fn000037F0:
000037F0  3F3C 0001                move.w     -[A7], 0x1
label000037F4:
000037F4  486C FFD8                pea.l      [A4 - 0x28]
// begin alternate branch 000037F6-000037F8
label000037F6:
000037F6  FFD8                     .invalid   <<F/7/7>>
// end alternate branch 000037F6-000037F8
label000037F6: // (misaligned)
fn000037F8:
000037F8  486C FFC6                pea.l      [A4 - 0x3A]
label000037FC:
000037FC  486C FFE2                pea.l      [A4 - 0x1E]
// begin alternate branch 000037FE-00003800
label000037FE:
000037FE  FFE2                     .invalid   <<F/7/7>>
// end alternate branch 000037FE-00003800
label000037FE: // (misaligned)
00003800  A98D                     syscall    GetDialogItem/GetDItem
00003802  3F3C 0003                move.w     -[A7], 0x3
// begin alternate branch 00003804-0000380C
label00003804:
00003804  0003 3F3C                ori.b      D3, 0x3C /* '<' */
00003808  0003 A89B                ori.b      D3, 0x9B
// end alternate branch 00003804-0000380C
label00003804: // (misaligned)
00003806  3F3C 0003                move.w     -[A7], 0x3
0000380A  A89B                     syscall    PenSize
0000380C  486C FFE2                pea.l      [A4 - 0x1E]
00003810  3F3C FFFC                move.w     -[A7], 0xFFFC
00003814  3F3C FFFC                move.w     -[A7], 0xFFFC
00003818  A8A9                     syscall    InsetRect
0000381A  486C FFE2                pea.l      [A4 - 0x1E]
// begin alternate branch 0000381C-0000381E
fn0000381C:
0000381C  FFE2                     .invalid   <<F/7/7>>
// end alternate branch 0000381C-0000381E
fn0000381C: // (misaligned)
0000381E  3F3C 0010                move.w     -[A7], 0x10
00003822  3F3C 0010                move.w     -[A7], 0x10
00003826  A8B0                     syscall    FrameRoundRect
00003828  A89E                     syscall    PenNormal
0000382A  206C FFEA                movea.l    A0, [A4 - 0x16]
// begin alternate branch 0000382C-0000382E
label0000382C:
0000382C  FFEA                     .invalid   <<F/7/7>>
// end alternate branch 0000382C-0000382E
label0000382C: // (misaligned)
0000382E  47E8 0010                lea.l      A3, [A0 + 0x10]
label00003832:
00003832  3E2B 0006                move.w     D7, [A3 + 0x6]
00003836  9E6B 0002                sub.w      D7, [A3 + 0x2]
0000383A  3F3C 0004                move.w     -[A7], 0x4
0000383E  3F3C 0026                move.w     -[A7], 0x26 /* '&' */
label00003842:
00003842  A893                     syscall    MoveTo
00003844  3007                     move.w     D0, D7
00003846  5140                     subq.w     D0, 8
00003848  3F00                     move.w     -[A7], D0
0000384A  4267                     clr.w      -[A7]
0000384C  A892                     syscall    Line
0000384E  3F3C 0004                move.w     -[A7], 0x4
00003852  3F3C 0028                move.w     -[A7], 0x28 /* '(' */
00003856  A893                     syscall    MoveTo
00003858  3007                     move.w     D0, D7
0000385A  5140                     subq.w     D0, 8
0000385C  3F00                     move.w     -[A7], D0
0000385E  4267                     clr.w      -[A7]
00003860  A892                     syscall    Line
00003862  4CDF 1880                movem.l    D7,A3,A4, [A7]+
00003866  4E5E                     unlink     A6
00003868  2E9F                     move.l     [A7], [A7]+
0000386A  4E75                     rts
export_55:
0000386C  4E56 FC88                link       A6, -0x0378
00003870  48E7 1F18                movem.l    -[A7], D3,D4,D5,D6,D7,A3,A4
00003874  286E 0008                movea.l    A4, [A6 + 0x8]
00003878  486E FEC2                pea.l      [A6 - 0x13E]
0000387C  A874                     syscall    GetPort
0000387E  594F                     subq.w     A7, 4
00003880  3F3C 0081                move.w     -[A7], 0x81
00003884  42A7                     clr.l      -[A7]
00003886  70FF                     moveq.l    D0, 0xFFFFFFFF
00003888  2F00                     move.l     -[A7], D0
0000388A  A97C                     syscall    GetNewDialog
0000388C  2D5F FFEA                move.l     [A6 - 0x16], [A7]+
00003890  4AAE FFEA                tst.l      [A6 - 0x16]
00003894  660C                     bne        +0xE /* 000038A2 */
00003896  3F3C 000C                move.w     -[A7], 0xC
0000389A  4EAD 0272                jsr        [A5 + 0x272 /* export_74, CODE:5 @ 00000A50 */]
0000389E  6000 04B8                bra        +0x4BA /* 00003D58 */
label000038A2:
000038A2  206E FFEA                movea.l    A0, [A6 - 0x16]
000038A6  47E8 0002                lea.l      A3, [A0 + 0x2]
000038AA  362D BB40                move.w     D3, [A5 - 0x44C0]
000038AE  966B 0008                sub.w      D3, [A3 + 0x8]
000038B2  382D BB42                move.w     D4, [A5 - 0x44BE]
000038B6  986B 0006                sub.w      D4, [A3 + 0x6]
000038BA  2F2E FFEA                move.l     -[A7], [A6 - 0x16]
000038BE  3F03                     move.w     -[A7], D3
000038C0  3F04                     move.w     -[A7], D4
000038C2  4227                     clr.b      -[A7]
000038C4  A91B                     syscall    MoveWindow
000038C6  2F2E FFEA                move.l     -[A7], [A6 - 0x16]
000038CA  A915                     syscall    ShowWindow
000038CC  2F2E FFEA                move.l     -[A7], [A6 - 0x16]
000038D0  A91F                     syscall    SelectWindow
000038D2  2F2E FFEA                move.l     -[A7], [A6 - 0x16]
000038D6  A873                     syscall    SetPort
000038D8  41ED F1F2                lea.l      A0, [A5 - 0xE0E]
000038DC  43EE FD88                lea.l      A1, [A6 - 0x278]
000038E0  704D                     moveq.l    D0, 0x4D
label000038E2:
000038E2  22D8                     move.l     [A1]+, [A0]+
000038E4  51C8 FFFC                dbf        D0, -0x6 /* 000038E2 */
000038E8  32D8                     move.w     [A1]+, [A0]+
000038EA  2F2E FFEA                move.l     -[A7], [A6 - 0x16]
000038EE  3F3C 000C                move.w     -[A7], 0xC
000038F2  486E FFD8                pea.l      [A6 - 0x28]
000038F6  486E FFC6                pea.l      [A6 - 0x3A]
000038FA  486E FFE2                pea.l      [A6 - 0x1E]
000038FE  A98D                     syscall    GetDialogItem/GetDItem
00003900  3F3C 00FF                move.w     -[A7], 0xFF
00003904  486E FD88                pea.l      [A6 - 0x278]
00003908  486E FEC6                pea.l      [A6 - 0x13A]
0000390C  4EAD 015A                jsr        [A5 + 0x15A /* export_39, CODE:1 @ 00000A28 */]
00003910  2F2E FFC6                move.l     -[A7], [A6 - 0x3A]
00003914  486E FEC6                pea.l      [A6 - 0x13A]
00003918  A98F                     syscall    SetDialogItemText/SetIText
0000391A  2F2E FFEA                move.l     -[A7], [A6 - 0x16]
0000391E  3F3C 000E                move.w     -[A7], 0xE
00003922  486E FFD8                pea.l      [A6 - 0x28]
00003926  486E FFC6                pea.l      [A6 - 0x3A]
0000392A  486E FFE2                pea.l      [A6 - 0x1E]
0000392E  A98D                     syscall    GetDialogItem/GetDItem
00003930  302D BB3A                move.w     D0, [A5 - 0x44C6]
00003934  48C0                     ext.l      D0
00003936  2F00                     move.l     -[A7], D0
00003938  486E FEC6                pea.l      [A6 - 0x13A]
0000393C  4EAD 0122                jsr        [A5 + 0x122 /* export_32, CODE:1 @ 0000079C */]
00003940  2F2E FFC6                move.l     -[A7], [A6 - 0x3A]
00003944  486E FEC6                pea.l      [A6 - 0x13A]
00003948  A98F                     syscall    SetDialogItemText/SetIText
0000394A  2F2E FFEA                move.l     -[A7], [A6 - 0x16]
0000394E  3F3C 000A                move.w     -[A7], 0xA /* '\n' */
00003952  486E FFD8                pea.l      [A6 - 0x28]
00003956  486E FFC6                pea.l      [A6 - 0x3A]
0000395A  486E FFE2                pea.l      [A6 - 0x1E]
0000395E  A98D                     syscall    GetDialogItem/GetDItem
00003960  302E FDBA                move.w     D0, [A6 - 0x246]
00003964  48C0                     ext.l      D0
00003966  2F00                     move.l     -[A7], D0
00003968  486E FEC6                pea.l      [A6 - 0x13A]
0000396C  4EAD 0122                jsr        [A5 + 0x122 /* export_32, CODE:1 @ 0000079C */]
00003970  2F2E FFC6                move.l     -[A7], [A6 - 0x3A]
00003974  486E FEC6                pea.l      [A6 - 0x13A]
00003978  A98F                     syscall    SetDialogItemText/SetIText
0000397A  2F2E FFEA                move.l     -[A7], [A6 - 0x16]
0000397E  3F3C 000B                move.w     -[A7], 0xB
00003982  486E FFD8                pea.l      [A6 - 0x28]
00003986  486E FFC6                pea.l      [A6 - 0x3A]
0000398A  486E FFE2                pea.l      [A6 - 0x1E]
0000398E  A98D                     syscall    GetDialogItem/GetDItem
00003990  2F2E FDBC                move.l     -[A7], [A6 - 0x244]
00003994  486E FEC6                pea.l      [A6 - 0x13A]
00003998  4EAD 0122                jsr        [A5 + 0x122 /* export_32, CODE:1 @ 0000079C */]
0000399C  2F2E FFC6                move.l     -[A7], [A6 - 0x3A]
000039A0  486E FEC6                pea.l      [A6 - 0x13A]
000039A4  A98F                     syscall    SetDialogItemText/SetIText
000039A6  2F2E FFEA                move.l     -[A7], [A6 - 0x16]
000039AA  3F3C 000D                move.w     -[A7], 0xD /* '\r' */
000039AE  486E FFD8                pea.l      [A6 - 0x28]
000039B2  486E FFC6                pea.l      [A6 - 0x3A]
000039B6  486E FFE2                pea.l      [A6 - 0x1E]
000039BA  A98D                     syscall    GetDialogItem/GetDItem
000039BC  302E FDA2                move.w     D0, [A6 - 0x25E]
000039C0  48C0                     ext.l      D0
000039C2  2F00                     move.l     -[A7], D0
000039C4  486E FEC6                pea.l      [A6 - 0x13A]
000039C8  4EAD 0122                jsr        [A5 + 0x122 /* export_32, CODE:1 @ 0000079C */]
000039CC  2F2E FFC6                move.l     -[A7], [A6 - 0x3A]
000039D0  486E FEC6                pea.l      [A6 - 0x13A]
000039D4  A98F                     syscall    SetDialogItemText/SetIText
000039D6  4A6E FDBA                tst.w      [A6 - 0x246]
000039DA  6F26                     ble        +0x28 /* 00003A02 */
000039DC  7E09                     moveq.l    D7, 0x09
000039DE  9E6E FDB8                sub.w      D7, [A6 - 0x248]
000039E2  2F2E FFEA                move.l     -[A7], [A6 - 0x16]
000039E6  3F07                     move.w     -[A7], D7
000039E8  486E FFD8                pea.l      [A6 - 0x28]
000039EC  486E FFC6                pea.l      [A6 - 0x3A]
000039F0  486E FFE2                pea.l      [A6 - 0x1E]
000039F4  A98D                     syscall    GetDialogItem/GetDItem
000039F6  2F2E FFC6                move.l     -[A7], [A6 - 0x3A]
000039FA  3F3C 0001                move.w     -[A7], 0x1
000039FE  A963                     syscall    SetControlValue/SetCtlValue
00003A00  6020                     bra        +0x22 /* 00003A22 */
label00003A02:
00003A02  2F2E FFEA                move.l     -[A7], [A6 - 0x16]
00003A06  3F3C 0006                move.w     -[A7], 0x6
00003A0A  486E FFD8                pea.l      [A6 - 0x28]
00003A0E  486E FFC6                pea.l      [A6 - 0x3A]
00003A12  486E FFE2                pea.l      [A6 - 0x1E]
00003A16  A98D                     syscall    GetDialogItem/GetDItem
00003A18  2F2E FFC6                move.l     -[A7], [A6 - 0x3A]
00003A1C  3F3C 0001                move.w     -[A7], 0x1
00003A20  A963                     syscall    SetControlValue/SetCtlValue
label00003A22:
00003A22  2F2E FFEA                move.l     -[A7], [A6 - 0x16]
00003A26  302E FDC0                move.w     D0, [A6 - 0x240]
00003A2A  5640                     addq.w     D0, 3
00003A2C  3F00                     move.w     -[A7], D0
00003A2E  486E FFD8                pea.l      [A6 - 0x28]
00003A32  486E FFC6                pea.l      [A6 - 0x3A]
00003A36  486E FFE2                pea.l      [A6 - 0x1E]
00003A3A  A98D                     syscall    GetDialogItem/GetDItem
00003A3C  2F2E FFC6                move.l     -[A7], [A6 - 0x3A]
00003A40  3F3C 0001                move.w     -[A7], 0x1
00003A44  A963                     syscall    SetControlValue/SetCtlValue
00003A46  1014                     move.b     D0, [A4]
00003A48  5300                     subq.b     D0, 1
00003A4A  6720                     beq        +0x22 /* 00003A6C */
00003A4C  2F2E FFEA                move.l     -[A7], [A6 - 0x16]
00003A50  3F3C 0002                move.w     -[A7], 0x2
00003A54  486E FFD8                pea.l      [A6 - 0x28]
00003A58  486E FFC6                pea.l      [A6 - 0x3A]
00003A5C  486E FFE2                pea.l      [A6 - 0x1E]
00003A60  A98D                     syscall    GetDialogItem/GetDItem
00003A62  2F2E FFC6                move.l     -[A7], [A6 - 0x3A]
00003A66  3F3C 00FF                move.w     -[A7], 0xFF
00003A6A  A95D                     syscall    HiliteControl
label00003A6C:
00003A6C  2F2E FFEA                move.l     -[A7], [A6 - 0x16]
00003A70  3F3C 000C                move.w     -[A7], 0xC
00003A74  4267                     clr.w      -[A7]
00003A76  3F3C 0018                move.w     -[A7], 0x18
00003A7A  A97E                     syscall    SelectDialogItemText/SelIText
00003A7C  2F0E                     move.l     -[A7], A6
00003A7E  4EBA FD5A                jsr        [PC - 0x2A6 /* 000037DA */]
00003A82  4205                     clr.b      D5
00003A84  4214                     clr.b      [A4]
label00003A86:
00003A86  42A7                     clr.l      -[A7]
00003A88  486E FFD6                pea.l      [A6 - 0x2A]
00003A8C  A991                     syscall    ModalDialog
00003A8E  2F2E FFEA                move.l     -[A7], [A6 - 0x16]
00003A92  3F2E FFD6                move.w     -[A7], [A6 - 0x2A]
00003A96  486E FFD8                pea.l      [A6 - 0x28]
00003A9A  486E FFC6                pea.l      [A6 - 0x3A]
00003A9E  486E FFE2                pea.l      [A6 - 0x1E]
00003AA2  A98D                     syscall    GetDialogItem/GetDItem
00003AA4  7C03                     moveq.l    D6, 0x03
label00003AA6:
00003AA6  BC6E FFD6                cmp.w      D6, [A6 - 0x2A]
00003AAA  664C                     bne        +0x4E /* 00003AF8 */
00003AAC  7E03                     moveq.l    D7, 0x03
label00003AAE:
00003AAE  2F2E FFEA                move.l     -[A7], [A6 - 0x16]
00003AB2  3F07                     move.w     -[A7], D7
00003AB4  486E FFD8                pea.l      [A6 - 0x28]
00003AB8  486E FFC6                pea.l      [A6 - 0x3A]
00003ABC  486E FFE2                pea.l      [A6 - 0x1E]
00003AC0  A98D                     syscall    GetDialogItem/GetDItem
00003AC2  2F2E FFC6                move.l     -[A7], [A6 - 0x3A]
00003AC6  4267                     clr.w      -[A7]
00003AC8  A963                     syscall    SetControlValue/SetCtlValue
00003ACA  5247                     addq.w     D7, 1
00003ACC  0C47 0005                cmpi.w     D7, 0x5
00003AD0  6FDC                     ble        -0x22 /* 00003AAE */
00003AD2  2F2E FFEA                move.l     -[A7], [A6 - 0x16]
00003AD6  3F06                     move.w     -[A7], D6
00003AD8  486E FFD8                pea.l      [A6 - 0x28]
00003ADC  486E FFC6                pea.l      [A6 - 0x3A]
00003AE0  486E FFE2                pea.l      [A6 - 0x1E]
00003AE4  A98D                     syscall    GetDialogItem/GetDItem
00003AE6  2F2E FFC6                move.l     -[A7], [A6 - 0x3A]
00003AEA  3F3C 0001                move.w     -[A7], 0x1
00003AEE  A963                     syscall    SetControlValue/SetCtlValue
00003AF0  3006                     move.w     D0, D6
00003AF2  5740                     subq.w     D0, 3
00003AF4  3D40 FDC0                move.w     [A6 - 0x240], D0
label00003AF8:
00003AF8  5246                     addq.w     D6, 1
00003AFA  0C46 0005                cmpi.w     D6, 0x5
00003AFE  6FA6                     ble        -0x58 /* 00003AA6 */
00003B00  7C06                     moveq.l    D6, 0x06
label00003B02:
00003B02  BC6E FFD6                cmp.w      D6, [A6 - 0x2A]
00003B06  6600 008C                bne        +0x8E /* 00003B94 */
00003B0A  7E06                     moveq.l    D7, 0x06
label00003B0C:
00003B0C  2F2E FFEA                move.l     -[A7], [A6 - 0x16]
00003B10  3F07                     move.w     -[A7], D7
00003B12  486E FFD8                pea.l      [A6 - 0x28]
00003B16  486E FFC6                pea.l      [A6 - 0x3A]
00003B1A  486E FFE2                pea.l      [A6 - 0x1E]
00003B1E  A98D                     syscall    GetDialogItem/GetDItem
00003B20  2F2E FFC6                move.l     -[A7], [A6 - 0x3A]
00003B24  4267                     clr.w      -[A7]
00003B26  A963                     syscall    SetControlValue/SetCtlValue
00003B28  5247                     addq.w     D7, 1
00003B2A  0C47 0009                cmpi.w     D7, 0x9 /* '\t' */
00003B2E  6FDC                     ble        -0x22 /* 00003B0C */
00003B30  2F2E FFEA                move.l     -[A7], [A6 - 0x16]
00003B34  3F06                     move.w     -[A7], D6
00003B36  486E FFD8                pea.l      [A6 - 0x28]
00003B3A  486E FFC6                pea.l      [A6 - 0x3A]
00003B3E  486E FFE2                pea.l      [A6 - 0x1E]
00003B42  A98D                     syscall    GetDialogItem/GetDItem
00003B44  2F2E FFC6                move.l     -[A7], [A6 - 0x3A]
00003B48  3F3C 0001                move.w     -[A7], 0x1
00003B4C  A963                     syscall    SetControlValue/SetCtlValue
00003B4E  0C6E 0006 FFD6           cmpi.w     [A6 - 0x2A], 0x6
00003B54  6636                     bne        +0x38 /* 00003B8C */
00003B56  426E FDBA                clr.w      [A6 - 0x246]
00003B5A  2F2E FFEA                move.l     -[A7], [A6 - 0x16]
00003B5E  3F3C 000A                move.w     -[A7], 0xA /* '\n' */
00003B62  486E FFD8                pea.l      [A6 - 0x28]
00003B66  486E FFC6                pea.l      [A6 - 0x3A]
00003B6A  486E FFE2                pea.l      [A6 - 0x1E]
00003B6E  A98D                     syscall    GetDialogItem/GetDItem
00003B70  302E FDBA                move.w     D0, [A6 - 0x246]
00003B74  48C0                     ext.l      D0
00003B76  2F00                     move.l     -[A7], D0
00003B78  486E FEC6                pea.l      [A6 - 0x13A]
00003B7C  4EAD 0122                jsr        [A5 + 0x122 /* export_32, CODE:1 @ 0000079C */]
00003B80  2F2E FFC6                move.l     -[A7], [A6 - 0x3A]
00003B84  486E FEC6                pea.l      [A6 - 0x13A]
00003B88  A98F                     syscall    SetDialogItemText/SetIText
00003B8A  6008                     bra        +0xA /* 00003B94 */
label00003B8C:
00003B8C  7009                     moveq.l    D0, 0x09
00003B8E  9046                     sub.w      D0, D6
00003B90  3D40 FDB8                move.w     [A6 - 0x248], D0
label00003B94:
00003B94  5246                     addq.w     D6, 1
00003B96  0C46 0009                cmpi.w     D6, 0x9 /* '\t' */
00003B9A  6F00 FF66                ble        -0x98 /* 00003B02 */
00003B9E  0C6E 0001 FFD6           cmpi.w     [A6 - 0x2A], 0x1
00003BA4  6600 017C                bne        +0x17E /* 00003D22 */
00003BA8  7A01                     moveq.l    D5, 0x01
00003BAA  2F2E FFEA                move.l     -[A7], [A6 - 0x16]
00003BAE  3F3C 000A                move.w     -[A7], 0xA /* '\n' */
00003BB2  486E FFD8                pea.l      [A6 - 0x28]
00003BB6  486E FFC6                pea.l      [A6 - 0x3A]
00003BBA  486E FFE2                pea.l      [A6 - 0x1E]
00003BBE  A98D                     syscall    GetDialogItem/GetDItem
00003BC0  2F2E FFC6                move.l     -[A7], [A6 - 0x3A]
00003BC4  486E FEC6                pea.l      [A6 - 0x13A]
00003BC8  A990                     syscall    GetDialogItemText/GetIText
00003BCA  486E FEC6                pea.l      [A6 - 0x13A]
00003BCE  486E FFCA                pea.l      [A6 - 0x36]
00003BD2  4EAD 011A                jsr        [A5 + 0x11A /* export_31, CODE:1 @ 00000788 */]
00003BD6  3D6E FFCC FDBA           move.w     [A6 - 0x246], [A6 - 0x34]
00003BDC  4A6E FDBA                tst.w      [A6 - 0x246]
00003BE0  6C2E                     bge        +0x30 /* 00003C10 */
00003BE2  3F3C 0001                move.w     -[A7], 0x1
00003BE6  A9C8                     syscall    SysBeep
00003BE8  4205                     clr.b      D5
00003BEA  3E2E FDBA                move.w     D7, [A6 - 0x246]
00003BEE  4447                     neg.w      D7
00003BF0  0C47 0010                cmpi.w     D7, 0x10
00003BF4  6F02                     ble        +0x4 /* 00003BF8 */
00003BF6  7E10                     moveq.l    D7, 0x10
label00003BF8:
00003BF8  3007                     move.w     D0, D7
00003BFA  48C0                     ext.l      D0
00003BFC  2F00                     move.l     -[A7], D0
00003BFE  486E FEC6                pea.l      [A6 - 0x13A]
00003C02  4EAD 0122                jsr        [A5 + 0x122 /* export_32, CODE:1 @ 0000079C */]
00003C06  2F2E FFC6                move.l     -[A7], [A6 - 0x3A]
00003C0A  486E FEC6                pea.l      [A6 - 0x13A]
00003C0E  A98F                     syscall    SetDialogItemText/SetIText
label00003C10:
00003C10  0C6E 0010 FDBA           cmpi.w     [A6 - 0x246], 0x10
00003C16  6F1E                     ble        +0x20 /* 00003C36 */
00003C18  3F3C 0001                move.w     -[A7], 0x1
00003C1C  A9C8                     syscall    SysBeep
00003C1E  4205                     clr.b      D5
00003C20  7010                     moveq.l    D0, 0x10
00003C22  2F00                     move.l     -[A7], D0
00003C24  486E FEC6                pea.l      [A6 - 0x13A]
00003C28  4EAD 0122                jsr        [A5 + 0x122 /* export_32, CODE:1 @ 0000079C */]
00003C2C  2F2E FFC6                move.l     -[A7], [A6 - 0x3A]
00003C30  486E FEC6                pea.l      [A6 - 0x13A]
00003C34  A98F                     syscall    SetDialogItemText/SetIText
label00003C36:
00003C36  2F2E FFEA                move.l     -[A7], [A6 - 0x16]
00003C3A  3F3C 000B                move.w     -[A7], 0xB
00003C3E  486E FFD8                pea.l      [A6 - 0x28]
00003C42  486E FFC6                pea.l      [A6 - 0x3A]
00003C46  486E FFE2                pea.l      [A6 - 0x1E]
00003C4A  A98D                     syscall    GetDialogItem/GetDItem
00003C4C  2F2E FFC6                move.l     -[A7], [A6 - 0x3A]
00003C50  486E FEC6                pea.l      [A6 - 0x13A]
00003C54  A990                     syscall    GetDialogItemText/GetIText
00003C56  486E FEC6                pea.l      [A6 - 0x13A]
00003C5A  486E FFCA                pea.l      [A6 - 0x36]
00003C5E  4EAD 011A                jsr        [A5 + 0x11A /* export_31, CODE:1 @ 00000788 */]
00003C62  302E FFCC                move.w     D0, [A6 - 0x34]
00003C66  48C0                     ext.l      D0
00003C68  2D40 FDBC                move.l     [A6 - 0x244], D0
00003C6C  4AAE FDBC                tst.l      [A6 - 0x244]
00003C70  6C2E                     bge        +0x30 /* 00003CA0 */
00003C72  3F3C 0001                move.w     -[A7], 0x1
00003C76  A9C8                     syscall    SysBeep
00003C78  4205                     clr.b      D5
00003C7A  2E2E FDBC                move.l     D7, [A6 - 0x244]
00003C7E  4487                     neg.l      D7
00003C80  0C47 0010                cmpi.w     D7, 0x10
00003C84  6F02                     ble        +0x4 /* 00003C88 */
00003C86  7E10                     moveq.l    D7, 0x10
label00003C88:
00003C88  3007                     move.w     D0, D7
00003C8A  48C0                     ext.l      D0
00003C8C  2F00                     move.l     -[A7], D0
00003C8E  486E FEC6                pea.l      [A6 - 0x13A]
00003C92  4EAD 0122                jsr        [A5 + 0x122 /* export_32, CODE:1 @ 0000079C */]
00003C96  2F2E FFC6                move.l     -[A7], [A6 - 0x3A]
00003C9A  486E FEC6                pea.l      [A6 - 0x13A]
00003C9E  A98F                     syscall    SetDialogItemText/SetIText
label00003CA0:
00003CA0  2F2E FFEA                move.l     -[A7], [A6 - 0x16]
00003CA4  3F3C 000C                move.w     -[A7], 0xC
00003CA8  486E FFD8                pea.l      [A6 - 0x28]
00003CAC  486E FFC6                pea.l      [A6 - 0x3A]
00003CB0  486E FFE2                pea.l      [A6 - 0x1E]
00003CB4  A98D                     syscall    GetDialogItem/GetDItem
00003CB6  2F2E FFC6                move.l     -[A7], [A6 - 0x3A]
00003CBA  486E FEC6                pea.l      [A6 - 0x13A]
00003CBE  A990                     syscall    GetDialogItemText/GetIText
00003CC0  7000                     moveq.l    D0, 0x00
00003CC2  102E FEC6                move.b     D0, [A6 - 0x13A]
00003CC6  0C40 0018                cmpi.w     D0, 0x18
00003CCA  6F26                     ble        +0x28 /* 00003CF2 */
00003CCC  486E FC88                pea.l      [A6 - 0x378]
00003CD0  486E FEC6                pea.l      [A6 - 0x13A]
00003CD4  3F3C 0001                move.w     -[A7], 0x1
00003CD8  3F3C 0018                move.w     -[A7], 0x18
00003CDC  4EAD 013A                jsr        [A5 + 0x13A /* export_35, CODE:1 @ 000007F6 */]
00003CE0  584F                     addq.w     A7, 4
00003CE2  3F3C 00FF                move.w     -[A7], 0xFF
00003CE6  486E FC88                pea.l      [A6 - 0x378]
00003CEA  486E FEC6                pea.l      [A6 - 0x13A]
00003CEE  4EAD 015A                jsr        [A5 + 0x15A /* export_39, CODE:1 @ 00000A28 */]
label00003CF2:
00003CF2  3F3C 0018                move.w     -[A7], 0x18
00003CF6  486E FEC6                pea.l      [A6 - 0x13A]
00003CFA  486E FD88                pea.l      [A6 - 0x278]
00003CFE  4EAD 015A                jsr        [A5 + 0x15A /* export_39, CODE:1 @ 00000A28 */]
00003D02  4A05                     tst.b      D5
00003D04  671C                     beq        +0x1E /* 00003D22 */
00003D06  1B7C 0001 FD96           move.b     [A5 - 0x26A], 0x1
00003D0C  41EE FD88                lea.l      A0, [A6 - 0x278]
00003D10  43ED F1F2                lea.l      A1, [A5 - 0xE0E]
00003D14  704D                     moveq.l    D0, 0x4D
label00003D16:
00003D16  22D8                     move.l     [A1]+, [A0]+
00003D18  51C8 FFFC                dbf        D0, -0x6 /* 00003D16 */
00003D1C  32D8                     move.w     [A1]+, [A0]+
00003D1E  4EBA C2E0                jsr        [PC - 0x3D20 /* 00000000 */]
label00003D22:
00003D22  0C6E 0002 FFD6           cmpi.w     [A6 - 0x2A], 0x2
00003D28  660E                     bne        +0x10 /* 00003D38 */
00003D2A  0C6D 0001 BBEE           cmpi.w     [A5 - 0x4412], 0x1
00003D30  6C04                     bge        +0x6 /* 00003D36 */
00003D32  18BC 0001                move.b     [A4], 0x1
label00003D36:
00003D36  7A01                     moveq.l    D5, 0x01
label00003D38:
00003D38  4A05                     tst.b      D5
00003D3A  6700 FD4A                beq        -0x2B4 /* 00003A86 */
00003D3E  2F2E FFEA                move.l     -[A7], [A6 - 0x16]
00003D42  A983                     syscall    DisposeDialog
00003D44  4AAD B8B6                tst.l      [A5 - 0x474A]
00003D48  6708                     beq        +0xA /* 00003D52 */
00003D4A  2F2D B8B6                move.l     -[A7], [A5 - 0x474A]
00003D4E  A873                     syscall    SetPort
00003D50  6006                     bra        +0x8 /* 00003D58 */
label00003D52:
00003D52  2F2E FEC2                move.l     -[A7], [A6 - 0x13E]
00003D56  A873                     syscall    SetPort
label00003D58:
00003D58  4CDF 18F8                movem.l    D3,D4,D5,D6,D7,A3,A4, [A7]+
00003D5C  4E5E                     unlink     A6
00003D5E  2E9F                     move.l     [A7], [A7]+
00003D60  4E75                     rts
export_56:
fn00003D62:
00003D62  4E56 0000                link       A6, 0
00003D66  4A2E 0008                tst.b      [A6 + 0x8]
00003D6A  674A                     beq        +0x4C /* 00003DB6 */
00003D6C  4AAD B8B6                tst.l      [A5 - 0x474A]
00003D70  6736                     beq        +0x38 /* 00003DA8 */
00003D72  2F2D B8B6                move.l     -[A7], [A5 - 0x474A]
00003D76  A873                     syscall    SetPort
00003D78  486D BACC                pea.l      [A5 - 0x4534]
00003D7C  206D B8B6                movea.l    A0, [A5 - 0x474A]
00003D80  3F28 0012                move.w     -[A7], [A0 + 0x12]
00003D84  206D B8B6                movea.l    A0, [A5 - 0x474A]
00003D88  3F28 0010                move.w     -[A7], [A0 + 0x10]
00003D8C  A880                     syscall    SetPt
00003D8E  486D BACC                pea.l      [A5 - 0x4534]
00003D92  A870                     syscall    LocalToGlobal
00003D94  2F2D B8B6                move.l     -[A7], [A5 - 0x474A]
00003D98  A914                     syscall    DisposeWindow
00003D9A  42AD B8B6                clr.l      [A5 - 0x474A]
00003D9E  2F2D B8B2                move.l     -[A7], [A5 - 0x474E]
00003DA2  A873                     syscall    SetPort
00003DA4  6000 007E                bra        +0x80 /* 00003E24 */
label00003DA8:
00003DA8  486D BACC                pea.l      [A5 - 0x4534]
00003DAC  3F3C FC18                move.w     -[A7], 0xFC18
00003DB0  4267                     clr.w      -[A7]
00003DB2  A880                     syscall    SetPt
00003DB4  606E                     bra        +0x70 /* 00003E24 */
label00003DB6:
00003DB6  0C6D FC18 BACE           cmpi.w     [A5 - 0x4532], 0xFC18
00003DBC  6766                     beq        +0x68 /* 00003E24 */
00003DBE  4A2D FD97                tst.b      [A5 - 0x269]
00003DC2  6714                     beq        +0x16 /* 00003DD8 */
00003DC4  594F                     subq.w     A7, 4
00003DC6  3F3C 0080                move.w     -[A7], 0x80
00003DCA  42A7                     clr.l      -[A7]
00003DCC  70FF                     moveq.l    D0, 0xFFFFFFFF
00003DCE  2F00                     move.l     -[A7], D0
00003DD0  AA46                     syscall    GetNewCWindow
00003DD2  2B5F B8B6                move.l     [A5 - 0x474A], [A7]+
00003DD6  6012                     bra        +0x14 /* 00003DEA */
label00003DD8:
00003DD8  594F                     subq.w     A7, 4
00003DDA  3F3C 0080                move.w     -[A7], 0x80
00003DDE  42A7                     clr.l      -[A7]
00003DE0  70FF                     moveq.l    D0, 0xFFFFFFFF
00003DE2  2F00                     move.l     -[A7], D0
00003DE4  A9BD                     syscall    GetNewWindow
00003DE6  2B5F B8B6                move.l     [A5 - 0x474A], [A7]+
label00003DEA:
00003DEA  4AAD B8B6                tst.l      [A5 - 0x474A]
00003DEE  660A                     bne        +0xC /* 00003DFA */
00003DF0  3F3C 000C                move.w     -[A7], 0xC
00003DF4  4EAD 0272                jsr        [A5 + 0x272 /* export_74, CODE:5 @ 00000A50 */]
00003DF8  A9F4                     syscall    ExitToShell
label00003DFA:
00003DFA  2F2D B8B6                move.l     -[A7], [A5 - 0x474A]
00003DFE  A873                     syscall    SetPort
00003E00  2F2D B8B6                move.l     -[A7], [A5 - 0x474A]
00003E04  3F2D BACE                move.w     -[A7], [A5 - 0x4532]
00003E08  3F2D BACC                move.w     -[A7], [A5 - 0x4534]
00003E0C  4227                     clr.b      -[A7]
00003E0E  A91B                     syscall    MoveWindow
00003E10  2F2D B8B6                move.l     -[A7], [A5 - 0x474A]
00003E14  A915                     syscall    ShowWindow
00003E16  2F2D B8B6                move.l     -[A7], [A5 - 0x474A]
00003E1A  7001                     moveq.l    D0, 0x01
00003E1C  2F00                     move.l     -[A7], D0
00003E1E  A918                     syscall    SetWRefCon
00003E20  4EBA 0AD6                jsr        [PC + 0xAD6 /* 000048F8 */]
label00003E24:
00003E24  4E5E                     unlink     A6
00003E26  205F                     movea.l    A0, [A7]+
00003E28  544F                     addq.w     A7, 2
00003E2A  4ED0                     jmp        [A0]
fn00003E2C:
00003E2C  4E56 FFE8                link       A6, -0x0018
00003E30  48E7 0F08                movem.l    -[A7], D4,D5,D6,D7,A4
00003E34  3C2D BB3E                move.w     D6, [A5 - 0x44C2]
00003E38  E946                     asl        D6.w, 4
00003E3A  41ED F21C                lea.l      A0, [A5 - 0xDE4]
00003E3E  3C30 6000                move.w     D6, [A0 + D6.w]
00003E42  3006                     move.w     D0, D6
00003E44  6000 0098                bra        +0x9A /* 00003EDE */
00003E48  7E2C                     moveq.l    D7, 0x2C
00003E4A  6000 00F8                bra        +0xFA /* 00003F44 */
00003E4E  3E2D BB3A                move.w     D7, [A5 - 0x44C6]
00003E52  6000 00F0                bra        +0xF2 /* 00003F44 */
00003E56  3E3C 0131                move.w     D7, 0x131
00003E5A  6000 00E8                bra        +0xEA /* 00003F44 */
00003E5E  3E2D BB3E                move.w     D7, [A5 - 0x44C2]
00003E62  E947                     asl        D7.w, 4
00003E64  41ED F21E                lea.l      A0, [A5 - 0xDE2]
00003E68  3030 7000                move.w     D0, [A0 + D7.w]
00003E6C  0640 FF9C                addi.w     D0, 0xFF9C
00003E70  3E00                     move.w     D7, D0
00003E72  0C47 004A                cmpi.w     D7, 0x4A /* 'J' */
00003E76  6C00 00CC                bge        +0xCE /* 00003F44 */
00003E7A  7E4A                     moveq.l    D7, 0x4A
00003E7C  6000 00C6                bra        +0xC8 /* 00003F44 */
00003E80  3E2D BB3E                move.w     D7, [A5 - 0x44C2]
00003E84  E947                     asl        D7.w, 4
00003E86  41ED F220                lea.l      A0, [A5 - 0xDE0]
00003E8A  3030 7000                move.w     D0, [A0 + D7.w]
00003E8E  0640 FF9C                addi.w     D0, 0xFF9C
00003E92  3E00                     move.w     D7, D0
00003E94  4A47                     tst.w      D7
00003E96  6C00 00AC                bge        +0xAE /* 00003F44 */
00003E9A  4247                     clr.w      D7
00003E9C  6000 00A6                bra        +0xA8 /* 00003F44 */
00003EA0  3E2D BB3E                move.w     D7, [A5 - 0x44C2]
00003EA4  E947                     asl        D7.w, 4
00003EA6  41ED F224                lea.l      A0, [A5 - 0xDDC]
00003EAA  3030 7000                move.w     D0, [A0 + D7.w]
00003EAE  0640 0064                addi.w     D0, 0x64 /* 'd' */
00003EB2  3E00                     move.w     D7, D0
00003EB4  0C47 0200                cmpi.w     D7, 0x200
00003EB8  6F00 008A                ble        +0x8C /* 00003F44 */
00003EBC  3E3C 0200                move.w     D7, 0x200
00003EC0  6000 0082                bra        +0x84 /* 00003F44 */
00003EC4  3E3C 03E8                move.w     D7, 0x3E8
00003EC8  6000 007A                bra        +0x7C /* 00003F44 */
00003ECC  7E0A                     moveq.l    D7, 0x0A
00003ECE  6000 0074                bra        +0x76 /* 00003F44 */
00003ED2  7E28                     moveq.l    D7, 0x28
00003ED4  606E                     bra        +0x70 /* 00003F44 */
00003ED6  7E78                     moveq.l    D7, 0x78
00003ED8  606A                     bra        +0x6C /* 00003F44 */
00003EDA  4247                     clr.w      D7
00003EDC  6066                     bra        +0x68 /* 00003F44 */
label00003EDE:
00003EDE  5B40                     subq.w     D0, 5
00003EE0  0C40 0029                cmpi.w     D0, 0x29 /* ')' */
00003EE4  645C                     bcc        +0x5E /* 00003F42 */
00003EE6  D040                     add.w      D0, D0
00003EE8  303B 0006                move.w     D0, [PC + D0.w + 0x6]
00003EEC  4EFB 0002                jmp        [PC + D0.w + 0x2]
00003EF0  FF5E                     .extension 0xF5E <<F/4-5/7>> // unimplemented
00003EF2  0052 0052                ori.w      [A2], 0x52 /* 'R' */
00003EF6  FF58                     .extension 0xF58 <<F/4-5/7>> // unimplemented
00003EF8  FF66                     .extension 0xF66 <<F/4-5/7>> // unimplemented
00003EFA  FF66                     .extension 0xF66 <<F/4-5/7>> // unimplemented
00003EFC  FF6E                     .extension 0xF6E <<F/4-5/7>> // unimplemented
00003EFE  FF90                     .invalid   <<F/6/7>>
00003F00  FFB0                     .invalid   <<F/6/7>>
00003F02  0052 0052                ori.w      [A2], 0x52 /* 'R' */
00003F06  FFD4                     .invalid   <<F/7/7>>
00003F08  FFD4                     .invalid   <<F/7/7>>
00003F0A  FFB0                     .invalid   <<F/6/7>>
00003F0C  FFD4                     .invalid   <<F/7/7>>
00003F0E  FFE2                     .invalid   <<F/7/7>>
00003F10  FFDC                     .invalid   <<F/7/7>>
00003F12  0052 0052                ori.w      [A2], 0x52 /* 'R' */
00003F16  0052 FFE6                ori.w      [A2], 0xFFE6
00003F1A  0052 0052                ori.w      [A2], 0x52 /* 'R' */
00003F1E  FFEA                     .invalid   <<F/7/7>>
00003F20  0052 0052                ori.w      [A2], 0x52 /* 'R' */
00003F24  0052 FF66                ori.w      [A2], 0xFF66
00003F28  FF58                     .extension 0xF58 <<F/4-5/7>> // unimplemented
00003F2A  FF58                     .extension 0xF58 <<F/4-5/7>> // unimplemented
00003F2C  FF58                     .extension 0xF58 <<F/4-5/7>> // unimplemented
00003F2E  FFE6                     .invalid   <<F/7/7>>
00003F30  0052 0052                ori.w      [A2], 0x52 /* 'R' */
00003F34  0052 0052                ori.w      [A2], 0x52 /* 'R' */
00003F38  0052 0052                ori.w      [A2], 0x52 /* 'R' */
00003F3C  0052 FF5E                ori.w      [A2], 0xFF5E
00003F40  FF5E                     .extension 0xF5E <<F/4-5/7>> // unimplemented
label00003F42:
00003F42  4247                     clr.w      D7
label00003F44:
00003F44  3006                     move.w     D0, D6
00003F46  6004                     bra        +0x6 /* 00003F4C */
label00003F48:
00003F48  7801                     moveq.l    D4, 0x01
00003F4A  601A                     bra        +0x1C /* 00003F66 */
label00003F4C:
00003F4C  0640 FFF6                addi.w     D0, 0xFFF6
00003F50  67F6                     beq        -0x8 /* 00003F48 */
00003F52  5540                     subq.w     D0, 2
00003F54  67F2                     beq        -0xC /* 00003F48 */
00003F56  5340                     subq.w     D0, 1
00003F58  67EE                     beq        -0x10 /* 00003F48 */
00003F5A  5B40                     subq.w     D0, 5
00003F5C  67EA                     beq        -0x14 /* 00003F48 */
00003F5E  0640 FFF7                addi.w     D0, 0xFFF7
00003F62  67E4                     beq        -0x1A /* 00003F48 */
00003F64  4204                     clr.b      D4
label00003F66:
00003F66  3006                     move.w     D0, D6
00003F68  600A                     bra        +0xC /* 00003F74 */
label00003F6A:
00003F6A  3A2D BB3A                move.w     D5, [A5 - 0x44C6]
00003F6E  601A                     bra        +0x1C /* 00003F8A */
label00003F70:
00003F70  7A78                     moveq.l    D5, 0x78
00003F72  6016                     bra        +0x18 /* 00003F8A */
label00003F74:
00003F74  0640 FFF6                addi.w     D0, 0xFFF6
00003F78  67F0                     beq        -0xE /* 00003F6A */
00003F7A  0640 FFEA                addi.w     D0, 0xFFEA
00003F7E  67F0                     beq        -0xE /* 00003F70 */
00003F80  5340                     subq.w     D0, 1
00003F82  67EC                     beq        -0x12 /* 00003F70 */
00003F84  5540                     subq.w     D0, 2
00003F86  67E8                     beq        -0x16 /* 00003F70 */
00003F88  4245                     clr.w      D5
label00003F8A:
00003F8A  302D BB3E                move.w     D0, [A5 - 0x44C2]
00003F8E  E940                     asl        D0.w, 4
00003F90  0640 F21C                addi.w     D0, 0xF21C
00003F94  49F5 0000                lea.l      A4, [A5 + D0.w]
00003F98  3886                     move.w     [A4], D6
00003F9A  3947 000A                move.w     [A4 + 0xA], D7
00003F9E  3945 000C                move.w     [A4 + 0xC], D5
00003FA2  1944 000E                move.b     [A4 + 0xE], D4
00003FA6  4CDF 10F0                movem.l    D4,D5,D6,D7,A4, [A7]+
00003FAA  4E5E                     unlink     A6
00003FAC  4E75                     rts
export_57:
fn00003FAE:
00003FAE  4E56 FFA4                link       A6, -0x005C
00003FB2  48E7 1F00                movem.l    -[A7], D3,D4,D5,D6,D7
00003FB6  3C2E 0008                move.w     D6, [A6 + 0x8]
00003FBA  2F2D B8B2                move.l     -[A7], [A5 - 0x474E]
00003FBE  A873                     syscall    SetPort
00003FC0  3E06                     move.w     D7, D6
00003FC2  E947                     asl        D7.w, 4
00003FC4  41ED F21C                lea.l      A0, [A5 - 0xDE4]
00003FC8  3E30 7000                move.w     D7, [A0 + D7.w]
00003FCC  3006                     move.w     D0, D6
00003FCE  E940                     asl        D0.w, 4
00003FD0  0640 F21E                addi.w     D0, 0xF21E
00003FD4  41F5 0000                lea.l      A0, [A5 + D0.w]
00003FD8  43EE FFC8                lea.l      A1, [A6 - 0x38]
00003FDC  22D8                     move.l     [A1]+, [A0]+
00003FDE  22D8                     move.l     [A1]+, [A0]+
00003FE0  41EE FFC8                lea.l      A0, [A6 - 0x38]
00003FE4  43EE FFD0                lea.l      A1, [A6 - 0x30]
00003FE8  22D8                     move.l     [A1]+, [A0]+
00003FEA  22D8                     move.l     [A1]+, [A0]+
00003FEC  3007                     move.w     D0, D7
00003FEE  E740                     asl        D0.w, 3
00003FF0  0640 FAF2                addi.w     D0, 0xFAF2
00003FF4  41F5 0000                lea.l      A0, [A5 + D0.w]
00003FF8  43EE FFD8                lea.l      A1, [A6 - 0x28]
00003FFC  22D8                     move.l     [A1]+, [A0]+
00003FFE  22D8                     move.l     [A1]+, [A0]+
00004000  4203                     clr.b      D3
00004002  4205                     clr.b      D5
00004004  4204                     clr.b      D4
00004006  0C47 0008                cmpi.w     D7, 0x8
0000400A  6602                     bne        +0x4 /* 0000400E */
0000400C  7601                     moveq.l    D3, 0x01
label0000400E:
0000400E  0C47 000A                cmpi.w     D7, 0xA /* '\n' */
00004012  57C0                     seq        D0
00004014  0C47 0009                cmpi.w     D7, 0x9 /* '\t' */
00004018  57C1                     seq        D1
0000401A  8001                     or.b       D0, D1
0000401C  6702                     beq        +0x4 /* 00004020 */
0000401E  7A01                     moveq.l    D5, 0x01
label00004020:
00004020  0C47 002C                cmpi.w     D7, 0x2C /* ',' */
00004024  57C0                     seq        D0
00004026  0C47 002D                cmpi.w     D7, 0x2D /* '-' */
0000402A  57C1                     seq        D1
0000402C  8001                     or.b       D0, D1
0000402E  6702                     beq        +0x4 /* 00004032 */
00004030  7801                     moveq.l    D4, 0x01
label00004032:
00004032  2D6D B8AC FFE8           move.l     [A6 - 0x18], [A5 - 0x4754]
00004038  2D6E FFE8 FFE4           move.l     [A6 - 0x1C], [A6 - 0x18]
0000403E  486D FFB2                pea.l      [A5 - 0x4E]
00004042  A89D                     syscall    PenPat
00004044  3F3C 000A                move.w     -[A7], 0xA /* '\n' */
00004048  A89C                     syscall    PenMode
0000404A  486E FFC8                pea.l      [A6 - 0x38]
0000404E  A8A1                     syscall    FrameRect
00004050  6000 007A                bra        +0x7C /* 000040CC */
label00004054:
00004054  486E FFE8                pea.l      [A6 - 0x18]
00004058  A972                     syscall    GetMouse
0000405A  486E FFE8                pea.l      [A6 - 0x18]
0000405E  A870                     syscall    LocalToGlobal
00004060  302E FFEA                move.w     D0, [A6 - 0x16]
00004064  B06E FFE6                cmp.w      D0, [A6 - 0x1A]
00004068  56C0                     sne        D0
0000406A  322E FFE8                move.w     D1, [A6 - 0x18]
0000406E  B26E FFE4                cmp.w      D1, [A6 - 0x1C]
00004072  56C1                     sne        D1
00004074  8001                     or.b       D0, D1
00004076  674E                     beq        +0x50 /* 000040C6 */
00004078  486E FFC8                pea.l      [A6 - 0x38]
0000407C  A8A1                     syscall    FrameRect
0000407E  1003                     move.b     D0, D3
00004080  8005                     or.b       D0, D5
00004082  8004                     or.b       D0, D4
00004084  6714                     beq        +0x16 /* 0000409A */
00004086  486E FFC8                pea.l      [A6 - 0x38]
0000408A  302E FFEA                move.w     D0, [A6 - 0x16]
0000408E  906E FFE6                sub.w      D0, [A6 - 0x1A]
00004092  3F00                     move.w     -[A7], D0
00004094  4267                     clr.w      -[A7]
00004096  A8A8                     syscall    OffsetRect
00004098  601A                     bra        +0x1C /* 000040B4 */
label0000409A:
0000409A  486E FFC8                pea.l      [A6 - 0x38]
0000409E  302E FFEA                move.w     D0, [A6 - 0x16]
000040A2  906E FFE6                sub.w      D0, [A6 - 0x1A]
000040A6  3F00                     move.w     -[A7], D0
000040A8  302E FFE8                move.w     D0, [A6 - 0x18]
000040AC  906E FFE4                sub.w      D0, [A6 - 0x1C]
000040B0  3F00                     move.w     -[A7], D0
000040B2  A8A8                     syscall    OffsetRect
label000040B4:
000040B4  486E FFC8                pea.l      [A6 - 0x38]
000040B8  A8A1                     syscall    FrameRect
000040BA  41EE FFC8                lea.l      A0, [A6 - 0x38]
000040BE  43EE FFD0                lea.l      A1, [A6 - 0x30]
000040C2  22D8                     move.l     [A1]+, [A0]+
000040C4  22D8                     move.l     [A1]+, [A0]+
label000040C6:
000040C6  2D6E FFE8 FFE4           move.l     [A6 - 0x1C], [A6 - 0x18]
label000040CC:
000040CC  554F                     subq.w     A7, 2
000040CE  A977                     syscall    WaitMouseUp
000040D0  4A1F                     tst.b      [A7]+
000040D2  6680                     bne        -0x7E /* 00004054 */
000040D4  486E FFC8                pea.l      [A6 - 0x38]
000040D8  A8A1                     syscall    FrameRect
000040DA  A89E                     syscall    PenNormal
000040DC  4AAD B8B6                tst.l      [A5 - 0x474A]
000040E0  6706                     beq        +0x8 /* 000040E8 */
000040E2  2F2D B8B6                move.l     -[A7], [A5 - 0x474A]
000040E6  A873                     syscall    SetPort
label000040E8:
000040E8  1B7C 0001 FD96           move.b     [A5 - 0x26A], 0x1
000040EE  3006                     move.w     D0, D6
000040F0  E940                     asl        D0.w, 4
000040F2  41EE FFC8                lea.l      A0, [A6 - 0x38]
000040F6  0640 F21E                addi.w     D0, 0xF21E
000040FA  43F5 0000                lea.l      A1, [A5 + D0.w]
000040FE  22D8                     move.l     [A1]+, [A0]+
00004100  22D8                     move.l     [A1]+, [A0]+
00004102  554F                     subq.w     A7, 2
00004104  3006                     move.w     D0, D6
00004106  E940                     asl        D0.w, 4
00004108  0640 F21C                addi.w     D0, 0xF21C
0000410C  4875 0000                pea.l      [A5 + D0.w]
00004110  486E FFC4                pea.l      [A6 - 0x3C]
00004114  4EAD 027A                jsr        [A5 + 0x27A /* export_75, CODE:5 @ 00000BDA */]
00004118  4A1F                     tst.b      [A7]+
0000411A  6706                     beq        +0x8 /* 00004122 */
0000411C  3F3C 0001                move.w     -[A7], 0x1
00004120  A9C8                     syscall    SysBeep
label00004122:
00004122  4CDF 00F8                movem.l    D3,D4,D5,D6,D7, [A7]+
00004126  4E5E                     unlink     A6
00004128  205F                     movea.l    A0, [A7]+
0000412A  544F                     addq.w     A7, 2
0000412C  4ED0                     jmp        [A0]
export_58:
0000412E  4E56 FF6C                link       A6, -0x0094
00004132  48E7 1F08                movem.l    -[A7], D3,D4,D5,D6,D7,A4
00004136  3D6D BB3E FFE8           move.w     [A6 - 0x18], [A5 - 0x44C2]
0000413C  4EAD 0262                jsr        [A5 + 0x262 /* export_72, CODE:5 @ 0000094E */]
00004140  1B7C 0001 FD96           move.b     [A5 - 0x26A], 0x1
00004146  2F2D B8B2                move.l     -[A7], [A5 - 0x474E]
0000414A  A873                     syscall    SetPort
0000414C  302E FFE8                move.w     D0, [A6 - 0x18]
00004150  E940                     asl        D0.w, 4
00004152  0640 F21C                addi.w     D0, 0xF21C
00004156  49F5 0000                lea.l      A4, [A5 + D0.w]
0000415A  3014                     move.w     D0, [A4]
0000415C  6060                     bra        +0x62 /* 000041BE */
label0000415E:
0000415E  3C2C 0004                move.w     D6, [A4 + 0x4]
00004162  0646 0040                addi.w     D6, 0x40 /* '@' */
00004166  3E3C 0200                move.w     D7, 0x200
0000416A  4244                     clr.w      D4
0000416C  4205                     clr.b      D5
0000416E  6000 00B2                bra        +0xB4 /* 00004222 */
label00004172:
00004172  7C2C                     moveq.l    D6, 0x2C
00004174  3E2C 0002                move.w     D7, [A4 + 0x2]
00004178  0647 FFEC                addi.w     D7, 0xFFEC
0000417C  7801                     moveq.l    D4, 0x01
0000417E  4205                     clr.b      D5
00004180  6000 00A0                bra        +0xA2 /* 00004222 */
label00004184:
00004184  3C2C 0006                move.w     D6, [A4 + 0x6]
00004188  0646 0014                addi.w     D6, 0x14
0000418C  3E3C 0145                move.w     D7, 0x145
00004190  7801                     moveq.l    D4, 0x01
00004192  4205                     clr.b      D5
00004194  6000 008C                bra        +0x8E /* 00004222 */
label00004198:
00004198  4246                     clr.w      D6
0000419A  3E2C 0004                move.w     D7, [A4 + 0x4]
0000419E  0647 FFEC                addi.w     D7, 0xFFEC
000041A2  4244                     clr.w      D4
000041A4  4205                     clr.b      D5
000041A6  6000 007A                bra        +0x7C /* 00004222 */
label000041AA:
000041AA  3C2C 0008                move.w     D6, [A4 + 0x8]
000041AE  0646 0014                addi.w     D6, 0x14
000041B2  3E3C 0200                move.w     D7, 0x200
000041B6  4244                     clr.w      D4
000041B8  4205                     clr.b      D5
000041BA  6000 0066                bra        +0x68 /* 00004222 */
label000041BE:
000041BE  5340                     subq.w     D0, 1
000041C0  679C                     beq        -0x62 /* 0000415E */
000041C2  5340                     subq.w     D0, 1
000041C4  6798                     beq        -0x66 /* 0000415E */
000041C6  5D40                     subq.w     D0, 6
000041C8  67A8                     beq        -0x56 /* 00004172 */
000041CA  5340                     subq.w     D0, 1
000041CC  67B6                     beq        -0x48 /* 00004184 */
000041CE  5340                     subq.w     D0, 1
000041D0  67B2                     beq        -0x4C /* 00004184 */
000041D2  5340                     subq.w     D0, 1
000041D4  679C                     beq        -0x62 /* 00004172 */
000041D6  5340                     subq.w     D0, 1
000041D8  67BE                     beq        -0x40 /* 00004198 */
000041DA  5340                     subq.w     D0, 1
000041DC  67CC                     beq        -0x32 /* 000041AA */
000041DE  5B40                     subq.w     D0, 5
000041E0  67C8                     beq        -0x36 /* 000041AA */
000041E2  0640 FFF2                addi.w     D0, 0xFFF2
000041E6  679C                     beq        -0x62 /* 00004184 */
000041E8  5340                     subq.w     D0, 1
000041EA  6786                     beq        -0x78 /* 00004172 */
000041EC  5340                     subq.w     D0, 1
000041EE  6782                     beq        -0x7C /* 00004172 */
000041F0  5340                     subq.w     D0, 1
000041F2  6700 FF7E                beq        -0x80 /* 00004172 */
000041F6  3C2C 0004                move.w     D6, [A4 + 0x4]
000041FA  0646 0020                addi.w     D6, 0x20 /* ' ' */
000041FE  3E3C 0200                move.w     D7, 0x200
00004202  302C 0002                move.w     D0, [A4 + 0x2]
00004206  0640 0020                addi.w     D0, 0x20 /* ' ' */
0000420A  3D40 FFE2                move.w     [A6 - 0x1E], D0
0000420E  3D7C 0156 FFE0           move.w     [A6 - 0x20], 0x156
00004214  41EC 0002                lea.l      A0, [A4 + 0x2]
00004218  43EE FFD6                lea.l      A1, [A6 - 0x2A]
0000421C  22D8                     move.l     [A1]+, [A0]+
0000421E  22D8                     move.l     [A1]+, [A0]+
00004220  7A01                     moveq.l    D5, 0x01
label00004222:
00004222  486D FFB2                pea.l      [A5 - 0x4E]
00004226  A89D                     syscall    PenPat
00004228  3F3C 000A                move.w     -[A7], 0xA /* '\n' */
0000422C  A89C                     syscall    PenMode
0000422E  4A05                     tst.b      D5
00004230  6708                     beq        +0xA /* 0000423A */
00004232  486E FFD6                pea.l      [A6 - 0x2A]
00004236  A8A1                     syscall    FrameRect
00004238  6014                     bra        +0x16 /* 0000424E */
label0000423A:
0000423A  3F2D BBDE                move.w     -[A7], [A5 - 0x4422]
0000423E  3F2D BBDC                move.w     -[A7], [A5 - 0x4424]
00004242  A893                     syscall    MoveTo
00004244  3F2D BBE2                move.w     -[A7], [A5 - 0x441E]
00004248  3F2D BBE0                move.w     -[A7], [A5 - 0x4420]
0000424C  A891                     syscall    LineTo
label0000424E:
0000424E  486D BBE4                pea.l      [A5 - 0x441C]
00004252  A8A2                     syscall    PaintRect
00004254  486E FFD2                pea.l      [A6 - 0x2E]
00004258  A972                     syscall    GetMouse
0000425A  2D6E FFD2 FFCE           move.l     [A6 - 0x32], [A6 - 0x2E]
00004260  6000 019C                bra        +0x19E /* 000043FE */
label00004264:
00004264  486E FFCE                pea.l      [A6 - 0x32]
00004268  A972                     syscall    GetMouse
0000426A  4A05                     tst.b      D5
0000426C  6700 00A0                beq        +0xA2 /* 0000430E */
00004270  302E FFD0                move.w     D0, [A6 - 0x30]
00004274  B06E FFD4                cmp.w      D0, [A6 - 0x2C]
00004278  56C0                     sne        D0
0000427A  322E FFCE                move.w     D1, [A6 - 0x32]
0000427E  B26E FFD2                cmp.w      D1, [A6 - 0x2E]
00004282  56C1                     sne        D1
00004284  8001                     or.b       D0, D1
00004286  6700 0170                beq        +0x172 /* 000043F8 */
0000428A  486E FFD6                pea.l      [A6 - 0x2A]
0000428E  A8A1                     syscall    FrameRect
00004290  486D BBE4                pea.l      [A5 - 0x441C]
00004294  A8A2                     syscall    PaintRect
00004296  362D BBE2                move.w     D3, [A5 - 0x441E]
0000429A  3D6D BBE0 FFE4           move.w     [A6 - 0x1C], [A5 - 0x4420]
000042A0  2B6E FFCE BBE0           move.l     [A5 - 0x4420], [A6 - 0x32]
000042A6  BE6D BBE2                cmp.w      D7, [A5 - 0x441E]
000042AA  6C04                     bge        +0x6 /* 000042B0 */
000042AC  3B47 BBE2                move.w     [A5 - 0x441E], D7
label000042B0:
000042B0  BC6D BBE2                cmp.w      D6, [A5 - 0x441E]
000042B4  6F04                     ble        +0x6 /* 000042BA */
000042B6  3B46 BBE2                move.w     [A5 - 0x441E], D6
label000042BA:
000042BA  302D BBE0                move.w     D0, [A5 - 0x4420]
000042BE  B06E FFE0                cmp.w      D0, [A6 - 0x20]
000042C2  6F06                     ble        +0x8 /* 000042CA */
000042C4  3B6E FFE0 BBE0           move.w     [A5 - 0x4420], [A6 - 0x20]
label000042CA:
000042CA  302D BBE0                move.w     D0, [A5 - 0x4420]
000042CE  B06E FFE2                cmp.w      D0, [A6 - 0x1E]
000042D2  6C06                     bge        +0x8 /* 000042DA */
000042D4  3B6E FFE2 BBE0           move.w     [A5 - 0x4420], [A6 - 0x1E]
label000042DA:
000042DA  486D BBE4                pea.l      [A5 - 0x441C]
000042DE  302D BBE2                move.w     D0, [A5 - 0x441E]
000042E2  9043                     sub.w      D0, D3
000042E4  3F00                     move.w     -[A7], D0
000042E6  302D BBE0                move.w     D0, [A5 - 0x4420]
000042EA  906E FFE4                sub.w      D0, [A6 - 0x1C]
000042EE  3F00                     move.w     -[A7], D0
000042F0  A8A8                     syscall    OffsetRect
000042F2  3D6D BBE2 FFDC           move.w     [A6 - 0x24], [A5 - 0x441E]
000042F8  3D6D BBE0 FFDA           move.w     [A6 - 0x26], [A5 - 0x4420]
000042FE  486E FFD6                pea.l      [A6 - 0x2A]
00004302  A8A1                     syscall    FrameRect
00004304  486D BBE4                pea.l      [A5 - 0x441C]
00004308  A8A2                     syscall    PaintRect
0000430A  6000 00EC                bra        +0xEE /* 000043F8 */
label0000430E:
0000430E  4A44                     tst.w      D4
00004310  57C0                     seq        D0
00004312  322E FFD0                move.w     D1, [A6 - 0x30]
00004316  B26E FFD4                cmp.w      D1, [A6 - 0x2C]
0000431A  56C1                     sne        D1
0000431C  C001                     and.b      D0, D1
0000431E  6762                     beq        +0x64 /* 00004382 */
00004320  3F2D BBDE                move.w     -[A7], [A5 - 0x4422]
00004324  3F2D BBDC                move.w     -[A7], [A5 - 0x4424]
00004328  A893                     syscall    MoveTo
0000432A  3F2D BBE2                move.w     -[A7], [A5 - 0x441E]
0000432E  3F2D BBE0                move.w     -[A7], [A5 - 0x4420]
00004332  A891                     syscall    LineTo
00004334  486D BBE4                pea.l      [A5 - 0x441C]
00004338  A8A2                     syscall    PaintRect
0000433A  362D BBE2                move.w     D3, [A5 - 0x441E]
0000433E  3B6E FFD0 BBE2           move.w     [A5 - 0x441E], [A6 - 0x30]
00004344  BE6D BBE2                cmp.w      D7, [A5 - 0x441E]
00004348  6C04                     bge        +0x6 /* 0000434E */
0000434A  3B47 BBE2                move.w     [A5 - 0x441E], D7
label0000434E:
0000434E  BC6D BBE2                cmp.w      D6, [A5 - 0x441E]
00004352  6F04                     ble        +0x6 /* 00004358 */
00004354  3B46 BBE2                move.w     [A5 - 0x441E], D6
label00004358:
00004358  486D BBE4                pea.l      [A5 - 0x441C]
0000435C  302D BBE2                move.w     D0, [A5 - 0x441E]
00004360  9043                     sub.w      D0, D3
00004362  3F00                     move.w     -[A7], D0
00004364  4267                     clr.w      -[A7]
00004366  A8A8                     syscall    OffsetRect
00004368  3F2D BBDE                move.w     -[A7], [A5 - 0x4422]
0000436C  3F2D BBDC                move.w     -[A7], [A5 - 0x4424]
00004370  A893                     syscall    MoveTo
00004372  3F2D BBE2                move.w     -[A7], [A5 - 0x441E]
00004376  3F2D BBE0                move.w     -[A7], [A5 - 0x4420]
0000437A  A891                     syscall    LineTo
0000437C  486D BBE4                pea.l      [A5 - 0x441C]
00004380  A8A2                     syscall    PaintRect
label00004382:
00004382  0C44 0001                cmpi.w     D4, 0x1
00004386  57C0                     seq        D0
00004388  322E FFCE                move.w     D1, [A6 - 0x32]
0000438C  B26E FFD2                cmp.w      D1, [A6 - 0x2E]
00004390  56C1                     sne        D1
00004392  C001                     and.b      D0, D1
00004394  6762                     beq        +0x64 /* 000043F8 */
00004396  3F2D BBDE                move.w     -[A7], [A5 - 0x4422]
0000439A  3F2D BBDC                move.w     -[A7], [A5 - 0x4424]
0000439E  A893                     syscall    MoveTo
000043A0  3F2D BBE2                move.w     -[A7], [A5 - 0x441E]
000043A4  3F2D BBE0                move.w     -[A7], [A5 - 0x4420]
000043A8  A891                     syscall    LineTo
000043AA  486D BBE4                pea.l      [A5 - 0x441C]
000043AE  A8A2                     syscall    PaintRect
000043B0  362D BBE0                move.w     D3, [A5 - 0x4420]
000043B4  3B6E FFCE BBE0           move.w     [A5 - 0x4420], [A6 - 0x32]
000043BA  BE6D BBE0                cmp.w      D7, [A5 - 0x4420]
000043BE  6C04                     bge        +0x6 /* 000043C4 */
000043C0  3B47 BBE0                move.w     [A5 - 0x4420], D7
label000043C4:
000043C4  BC6D BBE0                cmp.w      D6, [A5 - 0x4420]
000043C8  6F04                     ble        +0x6 /* 000043CE */
000043CA  3B46 BBE0                move.w     [A5 - 0x4420], D6
label000043CE:
000043CE  486D BBE4                pea.l      [A5 - 0x441C]
000043D2  4267                     clr.w      -[A7]
000043D4  302D BBE0                move.w     D0, [A5 - 0x4420]
000043D8  9043                     sub.w      D0, D3
000043DA  3F00                     move.w     -[A7], D0
000043DC  A8A8                     syscall    OffsetRect
000043DE  3F2D BBDE                move.w     -[A7], [A5 - 0x4422]
000043E2  3F2D BBDC                move.w     -[A7], [A5 - 0x4424]
000043E6  A893                     syscall    MoveTo
000043E8  3F2D BBE2                move.w     -[A7], [A5 - 0x441E]
000043EC  3F2D BBE0                move.w     -[A7], [A5 - 0x4420]
000043F0  A891                     syscall    LineTo
000043F2  486D BBE4                pea.l      [A5 - 0x441C]
000043F6  A8A2                     syscall    PaintRect
label000043F8:
000043F8  2D6E FFCE FFD2           move.l     [A6 - 0x2E], [A6 - 0x32]
label000043FE:
000043FE  554F                     subq.w     A7, 2
00004400  A977                     syscall    WaitMouseUp
00004402  4A1F                     tst.b      [A7]+
00004404  6600 FE5E                bne        -0x1A0 /* 00004264 */
00004408  4A05                     tst.b      D5
0000440A  6708                     beq        +0xA /* 00004414 */
0000440C  486E FFD6                pea.l      [A6 - 0x2A]
00004410  A8A1                     syscall    FrameRect
00004412  6014                     bra        +0x16 /* 00004428 */
label00004414:
00004414  3F2D BBDE                move.w     -[A7], [A5 - 0x4422]
00004418  3F2D BBDC                move.w     -[A7], [A5 - 0x4424]
0000441C  A893                     syscall    MoveTo
0000441E  3F2D BBE2                move.w     -[A7], [A5 - 0x441E]
00004422  3F2D BBE0                move.w     -[A7], [A5 - 0x4420]
00004426  A891                     syscall    LineTo
label00004428:
00004428  486D BBE4                pea.l      [A5 - 0x441C]
0000442C  A8A2                     syscall    PaintRect
0000442E  A89E                     syscall    PenNormal
00004430  4AAD B8B6                tst.l      [A5 - 0x474A]
00004434  6706                     beq        +0x8 /* 0000443C */
00004436  2F2D B8B6                move.l     -[A7], [A5 - 0x474A]
0000443A  A873                     syscall    SetPort
label0000443C:
0000443C  302E FFE8                move.w     D0, [A6 - 0x18]
00004440  E940                     asl        D0.w, 4
00004442  0640 F21C                addi.w     D0, 0xF21C
00004446  49F5 0000                lea.l      A4, [A5 + D0.w]
0000444A  3014                     move.w     D0, [A4]
0000444C  6016                     bra        +0x18 /* 00004464 */
label0000444E:
0000444E  396E FFD4 0008           move.w     [A4 + 0x8], [A6 - 0x2C]
00004454  6044                     bra        +0x46 /* 0000449A */
label00004456:
00004456  41EE FFD6                lea.l      A0, [A6 - 0x2A]
0000445A  43EC 0002                lea.l      A1, [A4 + 0x2]
0000445E  22D8                     move.l     [A1]+, [A0]+
00004460  22D8                     move.l     [A1]+, [A0]+
00004462  6036                     bra        +0x38 /* 0000449A */
label00004464:
00004464  5340                     subq.w     D0, 1
00004466  67E6                     beq        -0x18 /* 0000444E */
00004468  5340                     subq.w     D0, 1
0000446A  67E2                     beq        -0x1C /* 0000444E */
0000446C  5540                     subq.w     D0, 2
0000446E  67E6                     beq        -0x18 /* 00004456 */
00004470  5340                     subq.w     D0, 1
00004472  67E2                     beq        -0x1C /* 00004456 */
00004474  5340                     subq.w     D0, 1
00004476  67DE                     beq        -0x20 /* 00004456 */
00004478  0640 FFF3                addi.w     D0, 0xFFF3
0000447C  67D8                     beq        -0x26 /* 00004456 */
0000447E  0640 FFEE                addi.w     D0, 0xFFEE
00004482  67D2                     beq        -0x2C /* 00004456 */
00004484  5940                     subq.w     D0, 4
00004486  67CE                     beq        -0x30 /* 00004456 */
00004488  4A44                     tst.w      D4
0000448A  6608                     bne        +0xA /* 00004494 */
0000448C  396D BBE2 000A           move.w     [A4 + 0xA], [A5 - 0x441E]
00004492  6006                     bra        +0x8 /* 0000449A */
label00004494:
00004494  396D BBE0 000A           move.w     [A4 + 0xA], [A5 - 0x4420]
label0000449A:
0000449A  302E FFE8                move.w     D0, [A6 - 0x18]
0000449E  E940                     asl        D0.w, 4
000044A0  0640 F21C                addi.w     D0, 0xF21C
000044A4  3D75 0000 FFDE           move.w     [A6 - 0x22], [A5 + D0.w]
000044AA  3B6E FFE8 BB3E           move.w     [A5 - 0x44C2], [A6 - 0x18]
000044B0  1B7C 0001 FD96           move.b     [A5 - 0x26A], 0x1
000044B6  302E FFDE                move.w     D0, [A6 - 0x22]
000044BA  6006                     bra        +0x8 /* 000044C2 */
label000044BC:
000044BC  4EBA D356                jsr        [PC - 0x2CAA /* 00001814 */]
000044C0  6028                     bra        +0x2A /* 000044EA */
label000044C2:
000044C2  5340                     subq.w     D0, 1
000044C4  67F6                     beq        -0x8 /* 000044BC */
000044C6  5340                     subq.w     D0, 1
000044C8  67F2                     beq        -0xC /* 000044BC */
000044CA  5540                     subq.w     D0, 2
000044CC  67EE                     beq        -0x10 /* 000044BC */
000044CE  5340                     subq.w     D0, 1
000044D0  67EA                     beq        -0x14 /* 000044BC */
000044D2  5340                     subq.w     D0, 1
000044D4  67E6                     beq        -0x18 /* 000044BC */
000044D6  0640 FFF3                addi.w     D0, 0xFFF3
000044DA  67E0                     beq        -0x1E /* 000044BC */
000044DC  0640 FFEE                addi.w     D0, 0xFFEE
000044E0  67DA                     beq        -0x24 /* 000044BC */
000044E2  5940                     subq.w     D0, 4
000044E4  67D6                     beq        -0x28 /* 000044BC */
000044E6  4EAD 025A                jsr        [A5 + 0x25A /* export_71, CODE:5 @ 000006B2 */]
label000044EA:
000044EA  4CDF 10F8                movem.l    D3,D4,D5,D6,D7,A4, [A7]+
000044EE  4E5E                     unlink     A6
000044F0  4E75                     rts
fn000044F2:
000044F2  4E56 FFDC                link       A6, -0x0024
000044F6  48E7 0308                movem.l    -[A7], D6,D7,A4
000044FA  3E2E 0008                move.w     D7, [A6 + 0x8]
000044FE  486E FFDE                pea.l      [A6 - 0x22]
00004502  A874                     syscall    GetPort
00004504  2F2D B8B2                move.l     -[A7], [A5 - 0x474E]
00004508  A873                     syscall    SetPort
0000450A  0C6D 0010 F20C           cmpi.w     [A5 - 0xDF4], 0x10
00004510  6C0C                     bge        +0xE /* 0000451E */
00004512  302D F20C                move.w     D0, [A5 - 0xDF4]
00004516  5240                     addq.w     D0, 1
00004518  3B40 F20C                move.w     [A5 - 0xDF4], D0
0000451C  6012                     bra        +0x14 /* 00004530 */
label0000451E:
0000451E  2F2E FFDE                move.l     -[A7], [A6 - 0x22]
00004522  A873                     syscall    SetPort
00004524  3F3C 000B                move.w     -[A7], 0xB
00004528  4EAD 0272                jsr        [A5 + 0x272 /* export_74, CODE:5 @ 00000A50 */]
0000452C  6000 03AC                bra        +0x3AE /* 000048DA */
label00004530:
00004530  0C47 0021                cmpi.w     D7, 0x21 /* '!' */
00004534  57C0                     seq        D0
00004536  0C47 0025                cmpi.w     D7, 0x25 /* '%' */
0000453A  57C1                     seq        D1
0000453C  8001                     or.b       D0, D1
0000453E  0C47 0029                cmpi.w     D7, 0x29 /* ')' */
00004542  57C1                     seq        D1
00004544  8001                     or.b       D0, D1
00004546  6744                     beq        +0x46 /* 0000458C */
00004548  302D F20C                move.w     D0, [A5 - 0xDF4]
0000454C  5340                     subq.w     D0, 1
0000454E  3D40 FFDC                move.w     [A6 - 0x24], D0
00004552  7C01                     moveq.l    D6, 0x01
00004554  6030                     bra        +0x32 /* 00004586 */
label00004556:
00004556  3006                     move.w     D0, D6
00004558  E940                     asl        D0.w, 4
0000455A  0640 F21C                addi.w     D0, 0xF21C
0000455E  49F5 0000                lea.l      A4, [A5 + D0.w]
00004562  BE54                     cmp.w      D7, [A4]
00004564  661C                     bne        +0x1E /* 00004582 */
00004566  302D F20C                move.w     D0, [A5 - 0xDF4]
0000456A  5340                     subq.w     D0, 1
0000456C  3B40 F20C                move.w     [A5 - 0xDF4], D0
00004570  2F2E FFDE                move.l     -[A7], [A6 - 0x22]
00004574  A873                     syscall    SetPort
00004576  3F3C 0010                move.w     -[A7], 0x10
0000457A  4EAD 0272                jsr        [A5 + 0x272 /* export_74, CODE:5 @ 00000A50 */]
0000457E  6000 035A                bra        +0x35C /* 000048DA */
label00004582:
00004582  5246                     addq.w     D6, 1
00004584  6906                     bvs        +0x8 /* 0000458C */
label00004586:
00004586  BC6E FFDC                cmp.w      D6, [A6 - 0x24]
0000458A  6FCA                     ble        -0x34 /* 00004556 */
label0000458C:
0000458C  4A2D FD99                tst.b      [A5 - 0x267]
00004590  6708                     beq        +0xA /* 0000459A */
00004592  1F3C 0001                move.b     -[A7], 0x1
00004596  4EBA F7CA                jsr        [PC - 0x836 /* 00003D62 */]
label0000459A:
0000459A  3B6D F20C BB3E           move.w     [A5 - 0x44C2], [A5 - 0xDF4]
000045A0  302D BB3E                move.w     D0, [A5 - 0x44C2]
000045A4  E940                     asl        D0.w, 4
000045A6  0640 F21C                addi.w     D0, 0xF21C
000045AA  3B87 0000                move.w     [A5 + D0.w], D7
000045AE  2D6D B8AC FFEC           move.l     [A6 - 0x14], [A5 - 0x4754]
000045B4  486E FFEC                pea.l      [A6 - 0x14]
000045B8  A871                     syscall    GlobalToLocal
000045BA  3007                     move.w     D0, D7
000045BC  6000 0228                bra        +0x22A /* 000047E6 */
label000045C0:
000045C0  486E FFE2                pea.l      [A6 - 0x1E]
000045C4  302E FFEE                move.w     D0, [A6 - 0x12]
000045C8  0640 FFCE                addi.w     D0, 0xFFCE
000045CC  3F00                     move.w     -[A7], D0
000045CE  302E FFEC                move.w     D0, [A6 - 0x14]
000045D2  5B40                     subq.w     D0, 5
000045D4  3F00                     move.w     -[A7], D0
000045D6  302E FFEE                move.w     D0, [A6 - 0x12]
000045DA  0640 0032                addi.w     D0, 0x32 /* '2' */
000045DE  3F00                     move.w     -[A7], D0
000045E0  302E FFEC                move.w     D0, [A6 - 0x14]
000045E4  5840                     addq.w     D0, 4
000045E6  3F00                     move.w     -[A7], D0
000045E8  A8A7                     syscall    SetRect
000045EA  6000 02AA                bra        +0x2AC /* 00004896 */
label000045EE:
000045EE  486E FFE2                pea.l      [A6 - 0x1E]
000045F2  302E FFEE                move.w     D0, [A6 - 0x12]
000045F6  0640 FFCE                addi.w     D0, 0xFFCE
000045FA  3F00                     move.w     -[A7], D0
000045FC  302E FFEC                move.w     D0, [A6 - 0x14]
00004600  5940                     subq.w     D0, 4
00004602  3F00                     move.w     -[A7], D0
00004604  302E FFEE                move.w     D0, [A6 - 0x12]
00004608  0640 0032                addi.w     D0, 0x32 /* '2' */
0000460C  3F00                     move.w     -[A7], D0
0000460E  302E FFEC                move.w     D0, [A6 - 0x14]
00004612  5640                     addq.w     D0, 3
00004614  3F00                     move.w     -[A7], D0
00004616  A8A7                     syscall    SetRect
00004618  6000 027C                bra        +0x27E /* 00004896 */
label0000461C:
0000461C  486E FFE2                pea.l      [A6 - 0x1E]
00004620  302E FFEE                move.w     D0, [A6 - 0x12]
00004624  0640 FFCE                addi.w     D0, 0xFFCE
00004628  3F00                     move.w     -[A7], D0
0000462A  302E FFEC                move.w     D0, [A6 - 0x14]
0000462E  0640 FFE2                addi.w     D0, 0xFFE2
00004632  3F00                     move.w     -[A7], D0
00004634  302E FFEE                move.w     D0, [A6 - 0x12]
00004638  0640 0032                addi.w     D0, 0x32 /* '2' */
0000463C  3F00                     move.w     -[A7], D0
0000463E  302E FFEC                move.w     D0, [A6 - 0x14]
00004642  0640 001E                addi.w     D0, 0x1E
00004646  3F00                     move.w     -[A7], D0
00004648  A8A7                     syscall    SetRect
0000464A  6000 024A                bra        +0x24C /* 00004896 */
label0000464E:
0000464E  486E FFE2                pea.l      [A6 - 0x1E]
00004652  302E FFEE                move.w     D0, [A6 - 0x12]
00004656  0640 FFE0                addi.w     D0, 0xFFE0
0000465A  3F00                     move.w     -[A7], D0
0000465C  302E FFEC                move.w     D0, [A6 - 0x14]
00004660  0640 FFF0                addi.w     D0, 0xFFF0
00004664  3F00                     move.w     -[A7], D0
00004666  302E FFEE                move.w     D0, [A6 - 0x12]
0000466A  0640 0020                addi.w     D0, 0x20 /* ' ' */
0000466E  3F00                     move.w     -[A7], D0
00004670  302E FFEC                move.w     D0, [A6 - 0x14]
00004674  0640 0010                addi.w     D0, 0x10
00004678  3F00                     move.w     -[A7], D0
0000467A  A8A7                     syscall    SetRect
0000467C  6000 0218                bra        +0x21A /* 00004896 */
label00004680:
00004680  486E FFE2                pea.l      [A6 - 0x1E]
00004684  302E FFEE                move.w     D0, [A6 - 0x12]
00004688  0640 FFE0                addi.w     D0, 0xFFE0
0000468C  3F00                     move.w     -[A7], D0
0000468E  302E FFEC                move.w     D0, [A6 - 0x14]
00004692  0640 FFC0                addi.w     D0, 0xFFC0
00004696  3F00                     move.w     -[A7], D0
00004698  302E FFEE                move.w     D0, [A6 - 0x12]
0000469C  0640 0020                addi.w     D0, 0x20 /* ' ' */
000046A0  3F00                     move.w     -[A7], D0
000046A2  302E FFEC                move.w     D0, [A6 - 0x14]
000046A6  0640 0040                addi.w     D0, 0x40 /* '@' */
000046AA  3F00                     move.w     -[A7], D0
000046AC  A8A7                     syscall    SetRect
000046AE  6000 01E6                bra        +0x1E8 /* 00004896 */
label000046B2:
000046B2  3007                     move.w     D0, D7
000046B4  E740                     asl        D0.w, 3
000046B6  0640 FAF2                addi.w     D0, 0xFAF2
000046BA  41F5 0000                lea.l      A0, [A5 + D0.w]
000046BE  43EE FFE2                lea.l      A1, [A6 - 0x1E]
000046C2  22D8                     move.l     [A1]+, [A0]+
000046C4  22D8                     move.l     [A1]+, [A0]+
000046C6  486E FFE2                pea.l      [A6 - 0x1E]
000046CA  302E FFE4                move.w     D0, [A6 - 0x1C]
000046CE  4440                     neg.w      D0
000046D0  3F00                     move.w     -[A7], D0
000046D2  302E FFE2                move.w     D0, [A6 - 0x1E]
000046D6  4440                     neg.w      D0
000046D8  3F00                     move.w     -[A7], D0
000046DA  A8A8                     syscall    OffsetRect
000046DC  486E FFE2                pea.l      [A6 - 0x1E]
000046E0  3F2E FFEE                move.w     -[A7], [A6 - 0x12]
000046E4  3F3C 0145                move.w     -[A7], 0x145
000046E8  A8A8                     syscall    OffsetRect
000046EA  486E FFE2                pea.l      [A6 - 0x1E]
000046EE  302E FFE8                move.w     D0, [A6 - 0x18]
000046F2  906E FFE4                sub.w      D0, [A6 - 0x1C]
000046F6  48C0                     ext.l      D0
000046F8  81FC 0002                divs.w     D0, 0x2
000046FC  4440                     neg.w      D0
000046FE  3F00                     move.w     -[A7], D0
00004700  4267                     clr.w      -[A7]
00004702  A8A8                     syscall    OffsetRect
00004704  6000 0190                bra        +0x192 /* 00004896 */
label00004708:
00004708  3007                     move.w     D0, D7
0000470A  E740                     asl        D0.w, 3
0000470C  0640 FAF2                addi.w     D0, 0xFAF2
00004710  41F5 0000                lea.l      A0, [A5 + D0.w]
00004714  43EE FFE2                lea.l      A1, [A6 - 0x1E]
00004718  22D8                     move.l     [A1]+, [A0]+
0000471A  22D8                     move.l     [A1]+, [A0]+
0000471C  486E FFE2                pea.l      [A6 - 0x1E]
00004720  302E FFE4                move.w     D0, [A6 - 0x1C]
00004724  4440                     neg.w      D0
00004726  3F00                     move.w     -[A7], D0
00004728  302E FFE2                move.w     D0, [A6 - 0x1E]
0000472C  4440                     neg.w      D0
0000472E  3F00                     move.w     -[A7], D0
00004730  A8A8                     syscall    OffsetRect
00004732  486E FFE2                pea.l      [A6 - 0x1E]
00004736  3F2E FFEE                move.w     -[A7], [A6 - 0x12]
0000473A  3F3C 0018                move.w     -[A7], 0x18
0000473E  A8A8                     syscall    OffsetRect
00004740  486E FFE2                pea.l      [A6 - 0x1E]
00004744  302E FFE8                move.w     D0, [A6 - 0x18]
00004748  906E FFE4                sub.w      D0, [A6 - 0x1C]
0000474C  48C0                     ext.l      D0
0000474E  81FC 0002                divs.w     D0, 0x2
00004752  4440                     neg.w      D0
00004754  3F00                     move.w     -[A7], D0
00004756  4267                     clr.w      -[A7]
00004758  A8A8                     syscall    OffsetRect
0000475A  6000 013A                bra        +0x13C /* 00004896 */
label0000475E:
0000475E  486E FFE2                pea.l      [A6 - 0x1E]
00004762  302E FFEE                move.w     D0, [A6 - 0x12]
00004766  0640 FFCE                addi.w     D0, 0xFFCE
0000476A  3F00                     move.w     -[A7], D0
0000476C  302E FFEC                move.w     D0, [A6 - 0x14]
00004770  0640 FFC4                addi.w     D0, 0xFFC4
00004774  3F00                     move.w     -[A7], D0
00004776  302E FFEE                move.w     D0, [A6 - 0x12]
0000477A  0640 0032                addi.w     D0, 0x32 /* '2' */
0000477E  3F00                     move.w     -[A7], D0
00004780  302E FFEC                move.w     D0, [A6 - 0x14]
00004784  0640 003C                addi.w     D0, 0x3C /* '<' */
00004788  3F00                     move.w     -[A7], D0
0000478A  A8A7                     syscall    SetRect
0000478C  6000 0108                bra        +0x10A /* 00004896 */
label00004790:
00004790  3007                     move.w     D0, D7
00004792  E740                     asl        D0.w, 3
00004794  0640 FAF2                addi.w     D0, 0xFAF2
00004798  41F5 0000                lea.l      A0, [A5 + D0.w]
0000479C  43EE FFE2                lea.l      A1, [A6 - 0x1E]
000047A0  22D8                     move.l     [A1]+, [A0]+
000047A2  22D8                     move.l     [A1]+, [A0]+
000047A4  486E FFE2                pea.l      [A6 - 0x1E]
000047A8  302E FFE4                move.w     D0, [A6 - 0x1C]
000047AC  4440                     neg.w      D0
000047AE  3F00                     move.w     -[A7], D0
000047B0  302E FFE2                move.w     D0, [A6 - 0x1E]
000047B4  4440                     neg.w      D0
000047B6  3F00                     move.w     -[A7], D0
000047B8  A8A8                     syscall    OffsetRect
000047BA  486E FFE2                pea.l      [A6 - 0x1E]
000047BE  3F2E FFEE                move.w     -[A7], [A6 - 0x12]
000047C2  3F3C 0036                move.w     -[A7], 0x36 /* '6' */
000047C6  A8A8                     syscall    OffsetRect
000047C8  486E FFE2                pea.l      [A6 - 0x1E]
000047CC  302E FFE8                move.w     D0, [A6 - 0x18]
000047D0  906E FFE4                sub.w      D0, [A6 - 0x1C]
000047D4  48C0                     ext.l      D0
000047D6  81FC 0002                divs.w     D0, 0x2
000047DA  4440                     neg.w      D0
000047DC  3F00                     move.w     -[A7], D0
000047DE  4267                     clr.w      -[A7]
000047E0  A8A8                     syscall    OffsetRect
000047E2  6000 00B2                bra        +0xB4 /* 00004896 */
label000047E6:
000047E6  5340                     subq.w     D0, 1
000047E8  6700 FDD6                beq        -0x228 /* 000045C0 */
000047EC  5340                     subq.w     D0, 1
000047EE  6700 FDFE                beq        -0x200 /* 000045EE */
000047F2  5540                     subq.w     D0, 2
000047F4  6700 FE26                beq        -0x1D8 /* 0000461C */
000047F8  5340                     subq.w     D0, 1
000047FA  6700 FE52                beq        -0x1AC /* 0000464E */
000047FE  5340                     subq.w     D0, 1
00004800  6700 FE4C                beq        -0x1B2 /* 0000464E */
00004804  5540                     subq.w     D0, 2
00004806  6700 FEAA                beq        -0x154 /* 000046B2 */
0000480A  5340                     subq.w     D0, 1
0000480C  6700 FEFA                beq        -0x104 /* 00004708 */
00004810  5340                     subq.w     D0, 1
00004812  6700 FEF4                beq        -0x10A /* 00004708 */
00004816  0640 FFF7                addi.w     D0, 0xFFF7
0000481A  6700 FE32                beq        -0x1CC /* 0000464E */
0000481E  0640 FFEE                addi.w     D0, 0xFFEE
00004822  6700 FF3A                beq        -0xC4 /* 0000475E */
00004826  5940                     subq.w     D0, 4
00004828  6700 FE56                beq        -0x1A8 /* 00004680 */
0000482C  5740                     subq.w     D0, 3
0000482E  6700 FF60                beq        -0x9E /* 00004790 */
00004832  5340                     subq.w     D0, 1
00004834  6700 FF5A                beq        -0xA4 /* 00004790 */
00004838  3007                     move.w     D0, D7
0000483A  E740                     asl        D0.w, 3
0000483C  0640 FAF2                addi.w     D0, 0xFAF2
00004840  41F5 0000                lea.l      A0, [A5 + D0.w]
00004844  43EE FFE2                lea.l      A1, [A6 - 0x1E]
00004848  22D8                     move.l     [A1]+, [A0]+
0000484A  22D8                     move.l     [A1]+, [A0]+
0000484C  486E FFE2                pea.l      [A6 - 0x1E]
00004850  302E FFE4                move.w     D0, [A6 - 0x1C]
00004854  4440                     neg.w      D0
00004856  3F00                     move.w     -[A7], D0
00004858  302E FFE2                move.w     D0, [A6 - 0x1E]
0000485C  4440                     neg.w      D0
0000485E  3F00                     move.w     -[A7], D0
00004860  A8A8                     syscall    OffsetRect
00004862  486E FFE2                pea.l      [A6 - 0x1E]
00004866  3F2E FFEE                move.w     -[A7], [A6 - 0x12]
0000486A  3F2E FFEC                move.w     -[A7], [A6 - 0x14]
0000486E  A8A8                     syscall    OffsetRect
00004870  486E FFE2                pea.l      [A6 - 0x1E]
00004874  302E FFE4                move.w     D0, [A6 - 0x1C]
00004878  906E FFE8                sub.w      D0, [A6 - 0x18]
0000487C  48C0                     ext.l      D0
0000487E  81FC 0002                divs.w     D0, 0x2
00004882  3F00                     move.w     -[A7], D0
00004884  302E FFE2                move.w     D0, [A6 - 0x1E]
00004888  906E FFE6                sub.w      D0, [A6 - 0x1A]
0000488C  48C0                     ext.l      D0
0000488E  81FC 0002                divs.w     D0, 0x2
00004892  3F00                     move.w     -[A7], D0
00004894  A8A8                     syscall    OffsetRect
label00004896:
00004896  302D BB3E                move.w     D0, [A5 - 0x44C2]
0000489A  E940                     asl        D0.w, 4
0000489C  41EE FFE2                lea.l      A0, [A6 - 0x1E]
000048A0  0640 F21E                addi.w     D0, 0xF21E
000048A4  43F5 0000                lea.l      A1, [A5 + D0.w]
000048A8  22D8                     move.l     [A1]+, [A0]+
000048AA  22D8                     move.l     [A1]+, [A0]+
000048AC  4EBA F57E                jsr        [PC - 0xA82 /* 00003E2C */]
000048B0  3F2D BB3E                move.w     -[A7], [A5 - 0x44C2]
000048B4  4EBA F6F8                jsr        [PC - 0x908 /* 00003FAE */]
000048B8  4EBA DFFA                jsr        [PC - 0x2006 /* 000028B4 */]
000048BC  4EBA CF56                jsr        [PC - 0x30AA /* 00001814 */]
000048C0  4A2D FD99                tst.b      [A5 - 0x267]
000048C4  6706                     beq        +0x8 /* 000048CC */
000048C6  4227                     clr.b      -[A7]
000048C8  4EBA F498                jsr        [PC - 0xB68 /* 00003D62 */]
label000048CC:
000048CC  3F3C 0001                move.w     -[A7], 0x1
000048D0  4EAD 0252                jsr        [A5 + 0x252 /* export_70, CODE:5 @ 00000128 */]
000048D4  2F2E FFDE                move.l     -[A7], [A6 - 0x22]
000048D8  A873                     syscall    SetPort
label000048DA:
000048DA  4CDF 10C0                movem.l    D6,D7,A4, [A7]+
000048DE  4E5E                     unlink     A6
000048E0  205F                     movea.l    A0, [A7]+
000048E2  544F                     addq.w     A7, 2
000048E4  4ED0                     jmp        [A0]
export_59:
000048E6  4AAD B8B6                tst.l      [A5 - 0x474A]
000048EA  670A                     beq        +0xC /* 000048F6 */
000048EC  2F2D B8B6                move.l     -[A7], [A5 - 0x474A]
000048F0  A914                     syscall    DisposeWindow
000048F2  42AD B8B6                clr.l      [A5 - 0x474A]
label000048F6:
000048F6  4E75                     rts
export_60:
fn000048F8:
000048F8  4E56 FFCC                link       A6, -0x0034
000048FC  48E7 0338                movem.l    -[A7], D6,D7,A2,A3,A4
00004900  4AAD B8B6                tst.l      [A5 - 0x474A]
00004904  6700 0198                beq        +0x19A /* 00004A9E */
00004908  486E FFD4                pea.l      [A6 - 0x2C]
0000490C  A874                     syscall    GetPort
0000490E  2F2D B8B6                move.l     -[A7], [A5 - 0x474A]
00004912  A873                     syscall    SetPort
00004914  A89E                     syscall    PenNormal
00004916  2F3C 0000 0111           move.l     -[A7], 0x111
0000491C  A862                     syscall    ForeColor
0000491E  3F3C 0005                move.w     -[A7], 0x5
00004922  3F3C 0032                move.w     -[A7], 0x32 /* '2' */
00004926  A893                     syscall    MoveTo
00004928  3F3C 0046                move.w     -[A7], 0x46 /* 'F' */
0000492C  3F3C 0032                move.w     -[A7], 0x32 /* '2' */
00004930  A891                     syscall    LineTo
00004932  7021                     moveq.l    D0, 0x21
00004934  2F00                     move.l     -[A7], D0
00004936  A862                     syscall    ForeColor
00004938  4A2D FD97                tst.b      [A5 - 0x269]
0000493C  6740                     beq        +0x42 /* 0000497E */
0000493E  4247                     clr.w      D7
label00004940:
00004940  4EAD 023A                jsr        [A5 + 0x23A /* export_67, CODE:5 @ 00000000 */]
00004944  594F                     subq.w     A7, 4
00004946  3007                     move.w     D0, D7
00004948  0640 0085                addi.w     D0, 0x85
0000494C  3F00                     move.w     -[A7], D0
0000494E  AA1E                     syscall    GetCIcon
00004950  285F                     movea.l    A4, [A7]+
00004952  200C                     move.l     D0, A4
00004954  6712                     beq        +0x14 /* 00004968 */
00004956  3007                     move.w     D0, D7
00004958  E740                     asl        D0.w, 3
0000495A  0640 FAC2                addi.w     D0, 0xFAC2
0000495E  4875 0000                pea.l      [A5 + D0.w]
00004962  2F0C                     move.l     -[A7], A4
00004964  AA1F                     syscall    PlotCIcon
00004966  6008                     bra        +0xA /* 00004970 */
label00004968:
00004968  3F3C 000C                move.w     -[A7], 0xC
0000496C  4EAD 0272                jsr        [A5 + 0x272 /* export_74, CODE:5 @ 00000A50 */]
label00004970:
00004970  2F0C                     move.l     -[A7], A4
00004972  AA25                     syscall    DisposeCIcon/DisposCIcon
00004974  5247                     addq.w     D7, 1
00004976  0C47 0005                cmpi.w     D7, 0x5
0000497A  6FC4                     ble        -0x3A /* 00004940 */
0000497C  6038                     bra        +0x3A /* 000049B6 */
label0000497E:
0000497E  4247                     clr.w      D7
label00004980:
00004980  4EAD 023A                jsr        [A5 + 0x23A /* export_67, CODE:5 @ 00000000 */]
00004984  594F                     subq.w     A7, 4
00004986  2F3C 5349 434E           move.l     -[A7], 0x5349434E /* 'SICN' */
0000498C  3007                     move.w     D0, D7
0000498E  0640 0100                addi.w     D0, 0x100
00004992  3F00                     move.w     -[A7], D0
00004994  A9A0                     syscall    GetResource
00004996  245F                     movea.l    A2, [A7]+
00004998  200A                     move.l     D0, A2
0000499A  6712                     beq        +0x14 /* 000049AE */
0000499C  3007                     move.w     D0, D7
0000499E  E740                     asl        D0.w, 3
000049A0  0640 FAC2                addi.w     D0, 0xFAC2
000049A4  4875 0000                pea.l      [A5 + D0.w]
000049A8  2F0A                     move.l     -[A7], A2
000049AA  4EBA B6AA                jsr        [PC - 0x4956 /* 00000056 */]
label000049AE:
000049AE  5247                     addq.w     D7, 1
000049B0  0C47 0005                cmpi.w     D7, 0x5
000049B4  6FCA                     ble        -0x34 /* 00004980 */
label000049B6:
000049B6  302D BB3C                move.w     D0, [A5 - 0x44C4]
000049BA  E740                     asl        D0.w, 3
000049BC  0640 FAC2                addi.w     D0, 0xFAC2
000049C0  41F5 0000                lea.l      A0, [A5 + D0.w]
000049C4  43EE FFE4                lea.l      A1, [A6 - 0x1C]
000049C8  22D8                     move.l     [A1]+, [A0]+
000049CA  22D8                     move.l     [A1]+, [A0]+
000049CC  486E FFE4                pea.l      [A6 - 0x1C]
000049D0  3F3C FFFD                move.w     -[A7], 0xFFFD
000049D4  3F3C FFFD                move.w     -[A7], 0xFFFD
000049D8  A8A9                     syscall    InsetRect
000049DA  3F3C 0002                move.w     -[A7], 0x2
000049DE  3F3C 0002                move.w     -[A7], 0x2
000049E2  A89B                     syscall    PenSize
000049E4  486D FFBA                pea.l      [A5 - 0x46]
000049E8  A89D                     syscall    PenPat
000049EA  2F3C 0000 00CD           move.l     -[A7], 0xCD
000049F0  A862                     syscall    ForeColor
000049F2  486E FFE4                pea.l      [A6 - 0x1C]
000049F6  A8A1                     syscall    FrameRect
000049F8  7021                     moveq.l    D0, 0x21
000049FA  2F00                     move.l     -[A7], D0
000049FC  A862                     syscall    ForeColor
000049FE  A89E                     syscall    PenNormal
00004A00  4247                     clr.w      D7
label00004A02:
00004A02  4EAD 023A                jsr        [A5 + 0x23A /* export_67, CODE:5 @ 00000000 */]
00004A06  4A6D BB3C                tst.w      [A5 - 0x44C4]
00004A0A  6606                     bne        +0x8 /* 00004A12 */
00004A0C  3C07                     move.w     D6, D7
00004A0E  5246                     addq.w     D6, 1
00004A10  6002                     bra        +0x4 /* 00004A14 */
label00004A12:
00004A12  3C07                     move.w     D6, D7
label00004A14:
00004A14  4A2D FD97                tst.b      [A5 - 0x269]
00004A18  673C                     beq        +0x3E /* 00004A56 */
00004A1A  594F                     subq.w     A7, 4
00004A1C  302D BB3C                move.w     D0, [A5 - 0x44C4]
00004A20  E740                     asl        D0.w, 3
00004A22  D046                     add.w      D0, D6
00004A24  D040                     add.w      D0, D0
00004A26  0640 FD22                addi.w     D0, 0xFD22
00004A2A  3F35 0000                move.w     -[A7], [A5 + D0.w]
00004A2E  AA1E                     syscall    GetCIcon
00004A30  285F                     movea.l    A4, [A7]+
00004A32  200C                     move.l     D0, A4
00004A34  6712                     beq        +0x14 /* 00004A48 */
00004A36  3007                     move.w     D0, D7
00004A38  E740                     asl        D0.w, 3
00004A3A  0640 FA92                addi.w     D0, 0xFA92
00004A3E  4875 0000                pea.l      [A5 + D0.w]
00004A42  2F0C                     move.l     -[A7], A4
00004A44  AA1F                     syscall    PlotCIcon
00004A46  6008                     bra        +0xA /* 00004A50 */
label00004A48:
00004A48  3F3C 000C                move.w     -[A7], 0xC
00004A4C  4EAD 0272                jsr        [A5 + 0x272 /* export_74, CODE:5 @ 00000A50 */]
label00004A50:
00004A50  2F0C                     move.l     -[A7], A4
00004A52  AA25                     syscall    DisposeCIcon/DisposCIcon
00004A54  6036                     bra        +0x38 /* 00004A8C */
label00004A56:
00004A56  594F                     subq.w     A7, 4
00004A58  302D BB3C                move.w     D0, [A5 - 0x44C4]
00004A5C  E740                     asl        D0.w, 3
00004A5E  D046                     add.w      D0, D6
00004A60  D040                     add.w      D0, D0
00004A62  0640 FD22                addi.w     D0, 0xFD22
00004A66  3F35 0000                move.w     -[A7], [A5 + D0.w]
00004A6A  A9BB                     syscall    GetIcon
00004A6C  265F                     movea.l    A3, [A7]+
00004A6E  200B                     move.l     D0, A3
00004A70  6712                     beq        +0x14 /* 00004A84 */
00004A72  3007                     move.w     D0, D7
00004A74  E740                     asl        D0.w, 3
00004A76  0640 FA92                addi.w     D0, 0xFA92
00004A7A  4875 0000                pea.l      [A5 + D0.w]
00004A7E  2F0B                     move.l     -[A7], A3
00004A80  A94B                     syscall    PlotIcon
00004A82  6008                     bra        +0xA /* 00004A8C */
label00004A84:
00004A84  3F3C 000C                move.w     -[A7], 0xC
00004A88  4EAD 0272                jsr        [A5 + 0x272 /* export_74, CODE:5 @ 00000A50 */]
label00004A8C:
00004A8C  5247                     addq.w     D7, 1
00004A8E  0C47 0005                cmpi.w     D7, 0x5
00004A92  6F00 FF6E                ble        -0x90 /* 00004A02 */
00004A96  2F2E FFD4                move.l     -[A7], [A6 - 0x2C]
00004A9A  A873                     syscall    SetPort
00004A9C  A850                     syscall    InitCursor
label00004A9E:
00004A9E  4CDF 1CC0                movem.l    D6,D7,A2,A3,A4, [A7]+
00004AA2  4E5E                     unlink     A6
00004AA4  4E75                     rts
export_61:
00004AA6  4AAD B8B6                tst.l      [A5 - 0x474A]
00004AAA  666E                     bne        +0x70 /* 00004B1A */
00004AAC  4A2D FD97                tst.b      [A5 - 0x269]
00004AB0  6714                     beq        +0x16 /* 00004AC6 */
00004AB2  594F                     subq.w     A7, 4
00004AB4  3F3C 0080                move.w     -[A7], 0x80
00004AB8  42A7                     clr.l      -[A7]
00004ABA  70FF                     moveq.l    D0, 0xFFFFFFFF
00004ABC  2F00                     move.l     -[A7], D0
00004ABE  AA46                     syscall    GetNewCWindow
00004AC0  2B5F B8B6                move.l     [A5 - 0x474A], [A7]+
00004AC4  6012                     bra        +0x14 /* 00004AD8 */
label00004AC6:
00004AC6  594F                     subq.w     A7, 4
00004AC8  3F3C 0080                move.w     -[A7], 0x80
00004ACC  42A7                     clr.l      -[A7]
00004ACE  70FF                     moveq.l    D0, 0xFFFFFFFF
00004AD0  2F00                     move.l     -[A7], D0
00004AD2  A9BD                     syscall    GetNewWindow
00004AD4  2B5F B8B6                move.l     [A5 - 0x474A], [A7]+
label00004AD8:
00004AD8  4AAD B8B6                tst.l      [A5 - 0x474A]
00004ADC  660A                     bne        +0xC /* 00004AE8 */
00004ADE  3F3C 000C                move.w     -[A7], 0xC
00004AE2  4EAD 0272                jsr        [A5 + 0x272 /* export_74, CODE:5 @ 00000A50 */]
00004AE6  A9F4                     syscall    ExitToShell
label00004AE8:
00004AE8  2F2D B8B6                move.l     -[A7], [A5 - 0x474A]
00004AEC  A873                     syscall    SetPort
00004AEE  2F2D B8B6                move.l     -[A7], [A5 - 0x474A]
00004AF2  302D FF5C                move.w     D0, [A5 - 0xA4]
00004AF6  0640 FF9D                addi.w     D0, 0xFF9D
00004AFA  3F00                     move.w     -[A7], D0
00004AFC  3F3C 0028                move.w     -[A7], 0x28 /* '(' */
00004B00  4227                     clr.b      -[A7]
00004B02  A91B                     syscall    MoveWindow
00004B04  2F2D B8B6                move.l     -[A7], [A5 - 0x474A]
00004B08  A915                     syscall    ShowWindow
00004B0A  2F2D B8B6                move.l     -[A7], [A5 - 0x474A]
00004B0E  7001                     moveq.l    D0, 0x01
00004B10  2F00                     move.l     -[A7], D0
00004B12  A918                     syscall    SetWRefCon
00004B14  4EBA FDE2                jsr        [PC - 0x21E /* 000048F8 */]
00004B18  6006                     bra        +0x8 /* 00004B20 */
label00004B1A:
00004B1A  2F2D B8B6                move.l     -[A7], [A5 - 0x474A]
00004B1E  A91F                     syscall    SelectWindow
label00004B20:
00004B20  4E75                     rts
export_62:
00004B22  4E56 FFC8                link       A6, -0x0038
00004B26  48E7 0300                movem.l    -[A7], D6,D7
00004B2A  4AAD B8B6                tst.l      [A5 - 0x474A]
00004B2E  6700 00FC                beq        +0xFE /* 00004C2C */
00004B32  0C6D 0001 B8A2           cmpi.w     [A5 - 0x475E], 0x1
00004B38  6600 00F2                bne        +0xF4 /* 00004C2C */
00004B3C  2D6D B8AC FFE0           move.l     [A6 - 0x20], [A5 - 0x4754]
00004B42  486E FFE0                pea.l      [A6 - 0x20]
00004B46  A871                     syscall    GlobalToLocal
00004B48  4247                     clr.w      D7
label00004B4A:
00004B4A  554F                     subq.w     A7, 2
00004B4C  2F2E FFE0                move.l     -[A7], [A6 - 0x20]
00004B50  3007                     move.w     D0, D7
00004B52  E740                     asl        D0.w, 3
00004B54  0640 FA92                addi.w     D0, 0xFA92
00004B58  4875 0000                pea.l      [A5 + D0.w]
00004B5C  A8AD                     syscall    PtInRect
00004B5E  4A1F                     tst.b      [A7]+
00004B60  6734                     beq        +0x36 /* 00004B96 */
00004B62  4EAD 0262                jsr        [A5 + 0x262 /* export_72, CODE:5 @ 0000094E */]
00004B66  1B7C 0001 FD96           move.b     [A5 - 0x26A], 0x1
00004B6C  3C2D BB3C                move.w     D6, [A5 - 0x44C4]
00004B70  E746                     asl        D6.w, 3
00004B72  DC47                     add.w      D6, D7
00004B74  4A6D BB3C                tst.w      [A5 - 0x44C4]
00004B78  6602                     bne        +0x4 /* 00004B7C */
00004B7A  5246                     addq.w     D6, 1
label00004B7C:
00004B7C  3006                     move.w     D0, D6
00004B7E  D040                     add.w      D0, D0
00004B80  0640 FD22                addi.w     D0, 0xFD22
00004B84  0C75 0190 0000           cmpi.w     [A5 + D0.w], 0x190
00004B8A  6708                     beq        +0xA /* 00004B94 */
00004B8C  3F06                     move.w     -[A7], D6
00004B8E  4EBA F962                jsr        [PC - 0x69E /* 000044F2 */]
00004B92  6002                     bra        +0x4 /* 00004B96 */
label00004B94:
00004B94  4246                     clr.w      D6
label00004B96:
00004B96  5247                     addq.w     D7, 1
00004B98  0C47 0005                cmpi.w     D7, 0x5
00004B9C  6FAC                     ble        -0x52 /* 00004B4A */
00004B9E  4247                     clr.w      D7
label00004BA0:
00004BA0  554F                     subq.w     A7, 2
00004BA2  2F2E FFE0                move.l     -[A7], [A6 - 0x20]
00004BA6  3007                     move.w     D0, D7
00004BA8  E740                     asl        D0.w, 3
00004BAA  0640 FAC2                addi.w     D0, 0xFAC2
00004BAE  4875 0000                pea.l      [A5 + D0.w]
00004BB2  A8AD                     syscall    PtInRect
00004BB4  4A1F                     tst.b      [A7]+
00004BB6  676A                     beq        +0x6C /* 00004C22 */
00004BB8  BE6D BB3C                cmp.w      D7, [A5 - 0x44C4]
00004BBC  6764                     beq        +0x66 /* 00004C22 */
00004BBE  302D BB3C                move.w     D0, [A5 - 0x44C4]
00004BC2  E740                     asl        D0.w, 3
00004BC4  0640 FAC2                addi.w     D0, 0xFAC2
00004BC8  41F5 0000                lea.l      A0, [A5 + D0.w]
00004BCC  43EE FFE4                lea.l      A1, [A6 - 0x1C]
00004BD0  22D8                     move.l     [A1]+, [A0]+
00004BD2  22D8                     move.l     [A1]+, [A0]+
00004BD4  486E FFE4                pea.l      [A6 - 0x1C]
00004BD8  3F3C FFFD                move.w     -[A7], 0xFFFD
00004BDC  3F3C FFFD                move.w     -[A7], 0xFFFD
00004BE0  A8A9                     syscall    InsetRect
00004BE2  3F3C 0002                move.w     -[A7], 0x2
00004BE6  3F3C 0002                move.w     -[A7], 0x2
00004BEA  A89B                     syscall    PenSize
00004BEC  4A2D FD97                tst.b      [A5 - 0x269]
00004BF0  6714                     beq        +0x16 /* 00004C06 */
00004BF2  486D BA9C                pea.l      [A5 - 0x4564]
00004BF6  AA14                     syscall    RGBForeColor
00004BF8  486E FFE4                pea.l      [A6 - 0x1C]
00004BFC  A8A1                     syscall    FrameRect
00004BFE  486D BA96                pea.l      [A5 - 0x456A]
00004C02  AA14                     syscall    RGBForeColor
00004C04  6014                     bra        +0x16 /* 00004C1A */
label00004C06:
00004C06  486E FFE4                pea.l      [A6 - 0x1C]
00004C0A  A8A1                     syscall    FrameRect
00004C0C  3F3C 000A                move.w     -[A7], 0xA /* '\n' */
00004C10  A89C                     syscall    PenMode
00004C12  486E FFE4                pea.l      [A6 - 0x1C]
00004C16  A8A1                     syscall    FrameRect
00004C18  A89E                     syscall    PenNormal
label00004C1A:
00004C1A  3B47 BB3C                move.w     [A5 - 0x44C4], D7
00004C1E  4EBA FCD8                jsr        [PC - 0x328 /* 000048F8 */]
label00004C22:
00004C22  5247                     addq.w     D7, 1
00004C24  0C47 0005                cmpi.w     D7, 0x5
00004C28  6F00 FF76                ble        -0x88 /* 00004BA0 */
label00004C2C:
00004C2C  4CDF 00C0                movem.l    D6,D7, [A7]+
00004C30  4E5E                     unlink     A6
00004C32  4E75                     rts
fn00004C34:
00004C34  4E56 0000                link       A6, 0
00004C38  2F0C                     move.l     -[A7], A4
00004C3A  286E 0008                movea.l    A4, [A6 + 0x8]
00004C3E  2F2C FFE6                move.l     -[A7], [A4 - 0x1A]
00004C42  3F2E 000C                move.w     -[A7], [A6 + 0xC]
00004C46  486C FFD4                pea.l      [A4 - 0x2C]
00004C4A  486C FFC0                pea.l      [A4 - 0x40]
00004C4E  486C FFDE                pea.l      [A4 - 0x22]
00004C52  A98D                     syscall    GetDialogItem/GetDItem
00004C54  2F2C FFC0                move.l     -[A7], [A4 - 0x40]
00004C58  486C FEC0                pea.l      [A4 - 0x140]
00004C5C  A990                     syscall    GetDialogItemText/GetIText
00004C5E  486C FEC0                pea.l      [A4 - 0x140]
00004C62  486C FFC4                pea.l      [A4 - 0x3C]
00004C66  4EAD 011A                jsr        [A5 + 0x11A /* export_31, CODE:1 @ 00000788 */]
00004C6A  3D6C FFC6 000E           move.w     [A6 + 0xE], [A4 - 0x3A]
00004C70  285F                     movea.l    A4, [A7]+
00004C72  4E5E                     unlink     A6
00004C74  205F                     movea.l    A0, [A7]+
00004C76  5C4F                     addq.w     A7, 6
00004C78  4ED0                     jmp        [A0]
fn00004C7A:
00004C7A  4E56 0000                link       A6, 0
00004C7E  2F0C                     move.l     -[A7], A4
00004C80  286E 0008                movea.l    A4, [A6 + 0x8]
00004C84  2F2C FFE6                move.l     -[A7], [A4 - 0x1A]
00004C88  3F2E 0010                move.w     -[A7], [A6 + 0x10]
00004C8C  486C FFD4                pea.l      [A4 - 0x2C]
00004C90  486C FFC0                pea.l      [A4 - 0x40]
00004C94  486C FFDE                pea.l      [A4 - 0x22]
00004C98  A98D                     syscall    GetDialogItem/GetDItem
00004C9A  302E 000E                move.w     D0, [A6 + 0xE]
00004C9E  48C0                     ext.l      D0
00004CA0  2F00                     move.l     -[A7], D0
00004CA2  486C FEC0                pea.l      [A4 - 0x140]
00004CA6  4EAD 0122                jsr        [A5 + 0x122 /* export_32, CODE:1 @ 0000079C */]
00004CAA  2F2C FFC0                move.l     -[A7], [A4 - 0x40]
00004CAE  486C FEC0                pea.l      [A4 - 0x140]
00004CB2  A98F                     syscall    SetDialogItemText/SetIText
00004CB4  4A2E 000C                tst.b      [A6 + 0xC]
00004CB8  6710                     beq        +0x12 /* 00004CCA */
00004CBA  2F2C FFE6                move.l     -[A7], [A4 - 0x1A]
00004CBE  3F2E 0010                move.w     -[A7], [A6 + 0x10]
00004CC2  4267                     clr.w      -[A7]
00004CC4  3F3C 0004                move.w     -[A7], 0x4
00004CC8  A97E                     syscall    SelectDialogItemText/SelIText
label00004CCA:
00004CCA  285F                     movea.l    A4, [A7]+
00004CCC  4E5E                     unlink     A6
00004CCE  205F                     movea.l    A0, [A7]+
00004CD0  4FEF 000A                lea.l      A7, [A7 + 0xA]
00004CD4  4ED0                     jmp        [A0]
fn00004CD6:
00004CD6  4E56 FFE6                link       A6, -0x001A
00004CDA  48E7 0118                movem.l    -[A7], D7,A3,A4
00004CDE  286E 0008                movea.l    A4, [A6 + 0x8]
00004CE2  2F2C FFE6                move.l     -[A7], [A4 - 0x1A]
00004CE6  A873                     syscall    SetPort
00004CE8  2F2C FFE6                move.l     -[A7], [A4 - 0x1A]
00004CEC  3F3C 0001                move.w     -[A7], 0x1
00004CF0  486C FFD4                pea.l      [A4 - 0x2C]
00004CF4  486C FFC0                pea.l      [A4 - 0x40]
00004CF8  486C FFDE                pea.l      [A4 - 0x22]
00004CFC  A98D                     syscall    GetDialogItem/GetDItem
00004CFE  3F3C 0003                move.w     -[A7], 0x3
00004D02  3F3C 0003                move.w     -[A7], 0x3
00004D06  A89B                     syscall    PenSize
00004D08  486C FFDE                pea.l      [A4 - 0x22]
00004D0C  3F3C FFFC                move.w     -[A7], 0xFFFC
00004D10  3F3C FFFC                move.w     -[A7], 0xFFFC
00004D14  A8A9                     syscall    InsetRect
00004D16  486C FFDE                pea.l      [A4 - 0x22]
00004D1A  3F3C 0010                move.w     -[A7], 0x10
00004D1E  3F3C 0010                move.w     -[A7], 0x10
00004D22  A8B0                     syscall    FrameRoundRect
00004D24  A89E                     syscall    PenNormal
00004D26  206C FFE6                movea.l    A0, [A4 - 0x1A]
00004D2A  47E8 0010                lea.l      A3, [A0 + 0x10]
00004D2E  3E2B 0006                move.w     D7, [A3 + 0x6]
00004D32  9E6B 0002                sub.w      D7, [A3 + 0x2]
00004D36  3F3C 0004                move.w     -[A7], 0x4
00004D3A  3F3C 0026                move.w     -[A7], 0x26 /* '&' */
00004D3E  A893                     syscall    MoveTo
00004D40  3007                     move.w     D0, D7
00004D42  5140                     subq.w     D0, 8
00004D44  3F00                     move.w     -[A7], D0
00004D46  4267                     clr.w      -[A7]
00004D48  A892                     syscall    Line
00004D4A  3F3C 0004                move.w     -[A7], 0x4
00004D4E  3F3C 0028                move.w     -[A7], 0x28 /* '(' */
00004D52  A893                     syscall    MoveTo
00004D54  3007                     move.w     D0, D7
00004D56  5140                     subq.w     D0, 8
00004D58  3F00                     move.w     -[A7], D0
00004D5A  4267                     clr.w      -[A7]
00004D5C  A892                     syscall    Line
00004D5E  4CDF 1880                movem.l    D7,A3,A4, [A7]+
00004D62  4E5E                     unlink     A6
00004D64  2E9F                     move.l     [A7], [A7]+
00004D66  4E75                     rts
export_63:
00004D68  4E56 FEB0                link       A6, -0x0150
00004D6C  48E7 1F08                movem.l    -[A7], D3,D4,D5,D6,D7,A4
00004D70  486E FFEC                pea.l      [A6 - 0x14]
00004D74  A874                     syscall    GetPort
00004D76  594F                     subq.w     A7, 4
00004D78  3F3C 0083                move.w     -[A7], 0x83
00004D7C  42A7                     clr.l      -[A7]
00004D7E  70FF                     moveq.l    D0, 0xFFFFFFFF
00004D80  2F00                     move.l     -[A7], D0
00004D82  A97C                     syscall    GetNewDialog
00004D84  2D5F FFE6                move.l     [A6 - 0x1A], [A7]+
00004D88  206E FFE6                movea.l    A0, [A6 - 0x1A]
00004D8C  49E8 0002                lea.l      A4, [A0 + 0x2]
00004D90  362D BB40                move.w     D3, [A5 - 0x44C0]
00004D94  966C 0008                sub.w      D3, [A4 + 0x8]
00004D98  382D BB42                move.w     D4, [A5 - 0x44BE]
00004D9C  986C 0006                sub.w      D4, [A4 + 0x6]
00004DA0  2F2E FFE6                move.l     -[A7], [A6 - 0x1A]
00004DA4  3F03                     move.w     -[A7], D3
00004DA6  3F04                     move.w     -[A7], D4
00004DA8  4227                     clr.b      -[A7]
00004DAA  A91B                     syscall    MoveWindow
00004DAC  2F2E FFE6                move.l     -[A7], [A6 - 0x1A]
00004DB0  A915                     syscall    ShowWindow
00004DB2  2F2E FFE6                move.l     -[A7], [A6 - 0x1A]
00004DB6  A91F                     syscall    SelectWindow
00004DB8  2F2E FFE6                move.l     -[A7], [A6 - 0x1A]
00004DBC  A873                     syscall    SetPort
00004DBE  302D BB3E                move.w     D0, [A5 - 0x44C2]
00004DC2  E940                     asl        D0.w, 4
00004DC4  0640 F21C                addi.w     D0, 0xF21C
00004DC8  41F5 0000                lea.l      A0, [A5 + D0.w]
00004DCC  43EE FEB0                lea.l      A1, [A6 - 0x150]
00004DD0  22D8                     move.l     [A1]+, [A0]+
00004DD2  22D8                     move.l     [A1]+, [A0]+
00004DD4  22D8                     move.l     [A1]+, [A0]+
00004DD6  22D8                     move.l     [A1]+, [A0]+
00004DD8  3F3C 0012                move.w     -[A7], 0x12
00004DDC  3F2D BB3E                move.w     -[A7], [A5 - 0x44C2]
00004DE0  4227                     clr.b      -[A7]
00004DE2  2F0E                     move.l     -[A7], A6
00004DE4  4EBA FE94                jsr        [PC - 0x16C /* 00004C7A */]
00004DE8  3F3C 0003                move.w     -[A7], 0x3
00004DEC  3F2E FEB4                move.w     -[A7], [A6 - 0x14C]
00004DF0  4227                     clr.b      -[A7]
00004DF2  2F0E                     move.l     -[A7], A6
00004DF4  4EBA FE84                jsr        [PC - 0x17C /* 00004C7A */]
00004DF8  3F3C 0004                move.w     -[A7], 0x4
00004DFC  3F2E FEB2                move.w     -[A7], [A6 - 0x14E]
00004E00  4227                     clr.b      -[A7]
00004E02  2F0E                     move.l     -[A7], A6
00004E04  4EBA FE74                jsr        [PC - 0x18C /* 00004C7A */]
00004E08  7A03                     moveq.l    D5, 0x03
00004E0A  302E FEB0                move.w     D0, [A6 - 0x150]
00004E0E  6000 014C                bra        +0x14E /* 00004F5C */
label00004E12:
00004E12  3F3C 0005                move.w     -[A7], 0x5
00004E16  302E FEB8                move.w     D0, [A6 - 0x148]
00004E1A  906E FEB4                sub.w      D0, [A6 - 0x14C]
00004E1E  3F00                     move.w     -[A7], D0
00004E20  4227                     clr.b      -[A7]
00004E22  2F0E                     move.l     -[A7], A6
00004E24  4EBA FE54                jsr        [PC - 0x1AC /* 00004C7A */]
00004E28  2F2E FFE6                move.l     -[A7], [A6 - 0x1A]
00004E2C  3F3C 0006                move.w     -[A7], 0x6
00004E30  A827                     syscall    HideDialogItem/HideDItem
00004E32  2F2E FFE6                move.l     -[A7], [A6 - 0x1A]
00004E36  3F3C 000F                move.w     -[A7], 0xF
00004E3A  A827                     syscall    HideDialogItem/HideDItem
00004E3C  7A05                     moveq.l    D5, 0x05
00004E3E  6000 01A8                bra        +0x1AA /* 00004FE8 */
label00004E42:
00004E42  3F3C 0005                move.w     -[A7], 0x5
00004E46  302E FEB8                move.w     D0, [A6 - 0x148]
00004E4A  906E FEB4                sub.w      D0, [A6 - 0x14C]
00004E4E  3F00                     move.w     -[A7], D0
00004E50  4227                     clr.b      -[A7]
00004E52  2F0E                     move.l     -[A7], A6
00004E54  4EBA FE24                jsr        [PC - 0x1DC /* 00004C7A */]
00004E58  3F3C 0006                move.w     -[A7], 0x6
00004E5C  302E FEB6                move.w     D0, [A6 - 0x14A]
00004E60  906E FEB2                sub.w      D0, [A6 - 0x14E]
00004E64  3F00                     move.w     -[A7], D0
00004E66  4227                     clr.b      -[A7]
00004E68  2F0E                     move.l     -[A7], A6
00004E6A  4EBA FE0E                jsr        [PC - 0x1F2 /* 00004C7A */]
00004E6E  7A05                     moveq.l    D5, 0x05
00004E70  6000 0176                bra        +0x178 /* 00004FE8 */
label00004E74:
00004E74  2F2E FFE6                move.l     -[A7], [A6 - 0x1A]
00004E78  3F3C 0004                move.w     -[A7], 0x4
00004E7C  A827                     syscall    HideDialogItem/HideDItem
00004E7E  2F2E FFE6                move.l     -[A7], [A6 - 0x1A]
00004E82  3F3C 000D                move.w     -[A7], 0xD /* '\r' */
00004E86  A827                     syscall    HideDialogItem/HideDItem
00004E88  2F2E FFE6                move.l     -[A7], [A6 - 0x1A]
00004E8C  3F3C 0005                move.w     -[A7], 0x5
00004E90  A827                     syscall    HideDialogItem/HideDItem
00004E92  2F2E FFE6                move.l     -[A7], [A6 - 0x1A]
00004E96  3F3C 000E                move.w     -[A7], 0xE
00004E9A  A827                     syscall    HideDialogItem/HideDItem
00004E9C  2F2E FFE6                move.l     -[A7], [A6 - 0x1A]
00004EA0  3F3C 0006                move.w     -[A7], 0x6
00004EA4  A827                     syscall    HideDialogItem/HideDItem
00004EA6  2F2E FFE6                move.l     -[A7], [A6 - 0x1A]
00004EAA  3F3C 000F                move.w     -[A7], 0xF
00004EAE  A827                     syscall    HideDialogItem/HideDItem
00004EB0  6000 0136                bra        +0x138 /* 00004FE8 */
label00004EB4:
00004EB4  2F2E FFE6                move.l     -[A7], [A6 - 0x1A]
00004EB8  3F3C 0004                move.w     -[A7], 0x4
00004EBC  A827                     syscall    HideDialogItem/HideDItem
00004EBE  2F2E FFE6                move.l     -[A7], [A6 - 0x1A]
00004EC2  3F3C 000D                move.w     -[A7], 0xD /* '\r' */
00004EC6  A827                     syscall    HideDialogItem/HideDItem
00004EC8  3F3C 0005                move.w     -[A7], 0x5
00004ECC  3F2E FEBC                move.w     -[A7], [A6 - 0x144]
00004ED0  4227                     clr.b      -[A7]
00004ED2  2F0E                     move.l     -[A7], A6
00004ED4  4EBA FDA4                jsr        [PC - 0x25C /* 00004C7A */]
00004ED8  2F2E FFE6                move.l     -[A7], [A6 - 0x1A]
00004EDC  3F3C 000E                move.w     -[A7], 0xE
00004EE0  486E FFD4                pea.l      [A6 - 0x2C]
00004EE4  486E FFC0                pea.l      [A6 - 0x40]
00004EE8  486E FFDE                pea.l      [A6 - 0x22]
00004EEC  A98D                     syscall    GetDialogItem/GetDItem
00004EEE  2F2E FFC0                move.l     -[A7], [A6 - 0x40]
00004EF2  487A 0C66                pea.l      [PC + 0xC66 /* 00005B5A, value 0x9526D20 '\tRm ', pstring "Rm # link" */]
00004EF6  A98F                     syscall    SetDialogItemText/SetIText
00004EF8  2F2E FFE6                move.l     -[A7], [A6 - 0x1A]
00004EFC  3F3C 0006                move.w     -[A7], 0x6
00004F00  A827                     syscall    HideDialogItem/HideDItem
00004F02  2F2E FFE6                move.l     -[A7], [A6 - 0x1A]
00004F06  3F3C 000F                move.w     -[A7], 0xF
00004F0A  A827                     syscall    HideDialogItem/HideDItem
00004F0C  7A05                     moveq.l    D5, 0x05
00004F0E  6000 00D8                bra        +0xDA /* 00004FE8 */
label00004F12:
00004F12  3F3C 0005                move.w     -[A7], 0x5
00004F16  3F2E FEBC                move.w     -[A7], [A6 - 0x144]
00004F1A  4227                     clr.b      -[A7]
00004F1C  2F0E                     move.l     -[A7], A6
00004F1E  4EBA FD5A                jsr        [PC - 0x2A6 /* 00004C7A */]
00004F22  2F2E FFE6                move.l     -[A7], [A6 - 0x1A]
00004F26  3F3C 000E                move.w     -[A7], 0xE
00004F2A  486E FFD4                pea.l      [A6 - 0x2C]
00004F2E  486E FFC0                pea.l      [A6 - 0x40]
00004F32  486E FFDE                pea.l      [A6 - 0x22]
00004F36  A98D                     syscall    GetDialogItem/GetDItem
00004F38  2F2E FFC0                move.l     -[A7], [A6 - 0x40]
00004F3C  487A 0C08                pea.l      [PC + 0xC08 /* 00005B46, value 0x1344656C, pstring "Delay (1/60th secs)" */]
00004F40  A98F                     syscall    SetDialogItemText/SetIText
00004F42  2F2E FFE6                move.l     -[A7], [A6 - 0x1A]
00004F46  3F3C 0006                move.w     -[A7], 0x6
00004F4A  A827                     syscall    HideDialogItem/HideDItem
00004F4C  2F2E FFE6                move.l     -[A7], [A6 - 0x1A]
00004F50  3F3C 000F                move.w     -[A7], 0xF
00004F54  A827                     syscall    HideDialogItem/HideDItem
00004F56  7A05                     moveq.l    D5, 0x05
00004F58  6000 008E                bra        +0x90 /* 00004FE8 */
label00004F5C:
00004F5C  5340                     subq.w     D0, 1
00004F5E  6700 FEB2                beq        -0x14C /* 00004E12 */
00004F62  5340                     subq.w     D0, 1
00004F64  6700 FEAC                beq        -0x152 /* 00004E12 */
00004F68  5540                     subq.w     D0, 2
00004F6A  6700 FED6                beq        -0x128 /* 00004E42 */
00004F6E  5340                     subq.w     D0, 1
00004F70  6700 FED0                beq        -0x12E /* 00004E42 */
00004F74  5340                     subq.w     D0, 1
00004F76  6700 FECA                beq        -0x134 /* 00004E42 */
00004F7A  5540                     subq.w     D0, 2
00004F7C  6700 FEF6                beq        -0x108 /* 00004E74 */
00004F80  5340                     subq.w     D0, 1
00004F82  6700 FEF0                beq        -0x10E /* 00004E74 */
00004F86  5340                     subq.w     D0, 1
00004F88  6700 FF2A                beq        -0xD4 /* 00004EB4 */
00004F8C  0640 FFF7                addi.w     D0, 0xFFF7
00004F90  6700 FEB0                beq        -0x14E /* 00004E42 */
00004F94  0640 FFF3                addi.w     D0, 0xFFF3
00004F98  6700 FF78                beq        -0x86 /* 00004F12 */
00004F9C  5340                     subq.w     D0, 1
00004F9E  6700 FF72                beq        -0x8C /* 00004F12 */
00004FA2  5540                     subq.w     D0, 2
00004FA4  6700 FF6C                beq        -0x92 /* 00004F12 */
00004FA8  5540                     subq.w     D0, 2
00004FAA  6700 FE96                beq        -0x168 /* 00004E42 */
00004FAE  5940                     subq.w     D0, 4
00004FB0  6700 FE90                beq        -0x16E /* 00004E42 */
00004FB4  5740                     subq.w     D0, 3
00004FB6  6700 FEBC                beq        -0x142 /* 00004E74 */
00004FBA  5340                     subq.w     D0, 1
00004FBC  6700 FEB6                beq        -0x148 /* 00004E74 */
00004FC0  2F2E FFE6                move.l     -[A7], [A6 - 0x1A]
00004FC4  3F3C 0005                move.w     -[A7], 0x5
00004FC8  A827                     syscall    HideDialogItem/HideDItem
00004FCA  2F2E FFE6                move.l     -[A7], [A6 - 0x1A]
00004FCE  3F3C 000E                move.w     -[A7], 0xE
00004FD2  A827                     syscall    HideDialogItem/HideDItem
00004FD4  2F2E FFE6                move.l     -[A7], [A6 - 0x1A]
00004FD8  3F3C 0006                move.w     -[A7], 0x6
00004FDC  A827                     syscall    HideDialogItem/HideDItem
00004FDE  2F2E FFE6                move.l     -[A7], [A6 - 0x1A]
00004FE2  3F3C 000F                move.w     -[A7], 0xF
00004FE6  A827                     syscall    HideDialogItem/HideDItem
label00004FE8:
00004FE8  302E FEB0                move.w     D0, [A6 - 0x150]
00004FEC  6000 026C                bra        +0x26E /* 0000525A */
00004FF0  3F3C 0007                move.w     -[A7], 0x7
00004FF4  3F2E FEBA                move.w     -[A7], [A6 - 0x146]
00004FF8  4227                     clr.b      -[A7]
00004FFA  2F0E                     move.l     -[A7], A6
00004FFC  4EBA FC7C                jsr        [PC - 0x384 /* 00004C7A */]
00005000  2F2E FFE6                move.l     -[A7], [A6 - 0x1A]
00005004  3F3C 0010                move.w     -[A7], 0x10
00005008  486E FFD4                pea.l      [A6 - 0x2C]
0000500C  486E FFC0                pea.l      [A6 - 0x40]
00005010  486E FFDE                pea.l      [A6 - 0x22]
00005014  A98D                     syscall    GetDialogItem/GetDItem
00005016  2F2E FFC0                move.l     -[A7], [A6 - 0x40]
0000501A  487A 0B14                pea.l      [PC + 0xB14 /* 00005B30, value 0x14526F6F, pstring "Room # connected to:" */]
0000501E  A98F                     syscall    SetDialogItemText/SetIText
00005020  7A07                     moveq.l    D5, 0x07
00005022  6000 02AE                bra        +0x2B0 /* 000052D2 */
00005026  302E FEB0                move.w     D0, [A6 - 0x150]
0000502A  6060                     bra        +0x62 /* 0000508C */
0000502C  3F3C 0007                move.w     -[A7], 0x7
00005030  302E FEB2                move.w     D0, [A6 - 0x14E]
00005034  906E FEBA                sub.w      D0, [A6 - 0x146]
00005038  3F00                     move.w     -[A7], D0
0000503A  4227                     clr.b      -[A7]
0000503C  2F0E                     move.l     -[A7], A6
0000503E  4EBA FC3A                jsr        [PC - 0x3C6 /* 00004C7A */]
00005042  6066                     bra        +0x68 /* 000050AA */
00005044  3F3C 0007                move.w     -[A7], 0x7
00005048  302E FEBA                move.w     D0, [A6 - 0x146]
0000504C  906E FEB6                sub.w      D0, [A6 - 0x14A]
00005050  3F00                     move.w     -[A7], D0
00005052  4227                     clr.b      -[A7]
00005054  2F0E                     move.l     -[A7], A6
00005056  4EBA FC22                jsr        [PC - 0x3DE /* 00004C7A */]
0000505A  604E                     bra        +0x50 /* 000050AA */
0000505C  3F3C 0007                move.w     -[A7], 0x7
00005060  302E FEB4                move.w     D0, [A6 - 0x14C]
00005064  906E FEBA                sub.w      D0, [A6 - 0x146]
00005068  3F00                     move.w     -[A7], D0
0000506A  4227                     clr.b      -[A7]
0000506C  2F0E                     move.l     -[A7], A6
0000506E  4EBA FC0A                jsr        [PC - 0x3F6 /* 00004C7A */]
00005072  6036                     bra        +0x38 /* 000050AA */
00005074  3F3C 0007                move.w     -[A7], 0x7
00005078  302E FEBA                move.w     D0, [A6 - 0x146]
0000507C  906E FEB8                sub.w      D0, [A6 - 0x148]
00005080  3F00                     move.w     -[A7], D0
00005082  4227                     clr.b      -[A7]
00005084  2F0E                     move.l     -[A7], A6
00005086  4EBA FBF2                jsr        [PC - 0x40E /* 00004C7A */]
0000508A  601E                     bra        +0x20 /* 000050AA */
label0000508C:
0000508C  5140                     subq.w     D0, 8
0000508E  0C40 0006                cmpi.w     D0, 0x6
00005092  6416                     bcc        +0x18 /* 000050AA */
00005094  D040                     add.w      D0, D0
00005096  303B 0006                move.w     D0, [PC + D0.w + 0x6]
0000509A  4EFB 0002                jmp        [PC + D0.w + 0x2]
0000509E  FF8E                     .invalid   <<F/6/7>>
000050A0  FFA6                     .invalid   <<F/6/7>>
000050A2  FFA6                     .invalid   <<F/6/7>>
000050A4  FF8E                     .invalid   <<F/6/7>>
000050A6  FFBE                     .invalid   <<F/6/7>>
000050A8  FFD6                     .invalid   <<F/7/7>>
label000050AA:
000050AA  2F2E FFE6                move.l     -[A7], [A6 - 0x1A]
000050AE  3F3C 0010                move.w     -[A7], 0x10
000050B2  486E FFD4                pea.l      [A6 - 0x2C]
000050B6  486E FFC0                pea.l      [A6 - 0x40]
000050BA  486E FFDE                pea.l      [A6 - 0x22]
000050BE  A98D                     syscall    GetDialogItem/GetDItem
000050C0  2F2E FFC0                move.l     -[A7], [A6 - 0x40]
000050C4  487A 0A54                pea.l      [PC + 0xA54 /* 00005B1A, value 0x154C656E, pstring "Length of air column:" */]
000050C8  A98F                     syscall    SetDialogItemText/SetIText
000050CA  0C6E 000A FEB0           cmpi.w     [A6 - 0x150], 0xA /* '\n' */
000050D0  6700 0200                beq        +0x202 /* 000052D2 */
000050D4  7A07                     moveq.l    D5, 0x07
000050D6  6000 01FA                bra        +0x1FC /* 000052D2 */
000050DA  302E FEB0                move.w     D0, [A6 - 0x150]
000050DE  6030                     bra        +0x32 /* 00005110 */
label000050E0:
000050E0  3F3C 0007                move.w     -[A7], 0x7
000050E4  302E FEB2                move.w     D0, [A6 - 0x14E]
000050E8  906E FEBA                sub.w      D0, [A6 - 0x146]
000050EC  3F00                     move.w     -[A7], D0
000050EE  4227                     clr.b      -[A7]
000050F0  2F0E                     move.l     -[A7], A6
000050F2  4EBA FB86                jsr        [PC - 0x47A /* 00004C7A */]
000050F6  602A                     bra        +0x2C /* 00005122 */
label000050F8:
000050F8  3F3C 0007                move.w     -[A7], 0x7
000050FC  302E FEBA                move.w     D0, [A6 - 0x146]
00005100  906E FEB6                sub.w      D0, [A6 - 0x14A]
00005104  3F00                     move.w     -[A7], D0
00005106  4227                     clr.b      -[A7]
00005108  2F0E                     move.l     -[A7], A6
0000510A  4EBA FB6E                jsr        [PC - 0x492 /* 00004C7A */]
0000510E  6012                     bra        +0x14 /* 00005122 */
label00005110:
00005110  0640 FFE0                addi.w     D0, 0xFFE0
00005114  67E2                     beq        -0x1C /* 000050F8 */
00005116  5340                     subq.w     D0, 1
00005118  67C6                     beq        -0x38 /* 000050E0 */
0000511A  5340                     subq.w     D0, 1
0000511C  67C2                     beq        -0x3C /* 000050E0 */
0000511E  5340                     subq.w     D0, 1
00005120  67BE                     beq        -0x40 /* 000050E0 */
label00005122:
00005122  2F2E FFE6                move.l     -[A7], [A6 - 0x1A]
00005126  3F3C 0010                move.w     -[A7], 0x10
0000512A  486E FFD4                pea.l      [A6 - 0x2C]
0000512E  486E FFC0                pea.l      [A6 - 0x40]
00005132  486E FFDE                pea.l      [A6 - 0x22]
00005136  A98D                     syscall    GetDialogItem/GetDItem
00005138  2F2E FFC0                move.l     -[A7], [A6 - 0x40]
0000513C  487A 09CA                pea.l      [PC + 0x9CA /* 00005B08, value 0x114C656E, pstring "Length of travel:" */]
00005140  A98F                     syscall    SetDialogItemText/SetIText
00005142  7A07                     moveq.l    D5, 0x07
00005144  6000 018C                bra        +0x18E /* 000052D2 */
00005148  3F3C 0007                move.w     -[A7], 0x7
0000514C  3F2E FEBA                move.w     -[A7], [A6 - 0x146]
00005150  4227                     clr.b      -[A7]
00005152  2F0E                     move.l     -[A7], A6
00005154  4EBA FB24                jsr        [PC - 0x4DC /* 00004C7A */]
00005158  2F2E FFE6                move.l     -[A7], [A6 - 0x1A]
0000515C  3F3C 0010                move.w     -[A7], 0x10
00005160  486E FFD4                pea.l      [A6 - 0x2C]
00005164  486E FFC0                pea.l      [A6 - 0x40]
00005168  486E FFDE                pea.l      [A6 - 0x22]
0000516C  A98D                     syscall    GetDialogItem/GetDItem
0000516E  2F2E FFC0                move.l     -[A7], [A6 - 0x40]
00005172  487A 0986                pea.l      [PC + 0x986 /* 00005AFA, value 0xD44656C '\rDel', pstring "Delay (1/60):" */]
00005176  A98F                     syscall    SetDialogItemText/SetIText
00005178  7A07                     moveq.l    D5, 0x07
0000517A  6000 0156                bra        +0x158 /* 000052D2 */
0000517E  3F3C 0007                move.w     -[A7], 0x7
00005182  3F2E FEBA                move.w     -[A7], [A6 - 0x146]
00005186  4227                     clr.b      -[A7]
00005188  2F0E                     move.l     -[A7], A6
0000518A  4EBA FAEE                jsr        [PC - 0x512 /* 00004C7A */]
0000518E  2F2E FFE6                move.l     -[A7], [A6 - 0x1A]
00005192  3F3C 0010                move.w     -[A7], 0x10
00005196  486E FFD4                pea.l      [A6 - 0x2C]
0000519A  486E FFC0                pea.l      [A6 - 0x40]
0000519E  486E FFDE                pea.l      [A6 - 0x22]
000051A2  A98D                     syscall    GetDialogItem/GetDItem
000051A4  2F2E FFC0                move.l     -[A7], [A6 - 0x40]
000051A8  487A 0940                pea.l      [PC + 0x940 /* 00005AEA, value 0xF506F69, pstring "Points awarded:" */]
000051AC  A98F                     syscall    SetDialogItemText/SetIText
000051AE  7A07                     moveq.l    D5, 0x07
000051B0  6000 0120                bra        +0x122 /* 000052D2 */
000051B4  3F3C 0007                move.w     -[A7], 0x7
000051B8  3F2E FEBA                move.w     -[A7], [A6 - 0x146]
000051BC  4227                     clr.b      -[A7]
000051BE  2F0E                     move.l     -[A7], A6
000051C0  4EBA FAB8                jsr        [PC - 0x548 /* 00004C7A */]
000051C4  2F2E FFE6                move.l     -[A7], [A6 - 0x1A]
000051C8  3F3C 0010                move.w     -[A7], 0x10
000051CC  486E FFD4                pea.l      [A6 - 0x2C]
000051D0  486E FFC0                pea.l      [A6 - 0x40]
000051D4  486E FFDE                pea.l      [A6 - 0x22]
000051D8  A98D                     syscall    GetDialogItem/GetDItem
000051DA  2F2E FFC0                move.l     -[A7], [A6 - 0x40]
000051DE  487A 0900                pea.l      [PC + 0x900 /* 00005AE0, value 0x9517561 '\tQua', pstring "Quantity:" */]
000051E2  A98F                     syscall    SetDialogItemText/SetIText
000051E4  7A07                     moveq.l    D5, 0x07
000051E6  6000 00EA                bra        +0xEC /* 000052D2 */
000051EA  3F3C 0007                move.w     -[A7], 0x7
000051EE  3F2E FEBA                move.w     -[A7], [A6 - 0x146]
000051F2  4227                     clr.b      -[A7]
000051F4  2F0E                     move.l     -[A7], A6
000051F6  4EBA FA82                jsr        [PC - 0x57E /* 00004C7A */]
000051FA  2F2E FFE6                move.l     -[A7], [A6 - 0x1A]
000051FE  3F3C 0010                move.w     -[A7], 0x10
00005202  486E FFD4                pea.l      [A6 - 0x2C]
00005206  486E FFC0                pea.l      [A6 - 0x40]
0000520A  486E FFDE                pea.l      [A6 - 0x22]
0000520E  A98D                     syscall    GetDialogItem/GetDItem
00005210  2F2E FFC0                move.l     -[A7], [A6 - 0x40]
00005214  487A 08B6                pea.l      [PC + 0x8B6 /* 00005ACC, value 0x134F626A, pstring "Object # linked to:" */]
00005218  A98F                     syscall    SetDialogItemText/SetIText
0000521A  7A07                     moveq.l    D5, 0x07
0000521C  6000 00B4                bra        +0xB6 /* 000052D2 */
00005220  3F3C 0007                move.w     -[A7], 0x7
00005224  302E FEBA                move.w     D0, [A6 - 0x146]
00005228  906E FEB8                sub.w      D0, [A6 - 0x148]
0000522C  3F00                     move.w     -[A7], D0
0000522E  4227                     clr.b      -[A7]
00005230  2F0E                     move.l     -[A7], A6
00005232  4EBA FA46                jsr        [PC - 0x5BA /* 00004C7A */]
00005236  2F2E FFE6                move.l     -[A7], [A6 - 0x1A]
0000523A  3F3C 0010                move.w     -[A7], 0x10
0000523E  486E FFD4                pea.l      [A6 - 0x2C]
00005242  486E FFC0                pea.l      [A6 - 0x40]
00005246  486E FFDE                pea.l      [A6 - 0x22]
0000524A  A98D                     syscall    GetDialogItem/GetDItem
0000524C  2F2E FFC0                move.l     -[A7], [A6 - 0x40]
00005250  487A 0868                pea.l      [PC + 0x868 /* 00005ABA, value 0x104C656E, pstring "Length of spill:" */]
00005254  A98F                     syscall    SetDialogItemText/SetIText
00005256  7A07                     moveq.l    D5, 0x07
00005258  6078                     bra        +0x7A /* 000052D2 */
label0000525A:
0000525A  5B40                     subq.w     D0, 5
0000525C  0C40 0029                cmpi.w     D0, 0x29 /* ')' */
00005260  645C                     bcc        +0x5E /* 000052BE */
00005262  D040                     add.w      D0, D0
00005264  303B 0006                move.w     D0, [PC + D0.w + 0x6]
00005268  4EFB 0002                jmp        [PC + D0.w + 0x2]
0000526C  FD84                     .invalid   <<F/6/6>>
0000526E  0052 0052                ori.w      [A2], 0x52 /* 'R' */
00005272  FDBA                     .invalid   <<F/6/6>>
00005274  FDBA                     .invalid   <<F/6/6>>
00005276  FDBA                     .invalid   <<F/6/6>>
00005278  FDBA                     .invalid   <<F/6/6>>
0000527A  FDBA                     .invalid   <<F/6/6>>
0000527C  FDBA                     .invalid   <<F/6/6>>
0000527E  0052 0052                ori.w      [A2], 0x52 /* 'R' */
00005282  FF12                     .extension 0xF12 <<F/4-5/7>> // unimplemented
00005284  FF12                     .extension 0xF12 <<F/4-5/7>> // unimplemented
00005286  FFB4                     .invalid   <<F/6/7>>
00005288  FF12                     .extension 0xF12 <<F/4-5/7>> // unimplemented
0000528A  FF48                     .extension 0xF48 <<F/4-5/7>> // unimplemented
0000528C  FF48                     .extension 0xF48 <<F/4-5/7>> // unimplemented
0000528E  0052 0052                ori.w      [A2], 0x52 /* 'R' */
00005292  0052 FEDC                ori.w      [A2], 0xFEDC
00005296  0052 0052                ori.w      [A2], 0x52 /* 'R' */
0000529A  FF7E                     .extension 0xF7E <<F/4-5/7>> // unimplemented
0000529C  0052 0052                ori.w      [A2], 0x52 /* 'R' */
000052A0  0052 FE6E                ori.w      [A2], 0xFE6E
000052A4  FE6E FE6E                .extension 0xE6E <<F/1/7>>, 0xFE6E // unimplemented
000052A8  FE6E FEDC                .extension 0xE6E <<F/1/7>>, 0xFEDC // unimplemented
000052AC  0052 0052                ori.w      [A2], 0x52 /* 'R' */
000052B0  0052 0052                ori.w      [A2], 0x52 /* 'R' */
000052B4  0052 0052                ori.w      [A2], 0x52 /* 'R' */
000052B8  0052 FD84                ori.w      [A2], 0xFD84
000052BC  FD84                     .invalid   <<F/6/6>>
label000052BE:
000052BE  2F2E FFE6                move.l     -[A7], [A6 - 0x1A]
000052C2  3F3C 0007                move.w     -[A7], 0x7
000052C6  A827                     syscall    HideDialogItem/HideDItem
000052C8  2F2E FFE6                move.l     -[A7], [A6 - 0x1A]
000052CC  3F3C 0010                move.w     -[A7], 0x10
000052D0  A827                     syscall    HideDialogItem/HideDItem
label000052D2:
000052D2  302E FEB0                move.w     D0, [A6 - 0x150]
000052D6  6000 011C                bra        +0x11E /* 000053F4 */
label000052DA:
000052DA  4A2E FEBE                tst.b      [A6 - 0x142]
000052DE  6718                     beq        +0x1A /* 000052F8 */
000052E0  2F2E FFE6                move.l     -[A7], [A6 - 0x1A]
000052E4  3F3C 0008                move.w     -[A7], 0x8
000052E8  486E FFD4                pea.l      [A6 - 0x2C]
000052EC  486E FFC0                pea.l      [A6 - 0x40]
000052F0  486E FFDE                pea.l      [A6 - 0x22]
000052F4  A98D                     syscall    GetDialogItem/GetDItem
000052F6  6016                     bra        +0x18 /* 0000530E */
label000052F8:
000052F8  2F2E FFE6                move.l     -[A7], [A6 - 0x1A]
000052FC  3F3C 0009                move.w     -[A7], 0x9 /* '\t' */
00005300  486E FFD4                pea.l      [A6 - 0x2C]
00005304  486E FFC0                pea.l      [A6 - 0x40]
00005308  486E FFDE                pea.l      [A6 - 0x22]
0000530C  A98D                     syscall    GetDialogItem/GetDItem
label0000530E:
0000530E  2F2E FFC0                move.l     -[A7], [A6 - 0x40]
00005312  3F3C 0001                move.w     -[A7], 0x1
00005316  A963                     syscall    SetControlValue/SetCtlValue
00005318  0C6E 000A FEB0           cmpi.w     [A6 - 0x150], 0xA /* '\n' */
0000531E  6640                     bne        +0x42 /* 00005360 */
00005320  2F2E FFE6                move.l     -[A7], [A6 - 0x1A]
00005324  3F3C 0008                move.w     -[A7], 0x8
00005328  486E FFD4                pea.l      [A6 - 0x2C]
0000532C  486E FFC0                pea.l      [A6 - 0x40]
00005330  486E FFDE                pea.l      [A6 - 0x22]
00005334  A98D                     syscall    GetDialogItem/GetDItem
00005336  2F2E FFC0                move.l     -[A7], [A6 - 0x40]
0000533A  487A 0776                pea.l      [PC + 0x776 /* 00005AB2, value 0x6426C6F, pstring "Blower" */]
0000533E  A95F                     syscall    SetControlTitle/SetCTitle
00005340  2F2E FFE6                move.l     -[A7], [A6 - 0x1A]
00005344  3F3C 0009                move.w     -[A7], 0x9 /* '\t' */
00005348  486E FFD4                pea.l      [A6 - 0x2C]
0000534C  486E FFC0                pea.l      [A6 - 0x40]
00005350  486E FFDE                pea.l      [A6 - 0x22]
00005354  A98D                     syscall    GetDialogItem/GetDItem
00005356  2F2E FFC0                move.l     -[A7], [A6 - 0x40]
0000535A  487A 074E                pea.l      [PC + 0x74E /* 00005AAA, value 0x7537563, pstring "Suction" */]
0000535E  A95F                     syscall    SetControlTitle/SetCTitle
label00005360:
00005360  0C6E 0012 FEB0           cmpi.w     [A6 - 0x150], 0x12
00005366  6640                     bne        +0x42 /* 000053A8 */
00005368  2F2E FFE6                move.l     -[A7], [A6 - 0x1A]
0000536C  3F3C 0008                move.w     -[A7], 0x8
00005370  486E FFD4                pea.l      [A6 - 0x2C]
00005374  486E FFC0                pea.l      [A6 - 0x40]
00005378  486E FFDE                pea.l      [A6 - 0x22]
0000537C  A98D                     syscall    GetDialogItem/GetDItem
0000537E  2F2E FFC0                move.l     -[A7], [A6 - 0x40]
00005382  487A 0722                pea.l      [PC + 0x722 /* 00005AA6, value 0x2557016, pstring "Up" */]
00005386  A95F                     syscall    SetControlTitle/SetCTitle
00005388  2F2E FFE6                move.l     -[A7], [A6 - 0x1A]
0000538C  3F3C 0009                move.w     -[A7], 0x9 /* '\t' */
00005390  486E FFD4                pea.l      [A6 - 0x2C]
00005394  486E FFC0                pea.l      [A6 - 0x40]
00005398  486E FFDE                pea.l      [A6 - 0x22]
0000539C  A98D                     syscall    GetDialogItem/GetDItem
0000539E  2F2E FFC0                move.l     -[A7], [A6 - 0x40]
000053A2  487A 06FA                pea.l      [PC + 0x6FA /* 00005A9E, value 0x7537069, pstring "Spilled" */]
000053A6  A95F                     syscall    SetControlTitle/SetCTitle
label000053A8:
000053A8  0C6E 0025 FEB0           cmpi.w     [A6 - 0x150], 0x25 /* '%' */
000053AE  6600 0082                bne        +0x84 /* 00005432 */
000053B2  2F2E FFE6                move.l     -[A7], [A6 - 0x1A]
000053B6  3F3C 0008                move.w     -[A7], 0x8
000053BA  486E FFD4                pea.l      [A6 - 0x2C]
000053BE  486E FFC0                pea.l      [A6 - 0x40]
000053C2  486E FFDE                pea.l      [A6 - 0x22]
000053C6  A98D                     syscall    GetDialogItem/GetDItem
000053C8  2F2E FFC0                move.l     -[A7], [A6 - 0x40]
000053CC  487A 06C4                pea.l      [PC + 0x6C4 /* 00005A92, value 0xB57696E, pstring "Window Open" */]
000053D0  A95F                     syscall    SetControlTitle/SetCTitle
000053D2  2F2E FFE6                move.l     -[A7], [A6 - 0x1A]
000053D6  3F3C 0009                move.w     -[A7], 0x9 /* '\t' */
000053DA  486E FFD4                pea.l      [A6 - 0x2C]
000053DE  486E FFC0                pea.l      [A6 - 0x40]
000053E2  486E FFDE                pea.l      [A6 - 0x22]
000053E6  A98D                     syscall    GetDialogItem/GetDItem
000053E8  2F2E FFC0                move.l     -[A7], [A6 - 0x40]
000053EC  487A 0696                pea.l      [PC + 0x696 /* 00005A84, value 0xD57696E '\rWin', pstring "Window Closed" */]
000053F0  A95F                     syscall    SetControlTitle/SetCTitle
000053F2  603E                     bra        +0x40 /* 00005432 */
label000053F4:
000053F4  0640 FFF6                addi.w     D0, 0xFFF6
000053F8  6700 FEE0                beq        -0x11E /* 000052DA */
000053FC  5540                     subq.w     D0, 2
000053FE  6700 FEDA                beq        -0x124 /* 000052DA */
00005402  5340                     subq.w     D0, 1
00005404  6700 FED4                beq        -0x12A /* 000052DA */
00005408  5B40                     subq.w     D0, 5
0000540A  6700 FECE                beq        -0x130 /* 000052DA */
0000540E  0640 FFF7                addi.w     D0, 0xFFF7
00005412  6700 FEC6                beq        -0x138 /* 000052DA */
00005416  0640 FFF6                addi.w     D0, 0xFFF6
0000541A  6700 FEBE                beq        -0x140 /* 000052DA */
0000541E  2F2E FFE6                move.l     -[A7], [A6 - 0x1A]
00005422  3F3C 0008                move.w     -[A7], 0x8
00005426  A827                     syscall    HideDialogItem/HideDItem
00005428  2F2E FFE6                move.l     -[A7], [A6 - 0x1A]
0000542C  3F3C 0009                move.w     -[A7], 0x9 /* '\t' */
00005430  A827                     syscall    HideDialogItem/HideDItem
label00005432:
00005432  2F2E FFE6                move.l     -[A7], [A6 - 0x1A]
00005436  3F05                     move.w     -[A7], D5
00005438  4267                     clr.w      -[A7]
0000543A  3F3C 00FE                move.w     -[A7], 0xFE
0000543E  A97E                     syscall    SelectDialogItemText/SelIText
00005440  2F0E                     move.l     -[A7], A6
00005442  4EBA F892                jsr        [PC - 0x76E /* 00004CD6 */]
00005446  4206                     clr.b      D6
label00005448:
00005448  42A7                     clr.l      -[A7]
0000544A  486E FFD2                pea.l      [A6 - 0x2E]
0000544E  A991                     syscall    ModalDialog
00005450  2F2E FFE6                move.l     -[A7], [A6 - 0x1A]
00005454  3F2E FFD2                move.w     -[A7], [A6 - 0x2E]
00005458  486E FFD4                pea.l      [A6 - 0x2C]
0000545C  486E FFC0                pea.l      [A6 - 0x40]
00005460  486E FFDE                pea.l      [A6 - 0x22]
00005464  A98D                     syscall    GetDialogItem/GetDItem
00005466  0C6E 0001 FFD2           cmpi.w     [A6 - 0x2E], 0x1
0000546C  6600 054A                bne        +0x54C /* 000059B8 */
00005470  7C01                     moveq.l    D6, 0x01
00005472  554F                     subq.w     A7, 2
00005474  3F3C 0003                move.w     -[A7], 0x3
00005478  2F0E                     move.l     -[A7], A6
0000547A  4EBA F7B8                jsr        [PC - 0x848 /* 00004C34 */]
0000547E  3E1F                     move.w     D7, [A7]+
00005480  4A47                     tst.w      D7
00005482  6C1A                     bge        +0x1C /* 0000549E */
00005484  3F3C 0001                move.w     -[A7], 0x1
00005488  A9C8                     syscall    SysBeep
0000548A  3F3C 0003                move.w     -[A7], 0x3
0000548E  4267                     clr.w      -[A7]
00005490  1F3C 0001                move.b     -[A7], 0x1
00005494  2F0E                     move.l     -[A7], A6
00005496  4EBA F7E2                jsr        [PC - 0x81E /* 00004C7A */]
0000549A  4206                     clr.b      D6
0000549C  6050                     bra        +0x52 /* 000054EE */
label0000549E:
0000549E  302E FEB8                move.w     D0, [A6 - 0x148]
000054A2  906E FEB4                sub.w      D0, [A6 - 0x14C]
000054A6  D047                     add.w      D0, D7
000054A8  0C40 0200                cmpi.w     D0, 0x200
000054AC  6F28                     ble        +0x2A /* 000054D6 */
000054AE  3F3C 0001                move.w     -[A7], 0x1
000054B2  A9C8                     syscall    SysBeep
000054B4  3F3C 0003                move.w     -[A7], 0x3
000054B8  302E FEB8                move.w     D0, [A6 - 0x148]
000054BC  906E FEB4                sub.w      D0, [A6 - 0x14C]
000054C0  323C 0200                move.w     D1, 0x200
000054C4  9240                     sub.w      D1, D0
000054C6  3F01                     move.w     -[A7], D1
000054C8  1F3C 0001                move.b     -[A7], 0x1
000054CC  2F0E                     move.l     -[A7], A6
000054CE  4EBA F7AA                jsr        [PC - 0x856 /* 00004C7A */]
000054D2  4206                     clr.b      D6
000054D4  6018                     bra        +0x1A /* 000054EE */
label000054D6:
000054D6  9E6E FEB4                sub.w      D7, [A6 - 0x14C]
000054DA  302E FEB4                move.w     D0, [A6 - 0x14C]
000054DE  D047                     add.w      D0, D7
000054E0  3D40 FEB4                move.w     [A6 - 0x14C], D0
000054E4  302E FEB8                move.w     D0, [A6 - 0x148]
000054E8  D047                     add.w      D0, D7
000054EA  3D40 FEB8                move.w     [A6 - 0x148], D0
label000054EE:
000054EE  302E FEB0                move.w     D0, [A6 - 0x150]
000054F2  6000 0086                bra        +0x88 /* 0000557A */
label000054F6:
000054F6  554F                     subq.w     A7, 2
000054F8  3F3C 0004                move.w     -[A7], 0x4
000054FC  2F0E                     move.l     -[A7], A6
000054FE  4EBA F734                jsr        [PC - 0x8CC /* 00004C34 */]
00005502  3E1F                     move.w     D7, [A7]+
00005504  0C47 0018                cmpi.w     D7, 0x18
00005508  6C1E                     bge        +0x20 /* 00005528 */
0000550A  3F3C 0001                move.w     -[A7], 0x1
0000550E  A9C8                     syscall    SysBeep
00005510  3F3C 0004                move.w     -[A7], 0x4
00005514  3F3C 0018                move.w     -[A7], 0x18
00005518  1F3C 0001                move.b     -[A7], 0x1
0000551C  2F0E                     move.l     -[A7], A6
0000551E  4EBA F75A                jsr        [PC - 0x8A6 /* 00004C7A */]
00005522  4206                     clr.b      D6
00005524  6000 006A                bra        +0x6C /* 00005590 */
label00005528:
00005528  302E FEB6                move.w     D0, [A6 - 0x14A]
0000552C  906E FEB2                sub.w      D0, [A6 - 0x14E]
00005530  D047                     add.w      D0, D7
00005532  0C40 0145                cmpi.w     D0, 0x145
00005536  6F28                     ble        +0x2A /* 00005560 */
00005538  3F3C 0001                move.w     -[A7], 0x1
0000553C  A9C8                     syscall    SysBeep
0000553E  3F3C 0004                move.w     -[A7], 0x4
00005542  302E FEB6                move.w     D0, [A6 - 0x14A]
00005546  906E FEB2                sub.w      D0, [A6 - 0x14E]
0000554A  323C 0145                move.w     D1, 0x145
0000554E  9240                     sub.w      D1, D0
00005550  3F01                     move.w     -[A7], D1
00005552  1F3C 0001                move.b     -[A7], 0x1
00005556  2F0E                     move.l     -[A7], A6
00005558  4EBA F720                jsr        [PC - 0x8E0 /* 00004C7A */]
0000555C  4206                     clr.b      D6
0000555E  6030                     bra        +0x32 /* 00005590 */
label00005560:
00005560  9E6E FEB2                sub.w      D7, [A6 - 0x14E]
00005564  302E FEB2                move.w     D0, [A6 - 0x14E]
00005568  D047                     add.w      D0, D7
0000556A  3D40 FEB2                move.w     [A6 - 0x14E], D0
0000556E  302E FEB6                move.w     D0, [A6 - 0x14A]
00005572  D047                     add.w      D0, D7
00005574  3D40 FEB6                move.w     [A6 - 0x14A], D0
00005578  6016                     bra        +0x18 /* 00005590 */
label0000557A:
0000557A  5340                     subq.w     D0, 1
0000557C  6B12                     bmi        +0x14 /* 00005590 */
0000557E  5B40                     subq.w     D0, 5
00005580  6F00 FF74                ble        -0x8A /* 000054F6 */
00005584  5B40                     subq.w     D0, 5
00005586  6B08                     bmi        +0xA /* 00005590 */
00005588  0640 FFE0                addi.w     D0, 0xFFE0
0000558C  6F00 FF68                ble        -0x96 /* 000054F6 */
label00005590:
00005590  302E FEB0                move.w     D0, [A6 - 0x150]
00005594  6068                     bra        +0x6A /* 000055FE */
label00005596:
00005596  554F                     subq.w     A7, 2
00005598  3F3C 0005                move.w     -[A7], 0x5
0000559C  2F0E                     move.l     -[A7], A6
0000559E  4EBA F694                jsr        [PC - 0x96C /* 00004C34 */]
000055A2  3E1F                     move.w     D7, [A7]+
000055A4  3007                     move.w     D0, D7
000055A6  D06E FEB4                add.w      D0, [A6 - 0x14C]
000055AA  0C40 0200                cmpi.w     D0, 0x200
000055AE  5EC0                     sgt        D0
000055B0  4A47                     tst.w      D7
000055B2  5DC1                     slt        D1
000055B4  8001                     or.b       D0, D1
000055B6  673A                     beq        +0x3C /* 000055F2 */
000055B8  3F3C 0001                move.w     -[A7], 0x1
000055BC  A9C8                     syscall    SysBeep
000055BE  4A47                     tst.w      D7
000055C0  6C14                     bge        +0x16 /* 000055D6 */
000055C2  3F3C 0005                move.w     -[A7], 0x5
000055C6  3F3C 0010                move.w     -[A7], 0x10
000055CA  1F3C 0001                move.b     -[A7], 0x1
000055CE  2F0E                     move.l     -[A7], A6
000055D0  4EBA F6A8                jsr        [PC - 0x958 /* 00004C7A */]
000055D4  6018                     bra        +0x1A /* 000055EE */
label000055D6:
000055D6  3F3C 0005                move.w     -[A7], 0x5
000055DA  303C 0200                move.w     D0, 0x200
000055DE  906E FEB4                sub.w      D0, [A6 - 0x14C]
000055E2  3F00                     move.w     -[A7], D0
000055E4  1F3C 0001                move.b     -[A7], 0x1
000055E8  2F0E                     move.l     -[A7], A6
000055EA  4EBA F68E                jsr        [PC - 0x972 /* 00004C7A */]
label000055EE:
000055EE  4206                     clr.b      D6
000055F0  6036                     bra        +0x38 /* 00005628 */
label000055F2:
000055F2  302E FEB4                move.w     D0, [A6 - 0x14C]
000055F6  D047                     add.w      D0, D7
000055F8  3D40 FEB8                move.w     [A6 - 0x148], D0
000055FC  602A                     bra        +0x2C /* 00005628 */
label000055FE:
000055FE  5340                     subq.w     D0, 1
00005600  6794                     beq        -0x6A /* 00005596 */
00005602  5340                     subq.w     D0, 1
00005604  6790                     beq        -0x6E /* 00005596 */
00005606  5540                     subq.w     D0, 2
00005608  678C                     beq        -0x72 /* 00005596 */
0000560A  5340                     subq.w     D0, 1
0000560C  6788                     beq        -0x76 /* 00005596 */
0000560E  5340                     subq.w     D0, 1
00005610  6784                     beq        -0x7A /* 00005596 */
00005612  0640 FFF3                addi.w     D0, 0xFFF3
00005616  6700 FF7E                beq        -0x80 /* 00005596 */
0000561A  0640 FFEE                addi.w     D0, 0xFFEE
0000561E  6700 FF76                beq        -0x88 /* 00005596 */
00005622  5940                     subq.w     D0, 4
00005624  6700 FF70                beq        -0x8E /* 00005596 */
label00005628:
00005628  302E FEB0                move.w     D0, [A6 - 0x150]
0000562C  6068                     bra        +0x6A /* 00005696 */
label0000562E:
0000562E  554F                     subq.w     A7, 2
00005630  3F3C 0006                move.w     -[A7], 0x6
00005634  2F0E                     move.l     -[A7], A6
00005636  4EBA F5FC                jsr        [PC - 0xA04 /* 00004C34 */]
0000563A  3E1F                     move.w     D7, [A7]+
0000563C  302E FEB2                move.w     D0, [A6 - 0x14E]
00005640  D047                     add.w      D0, D7
00005642  0C40 0145                cmpi.w     D0, 0x145
00005646  5EC0                     sgt        D0
00005648  4A47                     tst.w      D7
0000564A  5DC1                     slt        D1
0000564C  8001                     or.b       D0, D1
0000564E  673A                     beq        +0x3C /* 0000568A */
00005650  3F3C 0001                move.w     -[A7], 0x1
00005654  A9C8                     syscall    SysBeep
00005656  4A47                     tst.w      D7
00005658  6C14                     bge        +0x16 /* 0000566E */
0000565A  3F3C 0006                move.w     -[A7], 0x6
0000565E  3F3C 0010                move.w     -[A7], 0x10
00005662  1F3C 0001                move.b     -[A7], 0x1
00005666  2F0E                     move.l     -[A7], A6
00005668  4EBA F610                jsr        [PC - 0x9F0 /* 00004C7A */]
0000566C  6018                     bra        +0x1A /* 00005686 */
label0000566E:
0000566E  3F3C 0006                move.w     -[A7], 0x6
00005672  303C 0145                move.w     D0, 0x145
00005676  906E FEB2                sub.w      D0, [A6 - 0x14E]
0000567A  3F00                     move.w     -[A7], D0
0000567C  1F3C 0001                move.b     -[A7], 0x1
00005680  2F0E                     move.l     -[A7], A6
00005682  4EBA F5F6                jsr        [PC - 0xA0A /* 00004C7A */]
label00005686:
00005686  4206                     clr.b      D6
00005688  602A                     bra        +0x2C /* 000056B4 */
label0000568A:
0000568A  302E FEB2                move.w     D0, [A6 - 0x14E]
0000568E  D047                     add.w      D0, D7
00005690  3D40 FEB6                move.w     [A6 - 0x14A], D0
00005694  601E                     bra        +0x20 /* 000056B4 */
label00005696:
00005696  5940                     subq.w     D0, 4
00005698  6794                     beq        -0x6A /* 0000562E */
0000569A  5340                     subq.w     D0, 1
0000569C  6790                     beq        -0x6E /* 0000562E */
0000569E  5340                     subq.w     D0, 1
000056A0  678C                     beq        -0x72 /* 0000562E */
000056A2  0640 FFF3                addi.w     D0, 0xFFF3
000056A6  6786                     beq        -0x78 /* 0000562E */
000056A8  0640 FFEE                addi.w     D0, 0xFFEE
000056AC  6780                     beq        -0x7E /* 0000562E */
000056AE  5940                     subq.w     D0, 4
000056B0  6700 FF7C                beq        -0x82 /* 0000562E */
label000056B4:
000056B4  302E FEB0                move.w     D0, [A6 - 0x150]
000056B8  6000 01E4                bra        +0x1E6 /* 0000589E */
000056BC  554F                     subq.w     A7, 2
000056BE  3F3C 0007                move.w     -[A7], 0x7
000056C2  2F0E                     move.l     -[A7], A6
000056C4  4EBA F56E                jsr        [PC - 0xA92 /* 00004C34 */]
000056C8  3E1F                     move.w     D7, [A7]+
000056CA  0C47 0001                cmpi.w     D7, 0x1
000056CE  5DC0                     slt        D0
000056D0  0C47 0050                cmpi.w     D7, 0x50 /* 'P' */
000056D4  5EC1                     sgt        D1
000056D6  8001                     or.b       D0, D1
000056D8  671E                     beq        +0x20 /* 000056F8 */
000056DA  3F3C 0001                move.w     -[A7], 0x1
000056DE  A9C8                     syscall    SysBeep
000056E0  3F3C 0007                move.w     -[A7], 0x7
000056E4  3F2D BB3A                move.w     -[A7], [A5 - 0x44C6]
000056E8  1F3C 0001                move.b     -[A7], 0x1
000056EC  2F0E                     move.l     -[A7], A6
000056EE  4EBA F58A                jsr        [PC - 0xA76 /* 00004C7A */]
000056F2  4206                     clr.b      D6
000056F4  6000 020C                bra        +0x20E /* 00005902 */
label000056F8:
000056F8  3D47 FEBA                move.w     [A6 - 0x146], D7
000056FC  6000 0204                bra        +0x206 /* 00005902 */
00005700  554F                     subq.w     A7, 2
00005702  3F3C 0007                move.w     -[A7], 0x7
00005706  2F0E                     move.l     -[A7], A6
00005708  4EBA F52A                jsr        [PC - 0xAD6 /* 00004C34 */]
0000570C  3E1F                     move.w     D7, [A7]+
0000570E  302E FEB2                move.w     D0, [A6 - 0x14E]
00005712  9047                     sub.w      D0, D7
00005714  0C40 0018                cmpi.w     D0, 0x18
00005718  6C24                     bge        +0x26 /* 0000573E */
0000571A  3F3C 0001                move.w     -[A7], 0x1
0000571E  A9C8                     syscall    SysBeep
00005720  3F3C 0007                move.w     -[A7], 0x7
00005724  302E FEB2                move.w     D0, [A6 - 0x14E]
00005728  0640 FFE8                addi.w     D0, 0xFFE8
0000572C  3F00                     move.w     -[A7], D0
0000572E  1F3C 0001                move.b     -[A7], 0x1
00005732  2F0E                     move.l     -[A7], A6
00005734  4EBA F544                jsr        [PC - 0xABC /* 00004C7A */]
00005738  4206                     clr.b      D6
0000573A  6000 01C6                bra        +0x1C8 /* 00005902 */
label0000573E:
0000573E  302E FEB2                move.w     D0, [A6 - 0x14E]
00005742  9047                     sub.w      D0, D7
00005744  3D40 FEBA                move.w     [A6 - 0x146], D0
00005748  6000 01B8                bra        +0x1BA /* 00005902 */
0000574C  554F                     subq.w     A7, 2
0000574E  3F3C 0007                move.w     -[A7], 0x7
00005752  2F0E                     move.l     -[A7], A6
00005754  4EBA F4DE                jsr        [PC - 0xB22 /* 00004C34 */]
00005758  3E1F                     move.w     D7, [A7]+
0000575A  302E FEB6                move.w     D0, [A6 - 0x14A]
0000575E  D047                     add.w      D0, D7
00005760  0C40 0145                cmpi.w     D0, 0x145
00005764  6F24                     ble        +0x26 /* 0000578A */
00005766  3F3C 0001                move.w     -[A7], 0x1
0000576A  A9C8                     syscall    SysBeep
0000576C  3F3C 0007                move.w     -[A7], 0x7
00005770  303C 0145                move.w     D0, 0x145
00005774  906E FEB6                sub.w      D0, [A6 - 0x14A]
00005778  3F00                     move.w     -[A7], D0
0000577A  1F3C 0001                move.b     -[A7], 0x1
0000577E  2F0E                     move.l     -[A7], A6
00005780  4EBA F4F8                jsr        [PC - 0xB08 /* 00004C7A */]
00005784  4206                     clr.b      D6
00005786  6000 017A                bra        +0x17C /* 00005902 */
label0000578A:
0000578A  302E FEB6                move.w     D0, [A6 - 0x14A]
0000578E  D047                     add.w      D0, D7
00005790  3D40 FEBA                move.w     [A6 - 0x146], D0
00005794  6000 016C                bra        +0x16E /* 00005902 */
00005798  554F                     subq.w     A7, 2
0000579A  3F3C 0007                move.w     -[A7], 0x7
0000579E  2F0E                     move.l     -[A7], A6
000057A0  4EBA F492                jsr        [PC - 0xB6E /* 00004C34 */]
000057A4  3E1F                     move.w     D7, [A7]+
000057A6  302E FEB4                move.w     D0, [A6 - 0x14C]
000057AA  9047                     sub.w      D0, D7
000057AC  4A40                     tst.w      D0
000057AE  6C1E                     bge        +0x20 /* 000057CE */
000057B0  3F3C 0001                move.w     -[A7], 0x1
000057B4  A9C8                     syscall    SysBeep
000057B6  3F3C 0007                move.w     -[A7], 0x7
000057BA  3F2E FEB4                move.w     -[A7], [A6 - 0x14C]
000057BE  1F3C 0001                move.b     -[A7], 0x1
000057C2  2F0E                     move.l     -[A7], A6
000057C4  4EBA F4B4                jsr        [PC - 0xB4C /* 00004C7A */]
000057C8  4206                     clr.b      D6
000057CA  6000 0136                bra        +0x138 /* 00005902 */
label000057CE:
000057CE  302E FEB4                move.w     D0, [A6 - 0x14C]
000057D2  9047                     sub.w      D0, D7
000057D4  3D40 FEBA                move.w     [A6 - 0x146], D0
000057D8  6000 0128                bra        +0x12A /* 00005902 */
000057DC  554F                     subq.w     A7, 2
000057DE  3F3C 0007                move.w     -[A7], 0x7
000057E2  2F0E                     move.l     -[A7], A6
000057E4  4EBA F44E                jsr        [PC - 0xBB2 /* 00004C34 */]
000057E8  3E1F                     move.w     D7, [A7]+
000057EA  302E FEB8                move.w     D0, [A6 - 0x148]
000057EE  D047                     add.w      D0, D7
000057F0  0C40 0200                cmpi.w     D0, 0x200
000057F4  6F24                     ble        +0x26 /* 0000581A */
000057F6  3F3C 0001                move.w     -[A7], 0x1
000057FA  A9C8                     syscall    SysBeep
000057FC  3F3C 0007                move.w     -[A7], 0x7
00005800  303C 0200                move.w     D0, 0x200
00005804  906E FEB8                sub.w      D0, [A6 - 0x148]
00005808  3F00                     move.w     -[A7], D0
0000580A  1F3C 0001                move.b     -[A7], 0x1
0000580E  2F0E                     move.l     -[A7], A6
00005810  4EBA F468                jsr        [PC - 0xB98 /* 00004C7A */]
00005814  4206                     clr.b      D6
00005816  6000 00EA                bra        +0xEC /* 00005902 */
label0000581A:
0000581A  302E FEB8                move.w     D0, [A6 - 0x148]
0000581E  D047                     add.w      D0, D7
00005820  3D40 FEBA                move.w     [A6 - 0x146], D0
00005824  6000 00DC                bra        +0xDE /* 00005902 */
00005828  554F                     subq.w     A7, 2
0000582A  3F3C 0007                move.w     -[A7], 0x7
0000582E  2F0E                     move.l     -[A7], A6
00005830  4EBA F402                jsr        [PC - 0xBFE /* 00004C34 */]
00005834  3E1F                     move.w     D7, [A7]+
00005836  4A47                     tst.w      D7
00005838  6C20                     bge        +0x22 /* 0000585A */
0000583A  3F3C 0001                move.w     -[A7], 0x1
0000583E  A9C8                     syscall    SysBeep
00005840  3F3C 0007                move.w     -[A7], 0x7
00005844  3007                     move.w     D0, D7
00005846  4440                     neg.w      D0
00005848  3F00                     move.w     -[A7], D0
0000584A  1F3C 0001                move.b     -[A7], 0x1
0000584E  2F0E                     move.l     -[A7], A6
00005850  4EBA F428                jsr        [PC - 0xBD8 /* 00004C7A */]
00005854  4206                     clr.b      D6
00005856  6000 00AA                bra        +0xAC /* 00005902 */
label0000585A:
0000585A  3D47 FEBA                move.w     [A6 - 0x146], D7
0000585E  6000 00A2                bra        +0xA4 /* 00005902 */
00005862  554F                     subq.w     A7, 2
00005864  3F3C 0007                move.w     -[A7], 0x7
00005868  2F0E                     move.l     -[A7], A6
0000586A  4EBA F3C8                jsr        [PC - 0xC38 /* 00004C34 */]
0000586E  3E1F                     move.w     D7, [A7]+
00005870  4A47                     tst.w      D7
00005872  5DC0                     slt        D0
00005874  0C47 0010                cmpi.w     D7, 0x10
00005878  5EC1                     sgt        D1
0000587A  8001                     or.b       D0, D1
0000587C  671A                     beq        +0x1C /* 00005898 */
0000587E  3F3C 0001                move.w     -[A7], 0x1
00005882  A9C8                     syscall    SysBeep
00005884  3F3C 0007                move.w     -[A7], 0x7
00005888  4267                     clr.w      -[A7]
0000588A  1F3C 0001                move.b     -[A7], 0x1
0000588E  2F0E                     move.l     -[A7], A6
00005890  4EBA F3E8                jsr        [PC - 0xC18 /* 00004C7A */]
00005894  4206                     clr.b      D6
00005896  606A                     bra        +0x6C /* 00005902 */
label00005898:
00005898  3D47 FEBA                move.w     [A6 - 0x146], D7
0000589C  6064                     bra        +0x66 /* 00005902 */
label0000589E:
0000589E  5B40                     subq.w     D0, 5
000058A0  0C40 0029                cmpi.w     D0, 0x29 /* ')' */
000058A4  645C                     bcc        +0x5E /* 00005902 */
000058A6  D040                     add.w      D0, D0
000058A8  303B 0006                move.w     D0, [PC + D0.w + 0x6]
000058AC  4EFB 0002                jmp        [PC + D0.w + 0x2]
000058B0  FE0C 0052                .unknown   0xFE0C 0x0052 (W = 7)
000058B4  0052 FE50                ori.w      [A2], 0xFE50
000058B8  FE9C FE9C                .extension 0xE9C <<F/2-3/7>> // unimplemented
000058BC  FE50 FEE8                .extension 0xE50 <<F/1/7>>, 0xFEE8 // unimplemented
000058C0  FF2C                     .extension 0xF2C <<F/4-5/7>> // unimplemented
000058C2  0052 0052                ori.w      [A2], 0x52 /* 'R' */
000058C6  FF78                     .extension 0xF78 <<F/4-5/7>> // unimplemented
000058C8  FF78                     .extension 0xF78 <<F/4-5/7>> // unimplemented
000058CA  FF2C                     .extension 0xF2C <<F/4-5/7>> // unimplemented
000058CC  FF78                     .extension 0xF78 <<F/4-5/7>> // unimplemented
000058CE  FF78                     .extension 0xF78 <<F/4-5/7>> // unimplemented
000058D0  FF78                     .extension 0xF78 <<F/4-5/7>> // unimplemented
000058D2  0052 0052                ori.w      [A2], 0x52 /* 'R' */
000058D6  0052 FF78                ori.w      [A2], 0xFF78
000058DA  0052 0052                ori.w      [A2], 0x52 /* 'R' */
000058DE  FFB2                     .invalid   <<F/6/7>>
000058E0  0052 0052                ori.w      [A2], 0x52 /* 'R' */
000058E4  0052 FE9C                ori.w      [A2], 0xFE9C
000058E8  FE50 FE50                .extension 0xE50 <<F/1/7>>, 0xFE50 // unimplemented
000058EC  FE50 FF78                .extension 0xE50 <<F/1/7>>, 0xFF78 // unimplemented
000058F0  0052 0052                ori.w      [A2], 0x52 /* 'R' */
000058F4  0052 0052                ori.w      [A2], 0x52 /* 'R' */
000058F8  0052 0052                ori.w      [A2], 0x52 /* 'R' */
000058FC  0052 FE0C                ori.w      [A2], 0xFE0C
00005900  FE0C 302E                .unknown   0xFE0C 0x302E (W = 7)
// begin alternate branch 00005902-00005912
label00005902:
00005902  302E FEB0                move.w     D0, [A6 - 0x150]
00005906  6000 0078                bra        +0x7A /* 00005980 */
label0000590A:
0000590A  554F                     subq.w     A7, 2
0000590C  3F3C 0005                move.w     -[A7], 0x5
00005910  2F0E                     move.l     -[A7], A6
// end alternate branch 00005902-00005912
label00005902: // (misaligned)
00005904  FEB0 6000                .extension 0xEB0 <<F/2-3/7>> // unimplemented
00005908  0078 554F 3F3C           ori.w      [0x00003F3C], 0x554F /* 'UO' */
label0000590A: // (misaligned)
0000590E  0005 2F0E                ori.b      D5, 0xE
00005912  4EBA F320                jsr        [PC - 0xCE0 /* 00004C34 */]
00005916  3E1F                     move.w     D7, [A7]+
00005918  0C47 0001                cmpi.w     D7, 0x1
0000591C  5DC0                     slt        D0
0000591E  0C47 0050                cmpi.w     D7, 0x50 /* 'P' */
00005922  5EC1                     sgt        D1
00005924  8001                     or.b       D0, D1
00005926  671C                     beq        +0x1E /* 00005944 */
00005928  3F3C 0001                move.w     -[A7], 0x1
0000592C  A9C8                     syscall    SysBeep
0000592E  3F3C 0005                move.w     -[A7], 0x5
00005932  3F2D BB3A                move.w     -[A7], [A5 - 0x44C6]
00005936  1F3C 0001                move.b     -[A7], 0x1
0000593A  2F0E                     move.l     -[A7], A6
0000593C  4EBA F33C                jsr        [PC - 0xCC4 /* 00004C7A */]
00005940  4206                     clr.b      D6
00005942  6050                     bra        +0x52 /* 00005994 */
label00005944:
00005944  3D47 FEBC                move.w     [A6 - 0x144], D7
00005948  604A                     bra        +0x4C /* 00005994 */
label0000594A:
0000594A  554F                     subq.w     A7, 2
0000594C  3F3C 0005                move.w     -[A7], 0x5
00005950  2F0E                     move.l     -[A7], A6
00005952  4EBA F2E0                jsr        [PC - 0xD20 /* 00004C34 */]
00005956  3E1F                     move.w     D7, [A7]+
00005958  4A47                     tst.w      D7
0000595A  6C1E                     bge        +0x20 /* 0000597A */
0000595C  3F3C 0001                move.w     -[A7], 0x1
00005960  A9C8                     syscall    SysBeep
00005962  3F3C 0005                move.w     -[A7], 0x5
00005966  3007                     move.w     D0, D7
00005968  4440                     neg.w      D0
0000596A  3F00                     move.w     -[A7], D0
0000596C  1F3C 0001                move.b     -[A7], 0x1
00005970  2F0E                     move.l     -[A7], A6
00005972  4EBA F306                jsr        [PC - 0xCFA /* 00004C7A */]
00005976  4206                     clr.b      D6
00005978  601A                     bra        +0x1C /* 00005994 */
label0000597A:
0000597A  3D47 FEBC                move.w     [A6 - 0x144], D7
0000597E  6014                     bra        +0x16 /* 00005994 */
label00005980:
00005980  0640 FFF6                addi.w     D0, 0xFFF6
00005984  6784                     beq        -0x7A /* 0000590A */
00005986  0640 FFEA                addi.w     D0, 0xFFEA
0000598A  67BE                     beq        -0x40 /* 0000594A */
0000598C  5340                     subq.w     D0, 1
0000598E  67BA                     beq        -0x44 /* 0000594A */
00005990  5540                     subq.w     D0, 2
00005992  67B6                     beq        -0x48 /* 0000594A */
label00005994:
00005994  4A06                     tst.b      D6
00005996  6720                     beq        +0x22 /* 000059B8 */
00005998  302D BB3E                move.w     D0, [A5 - 0x44C2]
0000599C  E940                     asl        D0.w, 4
0000599E  41EE FEB0                lea.l      A0, [A6 - 0x150]
000059A2  0640 F21C                addi.w     D0, 0xF21C
000059A6  43F5 0000                lea.l      A1, [A5 + D0.w]
000059AA  22D8                     move.l     [A1]+, [A0]+
000059AC  22D8                     move.l     [A1]+, [A0]+
000059AE  22D8                     move.l     [A1]+, [A0]+
000059B0  22D8                     move.l     [A1]+, [A0]+
000059B2  1B7C 0001 FD96           move.b     [A5 - 0x26A], 0x1
label000059B8:
000059B8  0C6E 0002 FFD2           cmpi.w     [A6 - 0x2E], 0x2
000059BE  6602                     bne        +0x4 /* 000059C2 */
000059C0  7C01                     moveq.l    D6, 0x01
label000059C2:
000059C2  0C6E 0008 FFD2           cmpi.w     [A6 - 0x2E], 0x8
000059C8  6644                     bne        +0x46 /* 00005A0E */
000059CA  1D7C 0001 FEBE           move.b     [A6 - 0x142], 0x1
000059D0  2F2E FFE6                move.l     -[A7], [A6 - 0x1A]
000059D4  3F3C 0008                move.w     -[A7], 0x8
000059D8  486E FFD4                pea.l      [A6 - 0x2C]
000059DC  486E FFC0                pea.l      [A6 - 0x40]
000059E0  486E FFDE                pea.l      [A6 - 0x22]
000059E4  A98D                     syscall    GetDialogItem/GetDItem
000059E6  2F2E FFC0                move.l     -[A7], [A6 - 0x40]
000059EA  3F3C 0001                move.w     -[A7], 0x1
000059EE  A963                     syscall    SetControlValue/SetCtlValue
000059F0  2F2E FFE6                move.l     -[A7], [A6 - 0x1A]
000059F4  3F3C 0009                move.w     -[A7], 0x9 /* '\t' */
000059F8  486E FFD4                pea.l      [A6 - 0x2C]
000059FC  486E FFC0                pea.l      [A6 - 0x40]
00005A00  486E FFDE                pea.l      [A6 - 0x22]
00005A04  A98D                     syscall    GetDialogItem/GetDItem
00005A06  2F2E FFC0                move.l     -[A7], [A6 - 0x40]
00005A0A  4267                     clr.w      -[A7]
00005A0C  A963                     syscall    SetControlValue/SetCtlValue
label00005A0E:
00005A0E  0C6E 0009 FFD2           cmpi.w     [A6 - 0x2E], 0x9 /* '\t' */
00005A14  6642                     bne        +0x44 /* 00005A58 */
00005A16  422E FEBE                clr.b      [A6 - 0x142]
00005A1A  2F2E FFE6                move.l     -[A7], [A6 - 0x1A]
00005A1E  3F3C 0008                move.w     -[A7], 0x8
00005A22  486E FFD4                pea.l      [A6 - 0x2C]
00005A26  486E FFC0                pea.l      [A6 - 0x40]
00005A2A  486E FFDE                pea.l      [A6 - 0x22]
00005A2E  A98D                     syscall    GetDialogItem/GetDItem
00005A30  2F2E FFC0                move.l     -[A7], [A6 - 0x40]
00005A34  4267                     clr.w      -[A7]
00005A36  A963                     syscall    SetControlValue/SetCtlValue
00005A38  2F2E FFE6                move.l     -[A7], [A6 - 0x1A]
00005A3C  3F3C 0009                move.w     -[A7], 0x9 /* '\t' */
00005A40  486E FFD4                pea.l      [A6 - 0x2C]
00005A44  486E FFC0                pea.l      [A6 - 0x40]
00005A48  486E FFDE                pea.l      [A6 - 0x22]
00005A4C  A98D                     syscall    GetDialogItem/GetDItem
00005A4E  2F2E FFC0                move.l     -[A7], [A6 - 0x40]
00005A52  3F3C 0001                move.w     -[A7], 0x1
00005A56  A963                     syscall    SetControlValue/SetCtlValue
label00005A58:
00005A58  4A06                     tst.b      D6
00005A5A  6700 F9EC                beq        -0x612 /* 00005448 */
00005A5E  2F2E FFE6                move.l     -[A7], [A6 - 0x1A]
00005A62  A983                     syscall    DisposeDialog
00005A64  4AAD B8B6                tst.l      [A5 - 0x474A]
00005A68  6708                     beq        +0xA /* 00005A72 */
00005A6A  2F2D B8B6                move.l     -[A7], [A5 - 0x474A]
00005A6E  A873                     syscall    SetPort
00005A70  6006                     bra        +0x8 /* 00005A78 */
label00005A72:
00005A72  2F2E FFEC                move.l     -[A7], [A6 - 0x14]
00005A76  A873                     syscall    SetPort
label00005A78:
00005A78  4EBA BD9A                jsr        [PC - 0x4266 /* 00001814 */]
00005A7C  4CDF 10F8                movem.l    D3,D4,D5,D6,D7,A4, [A7]+
00005A80  4E5E                     unlink     A6
00005A82  4E75                     rts
00005A84  0D57                     bchg       [A7], D6
00005A86  696E                     bvs        +0x70 /* 00005AF6 */
00005A88  646F                     bcc        +0x71 /* 00005AF9 */
00005A8A  7720                     moveq.l    D3, 0x20
00005A8C  436C 6F73                chk.w      D1, [A4 + 0x6F73]
00005A90  6564                     bcs        +0x66 /* 00005AF6 */
00005A92  0B57                     bchg       [A7], D5
00005A94  696E                     bvs        +0x70 /* 00005B04 */
00005A96  646F                     bcc        +0x71 /* 00005B07 */
00005A98  7720                     moveq.l    D3, 0x20
00005A9A  4F70 656E                chk.w      D7, <<invalid full ext with IS == 1 and I/IS == 6>>
00005A9E  0753                     bchg       [A3], D3
00005AA0  7069                     moveq.l    D0, 0x69
00005AA2  6C6C                     bge        +0x6E /* 00005B10 */
00005AA4  6564                     bcs        +0x66 /* 00005B0A */
00005AA6  0255 7016                andi.w     [A5], 0x7016
00005AAA  0753                     bchg       [A3], D3
00005AAC  7563                     moveq.l    D2, 0x63
00005AAE  7469                     moveq.l    D2, 0x69
00005AB0  6F6E                     ble        +0x70 /* 00005B20 */
00005AB2  0642 6C6F                addi.w     D2, 0x6C6F /* 'lo' */
00005AB6  7765                     moveq.l    D3, 0x65
00005AB8  7216                     moveq.l    D1, 0x16
00005ABA  104C                     movea.b    A0, A4
00005ABC  656E                     bcs        +0x70 /* 00005B2C */
00005ABE  6774                     beq        +0x76 /* 00005B34 */
00005AC0  6820                     bvc        +0x22 /* 00005AE2 */
00005AC2  6F66                     ble        +0x68 /* 00005B2A */
00005AC4  2073 7069                movea.l    A0, [A3 + D7.w + 0x69]
00005AC8  6C6C                     bge        +0x6E /* 00005B36 */
00005ACA  3A16                     move.w     D5, [A6]
00005ACC  134F 626A                move.b     [A1 + 0x626A], A7
00005AD0  6563                     bcs        +0x65 /* 00005B35 */
00005AD2  7420                     moveq.l    D2, 0x20
00005AD4  2320                     move.l     -[A1], -[A0]
00005AD6  6C69                     bge        +0x6B /* 00005B41 */
00005AD8  6E6B                     bgt        +0x6D /* 00005B45 */
00005ADA  6564                     bcs        +0x66 /* 00005B40 */
00005ADC  2074 6F3A 0951 7561 6E74 movea.l    A0, [[A4 + 0x9517561 + D6 * 8] + 0x6E74]
// begin alternate branch 00005AE2-00005AE6
label00005AE2:
00005AE2  7561                     moveq.l    D2, 0x61
00005AE4  6E74                     bgt        +0x76 /* 00005B5A */
// end alternate branch 00005AE2-00005AE6
label00005AE2: // (misaligned)
00005AE6  6974                     bvs        +0x76 /* 00005B5C */
00005AE8  793A                     moveq.l    D4, 0x3A
00005AEA  0F50                     bchg       [A0], D7
00005AEC  6F69                     ble        +0x6B /* 00005B57 */
00005AEE  6E74                     bgt        +0x76 /* 00005B64 */
00005AF0  7320                     moveq.l    D1, 0x20
00005AF2  6177                     bsr        +0x79 /* 00005B6B */
00005AF4  6172                     bsr        +0x74 /* 00005B68 */
label00005AF6:
00005AF6  6465                     bcc        +0x67 /* 00005B5D */
00005AF8  643A                     bcc        +0x3C /* 00005B34 */
00005AFA  0D44                     bchg       D4, D6
00005AFC  656C                     bcs        +0x6E /* 00005B6A */
00005AFE  6179                     bsr        +0x7B /* 00005B79 */
00005B00  2028 312F                move.l     D0, [A0 + 0x312F]
label00005B04:
00005B04  3630 293A 114C 656E 6774 move.w     D3, [[A0 + 0x114C656E + D2] + 0x6774]
// begin alternate branch 00005B0A-00005B0E
label00005B0A:
00005B0A  656E                     bcs        +0x70 /* 00005B7A */
00005B0C  6774                     beq        +0x76 /* 00005B82 */
// end alternate branch 00005B0A-00005B0E
label00005B0A: // (misaligned)
00005B0E  6820                     bvc        +0x22 /* 00005B30 */
label00005B10:
00005B10  6F66                     ble        +0x68 /* 00005B78 */
00005B12  2074 7261                movea.l    A0, [A4 + D7.w * 2 + 0x61]
00005B16  7665                     moveq.l    D3, 0x65
00005B18  6C3A                     bge        +0x3C /* 00005B54 */
00005B1A  154C 656E                move.b     [A2 + 0x656E], A4
00005B1E  6774                     beq        +0x76 /* 00005B94 */
label00005B20:
00005B20  6820                     bvc        +0x22 /* 00005B42 */
00005B22  6F66                     ble        +0x68 /* 00005B8A */
00005B24  2061                     movea.l    A0, -[A1]
00005B26  6972                     bvs        +0x74 /* 00005B9A */
00005B28  2063                     movea.l    A0, -[A3]
label00005B2A:
00005B2A  6F6C                     ble        +0x6E /* 00005B98 */
label00005B2C:
00005B2C  756D                     moveq.l    D2, 0x6D
00005B2E  6E3A                     bgt        +0x3C /* 00005B6A */
label00005B30:
00005B30  1452                     movea.b    A2, [A2]
00005B32  6F6F                     ble        +0x71 /* 00005BA3 */
label00005B34:
00005B34  6D20                     blt        +0x22 /* 00005B56 */
label00005B36:
00005B36  2320                     move.l     -[A1], -[A0]
00005B38  636F                     bls        +0x71 /* 00005BA9 */
00005B3A  6E6E                     bgt        +0x70 /* 00005BAA */
00005B3C  6563                     bcs        +0x65 /* 00005BA1 */
00005B3E  7465                     moveq.l    D2, 0x65
label00005B40:
00005B40  6420                     bcc        +0x22 /* 00005B62 */
label00005B42:
00005B42  746F                     moveq.l    D2, 0x6F
00005B44  3A16                     move.w     D5, [A6]
00005B46  1344 656C                move.b     [A1 + 0x656C], D4
00005B4A  6179                     bsr        +0x7B /* 00005BC5 */
00005B4C  2028 312F                move.l     D0, [A0 + 0x312F]
00005B50  3630 7468                move.w     D3, [A0 + D7.w * 4 + 0x68]
label00005B54:
00005B54  2073 6563 7329 0952 6D20 movea.l    A0, [[A3 + 0x7329] + 0x9526D20]
// begin alternate branch 00005B56-00005B5E
label00005B56:
00005B56  6563                     bcs        +0x65 /* 00005BBB */
00005B58  7329                     moveq.l    D1, 0x29
label00005B5A:
00005B5A  0952                     bchg       [A2], D4
label00005B5C:
00005B5C  6D20                     blt        +0x22 /* 00005B7E */
// end alternate branch 00005B56-00005B5E
label00005B56: // (misaligned)
label00005B5A: // (misaligned)
label00005B5C: // (misaligned)
00005B5E  2320                     move.l     -[A1], -[A0]
00005B60  6C69                     bge        +0x6B /* 00005BCB */
label00005B62:
00005B62  6E6B                     bgt        +0x6D /* 00005BCF */
export_64:
label00005B64:
00005B64  4E56 0000                link       A6, 0
fn00005B68:
00005B68  422E 0008                clr.b      [A6 + 0x8]
// begin alternate branch 00005B6A-00005B72
label00005B6A:
00005B6A  0008 0C6D                ori.b      A0, 0x6D /* 'm' */
00005B6E  0010 F20C                ori.b      [A0], 0xC
// end alternate branch 00005B6A-00005B72
label00005B6A: // (misaligned)
00005B6C  0C6D 0010 F20C           cmpi.w     [A5 - 0xDF4], 0x10
00005B72  6D0A                     blt        +0xC /* 00005B7E */
00005B74  3F3C 000B                move.w     -[A7], 0xB
label00005B78:
00005B78  4EAD 0272                jsr        [A5 + 0x272 /* export_74, CODE:5 @ 00000A50 */]
// begin alternate branch 00005B7A-00005B88
label00005B7A:
00005B7A  0272 6038 4EAD           andi.w     [A2 + D4 * 8 - 0x53], 0x6038 /* '`8' */
label00005B7E: // (misaligned)
00005B80  0262 302D                andi.w     -[A2], 0x302D /* '0-' */
label00005B82: // (misaligned)
00005B84  F20C 5240                fsmove     fp4, (int16_t) A4
// end alternate branch 00005B7A-00005B88
label00005B7A: // (misaligned)
00005B7C  6038                     bra        +0x3A /* 00005BB6 */
label00005B7E:
00005B7E  4EAD 0262                jsr        [A5 + 0x262 /* export_72, CODE:5 @ 0000094E */]
label00005B82:
00005B82  302D F20C                move.w     D0, [A5 - 0xDF4]
00005B86  5240                     addq.w     D0, 1
00005B88  3B40 F20C                move.w     [A5 - 0xDF4], D0
// begin alternate branch 00005B8A-00005B92
label00005B8A:
00005B8A  F20C 302D                .invalid   fmove, !rm
00005B8E  F20C E940                .cpgen     0xF20C, 0xE940 // unimplemented
// end alternate branch 00005B8A-00005B92
label00005B8A: // (misaligned)
00005B8C  302D F20C                move.w     D0, [A5 - 0xDF4]
00005B90  E940                     asl        D0.w, 4
00005B92  41ED F466                lea.l      A0, [A5 - 0xB9A]
// begin alternate branch 00005B94-00005B96
label00005B94:
00005B94  F466                     .invalid   <<cinv/cpush with scope=0>>
// end alternate branch 00005B94-00005B96
label00005B94: // (misaligned)
00005B96  0640 F21C                addi.w     D0, 0xF21C
// begin alternate branch 00005B98-00005BA0
label00005B98:
00005B98  F21C 43F5                .invalid   fp7, (int32_t) [A4]+
label00005B9A: // (misaligned)
00005B9C  0000 22D8                ori.b      D0, 0xD8
// end alternate branch 00005B98-00005BA0
label00005B98: // (misaligned)
label00005B9A:
00005B9A  43F5 0000                lea.l      A1, [A5 + D0.w]
00005B9E  22D8                     move.l     [A1]+, [A0]+
00005BA0  22D8                     move.l     [A1]+, [A0]+
00005BA2  22D8                     move.l     [A1]+, [A0]+
00005BA4  22D8                     move.l     [A1]+, [A0]+
00005BA6  3B6D F20C BB3E           move.w     [A5 - 0x44C2], [A5 - 0xDF4]
// begin alternate branch 00005BAA-00005BAC
label00005BAA:
00005BAA  BB3E                     xor.b      <<invalid special address>>, D5
// end alternate branch 00005BAA-00005BAC
label00005BAA: // (misaligned)
00005BAC  4EAD 025A                jsr        [A5 + 0x25A /* export_71, CODE:5 @ 000006B2 */]
00005BB0  1D7C 0001 0008           move.b     [A6 + 0x8], 0x1
label00005BB6:
00005BB6  4E5E                     unlink     A6
00005BB8  4E75                     rts
